GAS LISTING C:\Users\SOLDER~1\AppData\Local\Temp\ccEQi33f.s 			page 1


   1              		.file	"ch32v20x_pwr.c"
   2              		.option nopic
   3              		.attribute arch, "rv32i2p0_m2p0_a2p0_c2p0_xw"
   4              		.attribute unaligned_access, 0
   5              		.attribute stack_align, 16
   6              		.text
   7              	.Ltext0:
   8              		.cfi_sections	.debug_frame
   9              		.file 0 "C:\\Users\\Solderingiron\\Documents\\GitHub\\VSC-make-example\\VSC_CH32V203C8T6" "Drivers
  10              		.section	.text.PWR_DeInit,"ax",@progbits
  11              		.align	1
  12              		.globl	PWR_DeInit
  14              	PWR_DeInit:
  15              	.LFB16:
  16              		.file 1 "Drivers/src/ch32v20x_pwr.c"
   1:Drivers/src/ch32v20x_pwr.c **** /********************************** (C) COPYRIGHT *******************************
   2:Drivers/src/ch32v20x_pwr.c ****  * File Name          : ch32v20x_pwr.c
   3:Drivers/src/ch32v20x_pwr.c ****  * Author             : WCH
   4:Drivers/src/ch32v20x_pwr.c ****  * Version            : V1.0.0
   5:Drivers/src/ch32v20x_pwr.c ****  * Date               : 2021/06/06
   6:Drivers/src/ch32v20x_pwr.c ****  * Description        : This file provides all the PWR firmware functions.
   7:Drivers/src/ch32v20x_pwr.c **** *********************************************************************************
   8:Drivers/src/ch32v20x_pwr.c **** * Copyright (c) 2021 Nanjing Qinheng Microelectronics Co., Ltd.
   9:Drivers/src/ch32v20x_pwr.c **** * Attention: This software (modified or not) and binary are used for 
  10:Drivers/src/ch32v20x_pwr.c **** * microcontroller manufactured by Nanjing Qinheng Microelectronics.
  11:Drivers/src/ch32v20x_pwr.c **** *******************************************************************************/
  12:Drivers/src/ch32v20x_pwr.c **** #include "ch32v20x_pwr.h"
  13:Drivers/src/ch32v20x_pwr.c **** #include "ch32v20x_rcc.h"
  14:Drivers/src/ch32v20x_pwr.c **** 
  15:Drivers/src/ch32v20x_pwr.c **** /* PWR registers bit mask */
  16:Drivers/src/ch32v20x_pwr.c **** /* CTLR register bit mask */
  17:Drivers/src/ch32v20x_pwr.c **** #define CTLR_DS_MASK     ((uint32_t)0xFFFFFFFC)
  18:Drivers/src/ch32v20x_pwr.c **** #define CTLR_PLS_MASK    ((uint32_t)0xFFFFFF1F)
  19:Drivers/src/ch32v20x_pwr.c **** 
  20:Drivers/src/ch32v20x_pwr.c **** /*********************************************************************
  21:Drivers/src/ch32v20x_pwr.c ****  * @fn      PWR_DeInit
  22:Drivers/src/ch32v20x_pwr.c ****  *
  23:Drivers/src/ch32v20x_pwr.c ****  * @brief   Deinitializes the PWR peripheral registers to their default
  24:Drivers/src/ch32v20x_pwr.c ****  *        reset values.
  25:Drivers/src/ch32v20x_pwr.c ****  *
  26:Drivers/src/ch32v20x_pwr.c ****  * @return  none
  27:Drivers/src/ch32v20x_pwr.c ****  */
  28:Drivers/src/ch32v20x_pwr.c **** void PWR_DeInit(void)
  29:Drivers/src/ch32v20x_pwr.c **** {
  17              		.loc 1 29 1
  18              		.cfi_startproc
  19 0000 4111     		addi	sp,sp,-16
  20              		.cfi_def_cfa_offset 16
  21 0002 06C6     		sw	ra,12(sp)
  22 0004 22C4     		sw	s0,8(sp)
  23              		.cfi_offset 1, -4
  24              		.cfi_offset 8, -8
  25 0006 0008     		addi	s0,sp,16
  26              		.cfi_def_cfa 8, 0
  30:Drivers/src/ch32v20x_pwr.c ****     RCC_APB1PeriphResetCmd(RCC_APB1Periph_PWR, ENABLE);
  27              		.loc 1 30 5
  28 0008 8545     		li	a1,1
GAS LISTING C:\Users\SOLDER~1\AppData\Local\Temp\ccEQi33f.s 			page 2


  29 000a 37050010 		li	a0,268435456
  30 000e 97000000 		call	RCC_APB1PeriphResetCmd
  30      E7800000 
  31:Drivers/src/ch32v20x_pwr.c ****     RCC_APB1PeriphResetCmd(RCC_APB1Periph_PWR, DISABLE);
  31              		.loc 1 31 5
  32 0016 8145     		li	a1,0
  33 0018 37050010 		li	a0,268435456
  34 001c 97000000 		call	RCC_APB1PeriphResetCmd
  34      E7800000 
  32:Drivers/src/ch32v20x_pwr.c **** }
  35              		.loc 1 32 1
  36 0024 0100     		nop
  37 0026 B240     		lw	ra,12(sp)
  38              		.cfi_restore 1
  39 0028 2244     		lw	s0,8(sp)
  40              		.cfi_restore 8
  41              		.cfi_def_cfa 2, 16
  42 002a 4101     		addi	sp,sp,16
  43              		.cfi_def_cfa_offset 0
  44 002c 8280     		jr	ra
  45              		.cfi_endproc
  46              	.LFE16:
  48              		.section	.text.PWR_BackupAccessCmd,"ax",@progbits
  49              		.align	1
  50              		.globl	PWR_BackupAccessCmd
  52              	PWR_BackupAccessCmd:
  53              	.LFB17:
  33:Drivers/src/ch32v20x_pwr.c **** 
  34:Drivers/src/ch32v20x_pwr.c **** /*********************************************************************
  35:Drivers/src/ch32v20x_pwr.c ****  * @fn      PWR_BackupAccessCmd
  36:Drivers/src/ch32v20x_pwr.c ****  *
  37:Drivers/src/ch32v20x_pwr.c ****  * @brief   Enables or disables access to the RTC and backup registers.
  38:Drivers/src/ch32v20x_pwr.c ****  *
  39:Drivers/src/ch32v20x_pwr.c ****  * @param   NewState - new state of the access to the RTC and backup registers,
  40:Drivers/src/ch32v20x_pwr.c ****  *            This parameter can be: ENABLE or DISABLE.
  41:Drivers/src/ch32v20x_pwr.c ****  *
  42:Drivers/src/ch32v20x_pwr.c ****  * @return  none
  43:Drivers/src/ch32v20x_pwr.c ****  */
  44:Drivers/src/ch32v20x_pwr.c **** void PWR_BackupAccessCmd(FunctionalState NewState)
  45:Drivers/src/ch32v20x_pwr.c **** {
  54              		.loc 1 45 1
  55              		.cfi_startproc
  56 0000 0111     		addi	sp,sp,-32
  57              		.cfi_def_cfa_offset 32
  58 0002 22CE     		sw	s0,28(sp)
  59              		.cfi_offset 8, -4
  60 0004 0010     		addi	s0,sp,32
  61              		.cfi_def_cfa 8, 0
  62 0006 2326A4FE 		sw	a0,-20(s0)
  46:Drivers/src/ch32v20x_pwr.c ****     if(NewState)
  63              		.loc 1 46 7
  64 000a 8327C4FE 		lw	a5,-20(s0)
  65 000e 91CB     		beq	a5,zero,.L3
  47:Drivers/src/ch32v20x_pwr.c ****     {
  48:Drivers/src/ch32v20x_pwr.c ****         PWR->CTLR |= (1 << 8);
  66              		.loc 1 48 12
  67 0010 B7770040 		li	a5,1073770496
GAS LISTING C:\Users\SOLDER~1\AppData\Local\Temp\ccEQi33f.s 			page 3


  68 0014 9843     		lw	a4,0(a5)
  69 0016 B7770040 		li	a5,1073770496
  70              		.loc 1 48 19
  71 001a 13670710 		ori	a4,a4,256
  72 001e 98C3     		sw	a4,0(a5)
  49:Drivers/src/ch32v20x_pwr.c ****     }
  50:Drivers/src/ch32v20x_pwr.c ****     else
  51:Drivers/src/ch32v20x_pwr.c ****     {
  52:Drivers/src/ch32v20x_pwr.c ****         PWR->CTLR &= ~(1 << 8);
  53:Drivers/src/ch32v20x_pwr.c ****     }
  54:Drivers/src/ch32v20x_pwr.c **** }
  73              		.loc 1 54 1
  74 0020 09A8     		j	.L5
  75              	.L3:
  52:Drivers/src/ch32v20x_pwr.c ****     }
  76              		.loc 1 52 12
  77 0022 B7770040 		li	a5,1073770496
  78 0026 9843     		lw	a4,0(a5)
  79 0028 B7770040 		li	a5,1073770496
  52:Drivers/src/ch32v20x_pwr.c ****     }
  80              		.loc 1 52 19
  81 002c 1377F7EF 		andi	a4,a4,-257
  82 0030 98C3     		sw	a4,0(a5)
  83              	.L5:
  84              		.loc 1 54 1
  85 0032 0100     		nop
  86 0034 7244     		lw	s0,28(sp)
  87              		.cfi_restore 8
  88              		.cfi_def_cfa 2, 32
  89 0036 0561     		addi	sp,sp,32
  90              		.cfi_def_cfa_offset 0
  91 0038 8280     		jr	ra
  92              		.cfi_endproc
  93              	.LFE17:
  95              		.section	.text.PWR_PVDCmd,"ax",@progbits
  96              		.align	1
  97              		.globl	PWR_PVDCmd
  99              	PWR_PVDCmd:
 100              	.LFB18:
  55:Drivers/src/ch32v20x_pwr.c **** 
  56:Drivers/src/ch32v20x_pwr.c **** /*********************************************************************
  57:Drivers/src/ch32v20x_pwr.c ****  * @fn      PWR_PVDCmd
  58:Drivers/src/ch32v20x_pwr.c ****  *
  59:Drivers/src/ch32v20x_pwr.c ****  * @brief   Enables or disables the Power Voltage Detector(PVD).
  60:Drivers/src/ch32v20x_pwr.c ****  *
  61:Drivers/src/ch32v20x_pwr.c ****  * @param   NewState - new state of the PVD(ENABLE or DISABLE).
  62:Drivers/src/ch32v20x_pwr.c ****  *
  63:Drivers/src/ch32v20x_pwr.c ****  * @return  none
  64:Drivers/src/ch32v20x_pwr.c ****  */
  65:Drivers/src/ch32v20x_pwr.c **** void PWR_PVDCmd(FunctionalState NewState)
  66:Drivers/src/ch32v20x_pwr.c **** {
 101              		.loc 1 66 1
 102              		.cfi_startproc
 103 0000 0111     		addi	sp,sp,-32
 104              		.cfi_def_cfa_offset 32
 105 0002 22CE     		sw	s0,28(sp)
 106              		.cfi_offset 8, -4
GAS LISTING C:\Users\SOLDER~1\AppData\Local\Temp\ccEQi33f.s 			page 4


 107 0004 0010     		addi	s0,sp,32
 108              		.cfi_def_cfa 8, 0
 109 0006 2326A4FE 		sw	a0,-20(s0)
  67:Drivers/src/ch32v20x_pwr.c ****     if(NewState)
 110              		.loc 1 67 7
 111 000a 8327C4FE 		lw	a5,-20(s0)
 112 000e 91CB     		beq	a5,zero,.L7
  68:Drivers/src/ch32v20x_pwr.c ****     {
  69:Drivers/src/ch32v20x_pwr.c ****         PWR->CTLR |= (1 << 4);
 113              		.loc 1 69 12
 114 0010 B7770040 		li	a5,1073770496
 115 0014 9843     		lw	a4,0(a5)
 116 0016 B7770040 		li	a5,1073770496
 117              		.loc 1 69 19
 118 001a 13670701 		ori	a4,a4,16
 119 001e 98C3     		sw	a4,0(a5)
  70:Drivers/src/ch32v20x_pwr.c ****     }
  71:Drivers/src/ch32v20x_pwr.c ****     else
  72:Drivers/src/ch32v20x_pwr.c ****     {
  73:Drivers/src/ch32v20x_pwr.c ****         PWR->CTLR &= ~(1 << 4);
  74:Drivers/src/ch32v20x_pwr.c ****     }
  75:Drivers/src/ch32v20x_pwr.c **** }
 120              		.loc 1 75 1
 121 0020 01A8     		j	.L9
 122              	.L7:
  73:Drivers/src/ch32v20x_pwr.c ****     }
 123              		.loc 1 73 12
 124 0022 B7770040 		li	a5,1073770496
 125 0026 9843     		lw	a4,0(a5)
 126 0028 B7770040 		li	a5,1073770496
  73:Drivers/src/ch32v20x_pwr.c ****     }
 127              		.loc 1 73 19
 128 002c 3D9B     		andi	a4,a4,-17
 129 002e 98C3     		sw	a4,0(a5)
 130              	.L9:
 131              		.loc 1 75 1
 132 0030 0100     		nop
 133 0032 7244     		lw	s0,28(sp)
 134              		.cfi_restore 8
 135              		.cfi_def_cfa 2, 32
 136 0034 0561     		addi	sp,sp,32
 137              		.cfi_def_cfa_offset 0
 138 0036 8280     		jr	ra
 139              		.cfi_endproc
 140              	.LFE18:
 142              		.section	.text.PWR_PVDLevelConfig,"ax",@progbits
 143              		.align	1
 144              		.globl	PWR_PVDLevelConfig
 146              	PWR_PVDLevelConfig:
 147              	.LFB19:
  76:Drivers/src/ch32v20x_pwr.c **** 
  77:Drivers/src/ch32v20x_pwr.c **** /*********************************************************************
  78:Drivers/src/ch32v20x_pwr.c ****  * @fn      PWR_PVDLevelConfig
  79:Drivers/src/ch32v20x_pwr.c ****  *
  80:Drivers/src/ch32v20x_pwr.c ****  * @brief   Configures the voltage threshold detected by the Power Voltage
  81:Drivers/src/ch32v20x_pwr.c ****  *        Detector(PVD).
  82:Drivers/src/ch32v20x_pwr.c ****  *
GAS LISTING C:\Users\SOLDER~1\AppData\Local\Temp\ccEQi33f.s 			page 5


  83:Drivers/src/ch32v20x_pwr.c ****  * @param   PWR_PVDLevel - specifies the PVD detection level
  84:Drivers/src/ch32v20x_pwr.c ****  *            PWR_PVDLevel_2V2 - PVD detection level set to 2.2V
  85:Drivers/src/ch32v20x_pwr.c ****  *            PWR_PVDLevel_2V3 - PVD detection level set to 2.3V
  86:Drivers/src/ch32v20x_pwr.c ****  *            PWR_PVDLevel_2V4 - PVD detection level set to 2.4V
  87:Drivers/src/ch32v20x_pwr.c ****  *            PWR_PVDLevel_2V5 - PVD detection level set to 2.5V
  88:Drivers/src/ch32v20x_pwr.c ****  *            PWR_PVDLevel_2V6 - PVD detection level set to 2.6V
  89:Drivers/src/ch32v20x_pwr.c ****  *            PWR_PVDLevel_2V7 - PVD detection level set to 2.7V
  90:Drivers/src/ch32v20x_pwr.c ****  *            PWR_PVDLevel_2V8 - PVD detection level set to 2.8V
  91:Drivers/src/ch32v20x_pwr.c ****  *            PWR_PVDLevel_2V9 - PVD detection level set to 2.9V
  92:Drivers/src/ch32v20x_pwr.c ****  *
  93:Drivers/src/ch32v20x_pwr.c ****  * @return  none
  94:Drivers/src/ch32v20x_pwr.c ****  */
  95:Drivers/src/ch32v20x_pwr.c **** void PWR_PVDLevelConfig(uint32_t PWR_PVDLevel)
  96:Drivers/src/ch32v20x_pwr.c **** {
 148              		.loc 1 96 1
 149              		.cfi_startproc
 150 0000 7971     		addi	sp,sp,-48
 151              		.cfi_def_cfa_offset 48
 152 0002 22D6     		sw	s0,44(sp)
 153              		.cfi_offset 8, -4
 154 0004 0018     		addi	s0,sp,48
 155              		.cfi_def_cfa 8, 0
 156 0006 232EA4FC 		sw	a0,-36(s0)
  97:Drivers/src/ch32v20x_pwr.c ****     uint32_t tmpreg = 0;
 157              		.loc 1 97 14
 158 000a 232604FE 		sw	zero,-20(s0)
  98:Drivers/src/ch32v20x_pwr.c ****     tmpreg = PWR->CTLR;
 159              		.loc 1 98 17
 160 000e B7770040 		li	a5,1073770496
 161              		.loc 1 98 12
 162 0012 9C43     		lw	a5,0(a5)
 163 0014 2326F4FE 		sw	a5,-20(s0)
  99:Drivers/src/ch32v20x_pwr.c ****     tmpreg &= CTLR_PLS_MASK;
 164              		.loc 1 99 12
 165 0018 8327C4FE 		lw	a5,-20(s0)
 166 001c 93F7F7F1 		andi	a5,a5,-225
 167 0020 2326F4FE 		sw	a5,-20(s0)
 100:Drivers/src/ch32v20x_pwr.c ****     tmpreg |= PWR_PVDLevel;
 168              		.loc 1 100 12
 169 0024 0327C4FE 		lw	a4,-20(s0)
 170 0028 8327C4FD 		lw	a5,-36(s0)
 171 002c D98F     		or	a5,a4,a5
 172 002e 2326F4FE 		sw	a5,-20(s0)
 101:Drivers/src/ch32v20x_pwr.c ****     PWR->CTLR = tmpreg;
 173              		.loc 1 101 8
 174 0032 B7770040 		li	a5,1073770496
 175              		.loc 1 101 15
 176 0036 0327C4FE 		lw	a4,-20(s0)
 177 003a 98C3     		sw	a4,0(a5)
 102:Drivers/src/ch32v20x_pwr.c **** }
 178              		.loc 1 102 1
 179 003c 0100     		nop
 180 003e 3254     		lw	s0,44(sp)
 181              		.cfi_restore 8
 182              		.cfi_def_cfa 2, 48
 183 0040 4561     		addi	sp,sp,48
 184              		.cfi_def_cfa_offset 0
GAS LISTING C:\Users\SOLDER~1\AppData\Local\Temp\ccEQi33f.s 			page 6


 185 0042 8280     		jr	ra
 186              		.cfi_endproc
 187              	.LFE19:
 189              		.section	.text.PWR_WakeUpPinCmd,"ax",@progbits
 190              		.align	1
 191              		.globl	PWR_WakeUpPinCmd
 193              	PWR_WakeUpPinCmd:
 194              	.LFB20:
 103:Drivers/src/ch32v20x_pwr.c **** 
 104:Drivers/src/ch32v20x_pwr.c **** /*********************************************************************
 105:Drivers/src/ch32v20x_pwr.c ****  * @fn      PWR_WakeUpPinCmd
 106:Drivers/src/ch32v20x_pwr.c ****  *
 107:Drivers/src/ch32v20x_pwr.c ****  * @brief   Enables or disables the WakeUp Pin functionality.
 108:Drivers/src/ch32v20x_pwr.c ****  *
 109:Drivers/src/ch32v20x_pwr.c ****  * @param   NewState - new state of the WakeUp Pin functionality
 110:Drivers/src/ch32v20x_pwr.c ****  *        (ENABLE or DISABLE).
 111:Drivers/src/ch32v20x_pwr.c ****  *
 112:Drivers/src/ch32v20x_pwr.c ****  * @return  none
 113:Drivers/src/ch32v20x_pwr.c ****  */
 114:Drivers/src/ch32v20x_pwr.c **** void PWR_WakeUpPinCmd(FunctionalState NewState)
 115:Drivers/src/ch32v20x_pwr.c **** {
 195              		.loc 1 115 1
 196              		.cfi_startproc
 197 0000 0111     		addi	sp,sp,-32
 198              		.cfi_def_cfa_offset 32
 199 0002 22CE     		sw	s0,28(sp)
 200              		.cfi_offset 8, -4
 201 0004 0010     		addi	s0,sp,32
 202              		.cfi_def_cfa 8, 0
 203 0006 2326A4FE 		sw	a0,-20(s0)
 116:Drivers/src/ch32v20x_pwr.c ****     if(NewState)
 204              		.loc 1 116 7
 205 000a 8327C4FE 		lw	a5,-20(s0)
 206 000e 91CB     		beq	a5,zero,.L12
 117:Drivers/src/ch32v20x_pwr.c ****     {
 118:Drivers/src/ch32v20x_pwr.c ****         PWR->CSR |= (1 << 8);
 207              		.loc 1 118 12
 208 0010 B7770040 		li	a5,1073770496
 209 0014 D843     		lw	a4,4(a5)
 210 0016 B7770040 		li	a5,1073770496
 211              		.loc 1 118 18
 212 001a 13670710 		ori	a4,a4,256
 213 001e D8C3     		sw	a4,4(a5)
 119:Drivers/src/ch32v20x_pwr.c ****     }
 120:Drivers/src/ch32v20x_pwr.c ****     else
 121:Drivers/src/ch32v20x_pwr.c ****     {
 122:Drivers/src/ch32v20x_pwr.c ****         PWR->CSR &= ~(1 << 8);
 123:Drivers/src/ch32v20x_pwr.c ****     }
 124:Drivers/src/ch32v20x_pwr.c **** }
 214              		.loc 1 124 1
 215 0020 09A8     		j	.L14
 216              	.L12:
 122:Drivers/src/ch32v20x_pwr.c ****     }
 217              		.loc 1 122 12
 218 0022 B7770040 		li	a5,1073770496
 219 0026 D843     		lw	a4,4(a5)
 220 0028 B7770040 		li	a5,1073770496
GAS LISTING C:\Users\SOLDER~1\AppData\Local\Temp\ccEQi33f.s 			page 7


 122:Drivers/src/ch32v20x_pwr.c ****     }
 221              		.loc 1 122 18
 222 002c 1377F7EF 		andi	a4,a4,-257
 223 0030 D8C3     		sw	a4,4(a5)
 224              	.L14:
 225              		.loc 1 124 1
 226 0032 0100     		nop
 227 0034 7244     		lw	s0,28(sp)
 228              		.cfi_restore 8
 229              		.cfi_def_cfa 2, 32
 230 0036 0561     		addi	sp,sp,32
 231              		.cfi_def_cfa_offset 0
 232 0038 8280     		jr	ra
 233              		.cfi_endproc
 234              	.LFE20:
 236              		.section	.text.PWR_EnterSTOPMode,"ax",@progbits
 237              		.align	1
 238              		.globl	PWR_EnterSTOPMode
 240              	PWR_EnterSTOPMode:
 241              	.LFB21:
 125:Drivers/src/ch32v20x_pwr.c **** 
 126:Drivers/src/ch32v20x_pwr.c **** /*********************************************************************
 127:Drivers/src/ch32v20x_pwr.c ****  * @fn      PWR_EnterSTOPMode
 128:Drivers/src/ch32v20x_pwr.c ****  *
 129:Drivers/src/ch32v20x_pwr.c ****  * @brief   Enters STOP mode.
 130:Drivers/src/ch32v20x_pwr.c ****  *
 131:Drivers/src/ch32v20x_pwr.c ****  * @param   PWR_Regulator - specifies the regulator state in STOP mode.
 132:Drivers/src/ch32v20x_pwr.c ****  *            PWR_Regulator_ON - STOP mode with regulator ON
 133:Drivers/src/ch32v20x_pwr.c ****  *            PWR_Regulator_LowPower - STOP mode with regulator in low power mode
 134:Drivers/src/ch32v20x_pwr.c ****  *          PWR_STOPEntry - specifies if STOP mode in entered with WFI or WFE instruction.
 135:Drivers/src/ch32v20x_pwr.c ****  *            PWR_STOPEntry_WFI - enter STOP mode with WFI instruction
 136:Drivers/src/ch32v20x_pwr.c ****  *            PWR_STOPEntry_WFE - enter STOP mode with WFE instruction
 137:Drivers/src/ch32v20x_pwr.c ****  *
 138:Drivers/src/ch32v20x_pwr.c ****  * @return  none
 139:Drivers/src/ch32v20x_pwr.c ****  */
 140:Drivers/src/ch32v20x_pwr.c **** void PWR_EnterSTOPMode(uint32_t PWR_Regulator, uint8_t PWR_STOPEntry)
 141:Drivers/src/ch32v20x_pwr.c **** {
 242              		.loc 1 141 1
 243              		.cfi_startproc
 244 0000 7971     		addi	sp,sp,-48
 245              		.cfi_def_cfa_offset 48
 246 0002 22D6     		sw	s0,44(sp)
 247              		.cfi_offset 8, -4
 248 0004 0018     		addi	s0,sp,48
 249              		.cfi_def_cfa 8, 0
 250 0006 232EA4FC 		sw	a0,-36(s0)
 251 000a AE87     		mv	a5,a1
 252 000c A30DF4FC 		sb	a5,-37(s0)
 142:Drivers/src/ch32v20x_pwr.c ****     uint32_t tmpreg = 0;
 253              		.loc 1 142 14
 254 0010 232604FE 		sw	zero,-20(s0)
 143:Drivers/src/ch32v20x_pwr.c ****     tmpreg = PWR->CTLR;
 255              		.loc 1 143 17
 256 0014 B7770040 		li	a5,1073770496
 257              		.loc 1 143 12
 258 0018 9C43     		lw	a5,0(a5)
 259 001a 2326F4FE 		sw	a5,-20(s0)
GAS LISTING C:\Users\SOLDER~1\AppData\Local\Temp\ccEQi33f.s 			page 8


 144:Drivers/src/ch32v20x_pwr.c ****     tmpreg &= CTLR_DS_MASK;
 260              		.loc 1 144 12
 261 001e 8327C4FE 		lw	a5,-20(s0)
 262 0022 F19B     		andi	a5,a5,-4
 263 0024 2326F4FE 		sw	a5,-20(s0)
 145:Drivers/src/ch32v20x_pwr.c ****     tmpreg |= PWR_Regulator;
 264              		.loc 1 145 12
 265 0028 0327C4FE 		lw	a4,-20(s0)
 266 002c 8327C4FD 		lw	a5,-36(s0)
 267 0030 D98F     		or	a5,a4,a5
 268 0032 2326F4FE 		sw	a5,-20(s0)
 146:Drivers/src/ch32v20x_pwr.c ****     PWR->CTLR = tmpreg;
 269              		.loc 1 146 8
 270 0036 B7770040 		li	a5,1073770496
 271              		.loc 1 146 15
 272 003a 0327C4FE 		lw	a4,-20(s0)
 273 003e 98C3     		sw	a4,0(a5)
 147:Drivers/src/ch32v20x_pwr.c **** 
 148:Drivers/src/ch32v20x_pwr.c ****     NVIC->SCTLR |= (1 << 2);
 274              		.loc 1 148 9
 275 0040 37E700E0 		li	a4,-536813568
 276 0044 8567     		li	a5,4096
 277 0046 BA97     		add	a5,a4,a5
 278 0048 83A707D1 		lw	a5,-752(a5)
 279 004c B7E600E0 		li	a3,-536813568
 280              		.loc 1 148 17
 281 0050 13E74700 		ori	a4,a5,4
 282 0054 8567     		li	a5,4096
 283 0056 B697     		add	a5,a3,a5
 284 0058 23A8E7D0 		sw	a4,-752(a5)
 149:Drivers/src/ch32v20x_pwr.c **** 
 150:Drivers/src/ch32v20x_pwr.c ****     if(PWR_STOPEntry == PWR_STOPEntry_WFI)
 285              		.loc 1 150 7
 286 005c 0347B4FD 		lbu	a4,-37(s0)
 287 0060 8547     		li	a5,1
 288 0062 6313F702 		bne	a4,a5,.L16
 289              	.LBB20:
 290              	.LBB21:
 291              		.file 2 "Drivers/inc/core_riscv.h"
   1:Drivers/inc/core_riscv.h **** /********************************** (C) COPYRIGHT  *******************************
   2:Drivers/inc/core_riscv.h ****  * File Name          : core_riscv.h
   3:Drivers/inc/core_riscv.h ****  * Author             : WCH
   4:Drivers/inc/core_riscv.h ****  * Version            : V1.0.0
   5:Drivers/inc/core_riscv.h ****  * Date               : 2021/06/06
   6:Drivers/inc/core_riscv.h ****  * Description        : RISC-V Core Peripheral Access Layer Header File for CH32V20x
   7:Drivers/inc/core_riscv.h ****  * Copyright (c) 2021 Nanjing Qinheng Microelectronics Co., Ltd.
   8:Drivers/inc/core_riscv.h ****  * SPDX-License-Identifier: Apache-2.0
   9:Drivers/inc/core_riscv.h ****  *******************************************************************************/
  10:Drivers/inc/core_riscv.h **** #ifndef __CORE_RISCV_H__
  11:Drivers/inc/core_riscv.h **** #define __CORE_RISCV_H__
  12:Drivers/inc/core_riscv.h **** 
  13:Drivers/inc/core_riscv.h **** /* IO definitions */
  14:Drivers/inc/core_riscv.h **** #ifdef __cplusplus
  15:Drivers/inc/core_riscv.h **** #define     __I     volatile                /*!< defines 'read only' permissions      */
  16:Drivers/inc/core_riscv.h **** #else
  17:Drivers/inc/core_riscv.h **** #define     __I     volatile const          /*!< defines 'read only' permissions     */
  18:Drivers/inc/core_riscv.h **** #endif
GAS LISTING C:\Users\SOLDER~1\AppData\Local\Temp\ccEQi33f.s 			page 9


  19:Drivers/inc/core_riscv.h **** #define     __O     volatile                  /*!< defines 'write only' permissions     */
  20:Drivers/inc/core_riscv.h **** #define     __IO    volatile                  /*!< defines 'read / write' permissions   */
  21:Drivers/inc/core_riscv.h **** 
  22:Drivers/inc/core_riscv.h **** /* Standard Peripheral Library old types (maintained for legacy purpose) */
  23:Drivers/inc/core_riscv.h **** typedef __I uint64_t vuc64; /* Read Only */
  24:Drivers/inc/core_riscv.h **** typedef __I uint32_t vuc32; /* Read Only */
  25:Drivers/inc/core_riscv.h **** typedef __I uint16_t vuc16; /* Read Only */
  26:Drivers/inc/core_riscv.h **** typedef __I uint8_t vuc8; /* Read Only */
  27:Drivers/inc/core_riscv.h **** 
  28:Drivers/inc/core_riscv.h **** typedef const uint64_t uc64; /* Read Only */
  29:Drivers/inc/core_riscv.h **** typedef const uint32_t uc32; /* Read Only */
  30:Drivers/inc/core_riscv.h **** typedef const uint16_t uc16; /* Read Only */
  31:Drivers/inc/core_riscv.h **** typedef const uint8_t uc8; /* Read Only */
  32:Drivers/inc/core_riscv.h **** 
  33:Drivers/inc/core_riscv.h **** typedef __I int64_t vsc64; /* Read Only */
  34:Drivers/inc/core_riscv.h **** typedef __I int32_t vsc32; /* Read Only */
  35:Drivers/inc/core_riscv.h **** typedef __I int16_t vsc16; /* Read Only */
  36:Drivers/inc/core_riscv.h **** typedef __I int8_t vsc8; /* Read Only */
  37:Drivers/inc/core_riscv.h **** 
  38:Drivers/inc/core_riscv.h **** typedef const int64_t sc64; /* Read Only */
  39:Drivers/inc/core_riscv.h **** typedef const int32_t sc32; /* Read Only */
  40:Drivers/inc/core_riscv.h **** typedef const int16_t sc16; /* Read Only */
  41:Drivers/inc/core_riscv.h **** typedef const int8_t sc8; /* Read Only */
  42:Drivers/inc/core_riscv.h **** 
  43:Drivers/inc/core_riscv.h **** typedef __IO uint64_t vu64;
  44:Drivers/inc/core_riscv.h **** typedef __IO uint32_t vu32;
  45:Drivers/inc/core_riscv.h **** typedef __IO uint16_t vu16;
  46:Drivers/inc/core_riscv.h **** typedef __IO uint8_t vu8;
  47:Drivers/inc/core_riscv.h **** 
  48:Drivers/inc/core_riscv.h **** typedef uint64_t u64;
  49:Drivers/inc/core_riscv.h **** typedef uint32_t u32;
  50:Drivers/inc/core_riscv.h **** typedef uint16_t u16;
  51:Drivers/inc/core_riscv.h **** typedef uint8_t u8;
  52:Drivers/inc/core_riscv.h **** 
  53:Drivers/inc/core_riscv.h **** typedef __IO int64_t vs64;
  54:Drivers/inc/core_riscv.h **** typedef __IO int32_t vs32;
  55:Drivers/inc/core_riscv.h **** typedef __IO int16_t vs16;
  56:Drivers/inc/core_riscv.h **** typedef __IO int8_t vs8;
  57:Drivers/inc/core_riscv.h **** 
  58:Drivers/inc/core_riscv.h **** typedef int64_t s64;
  59:Drivers/inc/core_riscv.h **** typedef int32_t s32;
  60:Drivers/inc/core_riscv.h **** typedef int16_t s16;
  61:Drivers/inc/core_riscv.h **** typedef int8_t s8;
  62:Drivers/inc/core_riscv.h **** 
  63:Drivers/inc/core_riscv.h **** typedef enum {
  64:Drivers/inc/core_riscv.h ****     NoREADY = 0, READY = !NoREADY
  65:Drivers/inc/core_riscv.h **** } ErrorStatus;
  66:Drivers/inc/core_riscv.h **** 
  67:Drivers/inc/core_riscv.h **** typedef enum {
  68:Drivers/inc/core_riscv.h ****     DISABLE = 0, ENABLE = !DISABLE
  69:Drivers/inc/core_riscv.h **** } FunctionalState;
  70:Drivers/inc/core_riscv.h **** 
  71:Drivers/inc/core_riscv.h **** typedef enum {
  72:Drivers/inc/core_riscv.h ****     RESET = 0, SET = !RESET
  73:Drivers/inc/core_riscv.h **** } FlagStatus, ITStatus;
  74:Drivers/inc/core_riscv.h **** 
  75:Drivers/inc/core_riscv.h **** #define   RV_STATIC_INLINE  static  inline
GAS LISTING C:\Users\SOLDER~1\AppData\Local\Temp\ccEQi33f.s 			page 10


  76:Drivers/inc/core_riscv.h **** 
  77:Drivers/inc/core_riscv.h **** /* memory mapped structure for Program Fast Interrupt Controller (PFIC) */
  78:Drivers/inc/core_riscv.h **** typedef struct {
  79:Drivers/inc/core_riscv.h ****     __I uint32_t ISR[8];
  80:Drivers/inc/core_riscv.h ****     __I uint32_t IPR[8];
  81:Drivers/inc/core_riscv.h ****     __IO uint32_t ITHRESDR;
  82:Drivers/inc/core_riscv.h ****     __IO uint32_t RESERVED;
  83:Drivers/inc/core_riscv.h ****     __IO uint32_t CFGR;
  84:Drivers/inc/core_riscv.h ****     __I uint32_t GISR;
  85:Drivers/inc/core_riscv.h ****     uint8_t VTFIDR[4];
  86:Drivers/inc/core_riscv.h ****     uint8_t RESERVED0[12];
  87:Drivers/inc/core_riscv.h ****     __IO uint32_t VTFADDR[4];
  88:Drivers/inc/core_riscv.h ****     uint8_t RESERVED1[0x90];
  89:Drivers/inc/core_riscv.h ****     __O uint32_t IENR[8];
  90:Drivers/inc/core_riscv.h ****     uint8_t RESERVED2[0x60];
  91:Drivers/inc/core_riscv.h ****     __O uint32_t IRER[8];
  92:Drivers/inc/core_riscv.h ****     uint8_t RESERVED3[0x60];
  93:Drivers/inc/core_riscv.h ****     __O uint32_t IPSR[8];
  94:Drivers/inc/core_riscv.h ****     uint8_t RESERVED4[0x60];
  95:Drivers/inc/core_riscv.h ****     __O uint32_t IPRR[8];
  96:Drivers/inc/core_riscv.h ****     uint8_t RESERVED5[0x60];
  97:Drivers/inc/core_riscv.h ****     __IO uint32_t IACTR[8];
  98:Drivers/inc/core_riscv.h ****     uint8_t RESERVED6[0xE0];
  99:Drivers/inc/core_riscv.h ****     __IO uint8_t IPRIOR[256];
 100:Drivers/inc/core_riscv.h ****     uint8_t RESERVED7[0x810];
 101:Drivers/inc/core_riscv.h ****     __IO uint32_t SCTLR;
 102:Drivers/inc/core_riscv.h **** } PFIC_Type;
 103:Drivers/inc/core_riscv.h **** 
 104:Drivers/inc/core_riscv.h **** /* memory mapped structure for SysTick */
 105:Drivers/inc/core_riscv.h **** typedef struct {
 106:Drivers/inc/core_riscv.h ****     __IO u32 CTLR;
 107:Drivers/inc/core_riscv.h ****     __IO u32 SR;
 108:Drivers/inc/core_riscv.h ****     __IO u64 CNT;
 109:Drivers/inc/core_riscv.h ****     __IO u64 CMP;
 110:Drivers/inc/core_riscv.h **** } SysTick_Type;
 111:Drivers/inc/core_riscv.h **** 
 112:Drivers/inc/core_riscv.h **** #define PFIC            ((PFIC_Type *) 0xE000E000 )
 113:Drivers/inc/core_riscv.h **** #define NVIC            PFIC
 114:Drivers/inc/core_riscv.h **** #define NVIC_KEY1       ((uint32_t)0xFA050000)
 115:Drivers/inc/core_riscv.h **** #define	NVIC_KEY2				((uint32_t)0xBCAF0000)
 116:Drivers/inc/core_riscv.h **** #define	NVIC_KEY3				((uint32_t)0xBEEF0000)
 117:Drivers/inc/core_riscv.h **** 
 118:Drivers/inc/core_riscv.h **** #define SysTick         ((SysTick_Type *) 0xE000F000)
 119:Drivers/inc/core_riscv.h **** 
 120:Drivers/inc/core_riscv.h **** /*********************************************************************
 121:Drivers/inc/core_riscv.h ****  * @fn      __enable_irq
 122:Drivers/inc/core_riscv.h ****  *
 123:Drivers/inc/core_riscv.h ****  * @brief   Enable Global Interrupt
 124:Drivers/inc/core_riscv.h ****  *
 125:Drivers/inc/core_riscv.h ****  * @return  none
 126:Drivers/inc/core_riscv.h ****  */
 127:Drivers/inc/core_riscv.h **** RV_STATIC_INLINE void __enable_irq() {
 128:Drivers/inc/core_riscv.h ****     __asm volatile ("csrw 0x800, %0" : : "r" (0x6088) );
 129:Drivers/inc/core_riscv.h **** }
 130:Drivers/inc/core_riscv.h **** 
 131:Drivers/inc/core_riscv.h **** /*********************************************************************
 132:Drivers/inc/core_riscv.h ****  * @fn      __disable_irq
GAS LISTING C:\Users\SOLDER~1\AppData\Local\Temp\ccEQi33f.s 			page 11


 133:Drivers/inc/core_riscv.h ****  *
 134:Drivers/inc/core_riscv.h ****  * @brief   Disable Global Interrupt
 135:Drivers/inc/core_riscv.h ****  *
 136:Drivers/inc/core_riscv.h ****  * @return  none
 137:Drivers/inc/core_riscv.h ****  */
 138:Drivers/inc/core_riscv.h **** RV_STATIC_INLINE void __disable_irq() {
 139:Drivers/inc/core_riscv.h ****     __asm volatile ("csrw 0x800, %0" : : "r" (0x6000) );
 140:Drivers/inc/core_riscv.h **** }
 141:Drivers/inc/core_riscv.h **** 
 142:Drivers/inc/core_riscv.h **** /*********************************************************************
 143:Drivers/inc/core_riscv.h ****  * @fn      __NOP
 144:Drivers/inc/core_riscv.h ****  *
 145:Drivers/inc/core_riscv.h ****  * @brief   nop
 146:Drivers/inc/core_riscv.h ****  *
 147:Drivers/inc/core_riscv.h ****  * @return  none
 148:Drivers/inc/core_riscv.h ****  */
 149:Drivers/inc/core_riscv.h **** RV_STATIC_INLINE void __NOP() {
 150:Drivers/inc/core_riscv.h ****     __asm volatile ("nop");
 151:Drivers/inc/core_riscv.h **** }
 152:Drivers/inc/core_riscv.h **** 
 153:Drivers/inc/core_riscv.h **** /*********************************************************************
 154:Drivers/inc/core_riscv.h ****  * @fn       NVIC_EnableIRQ
 155:Drivers/inc/core_riscv.h ****  *
 156:Drivers/inc/core_riscv.h ****  * @brief   Disable Interrupt
 157:Drivers/inc/core_riscv.h ****  *
 158:Drivers/inc/core_riscv.h ****  * @param   IRQn - Interrupt Numbers
 159:Drivers/inc/core_riscv.h ****  *
 160:Drivers/inc/core_riscv.h ****  * @return  none
 161:Drivers/inc/core_riscv.h ****  */
 162:Drivers/inc/core_riscv.h **** RV_STATIC_INLINE void NVIC_EnableIRQ(IRQn_Type IRQn) {
 163:Drivers/inc/core_riscv.h ****     NVIC->IENR[((uint32_t) (IRQn) >> 5)] = (1 << ((uint32_t) (IRQn) & 0x1F));
 164:Drivers/inc/core_riscv.h **** }
 165:Drivers/inc/core_riscv.h **** 
 166:Drivers/inc/core_riscv.h **** /*********************************************************************
 167:Drivers/inc/core_riscv.h ****  * @fn       NVIC_DisableIRQ
 168:Drivers/inc/core_riscv.h ****  *
 169:Drivers/inc/core_riscv.h ****  * @brief   Disable Interrupt
 170:Drivers/inc/core_riscv.h ****  *
 171:Drivers/inc/core_riscv.h ****  * @param   IRQn - Interrupt Numbers
 172:Drivers/inc/core_riscv.h ****  *
 173:Drivers/inc/core_riscv.h ****  * @return  none
 174:Drivers/inc/core_riscv.h ****  */
 175:Drivers/inc/core_riscv.h **** RV_STATIC_INLINE void NVIC_DisableIRQ(IRQn_Type IRQn) {
 176:Drivers/inc/core_riscv.h ****     NVIC->IRER[((uint32_t) (IRQn) >> 5)] = (1 << ((uint32_t) (IRQn) & 0x1F));
 177:Drivers/inc/core_riscv.h **** }
 178:Drivers/inc/core_riscv.h **** 
 179:Drivers/inc/core_riscv.h **** /*********************************************************************
 180:Drivers/inc/core_riscv.h ****  * @fn       NVIC_GetStatusIRQ
 181:Drivers/inc/core_riscv.h ****  *
 182:Drivers/inc/core_riscv.h ****  * @brief   Get Interrupt Enable State
 183:Drivers/inc/core_riscv.h ****  *
 184:Drivers/inc/core_riscv.h ****  * @param   IRQn - Interrupt Numbers
 185:Drivers/inc/core_riscv.h ****  *
 186:Drivers/inc/core_riscv.h ****  * @return  1 - 1: Interrupt Pending Enable
 187:Drivers/inc/core_riscv.h ****  *                0 - Interrupt Pending Disable
 188:Drivers/inc/core_riscv.h ****  */
 189:Drivers/inc/core_riscv.h **** RV_STATIC_INLINE uint32_t NVIC_GetStatusIRQ(IRQn_Type IRQn) {
GAS LISTING C:\Users\SOLDER~1\AppData\Local\Temp\ccEQi33f.s 			page 12


 190:Drivers/inc/core_riscv.h ****     return ((uint32_t) (
 191:Drivers/inc/core_riscv.h ****             (NVIC->ISR[(uint32_t) (IRQn) >> 5]
 192:Drivers/inc/core_riscv.h ****                     & (1 << ((uint32_t) (IRQn) & 0x1F))) ? 1 : 0));
 193:Drivers/inc/core_riscv.h **** }
 194:Drivers/inc/core_riscv.h **** 
 195:Drivers/inc/core_riscv.h **** /*********************************************************************
 196:Drivers/inc/core_riscv.h ****  * @fn      NVIC_GetPendingIRQ
 197:Drivers/inc/core_riscv.h ****  *
 198:Drivers/inc/core_riscv.h ****  * @brief   Get Interrupt Pending State
 199:Drivers/inc/core_riscv.h ****  *
 200:Drivers/inc/core_riscv.h ****  * @param   IRQn - Interrupt Numbers
 201:Drivers/inc/core_riscv.h ****  *
 202:Drivers/inc/core_riscv.h ****  * @return  1 - 1: Interrupt Pending Enable
 203:Drivers/inc/core_riscv.h ****  *                0 - Interrupt Pending Disable
 204:Drivers/inc/core_riscv.h ****  */
 205:Drivers/inc/core_riscv.h **** RV_STATIC_INLINE uint32_t NVIC_GetPendingIRQ(IRQn_Type IRQn) {
 206:Drivers/inc/core_riscv.h ****     return ((uint32_t) (
 207:Drivers/inc/core_riscv.h ****             (NVIC->IPR[(uint32_t) (IRQn) >> 5]
 208:Drivers/inc/core_riscv.h ****                     & (1 << ((uint32_t) (IRQn) & 0x1F))) ? 1 : 0));
 209:Drivers/inc/core_riscv.h **** }
 210:Drivers/inc/core_riscv.h **** 
 211:Drivers/inc/core_riscv.h **** /*********************************************************************
 212:Drivers/inc/core_riscv.h ****  * @fn      NVIC_SetPendingIRQ
 213:Drivers/inc/core_riscv.h ****  *
 214:Drivers/inc/core_riscv.h ****  * @brief   Set Interrupt Pending
 215:Drivers/inc/core_riscv.h ****  *
 216:Drivers/inc/core_riscv.h ****  * @param   IRQn - Interrupt Numbers
 217:Drivers/inc/core_riscv.h ****  *
 218:Drivers/inc/core_riscv.h ****  * @return  none
 219:Drivers/inc/core_riscv.h ****  */
 220:Drivers/inc/core_riscv.h **** RV_STATIC_INLINE void NVIC_SetPendingIRQ(IRQn_Type IRQn) {
 221:Drivers/inc/core_riscv.h ****     NVIC->IPSR[((uint32_t) (IRQn) >> 5)] = (1 << ((uint32_t) (IRQn) & 0x1F));
 222:Drivers/inc/core_riscv.h **** }
 223:Drivers/inc/core_riscv.h **** 
 224:Drivers/inc/core_riscv.h **** /*********************************************************************
 225:Drivers/inc/core_riscv.h ****  * @fn      NVIC_ClearPendingIRQ
 226:Drivers/inc/core_riscv.h ****  *
 227:Drivers/inc/core_riscv.h ****  * @brief   Clear Interrupt Pending
 228:Drivers/inc/core_riscv.h ****  *
 229:Drivers/inc/core_riscv.h ****  * @param   IRQn - Interrupt Numbers
 230:Drivers/inc/core_riscv.h ****  *
 231:Drivers/inc/core_riscv.h ****  * @return  none
 232:Drivers/inc/core_riscv.h ****  */
 233:Drivers/inc/core_riscv.h **** RV_STATIC_INLINE void NVIC_ClearPendingIRQ(IRQn_Type IRQn) {
 234:Drivers/inc/core_riscv.h ****     NVIC->IPRR[((uint32_t) (IRQn) >> 5)] = (1 << ((uint32_t) (IRQn) & 0x1F));
 235:Drivers/inc/core_riscv.h **** }
 236:Drivers/inc/core_riscv.h **** 
 237:Drivers/inc/core_riscv.h **** /*********************************************************************
 238:Drivers/inc/core_riscv.h ****  * @fn      NVIC_GetActive
 239:Drivers/inc/core_riscv.h ****  *
 240:Drivers/inc/core_riscv.h ****  * @brief   Get Interrupt Active State
 241:Drivers/inc/core_riscv.h ****  *
 242:Drivers/inc/core_riscv.h ****  * @param   IRQn - Interrupt Numbers
 243:Drivers/inc/core_riscv.h ****  *
 244:Drivers/inc/core_riscv.h ****  * @return  1 - Interrupt Active
 245:Drivers/inc/core_riscv.h ****  *                0 - Interrupt No Active
 246:Drivers/inc/core_riscv.h ****  */
GAS LISTING C:\Users\SOLDER~1\AppData\Local\Temp\ccEQi33f.s 			page 13


 247:Drivers/inc/core_riscv.h **** RV_STATIC_INLINE uint32_t NVIC_GetActive(IRQn_Type IRQn) {
 248:Drivers/inc/core_riscv.h ****     return ((uint32_t) (
 249:Drivers/inc/core_riscv.h ****             (NVIC->IACTR[(uint32_t) (IRQn) >> 5]
 250:Drivers/inc/core_riscv.h ****                     & (1 << ((uint32_t) (IRQn) & 0x1F))) ? 1 : 0));
 251:Drivers/inc/core_riscv.h **** }
 252:Drivers/inc/core_riscv.h **** 
 253:Drivers/inc/core_riscv.h **** /**
 254:Drivers/inc/core_riscv.h ****  ******************************************************************************
 255:Drivers/inc/core_riscv.h ****  *  @breif Задать приоритет прерыванию
 256:Drivers/inc/core_riscv.h ****  *  @attention Чем ниже номер приоритета - тем он выше. 0 - высш
 257:Drivers/inc/core_riscv.h ****  *  @param   IRQn_Type IRQn - прерывание
 258:Drivers/inc/core_riscv.h ****  *  @param   priority - приоритет (от 0 до 7)
 259:Drivers/inc/core_riscv.h ****  ******************************************************************************
 260:Drivers/inc/core_riscv.h ****  */
 261:Drivers/inc/core_riscv.h **** 
 262:Drivers/inc/core_riscv.h **** RV_STATIC_INLINE void NVIC_SetPriority(IRQn_Type IRQn, uint8_t priority) {
 263:Drivers/inc/core_riscv.h ****     if (priority > 7) {
 264:Drivers/inc/core_riscv.h ****         priority = 7;
 265:Drivers/inc/core_riscv.h ****     }
 266:Drivers/inc/core_riscv.h ****     NVIC->IPRIOR[(uint32_t) (IRQn)] = priority << 5U;
 267:Drivers/inc/core_riscv.h **** }
 268:Drivers/inc/core_riscv.h **** 
 269:Drivers/inc/core_riscv.h **** /**
 270:Drivers/inc/core_riscv.h ****  ******************************************************************************
 271:Drivers/inc/core_riscv.h ****  *  @breif Получить сведения о приоритете прерывания
 272:Drivers/inc/core_riscv.h ****  *  @attention Чем ниже номер приоритета - тем он выше. 0 - высш
 273:Drivers/inc/core_riscv.h ****  *  @param IRQn_Type IRQn - прерывание
 274:Drivers/inc/core_riscv.h ****  *  @retval Возвращает номер приоритета, в данном случае от
 275:Drivers/inc/core_riscv.h ****  ******************************************************************************
 276:Drivers/inc/core_riscv.h ****  */
 277:Drivers/inc/core_riscv.h **** 
 278:Drivers/inc/core_riscv.h **** RV_STATIC_INLINE uint8_t NVIC_GetPriority(IRQn_Type IRQn) {
 279:Drivers/inc/core_riscv.h ****     return NVIC->IPRIOR[(uint32_t) (IRQn)] >> 5U;
 280:Drivers/inc/core_riscv.h **** }
 281:Drivers/inc/core_riscv.h **** 
 282:Drivers/inc/core_riscv.h **** 
 283:Drivers/inc/core_riscv.h **** /*********************************************************************
 284:Drivers/inc/core_riscv.h ****  * @fn       __WFI
 285:Drivers/inc/core_riscv.h ****  *
 286:Drivers/inc/core_riscv.h ****  * @brief   Wait for Interrupt
 287:Drivers/inc/core_riscv.h ****  *
 288:Drivers/inc/core_riscv.h ****  * @return  none
 289:Drivers/inc/core_riscv.h ****  */
 290:Drivers/inc/core_riscv.h **** __attribute__( ( always_inline ) ) RV_STATIC_INLINE void __WFI(void) {
 291:Drivers/inc/core_riscv.h ****     NVIC->SCTLR &= ~(1 << 3);	// wfi
 292              		.loc 2 291 9
 293 0066 37E700E0 		li	a4,-536813568
 294 006a 8567     		li	a5,4096
 295 006c BA97     		add	a5,a4,a5
 296 006e 83A707D1 		lw	a5,-752(a5)
 297 0072 B7E600E0 		li	a3,-536813568
 298              		.loc 2 291 17
 299 0076 13F777FF 		andi	a4,a5,-9
 300 007a 8567     		li	a5,4096
 301 007c B697     		add	a5,a3,a5
 302 007e 23A8E7D0 		sw	a4,-752(a5)
 292:Drivers/inc/core_riscv.h ****     __asm volatile ("wfi");
GAS LISTING C:\Users\SOLDER~1\AppData\Local\Temp\ccEQi33f.s 			page 14


 303              		.loc 2 292 5
 304              	 #APP
 305              	# 292 "Drivers/inc/core_riscv.h" 1
 293              	}
 306              		wfi
 307              	# 0 "" 2
 308              		.loc 2 293 1
 309              	 #NO_APP
 310 0086 B9A8     		j	.L17
 311              	.L16:
 312              	.LBE21:
 313              	.LBE20:
 314              	.LBB22:
 315              	.LBB23:
 294:Drivers/inc/core_riscv.h **** 
 295:Drivers/inc/core_riscv.h **** /*********************************************************************
 296:Drivers/inc/core_riscv.h ****  * @fn       __WFE
 297:Drivers/inc/core_riscv.h ****  *
 298:Drivers/inc/core_riscv.h ****  * @brief   Wait for Events
 299:Drivers/inc/core_riscv.h ****  *
 300:Drivers/inc/core_riscv.h ****  * @return  none
 301:Drivers/inc/core_riscv.h ****  */
 302:Drivers/inc/core_riscv.h **** __attribute__( ( always_inline ) ) RV_STATIC_INLINE void __WFE(void) {
 303:Drivers/inc/core_riscv.h ****     uint32_t t;
 304:Drivers/inc/core_riscv.h **** 
 305:Drivers/inc/core_riscv.h ****     t = NVIC->SCTLR;
 316              		.loc 2 305 13
 317 0088 37E700E0 		li	a4,-536813568
 318              		.loc 2 305 7
 319 008c 8567     		li	a5,4096
 320 008e BA97     		add	a5,a4,a5
 321 0090 83A707D1 		lw	a5,-752(a5)
 322 0094 2324F4FE 		sw	a5,-24(s0)
 306:Drivers/inc/core_riscv.h ****     NVIC->SCTLR |= (1 << 3) | (1 << 5);		// (wfi->wfe)+(__sev)
 323              		.loc 2 306 9
 324 0098 37E700E0 		li	a4,-536813568
 325 009c 8567     		li	a5,4096
 326 009e BA97     		add	a5,a4,a5
 327 00a0 83A707D1 		lw	a5,-752(a5)
 328 00a4 B7E600E0 		li	a3,-536813568
 329              		.loc 2 306 17
 330 00a8 13E78702 		ori	a4,a5,40
 331 00ac 8567     		li	a5,4096
 332 00ae B697     		add	a5,a3,a5
 333 00b0 23A8E7D0 		sw	a4,-752(a5)
 307:Drivers/inc/core_riscv.h ****     NVIC->SCTLR = (NVIC->SCTLR & ~(1 << 5)) | (t & (1 << 5));
 334              		.loc 2 307 24
 335 00b4 37E700E0 		li	a4,-536813568
 336 00b8 8567     		li	a5,4096
 337 00ba BA97     		add	a5,a4,a5
 338 00bc 83A707D1 		lw	a5,-752(a5)
 339              		.loc 2 307 32
 340 00c0 13F7F7FD 		andi	a4,a5,-33
 341              		.loc 2 307 50
 342 00c4 832784FE 		lw	a5,-24(s0)
 343 00c8 93F70702 		andi	a5,a5,32
 344              		.loc 2 307 9
GAS LISTING C:\Users\SOLDER~1\AppData\Local\Temp\ccEQi33f.s 			page 15


 345 00cc B7E600E0 		li	a3,-536813568
 346              		.loc 2 307 45
 347 00d0 5D8F     		or	a4,a4,a5
 348              		.loc 2 307 17
 349 00d2 8567     		li	a5,4096
 350 00d4 B697     		add	a5,a3,a5
 351 00d6 23A8E7D0 		sw	a4,-752(a5)
 308:Drivers/inc/core_riscv.h ****     __asm volatile ("wfi");
 352              		.loc 2 308 5
 353              	 #APP
 354              	# 308 "Drivers/inc/core_riscv.h" 1
 309              	    __asm volatile ("wfi");
 355              		wfi
 356              	# 0 "" 2
 357              		.loc 2 309 5
 358              	# 309 "Drivers/inc/core_riscv.h" 1
 310              	}
 359              		wfi
 360              	# 0 "" 2
 361              		.loc 2 310 1
 362              	 #NO_APP
 363 00e2 0100     		nop
 364              	.L17:
 365              	.LBE23:
 366              	.LBE22:
 151:Drivers/src/ch32v20x_pwr.c ****     {
 152:Drivers/src/ch32v20x_pwr.c ****         __WFI();
 153:Drivers/src/ch32v20x_pwr.c ****     }
 154:Drivers/src/ch32v20x_pwr.c ****     else
 155:Drivers/src/ch32v20x_pwr.c ****     {
 156:Drivers/src/ch32v20x_pwr.c ****         __WFE();
 157:Drivers/src/ch32v20x_pwr.c ****     }
 158:Drivers/src/ch32v20x_pwr.c **** 
 159:Drivers/src/ch32v20x_pwr.c ****     NVIC->SCTLR &= ~(1 << 2);
 367              		.loc 1 159 9
 368 00e4 37E700E0 		li	a4,-536813568
 369 00e8 8567     		li	a5,4096
 370 00ea BA97     		add	a5,a4,a5
 371 00ec 83A707D1 		lw	a5,-752(a5)
 372 00f0 B7E600E0 		li	a3,-536813568
 373              		.loc 1 159 17
 374 00f4 13F7B7FF 		andi	a4,a5,-5
 375 00f8 8567     		li	a5,4096
 376 00fa B697     		add	a5,a3,a5
 377 00fc 23A8E7D0 		sw	a4,-752(a5)
 160:Drivers/src/ch32v20x_pwr.c **** }
 378              		.loc 1 160 1
 379 0100 0100     		nop
 380 0102 3254     		lw	s0,44(sp)
 381              		.cfi_restore 8
 382              		.cfi_def_cfa 2, 48
 383 0104 4561     		addi	sp,sp,48
 384              		.cfi_def_cfa_offset 0
 385 0106 8280     		jr	ra
 386              		.cfi_endproc
 387              	.LFE21:
 389              		.section	.text.PWR_EnterSTANDBYMode,"ax",@progbits
GAS LISTING C:\Users\SOLDER~1\AppData\Local\Temp\ccEQi33f.s 			page 16


 390              		.align	1
 391              		.globl	PWR_EnterSTANDBYMode
 393              	PWR_EnterSTANDBYMode:
 394              	.LFB22:
 161:Drivers/src/ch32v20x_pwr.c **** 
 162:Drivers/src/ch32v20x_pwr.c **** /*********************************************************************
 163:Drivers/src/ch32v20x_pwr.c ****  * @fn      PWR_EnterSTANDBYMode
 164:Drivers/src/ch32v20x_pwr.c ****  *
 165:Drivers/src/ch32v20x_pwr.c ****  * @brief   Enters STANDBY mode.
 166:Drivers/src/ch32v20x_pwr.c ****  *
 167:Drivers/src/ch32v20x_pwr.c ****  * @return  none
 168:Drivers/src/ch32v20x_pwr.c ****  */
 169:Drivers/src/ch32v20x_pwr.c **** void PWR_EnterSTANDBYMode(void)
 170:Drivers/src/ch32v20x_pwr.c **** {
 395              		.loc 1 170 1
 396              		.cfi_startproc
 397 0000 4111     		addi	sp,sp,-16
 398              		.cfi_def_cfa_offset 16
 399 0002 22C6     		sw	s0,12(sp)
 400              		.cfi_offset 8, -4
 401 0004 0008     		addi	s0,sp,16
 402              		.cfi_def_cfa 8, 0
 171:Drivers/src/ch32v20x_pwr.c ****     PWR->CTLR |= PWR_CTLR_CWUF;
 403              		.loc 1 171 8
 404 0006 B7770040 		li	a5,1073770496
 405 000a 9843     		lw	a4,0(a5)
 406 000c B7770040 		li	a5,1073770496
 407              		.loc 1 171 15
 408 0010 13674700 		ori	a4,a4,4
 409 0014 98C3     		sw	a4,0(a5)
 172:Drivers/src/ch32v20x_pwr.c ****     PWR->CTLR |= PWR_CTLR_PDDS;
 410              		.loc 1 172 8
 411 0016 B7770040 		li	a5,1073770496
 412 001a 9843     		lw	a4,0(a5)
 413 001c B7770040 		li	a5,1073770496
 414              		.loc 1 172 15
 415 0020 13672700 		ori	a4,a4,2
 416 0024 98C3     		sw	a4,0(a5)
 173:Drivers/src/ch32v20x_pwr.c ****     NVIC->SCTLR |= (1 << 2);
 417              		.loc 1 173 9
 418 0026 37E700E0 		li	a4,-536813568
 419 002a 8567     		li	a5,4096
 420 002c BA97     		add	a5,a4,a5
 421 002e 83A707D1 		lw	a5,-752(a5)
 422 0032 B7E600E0 		li	a3,-536813568
 423              		.loc 1 173 17
 424 0036 13E74700 		ori	a4,a5,4
 425 003a 8567     		li	a5,4096
 426 003c B697     		add	a5,a3,a5
 427 003e 23A8E7D0 		sw	a4,-752(a5)
 428              	.LBB24:
 429              	.LBB25:
 291:Drivers/inc/core_riscv.h ****     __asm volatile ("wfi");
 430              		.loc 2 291 9
 431 0042 37E700E0 		li	a4,-536813568
 432 0046 8567     		li	a5,4096
 433 0048 BA97     		add	a5,a4,a5
GAS LISTING C:\Users\SOLDER~1\AppData\Local\Temp\ccEQi33f.s 			page 17


 434 004a 83A707D1 		lw	a5,-752(a5)
 435 004e B7E600E0 		li	a3,-536813568
 291:Drivers/inc/core_riscv.h ****     __asm volatile ("wfi");
 436              		.loc 2 291 17
 437 0052 13F777FF 		andi	a4,a5,-9
 438 0056 8567     		li	a5,4096
 439 0058 B697     		add	a5,a3,a5
 440 005a 23A8E7D0 		sw	a4,-752(a5)
 292:Drivers/inc/core_riscv.h **** }
 441              		.loc 2 292 5
 442              	 #APP
 443              	# 292 "Drivers/inc/core_riscv.h" 1
 293:Drivers/inc/core_riscv.h **** 
 444              		wfi
 445              	# 0 "" 2
 446              		.loc 2 293 1
 447              	 #NO_APP
 448 0062 0100     		nop
 449              	.LBE25:
 450              	.LBE24:
 174:Drivers/src/ch32v20x_pwr.c **** 
 175:Drivers/src/ch32v20x_pwr.c ****     __WFI();
 176:Drivers/src/ch32v20x_pwr.c **** }
 451              		.loc 1 176 1
 452 0064 0100     		nop
 453 0066 3244     		lw	s0,12(sp)
 454              		.cfi_restore 8
 455              		.cfi_def_cfa 2, 16
 456 0068 4101     		addi	sp,sp,16
 457              		.cfi_def_cfa_offset 0
 458 006a 8280     		jr	ra
 459              		.cfi_endproc
 460              	.LFE22:
 462              		.section	.text.PWR_GetFlagStatus,"ax",@progbits
 463              		.align	1
 464              		.globl	PWR_GetFlagStatus
 466              	PWR_GetFlagStatus:
 467              	.LFB23:
 177:Drivers/src/ch32v20x_pwr.c **** 
 178:Drivers/src/ch32v20x_pwr.c **** /*********************************************************************
 179:Drivers/src/ch32v20x_pwr.c ****  * @fn      PWR_GetFlagStatus
 180:Drivers/src/ch32v20x_pwr.c ****  *
 181:Drivers/src/ch32v20x_pwr.c ****  * @brief   Checks whether the specified PWR flag is set or not.
 182:Drivers/src/ch32v20x_pwr.c ****  *
 183:Drivers/src/ch32v20x_pwr.c ****  * @param   PWR_FLAG - specifies the flag to check.
 184:Drivers/src/ch32v20x_pwr.c ****  *            PWR_FLAG_WU - Wake Up flag
 185:Drivers/src/ch32v20x_pwr.c ****  *            PWR_FLAG_SB - StandBy flag
 186:Drivers/src/ch32v20x_pwr.c ****  *            PWR_FLAG_PVDO - PVD Output
 187:Drivers/src/ch32v20x_pwr.c ****  *
 188:Drivers/src/ch32v20x_pwr.c ****  * @return  none
 189:Drivers/src/ch32v20x_pwr.c ****  */
 190:Drivers/src/ch32v20x_pwr.c **** FlagStatus PWR_GetFlagStatus(uint32_t PWR_FLAG)
 191:Drivers/src/ch32v20x_pwr.c **** {
 468              		.loc 1 191 1
 469              		.cfi_startproc
 470 0000 7971     		addi	sp,sp,-48
 471              		.cfi_def_cfa_offset 48
GAS LISTING C:\Users\SOLDER~1\AppData\Local\Temp\ccEQi33f.s 			page 18


 472 0002 22D6     		sw	s0,44(sp)
 473              		.cfi_offset 8, -4
 474 0004 0018     		addi	s0,sp,48
 475              		.cfi_def_cfa 8, 0
 476 0006 232EA4FC 		sw	a0,-36(s0)
 192:Drivers/src/ch32v20x_pwr.c ****     FlagStatus bitstatus = RESET;
 477              		.loc 1 192 16
 478 000a 232604FE 		sw	zero,-20(s0)
 193:Drivers/src/ch32v20x_pwr.c **** 
 194:Drivers/src/ch32v20x_pwr.c ****     if((PWR->CSR & PWR_FLAG) != (uint32_t)RESET)
 479              		.loc 1 194 12
 480 000e B7770040 		li	a5,1073770496
 481 0012 D843     		lw	a4,4(a5)
 482              		.loc 1 194 18
 483 0014 8327C4FD 		lw	a5,-36(s0)
 484 0018 F98F     		and	a5,a4,a5
 485              		.loc 1 194 7
 486 001a 89C7     		beq	a5,zero,.L20
 195:Drivers/src/ch32v20x_pwr.c ****     {
 196:Drivers/src/ch32v20x_pwr.c ****         bitstatus = SET;
 487              		.loc 1 196 19
 488 001c 8547     		li	a5,1
 489 001e 2326F4FE 		sw	a5,-20(s0)
 490 0022 19A0     		j	.L21
 491              	.L20:
 197:Drivers/src/ch32v20x_pwr.c ****     }
 198:Drivers/src/ch32v20x_pwr.c ****     else
 199:Drivers/src/ch32v20x_pwr.c ****     {
 200:Drivers/src/ch32v20x_pwr.c ****         bitstatus = RESET;
 492              		.loc 1 200 19
 493 0024 232604FE 		sw	zero,-20(s0)
 494              	.L21:
 201:Drivers/src/ch32v20x_pwr.c ****     }
 202:Drivers/src/ch32v20x_pwr.c ****     return bitstatus;
 495              		.loc 1 202 12
 496 0028 8327C4FE 		lw	a5,-20(s0)
 203:Drivers/src/ch32v20x_pwr.c **** }
 497              		.loc 1 203 1
 498 002c 3E85     		mv	a0,a5
 499 002e 3254     		lw	s0,44(sp)
 500              		.cfi_restore 8
 501              		.cfi_def_cfa 2, 48
 502 0030 4561     		addi	sp,sp,48
 503              		.cfi_def_cfa_offset 0
 504 0032 8280     		jr	ra
 505              		.cfi_endproc
 506              	.LFE23:
 508              		.section	.text.PWR_ClearFlag,"ax",@progbits
 509              		.align	1
 510              		.globl	PWR_ClearFlag
 512              	PWR_ClearFlag:
 513              	.LFB24:
 204:Drivers/src/ch32v20x_pwr.c **** 
 205:Drivers/src/ch32v20x_pwr.c **** /*********************************************************************
 206:Drivers/src/ch32v20x_pwr.c ****  * @fn      PWR_ClearFlag
 207:Drivers/src/ch32v20x_pwr.c ****  *
 208:Drivers/src/ch32v20x_pwr.c ****  * @brief   Clears the PWR's pending flags.
GAS LISTING C:\Users\SOLDER~1\AppData\Local\Temp\ccEQi33f.s 			page 19


 209:Drivers/src/ch32v20x_pwr.c ****  *
 210:Drivers/src/ch32v20x_pwr.c ****  * @param   PWR_FLAG - specifies the flag to clear.
 211:Drivers/src/ch32v20x_pwr.c ****  *            PWR_FLAG_WU - Wake Up flag
 212:Drivers/src/ch32v20x_pwr.c ****  *            PWR_FLAG_SB - StandBy flag
 213:Drivers/src/ch32v20x_pwr.c ****  *
 214:Drivers/src/ch32v20x_pwr.c ****  * @return  none
 215:Drivers/src/ch32v20x_pwr.c ****  */
 216:Drivers/src/ch32v20x_pwr.c **** void PWR_ClearFlag(uint32_t PWR_FLAG)
 217:Drivers/src/ch32v20x_pwr.c **** {
 514              		.loc 1 217 1
 515              		.cfi_startproc
 516 0000 0111     		addi	sp,sp,-32
 517              		.cfi_def_cfa_offset 32
 518 0002 22CE     		sw	s0,28(sp)
 519              		.cfi_offset 8, -4
 520 0004 0010     		addi	s0,sp,32
 521              		.cfi_def_cfa 8, 0
 522 0006 2326A4FE 		sw	a0,-20(s0)
 218:Drivers/src/ch32v20x_pwr.c ****     PWR->CTLR |= PWR_FLAG << 2;
 523              		.loc 1 218 8
 524 000a B7770040 		li	a5,1073770496
 525 000e 9443     		lw	a3,0(a5)
 526              		.loc 1 218 27
 527 0010 8327C4FE 		lw	a5,-20(s0)
 528 0014 13972700 		slli	a4,a5,2
 529              		.loc 1 218 8
 530 0018 B7770040 		li	a5,1073770496
 531              		.loc 1 218 15
 532 001c 558F     		or	a4,a3,a4
 533 001e 98C3     		sw	a4,0(a5)
 219:Drivers/src/ch32v20x_pwr.c **** }
 534              		.loc 1 219 1
 535 0020 0100     		nop
 536 0022 7244     		lw	s0,28(sp)
 537              		.cfi_restore 8
 538              		.cfi_def_cfa 2, 32
 539 0024 0561     		addi	sp,sp,32
 540              		.cfi_def_cfa_offset 0
 541 0026 8280     		jr	ra
 542              		.cfi_endproc
 543              	.LFE24:
 545              		.section	.text.PWR_EnterSTANDBYMode_RAM,"ax",@progbits
 546              		.align	1
 547              		.globl	PWR_EnterSTANDBYMode_RAM
 549              	PWR_EnterSTANDBYMode_RAM:
 550              	.LFB25:
 220:Drivers/src/ch32v20x_pwr.c **** 
 221:Drivers/src/ch32v20x_pwr.c **** /*********************************************************************
 222:Drivers/src/ch32v20x_pwr.c ****  * @fn      PWR_EnterSTANDBYMode_RAM
 223:Drivers/src/ch32v20x_pwr.c ****  *
 224:Drivers/src/ch32v20x_pwr.c ****  * @brief   Enters STANDBY mode with RAM data retention function on.
 225:Drivers/src/ch32v20x_pwr.c ****  *
 226:Drivers/src/ch32v20x_pwr.c ****  * @return  none
 227:Drivers/src/ch32v20x_pwr.c ****  */
 228:Drivers/src/ch32v20x_pwr.c **** void PWR_EnterSTANDBYMode_RAM(void)
 229:Drivers/src/ch32v20x_pwr.c **** {
 551              		.loc 1 229 1
GAS LISTING C:\Users\SOLDER~1\AppData\Local\Temp\ccEQi33f.s 			page 20


 552              		.cfi_startproc
 553 0000 0111     		addi	sp,sp,-32
 554              		.cfi_def_cfa_offset 32
 555 0002 22CE     		sw	s0,28(sp)
 556              		.cfi_offset 8, -4
 557 0004 0010     		addi	s0,sp,32
 558              		.cfi_def_cfa 8, 0
 230:Drivers/src/ch32v20x_pwr.c ****     uint32_t tmpreg = 0;
 559              		.loc 1 230 14
 560 0006 232604FE 		sw	zero,-20(s0)
 231:Drivers/src/ch32v20x_pwr.c ****     tmpreg = PWR->CTLR;
 561              		.loc 1 231 17
 562 000a B7770040 		li	a5,1073770496
 563              		.loc 1 231 12
 564 000e 9C43     		lw	a5,0(a5)
 565 0010 2326F4FE 		sw	a5,-20(s0)
 232:Drivers/src/ch32v20x_pwr.c **** 
 233:Drivers/src/ch32v20x_pwr.c ****     tmpreg |= PWR_CTLR_CWUF;
 566              		.loc 1 233 12
 567 0014 8327C4FE 		lw	a5,-20(s0)
 568 0018 93E74700 		ori	a5,a5,4
 569 001c 2326F4FE 		sw	a5,-20(s0)
 234:Drivers/src/ch32v20x_pwr.c ****     tmpreg |= PWR_CTLR_PDDS;
 570              		.loc 1 234 12
 571 0020 8327C4FE 		lw	a5,-20(s0)
 572 0024 93E72700 		ori	a5,a5,2
 573 0028 2326F4FE 		sw	a5,-20(s0)
 235:Drivers/src/ch32v20x_pwr.c **** 
 236:Drivers/src/ch32v20x_pwr.c **** #if defined (CH32V20x_D8) || defined (CH32V20x_D8W)
 237:Drivers/src/ch32v20x_pwr.c ****     //2K+30K in standby w power.
 238:Drivers/src/ch32v20x_pwr.c ****     tmpreg |= (0x1 << 16) | (0x1 << 17);
 239:Drivers/src/ch32v20x_pwr.c **** #else
 240:Drivers/src/ch32v20x_pwr.c ****     //RAM in standby power.
 241:Drivers/src/ch32v20x_pwr.c ****     tmpreg |= ( ( uint32_t )1 << 16 );
 574              		.loc 1 241 12
 575 002c 0327C4FE 		lw	a4,-20(s0)
 576 0030 C167     		li	a5,65536
 577 0032 D98F     		or	a5,a4,a5
 578 0034 2326F4FE 		sw	a5,-20(s0)
 242:Drivers/src/ch32v20x_pwr.c **** 
 243:Drivers/src/ch32v20x_pwr.c **** #endif
 244:Drivers/src/ch32v20x_pwr.c **** 
 245:Drivers/src/ch32v20x_pwr.c ****     PWR->CTLR = tmpreg;
 579              		.loc 1 245 8
 580 0038 B7770040 		li	a5,1073770496
 581              		.loc 1 245 15
 582 003c 0327C4FE 		lw	a4,-20(s0)
 583 0040 98C3     		sw	a4,0(a5)
 246:Drivers/src/ch32v20x_pwr.c **** 
 247:Drivers/src/ch32v20x_pwr.c ****     NVIC->SCTLR |= (1 << 2);
 584              		.loc 1 247 9
 585 0042 37E700E0 		li	a4,-536813568
 586 0046 8567     		li	a5,4096
 587 0048 BA97     		add	a5,a4,a5
 588 004a 83A707D1 		lw	a5,-752(a5)
 589 004e B7E600E0 		li	a3,-536813568
 590              		.loc 1 247 17
GAS LISTING C:\Users\SOLDER~1\AppData\Local\Temp\ccEQi33f.s 			page 21


 591 0052 13E74700 		ori	a4,a5,4
 592 0056 8567     		li	a5,4096
 593 0058 B697     		add	a5,a3,a5
 594 005a 23A8E7D0 		sw	a4,-752(a5)
 595              	.LBB26:
 596              	.LBB27:
 291:Drivers/inc/core_riscv.h ****     __asm volatile ("wfi");
 597              		.loc 2 291 9
 598 005e 37E700E0 		li	a4,-536813568
 599 0062 8567     		li	a5,4096
 600 0064 BA97     		add	a5,a4,a5
 601 0066 83A707D1 		lw	a5,-752(a5)
 602 006a B7E600E0 		li	a3,-536813568
 291:Drivers/inc/core_riscv.h ****     __asm volatile ("wfi");
 603              		.loc 2 291 17
 604 006e 13F777FF 		andi	a4,a5,-9
 605 0072 8567     		li	a5,4096
 606 0074 B697     		add	a5,a3,a5
 607 0076 23A8E7D0 		sw	a4,-752(a5)
 292:Drivers/inc/core_riscv.h **** }
 608              		.loc 2 292 5
 609              	 #APP
 610              	# 292 "Drivers/inc/core_riscv.h" 1
 293:Drivers/inc/core_riscv.h **** 
 611              		wfi
 612              	# 0 "" 2
 613              		.loc 2 293 1
 614              	 #NO_APP
 615 007e 0100     		nop
 616              	.LBE27:
 617              	.LBE26:
 248:Drivers/src/ch32v20x_pwr.c **** 
 249:Drivers/src/ch32v20x_pwr.c ****     __WFI();
 250:Drivers/src/ch32v20x_pwr.c **** }
 618              		.loc 1 250 1
 619 0080 0100     		nop
 620 0082 7244     		lw	s0,28(sp)
 621              		.cfi_restore 8
 622              		.cfi_def_cfa 2, 32
 623 0084 0561     		addi	sp,sp,32
 624              		.cfi_def_cfa_offset 0
 625 0086 8280     		jr	ra
 626              		.cfi_endproc
 627              	.LFE25:
 629              		.section	.text.PWR_EnterSTANDBYMode_RAM_LV,"ax",@progbits
 630              		.align	1
 631              		.globl	PWR_EnterSTANDBYMode_RAM_LV
 633              	PWR_EnterSTANDBYMode_RAM_LV:
 634              	.LFB26:
 251:Drivers/src/ch32v20x_pwr.c **** 
 252:Drivers/src/ch32v20x_pwr.c **** /*********************************************************************
 253:Drivers/src/ch32v20x_pwr.c ****  * @fn      PWR_EnterSTANDBYMode_RAM_LV
 254:Drivers/src/ch32v20x_pwr.c ****  *
 255:Drivers/src/ch32v20x_pwr.c ****  * @brief   Enters STANDBY mode with RAM data retention function and LV mode on.
 256:Drivers/src/ch32v20x_pwr.c ****  *
 257:Drivers/src/ch32v20x_pwr.c ****  * @return  none
 258:Drivers/src/ch32v20x_pwr.c ****  */
GAS LISTING C:\Users\SOLDER~1\AppData\Local\Temp\ccEQi33f.s 			page 22


 259:Drivers/src/ch32v20x_pwr.c **** void PWR_EnterSTANDBYMode_RAM_LV(void)
 260:Drivers/src/ch32v20x_pwr.c **** {
 635              		.loc 1 260 1
 636              		.cfi_startproc
 637 0000 0111     		addi	sp,sp,-32
 638              		.cfi_def_cfa_offset 32
 639 0002 22CE     		sw	s0,28(sp)
 640              		.cfi_offset 8, -4
 641 0004 0010     		addi	s0,sp,32
 642              		.cfi_def_cfa 8, 0
 261:Drivers/src/ch32v20x_pwr.c ****     uint32_t tmpreg = 0;
 643              		.loc 1 261 14
 644 0006 232604FE 		sw	zero,-20(s0)
 262:Drivers/src/ch32v20x_pwr.c ****     tmpreg = PWR->CTLR;
 645              		.loc 1 262 17
 646 000a B7770040 		li	a5,1073770496
 647              		.loc 1 262 12
 648 000e 9C43     		lw	a5,0(a5)
 649 0010 2326F4FE 		sw	a5,-20(s0)
 263:Drivers/src/ch32v20x_pwr.c **** 
 264:Drivers/src/ch32v20x_pwr.c ****     tmpreg |= PWR_CTLR_CWUF;
 650              		.loc 1 264 12
 651 0014 8327C4FE 		lw	a5,-20(s0)
 652 0018 93E74700 		ori	a5,a5,4
 653 001c 2326F4FE 		sw	a5,-20(s0)
 265:Drivers/src/ch32v20x_pwr.c ****     tmpreg |= PWR_CTLR_PDDS;
 654              		.loc 1 265 12
 655 0020 8327C4FE 		lw	a5,-20(s0)
 656 0024 93E72700 		ori	a5,a5,2
 657 0028 2326F4FE 		sw	a5,-20(s0)
 266:Drivers/src/ch32v20x_pwr.c **** 
 267:Drivers/src/ch32v20x_pwr.c **** #if defined (CH32V20x_D8) || defined (CH32V20x_D8W)
 268:Drivers/src/ch32v20x_pwr.c ****     //2K+30K in standby power.
 269:Drivers/src/ch32v20x_pwr.c ****     tmpreg |= (0x1 << 16) | (0x1 << 17);
 270:Drivers/src/ch32v20x_pwr.c ****     //2K+30K in standby LV .
 271:Drivers/src/ch32v20x_pwr.c ****     tmpreg |= (0x1 << 20);
 272:Drivers/src/ch32v20x_pwr.c **** #else
 273:Drivers/src/ch32v20x_pwr.c ****     //RAM in standby power.
 274:Drivers/src/ch32v20x_pwr.c ****     tmpreg |= ( ( uint32_t )1 << 16 );
 658              		.loc 1 274 12
 659 002c 0327C4FE 		lw	a4,-20(s0)
 660 0030 C167     		li	a5,65536
 661 0032 D98F     		or	a5,a4,a5
 662 0034 2326F4FE 		sw	a5,-20(s0)
 275:Drivers/src/ch32v20x_pwr.c ****     //RAM in standby LV .
 276:Drivers/src/ch32v20x_pwr.c ****     tmpreg |= ( ( uint32_t )1 << 20 );
 663              		.loc 1 276 12
 664 0038 0327C4FE 		lw	a4,-20(s0)
 665 003c B7071000 		li	a5,1048576
 666 0040 D98F     		or	a5,a4,a5
 667 0042 2326F4FE 		sw	a5,-20(s0)
 277:Drivers/src/ch32v20x_pwr.c **** 
 278:Drivers/src/ch32v20x_pwr.c **** #endif
 279:Drivers/src/ch32v20x_pwr.c **** 
 280:Drivers/src/ch32v20x_pwr.c ****     PWR->CTLR = tmpreg;
 668              		.loc 1 280 8
 669 0046 B7770040 		li	a5,1073770496
GAS LISTING C:\Users\SOLDER~1\AppData\Local\Temp\ccEQi33f.s 			page 23


 670              		.loc 1 280 15
 671 004a 0327C4FE 		lw	a4,-20(s0)
 672 004e 98C3     		sw	a4,0(a5)
 281:Drivers/src/ch32v20x_pwr.c **** 
 282:Drivers/src/ch32v20x_pwr.c ****     NVIC->SCTLR |= (1 << 2);
 673              		.loc 1 282 9
 674 0050 37E700E0 		li	a4,-536813568
 675 0054 8567     		li	a5,4096
 676 0056 BA97     		add	a5,a4,a5
 677 0058 83A707D1 		lw	a5,-752(a5)
 678 005c B7E600E0 		li	a3,-536813568
 679              		.loc 1 282 17
 680 0060 13E74700 		ori	a4,a5,4
 681 0064 8567     		li	a5,4096
 682 0066 B697     		add	a5,a3,a5
 683 0068 23A8E7D0 		sw	a4,-752(a5)
 684              	.LBB28:
 685              	.LBB29:
 291:Drivers/inc/core_riscv.h ****     __asm volatile ("wfi");
 686              		.loc 2 291 9
 687 006c 37E700E0 		li	a4,-536813568
 688 0070 8567     		li	a5,4096
 689 0072 BA97     		add	a5,a4,a5
 690 0074 83A707D1 		lw	a5,-752(a5)
 691 0078 B7E600E0 		li	a3,-536813568
 291:Drivers/inc/core_riscv.h ****     __asm volatile ("wfi");
 692              		.loc 2 291 17
 693 007c 13F777FF 		andi	a4,a5,-9
 694 0080 8567     		li	a5,4096
 695 0082 B697     		add	a5,a3,a5
 696 0084 23A8E7D0 		sw	a4,-752(a5)
 292:Drivers/inc/core_riscv.h **** }
 697              		.loc 2 292 5
 698              	 #APP
 699              	# 292 "Drivers/inc/core_riscv.h" 1
 293:Drivers/inc/core_riscv.h **** 
 700              		wfi
 701              	# 0 "" 2
 702              		.loc 2 293 1
 703              	 #NO_APP
 704 008c 0100     		nop
 705              	.LBE29:
 706              	.LBE28:
 283:Drivers/src/ch32v20x_pwr.c **** 
 284:Drivers/src/ch32v20x_pwr.c ****     __WFI();
 285:Drivers/src/ch32v20x_pwr.c **** }
 707              		.loc 1 285 1
 708 008e 0100     		nop
 709 0090 7244     		lw	s0,28(sp)
 710              		.cfi_restore 8
 711              		.cfi_def_cfa 2, 32
 712 0092 0561     		addi	sp,sp,32
 713              		.cfi_def_cfa_offset 0
 714 0094 8280     		jr	ra
 715              		.cfi_endproc
 716              	.LFE26:
 718              		.section	.text.PWR_EnterSTANDBYMode_RAM_VBAT_EN,"ax",@progbits
GAS LISTING C:\Users\SOLDER~1\AppData\Local\Temp\ccEQi33f.s 			page 24


 719              		.align	1
 720              		.globl	PWR_EnterSTANDBYMode_RAM_VBAT_EN
 722              	PWR_EnterSTANDBYMode_RAM_VBAT_EN:
 723              	.LFB27:
 286:Drivers/src/ch32v20x_pwr.c **** 
 287:Drivers/src/ch32v20x_pwr.c **** /*********************************************************************
 288:Drivers/src/ch32v20x_pwr.c ****  * @fn      PWR_EnterSTANDBYMode_RAM_VBAT_EN
 289:Drivers/src/ch32v20x_pwr.c ****  *
 290:Drivers/src/ch32v20x_pwr.c ****  * @brief   Enters STANDBY mode with RAM data retention function on (VBAT Enable).
 291:Drivers/src/ch32v20x_pwr.c ****  *
 292:Drivers/src/ch32v20x_pwr.c ****  * @return  none
 293:Drivers/src/ch32v20x_pwr.c ****  */
 294:Drivers/src/ch32v20x_pwr.c **** void PWR_EnterSTANDBYMode_RAM_VBAT_EN(void)
 295:Drivers/src/ch32v20x_pwr.c **** {
 724              		.loc 1 295 1
 725              		.cfi_startproc
 726 0000 0111     		addi	sp,sp,-32
 727              		.cfi_def_cfa_offset 32
 728 0002 22CE     		sw	s0,28(sp)
 729              		.cfi_offset 8, -4
 730 0004 0010     		addi	s0,sp,32
 731              		.cfi_def_cfa 8, 0
 296:Drivers/src/ch32v20x_pwr.c ****     uint32_t tmpreg = 0;
 732              		.loc 1 296 14
 733 0006 232604FE 		sw	zero,-20(s0)
 297:Drivers/src/ch32v20x_pwr.c ****     tmpreg = PWR->CTLR;
 734              		.loc 1 297 17
 735 000a B7770040 		li	a5,1073770496
 736              		.loc 1 297 12
 737 000e 9C43     		lw	a5,0(a5)
 738 0010 2326F4FE 		sw	a5,-20(s0)
 298:Drivers/src/ch32v20x_pwr.c **** 
 299:Drivers/src/ch32v20x_pwr.c ****     tmpreg |= PWR_CTLR_CWUF;
 739              		.loc 1 299 12
 740 0014 8327C4FE 		lw	a5,-20(s0)
 741 0018 93E74700 		ori	a5,a5,4
 742 001c 2326F4FE 		sw	a5,-20(s0)
 300:Drivers/src/ch32v20x_pwr.c ****     tmpreg |= PWR_CTLR_PDDS;
 743              		.loc 1 300 12
 744 0020 8327C4FE 		lw	a5,-20(s0)
 745 0024 93E72700 		ori	a5,a5,2
 746 0028 2326F4FE 		sw	a5,-20(s0)
 301:Drivers/src/ch32v20x_pwr.c **** 
 302:Drivers/src/ch32v20x_pwr.c **** #if defined (CH32V20x_D8) || defined (CH32V20x_D8W)
 303:Drivers/src/ch32v20x_pwr.c ****     //2K+30K in standby power (VBAT Enable).
 304:Drivers/src/ch32v20x_pwr.c ****     tmpreg |= (0x1 << 18) | (0x1 << 19);
 305:Drivers/src/ch32v20x_pwr.c **** #else
 306:Drivers/src/ch32v20x_pwr.c ****       //RAM in standby w power.
 307:Drivers/src/ch32v20x_pwr.c ****     tmpreg |= ( ( uint32_t )1 << 18 );
 747              		.loc 1 307 12
 748 002c 0327C4FE 		lw	a4,-20(s0)
 749 0030 B7070400 		li	a5,262144
 750 0034 D98F     		or	a5,a4,a5
 751 0036 2326F4FE 		sw	a5,-20(s0)
 308:Drivers/src/ch32v20x_pwr.c **** 
 309:Drivers/src/ch32v20x_pwr.c **** #endif
 310:Drivers/src/ch32v20x_pwr.c **** 
GAS LISTING C:\Users\SOLDER~1\AppData\Local\Temp\ccEQi33f.s 			page 25


 311:Drivers/src/ch32v20x_pwr.c ****     PWR->CTLR = tmpreg;
 752              		.loc 1 311 8
 753 003a B7770040 		li	a5,1073770496
 754              		.loc 1 311 15
 755 003e 0327C4FE 		lw	a4,-20(s0)
 756 0042 98C3     		sw	a4,0(a5)
 312:Drivers/src/ch32v20x_pwr.c **** 
 313:Drivers/src/ch32v20x_pwr.c ****     NVIC->SCTLR |= (1 << 2);
 757              		.loc 1 313 9
 758 0044 37E700E0 		li	a4,-536813568
 759 0048 8567     		li	a5,4096
 760 004a BA97     		add	a5,a4,a5
 761 004c 83A707D1 		lw	a5,-752(a5)
 762 0050 B7E600E0 		li	a3,-536813568
 763              		.loc 1 313 17
 764 0054 13E74700 		ori	a4,a5,4
 765 0058 8567     		li	a5,4096
 766 005a B697     		add	a5,a3,a5
 767 005c 23A8E7D0 		sw	a4,-752(a5)
 768              	.LBB30:
 769              	.LBB31:
 291:Drivers/inc/core_riscv.h ****     __asm volatile ("wfi");
 770              		.loc 2 291 9
 771 0060 37E700E0 		li	a4,-536813568
 772 0064 8567     		li	a5,4096
 773 0066 BA97     		add	a5,a4,a5
 774 0068 83A707D1 		lw	a5,-752(a5)
 775 006c B7E600E0 		li	a3,-536813568
 291:Drivers/inc/core_riscv.h ****     __asm volatile ("wfi");
 776              		.loc 2 291 17
 777 0070 13F777FF 		andi	a4,a5,-9
 778 0074 8567     		li	a5,4096
 779 0076 B697     		add	a5,a3,a5
 780 0078 23A8E7D0 		sw	a4,-752(a5)
 292:Drivers/inc/core_riscv.h **** }
 781              		.loc 2 292 5
 782              	 #APP
 783              	# 292 "Drivers/inc/core_riscv.h" 1
 293:Drivers/inc/core_riscv.h **** 
 784              		wfi
 785              	# 0 "" 2
 786              		.loc 2 293 1
 787              	 #NO_APP
 788 0080 0100     		nop
 789              	.LBE31:
 790              	.LBE30:
 314:Drivers/src/ch32v20x_pwr.c **** 
 315:Drivers/src/ch32v20x_pwr.c ****     __WFI();
 316:Drivers/src/ch32v20x_pwr.c **** }
 791              		.loc 1 316 1
 792 0082 0100     		nop
 793 0084 7244     		lw	s0,28(sp)
 794              		.cfi_restore 8
 795              		.cfi_def_cfa 2, 32
 796 0086 0561     		addi	sp,sp,32
 797              		.cfi_def_cfa_offset 0
 798 0088 8280     		jr	ra
GAS LISTING C:\Users\SOLDER~1\AppData\Local\Temp\ccEQi33f.s 			page 26


 799              		.cfi_endproc
 800              	.LFE27:
 802              		.section	.text.PWR_EnterSTANDBYMode_RAM_LV_VBAT_EN,"ax",@progbits
 803              		.align	1
 804              		.globl	PWR_EnterSTANDBYMode_RAM_LV_VBAT_EN
 806              	PWR_EnterSTANDBYMode_RAM_LV_VBAT_EN:
 807              	.LFB28:
 317:Drivers/src/ch32v20x_pwr.c **** 
 318:Drivers/src/ch32v20x_pwr.c **** /*********************************************************************
 319:Drivers/src/ch32v20x_pwr.c ****  * @fn      PWR_EnterSTANDBYMode_RAM_LV_VBAT_EN
 320:Drivers/src/ch32v20x_pwr.c ****  *
 321:Drivers/src/ch32v20x_pwr.c ****  * @brief   Enters STANDBY mode with RAM data retention function and LV mode on(VBAT Enable).
 322:Drivers/src/ch32v20x_pwr.c ****  *
 323:Drivers/src/ch32v20x_pwr.c ****  * @return  none
 324:Drivers/src/ch32v20x_pwr.c ****  */
 325:Drivers/src/ch32v20x_pwr.c **** void PWR_EnterSTANDBYMode_RAM_LV_VBAT_EN(void)
 326:Drivers/src/ch32v20x_pwr.c **** {
 808              		.loc 1 326 1
 809              		.cfi_startproc
 810 0000 0111     		addi	sp,sp,-32
 811              		.cfi_def_cfa_offset 32
 812 0002 22CE     		sw	s0,28(sp)
 813              		.cfi_offset 8, -4
 814 0004 0010     		addi	s0,sp,32
 815              		.cfi_def_cfa 8, 0
 327:Drivers/src/ch32v20x_pwr.c ****     uint32_t tmpreg = 0;
 816              		.loc 1 327 14
 817 0006 232604FE 		sw	zero,-20(s0)
 328:Drivers/src/ch32v20x_pwr.c ****     tmpreg = PWR->CTLR;
 818              		.loc 1 328 17
 819 000a B7770040 		li	a5,1073770496
 820              		.loc 1 328 12
 821 000e 9C43     		lw	a5,0(a5)
 822 0010 2326F4FE 		sw	a5,-20(s0)
 329:Drivers/src/ch32v20x_pwr.c **** 
 330:Drivers/src/ch32v20x_pwr.c ****     tmpreg |= PWR_CTLR_CWUF;
 823              		.loc 1 330 12
 824 0014 8327C4FE 		lw	a5,-20(s0)
 825 0018 93E74700 		ori	a5,a5,4
 826 001c 2326F4FE 		sw	a5,-20(s0)
 331:Drivers/src/ch32v20x_pwr.c ****     tmpreg |= PWR_CTLR_PDDS;
 827              		.loc 1 331 12
 828 0020 8327C4FE 		lw	a5,-20(s0)
 829 0024 93E72700 		ori	a5,a5,2
 830 0028 2326F4FE 		sw	a5,-20(s0)
 332:Drivers/src/ch32v20x_pwr.c **** 
 333:Drivers/src/ch32v20x_pwr.c **** #if defined (CH32V20x_D8) || defined (CH32V20x_D8W)
 334:Drivers/src/ch32v20x_pwr.c ****     //2K+30K in standby power (VBAT Enable).
 335:Drivers/src/ch32v20x_pwr.c ****     tmpreg |= (0x1 << 18) | (0x1 << 19);
 336:Drivers/src/ch32v20x_pwr.c ****     //2K+30K in standby LV .
 337:Drivers/src/ch32v20x_pwr.c ****     tmpreg |= (0x1 << 20);
 338:Drivers/src/ch32v20x_pwr.c **** #else
 339:Drivers/src/ch32v20x_pwr.c ****       //RAM in standby w power.
 340:Drivers/src/ch32v20x_pwr.c ****     tmpreg |= ( ( uint32_t )1 << 18 );
 831              		.loc 1 340 12
 832 002c 0327C4FE 		lw	a4,-20(s0)
 833 0030 B7070400 		li	a5,262144
GAS LISTING C:\Users\SOLDER~1\AppData\Local\Temp\ccEQi33f.s 			page 27


 834 0034 D98F     		or	a5,a4,a5
 835 0036 2326F4FE 		sw	a5,-20(s0)
 341:Drivers/src/ch32v20x_pwr.c ****     //RAM in standby LV .
 342:Drivers/src/ch32v20x_pwr.c ****     tmpreg |= ( ( uint32_t )1 << 20 );
 836              		.loc 1 342 12
 837 003a 0327C4FE 		lw	a4,-20(s0)
 838 003e B7071000 		li	a5,1048576
 839 0042 D98F     		or	a5,a4,a5
 840 0044 2326F4FE 		sw	a5,-20(s0)
 343:Drivers/src/ch32v20x_pwr.c **** 
 344:Drivers/src/ch32v20x_pwr.c **** #endif
 345:Drivers/src/ch32v20x_pwr.c **** 
 346:Drivers/src/ch32v20x_pwr.c ****     PWR->CTLR = tmpreg;
 841              		.loc 1 346 8
 842 0048 B7770040 		li	a5,1073770496
 843              		.loc 1 346 15
 844 004c 0327C4FE 		lw	a4,-20(s0)
 845 0050 98C3     		sw	a4,0(a5)
 347:Drivers/src/ch32v20x_pwr.c **** 
 348:Drivers/src/ch32v20x_pwr.c ****     NVIC->SCTLR |= (1 << 2);
 846              		.loc 1 348 9
 847 0052 37E700E0 		li	a4,-536813568
 848 0056 8567     		li	a5,4096
 849 0058 BA97     		add	a5,a4,a5
 850 005a 83A707D1 		lw	a5,-752(a5)
 851 005e B7E600E0 		li	a3,-536813568
 852              		.loc 1 348 17
 853 0062 13E74700 		ori	a4,a5,4
 854 0066 8567     		li	a5,4096
 855 0068 B697     		add	a5,a3,a5
 856 006a 23A8E7D0 		sw	a4,-752(a5)
 857              	.LBB32:
 858              	.LBB33:
 291:Drivers/inc/core_riscv.h ****     __asm volatile ("wfi");
 859              		.loc 2 291 9
 860 006e 37E700E0 		li	a4,-536813568
 861 0072 8567     		li	a5,4096
 862 0074 BA97     		add	a5,a4,a5
 863 0076 83A707D1 		lw	a5,-752(a5)
 864 007a B7E600E0 		li	a3,-536813568
 291:Drivers/inc/core_riscv.h ****     __asm volatile ("wfi");
 865              		.loc 2 291 17
 866 007e 13F777FF 		andi	a4,a5,-9
 867 0082 8567     		li	a5,4096
 868 0084 B697     		add	a5,a3,a5
 869 0086 23A8E7D0 		sw	a4,-752(a5)
 292:Drivers/inc/core_riscv.h **** }
 870              		.loc 2 292 5
 871              	 #APP
 872              	# 292 "Drivers/inc/core_riscv.h" 1
 293:Drivers/inc/core_riscv.h **** 
 873              		wfi
 874              	# 0 "" 2
 875              		.loc 2 293 1
 876              	 #NO_APP
 877 008e 0100     		nop
 878              	.LBE33:
GAS LISTING C:\Users\SOLDER~1\AppData\Local\Temp\ccEQi33f.s 			page 28


 879              	.LBE32:
 349:Drivers/src/ch32v20x_pwr.c **** 
 350:Drivers/src/ch32v20x_pwr.c ****     __WFI();
 351:Drivers/src/ch32v20x_pwr.c **** }
 880              		.loc 1 351 1
 881 0090 0100     		nop
 882 0092 7244     		lw	s0,28(sp)
 883              		.cfi_restore 8
 884              		.cfi_def_cfa 2, 32
 885 0094 0561     		addi	sp,sp,32
 886              		.cfi_def_cfa_offset 0
 887 0096 8280     		jr	ra
 888              		.cfi_endproc
 889              	.LFE28:
 891              		.section	.text.PWR_EnterSTOPMode_RAM_LV,"ax",@progbits
 892              		.align	1
 893              		.globl	PWR_EnterSTOPMode_RAM_LV
 895              	PWR_EnterSTOPMode_RAM_LV:
 896              	.LFB29:
 352:Drivers/src/ch32v20x_pwr.c **** 
 353:Drivers/src/ch32v20x_pwr.c **** 
 354:Drivers/src/ch32v20x_pwr.c **** /*********************************************************************
 355:Drivers/src/ch32v20x_pwr.c ****  * @fn      PWR_EnterSTOPMode_RAM_LV
 356:Drivers/src/ch32v20x_pwr.c ****  *
 357:Drivers/src/ch32v20x_pwr.c ****  * @brief   Enters STOP mode with RAM data retention function and LV mode on.
 358:Drivers/src/ch32v20x_pwr.c ****  *
 359:Drivers/src/ch32v20x_pwr.c ****  * @param   PWR_Regulator - specifies the regulator state in STOP mode.
 360:Drivers/src/ch32v20x_pwr.c ****  *            PWR_Regulator_ON - STOP mode with regulator ON
 361:Drivers/src/ch32v20x_pwr.c ****  *            PWR_Regulator_LowPower - STOP mode with regulator in low power mode
 362:Drivers/src/ch32v20x_pwr.c ****  *          PWR_STOPEntry - specifies if STOP mode in entered with WFI or WFE instruction.
 363:Drivers/src/ch32v20x_pwr.c ****  *            PWR_STOPEntry_WFI - enter STOP mode with WFI instruction
 364:Drivers/src/ch32v20x_pwr.c ****  *            PWR_STOPEntry_WFE - enter STOP mode with WFE instruction
 365:Drivers/src/ch32v20x_pwr.c ****  *
 366:Drivers/src/ch32v20x_pwr.c ****  * @return  none
 367:Drivers/src/ch32v20x_pwr.c ****  */
 368:Drivers/src/ch32v20x_pwr.c **** void PWR_EnterSTOPMode_RAM_LV(uint32_t PWR_Regulator, uint8_t PWR_STOPEntry)
 369:Drivers/src/ch32v20x_pwr.c **** {
 897              		.loc 1 369 1
 898              		.cfi_startproc
 899 0000 7971     		addi	sp,sp,-48
 900              		.cfi_def_cfa_offset 48
 901 0002 22D6     		sw	s0,44(sp)
 902              		.cfi_offset 8, -4
 903 0004 0018     		addi	s0,sp,48
 904              		.cfi_def_cfa 8, 0
 905 0006 232EA4FC 		sw	a0,-36(s0)
 906 000a AE87     		mv	a5,a1
 907 000c A30DF4FC 		sb	a5,-37(s0)
 370:Drivers/src/ch32v20x_pwr.c ****     uint32_t tmpreg = 0;
 908              		.loc 1 370 14
 909 0010 232604FE 		sw	zero,-20(s0)
 371:Drivers/src/ch32v20x_pwr.c ****     tmpreg = PWR->CTLR;
 910              		.loc 1 371 17
 911 0014 B7770040 		li	a5,1073770496
 912              		.loc 1 371 12
 913 0018 9C43     		lw	a5,0(a5)
 914 001a 2326F4FE 		sw	a5,-20(s0)
GAS LISTING C:\Users\SOLDER~1\AppData\Local\Temp\ccEQi33f.s 			page 29


 372:Drivers/src/ch32v20x_pwr.c ****     tmpreg &= CTLR_DS_MASK;
 915              		.loc 1 372 12
 916 001e 8327C4FE 		lw	a5,-20(s0)
 917 0022 F19B     		andi	a5,a5,-4
 918 0024 2326F4FE 		sw	a5,-20(s0)
 373:Drivers/src/ch32v20x_pwr.c ****     tmpreg |= PWR_Regulator;
 919              		.loc 1 373 12
 920 0028 0327C4FE 		lw	a4,-20(s0)
 921 002c 8327C4FD 		lw	a5,-36(s0)
 922 0030 D98F     		or	a5,a4,a5
 923 0032 2326F4FE 		sw	a5,-20(s0)
 374:Drivers/src/ch32v20x_pwr.c **** 
 375:Drivers/src/ch32v20x_pwr.c **** #if defined (CH32V20x_D8) || defined (CH32V20x_D8W)
 376:Drivers/src/ch32v20x_pwr.c ****     //2K+30K in standby power.
 377:Drivers/src/ch32v20x_pwr.c ****     tmpreg |= (0x1 << 16) | (0x1 << 17);
 378:Drivers/src/ch32v20x_pwr.c ****     //2K+30K in standby LV .
 379:Drivers/src/ch32v20x_pwr.c ****     tmpreg |= (0x1 << 20);
 380:Drivers/src/ch32v20x_pwr.c **** #else
 381:Drivers/src/ch32v20x_pwr.c ****     //RAM in standby power.
 382:Drivers/src/ch32v20x_pwr.c ****     tmpreg |= ( ( uint32_t )1 << 16 );
 924              		.loc 1 382 12
 925 0036 0327C4FE 		lw	a4,-20(s0)
 926 003a C167     		li	a5,65536
 927 003c D98F     		or	a5,a4,a5
 928 003e 2326F4FE 		sw	a5,-20(s0)
 383:Drivers/src/ch32v20x_pwr.c ****     //RAM in standby LV .
 384:Drivers/src/ch32v20x_pwr.c ****     tmpreg |= ( ( uint32_t )1 << 20 );
 929              		.loc 1 384 12
 930 0042 0327C4FE 		lw	a4,-20(s0)
 931 0046 B7071000 		li	a5,1048576
 932 004a D98F     		or	a5,a4,a5
 933 004c 2326F4FE 		sw	a5,-20(s0)
 385:Drivers/src/ch32v20x_pwr.c **** 
 386:Drivers/src/ch32v20x_pwr.c **** #endif
 387:Drivers/src/ch32v20x_pwr.c **** 
 388:Drivers/src/ch32v20x_pwr.c ****     PWR->CTLR = tmpreg;
 934              		.loc 1 388 8
 935 0050 B7770040 		li	a5,1073770496
 936              		.loc 1 388 15
 937 0054 0327C4FE 		lw	a4,-20(s0)
 938 0058 98C3     		sw	a4,0(a5)
 389:Drivers/src/ch32v20x_pwr.c **** 
 390:Drivers/src/ch32v20x_pwr.c ****     NVIC->SCTLR |= (1 << 2);
 939              		.loc 1 390 9
 940 005a 37E700E0 		li	a4,-536813568
 941 005e 8567     		li	a5,4096
 942 0060 BA97     		add	a5,a4,a5
 943 0062 83A707D1 		lw	a5,-752(a5)
 944 0066 B7E600E0 		li	a3,-536813568
 945              		.loc 1 390 17
 946 006a 13E74700 		ori	a4,a5,4
 947 006e 8567     		li	a5,4096
 948 0070 B697     		add	a5,a3,a5
 949 0072 23A8E7D0 		sw	a4,-752(a5)
 391:Drivers/src/ch32v20x_pwr.c **** 
 392:Drivers/src/ch32v20x_pwr.c ****     if(PWR_STOPEntry == PWR_STOPEntry_WFI)
 950              		.loc 1 392 7
GAS LISTING C:\Users\SOLDER~1\AppData\Local\Temp\ccEQi33f.s 			page 30


 951 0076 0347B4FD 		lbu	a4,-37(s0)
 952 007a 8547     		li	a5,1
 953 007c 6313F702 		bne	a4,a5,.L29
 954              	.LBB34:
 955              	.LBB35:
 291:Drivers/inc/core_riscv.h ****     __asm volatile ("wfi");
 956              		.loc 2 291 9
 957 0080 37E700E0 		li	a4,-536813568
 958 0084 8567     		li	a5,4096
 959 0086 BA97     		add	a5,a4,a5
 960 0088 83A707D1 		lw	a5,-752(a5)
 961 008c B7E600E0 		li	a3,-536813568
 291:Drivers/inc/core_riscv.h ****     __asm volatile ("wfi");
 962              		.loc 2 291 17
 963 0090 13F777FF 		andi	a4,a5,-9
 964 0094 8567     		li	a5,4096
 965 0096 B697     		add	a5,a3,a5
 966 0098 23A8E7D0 		sw	a4,-752(a5)
 292:Drivers/inc/core_riscv.h **** }
 967              		.loc 2 292 5
 968              	 #APP
 969              	# 292 "Drivers/inc/core_riscv.h" 1
 293:Drivers/inc/core_riscv.h **** 
 970              		wfi
 971              	# 0 "" 2
 972              		.loc 2 293 1
 973              	 #NO_APP
 974 00a0 B9A8     		j	.L30
 975              	.L29:
 976              	.LBE35:
 977              	.LBE34:
 978              	.LBB36:
 979              	.LBB37:
 305:Drivers/inc/core_riscv.h ****     NVIC->SCTLR |= (1 << 3) | (1 << 5);		// (wfi->wfe)+(__sev)
 980              		.loc 2 305 13
 981 00a2 37E700E0 		li	a4,-536813568
 305:Drivers/inc/core_riscv.h ****     NVIC->SCTLR |= (1 << 3) | (1 << 5);		// (wfi->wfe)+(__sev)
 982              		.loc 2 305 7
 983 00a6 8567     		li	a5,4096
 984 00a8 BA97     		add	a5,a4,a5
 985 00aa 83A707D1 		lw	a5,-752(a5)
 986 00ae 2324F4FE 		sw	a5,-24(s0)
 306:Drivers/inc/core_riscv.h ****     NVIC->SCTLR = (NVIC->SCTLR & ~(1 << 5)) | (t & (1 << 5));
 987              		.loc 2 306 9
 988 00b2 37E700E0 		li	a4,-536813568
 989 00b6 8567     		li	a5,4096
 990 00b8 BA97     		add	a5,a4,a5
 991 00ba 83A707D1 		lw	a5,-752(a5)
 992 00be B7E600E0 		li	a3,-536813568
 306:Drivers/inc/core_riscv.h ****     NVIC->SCTLR = (NVIC->SCTLR & ~(1 << 5)) | (t & (1 << 5));
 993              		.loc 2 306 17
 994 00c2 13E78702 		ori	a4,a5,40
 995 00c6 8567     		li	a5,4096
 996 00c8 B697     		add	a5,a3,a5
 997 00ca 23A8E7D0 		sw	a4,-752(a5)
 307:Drivers/inc/core_riscv.h ****     __asm volatile ("wfi");
 998              		.loc 2 307 24
GAS LISTING C:\Users\SOLDER~1\AppData\Local\Temp\ccEQi33f.s 			page 31


 999 00ce 37E700E0 		li	a4,-536813568
 1000 00d2 8567     		li	a5,4096
 1001 00d4 BA97     		add	a5,a4,a5
 1002 00d6 83A707D1 		lw	a5,-752(a5)
 307:Drivers/inc/core_riscv.h ****     __asm volatile ("wfi");
 1003              		.loc 2 307 32
 1004 00da 13F7F7FD 		andi	a4,a5,-33
 307:Drivers/inc/core_riscv.h ****     __asm volatile ("wfi");
 1005              		.loc 2 307 50
 1006 00de 832784FE 		lw	a5,-24(s0)
 1007 00e2 93F70702 		andi	a5,a5,32
 307:Drivers/inc/core_riscv.h ****     __asm volatile ("wfi");
 1008              		.loc 2 307 9
 1009 00e6 B7E600E0 		li	a3,-536813568
 307:Drivers/inc/core_riscv.h ****     __asm volatile ("wfi");
 1010              		.loc 2 307 45
 1011 00ea 5D8F     		or	a4,a4,a5
 307:Drivers/inc/core_riscv.h ****     __asm volatile ("wfi");
 1012              		.loc 2 307 17
 1013 00ec 8567     		li	a5,4096
 1014 00ee B697     		add	a5,a3,a5
 1015 00f0 23A8E7D0 		sw	a4,-752(a5)
 308:Drivers/inc/core_riscv.h ****     __asm volatile ("wfi");
 1016              		.loc 2 308 5
 1017              	 #APP
 1018              	# 308 "Drivers/inc/core_riscv.h" 1
 309:Drivers/inc/core_riscv.h **** }
 1019              		wfi
 1020              	# 0 "" 2
 1021              		.loc 2 309 5
 1022              	# 309 "Drivers/inc/core_riscv.h" 1
 1023              		wfi
 1024              	# 0 "" 2
 1025              		.loc 2 310 1
 1026              	 #NO_APP
 1027 00fc 0100     		nop
 1028              	.L30:
 1029              	.LBE37:
 1030              	.LBE36:
 393:Drivers/src/ch32v20x_pwr.c ****     {
 394:Drivers/src/ch32v20x_pwr.c ****         __WFI();
 395:Drivers/src/ch32v20x_pwr.c ****     }
 396:Drivers/src/ch32v20x_pwr.c ****     else
 397:Drivers/src/ch32v20x_pwr.c ****     {
 398:Drivers/src/ch32v20x_pwr.c ****         __WFE();
 399:Drivers/src/ch32v20x_pwr.c ****     }
 400:Drivers/src/ch32v20x_pwr.c **** 
 401:Drivers/src/ch32v20x_pwr.c ****     NVIC->SCTLR &= ~(1 << 2);
 1031              		.loc 1 401 9
 1032 00fe 37E700E0 		li	a4,-536813568
 1033 0102 8567     		li	a5,4096
 1034 0104 BA97     		add	a5,a4,a5
 1035 0106 83A707D1 		lw	a5,-752(a5)
 1036 010a B7E600E0 		li	a3,-536813568
 1037              		.loc 1 401 17
 1038 010e 13F7B7FF 		andi	a4,a5,-5
 1039 0112 8567     		li	a5,4096
GAS LISTING C:\Users\SOLDER~1\AppData\Local\Temp\ccEQi33f.s 			page 32


 1040 0114 B697     		add	a5,a3,a5
 1041 0116 23A8E7D0 		sw	a4,-752(a5)
 402:Drivers/src/ch32v20x_pwr.c **** }
 1042              		.loc 1 402 1
 1043 011a 0100     		nop
 1044 011c 3254     		lw	s0,44(sp)
 1045              		.cfi_restore 8
 1046              		.cfi_def_cfa 2, 48
 1047 011e 4561     		addi	sp,sp,48
 1048              		.cfi_def_cfa_offset 0
 1049 0120 8280     		jr	ra
 1050              		.cfi_endproc
 1051              	.LFE29:
 1053              		.text
 1054              	.Letext0:
 1055              		.file 3 "c:\\dev_tools\\ch32_tools\\risc-v_embedded_gcc12\\riscv-none-elf\\include\\machine\\_defa
 1056              		.file 4 "c:\\dev_tools\\ch32_tools\\risc-v_embedded_gcc12\\riscv-none-elf\\include\\sys\\_stdint.h
 1057              		.file 5 "Drivers/inc/ch32v20x.h"
 1058              		.file 6 "Drivers/inc/ch32v20x_rcc.h"
GAS LISTING C:\Users\SOLDER~1\AppData\Local\Temp\ccEQi33f.s 			page 33


DEFINED SYMBOLS
                            *ABS*:0000000000000000 ch32v20x_pwr.c
C:\Users\SOLDER~1\AppData\Local\Temp\ccEQi33f.s:14     .text.PWR_DeInit:0000000000000000 PWR_DeInit
C:\Users\SOLDER~1\AppData\Local\Temp\ccEQi33f.s:18     .text.PWR_DeInit:0000000000000000 .L0 
C:\Users\SOLDER~1\AppData\Local\Temp\ccEQi33f.s:19     .text.PWR_DeInit:0000000000000000 $x
C:\Users\SOLDER~1\AppData\Local\Temp\ccEQi33f.s:19     .text.PWR_DeInit:0000000000000000 .L0 
C:\Users\SOLDER~1\AppData\Local\Temp\ccEQi33f.s:20     .text.PWR_DeInit:0000000000000002 .L0 
C:\Users\SOLDER~1\AppData\Local\Temp\ccEQi33f.s:23     .text.PWR_DeInit:0000000000000006 .L0 
C:\Users\SOLDER~1\AppData\Local\Temp\ccEQi33f.s:24     .text.PWR_DeInit:0000000000000006 .L0 
C:\Users\SOLDER~1\AppData\Local\Temp\ccEQi33f.s:26     .text.PWR_DeInit:0000000000000008 .L0 
C:\Users\SOLDER~1\AppData\Local\Temp\ccEQi33f.s:28     .text.PWR_DeInit:0000000000000008 .L0 
C:\Users\SOLDER~1\AppData\Local\Temp\ccEQi33f.s:32     .text.PWR_DeInit:0000000000000016 .L0 
C:\Users\SOLDER~1\AppData\Local\Temp\ccEQi33f.s:36     .text.PWR_DeInit:0000000000000024 .L0 
C:\Users\SOLDER~1\AppData\Local\Temp\ccEQi33f.s:38     .text.PWR_DeInit:0000000000000028 .L0 
C:\Users\SOLDER~1\AppData\Local\Temp\ccEQi33f.s:40     .text.PWR_DeInit:000000000000002a .L0 
C:\Users\SOLDER~1\AppData\Local\Temp\ccEQi33f.s:41     .text.PWR_DeInit:000000000000002a .L0 
C:\Users\SOLDER~1\AppData\Local\Temp\ccEQi33f.s:43     .text.PWR_DeInit:000000000000002c .L0 
C:\Users\SOLDER~1\AppData\Local\Temp\ccEQi33f.s:45     .text.PWR_DeInit:000000000000002e .L0 
C:\Users\SOLDER~1\AppData\Local\Temp\ccEQi33f.s:52     .text.PWR_BackupAccessCmd:0000000000000000 PWR_BackupAccessCmd
C:\Users\SOLDER~1\AppData\Local\Temp\ccEQi33f.s:55     .text.PWR_BackupAccessCmd:0000000000000000 .L0 
C:\Users\SOLDER~1\AppData\Local\Temp\ccEQi33f.s:56     .text.PWR_BackupAccessCmd:0000000000000000 $x
C:\Users\SOLDER~1\AppData\Local\Temp\ccEQi33f.s:56     .text.PWR_BackupAccessCmd:0000000000000000 .L0 
C:\Users\SOLDER~1\AppData\Local\Temp\ccEQi33f.s:57     .text.PWR_BackupAccessCmd:0000000000000002 .L0 
C:\Users\SOLDER~1\AppData\Local\Temp\ccEQi33f.s:59     .text.PWR_BackupAccessCmd:0000000000000004 .L0 
C:\Users\SOLDER~1\AppData\Local\Temp\ccEQi33f.s:61     .text.PWR_BackupAccessCmd:0000000000000006 .L0 
C:\Users\SOLDER~1\AppData\Local\Temp\ccEQi33f.s:64     .text.PWR_BackupAccessCmd:000000000000000a .L0 
C:\Users\SOLDER~1\AppData\Local\Temp\ccEQi33f.s:67     .text.PWR_BackupAccessCmd:0000000000000010 .L0 
C:\Users\SOLDER~1\AppData\Local\Temp\ccEQi33f.s:71     .text.PWR_BackupAccessCmd:000000000000001a .L0 
C:\Users\SOLDER~1\AppData\Local\Temp\ccEQi33f.s:74     .text.PWR_BackupAccessCmd:0000000000000020 .L0 
C:\Users\SOLDER~1\AppData\Local\Temp\ccEQi33f.s:77     .text.PWR_BackupAccessCmd:0000000000000022 .L0 
C:\Users\SOLDER~1\AppData\Local\Temp\ccEQi33f.s:81     .text.PWR_BackupAccessCmd:000000000000002c .L0 
C:\Users\SOLDER~1\AppData\Local\Temp\ccEQi33f.s:85     .text.PWR_BackupAccessCmd:0000000000000032 .L0 
C:\Users\SOLDER~1\AppData\Local\Temp\ccEQi33f.s:87     .text.PWR_BackupAccessCmd:0000000000000036 .L0 
C:\Users\SOLDER~1\AppData\Local\Temp\ccEQi33f.s:88     .text.PWR_BackupAccessCmd:0000000000000036 .L0 
C:\Users\SOLDER~1\AppData\Local\Temp\ccEQi33f.s:90     .text.PWR_BackupAccessCmd:0000000000000038 .L0 
C:\Users\SOLDER~1\AppData\Local\Temp\ccEQi33f.s:92     .text.PWR_BackupAccessCmd:000000000000003a .L0 
C:\Users\SOLDER~1\AppData\Local\Temp\ccEQi33f.s:99     .text.PWR_PVDCmd:0000000000000000 PWR_PVDCmd
C:\Users\SOLDER~1\AppData\Local\Temp\ccEQi33f.s:102    .text.PWR_PVDCmd:0000000000000000 .L0 
C:\Users\SOLDER~1\AppData\Local\Temp\ccEQi33f.s:103    .text.PWR_PVDCmd:0000000000000000 $x
C:\Users\SOLDER~1\AppData\Local\Temp\ccEQi33f.s:103    .text.PWR_PVDCmd:0000000000000000 .L0 
C:\Users\SOLDER~1\AppData\Local\Temp\ccEQi33f.s:104    .text.PWR_PVDCmd:0000000000000002 .L0 
C:\Users\SOLDER~1\AppData\Local\Temp\ccEQi33f.s:106    .text.PWR_PVDCmd:0000000000000004 .L0 
C:\Users\SOLDER~1\AppData\Local\Temp\ccEQi33f.s:108    .text.PWR_PVDCmd:0000000000000006 .L0 
C:\Users\SOLDER~1\AppData\Local\Temp\ccEQi33f.s:111    .text.PWR_PVDCmd:000000000000000a .L0 
C:\Users\SOLDER~1\AppData\Local\Temp\ccEQi33f.s:114    .text.PWR_PVDCmd:0000000000000010 .L0 
C:\Users\SOLDER~1\AppData\Local\Temp\ccEQi33f.s:118    .text.PWR_PVDCmd:000000000000001a .L0 
C:\Users\SOLDER~1\AppData\Local\Temp\ccEQi33f.s:121    .text.PWR_PVDCmd:0000000000000020 .L0 
C:\Users\SOLDER~1\AppData\Local\Temp\ccEQi33f.s:124    .text.PWR_PVDCmd:0000000000000022 .L0 
C:\Users\SOLDER~1\AppData\Local\Temp\ccEQi33f.s:128    .text.PWR_PVDCmd:000000000000002c .L0 
C:\Users\SOLDER~1\AppData\Local\Temp\ccEQi33f.s:132    .text.PWR_PVDCmd:0000000000000030 .L0 
C:\Users\SOLDER~1\AppData\Local\Temp\ccEQi33f.s:134    .text.PWR_PVDCmd:0000000000000034 .L0 
C:\Users\SOLDER~1\AppData\Local\Temp\ccEQi33f.s:135    .text.PWR_PVDCmd:0000000000000034 .L0 
C:\Users\SOLDER~1\AppData\Local\Temp\ccEQi33f.s:137    .text.PWR_PVDCmd:0000000000000036 .L0 
C:\Users\SOLDER~1\AppData\Local\Temp\ccEQi33f.s:139    .text.PWR_PVDCmd:0000000000000038 .L0 
C:\Users\SOLDER~1\AppData\Local\Temp\ccEQi33f.s:146    .text.PWR_PVDLevelConfig:0000000000000000 PWR_PVDLevelConfig
C:\Users\SOLDER~1\AppData\Local\Temp\ccEQi33f.s:149    .text.PWR_PVDLevelConfig:0000000000000000 .L0 
C:\Users\SOLDER~1\AppData\Local\Temp\ccEQi33f.s:150    .text.PWR_PVDLevelConfig:0000000000000000 $x
GAS LISTING C:\Users\SOLDER~1\AppData\Local\Temp\ccEQi33f.s 			page 34


C:\Users\SOLDER~1\AppData\Local\Temp\ccEQi33f.s:150    .text.PWR_PVDLevelConfig:0000000000000000 .L0 
C:\Users\SOLDER~1\AppData\Local\Temp\ccEQi33f.s:151    .text.PWR_PVDLevelConfig:0000000000000002 .L0 
C:\Users\SOLDER~1\AppData\Local\Temp\ccEQi33f.s:153    .text.PWR_PVDLevelConfig:0000000000000004 .L0 
C:\Users\SOLDER~1\AppData\Local\Temp\ccEQi33f.s:155    .text.PWR_PVDLevelConfig:0000000000000006 .L0 
C:\Users\SOLDER~1\AppData\Local\Temp\ccEQi33f.s:158    .text.PWR_PVDLevelConfig:000000000000000a .L0 
C:\Users\SOLDER~1\AppData\Local\Temp\ccEQi33f.s:160    .text.PWR_PVDLevelConfig:000000000000000e .L0 
C:\Users\SOLDER~1\AppData\Local\Temp\ccEQi33f.s:162    .text.PWR_PVDLevelConfig:0000000000000012 .L0 
C:\Users\SOLDER~1\AppData\Local\Temp\ccEQi33f.s:165    .text.PWR_PVDLevelConfig:0000000000000018 .L0 
C:\Users\SOLDER~1\AppData\Local\Temp\ccEQi33f.s:169    .text.PWR_PVDLevelConfig:0000000000000024 .L0 
C:\Users\SOLDER~1\AppData\Local\Temp\ccEQi33f.s:174    .text.PWR_PVDLevelConfig:0000000000000032 .L0 
C:\Users\SOLDER~1\AppData\Local\Temp\ccEQi33f.s:176    .text.PWR_PVDLevelConfig:0000000000000036 .L0 
C:\Users\SOLDER~1\AppData\Local\Temp\ccEQi33f.s:179    .text.PWR_PVDLevelConfig:000000000000003c .L0 
C:\Users\SOLDER~1\AppData\Local\Temp\ccEQi33f.s:181    .text.PWR_PVDLevelConfig:0000000000000040 .L0 
C:\Users\SOLDER~1\AppData\Local\Temp\ccEQi33f.s:182    .text.PWR_PVDLevelConfig:0000000000000040 .L0 
C:\Users\SOLDER~1\AppData\Local\Temp\ccEQi33f.s:184    .text.PWR_PVDLevelConfig:0000000000000042 .L0 
C:\Users\SOLDER~1\AppData\Local\Temp\ccEQi33f.s:186    .text.PWR_PVDLevelConfig:0000000000000044 .L0 
C:\Users\SOLDER~1\AppData\Local\Temp\ccEQi33f.s:193    .text.PWR_WakeUpPinCmd:0000000000000000 PWR_WakeUpPinCmd
C:\Users\SOLDER~1\AppData\Local\Temp\ccEQi33f.s:196    .text.PWR_WakeUpPinCmd:0000000000000000 .L0 
C:\Users\SOLDER~1\AppData\Local\Temp\ccEQi33f.s:197    .text.PWR_WakeUpPinCmd:0000000000000000 $x
C:\Users\SOLDER~1\AppData\Local\Temp\ccEQi33f.s:197    .text.PWR_WakeUpPinCmd:0000000000000000 .L0 
C:\Users\SOLDER~1\AppData\Local\Temp\ccEQi33f.s:198    .text.PWR_WakeUpPinCmd:0000000000000002 .L0 
C:\Users\SOLDER~1\AppData\Local\Temp\ccEQi33f.s:200    .text.PWR_WakeUpPinCmd:0000000000000004 .L0 
C:\Users\SOLDER~1\AppData\Local\Temp\ccEQi33f.s:202    .text.PWR_WakeUpPinCmd:0000000000000006 .L0 
C:\Users\SOLDER~1\AppData\Local\Temp\ccEQi33f.s:205    .text.PWR_WakeUpPinCmd:000000000000000a .L0 
C:\Users\SOLDER~1\AppData\Local\Temp\ccEQi33f.s:208    .text.PWR_WakeUpPinCmd:0000000000000010 .L0 
C:\Users\SOLDER~1\AppData\Local\Temp\ccEQi33f.s:212    .text.PWR_WakeUpPinCmd:000000000000001a .L0 
C:\Users\SOLDER~1\AppData\Local\Temp\ccEQi33f.s:215    .text.PWR_WakeUpPinCmd:0000000000000020 .L0 
C:\Users\SOLDER~1\AppData\Local\Temp\ccEQi33f.s:218    .text.PWR_WakeUpPinCmd:0000000000000022 .L0 
C:\Users\SOLDER~1\AppData\Local\Temp\ccEQi33f.s:222    .text.PWR_WakeUpPinCmd:000000000000002c .L0 
C:\Users\SOLDER~1\AppData\Local\Temp\ccEQi33f.s:226    .text.PWR_WakeUpPinCmd:0000000000000032 .L0 
C:\Users\SOLDER~1\AppData\Local\Temp\ccEQi33f.s:228    .text.PWR_WakeUpPinCmd:0000000000000036 .L0 
C:\Users\SOLDER~1\AppData\Local\Temp\ccEQi33f.s:229    .text.PWR_WakeUpPinCmd:0000000000000036 .L0 
C:\Users\SOLDER~1\AppData\Local\Temp\ccEQi33f.s:231    .text.PWR_WakeUpPinCmd:0000000000000038 .L0 
C:\Users\SOLDER~1\AppData\Local\Temp\ccEQi33f.s:233    .text.PWR_WakeUpPinCmd:000000000000003a .L0 
C:\Users\SOLDER~1\AppData\Local\Temp\ccEQi33f.s:240    .text.PWR_EnterSTOPMode:0000000000000000 PWR_EnterSTOPMode
C:\Users\SOLDER~1\AppData\Local\Temp\ccEQi33f.s:243    .text.PWR_EnterSTOPMode:0000000000000000 .L0 
C:\Users\SOLDER~1\AppData\Local\Temp\ccEQi33f.s:244    .text.PWR_EnterSTOPMode:0000000000000000 $x
C:\Users\SOLDER~1\AppData\Local\Temp\ccEQi33f.s:244    .text.PWR_EnterSTOPMode:0000000000000000 .L0 
C:\Users\SOLDER~1\AppData\Local\Temp\ccEQi33f.s:245    .text.PWR_EnterSTOPMode:0000000000000002 .L0 
C:\Users\SOLDER~1\AppData\Local\Temp\ccEQi33f.s:247    .text.PWR_EnterSTOPMode:0000000000000004 .L0 
C:\Users\SOLDER~1\AppData\Local\Temp\ccEQi33f.s:249    .text.PWR_EnterSTOPMode:0000000000000006 .L0 
C:\Users\SOLDER~1\AppData\Local\Temp\ccEQi33f.s:254    .text.PWR_EnterSTOPMode:0000000000000010 .L0 
C:\Users\SOLDER~1\AppData\Local\Temp\ccEQi33f.s:256    .text.PWR_EnterSTOPMode:0000000000000014 .L0 
C:\Users\SOLDER~1\AppData\Local\Temp\ccEQi33f.s:258    .text.PWR_EnterSTOPMode:0000000000000018 .L0 
C:\Users\SOLDER~1\AppData\Local\Temp\ccEQi33f.s:261    .text.PWR_EnterSTOPMode:000000000000001e .L0 
C:\Users\SOLDER~1\AppData\Local\Temp\ccEQi33f.s:265    .text.PWR_EnterSTOPMode:0000000000000028 .L0 
C:\Users\SOLDER~1\AppData\Local\Temp\ccEQi33f.s:270    .text.PWR_EnterSTOPMode:0000000000000036 .L0 
C:\Users\SOLDER~1\AppData\Local\Temp\ccEQi33f.s:272    .text.PWR_EnterSTOPMode:000000000000003a .L0 
C:\Users\SOLDER~1\AppData\Local\Temp\ccEQi33f.s:275    .text.PWR_EnterSTOPMode:0000000000000040 .L0 
C:\Users\SOLDER~1\AppData\Local\Temp\ccEQi33f.s:281    .text.PWR_EnterSTOPMode:0000000000000050 .L0 
C:\Users\SOLDER~1\AppData\Local\Temp\ccEQi33f.s:286    .text.PWR_EnterSTOPMode:000000000000005c .L0 
C:\Users\SOLDER~1\AppData\Local\Temp\ccEQi33f.s:293    .text.PWR_EnterSTOPMode:0000000000000066 .L0 
C:\Users\SOLDER~1\AppData\Local\Temp\ccEQi33f.s:299    .text.PWR_EnterSTOPMode:0000000000000076 .L0 
Drivers/inc/core_riscv.h:292    .text.PWR_EnterSTOPMode:0000000000000082 .L0 
C:\Users\SOLDER~1\AppData\Local\Temp\ccEQi33f.s:310    .text.PWR_EnterSTOPMode:0000000000000086 .L0 
C:\Users\SOLDER~1\AppData\Local\Temp\ccEQi33f.s:317    .text.PWR_EnterSTOPMode:0000000000000088 .L0 
C:\Users\SOLDER~1\AppData\Local\Temp\ccEQi33f.s:319    .text.PWR_EnterSTOPMode:000000000000008c .L0 
GAS LISTING C:\Users\SOLDER~1\AppData\Local\Temp\ccEQi33f.s 			page 35


C:\Users\SOLDER~1\AppData\Local\Temp\ccEQi33f.s:324    .text.PWR_EnterSTOPMode:0000000000000098 .L0 
C:\Users\SOLDER~1\AppData\Local\Temp\ccEQi33f.s:330    .text.PWR_EnterSTOPMode:00000000000000a8 .L0 
C:\Users\SOLDER~1\AppData\Local\Temp\ccEQi33f.s:335    .text.PWR_EnterSTOPMode:00000000000000b4 .L0 
C:\Users\SOLDER~1\AppData\Local\Temp\ccEQi33f.s:340    .text.PWR_EnterSTOPMode:00000000000000c0 .L0 
C:\Users\SOLDER~1\AppData\Local\Temp\ccEQi33f.s:342    .text.PWR_EnterSTOPMode:00000000000000c4 .L0 
C:\Users\SOLDER~1\AppData\Local\Temp\ccEQi33f.s:345    .text.PWR_EnterSTOPMode:00000000000000cc .L0 
C:\Users\SOLDER~1\AppData\Local\Temp\ccEQi33f.s:347    .text.PWR_EnterSTOPMode:00000000000000d0 .L0 
C:\Users\SOLDER~1\AppData\Local\Temp\ccEQi33f.s:349    .text.PWR_EnterSTOPMode:00000000000000d2 .L0 
Drivers/inc/core_riscv.h:308    .text.PWR_EnterSTOPMode:00000000000000da .L0 
Drivers/inc/core_riscv.h:309    .text.PWR_EnterSTOPMode:00000000000000de .L0 
C:\Users\SOLDER~1\AppData\Local\Temp\ccEQi33f.s:363    .text.PWR_EnterSTOPMode:00000000000000e2 .L0 
C:\Users\SOLDER~1\AppData\Local\Temp\ccEQi33f.s:368    .text.PWR_EnterSTOPMode:00000000000000e4 .L0 
C:\Users\SOLDER~1\AppData\Local\Temp\ccEQi33f.s:374    .text.PWR_EnterSTOPMode:00000000000000f4 .L0 
C:\Users\SOLDER~1\AppData\Local\Temp\ccEQi33f.s:379    .text.PWR_EnterSTOPMode:0000000000000100 .L0 
C:\Users\SOLDER~1\AppData\Local\Temp\ccEQi33f.s:381    .text.PWR_EnterSTOPMode:0000000000000104 .L0 
C:\Users\SOLDER~1\AppData\Local\Temp\ccEQi33f.s:382    .text.PWR_EnterSTOPMode:0000000000000104 .L0 
C:\Users\SOLDER~1\AppData\Local\Temp\ccEQi33f.s:384    .text.PWR_EnterSTOPMode:0000000000000106 .L0 
C:\Users\SOLDER~1\AppData\Local\Temp\ccEQi33f.s:386    .text.PWR_EnterSTOPMode:0000000000000108 .L0 
C:\Users\SOLDER~1\AppData\Local\Temp\ccEQi33f.s:393    .text.PWR_EnterSTANDBYMode:0000000000000000 PWR_EnterSTANDBYMode
C:\Users\SOLDER~1\AppData\Local\Temp\ccEQi33f.s:396    .text.PWR_EnterSTANDBYMode:0000000000000000 .L0 
C:\Users\SOLDER~1\AppData\Local\Temp\ccEQi33f.s:397    .text.PWR_EnterSTANDBYMode:0000000000000000 $x
C:\Users\SOLDER~1\AppData\Local\Temp\ccEQi33f.s:397    .text.PWR_EnterSTANDBYMode:0000000000000000 .L0 
C:\Users\SOLDER~1\AppData\Local\Temp\ccEQi33f.s:398    .text.PWR_EnterSTANDBYMode:0000000000000002 .L0 
C:\Users\SOLDER~1\AppData\Local\Temp\ccEQi33f.s:400    .text.PWR_EnterSTANDBYMode:0000000000000004 .L0 
C:\Users\SOLDER~1\AppData\Local\Temp\ccEQi33f.s:402    .text.PWR_EnterSTANDBYMode:0000000000000006 .L0 
C:\Users\SOLDER~1\AppData\Local\Temp\ccEQi33f.s:404    .text.PWR_EnterSTANDBYMode:0000000000000006 .L0 
C:\Users\SOLDER~1\AppData\Local\Temp\ccEQi33f.s:408    .text.PWR_EnterSTANDBYMode:0000000000000010 .L0 
C:\Users\SOLDER~1\AppData\Local\Temp\ccEQi33f.s:411    .text.PWR_EnterSTANDBYMode:0000000000000016 .L0 
C:\Users\SOLDER~1\AppData\Local\Temp\ccEQi33f.s:415    .text.PWR_EnterSTANDBYMode:0000000000000020 .L0 
C:\Users\SOLDER~1\AppData\Local\Temp\ccEQi33f.s:418    .text.PWR_EnterSTANDBYMode:0000000000000026 .L0 
C:\Users\SOLDER~1\AppData\Local\Temp\ccEQi33f.s:424    .text.PWR_EnterSTANDBYMode:0000000000000036 .L0 
C:\Users\SOLDER~1\AppData\Local\Temp\ccEQi33f.s:431    .text.PWR_EnterSTANDBYMode:0000000000000042 .L0 
C:\Users\SOLDER~1\AppData\Local\Temp\ccEQi33f.s:437    .text.PWR_EnterSTANDBYMode:0000000000000052 .L0 
Drivers/inc/core_riscv.h:292    .text.PWR_EnterSTANDBYMode:000000000000005e .L0 
C:\Users\SOLDER~1\AppData\Local\Temp\ccEQi33f.s:448    .text.PWR_EnterSTANDBYMode:0000000000000062 .L0 
C:\Users\SOLDER~1\AppData\Local\Temp\ccEQi33f.s:452    .text.PWR_EnterSTANDBYMode:0000000000000064 .L0 
C:\Users\SOLDER~1\AppData\Local\Temp\ccEQi33f.s:454    .text.PWR_EnterSTANDBYMode:0000000000000068 .L0 
C:\Users\SOLDER~1\AppData\Local\Temp\ccEQi33f.s:455    .text.PWR_EnterSTANDBYMode:0000000000000068 .L0 
C:\Users\SOLDER~1\AppData\Local\Temp\ccEQi33f.s:457    .text.PWR_EnterSTANDBYMode:000000000000006a .L0 
C:\Users\SOLDER~1\AppData\Local\Temp\ccEQi33f.s:459    .text.PWR_EnterSTANDBYMode:000000000000006c .L0 
C:\Users\SOLDER~1\AppData\Local\Temp\ccEQi33f.s:466    .text.PWR_GetFlagStatus:0000000000000000 PWR_GetFlagStatus
C:\Users\SOLDER~1\AppData\Local\Temp\ccEQi33f.s:469    .text.PWR_GetFlagStatus:0000000000000000 .L0 
C:\Users\SOLDER~1\AppData\Local\Temp\ccEQi33f.s:470    .text.PWR_GetFlagStatus:0000000000000000 $x
C:\Users\SOLDER~1\AppData\Local\Temp\ccEQi33f.s:470    .text.PWR_GetFlagStatus:0000000000000000 .L0 
C:\Users\SOLDER~1\AppData\Local\Temp\ccEQi33f.s:471    .text.PWR_GetFlagStatus:0000000000000002 .L0 
C:\Users\SOLDER~1\AppData\Local\Temp\ccEQi33f.s:473    .text.PWR_GetFlagStatus:0000000000000004 .L0 
C:\Users\SOLDER~1\AppData\Local\Temp\ccEQi33f.s:475    .text.PWR_GetFlagStatus:0000000000000006 .L0 
C:\Users\SOLDER~1\AppData\Local\Temp\ccEQi33f.s:478    .text.PWR_GetFlagStatus:000000000000000a .L0 
C:\Users\SOLDER~1\AppData\Local\Temp\ccEQi33f.s:480    .text.PWR_GetFlagStatus:000000000000000e .L0 
C:\Users\SOLDER~1\AppData\Local\Temp\ccEQi33f.s:483    .text.PWR_GetFlagStatus:0000000000000014 .L0 
C:\Users\SOLDER~1\AppData\Local\Temp\ccEQi33f.s:486    .text.PWR_GetFlagStatus:000000000000001a .L0 
C:\Users\SOLDER~1\AppData\Local\Temp\ccEQi33f.s:488    .text.PWR_GetFlagStatus:000000000000001c .L0 
C:\Users\SOLDER~1\AppData\Local\Temp\ccEQi33f.s:493    .text.PWR_GetFlagStatus:0000000000000024 .L0 
C:\Users\SOLDER~1\AppData\Local\Temp\ccEQi33f.s:496    .text.PWR_GetFlagStatus:0000000000000028 .L0 
C:\Users\SOLDER~1\AppData\Local\Temp\ccEQi33f.s:498    .text.PWR_GetFlagStatus:000000000000002c .L0 
C:\Users\SOLDER~1\AppData\Local\Temp\ccEQi33f.s:500    .text.PWR_GetFlagStatus:0000000000000030 .L0 
C:\Users\SOLDER~1\AppData\Local\Temp\ccEQi33f.s:501    .text.PWR_GetFlagStatus:0000000000000030 .L0 
GAS LISTING C:\Users\SOLDER~1\AppData\Local\Temp\ccEQi33f.s 			page 36


C:\Users\SOLDER~1\AppData\Local\Temp\ccEQi33f.s:503    .text.PWR_GetFlagStatus:0000000000000032 .L0 
C:\Users\SOLDER~1\AppData\Local\Temp\ccEQi33f.s:505    .text.PWR_GetFlagStatus:0000000000000034 .L0 
C:\Users\SOLDER~1\AppData\Local\Temp\ccEQi33f.s:512    .text.PWR_ClearFlag:0000000000000000 PWR_ClearFlag
C:\Users\SOLDER~1\AppData\Local\Temp\ccEQi33f.s:515    .text.PWR_ClearFlag:0000000000000000 .L0 
C:\Users\SOLDER~1\AppData\Local\Temp\ccEQi33f.s:516    .text.PWR_ClearFlag:0000000000000000 $x
C:\Users\SOLDER~1\AppData\Local\Temp\ccEQi33f.s:516    .text.PWR_ClearFlag:0000000000000000 .L0 
C:\Users\SOLDER~1\AppData\Local\Temp\ccEQi33f.s:517    .text.PWR_ClearFlag:0000000000000002 .L0 
C:\Users\SOLDER~1\AppData\Local\Temp\ccEQi33f.s:519    .text.PWR_ClearFlag:0000000000000004 .L0 
C:\Users\SOLDER~1\AppData\Local\Temp\ccEQi33f.s:521    .text.PWR_ClearFlag:0000000000000006 .L0 
C:\Users\SOLDER~1\AppData\Local\Temp\ccEQi33f.s:524    .text.PWR_ClearFlag:000000000000000a .L0 
C:\Users\SOLDER~1\AppData\Local\Temp\ccEQi33f.s:527    .text.PWR_ClearFlag:0000000000000010 .L0 
C:\Users\SOLDER~1\AppData\Local\Temp\ccEQi33f.s:530    .text.PWR_ClearFlag:0000000000000018 .L0 
C:\Users\SOLDER~1\AppData\Local\Temp\ccEQi33f.s:532    .text.PWR_ClearFlag:000000000000001c .L0 
C:\Users\SOLDER~1\AppData\Local\Temp\ccEQi33f.s:535    .text.PWR_ClearFlag:0000000000000020 .L0 
C:\Users\SOLDER~1\AppData\Local\Temp\ccEQi33f.s:537    .text.PWR_ClearFlag:0000000000000024 .L0 
C:\Users\SOLDER~1\AppData\Local\Temp\ccEQi33f.s:538    .text.PWR_ClearFlag:0000000000000024 .L0 
C:\Users\SOLDER~1\AppData\Local\Temp\ccEQi33f.s:540    .text.PWR_ClearFlag:0000000000000026 .L0 
C:\Users\SOLDER~1\AppData\Local\Temp\ccEQi33f.s:542    .text.PWR_ClearFlag:0000000000000028 .L0 
C:\Users\SOLDER~1\AppData\Local\Temp\ccEQi33f.s:549    .text.PWR_EnterSTANDBYMode_RAM:0000000000000000 PWR_EnterSTANDBYMode_RAM
C:\Users\SOLDER~1\AppData\Local\Temp\ccEQi33f.s:552    .text.PWR_EnterSTANDBYMode_RAM:0000000000000000 .L0 
C:\Users\SOLDER~1\AppData\Local\Temp\ccEQi33f.s:553    .text.PWR_EnterSTANDBYMode_RAM:0000000000000000 $x
C:\Users\SOLDER~1\AppData\Local\Temp\ccEQi33f.s:553    .text.PWR_EnterSTANDBYMode_RAM:0000000000000000 .L0 
C:\Users\SOLDER~1\AppData\Local\Temp\ccEQi33f.s:554    .text.PWR_EnterSTANDBYMode_RAM:0000000000000002 .L0 
C:\Users\SOLDER~1\AppData\Local\Temp\ccEQi33f.s:556    .text.PWR_EnterSTANDBYMode_RAM:0000000000000004 .L0 
C:\Users\SOLDER~1\AppData\Local\Temp\ccEQi33f.s:558    .text.PWR_EnterSTANDBYMode_RAM:0000000000000006 .L0 
C:\Users\SOLDER~1\AppData\Local\Temp\ccEQi33f.s:560    .text.PWR_EnterSTANDBYMode_RAM:0000000000000006 .L0 
C:\Users\SOLDER~1\AppData\Local\Temp\ccEQi33f.s:562    .text.PWR_EnterSTANDBYMode_RAM:000000000000000a .L0 
C:\Users\SOLDER~1\AppData\Local\Temp\ccEQi33f.s:564    .text.PWR_EnterSTANDBYMode_RAM:000000000000000e .L0 
C:\Users\SOLDER~1\AppData\Local\Temp\ccEQi33f.s:567    .text.PWR_EnterSTANDBYMode_RAM:0000000000000014 .L0 
C:\Users\SOLDER~1\AppData\Local\Temp\ccEQi33f.s:571    .text.PWR_EnterSTANDBYMode_RAM:0000000000000020 .L0 
C:\Users\SOLDER~1\AppData\Local\Temp\ccEQi33f.s:575    .text.PWR_EnterSTANDBYMode_RAM:000000000000002c .L0 
C:\Users\SOLDER~1\AppData\Local\Temp\ccEQi33f.s:580    .text.PWR_EnterSTANDBYMode_RAM:0000000000000038 .L0 
C:\Users\SOLDER~1\AppData\Local\Temp\ccEQi33f.s:582    .text.PWR_EnterSTANDBYMode_RAM:000000000000003c .L0 
C:\Users\SOLDER~1\AppData\Local\Temp\ccEQi33f.s:585    .text.PWR_EnterSTANDBYMode_RAM:0000000000000042 .L0 
C:\Users\SOLDER~1\AppData\Local\Temp\ccEQi33f.s:591    .text.PWR_EnterSTANDBYMode_RAM:0000000000000052 .L0 
C:\Users\SOLDER~1\AppData\Local\Temp\ccEQi33f.s:598    .text.PWR_EnterSTANDBYMode_RAM:000000000000005e .L0 
C:\Users\SOLDER~1\AppData\Local\Temp\ccEQi33f.s:604    .text.PWR_EnterSTANDBYMode_RAM:000000000000006e .L0 
Drivers/inc/core_riscv.h:292    .text.PWR_EnterSTANDBYMode_RAM:000000000000007a .L0 
C:\Users\SOLDER~1\AppData\Local\Temp\ccEQi33f.s:615    .text.PWR_EnterSTANDBYMode_RAM:000000000000007e .L0 
C:\Users\SOLDER~1\AppData\Local\Temp\ccEQi33f.s:619    .text.PWR_EnterSTANDBYMode_RAM:0000000000000080 .L0 
C:\Users\SOLDER~1\AppData\Local\Temp\ccEQi33f.s:621    .text.PWR_EnterSTANDBYMode_RAM:0000000000000084 .L0 
C:\Users\SOLDER~1\AppData\Local\Temp\ccEQi33f.s:622    .text.PWR_EnterSTANDBYMode_RAM:0000000000000084 .L0 
C:\Users\SOLDER~1\AppData\Local\Temp\ccEQi33f.s:624    .text.PWR_EnterSTANDBYMode_RAM:0000000000000086 .L0 
C:\Users\SOLDER~1\AppData\Local\Temp\ccEQi33f.s:626    .text.PWR_EnterSTANDBYMode_RAM:0000000000000088 .L0 
C:\Users\SOLDER~1\AppData\Local\Temp\ccEQi33f.s:633    .text.PWR_EnterSTANDBYMode_RAM_LV:0000000000000000 PWR_EnterSTANDBYMode_RAM_LV
C:\Users\SOLDER~1\AppData\Local\Temp\ccEQi33f.s:636    .text.PWR_EnterSTANDBYMode_RAM_LV:0000000000000000 .L0 
C:\Users\SOLDER~1\AppData\Local\Temp\ccEQi33f.s:637    .text.PWR_EnterSTANDBYMode_RAM_LV:0000000000000000 $x
C:\Users\SOLDER~1\AppData\Local\Temp\ccEQi33f.s:637    .text.PWR_EnterSTANDBYMode_RAM_LV:0000000000000000 .L0 
C:\Users\SOLDER~1\AppData\Local\Temp\ccEQi33f.s:638    .text.PWR_EnterSTANDBYMode_RAM_LV:0000000000000002 .L0 
C:\Users\SOLDER~1\AppData\Local\Temp\ccEQi33f.s:640    .text.PWR_EnterSTANDBYMode_RAM_LV:0000000000000004 .L0 
C:\Users\SOLDER~1\AppData\Local\Temp\ccEQi33f.s:642    .text.PWR_EnterSTANDBYMode_RAM_LV:0000000000000006 .L0 
C:\Users\SOLDER~1\AppData\Local\Temp\ccEQi33f.s:644    .text.PWR_EnterSTANDBYMode_RAM_LV:0000000000000006 .L0 
C:\Users\SOLDER~1\AppData\Local\Temp\ccEQi33f.s:646    .text.PWR_EnterSTANDBYMode_RAM_LV:000000000000000a .L0 
C:\Users\SOLDER~1\AppData\Local\Temp\ccEQi33f.s:648    .text.PWR_EnterSTANDBYMode_RAM_LV:000000000000000e .L0 
C:\Users\SOLDER~1\AppData\Local\Temp\ccEQi33f.s:651    .text.PWR_EnterSTANDBYMode_RAM_LV:0000000000000014 .L0 
C:\Users\SOLDER~1\AppData\Local\Temp\ccEQi33f.s:655    .text.PWR_EnterSTANDBYMode_RAM_LV:0000000000000020 .L0 
C:\Users\SOLDER~1\AppData\Local\Temp\ccEQi33f.s:659    .text.PWR_EnterSTANDBYMode_RAM_LV:000000000000002c .L0 
GAS LISTING C:\Users\SOLDER~1\AppData\Local\Temp\ccEQi33f.s 			page 37


C:\Users\SOLDER~1\AppData\Local\Temp\ccEQi33f.s:664    .text.PWR_EnterSTANDBYMode_RAM_LV:0000000000000038 .L0 
C:\Users\SOLDER~1\AppData\Local\Temp\ccEQi33f.s:669    .text.PWR_EnterSTANDBYMode_RAM_LV:0000000000000046 .L0 
C:\Users\SOLDER~1\AppData\Local\Temp\ccEQi33f.s:671    .text.PWR_EnterSTANDBYMode_RAM_LV:000000000000004a .L0 
C:\Users\SOLDER~1\AppData\Local\Temp\ccEQi33f.s:674    .text.PWR_EnterSTANDBYMode_RAM_LV:0000000000000050 .L0 
C:\Users\SOLDER~1\AppData\Local\Temp\ccEQi33f.s:680    .text.PWR_EnterSTANDBYMode_RAM_LV:0000000000000060 .L0 
C:\Users\SOLDER~1\AppData\Local\Temp\ccEQi33f.s:687    .text.PWR_EnterSTANDBYMode_RAM_LV:000000000000006c .L0 
C:\Users\SOLDER~1\AppData\Local\Temp\ccEQi33f.s:693    .text.PWR_EnterSTANDBYMode_RAM_LV:000000000000007c .L0 
Drivers/inc/core_riscv.h:292    .text.PWR_EnterSTANDBYMode_RAM_LV:0000000000000088 .L0 
C:\Users\SOLDER~1\AppData\Local\Temp\ccEQi33f.s:704    .text.PWR_EnterSTANDBYMode_RAM_LV:000000000000008c .L0 
C:\Users\SOLDER~1\AppData\Local\Temp\ccEQi33f.s:708    .text.PWR_EnterSTANDBYMode_RAM_LV:000000000000008e .L0 
C:\Users\SOLDER~1\AppData\Local\Temp\ccEQi33f.s:710    .text.PWR_EnterSTANDBYMode_RAM_LV:0000000000000092 .L0 
C:\Users\SOLDER~1\AppData\Local\Temp\ccEQi33f.s:711    .text.PWR_EnterSTANDBYMode_RAM_LV:0000000000000092 .L0 
C:\Users\SOLDER~1\AppData\Local\Temp\ccEQi33f.s:713    .text.PWR_EnterSTANDBYMode_RAM_LV:0000000000000094 .L0 
C:\Users\SOLDER~1\AppData\Local\Temp\ccEQi33f.s:715    .text.PWR_EnterSTANDBYMode_RAM_LV:0000000000000096 .L0 
C:\Users\SOLDER~1\AppData\Local\Temp\ccEQi33f.s:722    .text.PWR_EnterSTANDBYMode_RAM_VBAT_EN:0000000000000000 PWR_EnterSTANDBYMode_RAM_VBAT_EN
C:\Users\SOLDER~1\AppData\Local\Temp\ccEQi33f.s:725    .text.PWR_EnterSTANDBYMode_RAM_VBAT_EN:0000000000000000 .L0 
C:\Users\SOLDER~1\AppData\Local\Temp\ccEQi33f.s:726    .text.PWR_EnterSTANDBYMode_RAM_VBAT_EN:0000000000000000 $x
C:\Users\SOLDER~1\AppData\Local\Temp\ccEQi33f.s:726    .text.PWR_EnterSTANDBYMode_RAM_VBAT_EN:0000000000000000 .L0 
C:\Users\SOLDER~1\AppData\Local\Temp\ccEQi33f.s:727    .text.PWR_EnterSTANDBYMode_RAM_VBAT_EN:0000000000000002 .L0 
C:\Users\SOLDER~1\AppData\Local\Temp\ccEQi33f.s:729    .text.PWR_EnterSTANDBYMode_RAM_VBAT_EN:0000000000000004 .L0 
C:\Users\SOLDER~1\AppData\Local\Temp\ccEQi33f.s:731    .text.PWR_EnterSTANDBYMode_RAM_VBAT_EN:0000000000000006 .L0 
C:\Users\SOLDER~1\AppData\Local\Temp\ccEQi33f.s:733    .text.PWR_EnterSTANDBYMode_RAM_VBAT_EN:0000000000000006 .L0 
C:\Users\SOLDER~1\AppData\Local\Temp\ccEQi33f.s:735    .text.PWR_EnterSTANDBYMode_RAM_VBAT_EN:000000000000000a .L0 
C:\Users\SOLDER~1\AppData\Local\Temp\ccEQi33f.s:737    .text.PWR_EnterSTANDBYMode_RAM_VBAT_EN:000000000000000e .L0 
C:\Users\SOLDER~1\AppData\Local\Temp\ccEQi33f.s:740    .text.PWR_EnterSTANDBYMode_RAM_VBAT_EN:0000000000000014 .L0 
C:\Users\SOLDER~1\AppData\Local\Temp\ccEQi33f.s:744    .text.PWR_EnterSTANDBYMode_RAM_VBAT_EN:0000000000000020 .L0 
C:\Users\SOLDER~1\AppData\Local\Temp\ccEQi33f.s:748    .text.PWR_EnterSTANDBYMode_RAM_VBAT_EN:000000000000002c .L0 
C:\Users\SOLDER~1\AppData\Local\Temp\ccEQi33f.s:753    .text.PWR_EnterSTANDBYMode_RAM_VBAT_EN:000000000000003a .L0 
C:\Users\SOLDER~1\AppData\Local\Temp\ccEQi33f.s:755    .text.PWR_EnterSTANDBYMode_RAM_VBAT_EN:000000000000003e .L0 
C:\Users\SOLDER~1\AppData\Local\Temp\ccEQi33f.s:758    .text.PWR_EnterSTANDBYMode_RAM_VBAT_EN:0000000000000044 .L0 
C:\Users\SOLDER~1\AppData\Local\Temp\ccEQi33f.s:764    .text.PWR_EnterSTANDBYMode_RAM_VBAT_EN:0000000000000054 .L0 
C:\Users\SOLDER~1\AppData\Local\Temp\ccEQi33f.s:771    .text.PWR_EnterSTANDBYMode_RAM_VBAT_EN:0000000000000060 .L0 
C:\Users\SOLDER~1\AppData\Local\Temp\ccEQi33f.s:777    .text.PWR_EnterSTANDBYMode_RAM_VBAT_EN:0000000000000070 .L0 
Drivers/inc/core_riscv.h:292    .text.PWR_EnterSTANDBYMode_RAM_VBAT_EN:000000000000007c .L0 
C:\Users\SOLDER~1\AppData\Local\Temp\ccEQi33f.s:788    .text.PWR_EnterSTANDBYMode_RAM_VBAT_EN:0000000000000080 .L0 
C:\Users\SOLDER~1\AppData\Local\Temp\ccEQi33f.s:792    .text.PWR_EnterSTANDBYMode_RAM_VBAT_EN:0000000000000082 .L0 
C:\Users\SOLDER~1\AppData\Local\Temp\ccEQi33f.s:794    .text.PWR_EnterSTANDBYMode_RAM_VBAT_EN:0000000000000086 .L0 
C:\Users\SOLDER~1\AppData\Local\Temp\ccEQi33f.s:795    .text.PWR_EnterSTANDBYMode_RAM_VBAT_EN:0000000000000086 .L0 
C:\Users\SOLDER~1\AppData\Local\Temp\ccEQi33f.s:797    .text.PWR_EnterSTANDBYMode_RAM_VBAT_EN:0000000000000088 .L0 
C:\Users\SOLDER~1\AppData\Local\Temp\ccEQi33f.s:799    .text.PWR_EnterSTANDBYMode_RAM_VBAT_EN:000000000000008a .L0 
C:\Users\SOLDER~1\AppData\Local\Temp\ccEQi33f.s:806    .text.PWR_EnterSTANDBYMode_RAM_LV_VBAT_EN:0000000000000000 PWR_EnterSTANDBYMode_RAM_LV_VBAT_EN
C:\Users\SOLDER~1\AppData\Local\Temp\ccEQi33f.s:809    .text.PWR_EnterSTANDBYMode_RAM_LV_VBAT_EN:0000000000000000 .L0 
C:\Users\SOLDER~1\AppData\Local\Temp\ccEQi33f.s:810    .text.PWR_EnterSTANDBYMode_RAM_LV_VBAT_EN:0000000000000000 $x
C:\Users\SOLDER~1\AppData\Local\Temp\ccEQi33f.s:810    .text.PWR_EnterSTANDBYMode_RAM_LV_VBAT_EN:0000000000000000 .L0 
C:\Users\SOLDER~1\AppData\Local\Temp\ccEQi33f.s:811    .text.PWR_EnterSTANDBYMode_RAM_LV_VBAT_EN:0000000000000002 .L0 
C:\Users\SOLDER~1\AppData\Local\Temp\ccEQi33f.s:813    .text.PWR_EnterSTANDBYMode_RAM_LV_VBAT_EN:0000000000000004 .L0 
C:\Users\SOLDER~1\AppData\Local\Temp\ccEQi33f.s:815    .text.PWR_EnterSTANDBYMode_RAM_LV_VBAT_EN:0000000000000006 .L0 
C:\Users\SOLDER~1\AppData\Local\Temp\ccEQi33f.s:817    .text.PWR_EnterSTANDBYMode_RAM_LV_VBAT_EN:0000000000000006 .L0 
C:\Users\SOLDER~1\AppData\Local\Temp\ccEQi33f.s:819    .text.PWR_EnterSTANDBYMode_RAM_LV_VBAT_EN:000000000000000a .L0 
C:\Users\SOLDER~1\AppData\Local\Temp\ccEQi33f.s:821    .text.PWR_EnterSTANDBYMode_RAM_LV_VBAT_EN:000000000000000e .L0 
C:\Users\SOLDER~1\AppData\Local\Temp\ccEQi33f.s:824    .text.PWR_EnterSTANDBYMode_RAM_LV_VBAT_EN:0000000000000014 .L0 
C:\Users\SOLDER~1\AppData\Local\Temp\ccEQi33f.s:828    .text.PWR_EnterSTANDBYMode_RAM_LV_VBAT_EN:0000000000000020 .L0 
C:\Users\SOLDER~1\AppData\Local\Temp\ccEQi33f.s:832    .text.PWR_EnterSTANDBYMode_RAM_LV_VBAT_EN:000000000000002c .L0 
C:\Users\SOLDER~1\AppData\Local\Temp\ccEQi33f.s:837    .text.PWR_EnterSTANDBYMode_RAM_LV_VBAT_EN:000000000000003a .L0 
C:\Users\SOLDER~1\AppData\Local\Temp\ccEQi33f.s:842    .text.PWR_EnterSTANDBYMode_RAM_LV_VBAT_EN:0000000000000048 .L0 
C:\Users\SOLDER~1\AppData\Local\Temp\ccEQi33f.s:844    .text.PWR_EnterSTANDBYMode_RAM_LV_VBAT_EN:000000000000004c .L0 
C:\Users\SOLDER~1\AppData\Local\Temp\ccEQi33f.s:847    .text.PWR_EnterSTANDBYMode_RAM_LV_VBAT_EN:0000000000000052 .L0 
GAS LISTING C:\Users\SOLDER~1\AppData\Local\Temp\ccEQi33f.s 			page 38


C:\Users\SOLDER~1\AppData\Local\Temp\ccEQi33f.s:853    .text.PWR_EnterSTANDBYMode_RAM_LV_VBAT_EN:0000000000000062 .L0 
C:\Users\SOLDER~1\AppData\Local\Temp\ccEQi33f.s:860    .text.PWR_EnterSTANDBYMode_RAM_LV_VBAT_EN:000000000000006e .L0 
C:\Users\SOLDER~1\AppData\Local\Temp\ccEQi33f.s:866    .text.PWR_EnterSTANDBYMode_RAM_LV_VBAT_EN:000000000000007e .L0 
Drivers/inc/core_riscv.h:292    .text.PWR_EnterSTANDBYMode_RAM_LV_VBAT_EN:000000000000008a .L0 
C:\Users\SOLDER~1\AppData\Local\Temp\ccEQi33f.s:877    .text.PWR_EnterSTANDBYMode_RAM_LV_VBAT_EN:000000000000008e .L0 
C:\Users\SOLDER~1\AppData\Local\Temp\ccEQi33f.s:881    .text.PWR_EnterSTANDBYMode_RAM_LV_VBAT_EN:0000000000000090 .L0 
C:\Users\SOLDER~1\AppData\Local\Temp\ccEQi33f.s:883    .text.PWR_EnterSTANDBYMode_RAM_LV_VBAT_EN:0000000000000094 .L0 
C:\Users\SOLDER~1\AppData\Local\Temp\ccEQi33f.s:884    .text.PWR_EnterSTANDBYMode_RAM_LV_VBAT_EN:0000000000000094 .L0 
C:\Users\SOLDER~1\AppData\Local\Temp\ccEQi33f.s:886    .text.PWR_EnterSTANDBYMode_RAM_LV_VBAT_EN:0000000000000096 .L0 
C:\Users\SOLDER~1\AppData\Local\Temp\ccEQi33f.s:888    .text.PWR_EnterSTANDBYMode_RAM_LV_VBAT_EN:0000000000000098 .L0 
C:\Users\SOLDER~1\AppData\Local\Temp\ccEQi33f.s:895    .text.PWR_EnterSTOPMode_RAM_LV:0000000000000000 PWR_EnterSTOPMode_RAM_LV
C:\Users\SOLDER~1\AppData\Local\Temp\ccEQi33f.s:898    .text.PWR_EnterSTOPMode_RAM_LV:0000000000000000 .L0 
C:\Users\SOLDER~1\AppData\Local\Temp\ccEQi33f.s:899    .text.PWR_EnterSTOPMode_RAM_LV:0000000000000000 $x
C:\Users\SOLDER~1\AppData\Local\Temp\ccEQi33f.s:899    .text.PWR_EnterSTOPMode_RAM_LV:0000000000000000 .L0 
C:\Users\SOLDER~1\AppData\Local\Temp\ccEQi33f.s:900    .text.PWR_EnterSTOPMode_RAM_LV:0000000000000002 .L0 
C:\Users\SOLDER~1\AppData\Local\Temp\ccEQi33f.s:902    .text.PWR_EnterSTOPMode_RAM_LV:0000000000000004 .L0 
C:\Users\SOLDER~1\AppData\Local\Temp\ccEQi33f.s:904    .text.PWR_EnterSTOPMode_RAM_LV:0000000000000006 .L0 
C:\Users\SOLDER~1\AppData\Local\Temp\ccEQi33f.s:909    .text.PWR_EnterSTOPMode_RAM_LV:0000000000000010 .L0 
C:\Users\SOLDER~1\AppData\Local\Temp\ccEQi33f.s:911    .text.PWR_EnterSTOPMode_RAM_LV:0000000000000014 .L0 
C:\Users\SOLDER~1\AppData\Local\Temp\ccEQi33f.s:913    .text.PWR_EnterSTOPMode_RAM_LV:0000000000000018 .L0 
C:\Users\SOLDER~1\AppData\Local\Temp\ccEQi33f.s:916    .text.PWR_EnterSTOPMode_RAM_LV:000000000000001e .L0 
C:\Users\SOLDER~1\AppData\Local\Temp\ccEQi33f.s:920    .text.PWR_EnterSTOPMode_RAM_LV:0000000000000028 .L0 
C:\Users\SOLDER~1\AppData\Local\Temp\ccEQi33f.s:925    .text.PWR_EnterSTOPMode_RAM_LV:0000000000000036 .L0 
C:\Users\SOLDER~1\AppData\Local\Temp\ccEQi33f.s:930    .text.PWR_EnterSTOPMode_RAM_LV:0000000000000042 .L0 
C:\Users\SOLDER~1\AppData\Local\Temp\ccEQi33f.s:935    .text.PWR_EnterSTOPMode_RAM_LV:0000000000000050 .L0 
C:\Users\SOLDER~1\AppData\Local\Temp\ccEQi33f.s:937    .text.PWR_EnterSTOPMode_RAM_LV:0000000000000054 .L0 
C:\Users\SOLDER~1\AppData\Local\Temp\ccEQi33f.s:940    .text.PWR_EnterSTOPMode_RAM_LV:000000000000005a .L0 
C:\Users\SOLDER~1\AppData\Local\Temp\ccEQi33f.s:946    .text.PWR_EnterSTOPMode_RAM_LV:000000000000006a .L0 
C:\Users\SOLDER~1\AppData\Local\Temp\ccEQi33f.s:951    .text.PWR_EnterSTOPMode_RAM_LV:0000000000000076 .L0 
C:\Users\SOLDER~1\AppData\Local\Temp\ccEQi33f.s:957    .text.PWR_EnterSTOPMode_RAM_LV:0000000000000080 .L0 
C:\Users\SOLDER~1\AppData\Local\Temp\ccEQi33f.s:963    .text.PWR_EnterSTOPMode_RAM_LV:0000000000000090 .L0 
Drivers/inc/core_riscv.h:292    .text.PWR_EnterSTOPMode_RAM_LV:000000000000009c .L0 
C:\Users\SOLDER~1\AppData\Local\Temp\ccEQi33f.s:974    .text.PWR_EnterSTOPMode_RAM_LV:00000000000000a0 .L0 
C:\Users\SOLDER~1\AppData\Local\Temp\ccEQi33f.s:981    .text.PWR_EnterSTOPMode_RAM_LV:00000000000000a2 .L0 
C:\Users\SOLDER~1\AppData\Local\Temp\ccEQi33f.s:983    .text.PWR_EnterSTOPMode_RAM_LV:00000000000000a6 .L0 
C:\Users\SOLDER~1\AppData\Local\Temp\ccEQi33f.s:988    .text.PWR_EnterSTOPMode_RAM_LV:00000000000000b2 .L0 
C:\Users\SOLDER~1\AppData\Local\Temp\ccEQi33f.s:994    .text.PWR_EnterSTOPMode_RAM_LV:00000000000000c2 .L0 
C:\Users\SOLDER~1\AppData\Local\Temp\ccEQi33f.s:999    .text.PWR_EnterSTOPMode_RAM_LV:00000000000000ce .L0 
C:\Users\SOLDER~1\AppData\Local\Temp\ccEQi33f.s:1004   .text.PWR_EnterSTOPMode_RAM_LV:00000000000000da .L0 
C:\Users\SOLDER~1\AppData\Local\Temp\ccEQi33f.s:1006   .text.PWR_EnterSTOPMode_RAM_LV:00000000000000de .L0 
C:\Users\SOLDER~1\AppData\Local\Temp\ccEQi33f.s:1009   .text.PWR_EnterSTOPMode_RAM_LV:00000000000000e6 .L0 
C:\Users\SOLDER~1\AppData\Local\Temp\ccEQi33f.s:1011   .text.PWR_EnterSTOPMode_RAM_LV:00000000000000ea .L0 
C:\Users\SOLDER~1\AppData\Local\Temp\ccEQi33f.s:1013   .text.PWR_EnterSTOPMode_RAM_LV:00000000000000ec .L0 
Drivers/inc/core_riscv.h:308    .text.PWR_EnterSTOPMode_RAM_LV:00000000000000f4 .L0 
Drivers/inc/core_riscv.h:309    .text.PWR_EnterSTOPMode_RAM_LV:00000000000000f8 .L0 
C:\Users\SOLDER~1\AppData\Local\Temp\ccEQi33f.s:1027   .text.PWR_EnterSTOPMode_RAM_LV:00000000000000fc .L0 
C:\Users\SOLDER~1\AppData\Local\Temp\ccEQi33f.s:1032   .text.PWR_EnterSTOPMode_RAM_LV:00000000000000fe .L0 
C:\Users\SOLDER~1\AppData\Local\Temp\ccEQi33f.s:1038   .text.PWR_EnterSTOPMode_RAM_LV:000000000000010e .L0 
C:\Users\SOLDER~1\AppData\Local\Temp\ccEQi33f.s:1043   .text.PWR_EnterSTOPMode_RAM_LV:000000000000011a .L0 
C:\Users\SOLDER~1\AppData\Local\Temp\ccEQi33f.s:1045   .text.PWR_EnterSTOPMode_RAM_LV:000000000000011e .L0 
C:\Users\SOLDER~1\AppData\Local\Temp\ccEQi33f.s:1046   .text.PWR_EnterSTOPMode_RAM_LV:000000000000011e .L0 
C:\Users\SOLDER~1\AppData\Local\Temp\ccEQi33f.s:1048   .text.PWR_EnterSTOPMode_RAM_LV:0000000000000120 .L0 
C:\Users\SOLDER~1\AppData\Local\Temp\ccEQi33f.s:1050   .text.PWR_EnterSTOPMode_RAM_LV:0000000000000122 .L0 
C:\Users\SOLDER~1\AppData\Local\Temp\ccEQi33f.s:31621  .debug_line_str:0000000000000065 .L0 
C:\Users\SOLDER~1\AppData\Local\Temp\ccEQi33f.s:31621  .debug_line_str:00000000000000af .L0 
C:\Users\SOLDER~1\AppData\Local\Temp\ccEQi33f.s:31621  .debug_line_str:00000000000000bb .L0 
C:\Users\SOLDER~1\AppData\Local\Temp\ccEQi33f.s:31621  .debug_line_str:00000000000000c7 .L0 
GAS LISTING C:\Users\SOLDER~1\AppData\Local\Temp\ccEQi33f.s 			page 39


C:\Users\SOLDER~1\AppData\Local\Temp\ccEQi33f.s:31621  .debug_line_str:0000000000000114 .L0 
C:\Users\SOLDER~1\AppData\Local\Temp\ccEQi33f.s:31621  .debug_line_str:000000000000015d .L0 
C:\Users\SOLDER~1\AppData\Local\Temp\ccEQi33f.s:31621  .debug_line_str:00000000000001b1 .L0 
C:\Users\SOLDER~1\AppData\Local\Temp\ccEQi33f.s:31621  .debug_line_str:00000000000001f6 .L0 
C:\Users\SOLDER~1\AppData\Local\Temp\ccEQi33f.s:31621  .debug_line_str:0000000000000205 .L0 
C:\Users\SOLDER~1\AppData\Local\Temp\ccEQi33f.s:31621  .debug_line_str:0000000000000214 .L0 
C:\Users\SOLDER~1\AppData\Local\Temp\ccEQi33f.s:31621  .debug_line_str:0000000000000221 .L0 
C:\Users\SOLDER~1\AppData\Local\Temp\ccEQi33f.s:31621  .debug_line_str:0000000000000232 .L0 
C:\Users\SOLDER~1\AppData\Local\Temp\ccEQi33f.s:31621  .debug_line_str:000000000000023c .L0 
C:\Users\SOLDER~1\AppData\Local\Temp\ccEQi33f.s:31621  .debug_line_str:0000000000000247 .L0 
C:\Users\SOLDER~1\AppData\Local\Temp\ccEQi33f.s:31621  .debug_line_str:0000000000000256 .L0 
C:\Users\SOLDER~1\AppData\Local\Temp\ccEQi33f.s:31621  .debug_line_str:0000000000000265 .L0 
C:\Users\SOLDER~1\AppData\Local\Temp\ccEQi33f.s:31621  .debug_line_str:000000000000026e .L0 
C:\Users\SOLDER~1\AppData\Local\Temp\ccEQi33f.s:31621  .debug_line_str:0000000000000277 .L0 
C:\Users\SOLDER~1\AppData\Local\Temp\ccEQi33f.s:31621  .debug_line_str:0000000000000282 .L0 
C:\Users\SOLDER~1\AppData\Local\Temp\ccEQi33f.s:31621  .debug_line_str:0000000000000294 .L0 
C:\Users\SOLDER~1\AppData\Local\Temp\ccEQi33f.s:31621  .debug_line_str:000000000000029e .L0 
C:\Users\SOLDER~1\AppData\Local\Temp\ccEQi33f.s:31621  .debug_line_str:00000000000002ae .L0 
C:\Users\SOLDER~1\AppData\Local\Temp\ccEQi33f.s:31621  .debug_line_str:00000000000002bd .L0 
C:\Users\SOLDER~1\AppData\Local\Temp\ccEQi33f.s:31621  .debug_line_str:00000000000002cc .L0 
C:\Users\SOLDER~1\AppData\Local\Temp\ccEQi33f.s:31621  .debug_line_str:00000000000002db .L0 
C:\Users\SOLDER~1\AppData\Local\Temp\ccEQi33f.s:31621  .debug_line_str:00000000000002ea .L0 
C:\Users\SOLDER~1\AppData\Local\Temp\ccEQi33f.s:31621  .debug_line_str:00000000000002fc .L0 
C:\Users\SOLDER~1\AppData\Local\Temp\ccEQi33f.s:31621  .debug_line_str:000000000000030b .L0 
C:\Users\SOLDER~1\AppData\Local\Temp\ccEQi33f.s:31621  .debug_line_str:000000000000031b .L0 
C:\Users\SOLDER~1\AppData\Local\Temp\ccEQi33f.s:31621  .debug_line_str:000000000000032c .L0 
C:\Users\SOLDER~1\AppData\Local\Temp\ccEQi33f.s:31621  .debug_line_str:000000000000033c .L0 
C:\Users\SOLDER~1\AppData\Local\Temp\ccEQi33f.s:31621  .debug_line_str:000000000000034b .L0 
C:\Users\SOLDER~1\AppData\Local\Temp\ccEQi33f.s:31621  .debug_line_str:000000000000035b .L0 
C:\Users\SOLDER~1\AppData\Local\Temp\ccEQi33f.s:31621  .debug_line_str:000000000000036a .L0 
C:\Users\SOLDER~1\AppData\Local\Temp\ccEQi33f.s:31621  .debug_line_str:0000000000000379 .L0 
C:\Users\SOLDER~1\AppData\Local\Temp\ccEQi33f.s:31621  .debug_line_str:0000000000000388 .L0 
C:\Users\SOLDER~1\AppData\Local\Temp\ccEQi33f.s:31621  .debug_line_str:0000000000000399 .L0 
C:\Users\SOLDER~1\AppData\Local\Temp\ccEQi33f.s:31621  .debug_line_str:00000000000003a9 .L0 
C:\Users\SOLDER~1\AppData\Local\Temp\ccEQi33f.s:48     .text.PWR_DeInit:000000000000002e .L0 
C:\Users\SOLDER~1\AppData\Local\Temp\ccEQi33f.s:95     .text.PWR_BackupAccessCmd:000000000000003a .L0 
C:\Users\SOLDER~1\AppData\Local\Temp\ccEQi33f.s:142    .text.PWR_PVDCmd:0000000000000038 .L0 
C:\Users\SOLDER~1\AppData\Local\Temp\ccEQi33f.s:189    .text.PWR_PVDLevelConfig:0000000000000044 .L0 
C:\Users\SOLDER~1\AppData\Local\Temp\ccEQi33f.s:236    .text.PWR_WakeUpPinCmd:000000000000003a .L0 
C:\Users\SOLDER~1\AppData\Local\Temp\ccEQi33f.s:389    .text.PWR_EnterSTOPMode:0000000000000108 .L0 
C:\Users\SOLDER~1\AppData\Local\Temp\ccEQi33f.s:462    .text.PWR_EnterSTANDBYMode:000000000000006c .L0 
C:\Users\SOLDER~1\AppData\Local\Temp\ccEQi33f.s:508    .text.PWR_GetFlagStatus:0000000000000034 .L0 
C:\Users\SOLDER~1\AppData\Local\Temp\ccEQi33f.s:545    .text.PWR_ClearFlag:0000000000000028 .L0 
C:\Users\SOLDER~1\AppData\Local\Temp\ccEQi33f.s:629    .text.PWR_EnterSTANDBYMode_RAM:0000000000000088 .L0 
C:\Users\SOLDER~1\AppData\Local\Temp\ccEQi33f.s:718    .text.PWR_EnterSTANDBYMode_RAM_LV:0000000000000096 .L0 
C:\Users\SOLDER~1\AppData\Local\Temp\ccEQi33f.s:802    .text.PWR_EnterSTANDBYMode_RAM_VBAT_EN:000000000000008a .L0 
C:\Users\SOLDER~1\AppData\Local\Temp\ccEQi33f.s:891    .text.PWR_EnterSTANDBYMode_RAM_LV_VBAT_EN:0000000000000098 .L0 
C:\Users\SOLDER~1\AppData\Local\Temp\ccEQi33f.s:1053   .text.PWR_EnterSTOPMode_RAM_LV:0000000000000122 .L0 
                     .debug_frame:0000000000000000 .L0 
C:\Users\SOLDER~1\AppData\Local\Temp\ccEQi33f.s:75     .text.PWR_BackupAccessCmd:0000000000000022 .L3
C:\Users\SOLDER~1\AppData\Local\Temp\ccEQi33f.s:83     .text.PWR_BackupAccessCmd:0000000000000032 .L5
C:\Users\SOLDER~1\AppData\Local\Temp\ccEQi33f.s:122    .text.PWR_PVDCmd:0000000000000022 .L7
C:\Users\SOLDER~1\AppData\Local\Temp\ccEQi33f.s:130    .text.PWR_PVDCmd:0000000000000030 .L9
C:\Users\SOLDER~1\AppData\Local\Temp\ccEQi33f.s:216    .text.PWR_WakeUpPinCmd:0000000000000022 .L12
C:\Users\SOLDER~1\AppData\Local\Temp\ccEQi33f.s:224    .text.PWR_WakeUpPinCmd:0000000000000032 .L14
C:\Users\SOLDER~1\AppData\Local\Temp\ccEQi33f.s:311    .text.PWR_EnterSTOPMode:0000000000000088 .L16
C:\Users\SOLDER~1\AppData\Local\Temp\ccEQi33f.s:364    .text.PWR_EnterSTOPMode:00000000000000e4 .L17
GAS LISTING C:\Users\SOLDER~1\AppData\Local\Temp\ccEQi33f.s 			page 40


C:\Users\SOLDER~1\AppData\Local\Temp\ccEQi33f.s:491    .text.PWR_GetFlagStatus:0000000000000024 .L20
C:\Users\SOLDER~1\AppData\Local\Temp\ccEQi33f.s:494    .text.PWR_GetFlagStatus:0000000000000028 .L21
C:\Users\SOLDER~1\AppData\Local\Temp\ccEQi33f.s:975    .text.PWR_EnterSTOPMode_RAM_LV:00000000000000a2 .L29
C:\Users\SOLDER~1\AppData\Local\Temp\ccEQi33f.s:1028   .text.PWR_EnterSTOPMode_RAM_LV:00000000000000fe .L30
C:\Users\SOLDER~1\AppData\Local\Temp\ccEQi33f.s:1819   .debug_abbrev:0000000000000000 .Ldebug_abbrev0
C:\Users\SOLDER~1\AppData\Local\Temp\ccEQi33f.s:20150  .debug_str:0000000000000613 .LASF5777
C:\Users\SOLDER~1\AppData\Local\Temp\ccEQi33f.s:31617  .debug_line_str:0000000000000000 .LASF0
C:\Users\SOLDER~1\AppData\Local\Temp\ccEQi33f.s:31619  .debug_line_str:000000000000001b .LASF1
C:\Users\SOLDER~1\AppData\Local\Temp\ccEQi33f.s:2485   .debug_rnglists:000000000000000c .LLRL0
C:\Users\SOLDER~1\AppData\Local\Temp\ccEQi33f.s:20052  .debug_line:0000000000000000 .Ldebug_line0
C:\Users\SOLDER~1\AppData\Local\Temp\ccEQi33f.s:2531   .debug_macro:0000000000000000 .Ldebug_macro0
C:\Users\SOLDER~1\AppData\Local\Temp\ccEQi33f.s:31554  .debug_str:000000000002ec27 .LASF5714
C:\Users\SOLDER~1\AppData\Local\Temp\ccEQi33f.s:26326  .debug_str:00000000000197d4 .LASF5715
C:\Users\SOLDER~1\AppData\Local\Temp\ccEQi33f.s:22320  .debug_str:0000000000009330 .LASF5718
C:\Users\SOLDER~1\AppData\Local\Temp\ccEQi33f.s:25816  .debug_str:0000000000017720 .LASF5716
C:\Users\SOLDER~1\AppData\Local\Temp\ccEQi33f.s:25116  .debug_str:0000000000014aa6 .LASF5717
C:\Users\SOLDER~1\AppData\Local\Temp\ccEQi33f.s:23668  .debug_str:000000000000eb8f .LASF5719
C:\Users\SOLDER~1\AppData\Local\Temp\ccEQi33f.s:25230  .debug_str:0000000000015210 .LASF5720
C:\Users\SOLDER~1\AppData\Local\Temp\ccEQi33f.s:29576  .debug_str:0000000000026bf1 .LASF5721
C:\Users\SOLDER~1\AppData\Local\Temp\ccEQi33f.s:26524  .debug_str:000000000001a45e .LASF5722
C:\Users\SOLDER~1\AppData\Local\Temp\ccEQi33f.s:20162  .debug_str:000000000000076f .LASF5723
C:\Users\SOLDER~1\AppData\Local\Temp\ccEQi33f.s:20072  .debug_str:0000000000000124 .LASF5724
C:\Users\SOLDER~1\AppData\Local\Temp\ccEQi33f.s:29664  .debug_str:000000000002719f .LASF5725
C:\Users\SOLDER~1\AppData\Local\Temp\ccEQi33f.s:29238  .debug_str:00000000000254d4 .LASF5726
C:\Users\SOLDER~1\AppData\Local\Temp\ccEQi33f.s:29592  .debug_str:0000000000026cde .LASF5727
C:\Users\SOLDER~1\AppData\Local\Temp\ccEQi33f.s:20896  .debug_str:0000000000003734 .LASF5728
C:\Users\SOLDER~1\AppData\Local\Temp\ccEQi33f.s:22134  .debug_str:00000000000086e6 .LASF5729
C:\Users\SOLDER~1\AppData\Local\Temp\ccEQi33f.s:23650  .debug_str:000000000000ea8d .LASF5730
C:\Users\SOLDER~1\AppData\Local\Temp\ccEQi33f.s:25576  .debug_str:00000000000167b4 .LASF5731
C:\Users\SOLDER~1\AppData\Local\Temp\ccEQi33f.s:29330  .debug_str:0000000000025b20 .LASF5732
C:\Users\SOLDER~1\AppData\Local\Temp\ccEQi33f.s:22692  .debug_str:000000000000abbe .LASF5733
C:\Users\SOLDER~1\AppData\Local\Temp\ccEQi33f.s:25672  .debug_str:0000000000016d8b .LASF5734
C:\Users\SOLDER~1\AppData\Local\Temp\ccEQi33f.s:27788  .debug_str:000000000001f721 .LASF5735
C:\Users\SOLDER~1\AppData\Local\Temp\ccEQi33f.s:20430  .debug_str:00000000000018df .LASF5736
C:\Users\SOLDER~1\AppData\Local\Temp\ccEQi33f.s:27546  .debug_str:000000000001e730 .LASF5737
C:\Users\SOLDER~1\AppData\Local\Temp\ccEQi33f.s:30578  .debug_str:000000000002ad0b .LASF5738
C:\Users\SOLDER~1\AppData\Local\Temp\ccEQi33f.s:22872  .debug_str:000000000000b735 .LASF5739
C:\Users\SOLDER~1\AppData\Local\Temp\ccEQi33f.s:21236  .debug_str:0000000000004cda .LASF5740
C:\Users\SOLDER~1\AppData\Local\Temp\ccEQi33f.s:25306  .debug_str:00000000000156fa .LASF5741
C:\Users\SOLDER~1\AppData\Local\Temp\ccEQi33f.s:29896  .debug_str:00000000000280f8 .LASF5742
C:\Users\SOLDER~1\AppData\Local\Temp\ccEQi33f.s:25308  .debug_str:0000000000015704 .LASF5743
C:\Users\SOLDER~1\AppData\Local\Temp\ccEQi33f.s:30506  .debug_str:000000000002a857 .LASF5744
C:\Users\SOLDER~1\AppData\Local\Temp\ccEQi33f.s:22882  .debug_str:000000000000b7b5 .LASF5745
C:\Users\SOLDER~1\AppData\Local\Temp\ccEQi33f.s:30730  .debug_str:000000000002b6e3 .LASF5746
C:\Users\SOLDER~1\AppData\Local\Temp\ccEQi33f.s:22886  .debug_str:000000000000b7ec .LASF5747
C:\Users\SOLDER~1\AppData\Local\Temp\ccEQi33f.s:26222  .debug_str:0000000000019172 .LASF5748
C:\Users\SOLDER~1\AppData\Local\Temp\ccEQi33f.s:22890  .debug_str:000000000000b81b .LASF5749
C:\Users\SOLDER~1\AppData\Local\Temp\ccEQi33f.s:24570  .debug_str:00000000000125c3 .LASF5750
C:\Users\SOLDER~1\AppData\Local\Temp\ccEQi33f.s:25316  .debug_str:0000000000015773 .LASF5751
C:\Users\SOLDER~1\AppData\Local\Temp\ccEQi33f.s:31056  .debug_str:000000000002cbdc .LASF5752
C:\Users\SOLDER~1\AppData\Local\Temp\ccEQi33f.s:25318  .debug_str:000000000001577d .LASF5753
C:\Users\SOLDER~1\AppData\Local\Temp\ccEQi33f.s:21520  .debug_str:0000000000005ea1 .LASF5754
C:\Users\SOLDER~1\AppData\Local\Temp\ccEQi33f.s:26666  .debug_str:000000000001adee .LASF5755
C:\Users\SOLDER~1\AppData\Local\Temp\ccEQi33f.s:26232  .debug_str:0000000000019203 .LASF5756
C:\Users\SOLDER~1\AppData\Local\Temp\ccEQi33f.s:22600  .debug_str:000000000000a59d .LASF5757
C:\Users\SOLDER~1\AppData\Local\Temp\ccEQi33f.s:20094  .debug_str:0000000000000279 .LASF5778
C:\Users\SOLDER~1\AppData\Local\Temp\ccEQi33f.s:22492  .debug_str:0000000000009e6c .LASF5760
GAS LISTING C:\Users\SOLDER~1\AppData\Local\Temp\ccEQi33f.s 			page 41


C:\Users\SOLDER~1\AppData\Local\Temp\ccEQi33f.s:896    .text.PWR_EnterSTOPMode_RAM_LV:0000000000000000 .LFB29
C:\Users\SOLDER~1\AppData\Local\Temp\ccEQi33f.s:1051   .text.PWR_EnterSTOPMode_RAM_LV:0000000000000122 .LFE29
C:\Users\SOLDER~1\AppData\Local\Temp\ccEQi33f.s:24280  .debug_str:0000000000011316 .LASF5758
C:\Users\SOLDER~1\AppData\Local\Temp\ccEQi33f.s:23732  .debug_str:000000000000ef9f .LASF5759
C:\Users\SOLDER~1\AppData\Local\Temp\ccEQi33f.s:20706  .debug_str:0000000000002b28 .LASF5762
C:\Users\SOLDER~1\AppData\Local\Temp\ccEQi33f.s:954    .text.PWR_EnterSTOPMode_RAM_LV:0000000000000080 .LBB34
C:\Users\SOLDER~1\AppData\Local\Temp\ccEQi33f.s:977    .text.PWR_EnterSTOPMode_RAM_LV:00000000000000a2 .LBE34
C:\Users\SOLDER~1\AppData\Local\Temp\ccEQi33f.s:978    .text.PWR_EnterSTOPMode_RAM_LV:00000000000000a2 .LBB36
C:\Users\SOLDER~1\AppData\Local\Temp\ccEQi33f.s:1030   .text.PWR_EnterSTOPMode_RAM_LV:00000000000000fe .LBE36
C:\Users\SOLDER~1\AppData\Local\Temp\ccEQi33f.s:22718  .debug_str:000000000000ad53 .LASF5761
C:\Users\SOLDER~1\AppData\Local\Temp\ccEQi33f.s:807    .text.PWR_EnterSTANDBYMode_RAM_LV_VBAT_EN:0000000000000000 .LFB28
C:\Users\SOLDER~1\AppData\Local\Temp\ccEQi33f.s:889    .text.PWR_EnterSTANDBYMode_RAM_LV_VBAT_EN:0000000000000098 .LFE28
C:\Users\SOLDER~1\AppData\Local\Temp\ccEQi33f.s:857    .text.PWR_EnterSTANDBYMode_RAM_LV_VBAT_EN:000000000000006e .LBB32
C:\Users\SOLDER~1\AppData\Local\Temp\ccEQi33f.s:879    .text.PWR_EnterSTANDBYMode_RAM_LV_VBAT_EN:0000000000000090 .LBE32
C:\Users\SOLDER~1\AppData\Local\Temp\ccEQi33f.s:31408  .debug_str:000000000002e2a0 .LASF5763
C:\Users\SOLDER~1\AppData\Local\Temp\ccEQi33f.s:723    .text.PWR_EnterSTANDBYMode_RAM_VBAT_EN:0000000000000000 .LFB27
C:\Users\SOLDER~1\AppData\Local\Temp\ccEQi33f.s:800    .text.PWR_EnterSTANDBYMode_RAM_VBAT_EN:000000000000008a .LFE27
C:\Users\SOLDER~1\AppData\Local\Temp\ccEQi33f.s:768    .text.PWR_EnterSTANDBYMode_RAM_VBAT_EN:0000000000000060 .LBB30
C:\Users\SOLDER~1\AppData\Local\Temp\ccEQi33f.s:790    .text.PWR_EnterSTANDBYMode_RAM_VBAT_EN:0000000000000082 .LBE30
C:\Users\SOLDER~1\AppData\Local\Temp\ccEQi33f.s:24888  .debug_str:0000000000013af9 .LASF5764
C:\Users\SOLDER~1\AppData\Local\Temp\ccEQi33f.s:634    .text.PWR_EnterSTANDBYMode_RAM_LV:0000000000000000 .LFB26
C:\Users\SOLDER~1\AppData\Local\Temp\ccEQi33f.s:716    .text.PWR_EnterSTANDBYMode_RAM_LV:0000000000000096 .LFE26
C:\Users\SOLDER~1\AppData\Local\Temp\ccEQi33f.s:684    .text.PWR_EnterSTANDBYMode_RAM_LV:000000000000006c .LBB28
C:\Users\SOLDER~1\AppData\Local\Temp\ccEQi33f.s:706    .text.PWR_EnterSTANDBYMode_RAM_LV:000000000000008e .LBE28
C:\Users\SOLDER~1\AppData\Local\Temp\ccEQi33f.s:29014  .debug_str:000000000002468a .LASF5765
C:\Users\SOLDER~1\AppData\Local\Temp\ccEQi33f.s:550    .text.PWR_EnterSTANDBYMode_RAM:0000000000000000 .LFB25
C:\Users\SOLDER~1\AppData\Local\Temp\ccEQi33f.s:627    .text.PWR_EnterSTANDBYMode_RAM:0000000000000088 .LFE25
C:\Users\SOLDER~1\AppData\Local\Temp\ccEQi33f.s:595    .text.PWR_EnterSTANDBYMode_RAM:000000000000005e .LBB26
C:\Users\SOLDER~1\AppData\Local\Temp\ccEQi33f.s:617    .text.PWR_EnterSTANDBYMode_RAM:0000000000000080 .LBE26
C:\Users\SOLDER~1\AppData\Local\Temp\ccEQi33f.s:29106  .debug_str:0000000000024c8a .LASF5766
C:\Users\SOLDER~1\AppData\Local\Temp\ccEQi33f.s:513    .text.PWR_ClearFlag:0000000000000000 .LFB24
C:\Users\SOLDER~1\AppData\Local\Temp\ccEQi33f.s:543    .text.PWR_ClearFlag:0000000000000028 .LFE24
C:\Users\SOLDER~1\AppData\Local\Temp\ccEQi33f.s:21570  .debug_str:000000000000621c .LASF5767
C:\Users\SOLDER~1\AppData\Local\Temp\ccEQi33f.s:22284  .debug_str:00000000000090ea .LASF5779
C:\Users\SOLDER~1\AppData\Local\Temp\ccEQi33f.s:467    .text.PWR_GetFlagStatus:0000000000000000 .LFB23
C:\Users\SOLDER~1\AppData\Local\Temp\ccEQi33f.s:506    .text.PWR_GetFlagStatus:0000000000000034 .LFE23
C:\Users\SOLDER~1\AppData\Local\Temp\ccEQi33f.s:24600  .debug_str:0000000000012760 .LASF5768
C:\Users\SOLDER~1\AppData\Local\Temp\ccEQi33f.s:30614  .debug_str:000000000002af2c .LASF5769
C:\Users\SOLDER~1\AppData\Local\Temp\ccEQi33f.s:394    .text.PWR_EnterSTANDBYMode:0000000000000000 .LFB22
C:\Users\SOLDER~1\AppData\Local\Temp\ccEQi33f.s:460    .text.PWR_EnterSTANDBYMode:000000000000006c .LFE22
C:\Users\SOLDER~1\AppData\Local\Temp\ccEQi33f.s:428    .text.PWR_EnterSTANDBYMode:0000000000000042 .LBB24
C:\Users\SOLDER~1\AppData\Local\Temp\ccEQi33f.s:450    .text.PWR_EnterSTANDBYMode:0000000000000064 .LBE24
C:\Users\SOLDER~1\AppData\Local\Temp\ccEQi33f.s:26464  .debug_str:000000000001a0a4 .LASF5770
C:\Users\SOLDER~1\AppData\Local\Temp\ccEQi33f.s:241    .text.PWR_EnterSTOPMode:0000000000000000 .LFB21
C:\Users\SOLDER~1\AppData\Local\Temp\ccEQi33f.s:387    .text.PWR_EnterSTOPMode:0000000000000108 .LFE21
C:\Users\SOLDER~1\AppData\Local\Temp\ccEQi33f.s:289    .text.PWR_EnterSTOPMode:0000000000000066 .LBB20
C:\Users\SOLDER~1\AppData\Local\Temp\ccEQi33f.s:313    .text.PWR_EnterSTOPMode:0000000000000088 .LBE20
C:\Users\SOLDER~1\AppData\Local\Temp\ccEQi33f.s:314    .text.PWR_EnterSTOPMode:0000000000000088 .LBB22
C:\Users\SOLDER~1\AppData\Local\Temp\ccEQi33f.s:366    .text.PWR_EnterSTOPMode:00000000000000e4 .LBE22
C:\Users\SOLDER~1\AppData\Local\Temp\ccEQi33f.s:20778  .debug_str:0000000000002fbc .LASF5771
C:\Users\SOLDER~1\AppData\Local\Temp\ccEQi33f.s:194    .text.PWR_WakeUpPinCmd:0000000000000000 .LFB20
C:\Users\SOLDER~1\AppData\Local\Temp\ccEQi33f.s:234    .text.PWR_WakeUpPinCmd:000000000000003a .LFE20
C:\Users\SOLDER~1\AppData\Local\Temp\ccEQi33f.s:27552  .debug_str:000000000001e77a .LASF5772
C:\Users\SOLDER~1\AppData\Local\Temp\ccEQi33f.s:21442  .debug_str:00000000000059b7 .LASF5773
C:\Users\SOLDER~1\AppData\Local\Temp\ccEQi33f.s:147    .text.PWR_PVDLevelConfig:0000000000000000 .LFB19
C:\Users\SOLDER~1\AppData\Local\Temp\ccEQi33f.s:187    .text.PWR_PVDLevelConfig:0000000000000044 .LFE19
C:\Users\SOLDER~1\AppData\Local\Temp\ccEQi33f.s:31532  .debug_str:000000000002ead5 .LASF5774
GAS LISTING C:\Users\SOLDER~1\AppData\Local\Temp\ccEQi33f.s 			page 42


C:\Users\SOLDER~1\AppData\Local\Temp\ccEQi33f.s:30238  .debug_str:00000000000296f2 .LASF5775
C:\Users\SOLDER~1\AppData\Local\Temp\ccEQi33f.s:100    .text.PWR_PVDCmd:0000000000000000 .LFB18
C:\Users\SOLDER~1\AppData\Local\Temp\ccEQi33f.s:140    .text.PWR_PVDCmd:0000000000000038 .LFE18
C:\Users\SOLDER~1\AppData\Local\Temp\ccEQi33f.s:26792  .debug_str:000000000001b5a4 .LASF5776
C:\Users\SOLDER~1\AppData\Local\Temp\ccEQi33f.s:53     .text.PWR_BackupAccessCmd:0000000000000000 .LFB17
C:\Users\SOLDER~1\AppData\Local\Temp\ccEQi33f.s:93     .text.PWR_BackupAccessCmd:000000000000003a .LFE17
C:\Users\SOLDER~1\AppData\Local\Temp\ccEQi33f.s:26706  .debug_str:000000000001b01b .LASF5780
C:\Users\SOLDER~1\AppData\Local\Temp\ccEQi33f.s:15     .text.PWR_DeInit:0000000000000000 .LFB16
C:\Users\SOLDER~1\AppData\Local\Temp\ccEQi33f.s:46     .text.PWR_DeInit:000000000000002e .LFE16
C:\Users\SOLDER~1\AppData\Local\Temp\ccEQi33f.s:28030  .debug_str:0000000000020689 .LASF5781
C:\Users\SOLDER~1\AppData\Local\Temp\ccEQi33f.s:28036  .debug_str:00000000000206e5 .LASF5782
C:\Users\SOLDER~1\AppData\Local\Temp\ccEQi33f.s:1060   .debug_info:0000000000000000 .Ldebug_info0
C:\Users\SOLDER~1\AppData\Local\Temp\ccEQi33f.s:2779   .debug_macro:0000000000000000 .Ldebug_macro2
C:\Users\SOLDER~1\AppData\Local\Temp\ccEQi33f.s:26466  .debug_str:000000000001a0b6 .LASF318
C:\Users\SOLDER~1\AppData\Local\Temp\ccEQi33f.s:3732   .debug_macro:0000000000000000 .Ldebug_macro3
C:\Users\SOLDER~1\AppData\Local\Temp\ccEQi33f.s:26422  .debug_str:0000000000019de9 .LASF336
C:\Users\SOLDER~1\AppData\Local\Temp\ccEQi33f.s:21100  .debug_str:0000000000004423 .LASF337
C:\Users\SOLDER~1\AppData\Local\Temp\ccEQi33f.s:28402  .debug_str:0000000000021e9a .LASF338
C:\Users\SOLDER~1\AppData\Local\Temp\ccEQi33f.s:3788   .debug_macro:0000000000000000 .Ldebug_macro4
C:\Users\SOLDER~1\AppData\Local\Temp\ccEQi33f.s:3808   .debug_macro:0000000000000000 .Ldebug_macro5
C:\Users\SOLDER~1\AppData\Local\Temp\ccEQi33f.s:3873   .debug_macro:0000000000000000 .Ldebug_macro6
C:\Users\SOLDER~1\AppData\Local\Temp\ccEQi33f.s:3914   .debug_macro:0000000000000000 .Ldebug_macro7
C:\Users\SOLDER~1\AppData\Local\Temp\ccEQi33f.s:4039   .debug_macro:0000000000000000 .Ldebug_macro8
C:\Users\SOLDER~1\AppData\Local\Temp\ccEQi33f.s:4095   .debug_macro:0000000000000000 .Ldebug_macro9
C:\Users\SOLDER~1\AppData\Local\Temp\ccEQi33f.s:20426  .debug_str:00000000000018a6 .LASF493
C:\Users\SOLDER~1\AppData\Local\Temp\ccEQi33f.s:4307   .debug_macro:0000000000000000 .Ldebug_macro10
C:\Users\SOLDER~1\AppData\Local\Temp\ccEQi33f.s:4345   .debug_macro:0000000000000000 .Ldebug_macro11
C:\Users\SOLDER~1\AppData\Local\Temp\ccEQi33f.s:20692  .debug_str:0000000000002a4d .LASF4592
C:\Users\SOLDER~1\AppData\Local\Temp\ccEQi33f.s:29200  .debug_str:000000000002526f .LASF4593
C:\Users\SOLDER~1\AppData\Local\Temp\ccEQi33f.s:16611  .debug_macro:0000000000000000 .Ldebug_macro12
C:\Users\SOLDER~1\AppData\Local\Temp\ccEQi33f.s:16892  .debug_macro:0000000000000000 .Ldebug_macro13
C:\Users\SOLDER~1\AppData\Local\Temp\ccEQi33f.s:17044  .debug_macro:0000000000000000 .Ldebug_macro14
C:\Users\SOLDER~1\AppData\Local\Temp\ccEQi33f.s:25568  .debug_str:0000000000016726 .LASF4851
C:\Users\SOLDER~1\AppData\Local\Temp\ccEQi33f.s:17397  .debug_macro:0000000000000000 .Ldebug_macro15
C:\Users\SOLDER~1\AppData\Local\Temp\ccEQi33f.s:17462  .debug_macro:0000000000000000 .Ldebug_macro16
C:\Users\SOLDER~1\AppData\Local\Temp\ccEQi33f.s:17731  .debug_macro:0000000000000000 .Ldebug_macro17
C:\Users\SOLDER~1\AppData\Local\Temp\ccEQi33f.s:17802  .debug_macro:0000000000000000 .Ldebug_macro18
C:\Users\SOLDER~1\AppData\Local\Temp\ccEQi33f.s:17966  .debug_macro:0000000000000000 .Ldebug_macro19
C:\Users\SOLDER~1\AppData\Local\Temp\ccEQi33f.s:18238  .debug_macro:0000000000000000 .Ldebug_macro20
C:\Users\SOLDER~1\AppData\Local\Temp\ccEQi33f.s:18489  .debug_macro:0000000000000000 .Ldebug_macro21
C:\Users\SOLDER~1\AppData\Local\Temp\ccEQi33f.s:18530  .debug_macro:0000000000000000 .Ldebug_macro22
C:\Users\SOLDER~1\AppData\Local\Temp\ccEQi33f.s:18931  .debug_macro:0000000000000000 .Ldebug_macro23
C:\Users\SOLDER~1\AppData\Local\Temp\ccEQi33f.s:18963  .debug_macro:0000000000000000 .Ldebug_macro24
C:\Users\SOLDER~1\AppData\Local\Temp\ccEQi33f.s:19193  .debug_macro:0000000000000000 .Ldebug_macro25
C:\Users\SOLDER~1\AppData\Local\Temp\ccEQi33f.s:19789  .debug_macro:0000000000000000 .Ldebug_macro26
C:\Users\SOLDER~1\AppData\Local\Temp\ccEQi33f.s:19959  .debug_macro:0000000000000000 .Ldebug_macro27
C:\Users\SOLDER~1\AppData\Local\Temp\ccEQi33f.s:19979  .debug_macro:0000000000000000 .Ldebug_macro28
C:\Users\SOLDER~1\AppData\Local\Temp\ccEQi33f.s:20002  .debug_macro:0000000000000000 .Ldebug_macro29
C:\Users\SOLDER~1\AppData\Local\Temp\ccEQi33f.s:29834  .debug_str:0000000000027cc2 .LASF5712
C:\Users\SOLDER~1\AppData\Local\Temp\ccEQi33f.s:29274  .debug_str:000000000002571e .LASF5713
C:\Users\SOLDER~1\AppData\Local\Temp\ccEQi33f.s:21474  .debug_str:0000000000005bde .LASF2
C:\Users\SOLDER~1\AppData\Local\Temp\ccEQi33f.s:30352  .debug_str:0000000000029e46 .LASF3
C:\Users\SOLDER~1\AppData\Local\Temp\ccEQi33f.s:30728  .debug_str:000000000002b6d1 .LASF4
C:\Users\SOLDER~1\AppData\Local\Temp\ccEQi33f.s:24194  .debug_str:0000000000010db1 .LASF5
C:\Users\SOLDER~1\AppData\Local\Temp\ccEQi33f.s:25544  .debug_str:00000000000165b7 .LASF6
C:\Users\SOLDER~1\AppData\Local\Temp\ccEQi33f.s:31150  .debug_str:000000000002d25b .LASF7
C:\Users\SOLDER~1\AppData\Local\Temp\ccEQi33f.s:24252  .debug_str:0000000000011165 .LASF8
GAS LISTING C:\Users\SOLDER~1\AppData\Local\Temp\ccEQi33f.s 			page 43


C:\Users\SOLDER~1\AppData\Local\Temp\ccEQi33f.s:25000  .debug_str:00000000000142b9 .LASF9
C:\Users\SOLDER~1\AppData\Local\Temp\ccEQi33f.s:22204  .debug_str:0000000000008b69 .LASF10
C:\Users\SOLDER~1\AppData\Local\Temp\ccEQi33f.s:30054  .debug_str:0000000000028b06 .LASF11
C:\Users\SOLDER~1\AppData\Local\Temp\ccEQi33f.s:26612  .debug_str:000000000001aa19 .LASF12
C:\Users\SOLDER~1\AppData\Local\Temp\ccEQi33f.s:26470  .debug_str:000000000001a0e8 .LASF13
C:\Users\SOLDER~1\AppData\Local\Temp\ccEQi33f.s:29006  .debug_str:0000000000024609 .LASF14
C:\Users\SOLDER~1\AppData\Local\Temp\ccEQi33f.s:26490  .debug_str:000000000001a22d .LASF15
C:\Users\SOLDER~1\AppData\Local\Temp\ccEQi33f.s:22696  .debug_str:000000000000abee .LASF16
C:\Users\SOLDER~1\AppData\Local\Temp\ccEQi33f.s:27902  .debug_str:000000000001fe36 .LASF17
C:\Users\SOLDER~1\AppData\Local\Temp\ccEQi33f.s:28618  .debug_str:0000000000022c8e .LASF18
C:\Users\SOLDER~1\AppData\Local\Temp\ccEQi33f.s:22736  .debug_str:000000000000ae9d .LASF19
C:\Users\SOLDER~1\AppData\Local\Temp\ccEQi33f.s:21630  .debug_str:00000000000065ee .LASF20
C:\Users\SOLDER~1\AppData\Local\Temp\ccEQi33f.s:23730  .debug_str:000000000000ef8c .LASF21
C:\Users\SOLDER~1\AppData\Local\Temp\ccEQi33f.s:29476  .debug_str:000000000002652c .LASF22
C:\Users\SOLDER~1\AppData\Local\Temp\ccEQi33f.s:26298  .debug_str:0000000000019668 .LASF23
C:\Users\SOLDER~1\AppData\Local\Temp\ccEQi33f.s:26296  .debug_str:000000000001964e .LASF24
C:\Users\SOLDER~1\AppData\Local\Temp\ccEQi33f.s:28930  .debug_str:00000000000240ed .LASF25
C:\Users\SOLDER~1\AppData\Local\Temp\ccEQi33f.s:29590  .debug_str:0000000000026ccf .LASF26
C:\Users\SOLDER~1\AppData\Local\Temp\ccEQi33f.s:20990  .debug_str:0000000000003d46 .LASF27
C:\Users\SOLDER~1\AppData\Local\Temp\ccEQi33f.s:25690  .debug_str:0000000000016eb3 .LASF28
C:\Users\SOLDER~1\AppData\Local\Temp\ccEQi33f.s:28822  .debug_str:00000000000239bb .LASF29
C:\Users\SOLDER~1\AppData\Local\Temp\ccEQi33f.s:28628  .debug_str:0000000000022d36 .LASF30
C:\Users\SOLDER~1\AppData\Local\Temp\ccEQi33f.s:21416  .debug_str:00000000000057d4 .LASF31
C:\Users\SOLDER~1\AppData\Local\Temp\ccEQi33f.s:27674  .debug_str:000000000001ef5e .LASF32
C:\Users\SOLDER~1\AppData\Local\Temp\ccEQi33f.s:20380  .debug_str:00000000000015ca .LASF33
C:\Users\SOLDER~1\AppData\Local\Temp\ccEQi33f.s:24416  .debug_str:0000000000011bf8 .LASF34
C:\Users\SOLDER~1\AppData\Local\Temp\ccEQi33f.s:25358  .debug_str:0000000000015a1c .LASF35
C:\Users\SOLDER~1\AppData\Local\Temp\ccEQi33f.s:23482  .debug_str:000000000000df5d .LASF36
C:\Users\SOLDER~1\AppData\Local\Temp\ccEQi33f.s:22568  .debug_str:000000000000a37a .LASF37
C:\Users\SOLDER~1\AppData\Local\Temp\ccEQi33f.s:22420  .debug_str:00000000000099bc .LASF38
C:\Users\SOLDER~1\AppData\Local\Temp\ccEQi33f.s:23754  .debug_str:000000000000f0f4 .LASF39
C:\Users\SOLDER~1\AppData\Local\Temp\ccEQi33f.s:26720  .debug_str:000000000001b0f6 .LASF40
C:\Users\SOLDER~1\AppData\Local\Temp\ccEQi33f.s:21948  .debug_str:0000000000007aa9 .LASF41
C:\Users\SOLDER~1\AppData\Local\Temp\ccEQi33f.s:24132  .debug_str:00000000000109db .LASF42
C:\Users\SOLDER~1\AppData\Local\Temp\ccEQi33f.s:29888  .debug_str:0000000000028061 .LASF43
C:\Users\SOLDER~1\AppData\Local\Temp\ccEQi33f.s:20750  .debug_str:0000000000002dca .LASF44
C:\Users\SOLDER~1\AppData\Local\Temp\ccEQi33f.s:23822  .debug_str:000000000000f55f .LASF45
C:\Users\SOLDER~1\AppData\Local\Temp\ccEQi33f.s:24730  .debug_str:000000000001301d .LASF46
C:\Users\SOLDER~1\AppData\Local\Temp\ccEQi33f.s:29206  .debug_str:00000000000252d9 .LASF47
C:\Users\SOLDER~1\AppData\Local\Temp\ccEQi33f.s:26710  .debug_str:000000000001b04b .LASF48
C:\Users\SOLDER~1\AppData\Local\Temp\ccEQi33f.s:24582  .debug_str:0000000000012663 .LASF49
C:\Users\SOLDER~1\AppData\Local\Temp\ccEQi33f.s:21250  .debug_str:0000000000004d85 .LASF50
C:\Users\SOLDER~1\AppData\Local\Temp\ccEQi33f.s:24732  .debug_str:0000000000013036 .LASF51
C:\Users\SOLDER~1\AppData\Local\Temp\ccEQi33f.s:29386  .debug_str:0000000000025eff .LASF52
C:\Users\SOLDER~1\AppData\Local\Temp\ccEQi33f.s:23480  .debug_str:000000000000df3d .LASF53
C:\Users\SOLDER~1\AppData\Local\Temp\ccEQi33f.s:20592  .debug_str:00000000000023a3 .LASF54
C:\Users\SOLDER~1\AppData\Local\Temp\ccEQi33f.s:20080  .debug_str:0000000000000189 .LASF55
C:\Users\SOLDER~1\AppData\Local\Temp\ccEQi33f.s:30770  .debug_str:000000000002b961 .LASF56
C:\Users\SOLDER~1\AppData\Local\Temp\ccEQi33f.s:28798  .debug_str:000000000002385e .LASF57
C:\Users\SOLDER~1\AppData\Local\Temp\ccEQi33f.s:20164  .debug_str:0000000000000781 .LASF58
C:\Users\SOLDER~1\AppData\Local\Temp\ccEQi33f.s:24096  .debug_str:0000000000010770 .LASF59
C:\Users\SOLDER~1\AppData\Local\Temp\ccEQi33f.s:22034  .debug_str:000000000000807a .LASF60
C:\Users\SOLDER~1\AppData\Local\Temp\ccEQi33f.s:28458  .debug_str:00000000000221d2 .LASF61
C:\Users\SOLDER~1\AppData\Local\Temp\ccEQi33f.s:20330  .debug_str:0000000000001287 .LASF62
C:\Users\SOLDER~1\AppData\Local\Temp\ccEQi33f.s:23368  .debug_str:000000000000d81b .LASF63
C:\Users\SOLDER~1\AppData\Local\Temp\ccEQi33f.s:25030  .debug_str:00000000000144c7 .LASF64
C:\Users\SOLDER~1\AppData\Local\Temp\ccEQi33f.s:27076  .debug_str:000000000001c849 .LASF65
GAS LISTING C:\Users\SOLDER~1\AppData\Local\Temp\ccEQi33f.s 			page 44


C:\Users\SOLDER~1\AppData\Local\Temp\ccEQi33f.s:20832  .debug_str:0000000000003311 .LASF66
C:\Users\SOLDER~1\AppData\Local\Temp\ccEQi33f.s:23470  .debug_str:000000000000de9a .LASF67
C:\Users\SOLDER~1\AppData\Local\Temp\ccEQi33f.s:23204  .debug_str:000000000000cd68 .LASF68
C:\Users\SOLDER~1\AppData\Local\Temp\ccEQi33f.s:26698  .debug_str:000000000001afb8 .LASF69
C:\Users\SOLDER~1\AppData\Local\Temp\ccEQi33f.s:25354  .debug_str:00000000000159d5 .LASF70
C:\Users\SOLDER~1\AppData\Local\Temp\ccEQi33f.s:30526  .debug_str:000000000002a993 .LASF71
C:\Users\SOLDER~1\AppData\Local\Temp\ccEQi33f.s:30998  .debug_str:000000000002c83c .LASF72
C:\Users\SOLDER~1\AppData\Local\Temp\ccEQi33f.s:24534  .debug_str:0000000000012336 .LASF73
C:\Users\SOLDER~1\AppData\Local\Temp\ccEQi33f.s:23642  .debug_str:000000000000ea28 .LASF74
C:\Users\SOLDER~1\AppData\Local\Temp\ccEQi33f.s:21268  .debug_str:0000000000004e9c .LASF75
C:\Users\SOLDER~1\AppData\Local\Temp\ccEQi33f.s:24572  .debug_str:00000000000125c9 .LASF76
C:\Users\SOLDER~1\AppData\Local\Temp\ccEQi33f.s:23122  .debug_str:000000000000c7b9 .LASF77
C:\Users\SOLDER~1\AppData\Local\Temp\ccEQi33f.s:24820  .debug_str:0000000000013600 .LASF78
C:\Users\SOLDER~1\AppData\Local\Temp\ccEQi33f.s:25360  .debug_str:0000000000015a4a .LASF79
C:\Users\SOLDER~1\AppData\Local\Temp\ccEQi33f.s:24760  .debug_str:0000000000013218 .LASF80
C:\Users\SOLDER~1\AppData\Local\Temp\ccEQi33f.s:29296  .debug_str:00000000000258d4 .LASF81
C:\Users\SOLDER~1\AppData\Local\Temp\ccEQi33f.s:27202  .debug_str:000000000001d0e2 .LASF82
C:\Users\SOLDER~1\AppData\Local\Temp\ccEQi33f.s:27638  .debug_str:000000000001ed27 .LASF83
C:\Users\SOLDER~1\AppData\Local\Temp\ccEQi33f.s:30512  .debug_str:000000000002a8a7 .LASF84
C:\Users\SOLDER~1\AppData\Local\Temp\ccEQi33f.s:22514  .debug_str:0000000000009fd8 .LASF85
C:\Users\SOLDER~1\AppData\Local\Temp\ccEQi33f.s:30658  .debug_str:000000000002b25b .LASF86
C:\Users\SOLDER~1\AppData\Local\Temp\ccEQi33f.s:24574  .debug_str:00000000000125f0 .LASF87
C:\Users\SOLDER~1\AppData\Local\Temp\ccEQi33f.s:26726  .debug_str:000000000001b156 .LASF88
C:\Users\SOLDER~1\AppData\Local\Temp\ccEQi33f.s:21770  .debug_str:0000000000006f7d .LASF89
C:\Users\SOLDER~1\AppData\Local\Temp\ccEQi33f.s:30992  .debug_str:000000000002c7da .LASF90
C:\Users\SOLDER~1\AppData\Local\Temp\ccEQi33f.s:30684  .debug_str:000000000002b3dd .LASF91
C:\Users\SOLDER~1\AppData\Local\Temp\ccEQi33f.s:28068  .debug_str:00000000000208d1 .LASF92
C:\Users\SOLDER~1\AppData\Local\Temp\ccEQi33f.s:26796  .debug_str:000000000001b5d3 .LASF93
C:\Users\SOLDER~1\AppData\Local\Temp\ccEQi33f.s:28092  .debug_str:0000000000020a6c .LASF94
C:\Users\SOLDER~1\AppData\Local\Temp\ccEQi33f.s:30906  .debug_str:000000000002c288 .LASF95
C:\Users\SOLDER~1\AppData\Local\Temp\ccEQi33f.s:29692  .debug_str:0000000000027386 .LASF96
C:\Users\SOLDER~1\AppData\Local\Temp\ccEQi33f.s:22602  .debug_str:000000000000a5a9 .LASF97
C:\Users\SOLDER~1\AppData\Local\Temp\ccEQi33f.s:28924  .debug_str:0000000000024072 .LASF98
C:\Users\SOLDER~1\AppData\Local\Temp\ccEQi33f.s:25062  .debug_str:00000000000146f4 .LASF99
C:\Users\SOLDER~1\AppData\Local\Temp\ccEQi33f.s:29086  .debug_str:0000000000024b55 .LASF100
C:\Users\SOLDER~1\AppData\Local\Temp\ccEQi33f.s:31188  .debug_str:000000000002d4bc .LASF101
C:\Users\SOLDER~1\AppData\Local\Temp\ccEQi33f.s:24666  .debug_str:0000000000012bf3 .LASF102
C:\Users\SOLDER~1\AppData\Local\Temp\ccEQi33f.s:28640  .debug_str:0000000000022de7 .LASF103
C:\Users\SOLDER~1\AppData\Local\Temp\ccEQi33f.s:27268  .debug_str:000000000001d55c .LASF104
C:\Users\SOLDER~1\AppData\Local\Temp\ccEQi33f.s:24150  .debug_str:0000000000010aee .LASF105
C:\Users\SOLDER~1\AppData\Local\Temp\ccEQi33f.s:21862  .debug_str:0000000000007552 .LASF106
C:\Users\SOLDER~1\AppData\Local\Temp\ccEQi33f.s:24410  .debug_str:0000000000011b83 .LASF107
C:\Users\SOLDER~1\AppData\Local\Temp\ccEQi33f.s:23394  .debug_str:000000000000d9a7 .LASF108
C:\Users\SOLDER~1\AppData\Local\Temp\ccEQi33f.s:24590  .debug_str:00000000000126f6 .LASF109
C:\Users\SOLDER~1\AppData\Local\Temp\ccEQi33f.s:21300  .debug_str:000000000000507a .LASF110
C:\Users\SOLDER~1\AppData\Local\Temp\ccEQi33f.s:24404  .debug_str:0000000000011b2d .LASF111
C:\Users\SOLDER~1\AppData\Local\Temp\ccEQi33f.s:23390  .debug_str:000000000000d972 .LASF112
C:\Users\SOLDER~1\AppData\Local\Temp\ccEQi33f.s:24880  .debug_str:0000000000013a62 .LASF113
C:\Users\SOLDER~1\AppData\Local\Temp\ccEQi33f.s:23780  .debug_str:000000000000f291 .LASF114
C:\Users\SOLDER~1\AppData\Local\Temp\ccEQi33f.s:26350  .debug_str:0000000000019964 .LASF115
C:\Users\SOLDER~1\AppData\Local\Temp\ccEQi33f.s:22868  .debug_str:000000000000b6f7 .LASF116
C:\Users\SOLDER~1\AppData\Local\Temp\ccEQi33f.s:22596  .debug_str:000000000000a53a .LASF117
C:\Users\SOLDER~1\AppData\Local\Temp\ccEQi33f.s:23950  .debug_str:000000000000fe50 .LASF118
C:\Users\SOLDER~1\AppData\Local\Temp\ccEQi33f.s:30564  .debug_str:000000000002ac2f .LASF119
C:\Users\SOLDER~1\AppData\Local\Temp\ccEQi33f.s:25878  .debug_str:0000000000017afc .LASF120
C:\Users\SOLDER~1\AppData\Local\Temp\ccEQi33f.s:22360  .debug_str:00000000000095d5 .LASF121
C:\Users\SOLDER~1\AppData\Local\Temp\ccEQi33f.s:27058  .debug_str:000000000001c715 .LASF122
GAS LISTING C:\Users\SOLDER~1\AppData\Local\Temp\ccEQi33f.s 			page 45


C:\Users\SOLDER~1\AppData\Local\Temp\ccEQi33f.s:31320  .debug_str:000000000002dd41 .LASF123
C:\Users\SOLDER~1\AppData\Local\Temp\ccEQi33f.s:23696  .debug_str:000000000000ed57 .LASF124
C:\Users\SOLDER~1\AppData\Local\Temp\ccEQi33f.s:29282  .debug_str:00000000000257be .LASF125
C:\Users\SOLDER~1\AppData\Local\Temp\ccEQi33f.s:23174  .debug_str:000000000000cb59 .LASF126
C:\Users\SOLDER~1\AppData\Local\Temp\ccEQi33f.s:23270  .debug_str:000000000000d1bf .LASF127
C:\Users\SOLDER~1\AppData\Local\Temp\ccEQi33f.s:20930  .debug_str:000000000000396c .LASF128
C:\Users\SOLDER~1\AppData\Local\Temp\ccEQi33f.s:21218  .debug_str:0000000000004ba9 .LASF129
C:\Users\SOLDER~1\AppData\Local\Temp\ccEQi33f.s:30252  .debug_str:00000000000297c3 .LASF130
C:\Users\SOLDER~1\AppData\Local\Temp\ccEQi33f.s:24594  .debug_str:000000000001270e .LASF131
C:\Users\SOLDER~1\AppData\Local\Temp\ccEQi33f.s:27462  .debug_str:000000000001e1a3 .LASF132
C:\Users\SOLDER~1\AppData\Local\Temp\ccEQi33f.s:22430  .debug_str:0000000000009a57 .LASF133
C:\Users\SOLDER~1\AppData\Local\Temp\ccEQi33f.s:29794  .debug_str:00000000000279dd .LASF134
C:\Users\SOLDER~1\AppData\Local\Temp\ccEQi33f.s:30116  .debug_str:0000000000028ede .LASF135
C:\Users\SOLDER~1\AppData\Local\Temp\ccEQi33f.s:29918  .debug_str:0000000000028224 .LASF136
C:\Users\SOLDER~1\AppData\Local\Temp\ccEQi33f.s:23674  .debug_str:000000000000ebdc .LASF137
C:\Users\SOLDER~1\AppData\Local\Temp\ccEQi33f.s:29194  .debug_str:000000000002520d .LASF138
C:\Users\SOLDER~1\AppData\Local\Temp\ccEQi33f.s:21204  .debug_str:0000000000004a9c .LASF139
C:\Users\SOLDER~1\AppData\Local\Temp\ccEQi33f.s:22076  .debug_str:000000000000834d .LASF140
C:\Users\SOLDER~1\AppData\Local\Temp\ccEQi33f.s:30990  .debug_str:000000000002c7c6 .LASF141
C:\Users\SOLDER~1\AppData\Local\Temp\ccEQi33f.s:26952  .debug_str:000000000001bfc1 .LASF142
C:\Users\SOLDER~1\AppData\Local\Temp\ccEQi33f.s:30458  .debug_str:000000000002a582 .LASF143
C:\Users\SOLDER~1\AppData\Local\Temp\ccEQi33f.s:29566  .debug_str:0000000000026b4c .LASF144
C:\Users\SOLDER~1\AppData\Local\Temp\ccEQi33f.s:27150  .debug_str:000000000001cd7f .LASF145
C:\Users\SOLDER~1\AppData\Local\Temp\ccEQi33f.s:22554  .debug_str:000000000000a27a .LASF146
C:\Users\SOLDER~1\AppData\Local\Temp\ccEQi33f.s:24814  .debug_str:00000000000135a6 .LASF147
C:\Users\SOLDER~1\AppData\Local\Temp\ccEQi33f.s:26314  .debug_str:0000000000019730 .LASF148
C:\Users\SOLDER~1\AppData\Local\Temp\ccEQi33f.s:25368  .debug_str:0000000000015aa2 .LASF149
C:\Users\SOLDER~1\AppData\Local\Temp\ccEQi33f.s:23230  .debug_str:000000000000cf07 .LASF150
C:\Users\SOLDER~1\AppData\Local\Temp\ccEQi33f.s:21266  .debug_str:0000000000004e85 .LASF151
C:\Users\SOLDER~1\AppData\Local\Temp\ccEQi33f.s:23818  .debug_str:000000000000f521 .LASF152
C:\Users\SOLDER~1\AppData\Local\Temp\ccEQi33f.s:26302  .debug_str:0000000000019698 .LASF153
C:\Users\SOLDER~1\AppData\Local\Temp\ccEQi33f.s:20154  .debug_str:00000000000006ef .LASF154
C:\Users\SOLDER~1\AppData\Local\Temp\ccEQi33f.s:28630  .debug_str:0000000000022d50 .LASF155
C:\Users\SOLDER~1\AppData\Local\Temp\ccEQi33f.s:24870  .debug_str:000000000001397d .LASF156
C:\Users\SOLDER~1\AppData\Local\Temp\ccEQi33f.s:29568  .debug_str:0000000000026b64 .LASF157
C:\Users\SOLDER~1\AppData\Local\Temp\ccEQi33f.s:27356  .debug_str:000000000001da94 .LASF158
C:\Users\SOLDER~1\AppData\Local\Temp\ccEQi33f.s:29506  .debug_str:000000000002671e .LASF159
C:\Users\SOLDER~1\AppData\Local\Temp\ccEQi33f.s:30172  .debug_str:000000000002929b .LASF160
C:\Users\SOLDER~1\AppData\Local\Temp\ccEQi33f.s:27496  .debug_str:000000000001e3b7 .LASF161
C:\Users\SOLDER~1\AppData\Local\Temp\ccEQi33f.s:23102  .debug_str:000000000000c65f .LASF162
C:\Users\SOLDER~1\AppData\Local\Temp\ccEQi33f.s:22178  .debug_str:00000000000089ae .LASF163
C:\Users\SOLDER~1\AppData\Local\Temp\ccEQi33f.s:25010  .debug_str:0000000000014361 .LASF164
C:\Users\SOLDER~1\AppData\Local\Temp\ccEQi33f.s:26998  .debug_str:000000000001c323 .LASF165
C:\Users\SOLDER~1\AppData\Local\Temp\ccEQi33f.s:28450  .debug_str:0000000000022175 .LASF166
C:\Users\SOLDER~1\AppData\Local\Temp\ccEQi33f.s:30046  .debug_str:0000000000028a87 .LASF167
C:\Users\SOLDER~1\AppData\Local\Temp\ccEQi33f.s:29184  .debug_str:0000000000025153 .LASF168
C:\Users\SOLDER~1\AppData\Local\Temp\ccEQi33f.s:30888  .debug_str:000000000002c15a .LASF169
C:\Users\SOLDER~1\AppData\Local\Temp\ccEQi33f.s:21938  .debug_str:00000000000079f9 .LASF170
C:\Users\SOLDER~1\AppData\Local\Temp\ccEQi33f.s:30554  .debug_str:000000000002ab8d .LASF171
C:\Users\SOLDER~1\AppData\Local\Temp\ccEQi33f.s:22322  .debug_str:000000000000933a .LASF172
C:\Users\SOLDER~1\AppData\Local\Temp\ccEQi33f.s:26856  .debug_str:000000000001b96a .LASF173
C:\Users\SOLDER~1\AppData\Local\Temp\ccEQi33f.s:26102  .debug_str:000000000001896b .LASF174
C:\Users\SOLDER~1\AppData\Local\Temp\ccEQi33f.s:29978  .debug_str:00000000000285f2 .LASF175
C:\Users\SOLDER~1\AppData\Local\Temp\ccEQi33f.s:26994  .debug_str:000000000001c2b5 .LASF176
C:\Users\SOLDER~1\AppData\Local\Temp\ccEQi33f.s:27278  .debug_str:000000000001d5f0 .LASF177
C:\Users\SOLDER~1\AppData\Local\Temp\ccEQi33f.s:22548  .debug_str:000000000000a235 .LASF178
C:\Users\SOLDER~1\AppData\Local\Temp\ccEQi33f.s:24532  .debug_str:000000000001231e .LASF179
GAS LISTING C:\Users\SOLDER~1\AppData\Local\Temp\ccEQi33f.s 			page 46


C:\Users\SOLDER~1\AppData\Local\Temp\ccEQi33f.s:26426  .debug_str:0000000000019e17 .LASF180
C:\Users\SOLDER~1\AppData\Local\Temp\ccEQi33f.s:21600  .debug_str:0000000000006409 .LASF181
C:\Users\SOLDER~1\AppData\Local\Temp\ccEQi33f.s:22404  .debug_str:00000000000098c9 .LASF182
C:\Users\SOLDER~1\AppData\Local\Temp\ccEQi33f.s:21066  .debug_str:000000000000420e .LASF183
C:\Users\SOLDER~1\AppData\Local\Temp\ccEQi33f.s:24320  .debug_str:00000000000115d3 .LASF184
C:\Users\SOLDER~1\AppData\Local\Temp\ccEQi33f.s:25012  .debug_str:0000000000014378 .LASF185
C:\Users\SOLDER~1\AppData\Local\Temp\ccEQi33f.s:20586  .debug_str:0000000000002333 .LASF186
C:\Users\SOLDER~1\AppData\Local\Temp\ccEQi33f.s:31186  .debug_str:000000000002d4a9 .LASF187
C:\Users\SOLDER~1\AppData\Local\Temp\ccEQi33f.s:20364  .debug_str:00000000000014d5 .LASF188
C:\Users\SOLDER~1\AppData\Local\Temp\ccEQi33f.s:24992  .debug_str:000000000001421f .LASF189
C:\Users\SOLDER~1\AppData\Local\Temp\ccEQi33f.s:25440  .debug_str:0000000000015f2b .LASF190
C:\Users\SOLDER~1\AppData\Local\Temp\ccEQi33f.s:30384  .debug_str:000000000002a079 .LASF191
C:\Users\SOLDER~1\AppData\Local\Temp\ccEQi33f.s:23426  .debug_str:000000000000dbac .LASF192
C:\Users\SOLDER~1\AppData\Local\Temp\ccEQi33f.s:30860  .debug_str:000000000002bf43 .LASF193
C:\Users\SOLDER~1\AppData\Local\Temp\ccEQi33f.s:24958  .debug_str:0000000000013fb4 .LASF194
C:\Users\SOLDER~1\AppData\Local\Temp\ccEQi33f.s:23716  .debug_str:000000000000eebc .LASF195
C:\Users\SOLDER~1\AppData\Local\Temp\ccEQi33f.s:22750  .debug_str:000000000000af96 .LASF196
C:\Users\SOLDER~1\AppData\Local\Temp\ccEQi33f.s:27554  .debug_str:000000000001e783 .LASF197
C:\Users\SOLDER~1\AppData\Local\Temp\ccEQi33f.s:30472  .debug_str:000000000002a675 .LASF198
C:\Users\SOLDER~1\AppData\Local\Temp\ccEQi33f.s:25238  .debug_str:0000000000015294 .LASF199
C:\Users\SOLDER~1\AppData\Local\Temp\ccEQi33f.s:27752  .debug_str:000000000001f4b9 .LASF200
C:\Users\SOLDER~1\AppData\Local\Temp\ccEQi33f.s:20374  .debug_str:0000000000001577 .LASF201
C:\Users\SOLDER~1\AppData\Local\Temp\ccEQi33f.s:31420  .debug_str:000000000002e363 .LASF202
C:\Users\SOLDER~1\AppData\Local\Temp\ccEQi33f.s:25214  .debug_str:00000000000150e7 .LASF203
C:\Users\SOLDER~1\AppData\Local\Temp\ccEQi33f.s:27946  .debug_str:0000000000020107 .LASF204
C:\Users\SOLDER~1\AppData\Local\Temp\ccEQi33f.s:26504  .debug_str:000000000001a310 .LASF205
C:\Users\SOLDER~1\AppData\Local\Temp\ccEQi33f.s:21648  .debug_str:000000000000672c .LASF206
C:\Users\SOLDER~1\AppData\Local\Temp\ccEQi33f.s:25226  .debug_str:00000000000151ae .LASF207
C:\Users\SOLDER~1\AppData\Local\Temp\ccEQi33f.s:27198  .debug_str:000000000001d07b .LASF208
C:\Users\SOLDER~1\AppData\Local\Temp\ccEQi33f.s:28182  .debug_str:0000000000021062 .LASF209
C:\Users\SOLDER~1\AppData\Local\Temp\ccEQi33f.s:24040  .debug_str:000000000001040b .LASF210
C:\Users\SOLDER~1\AppData\Local\Temp\ccEQi33f.s:29570  .debug_str:0000000000026ba0 .LASF211
C:\Users\SOLDER~1\AppData\Local\Temp\ccEQi33f.s:29372  .debug_str:0000000000025de9 .LASF212
C:\Users\SOLDER~1\AppData\Local\Temp\ccEQi33f.s:21884  .debug_str:00000000000076b5 .LASF213
C:\Users\SOLDER~1\AppData\Local\Temp\ccEQi33f.s:28888  .debug_str:0000000000023e20 .LASF214
C:\Users\SOLDER~1\AppData\Local\Temp\ccEQi33f.s:25524  .debug_str:00000000000164ac .LASF215
C:\Users\SOLDER~1\AppData\Local\Temp\ccEQi33f.s:21852  .debug_str:00000000000074c1 .LASF216
C:\Users\SOLDER~1\AppData\Local\Temp\ccEQi33f.s:22264  .debug_str:0000000000008f77 .LASF217
C:\Users\SOLDER~1\AppData\Local\Temp\ccEQi33f.s:29446  .debug_str:000000000002634e .LASF218
C:\Users\SOLDER~1\AppData\Local\Temp\ccEQi33f.s:28380  .debug_str:0000000000021d31 .LASF219
C:\Users\SOLDER~1\AppData\Local\Temp\ccEQi33f.s:20682  .debug_str:00000000000029b0 .LASF220
C:\Users\SOLDER~1\AppData\Local\Temp\ccEQi33f.s:22398  .debug_str:0000000000009826 .LASF221
C:\Users\SOLDER~1\AppData\Local\Temp\ccEQi33f.s:28132  .debug_str:0000000000020cfc .LASF222
C:\Users\SOLDER~1\AppData\Local\Temp\ccEQi33f.s:27980  .debug_str:0000000000020326 .LASF223
C:\Users\SOLDER~1\AppData\Local\Temp\ccEQi33f.s:22310  .debug_str:0000000000009273 .LASF224
C:\Users\SOLDER~1\AppData\Local\Temp\ccEQi33f.s:21656  .debug_str:00000000000067df .LASF225
C:\Users\SOLDER~1\AppData\Local\Temp\ccEQi33f.s:27460  .debug_str:000000000001e18c .LASF226
C:\Users\SOLDER~1\AppData\Local\Temp\ccEQi33f.s:25626  .debug_str:0000000000016aeb .LASF227
C:\Users\SOLDER~1\AppData\Local\Temp\ccEQi33f.s:23958  .debug_str:000000000000fec0 .LASF228
C:\Users\SOLDER~1\AppData\Local\Temp\ccEQi33f.s:27978  .debug_str:000000000002030d .LASF229
C:\Users\SOLDER~1\AppData\Local\Temp\ccEQi33f.s:29016  .debug_str:00000000000246a3 .LASF230
C:\Users\SOLDER~1\AppData\Local\Temp\ccEQi33f.s:23982  .debug_str:0000000000010041 .LASF231
C:\Users\SOLDER~1\AppData\Local\Temp\ccEQi33f.s:29790  .debug_str:00000000000279a1 .LASF232
C:\Users\SOLDER~1\AppData\Local\Temp\ccEQi33f.s:29078  .debug_str:0000000000024ad0 .LASF233
C:\Users\SOLDER~1\AppData\Local\Temp\ccEQi33f.s:30836  .debug_str:000000000002bd8e .LASF234
C:\Users\SOLDER~1\AppData\Local\Temp\ccEQi33f.s:22050  .debug_str:000000000000819e .LASF235
C:\Users\SOLDER~1\AppData\Local\Temp\ccEQi33f.s:24034  .debug_str:00000000000103a3 .LASF236
GAS LISTING C:\Users\SOLDER~1\AppData\Local\Temp\ccEQi33f.s 			page 47


C:\Users\SOLDER~1\AppData\Local\Temp\ccEQi33f.s:23488  .debug_str:000000000000dfcd .LASF237
C:\Users\SOLDER~1\AppData\Local\Temp\ccEQi33f.s:29246  .debug_str:000000000002553d .LASF238
C:\Users\SOLDER~1\AppData\Local\Temp\ccEQi33f.s:24854  .debug_str:0000000000013843 .LASF239
C:\Users\SOLDER~1\AppData\Local\Temp\ccEQi33f.s:27994  .debug_str:0000000000020417 .LASF240
C:\Users\SOLDER~1\AppData\Local\Temp\ccEQi33f.s:20770  .debug_str:0000000000002f1c .LASF241
C:\Users\SOLDER~1\AppData\Local\Temp\ccEQi33f.s:25826  .debug_str:000000000001779b .LASF242
C:\Users\SOLDER~1\AppData\Local\Temp\ccEQi33f.s:27292  .debug_str:000000000001d6bb .LASF243
C:\Users\SOLDER~1\AppData\Local\Temp\ccEQi33f.s:26662  .debug_str:000000000001adae .LASF244
C:\Users\SOLDER~1\AppData\Local\Temp\ccEQi33f.s:31154  .debug_str:000000000002d290 .LASF245
C:\Users\SOLDER~1\AppData\Local\Temp\ccEQi33f.s:27226  .debug_str:000000000001d29f .LASF246
C:\Users\SOLDER~1\AppData\Local\Temp\ccEQi33f.s:30276  .debug_str:0000000000029920 .LASF247
C:\Users\SOLDER~1\AppData\Local\Temp\ccEQi33f.s:23512  .debug_str:000000000000e1b0 .LASF248
C:\Users\SOLDER~1\AppData\Local\Temp\ccEQi33f.s:29658  .debug_str:000000000002712f .LASF249
C:\Users\SOLDER~1\AppData\Local\Temp\ccEQi33f.s:23366  .debug_str:000000000000d803 .LASF250
C:\Users\SOLDER~1\AppData\Local\Temp\ccEQi33f.s:26572  .debug_str:000000000001a7a1 .LASF251
C:\Users\SOLDER~1\AppData\Local\Temp\ccEQi33f.s:24072  .debug_str:0000000000010606 .LASF252
C:\Users\SOLDER~1\AppData\Local\Temp\ccEQi33f.s:20298  .debug_str:000000000000106e .LASF253
C:\Users\SOLDER~1\AppData\Local\Temp\ccEQi33f.s:22824  .debug_str:000000000000b429 .LASF254
C:\Users\SOLDER~1\AppData\Local\Temp\ccEQi33f.s:20240  .debug_str:0000000000000cde .LASF255
C:\Users\SOLDER~1\AppData\Local\Temp\ccEQi33f.s:22934  .debug_str:000000000000bad7 .LASF256
C:\Users\SOLDER~1\AppData\Local\Temp\ccEQi33f.s:22402  .debug_str:0000000000009884 .LASF257
C:\Users\SOLDER~1\AppData\Local\Temp\ccEQi33f.s:31360  .debug_str:000000000002dfae .LASF258
C:\Users\SOLDER~1\AppData\Local\Temp\ccEQi33f.s:27174  .debug_str:000000000001cef1 .LASF259
C:\Users\SOLDER~1\AppData\Local\Temp\ccEQi33f.s:25984  .debug_str:0000000000018200 .LASF260
C:\Users\SOLDER~1\AppData\Local\Temp\ccEQi33f.s:26784  .debug_str:000000000001b51a .LASF261
C:\Users\SOLDER~1\AppData\Local\Temp\ccEQi33f.s:23538  .debug_str:000000000000e376 .LASF262
C:\Users\SOLDER~1\AppData\Local\Temp\ccEQi33f.s:22876  .debug_str:000000000000b766 .LASF263
C:\Users\SOLDER~1\AppData\Local\Temp\ccEQi33f.s:30648  .debug_str:000000000002b1ab .LASF264
C:\Users\SOLDER~1\AppData\Local\Temp\ccEQi33f.s:23188  .debug_str:000000000000cc50 .LASF265
C:\Users\SOLDER~1\AppData\Local\Temp\ccEQi33f.s:24166  .debug_str:0000000000010be4 .LASF266
C:\Users\SOLDER~1\AppData\Local\Temp\ccEQi33f.s:26016  .debug_str:00000000000183f8 .LASF267
C:\Users\SOLDER~1\AppData\Local\Temp\ccEQi33f.s:29900  .debug_str:000000000002811f .LASF268
C:\Users\SOLDER~1\AppData\Local\Temp\ccEQi33f.s:23014  .debug_str:000000000000c011 .LASF269
C:\Users\SOLDER~1\AppData\Local\Temp\ccEQi33f.s:21744  .debug_str:0000000000006d63 .LASF270
C:\Users\SOLDER~1\AppData\Local\Temp\ccEQi33f.s:21918  .debug_str:000000000000789a .LASF271
C:\Users\SOLDER~1\AppData\Local\Temp\ccEQi33f.s:23242  .debug_str:000000000000cfda .LASF272
C:\Users\SOLDER~1\AppData\Local\Temp\ccEQi33f.s:23082  .debug_str:000000000000c4ef .LASF273
C:\Users\SOLDER~1\AppData\Local\Temp\ccEQi33f.s:20386  .debug_str:000000000000163d .LASF274
C:\Users\SOLDER~1\AppData\Local\Temp\ccEQi33f.s:21736  .debug_str:0000000000006cf0 .LASF275
C:\Users\SOLDER~1\AppData\Local\Temp\ccEQi33f.s:30582  .debug_str:000000000002ad35 .LASF276
C:\Users\SOLDER~1\AppData\Local\Temp\ccEQi33f.s:28532  .debug_str:00000000000226ae .LASF277
C:\Users\SOLDER~1\AppData\Local\Temp\ccEQi33f.s:29472  .debug_str:0000000000026506 .LASF278
C:\Users\SOLDER~1\AppData\Local\Temp\ccEQi33f.s:21696  .debug_str:0000000000006a5f .LASF279
C:\Users\SOLDER~1\AppData\Local\Temp\ccEQi33f.s:21476  .debug_str:0000000000005be9 .LASF280
C:\Users\SOLDER~1\AppData\Local\Temp\ccEQi33f.s:21362  .debug_str:000000000000545c .LASF281
C:\Users\SOLDER~1\AppData\Local\Temp\ccEQi33f.s:26046  .debug_str:00000000000185fb .LASF282
C:\Users\SOLDER~1\AppData\Local\Temp\ccEQi33f.s:29442  .debug_str:0000000000026309 .LASF283
C:\Users\SOLDER~1\AppData\Local\Temp\ccEQi33f.s:29700  .debug_str:00000000000273fd .LASF284
C:\Users\SOLDER~1\AppData\Local\Temp\ccEQi33f.s:30560  .debug_str:000000000002abef .LASF285
C:\Users\SOLDER~1\AppData\Local\Temp\ccEQi33f.s:27236  .debug_str:000000000001d343 .LASF286
C:\Users\SOLDER~1\AppData\Local\Temp\ccEQi33f.s:31350  .debug_str:000000000002df0d .LASF287
C:\Users\SOLDER~1\AppData\Local\Temp\ccEQi33f.s:21450  .debug_str:0000000000005a2b .LASF288
C:\Users\SOLDER~1\AppData\Local\Temp\ccEQi33f.s:25242  .debug_str:00000000000152c9 .LASF289
C:\Users\SOLDER~1\AppData\Local\Temp\ccEQi33f.s:24120  .debug_str:0000000000010926 .LASF290
C:\Users\SOLDER~1\AppData\Local\Temp\ccEQi33f.s:31592  .debug_str:000000000002ee65 .LASF291
C:\Users\SOLDER~1\AppData\Local\Temp\ccEQi33f.s:30402  .debug_str:000000000002a1d4 .LASF292
C:\Users\SOLDER~1\AppData\Local\Temp\ccEQi33f.s:21288  .debug_str:0000000000004fce .LASF293
GAS LISTING C:\Users\SOLDER~1\AppData\Local\Temp\ccEQi33f.s 			page 48


C:\Users\SOLDER~1\AppData\Local\Temp\ccEQi33f.s:20096  .debug_str:0000000000000290 .LASF294
C:\Users\SOLDER~1\AppData\Local\Temp\ccEQi33f.s:25292  .debug_str:0000000000015624 .LASF295
C:\Users\SOLDER~1\AppData\Local\Temp\ccEQi33f.s:26120  .debug_str:0000000000018ab9 .LASF296
C:\Users\SOLDER~1\AppData\Local\Temp\ccEQi33f.s:23530  .debug_str:000000000000e2f0 .LASF297
C:\Users\SOLDER~1\AppData\Local\Temp\ccEQi33f.s:24064  .debug_str:0000000000010593 .LASF298
C:\Users\SOLDER~1\AppData\Local\Temp\ccEQi33f.s:26824  .debug_str:000000000001b779 .LASF299
C:\Users\SOLDER~1\AppData\Local\Temp\ccEQi33f.s:25362  .debug_str:0000000000015a63 .LASF300
C:\Users\SOLDER~1\AppData\Local\Temp\ccEQi33f.s:24794  .debug_str:0000000000013440 .LASF301
C:\Users\SOLDER~1\AppData\Local\Temp\ccEQi33f.s:20622  .debug_str:00000000000025a9 .LASF302
C:\Users\SOLDER~1\AppData\Local\Temp\ccEQi33f.s:23194  .debug_str:000000000000ccb9 .LASF303
C:\Users\SOLDER~1\AppData\Local\Temp\ccEQi33f.s:28610  .debug_str:0000000000022c0b .LASF304
C:\Users\SOLDER~1\AppData\Local\Temp\ccEQi33f.s:24084  .debug_str:00000000000106a5 .LASF305
C:\Users\SOLDER~1\AppData\Local\Temp\ccEQi33f.s:29462  .debug_str:0000000000026475 .LASF306
C:\Users\SOLDER~1\AppData\Local\Temp\ccEQi33f.s:29052  .debug_str:0000000000024906 .LASF307
C:\Users\SOLDER~1\AppData\Local\Temp\ccEQi33f.s:27250  .debug_str:000000000001d439 .LASF308
C:\Users\SOLDER~1\AppData\Local\Temp\ccEQi33f.s:21072  .debug_str:0000000000004272 .LASF309
C:\Users\SOLDER~1\AppData\Local\Temp\ccEQi33f.s:27614  .debug_str:000000000001eb7e .LASF310
C:\Users\SOLDER~1\AppData\Local\Temp\ccEQi33f.s:23314  .debug_str:000000000000d4aa .LASF311
C:\Users\SOLDER~1\AppData\Local\Temp\ccEQi33f.s:24620  .debug_str:000000000001289c .LASF312
C:\Users\SOLDER~1\AppData\Local\Temp\ccEQi33f.s:22472  .debug_str:0000000000009d13 .LASF313
C:\Users\SOLDER~1\AppData\Local\Temp\ccEQi33f.s:25056  .debug_str:000000000001469c .LASF314
C:\Users\SOLDER~1\AppData\Local\Temp\ccEQi33f.s:21914  .debug_str:000000000000785b .LASF315
C:\Users\SOLDER~1\AppData\Local\Temp\ccEQi33f.s:27322  .debug_str:000000000001d882 .LASF316
C:\Users\SOLDER~1\AppData\Local\Temp\ccEQi33f.s:29786  .debug_str:0000000000027972 .LASF317
C:\Users\SOLDER~1\AppData\Local\Temp\ccEQi33f.s:29056  .debug_str:000000000002494d .LASF319
C:\Users\SOLDER~1\AppData\Local\Temp\ccEQi33f.s:23922  .debug_str:000000000000fc65 .LASF320
C:\Users\SOLDER~1\AppData\Local\Temp\ccEQi33f.s:25212  .debug_str:00000000000150c2 .LASF321
C:\Users\SOLDER~1\AppData\Local\Temp\ccEQi33f.s:27656  .debug_str:000000000001ee2b .LASF322
C:\Users\SOLDER~1\AppData\Local\Temp\ccEQi33f.s:26478  .debug_str:000000000001a165 .LASF323
C:\Users\SOLDER~1\AppData\Local\Temp\ccEQi33f.s:23208  .debug_str:000000000000cda4 .LASF324
C:\Users\SOLDER~1\AppData\Local\Temp\ccEQi33f.s:21446  .debug_str:00000000000059f2 .LASF325
C:\Users\SOLDER~1\AppData\Local\Temp\ccEQi33f.s:20178  .debug_str:0000000000000872 .LASF326
C:\Users\SOLDER~1\AppData\Local\Temp\ccEQi33f.s:30406  .debug_str:000000000002a219 .LASF327
C:\Users\SOLDER~1\AppData\Local\Temp\ccEQi33f.s:23284  .debug_str:000000000000d2a8 .LASF328
C:\Users\SOLDER~1\AppData\Local\Temp\ccEQi33f.s:31276  .debug_str:000000000002da47 .LASF329
C:\Users\SOLDER~1\AppData\Local\Temp\ccEQi33f.s:21074  .debug_str:0000000000004286 .LASF330
C:\Users\SOLDER~1\AppData\Local\Temp\ccEQi33f.s:21120  .debug_str:000000000000454e .LASF331
C:\Users\SOLDER~1\AppData\Local\Temp\ccEQi33f.s:20108  .debug_str:0000000000000351 .LASF332
C:\Users\SOLDER~1\AppData\Local\Temp\ccEQi33f.s:25462  .debug_str:00000000000160a5 .LASF333
C:\Users\SOLDER~1\AppData\Local\Temp\ccEQi33f.s:28082  .debug_str:00000000000209c7 .LASF334
C:\Users\SOLDER~1\AppData\Local\Temp\ccEQi33f.s:26358  .debug_str:00000000000199e5 .LASF335
C:\Users\SOLDER~1\AppData\Local\Temp\ccEQi33f.s:26218  .debug_str:0000000000019138 .LASF339
C:\Users\SOLDER~1\AppData\Local\Temp\ccEQi33f.s:26760  .debug_str:000000000001b393 .LASF340
C:\Users\SOLDER~1\AppData\Local\Temp\ccEQi33f.s:22776  .debug_str:000000000000b11a .LASF341
C:\Users\SOLDER~1\AppData\Local\Temp\ccEQi33f.s:25990  .debug_str:0000000000018266 .LASF342
C:\Users\SOLDER~1\AppData\Local\Temp\ccEQi33f.s:26204  .debug_str:000000000001905e .LASF343
C:\Users\SOLDER~1\AppData\Local\Temp\ccEQi33f.s:20666  .debug_str:0000000000002866 .LASF344
C:\Users\SOLDER~1\AppData\Local\Temp\ccEQi33f.s:22818  .debug_str:000000000000b3b7 .LASF345
C:\Users\SOLDER~1\AppData\Local\Temp\ccEQi33f.s:20986  .debug_str:0000000000003d03 .LASF346
C:\Users\SOLDER~1\AppData\Local\Temp\ccEQi33f.s:30934  .debug_str:000000000002c449 .LASF347
C:\Users\SOLDER~1\AppData\Local\Temp\ccEQi33f.s:25548  .debug_str:0000000000016601 .LASF348
C:\Users\SOLDER~1\AppData\Local\Temp\ccEQi33f.s:28014  .debug_str:0000000000020577 .LASF349
C:\Users\SOLDER~1\AppData\Local\Temp\ccEQi33f.s:22300  .debug_str:00000000000091ee .LASF350
C:\Users\SOLDER~1\AppData\Local\Temp\ccEQi33f.s:26056  .debug_str:0000000000018692 .LASF351
C:\Users\SOLDER~1\AppData\Local\Temp\ccEQi33f.s:31266  .debug_str:000000000002d9b0 .LASF352
C:\Users\SOLDER~1\AppData\Local\Temp\ccEQi33f.s:22752  .debug_str:000000000000afaf .LASF353
C:\Users\SOLDER~1\AppData\Local\Temp\ccEQi33f.s:23834  .debug_str:000000000000f635 .LASF354
GAS LISTING C:\Users\SOLDER~1\AppData\Local\Temp\ccEQi33f.s 			page 49


C:\Users\SOLDER~1\AppData\Local\Temp\ccEQi33f.s:27264  .debug_str:000000000001d525 .LASF355
C:\Users\SOLDER~1\AppData\Local\Temp\ccEQi33f.s:25460  .debug_str:0000000000016095 .LASF356
C:\Users\SOLDER~1\AppData\Local\Temp\ccEQi33f.s:25602  .debug_str:000000000001696c .LASF357
C:\Users\SOLDER~1\AppData\Local\Temp\ccEQi33f.s:28654  .debug_str:0000000000022ebf .LASF358
C:\Users\SOLDER~1\AppData\Local\Temp\ccEQi33f.s:24678  .debug_str:0000000000012ccd .LASF359
C:\Users\SOLDER~1\AppData\Local\Temp\ccEQi33f.s:25666  .debug_str:0000000000016d30 .LASF360
C:\Users\SOLDER~1\AppData\Local\Temp\ccEQi33f.s:28766  .debug_str:000000000002365b .LASF361
C:\Users\SOLDER~1\AppData\Local\Temp\ccEQi33f.s:21808  .debug_str:00000000000071e0 .LASF362
C:\Users\SOLDER~1\AppData\Local\Temp\ccEQi33f.s:30534  .debug_str:000000000002aa27 .LASF363
C:\Users\SOLDER~1\AppData\Local\Temp\ccEQi33f.s:21332  .debug_str:0000000000005285 .LASF364
C:\Users\SOLDER~1\AppData\Local\Temp\ccEQi33f.s:26140  .debug_str:0000000000018c19 .LASF365
C:\Users\SOLDER~1\AppData\Local\Temp\ccEQi33f.s:21902  .debug_str:00000000000077a0 .LASF366
C:\Users\SOLDER~1\AppData\Local\Temp\ccEQi33f.s:22836  .debug_str:000000000000b519 .LASF367
C:\Users\SOLDER~1\AppData\Local\Temp\ccEQi33f.s:20068  .debug_str:00000000000000f0 .LASF368
C:\Users\SOLDER~1\AppData\Local\Temp\ccEQi33f.s:27964  .debug_str:0000000000020229 .LASF369
C:\Users\SOLDER~1\AppData\Local\Temp\ccEQi33f.s:23520  .debug_str:000000000000e243 .LASF370
C:\Users\SOLDER~1\AppData\Local\Temp\ccEQi33f.s:28960  .debug_str:00000000000242e8 .LASF371
C:\Users\SOLDER~1\AppData\Local\Temp\ccEQi33f.s:27898  .debug_str:000000000001fdf8 .LASF372
C:\Users\SOLDER~1\AppData\Local\Temp\ccEQi33f.s:24274  .debug_str:00000000000112b7 .LASF373
C:\Users\SOLDER~1\AppData\Local\Temp\ccEQi33f.s:31412  .debug_str:000000000002e2e6 .LASF374
C:\Users\SOLDER~1\AppData\Local\Temp\ccEQi33f.s:31348  .debug_str:000000000002df07 .LASF375
C:\Users\SOLDER~1\AppData\Local\Temp\ccEQi33f.s:22084  .debug_str:00000000000083ce .LASF376
C:\Users\SOLDER~1\AppData\Local\Temp\ccEQi33f.s:30436  .debug_str:000000000002a405 .LASF377
C:\Users\SOLDER~1\AppData\Local\Temp\ccEQi33f.s:25446  .debug_str:0000000000015fb8 .LASF378
C:\Users\SOLDER~1\AppData\Local\Temp\ccEQi33f.s:29226  .debug_str:0000000000025403 .LASF379
C:\Users\SOLDER~1\AppData\Local\Temp\ccEQi33f.s:30234  .debug_str:00000000000296c8 .LASF380
C:\Users\SOLDER~1\AppData\Local\Temp\ccEQi33f.s:28690  .debug_str:000000000002312c .LASF381
C:\Users\SOLDER~1\AppData\Local\Temp\ccEQi33f.s:25642  .debug_str:0000000000016bd3 .LASF382
C:\Users\SOLDER~1\AppData\Local\Temp\ccEQi33f.s:30262  .debug_str:0000000000029851 .LASF383
C:\Users\SOLDER~1\AppData\Local\Temp\ccEQi33f.s:26986  .debug_str:000000000001c242 .LASF384
C:\Users\SOLDER~1\AppData\Local\Temp\ccEQi33f.s:24374  .debug_str:0000000000011959 .LASF385
C:\Users\SOLDER~1\AppData\Local\Temp\ccEQi33f.s:28812  .debug_str:0000000000023934 .LASF386
C:\Users\SOLDER~1\AppData\Local\Temp\ccEQi33f.s:27808  .debug_str:000000000001f861 .LASF387
C:\Users\SOLDER~1\AppData\Local\Temp\ccEQi33f.s:20420  .debug_str:000000000000186f .LASF388
C:\Users\SOLDER~1\AppData\Local\Temp\ccEQi33f.s:21090  .debug_str:0000000000004377 .LASF389
C:\Users\SOLDER~1\AppData\Local\Temp\ccEQi33f.s:21504  .debug_str:0000000000005db4 .LASF390
C:\Users\SOLDER~1\AppData\Local\Temp\ccEQi33f.s:22676  .debug_str:000000000000aad0 .LASF391
C:\Users\SOLDER~1\AppData\Local\Temp\ccEQi33f.s:22152  .debug_str:00000000000087ff .LASF392
C:\Users\SOLDER~1\AppData\Local\Temp\ccEQi33f.s:27504  .debug_str:000000000001e435 .LASF393
C:\Users\SOLDER~1\AppData\Local\Temp\ccEQi33f.s:28152  .debug_str:0000000000020e6c .LASF394
C:\Users\SOLDER~1\AppData\Local\Temp\ccEQi33f.s:28286  .debug_str:0000000000021731 .LASF395
C:\Users\SOLDER~1\AppData\Local\Temp\ccEQi33f.s:22306  .debug_str:0000000000009244 .LASF396
C:\Users\SOLDER~1\AppData\Local\Temp\ccEQi33f.s:21892  .debug_str:000000000000771f .LASF397
C:\Users\SOLDER~1\AppData\Local\Temp\ccEQi33f.s:27318  .debug_str:000000000001d85e .LASF398
C:\Users\SOLDER~1\AppData\Local\Temp\ccEQi33f.s:29944  .debug_str:00000000000283df .LASF399
C:\Users\SOLDER~1\AppData\Local\Temp\ccEQi33f.s:24592  .debug_str:0000000000012704 .LASF400
C:\Users\SOLDER~1\AppData\Local\Temp\ccEQi33f.s:25346  .debug_str:0000000000015958 .LASF401
C:\Users\SOLDER~1\AppData\Local\Temp\ccEQi33f.s:23176  .debug_str:000000000000cb84 .LASF402
C:\Users\SOLDER~1\AppData\Local\Temp\ccEQi33f.s:27014  .debug_str:000000000001c429 .LASF403
C:\Users\SOLDER~1\AppData\Local\Temp\ccEQi33f.s:25556  .debug_str:000000000001666e .LASF404
C:\Users\SOLDER~1\AppData\Local\Temp\ccEQi33f.s:26006  .debug_str:0000000000018365 .LASF405
C:\Users\SOLDER~1\AppData\Local\Temp\ccEQi33f.s:22208  .debug_str:0000000000008b98 .LASF406
C:\Users\SOLDER~1\AppData\Local\Temp\ccEQi33f.s:30884  .debug_str:000000000002c126 .LASF407
C:\Users\SOLDER~1\AppData\Local\Temp\ccEQi33f.s:24904  .debug_str:0000000000013c12 .LASF408
C:\Users\SOLDER~1\AppData\Local\Temp\ccEQi33f.s:27348  .debug_str:000000000001da1f .LASF409
C:\Users\SOLDER~1\AppData\Local\Temp\ccEQi33f.s:23748  .debug_str:000000000000f093 .LASF410
C:\Users\SOLDER~1\AppData\Local\Temp\ccEQi33f.s:28048  .debug_str:0000000000020793 .LASF411
GAS LISTING C:\Users\SOLDER~1\AppData\Local\Temp\ccEQi33f.s 			page 50


C:\Users\SOLDER~1\AppData\Local\Temp\ccEQi33f.s:30010  .debug_str:0000000000028838 .LASF412
C:\Users\SOLDER~1\AppData\Local\Temp\ccEQi33f.s:24442  .debug_str:0000000000011d7d .LASF413
C:\Users\SOLDER~1\AppData\Local\Temp\ccEQi33f.s:24432  .debug_str:0000000000011cf3 .LASF414
C:\Users\SOLDER~1\AppData\Local\Temp\ccEQi33f.s:26420  .debug_str:0000000000019dd5 .LASF415
C:\Users\SOLDER~1\AppData\Local\Temp\ccEQi33f.s:31446  .debug_str:000000000002e51d .LASF416
C:\Users\SOLDER~1\AppData\Local\Temp\ccEQi33f.s:31584  .debug_str:000000000002edec .LASF417
C:\Users\SOLDER~1\AppData\Local\Temp\ccEQi33f.s:21966  .debug_str:0000000000007bde .LASF418
C:\Users\SOLDER~1\AppData\Local\Temp\ccEQi33f.s:23036  .debug_str:000000000000c1bb .LASF419
C:\Users\SOLDER~1\AppData\Local\Temp\ccEQi33f.s:20604  .debug_str:0000000000002476 .LASF420
C:\Users\SOLDER~1\AppData\Local\Temp\ccEQi33f.s:28102  .debug_str:0000000000020b1a .LASF421
C:\Users\SOLDER~1\AppData\Local\Temp\ccEQi33f.s:28788  .debug_str:00000000000237bb .LASF422
C:\Users\SOLDER~1\AppData\Local\Temp\ccEQi33f.s:20536  .debug_str:0000000000001fde .LASF423
C:\Users\SOLDER~1\AppData\Local\Temp\ccEQi33f.s:24834  .debug_str:00000000000136f9 .LASF424
C:\Users\SOLDER~1\AppData\Local\Temp\ccEQi33f.s:28038  .debug_str:00000000000206eb .LASF425
C:\Users\SOLDER~1\AppData\Local\Temp\ccEQi33f.s:24422  .debug_str:0000000000011c6f .LASF426
C:\Users\SOLDER~1\AppData\Local\Temp\ccEQi33f.s:31566  .debug_str:000000000002eccc .LASF427
C:\Users\SOLDER~1\AppData\Local\Temp\ccEQi33f.s:27026  .debug_str:000000000001c4de .LASF428
C:\Users\SOLDER~1\AppData\Local\Temp\ccEQi33f.s:21346  .debug_str:0000000000005374 .LASF429
C:\Users\SOLDER~1\AppData\Local\Temp\ccEQi33f.s:29168  .debug_str:0000000000025068 .LASF430
C:\Users\SOLDER~1\AppData\Local\Temp\ccEQi33f.s:24768  .debug_str:0000000000013281 .LASF431
C:\Users\SOLDER~1\AppData\Local\Temp\ccEQi33f.s:29080  .debug_str:0000000000024aee .LASF432
C:\Users\SOLDER~1\AppData\Local\Temp\ccEQi33f.s:21256  .debug_str:0000000000004ded .LASF433
C:\Users\SOLDER~1\AppData\Local\Temp\ccEQi33f.s:23722  .debug_str:000000000000ef0a .LASF434
C:\Users\SOLDER~1\AppData\Local\Temp\ccEQi33f.s:27932  .debug_str:0000000000020031 .LASF435
C:\Users\SOLDER~1\AppData\Local\Temp\ccEQi33f.s:20224  .debug_str:0000000000000bcf .LASF436
C:\Users\SOLDER~1\AppData\Local\Temp\ccEQi33f.s:23218  .debug_str:000000000000ce52 .LASF437
C:\Users\SOLDER~1\AppData\Local\Temp\ccEQi33f.s:25184  .debug_str:0000000000014f03 .LASF438
C:\Users\SOLDER~1\AppData\Local\Temp\ccEQi33f.s:21334  .debug_str:000000000000529a .LASF439
C:\Users\SOLDER~1\AppData\Local\Temp\ccEQi33f.s:24492  .debug_str:000000000001209a .LASF440
C:\Users\SOLDER~1\AppData\Local\Temp\ccEQi33f.s:30200  .debug_str:0000000000029491 .LASF441
C:\Users\SOLDER~1\AppData\Local\Temp\ccEQi33f.s:22864  .debug_str:000000000000b6b8 .LASF442
C:\Users\SOLDER~1\AppData\Local\Temp\ccEQi33f.s:27074  .debug_str:000000000001c82d .LASF443
C:\Users\SOLDER~1\AppData\Local\Temp\ccEQi33f.s:30756  .debug_str:000000000002b865 .LASF444
C:\Users\SOLDER~1\AppData\Local\Temp\ccEQi33f.s:24634  .debug_str:00000000000129ae .LASF445
C:\Users\SOLDER~1\AppData\Local\Temp\ccEQi33f.s:24050  .debug_str:00000000000104b9 .LASF446
C:\Users\SOLDER~1\AppData\Local\Temp\ccEQi33f.s:27830  .debug_str:000000000001f9b9 .LASF447
C:\Users\SOLDER~1\AppData\Local\Temp\ccEQi33f.s:22206  .debug_str:0000000000008b7e .LASF448
C:\Users\SOLDER~1\AppData\Local\Temp\ccEQi33f.s:27422  .debug_str:000000000001df29 .LASF449
C:\Users\SOLDER~1\AppData\Local\Temp\ccEQi33f.s:23714  .debug_str:000000000000ee91 .LASF450
C:\Users\SOLDER~1\AppData\Local\Temp\ccEQi33f.s:30170  .debug_str:0000000000029275 .LASF451
C:\Users\SOLDER~1\AppData\Local\Temp\ccEQi33f.s:24348  .debug_str:0000000000011787 .LASF452
C:\Users\SOLDER~1\AppData\Local\Temp\ccEQi33f.s:20788  .debug_str:000000000000303e .LASF453
C:\Users\SOLDER~1\AppData\Local\Temp\ccEQi33f.s:20370  .debug_str:0000000000001534 .LASF454
C:\Users\SOLDER~1\AppData\Local\Temp\ccEQi33f.s:28540  .debug_str:000000000002272f .LASF455
C:\Users\SOLDER~1\AppData\Local\Temp\ccEQi33f.s:29440  .debug_str:00000000000262de .LASF456
C:\Users\SOLDER~1\AppData\Local\Temp\ccEQi33f.s:23238  .debug_str:000000000000cf8b .LASF457
C:\Users\SOLDER~1\AppData\Local\Temp\ccEQi33f.s:23556  .debug_str:000000000000e482 .LASF458
C:\Users\SOLDER~1\AppData\Local\Temp\ccEQi33f.s:30068  .debug_str:0000000000028bd1 .LASF459
C:\Users\SOLDER~1\AppData\Local\Temp\ccEQi33f.s:31002  .debug_str:000000000002c874 .LASF460
C:\Users\SOLDER~1\AppData\Local\Temp\ccEQi33f.s:20356  .debug_str:000000000000143f .LASF461
C:\Users\SOLDER~1\AppData\Local\Temp\ccEQi33f.s:22846  .debug_str:000000000000b5a2 .LASF462
C:\Users\SOLDER~1\AppData\Local\Temp\ccEQi33f.s:29398  .debug_str:0000000000025fd9 .LASF463
C:\Users\SOLDER~1\AppData\Local\Temp\ccEQi33f.s:26758  .debug_str:000000000001b36d .LASF464
C:\Users\SOLDER~1\AppData\Local\Temp\ccEQi33f.s:29922  .debug_str:0000000000028262 .LASF465
C:\Users\SOLDER~1\AppData\Local\Temp\ccEQi33f.s:25932  .debug_str:0000000000017ea2 .LASF466
C:\Users\SOLDER~1\AppData\Local\Temp\ccEQi33f.s:28334  .debug_str:0000000000021a52 .LASF467
C:\Users\SOLDER~1\AppData\Local\Temp\ccEQi33f.s:26976  .debug_str:000000000001c18b .LASF468
GAS LISTING C:\Users\SOLDER~1\AppData\Local\Temp\ccEQi33f.s 			page 51


C:\Users\SOLDER~1\AppData\Local\Temp\ccEQi33f.s:20462  .debug_str:0000000000001afd .LASF469
C:\Users\SOLDER~1\AppData\Local\Temp\ccEQi33f.s:25372  .debug_str:0000000000015ae0 .LASF470
C:\Users\SOLDER~1\AppData\Local\Temp\ccEQi33f.s:27914  .debug_str:000000000001fef8 .LASF471
C:\Users\SOLDER~1\AppData\Local\Temp\ccEQi33f.s:31256  .debug_str:000000000002d90f .LASF472
C:\Users\SOLDER~1\AppData\Local\Temp\ccEQi33f.s:31500  .debug_str:000000000002e8d3 .LASF473
C:\Users\SOLDER~1\AppData\Local\Temp\ccEQi33f.s:31352  .debug_str:000000000002df2f .LASF474
C:\Users\SOLDER~1\AppData\Local\Temp\ccEQi33f.s:29432  .debug_str:0000000000026238 .LASF475
C:\Users\SOLDER~1\AppData\Local\Temp\ccEQi33f.s:26984  .debug_str:000000000001c21b .LASF476
C:\Users\SOLDER~1\AppData\Local\Temp\ccEQi33f.s:26540  .debug_str:000000000001a562 .LASF477
C:\Users\SOLDER~1\AppData\Local\Temp\ccEQi33f.s:25618  .debug_str:0000000000016a76 .LASF478
C:\Users\SOLDER~1\AppData\Local\Temp\ccEQi33f.s:29536  .debug_str:000000000002692b .LASF479
C:\Users\SOLDER~1\AppData\Local\Temp\ccEQi33f.s:31596  .debug_str:000000000002ee9b .LASF480
C:\Users\SOLDER~1\AppData\Local\Temp\ccEQi33f.s:28346  .debug_str:0000000000021b22 .LASF481
C:\Users\SOLDER~1\AppData\Local\Temp\ccEQi33f.s:29630  .debug_str:0000000000026f72 .LASF482
C:\Users\SOLDER~1\AppData\Local\Temp\ccEQi33f.s:23498  .debug_str:000000000000e0b5 .LASF483
C:\Users\SOLDER~1\AppData\Local\Temp\ccEQi33f.s:26696  .debug_str:000000000001afa0 .LASF484
C:\Users\SOLDER~1\AppData\Local\Temp\ccEQi33f.s:26610  .debug_str:000000000001aa01 .LASF485
C:\Users\SOLDER~1\AppData\Local\Temp\ccEQi33f.s:29748  .debug_str:0000000000027714 .LASF486
C:\Users\SOLDER~1\AppData\Local\Temp\ccEQi33f.s:27172  .debug_str:000000000001ced9 .LASF487
C:\Users\SOLDER~1\AppData\Local\Temp\ccEQi33f.s:23974  .debug_str:000000000000ffca .LASF488
C:\Users\SOLDER~1\AppData\Local\Temp\ccEQi33f.s:26096  .debug_str:000000000001890b .LASF489
C:\Users\SOLDER~1\AppData\Local\Temp\ccEQi33f.s:21280  .debug_str:0000000000004f47 .LASF490
C:\Users\SOLDER~1\AppData\Local\Temp\ccEQi33f.s:24324  .debug_str:0000000000011609 .LASF491
C:\Users\SOLDER~1\AppData\Local\Temp\ccEQi33f.s:23300  .debug_str:000000000000d3b9 .LASF492
C:\Users\SOLDER~1\AppData\Local\Temp\ccEQi33f.s:28650  .debug_str:0000000000022e88 .LASF494
C:\Users\SOLDER~1\AppData\Local\Temp\ccEQi33f.s:22372  .debug_str:000000000000968c .LASF495
C:\Users\SOLDER~1\AppData\Local\Temp\ccEQi33f.s:25834  .debug_str:0000000000017820 .LASF496
C:\Users\SOLDER~1\AppData\Local\Temp\ccEQi33f.s:27428  .debug_str:000000000001df82 .LASF497
C:\Users\SOLDER~1\AppData\Local\Temp\ccEQi33f.s:26762  .debug_str:000000000001b3ab .LASF498
C:\Users\SOLDER~1\AppData\Local\Temp\ccEQi33f.s:26862  .debug_str:000000000001b9f1 .LASF499
C:\Users\SOLDER~1\AppData\Local\Temp\ccEQi33f.s:23560  .debug_str:000000000000e4c3 .LASF500
C:\Users\SOLDER~1\AppData\Local\Temp\ccEQi33f.s:21176  .debug_str:0000000000004910 .LASF501
C:\Users\SOLDER~1\AppData\Local\Temp\ccEQi33f.s:24476  .debug_str:0000000000011fa3 .LASF502
C:\Users\SOLDER~1\AppData\Local\Temp\ccEQi33f.s:29132  .debug_str:0000000000024e37 .LASF503
C:\Users\SOLDER~1\AppData\Local\Temp\ccEQi33f.s:25330  .debug_str:0000000000015832 .LASF504
C:\Users\SOLDER~1\AppData\Local\Temp\ccEQi33f.s:20078  .debug_str:0000000000000175 .LASF505
C:\Users\SOLDER~1\AppData\Local\Temp\ccEQi33f.s:23378  .debug_str:000000000000d8c4 .LASF506
C:\Users\SOLDER~1\AppData\Local\Temp\ccEQi33f.s:31316  .debug_str:000000000002dce2 .LASF507
C:\Users\SOLDER~1\AppData\Local\Temp\ccEQi33f.s:30242  .debug_str:000000000002971f .LASF508
C:\Users\SOLDER~1\AppData\Local\Temp\ccEQi33f.s:24862  .debug_str:00000000000138eb .LASF509
C:\Users\SOLDER~1\AppData\Local\Temp\ccEQi33f.s:25786  .debug_str:0000000000017523 .LASF510
C:\Users\SOLDER~1\AppData\Local\Temp\ccEQi33f.s:25170  .debug_str:0000000000014e2f .LASF511
C:\Users\SOLDER~1\AppData\Local\Temp\ccEQi33f.s:26236  .debug_str:000000000001922d .LASF512
C:\Users\SOLDER~1\AppData\Local\Temp\ccEQi33f.s:28076  .debug_str:000000000002095c .LASF513
C:\Users\SOLDER~1\AppData\Local\Temp\ccEQi33f.s:27094  .debug_str:000000000001c990 .LASF514
C:\Users\SOLDER~1\AppData\Local\Temp\ccEQi33f.s:22762  .debug_str:000000000000b047 .LASF515
C:\Users\SOLDER~1\AppData\Local\Temp\ccEQi33f.s:30856  .debug_str:000000000002befb .LASF516
C:\Users\SOLDER~1\AppData\Local\Temp\ccEQi33f.s:27338  .debug_str:000000000001d975 .LASF517
C:\Users\SOLDER~1\AppData\Local\Temp\ccEQi33f.s:30724  .debug_str:000000000002b68b .LASF518
C:\Users\SOLDER~1\AppData\Local\Temp\ccEQi33f.s:29324  .debug_str:0000000000025ab2 .LASF519
C:\Users\SOLDER~1\AppData\Local\Temp\ccEQi33f.s:26508  .debug_str:000000000001a371 .LASF520
C:\Users\SOLDER~1\AppData\Local\Temp\ccEQi33f.s:21594  .debug_str:0000000000006392 .LASF521
C:\Users\SOLDER~1\AppData\Local\Temp\ccEQi33f.s:28694  .debug_str:000000000002315d .LASF522
C:\Users\SOLDER~1\AppData\Local\Temp\ccEQi33f.s:22534  .debug_str:000000000000a134 .LASF523
C:\Users\SOLDER~1\AppData\Local\Temp\ccEQi33f.s:20568  .debug_str:0000000000002207 .LASF524
C:\Users\SOLDER~1\AppData\Local\Temp\ccEQi33f.s:27390  .debug_str:000000000001dcf7 .LASF525
C:\Users\SOLDER~1\AppData\Local\Temp\ccEQi33f.s:23434  .debug_str:000000000000dc3c .LASF526
GAS LISTING C:\Users\SOLDER~1\AppData\Local\Temp\ccEQi33f.s 			page 52


C:\Users\SOLDER~1\AppData\Local\Temp\ccEQi33f.s:25188  .debug_str:0000000000014f3f .LASF527
C:\Users\SOLDER~1\AppData\Local\Temp\ccEQi33f.s:23472  .debug_str:000000000000debc .LASF528
C:\Users\SOLDER~1\AppData\Local\Temp\ccEQi33f.s:22262  .debug_str:0000000000008f53 .LASF529
C:\Users\SOLDER~1\AppData\Local\Temp\ccEQi33f.s:21906  .debug_str:00000000000077d9 .LASF530
C:\Users\SOLDER~1\AppData\Local\Temp\ccEQi33f.s:23072  .debug_str:000000000000c443 .LASF531
C:\Users\SOLDER~1\AppData\Local\Temp\ccEQi33f.s:29678  .debug_str:0000000000027285 .LASF532
C:\Users\SOLDER~1\AppData\Local\Temp\ccEQi33f.s:31462  .debug_str:000000000002e614 .LASF533
C:\Users\SOLDER~1\AppData\Local\Temp\ccEQi33f.s:24498  .debug_str:000000000001210a .LASF534
C:\Users\SOLDER~1\AppData\Local\Temp\ccEQi33f.s:30848  .debug_str:000000000002be6d .LASF535
C:\Users\SOLDER~1\AppData\Local\Temp\ccEQi33f.s:26978  .debug_str:000000000001c1b4 .LASF536
C:\Users\SOLDER~1\AppData\Local\Temp\ccEQi33f.s:23386  .debug_str:000000000000d93a .LASF537
C:\Users\SOLDER~1\AppData\Local\Temp\ccEQi33f.s:26756  .debug_str:000000000001b347 .LASF538
C:\Users\SOLDER~1\AppData\Local\Temp\ccEQi33f.s:21164  .debug_str:000000000000483f .LASF539
C:\Users\SOLDER~1\AppData\Local\Temp\ccEQi33f.s:28746  .debug_str:0000000000023503 .LASF540
C:\Users\SOLDER~1\AppData\Local\Temp\ccEQi33f.s:26802  .debug_str:000000000001b62a .LASF541
C:\Users\SOLDER~1\AppData\Local\Temp\ccEQi33f.s:30940  .debug_str:000000000002c492 .LASF542
C:\Users\SOLDER~1\AppData\Local\Temp\ccEQi33f.s:22892  .debug_str:000000000000b825 .LASF543
C:\Users\SOLDER~1\AppData\Local\Temp\ccEQi33f.s:29654  .debug_str:00000000000270ee .LASF544
C:\Users\SOLDER~1\AppData\Local\Temp\ccEQi33f.s:28884  .debug_str:0000000000023dd0 .LASF545
C:\Users\SOLDER~1\AppData\Local\Temp\ccEQi33f.s:27658  .debug_str:000000000001ee4d .LASF546
C:\Users\SOLDER~1\AppData\Local\Temp\ccEQi33f.s:29870  .debug_str:0000000000027f13 .LASF547
C:\Users\SOLDER~1\AppData\Local\Temp\ccEQi33f.s:27866  .debug_str:000000000001fbfb .LASF548
C:\Users\SOLDER~1\AppData\Local\Temp\ccEQi33f.s:25986  .debug_str:000000000001821b .LASF549
C:\Users\SOLDER~1\AppData\Local\Temp\ccEQi33f.s:24692  .debug_str:0000000000012da4 .LASF550
C:\Users\SOLDER~1\AppData\Local\Temp\ccEQi33f.s:28292  .debug_str:000000000002177b .LASF551
C:\Users\SOLDER~1\AppData\Local\Temp\ccEQi33f.s:24930  .debug_str:0000000000013dd0 .LASF552
C:\Users\SOLDER~1\AppData\Local\Temp\ccEQi33f.s:27528  .debug_str:000000000001e5ee .LASF553
C:\Users\SOLDER~1\AppData\Local\Temp\ccEQi33f.s:25472  .debug_str:000000000001614d .LASF554
C:\Users\SOLDER~1\AppData\Local\Temp\ccEQi33f.s:20396  .debug_str:00000000000016da .LASF555
C:\Users\SOLDER~1\AppData\Local\Temp\ccEQi33f.s:24222  .debug_str:0000000000010f73 .LASF556
C:\Users\SOLDER~1\AppData\Local\Temp\ccEQi33f.s:21554  .debug_str:0000000000006105 .LASF557
C:\Users\SOLDER~1\AppData\Local\Temp\ccEQi33f.s:24122  .debug_str:0000000000010943 .LASF558
C:\Users\SOLDER~1\AppData\Local\Temp\ccEQi33f.s:23986  .debug_str:0000000000010062 .LASF559
C:\Users\SOLDER~1\AppData\Local\Temp\ccEQi33f.s:20488  .debug_str:0000000000001ce1 .LASF560
C:\Users\SOLDER~1\AppData\Local\Temp\ccEQi33f.s:29198  .debug_str:000000000002524f .LASF561
C:\Users\SOLDER~1\AppData\Local\Temp\ccEQi33f.s:31138  .debug_str:000000000002d196 .LASF562
C:\Users\SOLDER~1\AppData\Local\Temp\ccEQi33f.s:31374  .debug_str:000000000002e081 .LASF563
C:\Users\SOLDER~1\AppData\Local\Temp\ccEQi33f.s:23456  .debug_str:000000000000dda3 .LASF564
C:\Users\SOLDER~1\AppData\Local\Temp\ccEQi33f.s:20302  .debug_str:00000000000010cc .LASF565
C:\Users\SOLDER~1\AppData\Local\Temp\ccEQi33f.s:28794  .debug_str:000000000002381b .LASF566
C:\Users\SOLDER~1\AppData\Local\Temp\ccEQi33f.s:26682  .debug_str:000000000001aede .LASF567
C:\Users\SOLDER~1\AppData\Local\Temp\ccEQi33f.s:26916  .debug_str:000000000001bd76 .LASF568
C:\Users\SOLDER~1\AppData\Local\Temp\ccEQi33f.s:20518  .debug_str:0000000000001ebb .LASF569
C:\Users\SOLDER~1\AppData\Local\Temp\ccEQi33f.s:25274  .debug_str:00000000000154ee .LASF570
C:\Users\SOLDER~1\AppData\Local\Temp\ccEQi33f.s:28982  .debug_str:0000000000024449 .LASF571
C:\Users\SOLDER~1\AppData\Local\Temp\ccEQi33f.s:23774  .debug_str:000000000000f23b .LASF572
C:\Users\SOLDER~1\AppData\Local\Temp\ccEQi33f.s:25712  .debug_str:000000000001702c .LASF573
C:\Users\SOLDER~1\AppData\Local\Temp\ccEQi33f.s:23590  .debug_str:000000000000e69c .LASF574
C:\Users\SOLDER~1\AppData\Local\Temp\ccEQi33f.s:25606  .debug_str:00000000000169a2 .LASF575
C:\Users\SOLDER~1\AppData\Local\Temp\ccEQi33f.s:24718  .debug_str:0000000000012f5c .LASF576
C:\Users\SOLDER~1\AppData\Local\Temp\ccEQi33f.s:24680  .debug_str:0000000000012cde .LASF577
C:\Users\SOLDER~1\AppData\Local\Temp\ccEQi33f.s:31212  .debug_str:000000000002d629 .LASF578
C:\Users\SOLDER~1\AppData\Local\Temp\ccEQi33f.s:26162  .debug_str:0000000000018da6 .LASF579
C:\Users\SOLDER~1\AppData\Local\Temp\ccEQi33f.s:29400  .debug_str:0000000000025ffd .LASF580
C:\Users\SOLDER~1\AppData\Local\Temp\ccEQi33f.s:21160  .debug_str:0000000000004801 .LASF581
C:\Users\SOLDER~1\AppData\Local\Temp\ccEQi33f.s:24458  .debug_str:0000000000011e85 .LASF582
C:\Users\SOLDER~1\AppData\Local\Temp\ccEQi33f.s:27678  .debug_str:000000000001efae .LASF583
GAS LISTING C:\Users\SOLDER~1\AppData\Local\Temp\ccEQi33f.s 			page 53


C:\Users\SOLDER~1\AppData\Local\Temp\ccEQi33f.s:30978  .debug_str:000000000002c700 .LASF584
C:\Users\SOLDER~1\AppData\Local\Temp\ccEQi33f.s:22710  .debug_str:000000000000acc1 .LASF585
C:\Users\SOLDER~1\AppData\Local\Temp\ccEQi33f.s:30508  .debug_str:000000000002a85c .LASF586
C:\Users\SOLDER~1\AppData\Local\Temp\ccEQi33f.s:29410  .debug_str:00000000000260b1 .LASF587
C:\Users\SOLDER~1\AppData\Local\Temp\ccEQi33f.s:24614  .debug_str:000000000001282f .LASF588
C:\Users\SOLDER~1\AppData\Local\Temp\ccEQi33f.s:26538  .debug_str:000000000001a541 .LASF589
C:\Users\SOLDER~1\AppData\Local\Temp\ccEQi33f.s:28684  .debug_str:00000000000230c6 .LASF590
C:\Users\SOLDER~1\AppData\Local\Temp\ccEQi33f.s:25638  .debug_str:0000000000016b93 .LASF591
C:\Users\SOLDER~1\AppData\Local\Temp\ccEQi33f.s:30124  .debug_str:0000000000028f59 .LASF592
C:\Users\SOLDER~1\AppData\Local\Temp\ccEQi33f.s:27234  .debug_str:000000000001d323 .LASF593
C:\Users\SOLDER~1\AppData\Local\Temp\ccEQi33f.s:25930  .debug_str:0000000000017e68 .LASF594
C:\Users\SOLDER~1\AppData\Local\Temp\ccEQi33f.s:31306  .debug_str:000000000002dc22 .LASF595
C:\Users\SOLDER~1\AppData\Local\Temp\ccEQi33f.s:22722  .debug_str:000000000000ada1 .LASF596
C:\Users\SOLDER~1\AppData\Local\Temp\ccEQi33f.s:30734  .debug_str:000000000002b6fb .LASF597
C:\Users\SOLDER~1\AppData\Local\Temp\ccEQi33f.s:24656  .debug_str:0000000000012b1c .LASF598
C:\Users\SOLDER~1\AppData\Local\Temp\ccEQi33f.s:30138  .debug_str:0000000000029054 .LASF599
C:\Users\SOLDER~1\AppData\Local\Temp\ccEQi33f.s:24100  .debug_str:00000000000107b5 .LASF600
C:\Users\SOLDER~1\AppData\Local\Temp\ccEQi33f.s:29458  .debug_str:0000000000026413 .LASF601
C:\Users\SOLDER~1\AppData\Local\Temp\ccEQi33f.s:29562  .debug_str:0000000000026b04 .LASF602
C:\Users\SOLDER~1\AppData\Local\Temp\ccEQi33f.s:23460  .debug_str:000000000000dde8 .LASF603
C:\Users\SOLDER~1\AppData\Local\Temp\ccEQi33f.s:23252  .debug_str:000000000000d099 .LASF604
C:\Users\SOLDER~1\AppData\Local\Temp\ccEQi33f.s:27314  .debug_str:000000000001d821 .LASF605
C:\Users\SOLDER~1\AppData\Local\Temp\ccEQi33f.s:29232  .debug_str:000000000002545e .LASF606
C:\Users\SOLDER~1\AppData\Local\Temp\ccEQi33f.s:25718  .debug_str:000000000001709a .LASF607
C:\Users\SOLDER~1\AppData\Local\Temp\ccEQi33f.s:28442  .debug_str:00000000000220f7 .LASF608
C:\Users\SOLDER~1\AppData\Local\Temp\ccEQi33f.s:30820  .debug_str:000000000002bc75 .LASF609
C:\Users\SOLDER~1\AppData\Local\Temp\ccEQi33f.s:22346  .debug_str:00000000000094fd .LASF610
C:\Users\SOLDER~1\AppData\Local\Temp\ccEQi33f.s:24390  .debug_str:0000000000011a3d .LASF611
C:\Users\SOLDER~1\AppData\Local\Temp\ccEQi33f.s:24668  .debug_str:0000000000012c0d .LASF612
C:\Users\SOLDER~1\AppData\Local\Temp\ccEQi33f.s:27308  .debug_str:000000000001d7cc .LASF613
C:\Users\SOLDER~1\AppData\Local\Temp\ccEQi33f.s:21792  .debug_str:00000000000070f0 .LASF614
C:\Users\SOLDER~1\AppData\Local\Temp\ccEQi33f.s:20532  .debug_str:0000000000001fb8 .LASF615
C:\Users\SOLDER~1\AppData\Local\Temp\ccEQi33f.s:25790  .debug_str:000000000001756c .LASF616
C:\Users\SOLDER~1\AppData\Local\Temp\ccEQi33f.s:21396  .debug_str:0000000000005668 .LASF617
C:\Users\SOLDER~1\AppData\Local\Temp\ccEQi33f.s:29154  .debug_str:0000000000024f95 .LASF618
C:\Users\SOLDER~1\AppData\Local\Temp\ccEQi33f.s:24174  .debug_str:0000000000010c61 .LASF619
C:\Users\SOLDER~1\AppData\Local\Temp\ccEQi33f.s:27436  .debug_str:000000000001dfff .LASF620
C:\Users\SOLDER~1\AppData\Local\Temp\ccEQi33f.s:20912  .debug_str:000000000000383f .LASF621
C:\Users\SOLDER~1\AppData\Local\Temp\ccEQi33f.s:25336  .debug_str:00000000000158a3 .LASF622
C:\Users\SOLDER~1\AppData\Local\Temp\ccEQi33f.s:26408  .debug_str:0000000000019cff .LASF623
C:\Users\SOLDER~1\AppData\Local\Temp\ccEQi33f.s:24266  .debug_str:0000000000011239 .LASF624
C:\Users\SOLDER~1\AppData\Local\Temp\ccEQi33f.s:26990  .debug_str:000000000001c26b .LASF625
C:\Users\SOLDER~1\AppData\Local\Temp\ccEQi33f.s:21758  .debug_str:0000000000006e7a .LASF626
C:\Users\SOLDER~1\AppData\Local\Temp\ccEQi33f.s:21716  .debug_str:0000000000006ba9 .LASF627
C:\Users\SOLDER~1\AppData\Local\Temp\ccEQi33f.s:26646  .debug_str:000000000001acaf .LASF628
C:\Users\SOLDER~1\AppData\Local\Temp\ccEQi33f.s:23464  .debug_str:000000000000de32 .LASF629
C:\Users\SOLDER~1\AppData\Local\Temp\ccEQi33f.s:27936  .debug_str:0000000000020070 .LASF630
C:\Users\SOLDER~1\AppData\Local\Temp\ccEQi33f.s:26910  .debug_str:000000000001bd1d .LASF631
C:\Users\SOLDER~1\AppData\Local\Temp\ccEQi33f.s:27924  .debug_str:000000000001ffab .LASF632
C:\Users\SOLDER~1\AppData\Local\Temp\ccEQi33f.s:26374  .debug_str:0000000000019af0 .LASF633
C:\Users\SOLDER~1\AppData\Local\Temp\ccEQi33f.s:29956  .debug_str:0000000000028495 .LASF634
C:\Users\SOLDER~1\AppData\Local\Temp\ccEQi33f.s:25136  .debug_str:0000000000014c01 .LASF635
C:\Users\SOLDER~1\AppData\Local\Temp\ccEQi33f.s:26876  .debug_str:000000000001bad7 .LASF636
C:\Users\SOLDER~1\AppData\Local\Temp\ccEQi33f.s:29032  .debug_str:00000000000247a7 .LASF637
C:\Users\SOLDER~1\AppData\Local\Temp\ccEQi33f.s:20500  .debug_str:0000000000001da2 .LASF638
C:\Users\SOLDER~1\AppData\Local\Temp\ccEQi33f.s:30828  .debug_str:000000000002bd0a .LASF639
C:\Users\SOLDER~1\AppData\Local\Temp\ccEQi33f.s:24720  .debug_str:0000000000012f7a .LASF640
GAS LISTING C:\Users\SOLDER~1\AppData\Local\Temp\ccEQi33f.s 			page 54


C:\Users\SOLDER~1\AppData\Local\Temp\ccEQi33f.s:25740  .debug_str:0000000000017219 .LASF641
C:\Users\SOLDER~1\AppData\Local\Temp\ccEQi33f.s:25650  .debug_str:0000000000016c3f .LASF642
C:\Users\SOLDER~1\AppData\Local\Temp\ccEQi33f.s:27008  .debug_str:000000000001c3bd .LASF643
C:\Users\SOLDER~1\AppData\Local\Temp\ccEQi33f.s:21622  .debug_str:000000000000656f .LASF644
C:\Users\SOLDER~1\AppData\Local\Temp\ccEQi33f.s:28976  .debug_str:00000000000243eb .LASF645
C:\Users\SOLDER~1\AppData\Local\Temp\ccEQi33f.s:25700  .debug_str:0000000000016f59 .LASF646
C:\Users\SOLDER~1\AppData\Local\Temp\ccEQi33f.s:23598  .debug_str:000000000000e71f .LASF647
C:\Users\SOLDER~1\AppData\Local\Temp\ccEQi33f.s:25130  .debug_str:0000000000014b87 .LASF648
C:\Users\SOLDER~1\AppData\Local\Temp\ccEQi33f.s:23684  .debug_str:000000000000ec9c .LASF649
C:\Users\SOLDER~1\AppData\Local\Temp\ccEQi33f.s:30310  .debug_str:0000000000029b69 .LASF650
C:\Users\SOLDER~1\AppData\Local\Temp\ccEQi33f.s:26546  .debug_str:000000000001a5c1 .LASF651
C:\Users\SOLDER~1\AppData\Local\Temp\ccEQi33f.s:22200  .debug_str:0000000000008b25 .LASF652
C:\Users\SOLDER~1\AppData\Local\Temp\ccEQi33f.s:26150  .debug_str:0000000000018cc7 .LASF653
C:\Users\SOLDER~1\AppData\Local\Temp\ccEQi33f.s:25450  .debug_str:0000000000015fe1 .LASF654
C:\Users\SOLDER~1\AppData\Local\Temp\ccEQi33f.s:31326  .debug_str:000000000002dd86 .LASF655
C:\Users\SOLDER~1\AppData\Local\Temp\ccEQi33f.s:26196  .debug_str:0000000000018fe2 .LASF656
C:\Users\SOLDER~1\AppData\Local\Temp\ccEQi33f.s:30588  .debug_str:000000000002ad8c .LASF657
C:\Users\SOLDER~1\AppData\Local\Temp\ccEQi33f.s:29954  .debug_str:0000000000028474 .LASF658
C:\Users\SOLDER~1\AppData\Local\Temp\ccEQi33f.s:28748  .debug_str:0000000000023528 .LASF659
C:\Users\SOLDER~1\AppData\Local\Temp\ccEQi33f.s:28776  .debug_str:000000000002370b .LASF660
C:\Users\SOLDER~1\AppData\Local\Temp\ccEQi33f.s:30984  .debug_str:000000000002c777 .LASF661
C:\Users\SOLDER~1\AppData\Local\Temp\ccEQi33f.s:23474  .debug_str:000000000000dee0 .LASF662
C:\Users\SOLDER~1\AppData\Local\Temp\ccEQi33f.s:22794  .debug_str:000000000000b22f .LASF663
C:\Users\SOLDER~1\AppData\Local\Temp\ccEQi33f.s:30260  .debug_str:0000000000029832 .LASF664
C:\Users\SOLDER~1\AppData\Local\Temp\ccEQi33f.s:27458  .debug_str:000000000001e178 .LASF665
C:\Users\SOLDER~1\AppData\Local\Temp\ccEQi33f.s:27732  .debug_str:000000000001f364 .LASF666
C:\Users\SOLDER~1\AppData\Local\Temp\ccEQi33f.s:27748  .debug_str:000000000001f488 .LASF667
C:\Users\SOLDER~1\AppData\Local\Temp\ccEQi33f.s:21678  .debug_str:000000000000695e .LASF668
C:\Users\SOLDER~1\AppData\Local\Temp\ccEQi33f.s:28810  .debug_str:0000000000023920 .LASF669
C:\Users\SOLDER~1\AppData\Local\Temp\ccEQi33f.s:29826  .debug_str:0000000000027c31 .LASF670
C:\Users\SOLDER~1\AppData\Local\Temp\ccEQi33f.s:31294  .debug_str:000000000002db72 .LASF671
C:\Users\SOLDER~1\AppData\Local\Temp\ccEQi33f.s:30580  .debug_str:000000000002ad12 .LASF672
C:\Users\SOLDER~1\AppData\Local\Temp\ccEQi33f.s:26846  .debug_str:000000000001b8cd .LASF673
C:\Users\SOLDER~1\AppData\Local\Temp\ccEQi33f.s:22990  .debug_str:000000000000be8c .LASF674
C:\Users\SOLDER~1\AppData\Local\Temp\ccEQi33f.s:20946  .debug_str:0000000000003a6f .LASF675
C:\Users\SOLDER~1\AppData\Local\Temp\ccEQi33f.s:24130  .debug_str:00000000000109c4 .LASF676
C:\Users\SOLDER~1\AppData\Local\Temp\ccEQi33f.s:26552  .debug_str:000000000001a631 .LASF677
C:\Users\SOLDER~1\AppData\Local\Temp\ccEQi33f.s:29634  .debug_str:0000000000026fa4 .LASF678
C:\Users\SOLDER~1\AppData\Local\Temp\ccEQi33f.s:30908  .debug_str:000000000002c2a0 .LASF679
C:\Users\SOLDER~1\AppData\Local\Temp\ccEQi33f.s:25864  .debug_str:0000000000017a12 .LASF680
C:\Users\SOLDER~1\AppData\Local\Temp\ccEQi33f.s:27380  .debug_str:000000000001dc39 .LASF681
C:\Users\SOLDER~1\AppData\Local\Temp\ccEQi33f.s:24670  .debug_str:0000000000012c25 .LASF682
C:\Users\SOLDER~1\AppData\Local\Temp\ccEQi33f.s:25586  .debug_str:000000000001685a .LASF683
C:\Users\SOLDER~1\AppData\Local\Temp\ccEQi33f.s:22150  .debug_str:00000000000087dc .LASF684
C:\Users\SOLDER~1\AppData\Local\Temp\ccEQi33f.s:27156  .debug_str:000000000001cdd4 .LASF685
C:\Users\SOLDER~1\AppData\Local\Temp\ccEQi33f.s:27694  .debug_str:000000000001f0cd .LASF686
C:\Users\SOLDER~1\AppData\Local\Temp\ccEQi33f.s:20464  .debug_str:0000000000001b21 .LASF687
C:\Users\SOLDER~1\AppData\Local\Temp\ccEQi33f.s:27470  .debug_str:000000000001e22a .LASF688
C:\Users\SOLDER~1\AppData\Local\Temp\ccEQi33f.s:30792  .debug_str:000000000002baad .LASF689
C:\Users\SOLDER~1\AppData\Local\Temp\ccEQi33f.s:20082  .debug_str:00000000000001a7 .LASF690
C:\Users\SOLDER~1\AppData\Local\Temp\ccEQi33f.s:27958  .debug_str:00000000000201cb .LASF691
C:\Users\SOLDER~1\AppData\Local\Temp\ccEQi33f.s:27910  .debug_str:000000000001feb2 .LASF692
C:\Users\SOLDER~1\AppData\Local\Temp\ccEQi33f.s:22248  .debug_str:0000000000008e60 .LASF693
C:\Users\SOLDER~1\AppData\Local\Temp\ccEQi33f.s:27660  .debug_str:000000000001ee7a .LASF694
C:\Users\SOLDER~1\AppData\Local\Temp\ccEQi33f.s:22232  .debug_str:0000000000008d46 .LASF695
C:\Users\SOLDER~1\AppData\Local\Temp\ccEQi33f.s:27166  .debug_str:000000000001ce82 .LASF696
C:\Users\SOLDER~1\AppData\Local\Temp\ccEQi33f.s:29816  .debug_str:0000000000027b6e .LASF697
GAS LISTING C:\Users\SOLDER~1\AppData\Local\Temp\ccEQi33f.s 			page 55


C:\Users\SOLDER~1\AppData\Local\Temp\ccEQi33f.s:30602  .debug_str:000000000002ae55 .LASF698
C:\Users\SOLDER~1\AppData\Local\Temp\ccEQi33f.s:23616  .debug_str:000000000000e876 .LASF699
C:\Users\SOLDER~1\AppData\Local\Temp\ccEQi33f.s:31296  .debug_str:000000000002db88 .LASF700
C:\Users\SOLDER~1\AppData\Local\Temp\ccEQi33f.s:26406  .debug_str:0000000000019cec .LASF701
C:\Users\SOLDER~1\AppData\Local\Temp\ccEQi33f.s:20882  .debug_str:0000000000003641 .LASF702
C:\Users\SOLDER~1\AppData\Local\Temp\ccEQi33f.s:28886  .debug_str:0000000000023dfd .LASF703
C:\Users\SOLDER~1\AppData\Local\Temp\ccEQi33f.s:26880  .debug_str:000000000001bb02 .LASF704
C:\Users\SOLDER~1\AppData\Local\Temp\ccEQi33f.s:29868  .debug_str:0000000000027ef0 .LASF705
C:\Users\SOLDER~1\AppData\Local\Temp\ccEQi33f.s:25622  .debug_str:0000000000016aba .LASF706
C:\Users\SOLDER~1\AppData\Local\Temp\ccEQi33f.s:22944  .debug_str:000000000000bbbc .LASF707
C:\Users\SOLDER~1\AppData\Local\Temp\ccEQi33f.s:28488  .debug_str:00000000000223a9 .LASF708
C:\Users\SOLDER~1\AppData\Local\Temp\ccEQi33f.s:27952  .debug_str:0000000000020162 .LASF709
C:\Users\SOLDER~1\AppData\Local\Temp\ccEQi33f.s:20898  .debug_str:000000000000373d .LASF710
C:\Users\SOLDER~1\AppData\Local\Temp\ccEQi33f.s:29366  .debug_str:0000000000025d8b .LASF711
C:\Users\SOLDER~1\AppData\Local\Temp\ccEQi33f.s:28676  .debug_str:0000000000023032 .LASF712
C:\Users\SOLDER~1\AppData\Local\Temp\ccEQi33f.s:22014  .debug_str:0000000000007f1e .LASF713
C:\Users\SOLDER~1\AppData\Local\Temp\ccEQi33f.s:29710  .debug_str:000000000002749b .LASF714
C:\Users\SOLDER~1\AppData\Local\Temp\ccEQi33f.s:27676  .debug_str:000000000001ef8b .LASF715
C:\Users\SOLDER~1\AppData\Local\Temp\ccEQi33f.s:28824  .debug_str:00000000000239d5 .LASF716
C:\Users\SOLDER~1\AppData\Local\Temp\ccEQi33f.s:24154  .debug_str:0000000000010b25 .LASF717
C:\Users\SOLDER~1\AppData\Local\Temp\ccEQi33f.s:31336  .debug_str:000000000002de33 .LASF718
C:\Users\SOLDER~1\AppData\Local\Temp\ccEQi33f.s:26582  .debug_str:000000000001a84f .LASF719
C:\Users\SOLDER~1\AppData\Local\Temp\ccEQi33f.s:24584  .debug_str:0000000000012680 .LASF720
C:\Users\SOLDER~1\AppData\Local\Temp\ccEQi33f.s:28230  .debug_str:000000000002139e .LASF721
C:\Users\SOLDER~1\AppData\Local\Temp\ccEQi33f.s:26376  .debug_str:0000000000019b12 .LASF722
C:\Users\SOLDER~1\AppData\Local\Temp\ccEQi33f.s:28274  .debug_str:000000000002166a .LASF723
C:\Users\SOLDER~1\AppData\Local\Temp\ccEQi33f.s:25512  .debug_str:00000000000163c8 .LASF724
C:\Users\SOLDER~1\AppData\Local\Temp\ccEQi33f.s:24756  .debug_str:00000000000131cc .LASF725
C:\Users\SOLDER~1\AppData\Local\Temp\ccEQi33f.s:30478  .debug_str:000000000002a6d1 .LASF726
C:\Users\SOLDER~1\AppData\Local\Temp\ccEQi33f.s:24940  .debug_str:0000000000013e85 .LASF727
C:\Users\SOLDER~1\AppData\Local\Temp\ccEQi33f.s:20218  .debug_str:0000000000000b60 .LASF728
C:\Users\SOLDER~1\AppData\Local\Temp\ccEQi33f.s:23374  .debug_str:000000000000d87c .LASF729
C:\Users\SOLDER~1\AppData\Local\Temp\ccEQi33f.s:28104  .debug_str:0000000000020b2f .LASF730
C:\Users\SOLDER~1\AppData\Local\Temp\ccEQi33f.s:26828  .debug_str:000000000001b7b2 .LASF731
C:\Users\SOLDER~1\AppData\Local\Temp\ccEQi33f.s:21842  .debug_str:0000000000007410 .LASF732
C:\Users\SOLDER~1\AppData\Local\Temp\ccEQi33f.s:22454  .debug_str:0000000000009bcf .LASF733
C:\Users\SOLDER~1\AppData\Local\Temp\ccEQi33f.s:28472  .debug_str:0000000000022297 .LASF734
C:\Users\SOLDER~1\AppData\Local\Temp\ccEQi33f.s:28404  .debug_str:0000000000021eab .LASF735
C:\Users\SOLDER~1\AppData\Local\Temp\ccEQi33f.s:26064  .debug_str:000000000001870d .LASF736
C:\Users\SOLDER~1\AppData\Local\Temp\ccEQi33f.s:22938  .debug_str:000000000000bb47 .LASF737
C:\Users\SOLDER~1\AppData\Local\Temp\ccEQi33f.s:31466  .debug_str:000000000002e656 .LASF738
C:\Users\SOLDER~1\AppData\Local\Temp\ccEQi33f.s:23162  .debug_str:000000000000ca8e .LASF739
C:\Users\SOLDER~1\AppData\Local\Temp\ccEQi33f.s:20570  .debug_str:000000000000222d .LASF740
C:\Users\SOLDER~1\AppData\Local\Temp\ccEQi33f.s:25246  .debug_str:000000000001530d .LASF741
C:\Users\SOLDER~1\AppData\Local\Temp\ccEQi33f.s:22926  .debug_str:000000000000ba6b .LASF742
C:\Users\SOLDER~1\AppData\Local\Temp\ccEQi33f.s:29742  .debug_str:00000000000276b7 .LASF743
C:\Users\SOLDER~1\AppData\Local\Temp\ccEQi33f.s:26394  .debug_str:0000000000019c43 .LASF744
C:\Users\SOLDER~1\AppData\Local\Temp\ccEQi33f.s:24520  .debug_str:0000000000012257 .LASF745
C:\Users\SOLDER~1\AppData\Local\Temp\ccEQi33f.s:27826  .debug_str:000000000001f97c .LASF746
C:\Users\SOLDER~1\AppData\Local\Temp\ccEQi33f.s:28398  .debug_str:0000000000021e45 .LASF747
C:\Users\SOLDER~1\AppData\Local\Temp\ccEQi33f.s:29332  .debug_str:0000000000025b26 .LASF748
C:\Users\SOLDER~1\AppData\Local\Temp\ccEQi33f.s:28764  .debug_str:0000000000023639 .LASF749
C:\Users\SOLDER~1\AppData\Local\Temp\ccEQi33f.s:21742  .debug_str:0000000000006d41 .LASF750
C:\Users\SOLDER~1\AppData\Local\Temp\ccEQi33f.s:21242  .debug_str:0000000000004d24 .LASF751
C:\Users\SOLDER~1\AppData\Local\Temp\ccEQi33f.s:22624  .debug_str:000000000000a74c .LASF752
C:\Users\SOLDER~1\AppData\Local\Temp\ccEQi33f.s:22840  .debug_str:000000000000b544 .LASF753
C:\Users\SOLDER~1\AppData\Local\Temp\ccEQi33f.s:30566  .debug_str:000000000002ac48 .LASF754
GAS LISTING C:\Users\SOLDER~1\AppData\Local\Temp\ccEQi33f.s 			page 56


C:\Users\SOLDER~1\AppData\Local\Temp\ccEQi33f.s:28484  .debug_str:000000000002236e .LASF755
C:\Users\SOLDER~1\AppData\Local\Temp\ccEQi33f.s:20718  .debug_str:0000000000002bae .LASF756
C:\Users\SOLDER~1\AppData\Local\Temp\ccEQi33f.s:29772  .debug_str:000000000002789c .LASF757
C:\Users\SOLDER~1\AppData\Local\Temp\ccEQi33f.s:20602  .debug_str:0000000000002454 .LASF758
C:\Users\SOLDER~1\AppData\Local\Temp\ccEQi33f.s:26324  .debug_str:00000000000197b2 .LASF759
C:\Users\SOLDER~1\AppData\Local\Temp\ccEQi33f.s:25452  .debug_str:0000000000016006 .LASF760
C:\Users\SOLDER~1\AppData\Local\Temp\ccEQi33f.s:20118  .debug_str:00000000000003fb .LASF761
C:\Users\SOLDER~1\AppData\Local\Temp\ccEQi33f.s:20300  .debug_str:00000000000010ac .LASF762
C:\Users\SOLDER~1\AppData\Local\Temp\ccEQi33f.s:28864  .debug_str:0000000000023c87 .LASF763
C:\Users\SOLDER~1\AppData\Local\Temp\ccEQi33f.s:29172  .debug_str:00000000000250a6 .LASF764
C:\Users\SOLDER~1\AppData\Local\Temp\ccEQi33f.s:21508  .debug_str:0000000000005de4 .LASF765
C:\Users\SOLDER~1\AppData\Local\Temp\ccEQi33f.s:22316  .debug_str:00000000000092f8 .LASF766
C:\Users\SOLDER~1\AppData\Local\Temp\ccEQi33f.s:30314  .debug_str:0000000000029baa .LASF767
C:\Users\SOLDER~1\AppData\Local\Temp\ccEQi33f.s:20246  .debug_str:0000000000000d60 .LASF768
C:\Users\SOLDER~1\AppData\Local\Temp\ccEQi33f.s:25038  .debug_str:0000000000014552 .LASF769
C:\Users\SOLDER~1\AppData\Local\Temp\ccEQi33f.s:27030  .debug_str:000000000001c51b .LASF770
C:\Users\SOLDER~1\AppData\Local\Temp\ccEQi33f.s:21798  .debug_str:0000000000007147 .LASF771
C:\Users\SOLDER~1\AppData\Local\Temp\ccEQi33f.s:21480  .debug_str:0000000000005c18 .LASF772
C:\Users\SOLDER~1\AppData\Local\Temp\ccEQi33f.s:23044  .debug_str:000000000000c236 .LASF773
C:\Users\SOLDER~1\AppData\Local\Temp\ccEQi33f.s:20620  .debug_str:0000000000002587 .LASF774
C:\Users\SOLDER~1\AppData\Local\Temp\ccEQi33f.s:21282  .debug_str:0000000000004f61 .LASF775
C:\Users\SOLDER~1\AppData\Local\Temp\ccEQi33f.s:21264  .debug_str:0000000000004e72 .LASF776
C:\Users\SOLDER~1\AppData\Local\Temp\ccEQi33f.s:21530  .debug_str:0000000000005f2a .LASF777
C:\Users\SOLDER~1\AppData\Local\Temp\ccEQi33f.s:30468  .debug_str:000000000002a631 .LASF778
C:\Users\SOLDER~1\AppData\Local\Temp\ccEQi33f.s:27260  .debug_str:000000000001d4de .LASF779
C:\Users\SOLDER~1\AppData\Local\Temp\ccEQi33f.s:26386  .debug_str:0000000000019bbd .LASF780
C:\Users\SOLDER~1\AppData\Local\Temp\ccEQi33f.s:28240  .debug_str:0000000000021438 .LASF781
C:\Users\SOLDER~1\AppData\Local\Temp\ccEQi33f.s:22104  .debug_str:0000000000008502 .LASF782
C:\Users\SOLDER~1\AppData\Local\Temp\ccEQi33f.s:31608  .debug_str:000000000002ef70 .LASF783
C:\Users\SOLDER~1\AppData\Local\Temp\ccEQi33f.s:20460  .debug_str:0000000000001add .LASF784
C:\Users\SOLDER~1\AppData\Local\Temp\ccEQi33f.s:23336  .debug_str:000000000000d5f6 .LASF785
C:\Users\SOLDER~1\AppData\Local\Temp\ccEQi33f.s:21794  .debug_str:0000000000007108 .LASF786
C:\Users\SOLDER~1\AppData\Local\Temp\ccEQi33f.s:26684  .debug_str:000000000001aeff .LASF787
C:\Users\SOLDER~1\AppData\Local\Temp\ccEQi33f.s:28672  .debug_str:0000000000022ff1 .LASF788
C:\Users\SOLDER~1\AppData\Local\Temp\ccEQi33f.s:25866  .debug_str:0000000000017a36 .LASF789
C:\Users\SOLDER~1\AppData\Local\Temp\ccEQi33f.s:31268  .debug_str:000000000002d9bf .LASF790
C:\Users\SOLDER~1\AppData\Local\Temp\ccEQi33f.s:26202  .debug_str:000000000001904e .LASF791
C:\Users\SOLDER~1\AppData\Local\Temp\ccEQi33f.s:31560  .debug_str:000000000002ec7b .LASF792
C:\Users\SOLDER~1\AppData\Local\Temp\ccEQi33f.s:24326  .debug_str:0000000000011623 .LASF793
C:\Users\SOLDER~1\AppData\Local\Temp\ccEQi33f.s:29404  .debug_str:0000000000026043 .LASF794
C:\Users\SOLDER~1\AppData\Local\Temp\ccEQi33f.s:29830  .debug_str:0000000000027c7b .LASF795
C:\Users\SOLDER~1\AppData\Local\Temp\ccEQi33f.s:23018  .debug_str:000000000000c072 .LASF796
C:\Users\SOLDER~1\AppData\Local\Temp\ccEQi33f.s:29862  .debug_str:0000000000027e97 .LASF797
C:\Users\SOLDER~1\AppData\Local\Temp\ccEQi33f.s:25234  .debug_str:000000000001524c .LASF798
C:\Users\SOLDER~1\AppData\Local\Temp\ccEQi33f.s:25200  .debug_str:0000000000014fe1 .LASF799
C:\Users\SOLDER~1\AppData\Local\Temp\ccEQi33f.s:24648  .debug_str:0000000000012a9c .LASF800
C:\Users\SOLDER~1\AppData\Local\Temp\ccEQi33f.s:23078  .debug_str:000000000000c4a9 .LASF801
C:\Users\SOLDER~1\AppData\Local\Temp\ccEQi33f.s:27728  .debug_str:000000000001f320 .LASF802
C:\Users\SOLDER~1\AppData\Local\Temp\ccEQi33f.s:31558  .debug_str:000000000002ec59 .LASF803
C:\Users\SOLDER~1\AppData\Local\Temp\ccEQi33f.s:31302  .debug_str:000000000002dbde .LASF804
C:\Users\SOLDER~1\AppData\Local\Temp\ccEQi33f.s:29514  .debug_str:00000000000267be .LASF805
C:\Users\SOLDER~1\AppData\Local\Temp\ccEQi33f.s:20670  .debug_str:00000000000028dc .LASF806
C:\Users\SOLDER~1\AppData\Local\Temp\ccEQi33f.s:29574  .debug_str:0000000000026bde .LASF807
C:\Users\SOLDER~1\AppData\Local\Temp\ccEQi33f.s:29792  .debug_str:00000000000279bd .LASF808
C:\Users\SOLDER~1\AppData\Local\Temp\ccEQi33f.s:21674  .debug_str:000000000000691c .LASF809
C:\Users\SOLDER~1\AppData\Local\Temp\ccEQi33f.s:26448  .debug_str:0000000000019f8c .LASF810
C:\Users\SOLDER~1\AppData\Local\Temp\ccEQi33f.s:25500  .debug_str:000000000001631e .LASF811
GAS LISTING C:\Users\SOLDER~1\AppData\Local\Temp\ccEQi33f.s 			page 57


C:\Users\SOLDER~1\AppData\Local\Temp\ccEQi33f.s:21646  .debug_str:000000000000670a .LASF812
C:\Users\SOLDER~1\AppData\Local\Temp\ccEQi33f.s:31156  .debug_str:000000000002d2aa .LASF813
C:\Users\SOLDER~1\AppData\Local\Temp\ccEQi33f.s:30174  .debug_str:00000000000292d9 .LASF814
C:\Users\SOLDER~1\AppData\Local\Temp\ccEQi33f.s:28394  .debug_str:0000000000021e0c .LASF815
C:\Users\SOLDER~1\AppData\Local\Temp\ccEQi33f.s:30824  .debug_str:000000000002bcc3 .LASF816
C:\Users\SOLDER~1\AppData\Local\Temp\ccEQi33f.s:29694  .debug_str:000000000002739a .LASF817
C:\Users\SOLDER~1\AppData\Local\Temp\ccEQi33f.s:27738  .debug_str:000000000001f3d3 .LASF818
C:\Users\SOLDER~1\AppData\Local\Temp\ccEQi33f.s:29448  .debug_str:0000000000026365 .LASF819
C:\Users\SOLDER~1\AppData\Local\Temp\ccEQi33f.s:26512  .debug_str:000000000001a3b7 .LASF820
C:\Users\SOLDER~1\AppData\Local\Temp\ccEQi33f.s:23206  .debug_str:000000000000cd94 .LASF821
C:\Users\SOLDER~1\AppData\Local\Temp\ccEQi33f.s:28548  .debug_str:00000000000227c1 .LASF822
C:\Users\SOLDER~1\AppData\Local\Temp\ccEQi33f.s:22394  .debug_str:00000000000097f5 .LASF823
C:\Users\SOLDER~1\AppData\Local\Temp\ccEQi33f.s:27342  .debug_str:000000000001d9bd .LASF824
C:\Users\SOLDER~1\AppData\Local\Temp\ccEQi33f.s:23672  .debug_str:000000000000ebbd .LASF825
C:\Users\SOLDER~1\AppData\Local\Temp\ccEQi33f.s:27108  .debug_str:000000000001ca94 .LASF826
C:\Users\SOLDER~1\AppData\Local\Temp\ccEQi33f.s:29740  .debug_str:00000000000276a6 .LASF827
C:\Users\SOLDER~1\AppData\Local\Temp\ccEQi33f.s:25936  .debug_str:0000000000017ee9 .LASF828
C:\Users\SOLDER~1\AppData\Local\Temp\ccEQi33f.s:23236  .debug_str:000000000000cf6a .LASF829
C:\Users\SOLDER~1\AppData\Local\Temp\ccEQi33f.s:29260  .debug_str:0000000000025628 .LASF830
C:\Users\SOLDER~1\AppData\Local\Temp\ccEQi33f.s:23854  .debug_str:000000000000f77e .LASF831
C:\Users\SOLDER~1\AppData\Local\Temp\ccEQi33f.s:30166  .debug_str:000000000002923b .LASF832
C:\Users\SOLDER~1\AppData\Local\Temp\ccEQi33f.s:22312  .debug_str:00000000000092b2 .LASF833
C:\Users\SOLDER~1\AppData\Local\Temp\ccEQi33f.s:30058  .debug_str:0000000000028b34 .LASF834
C:\Users\SOLDER~1\AppData\Local\Temp\ccEQi33f.s:31032  .debug_str:000000000002ca5c .LASF835
C:\Users\SOLDER~1\AppData\Local\Temp\ccEQi33f.s:21014  .debug_str:0000000000003ec1 .LASF836
C:\Users\SOLDER~1\AppData\Local\Temp\ccEQi33f.s:28056  .debug_str:0000000000020805 .LASF837
C:\Users\SOLDER~1\AppData\Local\Temp\ccEQi33f.s:20686  .debug_str:00000000000029e3 .LASF838
C:\Users\SOLDER~1\AppData\Local\Temp\ccEQi33f.s:22928  .debug_str:000000000000ba8b .LASF839
C:\Users\SOLDER~1\AppData\Local\Temp\ccEQi33f.s:21382  .debug_str:0000000000005583 .LASF840
C:\Users\SOLDER~1\AppData\Local\Temp\ccEQi33f.s:24270  .debug_str:000000000001127e .LASF841
C:\Users\SOLDER~1\AppData\Local\Temp\ccEQi33f.s:26230  .debug_str:00000000000191e4 .LASF842
C:\Users\SOLDER~1\AppData\Local\Temp\ccEQi33f.s:26886  .debug_str:000000000001bb63 .LASF843
C:\Users\SOLDER~1\AppData\Local\Temp\ccEQi33f.s:31396  .debug_str:000000000002e1ef .LASF844
C:\Users\SOLDER~1\AppData\Local\Temp\ccEQi33f.s:30418  .debug_str:000000000002a2e5 .LASF845
C:\Users\SOLDER~1\AppData\Local\Temp\ccEQi33f.s:26516  .debug_str:000000000001a3e7 .LASF846
C:\Users\SOLDER~1\AppData\Local\Temp\ccEQi33f.s:24438  .debug_str:0000000000011d41 .LASF847
C:\Users\SOLDER~1\AppData\Local\Temp\ccEQi33f.s:20422  .debug_str:0000000000001878 .LASF848
C:\Users\SOLDER~1\AppData\Local\Temp\ccEQi33f.s:27522  .debug_str:000000000001e579 .LASF849
C:\Users\SOLDER~1\AppData\Local\Temp\ccEQi33f.s:30502  .debug_str:000000000002a821 .LASF850
C:\Users\SOLDER~1\AppData\Local\Temp\ccEQi33f.s:21356  .debug_str:00000000000053f4 .LASF851
C:\Users\SOLDER~1\AppData\Local\Temp\ccEQi33f.s:23764  .debug_str:000000000000f181 .LASF852
C:\Users\SOLDER~1\AppData\Local\Temp\ccEQi33f.s:25448  .debug_str:0000000000015fbf .LASF853
C:\Users\SOLDER~1\AppData\Local\Temp\ccEQi33f.s:22608  .debug_str:000000000000a62f .LASF854
C:\Users\SOLDER~1\AppData\Local\Temp\ccEQi33f.s:23652  .debug_str:000000000000ea94 .LASF855
C:\Users\SOLDER~1\AppData\Local\Temp\ccEQi33f.s:27630  .debug_str:000000000001ec88 .LASF856
C:\Users\SOLDER~1\AppData\Local\Temp\ccEQi33f.s:23686  .debug_str:000000000000ecb2 .LASF857
C:\Users\SOLDER~1\AppData\Local\Temp\ccEQi33f.s:28526  .debug_str:000000000002265d .LASF858
C:\Users\SOLDER~1\AppData\Local\Temp\ccEQi33f.s:20980  .debug_str:0000000000003ca0 .LASF859
C:\Users\SOLDER~1\AppData\Local\Temp\ccEQi33f.s:22986  .debug_str:000000000000be45 .LASF860
C:\Users\SOLDER~1\AppData\Local\Temp\ccEQi33f.s:20700  .debug_str:0000000000002abe .LASF861
C:\Users\SOLDER~1\AppData\Local\Temp\ccEQi33f.s:24254  .debug_str:0000000000011176 .LASF862
C:\Users\SOLDER~1\AppData\Local\Temp\ccEQi33f.s:26590  .debug_str:000000000001a8c3 .LASF863
C:\Users\SOLDER~1\AppData\Local\Temp\ccEQi33f.s:27806  .debug_str:000000000001f83f .LASF864
C:\Users\SOLDER~1\AppData\Local\Temp\ccEQi33f.s:28440  .debug_str:00000000000220d5 .LASF865
C:\Users\SOLDER~1\AppData\Local\Temp\ccEQi33f.s:24060  .debug_str:000000000001054b .LASF866
C:\Users\SOLDER~1\AppData\Local\Temp\ccEQi33f.s:20864  .debug_str:000000000000353b .LASF867
C:\Users\SOLDER~1\AppData\Local\Temp\ccEQi33f.s:31434  .debug_str:000000000002e44d .LASF868
GAS LISTING C:\Users\SOLDER~1\AppData\Local\Temp\ccEQi33f.s 			page 58


C:\Users\SOLDER~1\AppData\Local\Temp\ccEQi33f.s:21292  .debug_str:0000000000005016 .LASF869
C:\Users\SOLDER~1\AppData\Local\Temp\ccEQi33f.s:24936  .debug_str:0000000000013e39 .LASF870
C:\Users\SOLDER~1\AppData\Local\Temp\ccEQi33f.s:30936  .debug_str:000000000002c45b .LASF871
C:\Users\SOLDER~1\AppData\Local\Temp\ccEQi33f.s:25428  .debug_str:0000000000015e60 .LASF872
C:\Users\SOLDER~1\AppData\Local\Temp\ccEQi33f.s:31552  .debug_str:000000000002ec06 .LASF873
C:\Users\SOLDER~1\AppData\Local\Temp\ccEQi33f.s:26956  .debug_str:000000000001c006 .LASF874
C:\Users\SOLDER~1\AppData\Local\Temp\ccEQi33f.s:26208  .debug_str:0000000000019092 .LASF875
C:\Users\SOLDER~1\AppData\Local\Temp\ccEQi33f.s:21606  .debug_str:0000000000006465 .LASF876
C:\Users\SOLDER~1\AppData\Local\Temp\ccEQi33f.s:30114  .debug_str:0000000000028ebf .LASF877
C:\Users\SOLDER~1\AppData\Local\Temp\ccEQi33f.s:28674  .debug_str:0000000000023011 .LASF878
C:\Users\SOLDER~1\AppData\Local\Temp\ccEQi33f.s:24216  .debug_str:0000000000010f02 .LASF879
C:\Users\SOLDER~1\AppData\Local\Temp\ccEQi33f.s:20748  .debug_str:0000000000002da9 .LASF880
C:\Users\SOLDER~1\AppData\Local\Temp\ccEQi33f.s:30610  .debug_str:000000000002aee2 .LASF881
C:\Users\SOLDER~1\AppData\Local\Temp\ccEQi33f.s:21746  .debug_str:0000000000006da7 .LASF882
C:\Users\SOLDER~1\AppData\Local\Temp\ccEQi33f.s:21326  .debug_str:0000000000005231 .LASF883
C:\Users\SOLDER~1\AppData\Local\Temp\ccEQi33f.s:20960  .debug_str:0000000000003b6d .LASF884
C:\Users\SOLDER~1\AppData\Local\Temp\ccEQi33f.s:22996  .debug_str:000000000000befa .LASF885
C:\Users\SOLDER~1\AppData\Local\Temp\ccEQi33f.s:27398  .debug_str:000000000001dd86 .LASF886
C:\Users\SOLDER~1\AppData\Local\Temp\ccEQi33f.s:26486  .debug_str:000000000001a1ea .LASF887
C:\Users\SOLDER~1\AppData\Local\Temp\ccEQi33f.s:22618  .debug_str:000000000000a6e8 .LASF888
C:\Users\SOLDER~1\AppData\Local\Temp\ccEQi33f.s:24152  .debug_str:0000000000010b04 .LASF889
C:\Users\SOLDER~1\AppData\Local\Temp\ccEQi33f.s:30274  .debug_str:000000000002990e .LASF890
C:\Users\SOLDER~1\AppData\Local\Temp\ccEQi33f.s:20128  .debug_str:0000000000000499 .LASF891
C:\Users\SOLDER~1\AppData\Local\Temp\ccEQi33f.s:30790  .debug_str:000000000002ba8c .LASF892
C:\Users\SOLDER~1\AppData\Local\Temp\ccEQi33f.s:30706  .debug_str:000000000002b53b .LASF893
C:\Users\SOLDER~1\AppData\Local\Temp\ccEQi33f.s:28688  .debug_str:000000000002310b .LASF894
C:\Users\SOLDER~1\AppData\Local\Temp\ccEQi33f.s:30290  .debug_str:0000000000029a1d .LASF895
C:\Users\SOLDER~1\AppData\Local\Temp\ccEQi33f.s:31088  .debug_str:000000000002cdf9 .LASF896
C:\Users\SOLDER~1\AppData\Local\Temp\ccEQi33f.s:29864  .debug_str:0000000000027eb9 .LASF897
C:\Users\SOLDER~1\AppData\Local\Temp\ccEQi33f.s:21670  .debug_str:00000000000068d4 .LASF898
C:\Users\SOLDER~1\AppData\Local\Temp\ccEQi33f.s:20146  .debug_str:00000000000005d6 .LASF899
C:\Users\SOLDER~1\AppData\Local\Temp\ccEQi33f.s:21602  .debug_str:000000000000641f .LASF900
C:\Users\SOLDER~1\AppData\Local\Temp\ccEQi33f.s:25968  .debug_str:000000000001810b .LASF901
C:\Users\SOLDER~1\AppData\Local\Temp\ccEQi33f.s:27850  .debug_str:000000000001fb0b .LASF902
C:\Users\SOLDER~1\AppData\Local\Temp\ccEQi33f.s:21820  .debug_str:00000000000072ae .LASF903
C:\Users\SOLDER~1\AppData\Local\Temp\ccEQi33f.s:20872  .debug_str:00000000000035ae .LASF904
C:\Users\SOLDER~1\AppData\Local\Temp\ccEQi33f.s:22952  .debug_str:000000000000bc38 .LASF905
C:\Users\SOLDER~1\AppData\Local\Temp\ccEQi33f.s:21104  .debug_str:0000000000004463 .LASF906
C:\Users\SOLDER~1\AppData\Local\Temp\ccEQi33f.s:21870  .debug_str:00000000000075c8 .LASF907
C:\Users\SOLDER~1\AppData\Local\Temp\ccEQi33f.s:28866  .debug_str:0000000000023ca9 .LASF908
C:\Users\SOLDER~1\AppData\Local\Temp\ccEQi33f.s:25746  .debug_str:000000000001727b .LASF909
C:\Users\SOLDER~1\AppData\Local\Temp\ccEQi33f.s:24818  .debug_str:00000000000135df .LASF910
C:\Users\SOLDER~1\AppData\Local\Temp\ccEQi33f.s:27432  .debug_str:000000000001dfc7 .LASF911
C:\Users\SOLDER~1\AppData\Local\Temp\ccEQi33f.s:21368  .debug_str:00000000000054a9 .LASF912
C:\Users\SOLDER~1\AppData\Local\Temp\ccEQi33f.s:30470  .debug_str:000000000002a653 .LASF913
C:\Users\SOLDER~1\AppData\Local\Temp\ccEQi33f.s:20660  .debug_str:0000000000002805 .LASF914
C:\Users\SOLDER~1\AppData\Local\Temp\ccEQi33f.s:27506  .debug_str:000000000001e445 .LASF915
C:\Users\SOLDER~1\AppData\Local\Temp\ccEQi33f.s:25882  .debug_str:0000000000017b3a .LASF916
C:\Users\SOLDER~1\AppData\Local\Temp\ccEQi33f.s:21168  .debug_str:000000000000488a .LASF917
C:\Users\SOLDER~1\AppData\Local\Temp\ccEQi33f.s:27762  .debug_str:000000000001f585 .LASF918
C:\Users\SOLDER~1\AppData\Local\Temp\ccEQi33f.s:26600  .debug_str:000000000001a94c .LASF919
C:\Users\SOLDER~1\AppData\Local\Temp\ccEQi33f.s:28314  .debug_str:00000000000218fe .LASF920
C:\Users\SOLDER~1\AppData\Local\Temp\ccEQi33f.s:23830  .debug_str:000000000000f5f1 .LASF921
C:\Users\SOLDER~1\AppData\Local\Temp\ccEQi33f.s:20446  .debug_str:00000000000019ef .LASF922
C:\Users\SOLDER~1\AppData\Local\Temp\ccEQi33f.s:30376  .debug_str:0000000000029fea .LASF923
C:\Users\SOLDER~1\AppData\Local\Temp\ccEQi33f.s:30456  .debug_str:000000000002a560 .LASF924
C:\Users\SOLDER~1\AppData\Local\Temp\ccEQi33f.s:21246  .debug_str:0000000000004d5d .LASF925
GAS LISTING C:\Users\SOLDER~1\AppData\Local\Temp\ccEQi33f.s 			page 59


C:\Users\SOLDER~1\AppData\Local\Temp\ccEQi33f.s:21668  .debug_str:00000000000068b4 .LASF926
C:\Users\SOLDER~1\AppData\Local\Temp\ccEQi33f.s:22528  .debug_str:000000000000a0cc .LASF927
C:\Users\SOLDER~1\AppData\Local\Temp\ccEQi33f.s:27034  .debug_str:000000000001c577 .LASF928
C:\Users\SOLDER~1\AppData\Local\Temp\ccEQi33f.s:26130  .debug_str:0000000000018b63 .LASF929
C:\Users\SOLDER~1\AppData\Local\Temp\ccEQi33f.s:27544  .debug_str:000000000001e70e .LASF930
C:\Users\SOLDER~1\AppData\Local\Temp\ccEQi33f.s:20382  .debug_str:00000000000015df .LASF931
C:\Users\SOLDER~1\AppData\Local\Temp\ccEQi33f.s:21740  .debug_str:0000000000006d2e .LASF932
C:\Users\SOLDER~1\AppData\Local\Temp\ccEQi33f.s:20296  .debug_str:000000000000104e .LASF933
C:\Users\SOLDER~1\AppData\Local\Temp\ccEQi33f.s:23508  .debug_str:000000000000e165 .LASF934
C:\Users\SOLDER~1\AppData\Local\Temp\ccEQi33f.s:30336  .debug_str:0000000000029d4a .LASF935
C:\Users\SOLDER~1\AppData\Local\Temp\ccEQi33f.s:28328  .debug_str:00000000000219e4 .LASF936
C:\Users\SOLDER~1\AppData\Local\Temp\ccEQi33f.s:29898  .debug_str:00000000000280fd .LASF937
C:\Users\SOLDER~1\AppData\Local\Temp\ccEQi33f.s:27186  .debug_str:000000000001cf9c .LASF938
C:\Users\SOLDER~1\AppData\Local\Temp\ccEQi33f.s:30176  .debug_str:00000000000292ec .LASF939
C:\Users\SOLDER~1\AppData\Local\Temp\ccEQi33f.s:22352  .debug_str:0000000000009565 .LASF940
C:\Users\SOLDER~1\AppData\Local\Temp\ccEQi33f.s:30320  .debug_str:0000000000029c27 .LASF941
C:\Users\SOLDER~1\AppData\Local\Temp\ccEQi33f.s:23710  .debug_str:000000000000ee4c .LASF942
C:\Users\SOLDER~1\AppData\Local\Temp\ccEQi33f.s:29240  .debug_str:00000000000254dc .LASF943
C:\Users\SOLDER~1\AppData\Local\Temp\ccEQi33f.s:20886  .debug_str:0000000000003686 .LASF944
C:\Users\SOLDER~1\AppData\Local\Temp\ccEQi33f.s:23552  .debug_str:000000000000e443 .LASF945
C:\Users\SOLDER~1\AppData\Local\Temp\ccEQi33f.s:30490  .debug_str:000000000002a76e .LASF946
C:\Users\SOLDER~1\AppData\Local\Temp\ccEQi33f.s:29316  .debug_str:0000000000025a39 .LASF947
C:\Users\SOLDER~1\AppData\Local\Temp\ccEQi33f.s:26782  .debug_str:000000000001b4f5 .LASF948
C:\Users\SOLDER~1\AppData\Local\Temp\ccEQi33f.s:22424  .debug_str:00000000000099f9 .LASF949
C:\Users\SOLDER~1\AppData\Local\Temp\ccEQi33f.s:23524  .debug_str:000000000000e280 .LASF950
C:\Users\SOLDER~1\AppData\Local\Temp\ccEQi33f.s:23876  .debug_str:000000000000f916 .LASF951
C:\Users\SOLDER~1\AppData\Local\Temp\ccEQi33f.s:31170  .debug_str:000000000002d3a1 .LASF952
C:\Users\SOLDER~1\AppData\Local\Temp\ccEQi33f.s:23382  .debug_str:000000000000d8fc .LASF953
C:\Users\SOLDER~1\AppData\Local\Temp\ccEQi33f.s:25782  .debug_str:00000000000174d3 .LASF954
C:\Users\SOLDER~1\AppData\Local\Temp\ccEQi33f.s:26312  .debug_str:000000000001971a .LASF955
C:\Users\SOLDER~1\AppData\Local\Temp\ccEQi33f.s:26158  .debug_str:0000000000018d5f .LASF956
C:\Users\SOLDER~1\AppData\Local\Temp\ccEQi33f.s:25636  .debug_str:0000000000016b7d .LASF957
C:\Users\SOLDER~1\AppData\Local\Temp\ccEQi33f.s:23736  .debug_str:000000000000efd0 .LASF958
C:\Users\SOLDER~1\AppData\Local\Temp\ccEQi33f.s:21208  .debug_str:0000000000004af8 .LASF959
C:\Users\SOLDER~1\AppData\Local\Temp\ccEQi33f.s:21438  .debug_str:000000000000596c .LASF960
C:\Users\SOLDER~1\AppData\Local\Temp\ccEQi33f.s:28268  .debug_str:000000000002161b .LASF961
C:\Users\SOLDER~1\AppData\Local\Temp\ccEQi33f.s:22116  .debug_str:00000000000085ab .LASF962
C:\Users\SOLDER~1\AppData\Local\Temp\ccEQi33f.s:23808  .debug_str:000000000000f47f .LASF963
C:\Users\SOLDER~1\AppData\Local\Temp\ccEQi33f.s:28210  .debug_str:0000000000021258 .LASF964
C:\Users\SOLDER~1\AppData\Local\Temp\ccEQi33f.s:30900  .debug_str:000000000002c23d .LASF965
C:\Users\SOLDER~1\AppData\Local\Temp\ccEQi33f.s:25884  .debug_str:0000000000017b5c .LASF966
C:\Users\SOLDER~1\AppData\Local\Temp\ccEQi33f.s:25676  .debug_str:0000000000016dbd .LASF967
C:\Users\SOLDER~1\AppData\Local\Temp\ccEQi33f.s:23446  .debug_str:000000000000dd04 .LASF968
C:\Users\SOLDER~1\AppData\Local\Temp\ccEQi33f.s:22024  .debug_str:0000000000007fd9 .LASF969
C:\Users\SOLDER~1\AppData\Local\Temp\ccEQi33f.s:21058  .debug_str:0000000000004192 .LASF970
C:\Users\SOLDER~1\AppData\Local\Temp\ccEQi33f.s:29062  .debug_str:0000000000024991 .LASF971
C:\Users\SOLDER~1\AppData\Local\Temp\ccEQi33f.s:30246  .debug_str:000000000002975d .LASF972
C:\Users\SOLDER~1\AppData\Local\Temp\ccEQi33f.s:23226  .debug_str:000000000000cecf .LASF973
C:\Users\SOLDER~1\AppData\Local\Temp\ccEQi33f.s:24292  .debug_str:00000000000113f2 .LASF974
C:\Users\SOLDER~1\AppData\Local\Temp\ccEQi33f.s:23840  .debug_str:000000000000f689 .LASF975
C:\Users\SOLDER~1\AppData\Local\Temp\ccEQi33f.s:24716  .debug_str:0000000000012f3b .LASF976
C:\Users\SOLDER~1\AppData\Local\Temp\ccEQi33f.s:31024  .debug_str:000000000002c9f3 .LASF977
C:\Users\SOLDER~1\AppData\Local\Temp\ccEQi33f.s:31084  .debug_str:000000000002cdb7 .LASF978
C:\Users\SOLDER~1\AppData\Local\Temp\ccEQi33f.s:26544  .debug_str:000000000001a5aa .LASF979
C:\Users\SOLDER~1\AppData\Local\Temp\ccEQi33f.s:28656  .debug_str:0000000000022ed5 .LASF980
C:\Users\SOLDER~1\AppData\Local\Temp\ccEQi33f.s:22054  .debug_str:00000000000081de .LASF981
C:\Users\SOLDER~1\AppData\Local\Temp\ccEQi33f.s:26320  .debug_str:000000000001976b .LASF982
GAS LISTING C:\Users\SOLDER~1\AppData\Local\Temp\ccEQi33f.s 			page 60


C:\Users\SOLDER~1\AppData\Local\Temp\ccEQi33f.s:29088  .debug_str:0000000000024b67 .LASF983
C:\Users\SOLDER~1\AppData\Local\Temp\ccEQi33f.s:24022  .debug_str:00000000000102c2 .LASF984
C:\Users\SOLDER~1\AppData\Local\Temp\ccEQi33f.s:24644  .debug_str:0000000000012a61 .LASF985
C:\Users\SOLDER~1\AppData\Local\Temp\ccEQi33f.s:21616  .debug_str:0000000000006507 .LASF986
C:\Users\SOLDER~1\AppData\Local\Temp\ccEQi33f.s:25174  .debug_str:0000000000014e65 .LASF987
C:\Users\SOLDER~1\AppData\Local\Temp\ccEQi33f.s:30798  .debug_str:000000000002bb15 .LASF988
C:\Users\SOLDER~1\AppData\Local\Temp\ccEQi33f.s:27320  .debug_str:000000000001d86b .LASF989
C:\Users\SOLDER~1\AppData\Local\Temp\ccEQi33f.s:21494  .debug_str:0000000000005d0e .LASF990
C:\Users\SOLDER~1\AppData\Local\Temp\ccEQi33f.s:22844  .debug_str:000000000000b58b .LASF991
C:\Users\SOLDER~1\AppData\Local\Temp\ccEQi33f.s:26058  .debug_str:00000000000186aa .LASF992
C:\Users\SOLDER~1\AppData\Local\Temp\ccEQi33f.s:29906  .debug_str:0000000000028178 .LASF993
C:\Users\SOLDER~1\AppData\Local\Temp\ccEQi33f.s:27130  .debug_str:000000000001cc06 .LASF994
C:\Users\SOLDER~1\AppData\Local\Temp\ccEQi33f.s:25466  .debug_str:00000000000160f8 .LASF995
C:\Users\SOLDER~1\AppData\Local\Temp\ccEQi33f.s:24106  .debug_str:0000000000010826 .LASF996
C:\Users\SOLDER~1\AppData\Local\Temp\ccEQi33f.s:20970  .debug_str:0000000000003c09 .LASF997
C:\Users\SOLDER~1\AppData\Local\Temp\ccEQi33f.s:22362  .debug_str:00000000000095e4 .LASF998
C:\Users\SOLDER~1\AppData\Local\Temp\ccEQi33f.s:28116  .debug_str:0000000000020bfa .LASF999
C:\Users\SOLDER~1\AppData\Local\Temp\ccEQi33f.s:31548  .debug_str:000000000002ebbe .LASF1000
C:\Users\SOLDER~1\AppData\Local\Temp\ccEQi33f.s:23644  .debug_str:000000000000ea3f .LASF1001
C:\Users\SOLDER~1\AppData\Local\Temp\ccEQi33f.s:29118  .debug_str:0000000000024d3b .LASF1002
C:\Users\SOLDER~1\AppData\Local\Temp\ccEQi33f.s:30748  .debug_str:000000000002b7f8 .LASF1003
C:\Users\SOLDER~1\AppData\Local\Temp\ccEQi33f.s:26864  .debug_str:000000000001ba12 .LASF1004
C:\Users\SOLDER~1\AppData\Local\Temp\ccEQi33f.s:26274  .debug_str:00000000000194d2 .LASF1005
C:\Users\SOLDER~1\AppData\Local\Temp\ccEQi33f.s:24460  .debug_str:0000000000011ea8 .LASF1006
C:\Users\SOLDER~1\AppData\Local\Temp\ccEQi33f.s:21776  .debug_str:0000000000006fd3 .LASF1007
C:\Users\SOLDER~1\AppData\Local\Temp\ccEQi33f.s:22078  .debug_str:0000000000008367 .LASF1008
C:\Users\SOLDER~1\AppData\Local\Temp\ccEQi33f.s:28910  .debug_str:0000000000023f92 .LASF1009
C:\Users\SOLDER~1\AppData\Local\Temp\ccEQi33f.s:31262  .debug_str:000000000002d96c .LASF1010
C:\Users\SOLDER~1\AppData\Local\Temp\ccEQi33f.s:24452  .debug_str:0000000000011e24 .LASF1011
C:\Users\SOLDER~1\AppData\Local\Temp\ccEQi33f.s:29492  .debug_str:000000000002662a .LASF1012
C:\Users\SOLDER~1\AppData\Local\Temp\ccEQi33f.s:31542  .debug_str:000000000002eb65 .LASF1013
C:\Users\SOLDER~1\AppData\Local\Temp\ccEQi33f.s:29964  .debug_str:0000000000028509 .LASF1014
C:\Users\SOLDER~1\AppData\Local\Temp\ccEQi33f.s:27046  .debug_str:000000000001c65b .LASF1015
C:\Users\SOLDER~1\AppData\Local\Temp\ccEQi33f.s:27592  .debug_str:000000000001ea20 .LASF1016
C:\Users\SOLDER~1\AppData\Local\Temp\ccEQi33f.s:22552  .debug_str:000000000000a263 .LASF1017
C:\Users\SOLDER~1\AppData\Local\Temp\ccEQi33f.s:25218  .debug_str:0000000000015125 .LASF1018
C:\Users\SOLDER~1\AppData\Local\Temp\ccEQi33f.s:29626  .debug_str:0000000000026f3e .LASF1019
C:\Users\SOLDER~1\AppData\Local\Temp\ccEQi33f.s:22816  .debug_str:000000000000b396 .LASF1020
C:\Users\SOLDER~1\AppData\Local\Temp\ccEQi33f.s:24426  .debug_str:0000000000011c9c .LASF1021
C:\Users\SOLDER~1\AppData\Local\Temp\ccEQi33f.s:26510  .debug_str:000000000001a396 .LASF1022
C:\Users\SOLDER~1\AppData\Local\Temp\ccEQi33f.s:20784  .debug_str:0000000000003013 .LASF1023
C:\Users\SOLDER~1\AppData\Local\Temp\ccEQi33f.s:29676  .debug_str:0000000000027264 .LASF1024
C:\Users\SOLDER~1\AppData\Local\Temp\ccEQi33f.s:28644  .debug_str:0000000000022e31 .LASF1025
C:\Users\SOLDER~1\AppData\Local\Temp\ccEQi33f.s:27298  .debug_str:000000000001d718 .LASF1026
C:\Users\SOLDER~1\AppData\Local\Temp\ccEQi33f.s:23362  .debug_str:000000000000d7cb .LASF1027
C:\Users\SOLDER~1\AppData\Local\Temp\ccEQi33f.s:24944  .debug_str:0000000000013ecb .LASF1028
C:\Users\SOLDER~1\AppData\Local\Temp\ccEQi33f.s:30450  .debug_str:000000000002a4e7 .LASF1029
C:\Users\SOLDER~1\AppData\Local\Temp\ccEQi33f.s:22524  .debug_str:000000000000a088 .LASF1030
C:\Users\SOLDER~1\AppData\Local\Temp\ccEQi33f.s:22120  .debug_str:00000000000085e9 .LASF1031
C:\Users\SOLDER~1\AppData\Local\Temp\ccEQi33f.s:20174  .debug_str:0000000000000830 .LASF1032
C:\Users\SOLDER~1\AppData\Local\Temp\ccEQi33f.s:21482  .debug_str:0000000000005c38 .LASF1033
C:\Users\SOLDER~1\AppData\Local\Temp\ccEQi33f.s:21272  .debug_str:0000000000004ede .LASF1034
C:\Users\SOLDER~1\AppData\Local\Temp\ccEQi33f.s:28530  .debug_str:0000000000022697 .LASF1035
C:\Users\SOLDER~1\AppData\Local\Temp\ccEQi33f.s:30434  .debug_str:000000000002a3e4 .LASF1036
C:\Users\SOLDER~1\AppData\Local\Temp\ccEQi33f.s:24190  .debug_str:0000000000010d75 .LASF1037
C:\Users\SOLDER~1\AppData\Local\Temp\ccEQi33f.s:27716  .debug_str:000000000001f24f .LASF1038
C:\Users\SOLDER~1\AppData\Local\Temp\ccEQi33f.s:29036  .debug_str:00000000000247eb .LASF1039
GAS LISTING C:\Users\SOLDER~1\AppData\Local\Temp\ccEQi33f.s 			page 61


C:\Users\SOLDER~1\AppData\Local\Temp\ccEQi33f.s:22418  .debug_str:00000000000099a1 .LASF1040
C:\Users\SOLDER~1\AppData\Local\Temp\ccEQi33f.s:21192  .debug_str:00000000000049f9 .LASF1041
C:\Users\SOLDER~1\AppData\Local\Temp\ccEQi33f.s:24046  .debug_str:0000000000010479 .LASF1042
C:\Users\SOLDER~1\AppData\Local\Temp\ccEQi33f.s:30092  .debug_str:0000000000028d82 .LASF1043
C:\Users\SOLDER~1\AppData\Local\Temp\ccEQi33f.s:27836  .debug_str:000000000001fa13 .LASF1044
C:\Users\SOLDER~1\AppData\Local\Temp\ccEQi33f.s:25380  .debug_str:0000000000015b6d .LASF1045
C:\Users\SOLDER~1\AppData\Local\Temp\ccEQi33f.s:20978  .debug_str:0000000000003c84 .LASF1046
C:\Users\SOLDER~1\AppData\Local\Temp\ccEQi33f.s:29524  .debug_str:000000000002686a .LASF1047
C:\Users\SOLDER~1\AppData\Local\Temp\ccEQi33f.s:21574  .debug_str:000000000000624a .LASF1048
C:\Users\SOLDER~1\AppData\Local\Temp\ccEQi33f.s:25750  .debug_str:00000000000172c1 .LASF1049
C:\Users\SOLDER~1\AppData\Local\Temp\ccEQi33f.s:24436  .debug_str:0000000000011d28 .LASF1050
C:\Users\SOLDER~1\AppData\Local\Temp\ccEQi33f.s:27122  .debug_str:000000000001cb93 .LASF1051
C:\Users\SOLDER~1\AppData\Local\Temp\ccEQi33f.s:29512  .debug_str:00000000000267a3 .LASF1052
C:\Users\SOLDER~1\AppData\Local\Temp\ccEQi33f.s:23628  .debug_str:000000000000e943 .LASF1053
C:\Users\SOLDER~1\AppData\Local\Temp\ccEQi33f.s:26946  .debug_str:000000000001bf69 .LASF1054
C:\Users\SOLDER~1\AppData\Local\Temp\ccEQi33f.s:21278  .debug_str:0000000000004f35 .LASF1055
C:\Users\SOLDER~1\AppData\Local\Temp\ccEQi33f.s:28222  .debug_str:0000000000021314 .LASF1056
C:\Users\SOLDER~1\AppData\Local\Temp\ccEQi33f.s:28310  .debug_str:00000000000218b6 .LASF1057
C:\Users\SOLDER~1\AppData\Local\Temp\ccEQi33f.s:27280  .debug_str:000000000001d605 .LASF1058
C:\Users\SOLDER~1\AppData\Local\Temp\ccEQi33f.s:30298  .debug_str:0000000000029aa2 .LASF1059
C:\Users\SOLDER~1\AppData\Local\Temp\ccEQi33f.s:28232  .debug_str:00000000000213b2 .LASF1060
C:\Users\SOLDER~1\AppData\Local\Temp\ccEQi33f.s:27996  .debug_str:0000000000020458 .LASF1061
C:\Users\SOLDER~1\AppData\Local\Temp\ccEQi33f.s:31208  .debug_str:000000000002d5ec .LASF1062
C:\Users\SOLDER~1\AppData\Local\Temp\ccEQi33f.s:21638  .debug_str:000000000000669d .LASF1063
C:\Users\SOLDER~1\AppData\Local\Temp\ccEQi33f.s:23952  .debug_str:000000000000fe65 .LASF1064
C:\Users\SOLDER~1\AppData\Local\Temp\ccEQi33f.s:28636  .debug_str:0000000000022dae .LASF1065
C:\Users\SOLDER~1\AppData\Local\Temp\ccEQi33f.s:28658  .debug_str:0000000000022ef6 .LASF1066
C:\Users\SOLDER~1\AppData\Local\Temp\ccEQi33f.s:23364  .debug_str:000000000000d7e2 .LASF1067
C:\Users\SOLDER~1\AppData\Local\Temp\ccEQi33f.s:21178  .debug_str:0000000000004931 .LASF1068
C:\Users\SOLDER~1\AppData\Local\Temp\ccEQi33f.s:24184  .debug_str:0000000000010d0a .LASF1069
C:\Users\SOLDER~1\AppData\Local\Temp\ccEQi33f.s:28514  .debug_str:0000000000022580 .LASF1070
C:\Users\SOLDER~1\AppData\Local\Temp\ccEQi33f.s:27194  .debug_str:000000000001d034 .LASF1071
C:\Users\SOLDER~1\AppData\Local\Temp\ccEQi33f.s:24164  .debug_str:0000000000010bc2 .LASF1072
C:\Users\SOLDER~1\AppData\Local\Temp\ccEQi33f.s:28754  .debug_str:000000000002357f .LASF1073
C:\Users\SOLDER~1\AppData\Local\Temp\ccEQi33f.s:20192  .debug_str:000000000000099d .LASF1074
C:\Users\SOLDER~1\AppData\Local\Temp\ccEQi33f.s:26462  .debug_str:000000000001a083 .LASF1075
C:\Users\SOLDER~1\AppData\Local\Temp\ccEQi33f.s:24964  .debug_str:0000000000014008 .LASF1076
C:\Users\SOLDER~1\AppData\Local\Temp\ccEQi33f.s:23166  .debug_str:000000000000cac7 .LASF1077
C:\Users\SOLDER~1\AppData\Local\Temp\ccEQi33f.s:20646  .debug_str:0000000000002723 .LASF1078
C:\Users\SOLDER~1\AppData\Local\Temp\ccEQi33f.s:29214  .debug_str:000000000002534e .LASF1079
C:\Users\SOLDER~1\AppData\Local\Temp\ccEQi33f.s:22238  .debug_str:0000000000008db6 .LASF1080
C:\Users\SOLDER~1\AppData\Local\Temp\ccEQi33f.s:24616  .debug_str:0000000000012850 .LASF1081
C:\Users\SOLDER~1\AppData\Local\Temp\ccEQi33f.s:28072  .debug_str:0000000000020910 .LASF1082
C:\Users\SOLDER~1\AppData\Local\Temp\ccEQi33f.s:27524  .debug_str:000000000001e599 .LASF1083
C:\Users\SOLDER~1\AppData\Local\Temp\ccEQi33f.s:25458  .debug_str:000000000001606d .LASF1084
C:\Users\SOLDER~1\AppData\Local\Temp\ccEQi33f.s:21486  .debug_str:0000000000005c74 .LASF1085
C:\Users\SOLDER~1\AppData\Local\Temp\ccEQi33f.s:28620  .debug_str:0000000000022c9f .LASF1086
C:\Users\SOLDER~1\AppData\Local\Temp\ccEQi33f.s:30378  .debug_str:000000000002a00c .LASF1087
C:\Users\SOLDER~1\AppData\Local\Temp\ccEQi33f.s:28214  .debug_str:000000000002128e .LASF1088
C:\Users\SOLDER~1\AppData\Local\Temp\ccEQi33f.s:21456  .debug_str:0000000000005a98 .LASF1089
C:\Users\SOLDER~1\AppData\Local\Temp\ccEQi33f.s:29534  .debug_str:0000000000026903 .LASF1090
C:\Users\SOLDER~1\AppData\Local\Temp\ccEQi33f.s:27368  .debug_str:000000000001db61 .LASF1091
C:\Users\SOLDER~1\AppData\Local\Temp\ccEQi33f.s:21816  .debug_str:0000000000007265 .LASF1092
C:\Users\SOLDER~1\AppData\Local\Temp\ccEQi33f.s:25900  .debug_str:0000000000017c66 .LASF1093
C:\Users\SOLDER~1\AppData\Local\Temp\ccEQi33f.s:23332  .debug_str:000000000000d5b7 .LASF1094
C:\Users\SOLDER~1\AppData\Local\Temp\ccEQi33f.s:20398  .debug_str:00000000000016fd .LASF1095
C:\Users\SOLDER~1\AppData\Local\Temp\ccEQi33f.s:21546  .debug_str:0000000000006050 .LASF1096
GAS LISTING C:\Users\SOLDER~1\AppData\Local\Temp\ccEQi33f.s 			page 62


C:\Users\SOLDER~1\AppData\Local\Temp\ccEQi33f.s:28642  .debug_str:0000000000022e0a .LASF1097
C:\Users\SOLDER~1\AppData\Local\Temp\ccEQi33f.s:27940  .debug_str:00000000000200a8 .LASF1098
C:\Users\SOLDER~1\AppData\Local\Temp\ccEQi33f.s:21778  .debug_str:0000000000006fea .LASF1099
C:\Users\SOLDER~1\AppData\Local\Temp\ccEQi33f.s:25228  .debug_str:00000000000151e9 .LASF1100
C:\Users\SOLDER~1\AppData\Local\Temp\ccEQi33f.s:28890  .debug_str:0000000000023e36 .LASF1101
C:\Users\SOLDER~1\AppData\Local\Temp\ccEQi33f.s:30574  .debug_str:000000000002acc8 .LASF1102
C:\Users\SOLDER~1\AppData\Local\Temp\ccEQi33f.s:20256  .debug_str:0000000000000df4 .LASF1103
C:\Users\SOLDER~1\AppData\Local\Temp\ccEQi33f.s:20366  .debug_str:00000000000014ed .LASF1104
C:\Users\SOLDER~1\AppData\Local\Temp\ccEQi33f.s:27870  .debug_str:000000000001fc3f .LASF1105
C:\Users\SOLDER~1\AppData\Local\Temp\ccEQi33f.s:21432  .debug_str:0000000000005900 .LASF1106
C:\Users\SOLDER~1\AppData\Local\Temp\ccEQi33f.s:22970  .debug_str:000000000000bd45 .LASF1107
C:\Users\SOLDER~1\AppData\Local\Temp\ccEQi33f.s:20440  .debug_str:000000000000198c .LASF1108
C:\Users\SOLDER~1\AppData\Local\Temp\ccEQi33f.s:27954  .debug_str:0000000000020185 .LASF1109
C:\Users\SOLDER~1\AppData\Local\Temp\ccEQi33f.s:26840  .debug_str:000000000001b86b .LASF1110
C:\Users\SOLDER~1\AppData\Local\Temp\ccEQi33f.s:22022  .debug_str:0000000000007fb1 .LASF1111
C:\Users\SOLDER~1\AppData\Local\Temp\ccEQi33f.s:22504  .debug_str:0000000000009f2a .LASF1112
C:\Users\SOLDER~1\AppData\Local\Temp\ccEQi33f.s:22942  .debug_str:000000000000bb94 .LASF1113
C:\Users\SOLDER~1\AppData\Local\Temp\ccEQi33f.s:29876  .debug_str:0000000000027f7e .LASF1114
C:\Users\SOLDER~1\AppData\Local\Temp\ccEQi33f.s:22162  .debug_str:000000000000887c .LASF1115
C:\Users\SOLDER~1\AppData\Local\Temp\ccEQi33f.s:29596  .debug_str:0000000000026d02 .LASF1116
C:\Users\SOLDER~1\AppData\Local\Temp\ccEQi33f.s:27756  .debug_str:000000000001f4fb .LASF1117
C:\Users\SOLDER~1\AppData\Local\Temp\ccEQi33f.s:30538  .debug_str:000000000002aa62 .LASF1118
C:\Users\SOLDER~1\AppData\Local\Temp\ccEQi33f.s:24882  .debug_str:0000000000013a7b .LASF1119
C:\Users\SOLDER~1\AppData\Local\Temp\ccEQi33f.s:21194  .debug_str:0000000000004a0a .LASF1120
C:\Users\SOLDER~1\AppData\Local\Temp\ccEQi33f.s:27412  .debug_str:000000000001de86 .LASF1121
C:\Users\SOLDER~1\AppData\Local\Temp\ccEQi33f.s:22276  .debug_str:0000000000009043 .LASF1122
C:\Users\SOLDER~1\AppData\Local\Temp\ccEQi33f.s:30712  .debug_str:000000000002b5b5 .LASF1123
C:\Users\SOLDER~1\AppData\Local\Temp\ccEQi33f.s:25124  .debug_str:0000000000014b1e .LASF1124
C:\Users\SOLDER~1\AppData\Local\Temp\ccEQi33f.s:22830  .debug_str:000000000000b4a3 .LASF1125
C:\Users\SOLDER~1\AppData\Local\Temp\ccEQi33f.s:31238  .debug_str:000000000002d7f1 .LASF1126
C:\Users\SOLDER~1\AppData\Local\Temp\ccEQi33f.s:29348  .debug_str:0000000000025c4c .LASF1127
C:\Users\SOLDER~1\AppData\Local\Temp\ccEQi33f.s:28406  .debug_str:0000000000021ecd .LASF1128
C:\Users\SOLDER~1\AppData\Local\Temp\ccEQi33f.s:26084  .debug_str:0000000000018853 .LASF1129
C:\Users\SOLDER~1\AppData\Local\Temp\ccEQi33f.s:26688  .debug_str:000000000001af2c .LASF1130
C:\Users\SOLDER~1\AppData\Local\Temp\ccEQi33f.s:22174  .debug_str:000000000000896f .LASF1131
C:\Users\SOLDER~1\AppData\Local\Temp\ccEQi33f.s:27712  .debug_str:000000000001f205 .LASF1132
C:\Users\SOLDER~1\AppData\Local\Temp\ccEQi33f.s:22748  .debug_str:000000000000af71 .LASF1133
C:\Users\SOLDER~1\AppData\Local\Temp\ccEQi33f.s:25738  .debug_str:00000000000171f4 .LASF1134
C:\Users\SOLDER~1\AppData\Local\Temp\ccEQi33f.s:25122  .debug_str:0000000000014af9 .LASF1135
C:\Users\SOLDER~1\AppData\Local\Temp\ccEQi33f.s:25748  .debug_str:000000000001729c .LASF1136
C:\Users\SOLDER~1\AppData\Local\Temp\ccEQi33f.s:29778  .debug_str:00000000000278ef .LASF1137
C:\Users\SOLDER~1\AppData\Local\Temp\ccEQi33f.s:27650  .debug_str:000000000001edcb .LASF1138
C:\Users\SOLDER~1\AppData\Local\Temp\ccEQi33f.s:28950  .debug_str:000000000002423f .LASF1139
C:\Users\SOLDER~1\AppData\Local\Temp\ccEQi33f.s:20590  .debug_str:000000000000237c .LASF1140
C:\Users\SOLDER~1\AppData\Local\Temp\ccEQi33f.s:29394  .debug_str:0000000000025f8f .LASF1141
C:\Users\SOLDER~1\AppData\Local\Temp\ccEQi33f.s:28524  .debug_str:0000000000022637 .LASF1142
C:\Users\SOLDER~1\AppData\Local\Temp\ccEQi33f.s:27052  .debug_str:000000000001c6b4 .LASF1143
C:\Users\SOLDER~1\AppData\Local\Temp\ccEQi33f.s:30808  .debug_str:000000000002bbc6 .LASF1144
C:\Users\SOLDER~1\AppData\Local\Temp\ccEQi33f.s:27542  .debug_str:000000000001e6e7 .LASF1145
C:\Users\SOLDER~1\AppData\Local\Temp\ccEQi33f.s:27304  .debug_str:000000000001d784 .LASF1146
C:\Users\SOLDER~1\AppData\Local\Temp\ccEQi33f.s:25628  .debug_str:0000000000016b04 .LASF1147
C:\Users\SOLDER~1\AppData\Local\Temp\ccEQi33f.s:30924  .debug_str:000000000002c399 .LASF1148
C:\Users\SOLDER~1\AppData\Local\Temp\ccEQi33f.s:28224  .debug_str:0000000000021330 .LASF1149
C:\Users\SOLDER~1\AppData\Local\Temp\ccEQi33f.s:25356  .debug_str:00000000000159f3 .LASF1150
C:\Users\SOLDER~1\AppData\Local\Temp\ccEQi33f.s:27104  .debug_str:000000000001ca49 .LASF1151
C:\Users\SOLDER~1\AppData\Local\Temp\ccEQi33f.s:24178  .debug_str:0000000000010c9a .LASF1152
C:\Users\SOLDER~1\AppData\Local\Temp\ccEQi33f.s:25442  .debug_str:0000000000015f6a .LASF1153
GAS LISTING C:\Users\SOLDER~1\AppData\Local\Temp\ccEQi33f.s 			page 63


C:\Users\SOLDER~1\AppData\Local\Temp\ccEQi33f.s:25992  .debug_str:0000000000018279 .LASF1154
C:\Users\SOLDER~1\AppData\Local\Temp\ccEQi33f.s:20484  .debug_str:0000000000001c93 .LASF1155
C:\Users\SOLDER~1\AppData\Local\Temp\ccEQi33f.s:24892  .debug_str:0000000000013b3f .LASF1156
C:\Users\SOLDER~1\AppData\Local\Temp\ccEQi33f.s:27984  .debug_str:0000000000020379 .LASF1157
C:\Users\SOLDER~1\AppData\Local\Temp\ccEQi33f.s:31346  .debug_str:000000000002dee1 .LASF1158
C:\Users\SOLDER~1\AppData\Local\Temp\ccEQi33f.s:31354  .debug_str:000000000002df47 .LASF1159
C:\Users\SOLDER~1\AppData\Local\Temp\ccEQi33f.s:29928  .debug_str:00000000000282c3 .LASF1160
C:\Users\SOLDER~1\AppData\Local\Temp\ccEQi33f.s:26242  .debug_str:0000000000019290 .LASF1161
C:\Users\SOLDER~1\AppData\Local\Temp\ccEQi33f.s:26018  .debug_str:0000000000018413 .LASF1162
C:\Users\SOLDER~1\AppData\Local\Temp\ccEQi33f.s:29764  .debug_str:0000000000027819 .LASF1163
C:\Users\SOLDER~1\AppData\Local\Temp\ccEQi33f.s:24232  .debug_str:0000000000011006 .LASF1164
C:\Users\SOLDER~1\AppData\Local\Temp\ccEQi33f.s:29702  .debug_str:000000000002741b .LASF1165
C:\Users\SOLDER~1\AppData\Local\Temp\ccEQi33f.s:27844  .debug_str:000000000001fa92 .LASF1166
C:\Users\SOLDER~1\AppData\Local\Temp\ccEQi33f.s:27772  .debug_str:000000000001f61b .LASF1167
C:\Users\SOLDER~1\AppData\Local\Temp\ccEQi33f.s:24758  .debug_str:00000000000131ef .LASF1168
C:\Users\SOLDER~1\AppData\Local\Temp\ccEQi33f.s:30250  .debug_str:000000000002979a .LASF1169
C:\Users\SOLDER~1\AppData\Local\Temp\ccEQi33f.s:22216  .debug_str:0000000000008c11 .LASF1170
C:\Users\SOLDER~1\AppData\Local\Temp\ccEQi33f.s:28266  .debug_str:00000000000215f2 .LASF1171
C:\Users\SOLDER~1\AppData\Local\Temp\ccEQi33f.s:29116  .debug_str:0000000000024d14 .LASF1172
C:\Users\SOLDER~1\AppData\Local\Temp\ccEQi33f.s:27598  .debug_str:000000000001ea80 .LASF1173
C:\Users\SOLDER~1\AppData\Local\Temp\ccEQi33f.s:26004  .debug_str:000000000001833f .LASF1174
C:\Users\SOLDER~1\AppData\Local\Temp\ccEQi33f.s:23976  .debug_str:000000000000ffe4 .LASF1175
C:\Users\SOLDER~1\AppData\Local\Temp\ccEQi33f.s:27802  .debug_str:000000000001f806 .LASF1176
C:\Users\SOLDER~1\AppData\Local\Temp\ccEQi33f.s:24898  .debug_str:0000000000013bae .LASF1177
C:\Users\SOLDER~1\AppData\Local\Temp\ccEQi33f.s:24638  .debug_str:00000000000129f0 .LASF1178
C:\Users\SOLDER~1\AppData\Local\Temp\ccEQi33f.s:22496  .debug_str:0000000000009ea3 .LASF1179
C:\Users\SOLDER~1\AppData\Local\Temp\ccEQi33f.s:23856  .debug_str:000000000000f79f .LASF1180
C:\Users\SOLDER~1\AppData\Local\Temp\ccEQi33f.s:25928  .debug_str:0000000000017e3f .LASF1181
C:\Users\SOLDER~1\AppData\Local\Temp\ccEQi33f.s:29388  .debug_str:0000000000025f26 .LASF1182
C:\Users\SOLDER~1\AppData\Local\Temp\ccEQi33f.s:24038  .debug_str:00000000000103e2 .LASF1183
C:\Users\SOLDER~1\AppData\Local\Temp\ccEQi33f.s:29604  .debug_str:0000000000026d97 .LASF1184
C:\Users\SOLDER~1\AppData\Local\Temp\ccEQi33f.s:26518  .debug_str:000000000001a408 .LASF1185
C:\Users\SOLDER~1\AppData\Local\Temp\ccEQi33f.s:30014  .debug_str:0000000000028871 .LASF1186
C:\Users\SOLDER~1\AppData\Local\Temp\ccEQi33f.s:24544  .debug_str:00000000000123c7 .LASF1187
C:\Users\SOLDER~1\AppData\Local\Temp\ccEQi33f.s:22586  .debug_str:000000000000a4a7 .LASF1188
C:\Users\SOLDER~1\AppData\Local\Temp\ccEQi33f.s:21922  .debug_str:00000000000078fc .LASF1189
C:\Users\SOLDER~1\AppData\Local\Temp\ccEQi33f.s:20520  .debug_str:0000000000001ee1 .LASF1190
C:\Users\SOLDER~1\AppData\Local\Temp\ccEQi33f.s:24272  .debug_str:0000000000011290 .LASF1191
C:\Users\SOLDER~1\AppData\Local\Temp\ccEQi33f.s:21010  .debug_str:0000000000003e83 .LASF1192
C:\Users\SOLDER~1\AppData\Local\Temp\ccEQi33f.s:31550  .debug_str:000000000002ebdf .LASF1193
C:\Users\SOLDER~1\AppData\Local\Temp\ccEQi33f.s:26554  .debug_str:000000000001a655 .LASF1194
C:\Users\SOLDER~1\AppData\Local\Temp\ccEQi33f.s:21766  .debug_str:0000000000006f28 .LASF1195
C:\Users\SOLDER~1\AppData\Local\Temp\ccEQi33f.s:27248  .debug_str:000000000001d410 .LASF1196
C:\Users\SOLDER~1\AppData\Local\Temp\ccEQi33f.s:30796  .debug_str:000000000002baec .LASF1197
C:\Users\SOLDER~1\AppData\Local\Temp\ccEQi33f.s:25322  .debug_str:00000000000157b2 .LASF1198
C:\Users\SOLDER~1\AppData\Local\Temp\ccEQi33f.s:22380  .debug_str:000000000000970f .LASF1199
C:\Users\SOLDER~1\AppData\Local\Temp\ccEQi33f.s:27794  .debug_str:000000000001f773 .LASF1200
C:\Users\SOLDER~1\AppData\Local\Temp\ccEQi33f.s:31338  .debug_str:000000000002de56 .LASF1201
C:\Users\SOLDER~1\AppData\Local\Temp\ccEQi33f.s:25962  .debug_str:0000000000018099 .LASF1202
C:\Users\SOLDER~1\AppData\Local\Temp\ccEQi33f.s:21340  .debug_str:00000000000052fd .LASF1203
C:\Users\SOLDER~1\AppData\Local\Temp\ccEQi33f.s:20576  .debug_str:0000000000002287 .LASF1204
C:\Users\SOLDER~1\AppData\Local\Temp\ccEQi33f.s:24714  .debug_str:0000000000012f14 .LASF1205
C:\Users\SOLDER~1\AppData\Local\Temp\ccEQi33f.s:28512  .debug_str:0000000000022559 .LASF1206
C:\Users\SOLDER~1\AppData\Local\Temp\ccEQi33f.s:31250  .debug_str:000000000002d8b4 .LASF1207
C:\Users\SOLDER~1\AppData\Local\Temp\ccEQi33f.s:30194  .debug_str:000000000002942e .LASF1208
C:\Users\SOLDER~1\AppData\Local\Temp\ccEQi33f.s:30746  .debug_str:000000000002b7d0 .LASF1209
C:\Users\SOLDER~1\AppData\Local\Temp\ccEQi33f.s:29556  .debug_str:0000000000026a9e .LASF1210
GAS LISTING C:\Users\SOLDER~1\AppData\Local\Temp\ccEQi33f.s 			page 64


C:\Users\SOLDER~1\AppData\Local\Temp\ccEQi33f.s:23510  .debug_str:000000000000e187 .LASF1211
C:\Users\SOLDER~1\AppData\Local\Temp\ccEQi33f.s:26954  .debug_str:000000000001bfdd .LASF1212
C:\Users\SOLDER~1\AppData\Local\Temp\ccEQi33f.s:21568  .debug_str:00000000000061f3 .LASF1213
C:\Users\SOLDER~1\AppData\Local\Temp\ccEQi33f.s:30612  .debug_str:000000000002af03 .LASF1214
C:\Users\SOLDER~1\AppData\Local\Temp\ccEQi33f.s:21426  .debug_str:000000000000589b .LASF1215
C:\Users\SOLDER~1\AppData\Local\Temp\ccEQi33f.s:27570  .debug_str:000000000001e89f .LASF1216
C:\Users\SOLDER~1\AppData\Local\Temp\ccEQi33f.s:22188  .debug_str:0000000000008a49 .LASF1217
C:\Users\SOLDER~1\AppData\Local\Temp\ccEQi33f.s:20800  .debug_str:0000000000003100 .LASF1218
C:\Users\SOLDER~1\AppData\Local\Temp\ccEQi33f.s:28796  .debug_str:000000000002383c .LASF1219
C:\Users\SOLDER~1\AppData\Local\Temp\ccEQi33f.s:28518  .debug_str:00000000000225b9 .LASF1220
C:\Users\SOLDER~1\AppData\Local\Temp\ccEQi33f.s:27974  .debug_str:00000000000202ce .LASF1221
C:\Users\SOLDER~1\AppData\Local\Temp\ccEQi33f.s:24608  .debug_str:00000000000127dc .LASF1222
C:\Users\SOLDER~1\AppData\Local\Temp\ccEQi33f.s:21424  .debug_str:0000000000005878 .LASF1223
C:\Users\SOLDER~1\AppData\Local\Temp\ccEQi33f.s:22862  .debug_str:000000000000b695 .LASF1224
C:\Users\SOLDER~1\AppData\Local\Temp\ccEQi33f.s:26252  .debug_str:000000000001934a .LASF1225
C:\Users\SOLDER~1\AppData\Local\Temp\ccEQi33f.s:23768  .debug_str:000000000000f1dc .LASF1226
C:\Users\SOLDER~1\AppData\Local\Temp\ccEQi33f.s:28936  .debug_str:000000000002414a .LASF1227
C:\Users\SOLDER~1\AppData\Local\Temp\ccEQi33f.s:22734  .debug_str:000000000000ae7a .LASF1228
C:\Users\SOLDER~1\AppData\Local\Temp\ccEQi33f.s:23812  .debug_str:000000000000f4bf .LASF1229
C:\Users\SOLDER~1\AppData\Local\Temp\ccEQi33f.s:29766  .debug_str:0000000000027841 .LASF1230
C:\Users\SOLDER~1\AppData\Local\Temp\ccEQi33f.s:24796  .debug_str:0000000000013455 .LASF1231
C:\Users\SOLDER~1\AppData\Local\Temp\ccEQi33f.s:25938  .debug_str:0000000000017f08 .LASF1232
C:\Users\SOLDER~1\AppData\Local\Temp\ccEQi33f.s:24136  .debug_str:0000000000010a1f .LASF1233
C:\Users\SOLDER~1\AppData\Local\Temp\ccEQi33f.s:21714  .debug_str:0000000000006b87 .LASF1234
C:\Users\SOLDER~1\AppData\Local\Temp\ccEQi33f.s:24850  .debug_str:00000000000137ff .LASF1235
C:\Users\SOLDER~1\AppData\Local\Temp\ccEQi33f.s:21358  .debug_str:0000000000005416 .LASF1236
C:\Users\SOLDER~1\AppData\Local\Temp\ccEQi33f.s:29528  .debug_str:00000000000268a0 .LASF1237
C:\Users\SOLDER~1\AppData\Local\Temp\ccEQi33f.s:26392  .debug_str:0000000000019c20 .LASF1238
C:\Users\SOLDER~1\AppData\Local\Temp\ccEQi33f.s:23544  .debug_str:000000000000e3cc .LASF1239
C:\Users\SOLDER~1\AppData\Local\Temp\ccEQi33f.s:31172  .debug_str:000000000002d3c8 .LASF1240
C:\Users\SOLDER~1\AppData\Local\Temp\ccEQi33f.s:28678  .debug_str:0000000000023053 .LASF1241
C:\Users\SOLDER~1\AppData\Local\Temp\ccEQi33f.s:27360  .debug_str:000000000001daec .LASF1242
C:\Users\SOLDER~1\AppData\Local\Temp\ccEQi33f.s:27586  .debug_str:000000000001e9c0 .LASF1243
C:\Users\SOLDER~1\AppData\Local\Temp\ccEQi33f.s:20782  .debug_str:0000000000002ff0 .LASF1244
C:\Users\SOLDER~1\AppData\Local\Temp\ccEQi33f.s:23496  .debug_str:000000000000e091 .LASF1245
C:\Users\SOLDER~1\AppData\Local\Temp\ccEQi33f.s:30038  .debug_str:0000000000028a01 .LASF1246
C:\Users\SOLDER~1\AppData\Local\Temp\ccEQi33f.s:29584  .debug_str:0000000000026c5b .LASF1247
C:\Users\SOLDER~1\AppData\Local\Temp\ccEQi33f.s:29364  .debug_str:0000000000025d67 .LASF1248
C:\Users\SOLDER~1\AppData\Local\Temp\ccEQi33f.s:29402  .debug_str:0000000000026020 .LASF1249
C:\Users\SOLDER~1\AppData\Local\Temp\ccEQi33f.s:23086  .debug_str:000000000000c552 .LASF1250
C:\Users\SOLDER~1\AppData\Local\Temp\ccEQi33f.s:31194  .debug_str:000000000002d500 .LASF1251
C:\Users\SOLDER~1\AppData\Local\Temp\ccEQi33f.s:27812  .debug_str:000000000001f883 .LASF1252
C:\Users\SOLDER~1\AppData\Local\Temp\ccEQi33f.s:24626  .debug_str:000000000001290c .LASF1253
C:\Users\SOLDER~1\AppData\Local\Temp\ccEQi33f.s:26658  .debug_str:000000000001ad6e .LASF1254
C:\Users\SOLDER~1\AppData\Local\Temp\ccEQi33f.s:29396  .debug_str:0000000000025fb5 .LASF1255
C:\Users\SOLDER~1\AppData\Local\Temp\ccEQi33f.s:26970  .debug_str:000000000001c11a .LASF1256
C:\Users\SOLDER~1\AppData\Local\Temp\ccEQi33f.s:25662  .debug_str:0000000000016ce6 .LASF1257
C:\Users\SOLDER~1\AppData\Local\Temp\ccEQi33f.s:25974  .debug_str:000000000001816a .LASF1258
C:\Users\SOLDER~1\AppData\Local\Temp\ccEQi33f.s:30592  .debug_str:000000000002adb6 .LASF1259
C:\Users\SOLDER~1\AppData\Local\Temp\ccEQi33f.s:24048  .debug_str:0000000000010494 .LASF1260
C:\Users\SOLDER~1\AppData\Local\Temp\ccEQi33f.s:29412  .debug_str:00000000000260d1 .LASF1261
C:\Users\SOLDER~1\AppData\Local\Temp\ccEQi33f.s:30544  .debug_str:000000000002aad3 .LASF1262
C:\Users\SOLDER~1\AppData\Local\Temp\ccEQi33f.s:28652  .debug_str:0000000000022e9a .LASF1263
C:\Users\SOLDER~1\AppData\Local\Temp\ccEQi33f.s:26460  .debug_str:000000000001a063 .LASF1264
C:\Users\SOLDER~1\AppData\Local\Temp\ccEQi33f.s:28616  .debug_str:0000000000022c6d .LASF1265
C:\Users\SOLDER~1\AppData\Local\Temp\ccEQi33f.s:25194  .debug_str:0000000000014f94 .LASF1266
C:\Users\SOLDER~1\AppData\Local\Temp\ccEQi33f.s:21818  .debug_str:000000000000728d .LASF1267
GAS LISTING C:\Users\SOLDER~1\AppData\Local\Temp\ccEQi33f.s 			page 65


C:\Users\SOLDER~1\AppData\Local\Temp\ccEQi33f.s:30182  .debug_str:0000000000029354 .LASF1268
C:\Users\SOLDER~1\AppData\Local\Temp\ccEQi33f.s:20648  .debug_str:0000000000002743 .LASF1269
C:\Users\SOLDER~1\AppData\Local\Temp\ccEQi33f.s:23410  .debug_str:000000000000da91 .LASF1270
C:\Users\SOLDER~1\AppData\Local\Temp\ccEQi33f.s:20972  .debug_str:0000000000003c20 .LASF1271
C:\Users\SOLDER~1\AppData\Local\Temp\ccEQi33f.s:28968  .debug_str:000000000002436e .LASF1272
C:\Users\SOLDER~1\AppData\Local\Temp\ccEQi33f.s:31514  .debug_str:000000000002e9ac .LASF1273
C:\Users\SOLDER~1\AppData\Local\Temp\ccEQi33f.s:24686  .debug_str:0000000000012d4c .LASF1274
C:\Users\SOLDER~1\AppData\Local\Temp\ccEQi33f.s:26534  .debug_str:000000000001a4fb .LASF1275
C:\Users\SOLDER~1\AppData\Local\Temp\ccEQi33f.s:21588  .debug_str:0000000000006333 .LASF1276
C:\Users\SOLDER~1\AppData\Local\Temp\ccEQi33f.s:22700  .debug_str:000000000000ac22 .LASF1277
C:\Users\SOLDER~1\AppData\Local\Temp\ccEQi33f.s:20924  .debug_str:0000000000003902 .LASF1278
C:\Users\SOLDER~1\AppData\Local\Temp\ccEQi33f.s:20450  .debug_str:0000000000001a2f .LASF1279
C:\Users\SOLDER~1\AppData\Local\Temp\ccEQi33f.s:21844  .debug_str:0000000000007430 .LASF1280
C:\Users\SOLDER~1\AppData\Local\Temp\ccEQi33f.s:21042  .debug_str:0000000000004069 .LASF1281
C:\Users\SOLDER~1\AppData\Local\Temp\ccEQi33f.s:24366  .debug_str:00000000000118c5 .LASF1282
C:\Users\SOLDER~1\AppData\Local\Temp\ccEQi33f.s:30444  .debug_str:000000000002a484 .LASF1283
C:\Users\SOLDER~1\AppData\Local\Temp\ccEQi33f.s:25608  .debug_str:00000000000169c0 .LASF1284
C:\Users\SOLDER~1\AppData\Local\Temp\ccEQi33f.s:23444  .debug_str:000000000000dce0 .LASF1285
C:\Users\SOLDER~1\AppData\Local\Temp\ccEQi33f.s:20086  .debug_str:00000000000001ed .LASF1286
C:\Users\SOLDER~1\AppData\Local\Temp\ccEQi33f.s:29842  .debug_str:0000000000027d47 .LASF1287
C:\Users\SOLDER~1\AppData\Local\Temp\ccEQi33f.s:24932  .debug_str:0000000000013dfd .LASF1288
C:\Users\SOLDER~1\AppData\Local\Temp\ccEQi33f.s:30826  .debug_str:000000000002bce5 .LASF1289
C:\Users\SOLDER~1\AppData\Local\Temp\ccEQi33f.s:23752  .debug_str:000000000000f0cf .LASF1290
C:\Users\SOLDER~1\AppData\Local\Temp\ccEQi33f.s:22808  .debug_str:000000000000b303 .LASF1291
C:\Users\SOLDER~1\AppData\Local\Temp\ccEQi33f.s:30438  .debug_str:000000000002a421 .LASF1292
C:\Users\SOLDER~1\AppData\Local\Temp\ccEQi33f.s:28358  .debug_str:0000000000021bb9 .LASF1293
C:\Users\SOLDER~1\AppData\Local\Temp\ccEQi33f.s:29866  .debug_str:0000000000027ecb .LASF1294
C:\Users\SOLDER~1\AppData\Local\Temp\ccEQi33f.s:25244  .debug_str:00000000000152e8 .LASF1295
C:\Users\SOLDER~1\AppData\Local\Temp\ccEQi33f.s:23152  .debug_str:000000000000c9e5 .LASF1296
C:\Users\SOLDER~1\AppData\Local\Temp\ccEQi33f.s:31312  .debug_str:000000000002dca2 .LASF1297
C:\Users\SOLDER~1\AppData\Local\Temp\ccEQi33f.s:22016  .debug_str:0000000000007f41 .LASF1298
C:\Users\SOLDER~1\AppData\Local\Temp\ccEQi33f.s:23420  .debug_str:000000000000db39 .LASF1299
C:\Users\SOLDER~1\AppData\Local\Temp\ccEQi33f.s:30700  .debug_str:000000000002b4d8 .LASF1300
C:\Users\SOLDER~1\AppData\Local\Temp\ccEQi33f.s:25180  .debug_str:0000000000014ebc .LASF1301
C:\Users\SOLDER~1\AppData\Local\Temp\ccEQi33f.s:23258  .debug_str:000000000000d0e5 .LASF1302
C:\Users\SOLDER~1\AppData\Local\Temp\ccEQi33f.s:28662  .debug_str:0000000000022f43 .LASF1303
C:\Users\SOLDER~1\AppData\Local\Temp\ccEQi33f.s:26284  .debug_str:0000000000019572 .LASF1304
C:\Users\SOLDER~1\AppData\Local\Temp\ccEQi33f.s:27010  .debug_str:000000000001c3e0 .LASF1305
C:\Users\SOLDER~1\AppData\Local\Temp\ccEQi33f.s:22486  .debug_str:0000000000009dfc .LASF1306
C:\Users\SOLDER~1\AppData\Local\Temp\ccEQi33f.s:30870  .debug_str:000000000002c00d .LASF1307
C:\Users\SOLDER~1\AppData\Local\Temp\ccEQi33f.s:29940  .debug_str:000000000002839a .LASF1308
C:\Users\SOLDER~1\AppData\Local\Temp\ccEQi33f.s:24918  .debug_str:0000000000013cfa .LASF1309
C:\Users\SOLDER~1\AppData\Local\Temp\ccEQi33f.s:26564  .debug_str:000000000001a707 .LASF1310
C:\Users\SOLDER~1\AppData\Local\Temp\ccEQi33f.s:24728  .debug_str:0000000000012ff9 .LASF1311
C:\Users\SOLDER~1\AppData\Local\Temp\ccEQi33f.s:30766  .debug_str:000000000002b920 .LASF1312
C:\Users\SOLDER~1\AppData\Local\Temp\ccEQi33f.s:25350  .debug_str:0000000000015987 .LASF1313
C:\Users\SOLDER~1\AppData\Local\Temp\ccEQi33f.s:25610  .debug_str:00000000000169e4 .LASF1314
C:\Users\SOLDER~1\AppData\Local\Temp\ccEQi33f.s:31538  .debug_str:000000000002eb1c .LASF1315
C:\Users\SOLDER~1\AppData\Local\Temp\ccEQi33f.s:20688  .debug_str:0000000000002a04 .LASF1316
C:\Users\SOLDER~1\AppData\Local\Temp\ccEQi33f.s:27740  .debug_str:000000000001f3f5 .LASF1317
C:\Users\SOLDER~1\AppData\Local\Temp\ccEQi33f.s:24336  .debug_str:00000000000116b0 .LASF1318
C:\Users\SOLDER~1\AppData\Local\Temp\ccEQi33f.s:22576  .debug_str:000000000000a3f7 .LASF1319
C:\Users\SOLDER~1\AppData\Local\Temp\ccEQi33f.s:25290  .debug_str:0000000000015600 .LASF1320
C:\Users\SOLDER~1\AppData\Local\Temp\ccEQi33f.s:27070  .debug_str:000000000001c7e8 .LASF1321
C:\Users\SOLDER~1\AppData\Local\Temp\ccEQi33f.s:31600  .debug_str:000000000002eeda .LASF1322
C:\Users\SOLDER~1\AppData\Local\Temp\ccEQi33f.s:30530  .debug_str:000000000002a9e1 .LASF1323
C:\Users\SOLDER~1\AppData\Local\Temp\ccEQi33f.s:26712  .debug_str:000000000001b068 .LASF1324
GAS LISTING C:\Users\SOLDER~1\AppData\Local\Temp\ccEQi33f.s 			page 66


C:\Users\SOLDER~1\AppData\Local\Temp\ccEQi33f.s:24642  .debug_str:0000000000012a3c .LASF1325
C:\Users\SOLDER~1\AppData\Local\Temp\ccEQi33f.s:26180  .debug_str:0000000000018ed4 .LASF1326
C:\Users\SOLDER~1\AppData\Local\Temp\ccEQi33f.s:21488  .debug_str:0000000000005c9c .LASF1327
C:\Users\SOLDER~1\AppData\Local\Temp\ccEQi33f.s:30986  .debug_str:000000000002c789 .LASF1328
C:\Users\SOLDER~1\AppData\Local\Temp\ccEQi33f.s:20984  .debug_str:0000000000003cde .LASF1329
C:\Users\SOLDER~1\AppData\Local\Temp\ccEQi33f.s:29802  .debug_str:0000000000027a72 .LASF1330
C:\Users\SOLDER~1\AppData\Local\Temp\ccEQi33f.s:20244  .debug_str:0000000000000d3b .LASF1331
C:\Users\SOLDER~1\AppData\Local\Temp\ccEQi33f.s:30624  .debug_str:000000000002b004 .LASF1332
C:\Users\SOLDER~1\AppData\Local\Temp\ccEQi33f.s:29128  .debug_str:0000000000024def .LASF1333
C:\Users\SOLDER~1\AppData\Local\Temp\ccEQi33f.s:31092  .debug_str:000000000002ce39 .LASF1334
C:\Users\SOLDER~1\AppData\Local\Temp\ccEQi33f.s:24968  .debug_str:0000000000014049 .LASF1335
C:\Users\SOLDER~1\AppData\Local\Temp\ccEQi33f.s:22510  .debug_str:0000000000009f81 .LASF1336
C:\Users\SOLDER~1\AppData\Local\Temp\ccEQi33f.s:23268  .debug_str:000000000000d19a .LASF1337
C:\Users\SOLDER~1\AppData\Local\Temp\ccEQi33f.s:30318  .debug_str:0000000000029c02 .LASF1338
C:\Users\SOLDER~1\AppData\Local\Temp\ccEQi33f.s:27116  .debug_str:000000000001cb2b .LASF1339
C:\Users\SOLDER~1\AppData\Local\Temp\ccEQi33f.s:26246  .debug_str:00000000000192d1 .LASF1340
C:\Users\SOLDER~1\AppData\Local\Temp\ccEQi33f.s:21148  .debug_str:0000000000004728 .LASF1341
C:\Users\SOLDER~1\AppData\Local\Temp\ccEQi33f.s:22804  .debug_str:000000000000b2cb .LASF1342
C:\Users\SOLDER~1\AppData\Local\Temp\ccEQi33f.s:28964  .debug_str:000000000002431c .LASF1343
C:\Users\SOLDER~1\AppData\Local\Temp\ccEQi33f.s:23380  .debug_str:000000000000d8d8 .LASF1344
C:\Users\SOLDER~1\AppData\Local\Temp\ccEQi33f.s:29496  .debug_str:000000000002666b .LASF1345
C:\Users\SOLDER~1\AppData\Local\Temp\ccEQi33f.s:24288  .debug_str:00000000000113a3 .LASF1346
C:\Users\SOLDER~1\AppData\Local\Temp\ccEQi33f.s:28178  .debug_str:000000000002101e .LASF1347
C:\Users\SOLDER~1\AppData\Local\Temp\ccEQi33f.s:24984  .debug_str:0000000000014183 .LASF1348
C:\Users\SOLDER~1\AppData\Local\Temp\ccEQi33f.s:20466  .debug_str:0000000000001b37 .LASF1349
C:\Users\SOLDER~1\AppData\Local\Temp\ccEQi33f.s:28586  .debug_str:0000000000022a69 .LASF1350
C:\Users\SOLDER~1\AppData\Local\Temp\ccEQi33f.s:26788  .debug_str:000000000001b558 .LASF1351
C:\Users\SOLDER~1\AppData\Local\Temp\ccEQi33f.s:22654  .debug_str:000000000000a936 .LASF1352
C:\Users\SOLDER~1\AppData\Local\Temp\ccEQi33f.s:23324  .debug_str:000000000000d542 .LASF1353
C:\Users\SOLDER~1\AppData\Local\Temp\ccEQi33f.s:27744  .debug_str:000000000001f440 .LASF1354
C:\Users\SOLDER~1\AppData\Local\Temp\ccEQi33f.s:26810  .debug_str:000000000001b6a5 .LASF1355
C:\Users\SOLDER~1\AppData\Local\Temp\ccEQi33f.s:22960  .debug_str:000000000000bcb8 .LASF1356
C:\Users\SOLDER~1\AppData\Local\Temp\ccEQi33f.s:20906  .debug_str:00000000000037d4 .LASF1357
C:\Users\SOLDER~1\AppData\Local\Temp\ccEQi33f.s:22144  .debug_str:0000000000008779 .LASF1358
C:\Users\SOLDER~1\AppData\Local\Temp\ccEQi33f.s:29190  .debug_str:00000000000251cb .LASF1359
C:\Users\SOLDER~1\AppData\Local\Temp\ccEQi33f.s:27222  .debug_str:000000000001d248 .LASF1360
C:\Users\SOLDER~1\AppData\Local\Temp\ccEQi33f.s:28762  .debug_str:0000000000023614 .LASF1361
C:\Users\SOLDER~1\AppData\Local\Temp\ccEQi33f.s:26118  .debug_str:0000000000018a94 .LASF1362
C:\Users\SOLDER~1\AppData\Local\Temp\ccEQi33f.s:28020  .debug_str:00000000000205d4 .LASF1363
C:\Users\SOLDER~1\AppData\Local\Temp\ccEQi33f.s:21434  .debug_str:0000000000005921 .LASF1364
C:\Users\SOLDER~1\AppData\Local\Temp\ccEQi33f.s:25342  .debug_str:0000000000015909 .LASF1365
C:\Users\SOLDER~1\AppData\Local\Temp\ccEQi33f.s:27326  .debug_str:000000000001d8a2 .LASF1366
C:\Users\SOLDER~1\AppData\Local\Temp\ccEQi33f.s:25552  .debug_str:0000000000016628 .LASF1367
C:\Users\SOLDER~1\AppData\Local\Temp\ccEQi33f.s:30340  .debug_str:0000000000029d9a .LASF1368
C:\Users\SOLDER~1\AppData\Local\Temp\ccEQi33f.s:31102  .debug_str:000000000002ceee .LASF1369
C:\Users\SOLDER~1\AppData\Local\Temp\ccEQi33f.s:31118  .debug_str:000000000002d018 .LASF1370
C:\Users\SOLDER~1\AppData\Local\Temp\ccEQi33f.s:23370  .debug_str:000000000000d833 .LASF1371
C:\Users\SOLDER~1\AppData\Local\Temp\ccEQi33f.s:22464  .debug_str:0000000000009c69 .LASF1372
C:\Users\SOLDER~1\AppData\Local\Temp\ccEQi33f.s:28942  .debug_str:00000000000241be .LASF1373
C:\Users\SOLDER~1\AppData\Local\Temp\ccEQi33f.s:30626  .debug_str:000000000002b029 .LASF1374
C:\Users\SOLDER~1\AppData\Local\Temp\ccEQi33f.s:21634  .debug_str:000000000000663f .LASF1375
C:\Users\SOLDER~1\AppData\Local\Temp\ccEQi33f.s:24690  .debug_str:0000000000012d80 .LASF1376
C:\Users\SOLDER~1\AppData\Local\Temp\ccEQi33f.s:22244  .debug_str:0000000000008e17 .LASF1377
C:\Users\SOLDER~1\AppData\Local\Temp\ccEQi33f.s:27212  .debug_str:000000000001d1a1 .LASF1378
C:\Users\SOLDER~1\AppData\Local\Temp\ccEQi33f.s:28496  .debug_str:0000000000022440 .LASF1379
C:\Users\SOLDER~1\AppData\Local\Temp\ccEQi33f.s:29216  .debug_str:0000000000025376 .LASF1380
C:\Users\SOLDER~1\AppData\Local\Temp\ccEQi33f.s:24646  .debug_str:0000000000012a78 .LASF1381
GAS LISTING C:\Users\SOLDER~1\AppData\Local\Temp\ccEQi33f.s 			page 67


C:\Users\SOLDER~1\AppData\Local\Temp\ccEQi33f.s:21252  .debug_str:0000000000004da8 .LASF1382
C:\Users\SOLDER~1\AppData\Local\Temp\ccEQi33f.s:31074  .debug_str:000000000002cce3 .LASF1383
C:\Users\SOLDER~1\AppData\Local\Temp\ccEQi33f.s:22192  .debug_str:0000000000008a87 .LASF1384
C:\Users\SOLDER~1\AppData\Local\Temp\ccEQi33f.s:31164  .debug_str:000000000002d337 .LASF1385
C:\Users\SOLDER~1\AppData\Local\Temp\ccEQi33f.s:24014  .debug_str:0000000000010217 .LASF1386
C:\Users\SOLDER~1\AppData\Local\Temp\ccEQi33f.s:30536  .debug_str:000000000002aa3d .LASF1387
C:\Users\SOLDER~1\AppData\Local\Temp\ccEQi33f.s:30780  .debug_str:000000000002b9ed .LASF1388
C:\Users\SOLDER~1\AppData\Local\Temp\ccEQi33f.s:28686  .debug_str:00000000000230e6 .LASF1389
C:\Users\SOLDER~1\AppData\Local\Temp\ccEQi33f.s:30216  .debug_str:000000000002959e .LASF1390
C:\Users\SOLDER~1\AppData\Local\Temp\ccEQi33f.s:25492  .debug_str:0000000000016299 .LASF1391
C:\Users\SOLDER~1\AppData\Local\Temp\ccEQi33f.s:25818  .debug_str:000000000001772e .LASF1392
C:\Users\SOLDER~1\AppData\Local\Temp\ccEQi33f.s:25082  .debug_str:000000000001481e .LASF1393
C:\Users\SOLDER~1\AppData\Local\Temp\ccEQi33f.s:24114  .debug_str:00000000000108b1 .LASF1394
C:\Users\SOLDER~1\AppData\Local\Temp\ccEQi33f.s:24300  .debug_str:000000000001148a .LASF1395
C:\Users\SOLDER~1\AppData\Local\Temp\ccEQi33f.s:29230  .debug_str:0000000000025439 .LASF1396
C:\Users\SOLDER~1\AppData\Local\Temp\ccEQi33f.s:21582  .debug_str:00000000000062bd .LASF1397
C:\Users\SOLDER~1\AppData\Local\Temp\ccEQi33f.s:23582  .debug_str:000000000000e60c .LASF1398
C:\Users\SOLDER~1\AppData\Local\Temp\ccEQi33f.s:28988  .debug_str:00000000000244bd .LASF1399
C:\Users\SOLDER~1\AppData\Local\Temp\ccEQi33f.s:26606  .debug_str:000000000001a9b7 .LASF1400
C:\Users\SOLDER~1\AppData\Local\Temp\ccEQi33f.s:27244  .debug_str:000000000001d3d3 .LASF1401
C:\Users\SOLDER~1\AppData\Local\Temp\ccEQi33f.s:22826  .debug_str:000000000000b46c .LASF1402
C:\Users\SOLDER~1\AppData\Local\Temp\ccEQi33f.s:29110  .debug_str:0000000000024cb2 .LASF1403
C:\Users\SOLDER~1\AppData\Local\Temp\ccEQi33f.s:30294  .debug_str:0000000000029a57 .LASF1404
C:\Users\SOLDER~1\AppData\Local\Temp\ccEQi33f.s:25240  .debug_str:00000000000152a4 .LASF1405
C:\Users\SOLDER~1\AppData\Local\Temp\ccEQi33f.s:26890  .debug_str:000000000001bb99 .LASF1406
C:\Users\SOLDER~1\AppData\Local\Temp\ccEQi33f.s:25952  .debug_str:000000000001800a .LASF1407
C:\Users\SOLDER~1\AppData\Local\Temp\ccEQi33f.s:27628  .debug_str:000000000001ec64 .LASF1408
C:\Users\SOLDER~1\AppData\Local\Temp\ccEQi33f.s:26536  .debug_str:000000000001a51d .LASF1409
C:\Users\SOLDER~1\AppData\Local\Temp\ccEQi33f.s:21284  .debug_str:0000000000004f83 .LASF1410
C:\Users\SOLDER~1\AppData\Local\Temp\ccEQi33f.s:21150  .debug_str:000000000000474d .LASF1411
C:\Users\SOLDER~1\AppData\Local\Temp\ccEQi33f.s:21880  .debug_str:0000000000007673 .LASF1412
C:\Users\SOLDER~1\AppData\Local\Temp\ccEQi33f.s:28894  .debug_str:0000000000023e86 .LASF1413
C:\Users\SOLDER~1\AppData\Local\Temp\ccEQi33f.s:25560  .debug_str:0000000000016697 .LASF1414
C:\Users\SOLDER~1\AppData\Local\Temp\ccEQi33f.s:23776  .debug_str:000000000000f25b .LASF1415
C:\Users\SOLDER~1\AppData\Local\Temp\ccEQi33f.s:26498  .debug_str:000000000001a29e .LASF1416
C:\Users\SOLDER~1\AppData\Local\Temp\ccEQi33f.s:27302  .debug_str:000000000001d75f .LASF1417
C:\Users\SOLDER~1\AppData\Local\Temp\ccEQi33f.s:20280  .debug_str:0000000000000f61 .LASF1418
C:\Users\SOLDER~1\AppData\Local\Temp\ccEQi33f.s:30874  .debug_str:000000000002c054 .LASF1419
C:\Users\SOLDER~1\AppData\Local\Temp\ccEQi33f.s:27028  .debug_str:000000000001c4f6 .LASF1420
C:\Users\SOLDER~1\AppData\Local\Temp\ccEQi33f.s:20230  .debug_str:0000000000000c2e .LASF1421
C:\Users\SOLDER~1\AppData\Local\Temp\ccEQi33f.s:26502  .debug_str:000000000001a2eb .LASF1422
C:\Users\SOLDER~1\AppData\Local\Temp\ccEQi33f.s:21730  .debug_str:0000000000006c85 .LASF1423
C:\Users\SOLDER~1\AppData\Local\Temp\ccEQi33f.s:31330  .debug_str:000000000002ddbf .LASF1424
C:\Users\SOLDER~1\AppData\Local\Temp\ccEQi33f.s:21314  .debug_str:000000000000514f .LASF1425
C:\Users\SOLDER~1\AppData\Local\Temp\ccEQi33f.s:30146  .debug_str:00000000000290ee .LASF1426
C:\Users\SOLDER~1\AppData\Local\Temp\ccEQi33f.s:20552  .debug_str:00000000000020e6 .LASF1427
C:\Users\SOLDER~1\AppData\Local\Temp\ccEQi33f.s:25444  .debug_str:0000000000015f93 .LASF1428
C:\Users\SOLDER~1\AppData\Local\Temp\ccEQi33f.s:29370  .debug_str:0000000000025dc4 .LASF1429
C:\Users\SOLDER~1\AppData\Local\Temp\ccEQi33f.s:31436  .debug_str:000000000002e46f .LASF1430
C:\Users\SOLDER~1\AppData\Local\Temp\ccEQi33f.s:20840  .debug_str:000000000000339e .LASF1431
C:\Users\SOLDER~1\AppData\Local\Temp\ccEQi33f.s:22842  .debug_str:000000000000b566 .LASF1432
C:\Users\SOLDER~1\AppData\Local\Temp\ccEQi33f.s:23506  .debug_str:000000000000e140 .LASF1433
C:\Users\SOLDER~1\AppData\Local\Temp\ccEQi33f.s:30646  .debug_str:000000000002b186 .LASF1434
C:\Users\SOLDER~1\AppData\Local\Temp\ccEQi33f.s:27450  .debug_str:000000000001e0e3 .LASF1435
C:\Users\SOLDER~1\AppData\Local\Temp\ccEQi33f.s:22136  .debug_str:00000000000086ee .LASF1436
C:\Users\SOLDER~1\AppData\Local\Temp\ccEQi33f.s:21216  .debug_str:0000000000004b84 .LASF1437
C:\Users\SOLDER~1\AppData\Local\Temp\ccEQi33f.s:23130  .debug_str:000000000000c83d .LASF1438
GAS LISTING C:\Users\SOLDER~1\AppData\Local\Temp\ccEQi33f.s 			page 68


C:\Users\SOLDER~1\AppData\Local\Temp\ccEQi33f.s:30190  .debug_str:00000000000293e5 .LASF1439
C:\Users\SOLDER~1\AppData\Local\Temp\ccEQi33f.s:24672  .debug_str:0000000000012c49 .LASF1440
C:\Users\SOLDER~1\AppData\Local\Temp\ccEQi33f.s:30810  .debug_str:000000000002bbed .LASF1441
C:\Users\SOLDER~1\AppData\Local\Temp\ccEQi33f.s:25494  .debug_str:00000000000162be .LASF1442
C:\Users\SOLDER~1\AppData\Local\Temp\ccEQi33f.s:25454  .debug_str:0000000000016028 .LASF1443
C:\Users\SOLDER~1\AppData\Local\Temp\ccEQi33f.s:27992  .debug_str:00000000000203f3 .LASF1444
C:\Users\SOLDER~1\AppData\Local\Temp\ccEQi33f.s:21652  .debug_str:0000000000006795 .LASF1445
C:\Users\SOLDER~1\AppData\Local\Temp\ccEQi33f.s:23576  .debug_str:000000000000e5a6 .LASF1446
C:\Users\SOLDER~1\AppData\Local\Temp\ccEQi33f.s:28042  .debug_str:0000000000020726 .LASF1447
C:\Users\SOLDER~1\AppData\Local\Temp\ccEQi33f.s:30760  .debug_str:000000000002b8b6 .LASF1448
C:\Users\SOLDER~1\AppData\Local\Temp\ccEQi33f.s:22148  .debug_str:00000000000087b7 .LASF1449
C:\Users\SOLDER~1\AppData\Local\Temp\ccEQi33f.s:28052  .debug_str:00000000000207c8 .LASF1450
C:\Users\SOLDER~1\AppData\Local\Temp\ccEQi33f.s:24982  .debug_str:000000000001415e .LASF1451
C:\Users\SOLDER~1\AppData\Local\Temp\ccEQi33f.s:23282  .debug_str:000000000000d283 .LASF1452
C:\Users\SOLDER~1\AppData\Local\Temp\ccEQi33f.s:21232  .debug_str:0000000000004c92 .LASF1453
C:\Users\SOLDER~1\AppData\Local\Temp\ccEQi33f.s:22732  .debug_str:000000000000ae55 .LASF1454
C:\Users\SOLDER~1\AppData\Local\Temp\ccEQi33f.s:29526  .debug_str:000000000002687b .LASF1455
C:\Users\SOLDER~1\AppData\Local\Temp\ccEQi33f.s:27560  .debug_str:000000000001e7ed .LASF1456
C:\Users\SOLDER~1\AppData\Local\Temp\ccEQi33f.s:29098  .debug_str:0000000000024c02 .LASF1457
C:\Users\SOLDER~1\AppData\Local\Temp\ccEQi33f.s:26346  .debug_str:0000000000019919 .LASF1458
C:\Users\SOLDER~1\AppData\Local\Temp\ccEQi33f.s:28342  .debug_str:0000000000021ad7 .LASF1459
C:\Users\SOLDER~1\AppData\Local\Temp\ccEQi33f.s:21614  .debug_str:00000000000064e2 .LASF1460
C:\Users\SOLDER~1\AppData\Local\Temp\ccEQi33f.s:25688  .debug_str:0000000000016e8e .LASF1461
C:\Users\SOLDER~1\AppData\Local\Temp\ccEQi33f.s:25620  .debug_str:0000000000016a95 .LASF1462
C:\Users\SOLDER~1\AppData\Local\Temp\ccEQi33f.s:21544  .debug_str:000000000000602b .LASF1463
C:\Users\SOLDER~1\AppData\Local\Temp\ccEQi33f.s:30670  .debug_str:000000000002b2f4 .LASF1464
C:\Users\SOLDER~1\AppData\Local\Temp\ccEQi33f.s:31356  .debug_str:000000000002df6e .LASF1465
C:\Users\SOLDER~1\AppData\Local\Temp\ccEQi33f.s:26906  .debug_str:000000000001bcce .LASF1466
C:\Users\SOLDER~1\AppData\Local\Temp\ccEQi33f.s:21690  .debug_str:0000000000006a14 .LASF1467
C:\Users\SOLDER~1\AppData\Local\Temp\ccEQi33f.s:22716  .debug_str:000000000000ad2e .LASF1468
C:\Users\SOLDER~1\AppData\Local\Temp\ccEQi33f.s:27286  .debug_str:000000000001d664 .LASF1469
C:\Users\SOLDER~1\AppData\Local\Temp\ccEQi33f.s:25894  .debug_str:0000000000017c01 .LASF1470
C:\Users\SOLDER~1\AppData\Local\Temp\ccEQi33f.s:22918  .debug_str:000000000000b9e8 .LASF1471
C:\Users\SOLDER~1\AppData\Local\Temp\ccEQi33f.s:28820  .debug_str:0000000000023997 .LASF1472
C:\Users\SOLDER~1\AppData\Local\Temp\ccEQi33f.s:23422  .debug_str:000000000000db5e .LASF1473
C:\Users\SOLDER~1\AppData\Local\Temp\ccEQi33f.s:29730  .debug_str:00000000000275f3 .LASF1474
C:\Users\SOLDER~1\AppData\Local\Temp\ccEQi33f.s:29696  .debug_str:00000000000273bc .LASF1475
C:\Users\SOLDER~1\AppData\Local\Temp\ccEQi33f.s:30426  .debug_str:000000000002a360 .LASF1476
C:\Users\SOLDER~1\AppData\Local\Temp\ccEQi33f.s:25966  .debug_str:00000000000180e7 .LASF1477
C:\Users\SOLDER~1\AppData\Local\Temp\ccEQi33f.s:22518  .debug_str:000000000000a00c .LASF1478
C:\Users\SOLDER~1\AppData\Local\Temp\ccEQi33f.s:20698  .debug_str:0000000000002a9a .LASF1479
C:\Users\SOLDER~1\AppData\Local\Temp\ccEQi33f.s:23372  .debug_str:000000000000d858 .LASF1480
C:\Users\SOLDER~1\AppData\Local\Temp\ccEQi33f.s:31414  .debug_str:000000000002e301 .LASF1481
C:\Users\SOLDER~1\AppData\Local\Temp\ccEQi33f.s:24328  .debug_str:0000000000011635 .LASF1482
C:\Users\SOLDER~1\AppData\Local\Temp\ccEQi33f.s:23376  .debug_str:000000000000d89f .LASF1483
C:\Users\SOLDER~1\AppData\Local\Temp\ccEQi33f.s:31114  .debug_str:000000000002cfca .LASF1484
C:\Users\SOLDER~1\AppData\Local\Temp\ccEQi33f.s:29018  .debug_str:00000000000246bb .LASF1485
C:\Users\SOLDER~1\AppData\Local\Temp\ccEQi33f.s:30462  .debug_str:000000000002a5c1 .LASF1486
C:\Users\SOLDER~1\AppData\Local\Temp\ccEQi33f.s:25846  .debug_str:00000000000178ee .LASF1487
C:\Users\SOLDER~1\AppData\Local\Temp\ccEQi33f.s:23172  .debug_str:000000000000cb34 .LASF1488
C:\Users\SOLDER~1\AppData\Local\Temp\ccEQi33f.s:25410  .debug_str:0000000000015d2b .LASF1489
C:\Users\SOLDER~1\AppData\Local\Temp\ccEQi33f.s:22564  .debug_str:000000000000a32f .LASF1490
C:\Users\SOLDER~1\AppData\Local\Temp\ccEQi33f.s:21556  .debug_str:0000000000006128 .LASF1491
C:\Users\SOLDER~1\AppData\Local\Temp\ccEQi33f.s:29470  .debug_str:00000000000264e1 .LASF1492
C:\Users\SOLDER~1\AppData\Local\Temp\ccEQi33f.s:26576  .debug_str:000000000001a7e0 .LASF1493
C:\Users\SOLDER~1\AppData\Local\Temp\ccEQi33f.s:23932  .debug_str:000000000000fd10 .LASF1494
C:\Users\SOLDER~1\AppData\Local\Temp\ccEQi33f.s:29326  .debug_str:0000000000025ad7 .LASF1495
GAS LISTING C:\Users\SOLDER~1\AppData\Local\Temp\ccEQi33f.s 			page 69


C:\Users\SOLDER~1\AppData\Local\Temp\ccEQi33f.s:26926  .debug_str:000000000001be33 .LASF1496
C:\Users\SOLDER~1\AppData\Local\Temp\ccEQi33f.s:27590  .debug_str:000000000001e9fb .LASF1497
C:\Users\SOLDER~1\AppData\Local\Temp\ccEQi33f.s:23154  .debug_str:000000000000ca0a .LASF1498
C:\Users\SOLDER~1\AppData\Local\Temp\ccEQi33f.s:31460  .debug_str:000000000002e5ef .LASF1499
C:\Users\SOLDER~1\AppData\Local\Temp\ccEQi33f.s:30522  .debug_str:000000000002a946 .LASF1500
C:\Users\SOLDER~1\AppData\Local\Temp\ccEQi33f.s:25588  .debug_str:0000000000016870 .LASF1501
C:\Users\SOLDER~1\AppData\Local\Temp\ccEQi33f.s:20690  .debug_str:0000000000002a28 .LASF1502
C:\Users\SOLDER~1\AppData\Local\Temp\ccEQi33f.s:27102  .debug_str:000000000001ca25 .LASF1503
C:\Users\SOLDER~1\AppData\Local\Temp\ccEQi33f.s:21580  .debug_str:0000000000006299 .LASF1504
C:\Users\SOLDER~1\AppData\Local\Temp\ccEQi33f.s:27722  .debug_str:000000000001f2b6 .LASF1505
C:\Users\SOLDER~1\AppData\Local\Temp\ccEQi33f.s:22468  .debug_str:0000000000009cd1 .LASF1506
C:\Users\SOLDER~1\AppData\Local\Temp\ccEQi33f.s:22432  .debug_str:0000000000009a6f .LASF1507
C:\Users\SOLDER~1\AppData\Local\Temp\ccEQi33f.s:23146  .debug_str:000000000000c97e .LASF1508
C:\Users\SOLDER~1\AppData\Local\Temp\ccEQi33f.s:30098  .debug_str:0000000000028dd3 .LASF1509
C:\Users\SOLDER~1\AppData\Local\Temp\ccEQi33f.s:27500  .debug_str:000000000001e3eb .LASF1510
C:\Users\SOLDER~1\AppData\Local\Temp\ccEQi33f.s:24990  .debug_str:00000000000141fb .LASF1511
C:\Users\SOLDER~1\AppData\Local\Temp\ccEQi33f.s:27666  .debug_str:000000000001eedc .LASF1512
C:\Users\SOLDER~1\AppData\Local\Temp\ccEQi33f.s:27652  .debug_str:000000000001edf1 .LASF1513
C:\Users\SOLDER~1\AppData\Local\Temp\ccEQi33f.s:20558  .debug_str:000000000000215b .LASF1514
C:\Users\SOLDER~1\AppData\Local\Temp\ccEQi33f.s:31216  .debug_str:000000000002d65f .LASF1515
C:\Users\SOLDER~1\AppData\Local\Temp\ccEQi33f.s:27352  .debug_str:000000000001da57 .LASF1516
C:\Users\SOLDER~1\AppData\Local\Temp\ccEQi33f.s:28248  .debug_str:00000000000214b9 .LASF1517
C:\Users\SOLDER~1\AppData\Local\Temp\ccEQi33f.s:26728  .debug_str:000000000001b169 .LASF1518
C:\Users\SOLDER~1\AppData\Local\Temp\ccEQi33f.s:22064  .debug_str:000000000000827c .LASF1519
C:\Users\SOLDER~1\AppData\Local\Temp\ccEQi33f.s:31570  .debug_str:000000000002ecfe .LASF1520
C:\Users\SOLDER~1\AppData\Local\Temp\ccEQi33f.s:29064  .debug_str:00000000000249a7 .LASF1521
C:\Users\SOLDER~1\AppData\Local\Temp\ccEQi33f.s:30390  .debug_str:000000000002a0f5 .LASF1522
C:\Users\SOLDER~1\AppData\Local\Temp\ccEQi33f.s:20804  .debug_str:0000000000003141 .LASF1523
C:\Users\SOLDER~1\AppData\Local\Temp\ccEQi33f.s:25796  .debug_str:00000000000175cd .LASF1524
C:\Users\SOLDER~1\AppData\Local\Temp\ccEQi33f.s:29716  .debug_str:000000000002750c .LASF1525
C:\Users\SOLDER~1\AppData\Local\Temp\ccEQi33f.s:20122  .debug_str:0000000000000438 .LASF1526
C:\Users\SOLDER~1\AppData\Local\Temp\ccEQi33f.s:25644  .debug_str:0000000000016bdb .LASF1527
C:\Users\SOLDER~1\AppData\Local\Temp\ccEQi33f.s:23090  .debug_str:000000000000c58e .LASF1528
C:\Users\SOLDER~1\AppData\Local\Temp\ccEQi33f.s:23852  .debug_str:000000000000f759 .LASF1529
C:\Users\SOLDER~1\AppData\Local\Temp\ccEQi33f.s:22038  .debug_str:00000000000080dc .LASF1530
C:\Users\SOLDER~1\AppData\Local\Temp\ccEQi33f.s:28606  .debug_str:0000000000022bb9 .LASF1531
C:\Users\SOLDER~1\AppData\Local\Temp\ccEQi33f.s:26798  .debug_str:000000000001b5e9 .LASF1532
C:\Users\SOLDER~1\AppData\Local\Temp\ccEQi33f.s:21610  .debug_str:000000000000649a .LASF1533
C:\Users\SOLDER~1\AppData\Local\Temp\ccEQi33f.s:23458  .debug_str:000000000000ddc3 .LASF1534
C:\Users\SOLDER~1\AppData\Local\Temp\ccEQi33f.s:31406  .debug_str:000000000002e27c .LASF1535
C:\Users\SOLDER~1\AppData\Local\Temp\ccEQi33f.s:25904  .debug_str:0000000000017ca8 .LASF1536
C:\Users\SOLDER~1\AppData\Local\Temp\ccEQi33f.s:20444  .debug_str:00000000000019cb .LASF1537
C:\Users\SOLDER~1\AppData\Local\Temp\ccEQi33f.s:26766  .debug_str:000000000001b3f9 .LASF1538
C:\Users\SOLDER~1\AppData\Local\Temp\ccEQi33f.s:26634  .debug_str:000000000001aba8 .LASF1539
C:\Users\SOLDER~1\AppData\Local\Temp\ccEQi33f.s:27332  .debug_str:000000000001d912 .LASF1540
C:\Users\SOLDER~1\AppData\Local\Temp\ccEQi33f.s:22834  .debug_str:000000000000b4f5 .LASF1541
C:\Users\SOLDER~1\AppData\Local\Temp\ccEQi33f.s:31016  .debug_str:000000000002c95f .LASF1542
C:\Users\SOLDER~1\AppData\Local\Temp\ccEQi33f.s:29150  .debug_str:0000000000024f50 .LASF1543
C:\Users\SOLDER~1\AppData\Local\Temp\ccEQi33f.s:20394  .debug_str:00000000000016b6 .LASF1544
C:\Users\SOLDER~1\AppData\Local\Temp\ccEQi33f.s:23912  .debug_str:000000000000fbb4 .LASF1545
C:\Users\SOLDER~1\AppData\Local\Temp\ccEQi33f.s:28378  .debug_str:0000000000021d0c .LASF1546
C:\Users\SOLDER~1\AppData\Local\Temp\ccEQi33f.s:27454  .debug_str:000000000001e12e .LASF1547
C:\Users\SOLDER~1\AppData\Local\Temp\ccEQi33f.s:23608  .debug_str:000000000000e7eb .LASF1548
C:\Users\SOLDER~1\AppData\Local\Temp\ccEQi33f.s:31272  .debug_str:000000000002d9fc .LASF1549
C:\Users\SOLDER~1\AppData\Local\Temp\ccEQi33f.s:21968  .debug_str:0000000000007bf2 .LASF1550
C:\Users\SOLDER~1\AppData\Local\Temp\ccEQi33f.s:29856  .debug_str:0000000000027e20 .LASF1551
C:\Users\SOLDER~1\AppData\Local\Temp\ccEQi33f.s:28234  .debug_str:00000000000213cd .LASF1552
GAS LISTING C:\Users\SOLDER~1\AppData\Local\Temp\ccEQi33f.s 			page 70


C:\Users\SOLDER~1\AppData\Local\Temp\ccEQi33f.s:29434  .debug_str:0000000000026264 .LASF1553
C:\Users\SOLDER~1\AppData\Local\Temp\ccEQi33f.s:26664  .debug_str:000000000001adc9 .LASF1554
C:\Users\SOLDER~1\AppData\Local\Temp\ccEQi33f.s:28576  .debug_str:00000000000229a1 .LASF1555
C:\Users\SOLDER~1\AppData\Local\Temp\ccEQi33f.s:22020  .debug_str:0000000000007f8c .LASF1556
C:\Users\SOLDER~1\AppData\Local\Temp\ccEQi33f.s:26028  .debug_str:00000000000184a7 .LASF1557
C:\Users\SOLDER~1\AppData\Local\Temp\ccEQi33f.s:27912  .debug_str:000000000001fed3 .LASF1558
C:\Users\SOLDER~1\AppData\Local\Temp\ccEQi33f.s:21876  .debug_str:0000000000007637 .LASF1559
C:\Users\SOLDER~1\AppData\Local\Temp\ccEQi33f.s:30922  .debug_str:000000000002c374 .LASF1560
C:\Users\SOLDER~1\AppData\Local\Temp\ccEQi33f.s:20130  .debug_str:00000000000004b8 .LASF1561
C:\Users\SOLDER~1\AppData\Local\Temp\ccEQi33f.s:27136  .debug_str:000000000001cc67 .LASF1562
C:\Users\SOLDER~1\AppData\Local\Temp\ccEQi33f.s:23964  .debug_str:000000000000ff22 .LASF1563
C:\Users\SOLDER~1\AppData\Local\Temp\ccEQi33f.s:23042  .debug_str:000000000000c211 .LASF1564
C:\Users\SOLDER~1\AppData\Local\Temp\ccEQi33f.s:29610  .debug_str:0000000000026e12 .LASF1565
C:\Users\SOLDER~1\AppData\Local\Temp\ccEQi33f.s:25804  .debug_str:000000000001764b .LASF1566
C:\Users\SOLDER~1\AppData\Local\Temp\ccEQi33f.s:24124  .debug_str:0000000000010969 .LASF1567
C:\Users\SOLDER~1\AppData\Local\Temp\ccEQi33f.s:30128  .debug_str:0000000000028fa8 .LASF1568
C:\Users\SOLDER~1\AppData\Local\Temp\ccEQi33f.s:24618  .debug_str:0000000000012878 .LASF1569
C:\Users\SOLDER~1\AppData\Local\Temp\ccEQi33f.s:30954  .debug_str:000000000002c57b .LASF1570
C:\Users\SOLDER~1\AppData\Local\Temp\ccEQi33f.s:30920  .debug_str:000000000002c350 .LASF1571
C:\Users\SOLDER~1\AppData\Local\Temp\ccEQi33f.s:20092  .debug_str:0000000000000255 .LASF1572
C:\Users\SOLDER~1\AppData\Local\Temp\ccEQi33f.s:27114  .debug_str:000000000001cb07 .LASF1573
C:\Users\SOLDER~1\AppData\Local\Temp\ccEQi33f.s:23718  .debug_str:000000000000eed4 .LASF1574
C:\Users\SOLDER~1\AppData\Local\Temp\ccEQi33f.s:21980  .debug_str:0000000000007ce8 .LASF1575
C:\Users\SOLDER~1\AppData\Local\Temp\ccEQi33f.s:24568  .debug_str:000000000001259f .LASF1576
C:\Users\SOLDER~1\AppData\Local\Temp\ccEQi33f.s:20184  .debug_str:0000000000000910 .LASF1577
C:\Users\SOLDER~1\AppData\Local\Temp\ccEQi33f.s:24662  .debug_str:0000000000012bab .LASF1578
C:\Users\SOLDER~1\AppData\Local\Temp\ccEQi33f.s:23708  .debug_str:000000000000ee27 .LASF1579
C:\Users\SOLDER~1\AppData\Local\Temp\ccEQi33f.s:31368  .debug_str:000000000002e022 .LASF1580
C:\Users\SOLDER~1\AppData\Local\Temp\ccEQi33f.s:29272  .debug_str:00000000000256f9 .LASF1581
C:\Users\SOLDER~1\AppData\Local\Temp\ccEQi33f.s:30800  .debug_str:000000000002bb36 .LASF1582
C:\Users\SOLDER~1\AppData\Local\Temp\ccEQi33f.s:26170  .debug_str:0000000000018e25 .LASF1583
C:\Users\SOLDER~1\AppData\Local\Temp\ccEQi33f.s:24080  .debug_str:0000000000010660 .LASF1584
C:\Users\SOLDER~1\AppData\Local\Temp\ccEQi33f.s:25660  .debug_str:0000000000016cc1 .LASF1585
C:\Users\SOLDER~1\AppData\Local\Temp\ccEQi33f.s:22916  .debug_str:000000000000b9c3 .LASF1586
C:\Users\SOLDER~1\AppData\Local\Temp\ccEQi33f.s:24894  .debug_str:0000000000013b66 .LASF1587
C:\Users\SOLDER~1\AppData\Local\Temp\ccEQi33f.s:29806  .debug_str:0000000000027ab3 .LASF1588
C:\Users\SOLDER~1\AppData\Local\Temp\ccEQi33f.s:22246  .debug_str:0000000000008e3b .LASF1589
C:\Users\SOLDER~1\AppData\Local\Temp\ccEQi33f.s:24186  .debug_str:0000000000010d2c .LASF1590
C:\Users\SOLDER~1\AppData\Local\Temp\ccEQi33f.s:29572  .debug_str:0000000000026bb9 .LASF1591
C:\Users\SOLDER~1\AppData\Local\Temp\ccEQi33f.s:27160  .debug_str:000000000001ce0d .LASF1592
C:\Users\SOLDER~1\AppData\Local\Temp\ccEQi33f.s:29820  .debug_str:0000000000027bb4 .LASF1593
C:\Users\SOLDER~1\AppData\Local\Temp\ccEQi33f.s:23396  .debug_str:000000000000d9bf .LASF1594
C:\Users\SOLDER~1\AppData\Local\Temp\ccEQi33f.s:20234  .debug_str:0000000000000c78 .LASF1595
C:\Users\SOLDER~1\AppData\Local\Temp\ccEQi33f.s:30868  .debug_str:000000000002bfe8 .LASF1596
C:\Users\SOLDER~1\AppData\Local\Temp\ccEQi33f.s:25842  .debug_str:00000000000178a5 .LASF1597
C:\Users\SOLDER~1\AppData\Local\Temp\ccEQi33f.s:28718  .debug_str:000000000002331a .LASF1598
C:\Users\SOLDER~1\AppData\Local\Temp\ccEQi33f.s:31000  .debug_str:000000000002c84f .LASF1599
C:\Users\SOLDER~1\AppData\Local\Temp\ccEQi33f.s:25482  .debug_str:00000000000161df .LASF1600
C:\Users\SOLDER~1\AppData\Local\Temp\ccEQi33f.s:20064  .debug_str:00000000000000bc .LASF1601
C:\Users\SOLDER~1\AppData\Local\Temp\ccEQi33f.s:26290  .debug_str:00000000000195e4 .LASF1602
C:\Users\SOLDER~1\AppData\Local\Temp\ccEQi33f.s:26258  .debug_str:00000000000193b7 .LASF1603
C:\Users\SOLDER~1\AppData\Local\Temp\ccEQi33f.s:26948  .debug_str:000000000001bf84 .LASF1604
C:\Users\SOLDER~1\AppData\Local\Temp\ccEQi33f.s:22438  .debug_str:0000000000009ace .LASF1605
C:\Users\SOLDER~1\AppData\Local\Temp\ccEQi33f.s:30606  .debug_str:000000000002aea2 .LASF1606
C:\Users\SOLDER~1\AppData\Local\Temp\ccEQi33f.s:28816  .debug_str:000000000002395a .LASF1607
C:\Users\SOLDER~1\AppData\Local\Temp\ccEQi33f.s:31476  .debug_str:000000000002e70f .LASF1608
C:\Users\SOLDER~1\AppData\Local\Temp\ccEQi33f.s:24972  .debug_str:000000000001408f .LASF1609
GAS LISTING C:\Users\SOLDER~1\AppData\Local\Temp\ccEQi33f.s 			page 71


C:\Users\SOLDER~1\AppData\Local\Temp\ccEQi33f.s:23492  .debug_str:000000000000e031 .LASF1610
C:\Users\SOLDER~1\AppData\Local\Temp\ccEQi33f.s:27782  .debug_str:000000000001f6b7 .LASF1611
C:\Users\SOLDER~1\AppData\Local\Temp\ccEQi33f.s:20742  .debug_str:0000000000002d3d .LASF1612
C:\Users\SOLDER~1\AppData\Local\Temp\ccEQi33f.s:28124  .debug_str:0000000000020c72 .LASF1613
C:\Users\SOLDER~1\AppData\Local\Temp\ccEQi33f.s:29618  .debug_str:0000000000026e98 .LASF1614
C:\Users\SOLDER~1\AppData\Local\Temp\ccEQi33f.s:25002  .debug_str:00000000000142cf .LASF1615
C:\Users\SOLDER~1\AppData\Local\Temp\ccEQi33f.s:22100  .debug_str:00000000000084c9 .LASF1616
C:\Users\SOLDER~1\AppData\Local\Temp\ccEQi33f.s:24472  .debug_str:0000000000011f66 .LASF1617
C:\Users\SOLDER~1\AppData\Local\Temp\ccEQi33f.s:21762  .debug_str:0000000000006ecf .LASF1618
C:\Users\SOLDER~1\AppData\Local\Temp\ccEQi33f.s:23704  .debug_str:000000000000eddc .LASF1619
C:\Users\SOLDER~1\AppData\Local\Temp\ccEQi33f.s:28648  .debug_str:0000000000022e62 .LASF1620
C:\Users\SOLDER~1\AppData\Local\Temp\ccEQi33f.s:21084  .debug_str:0000000000004312 .LASF1621
C:\Users\SOLDER~1\AppData\Local\Temp\ccEQi33f.s:23008  .debug_str:000000000000bfb0 .LASF1622
C:\Users\SOLDER~1\AppData\Local\Temp\ccEQi33f.s:28412  .debug_str:0000000000021f2a .LASF1623
C:\Users\SOLDER~1\AppData\Local\Temp\ccEQi33f.s:26054  .debug_str:000000000001866c .LASF1624
C:\Users\SOLDER~1\AppData\Local\Temp\ccEQi33f.s:26780  .debug_str:000000000001b4cf .LASF1625
C:\Users\SOLDER~1\AppData\Local\Temp\ccEQi33f.s:22252  .debug_str:0000000000008ea0 .LASF1626
C:\Users\SOLDER~1\AppData\Local\Temp\ccEQi33f.s:30616  .debug_str:000000000002af41 .LASF1627
C:\Users\SOLDER~1\AppData\Local\Temp\ccEQi33f.s:29690  .debug_str:0000000000027360 .LASF1628
C:\Users\SOLDER~1\AppData\Local\Temp\ccEQi33f.s:29182  .debug_str:000000000002512d .LASF1629
C:\Users\SOLDER~1\AppData\Local\Temp\ccEQi33f.s:26322  .debug_str:000000000001978c .LASF1630
C:\Users\SOLDER~1\AppData\Local\Temp\ccEQi33f.s:23700  .debug_str:000000000000ed96 .LASF1631
C:\Users\SOLDER~1\AppData\Local\Temp\ccEQi33f.s:29636  .debug_str:0000000000026fb9 .LASF1632
C:\Users\SOLDER~1\AppData\Local\Temp\ccEQi33f.s:24242  .debug_str:00000000000110b9 .LASF1633
C:\Users\SOLDER~1\AppData\Local\Temp\ccEQi33f.s:30540  .debug_str:000000000002aa8a .LASF1634
C:\Users\SOLDER~1\AppData\Local\Temp\ccEQi33f.s:28904  .debug_str:0000000000023f34 .LASF1635
C:\Users\SOLDER~1\AppData\Local\Temp\ccEQi33f.s:31242  .debug_str:000000000002d832 .LASF1636
C:\Users\SOLDER~1\AppData\Local\Temp\ccEQi33f.s:26734  .debug_str:000000000001b1d2 .LASF1637
C:\Users\SOLDER~1\AppData\Local\Temp\ccEQi33f.s:23316  .debug_str:000000000000d4bc .LASF1638
C:\Users\SOLDER~1\AppData\Local\Temp\ccEQi33f.s:21484  .debug_str:0000000000005c4f .LASF1639
C:\Users\SOLDER~1\AppData\Local\Temp\ccEQi33f.s:24192  .debug_str:0000000000010d8c .LASF1640
C:\Users\SOLDER~1\AppData\Local\Temp\ccEQi33f.s:26842  .debug_str:000000000001b88c .LASF1641
C:\Users\SOLDER~1\AppData\Local\Temp\ccEQi33f.s:31344  .debug_str:000000000002debb .LASF1642
C:\Users\SOLDER~1\AppData\Local\Temp\ccEQi33f.s:30296  .debug_str:0000000000029a7c .LASF1643
C:\Users\SOLDER~1\AppData\Local\Temp\ccEQi33f.s:26476  .debug_str:000000000001a13f .LASF1644
C:\Users\SOLDER~1\AppData\Local\Temp\ccEQi33f.s:24384  .debug_str:00000000000119ca .LASF1645
C:\Users\SOLDER~1\AppData\Local\Temp\ccEQi33f.s:30356  .debug_str:0000000000029e8e .LASF1646
C:\Users\SOLDER~1\AppData\Local\Temp\ccEQi33f.s:21240  .debug_str:0000000000004cfe .LASF1647
C:\Users\SOLDER~1\AppData\Local\Temp\ccEQi33f.s:25104  .debug_str:00000000000149cd .LASF1648
C:\Users\SOLDER~1\AppData\Local\Temp\ccEQi33f.s:20738  .debug_str:0000000000002cfc .LASF1649
C:\Users\SOLDER~1\AppData\Local\Temp\ccEQi33f.s:29554  .debug_str:0000000000026a78 .LASF1650
C:\Users\SOLDER~1\AppData\Local\Temp\ccEQi33f.s:31544  .debug_str:000000000002eb7c .LASF1651
C:\Users\SOLDER~1\AppData\Local\Temp\ccEQi33f.s:20850  .debug_str:000000000000345a .LASF1652
C:\Users\SOLDER~1\AppData\Local\Temp\ccEQi33f.s:28874  .debug_str:0000000000023d2b .LASF1653
C:\Users\SOLDER~1\AppData\Local\Temp\ccEQi33f.s:30838  .debug_str:000000000002bda7 .LASF1654
C:\Users\SOLDER~1\AppData\Local\Temp\ccEQi33f.s:24706  .debug_str:0000000000012e7b .LASF1655
C:\Users\SOLDER~1\AppData\Local\Temp\ccEQi33f.s:22272  .debug_str:0000000000008ffb .LASF1656
C:\Users\SOLDER~1\AppData\Local\Temp\ccEQi33f.s:25014  .debug_str:000000000001438f .LASF1657
C:\Users\SOLDER~1\AppData\Local\Temp\ccEQi33f.s:30044  .debug_str:0000000000028a61 .LASF1658
C:\Users\SOLDER~1\AppData\Local\Temp\ccEQi33f.s:26884  .debug_str:000000000001bb3d .LASF1659
C:\Users\SOLDER~1\AppData\Local\Temp\ccEQi33f.s:26000  .debug_str:00000000000182fa .LASF1660
C:\Users\SOLDER~1\AppData\Local\Temp\ccEQi33f.s:20910  .debug_str:0000000000003819 .LASF1661
C:\Users\SOLDER~1\AppData\Local\Temp\ccEQi33f.s:22542  .debug_str:000000000000a1c5 .LASF1662
C:\Users\SOLDER~1\AppData\Local\Temp\ccEQi33f.s:27896  .debug_str:000000000001fdd3 .LASF1663
C:\Users\SOLDER~1\AppData\Local\Temp\ccEQi33f.s:22376  .debug_str:00000000000096c5 .LASF1664
C:\Users\SOLDER~1\AppData\Local\Temp\ccEQi33f.s:28480  .debug_str:0000000000022316 .LASF1665
C:\Users\SOLDER~1\AppData\Local\Temp\ccEQi33f.s:23262  .debug_str:000000000000d12f .LASF1666
GAS LISTING C:\Users\SOLDER~1\AppData\Local\Temp\ccEQi33f.s 			page 72


C:\Users\SOLDER~1\AppData\Local\Temp\ccEQi33f.s:23222  .debug_str:000000000000ce92 .LASF1667
C:\Users\SOLDER~1\AppData\Local\Temp\ccEQi33f.s:23960  .debug_str:000000000000feda .LASF1668
C:\Users\SOLDER~1\AppData\Local\Temp\ccEQi33f.s:30926  .debug_str:000000000002c3c2 .LASF1669
C:\Users\SOLDER~1\AppData\Local\Temp\ccEQi33f.s:27510  .debug_str:000000000001e499 .LASF1670
C:\Users\SOLDER~1\AppData\Local\Temp\ccEQi33f.s:25812  .debug_str:00000000000176e6 .LASF1671
C:\Users\SOLDER~1\AppData\Local\Temp\ccEQi33f.s:28426  .debug_str:0000000000021ffb .LASF1672
C:\Users\SOLDER~1\AppData\Local\Temp\ccEQi33f.s:23080  .debug_str:000000000000c4c9 .LASF1673
C:\Users\SOLDER~1\AppData\Local\Temp\ccEQi33f.s:30740  .debug_str:000000000002b765 .LASF1674
C:\Users\SOLDER~1\AppData\Local\Temp\ccEQi33f.s:26560  .debug_str:000000000001a6c5 .LASF1675
C:\Users\SOLDER~1\AppData\Local\Temp\ccEQi33f.s:22712  .debug_str:000000000000ace4 .LASF1676
C:\Users\SOLDER~1\AppData\Local\Temp\ccEQi33f.s:20656  .debug_str:00000000000027c3 .LASF1677
C:\Users\SOLDER~1\AppData\Local\Temp\ccEQi33f.s:22164  .debug_str:00000000000088a5 .LASF1678
C:\Users\SOLDER~1\AppData\Local\Temp\ccEQi33f.s:28940  .debug_str:0000000000024198 .LASF1679
C:\Users\SOLDER~1\AppData\Local\Temp\ccEQi33f.s:26980  .debug_str:000000000001c1da .LASF1680
C:\Users\SOLDER~1\AppData\Local\Temp\ccEQi33f.s:31030  .debug_str:000000000002ca36 .LASF1681
C:\Users\SOLDER~1\AppData\Local\Temp\ccEQi33f.s:25874  .debug_str:0000000000017aaf .LASF1682
C:\Users\SOLDER~1\AppData\Local\Temp\ccEQi33f.s:27792  .debug_str:000000000001f74d .LASF1683
C:\Users\SOLDER~1\AppData\Local\Temp\ccEQi33f.s:21186  .debug_str:0000000000004995 .LASF1684
C:\Users\SOLDER~1\AppData\Local\Temp\ccEQi33f.s:25094  .debug_str:0000000000014923 .LASF1685
C:\Users\SOLDER~1\AppData\Local\Temp\ccEQi33f.s:27088  .debug_str:000000000001c91b .LASF1686
C:\Users\SOLDER~1\AppData\Local\Temp\ccEQi33f.s:20968  .debug_str:0000000000003be3 .LASF1687
C:\Users\SOLDER~1\AppData\Local\Temp\ccEQi33f.s:30066  .debug_str:0000000000028bab .LASF1688
C:\Users\SOLDER~1\AppData\Local\Temp\ccEQi33f.s:30852  .debug_str:000000000002beb4 .LASF1689
C:\Users\SOLDER~1\AppData\Local\Temp\ccEQi33f.s:26348  .debug_str:000000000001993e .LASF1690
C:\Users\SOLDER~1\AppData\Local\Temp\ccEQi33f.s:23124  .debug_str:000000000000c7d2 .LASF1691
C:\Users\SOLDER~1\AppData\Local\Temp\ccEQi33f.s:22224  .debug_str:0000000000008cad .LASF1692
C:\Users\SOLDER~1\AppData\Local\Temp\ccEQi33f.s:23614  .debug_str:000000000000e850 .LASF1693
C:\Users\SOLDER~1\AppData\Local\Temp\ccEQi33f.s:30374  .debug_str:0000000000029fc4 .LASF1694
C:\Users\SOLDER~1\AppData\Local\Temp\ccEQi33f.s:26936  .debug_str:000000000001bebb .LASF1695
C:\Users\SOLDER~1\AppData\Local\Temp\ccEQi33f.s:25566  .debug_str:0000000000016701 .LASF1696
C:\Users\SOLDER~1\AppData\Local\Temp\ccEQi33f.s:20844  .debug_str:00000000000033ed .LASF1697
C:\Users\SOLDER~1\AppData\Local\Temp\ccEQi33f.s:27540  .debug_str:000000000001e6c2 .LASF1698
C:\Users\SOLDER~1\AppData\Local\Temp\ccEQi33f.s:27414  .debug_str:000000000001deae .LASF1699
C:\Users\SOLDER~1\AppData\Local\Temp\ccEQi33f.s:28126  .debug_str:0000000000020c98 .LASF1700
C:\Users\SOLDER~1\AppData\Local\Temp\ccEQi33f.s:23624  .debug_str:000000000000e8f9 .LASF1701
C:\Users\SOLDER~1\AppData\Local\Temp\ccEQi33f.s:20262  .debug_str:0000000000000e4a .LASF1702
C:\Users\SOLDER~1\AppData\Local\Temp\ccEQi33f.s:30024  .debug_str:0000000000028922 .LASF1703
C:\Users\SOLDER~1\AppData\Local\Temp\ccEQi33f.s:21170  .debug_str:00000000000048ac .LASF1704
C:\Users\SOLDER~1\AppData\Local\Temp\ccEQi33f.s:30914  .debug_str:000000000002c300 .LASF1705
C:\Users\SOLDER~1\AppData\Local\Temp\ccEQi33f.s:23746  .debug_str:000000000000f06d .LASF1706
C:\Users\SOLDER~1\AppData\Local\Temp\ccEQi33f.s:22800  .debug_str:000000000000b28a .LASF1707
C:\Users\SOLDER~1\AppData\Local\Temp\ccEQi33f.s:30520  .debug_str:000000000002a920 .LASF1708
C:\Users\SOLDER~1\AppData\Local\Temp\ccEQi33f.s:28436  .debug_str:000000000002209c .LASF1709
C:\Users\SOLDER~1\AppData\Local\Temp\ccEQi33f.s:24786  .debug_str:00000000000133a8 .LASF1710
C:\Users\SOLDER~1\AppData\Local\Temp\ccEQi33f.s:25236  .debug_str:000000000001526e .LASF1711
C:\Users\SOLDER~1\AppData\Local\Temp\ccEQi33f.s:31444  .debug_str:000000000002e4f7 .LASF1712
C:\Users\SOLDER~1\AppData\Local\Temp\ccEQi33f.s:24828  .debug_str:0000000000013691 .LASF1713
C:\Users\SOLDER~1\AppData\Local\Temp\ccEQi33f.s:22094  .debug_str:0000000000008455 .LASF1714
C:\Users\SOLDER~1\AppData\Local\Temp\ccEQi33f.s:24062  .debug_str:000000000001056d .LASF1715
C:\Users\SOLDER~1\AppData\Local\Temp\ccEQi33f.s:21850  .debug_str:000000000000749b .LASF1716
C:\Users\SOLDER~1\AppData\Local\Temp\ccEQi33f.s:20566  .debug_str:00000000000021e1 .LASF1717
C:\Users\SOLDER~1\AppData\Local\Temp\ccEQi33f.s:23338  .debug_str:000000000000d60c .LASF1718
C:\Users\SOLDER~1\AppData\Local\Temp\ccEQi33f.s:28740  .debug_str:000000000002349d .LASF1719
C:\Users\SOLDER~1\AppData\Local\Temp\ccEQi33f.s:26368  .debug_str:0000000000019a8b .LASF1720
C:\Users\SOLDER~1\AppData\Local\Temp\ccEQi33f.s:27100  .debug_str:000000000001c9ff .LASF1721
C:\Users\SOLDER~1\AppData\Local\Temp\ccEQi33f.s:22566  .debug_str:000000000000a354 .LASF1722
C:\Users\SOLDER~1\AppData\Local\Temp\ccEQi33f.s:30960  .debug_str:000000000002c5d8 .LASF1723
GAS LISTING C:\Users\SOLDER~1\AppData\Local\Temp\ccEQi33f.s 			page 73


C:\Users\SOLDER~1\AppData\Local\Temp\ccEQi33f.s:30022  .debug_str:00000000000288fc .LASF1724
C:\Users\SOLDER~1\AppData\Local\Temp\ccEQi33f.s:24996  .debug_str:0000000000014270 .LASF1725
C:\Users\SOLDER~1\AppData\Local\Temp\ccEQi33f.s:26644  .debug_str:000000000001ac89 .LASF1726
C:\Users\SOLDER~1\AppData\Local\Temp\ccEQi33f.s:23318  .debug_str:000000000000d4e1 .LASF1727
C:\Users\SOLDER~1\AppData\Local\Temp\ccEQi33f.s:29334  .debug_str:0000000000025b48 .LASF1728
C:\Users\SOLDER~1\AppData\Local\Temp\ccEQi33f.s:23946  .debug_str:000000000000fdff .LASF1729
C:\Users\SOLDER~1\AppData\Local\Temp\ccEQi33f.s:30264  .debug_str:000000000002985b .LASF1730
C:\Users\SOLDER~1\AppData\Local\Temp\ccEQi33f.s:30218  .debug_str:00000000000295c3 .LASF1731
C:\Users\SOLDER~1\AppData\Local\Temp\ccEQi33f.s:30948  .debug_str:000000000002c50d .LASF1732
C:\Users\SOLDER~1\AppData\Local\Temp\ccEQi33f.s:26454  .debug_str:0000000000019ff5 .LASF1733
C:\Users\SOLDER~1\AppData\Local\Temp\ccEQi33f.s:22950  .debug_str:000000000000bc14 .LASF1734
C:\Users\SOLDER~1\AppData\Local\Temp\ccEQi33f.s:21664  .debug_str:0000000000006878 .LASF1735
C:\Users\SOLDER~1\AppData\Local\Temp\ccEQi33f.s:23890  .debug_str:000000000000fa0d .LASF1736
C:\Users\SOLDER~1\AppData\Local\Temp\ccEQi33f.s:26484  .debug_str:000000000001a1c5 .LASF1737
C:\Users\SOLDER~1\AppData\Local\Temp\ccEQi33f.s:20922  .debug_str:00000000000038dd .LASF1738
C:\Users\SOLDER~1\AppData\Local\Temp\ccEQi33f.s:21470  .debug_str:0000000000005b9a .LASF1739
C:\Users\SOLDER~1\AppData\Local\Temp\ccEQi33f.s:29170  .debug_str:0000000000025081 .LASF1740
C:\Users\SOLDER~1\AppData\Local\Temp\ccEQi33f.s:27044  .debug_str:000000000001c636 .LASF1741
C:\Users\SOLDER~1\AppData\Local\Temp\ccEQi33f.s:30896  .debug_str:000000000002c1ec .LASF1742
C:\Users\SOLDER~1\AppData\Local\Temp\ccEQi33f.s:23896  .debug_str:000000000000fa6d .LASF1743
C:\Users\SOLDER~1\AppData\Local\Temp\ccEQi33f.s:21832  .debug_str:000000000000737b .LASF1744
C:\Users\SOLDER~1\AppData\Local\Temp\ccEQi33f.s:23466  .debug_str:000000000000de53 .LASF1745
C:\Users\SOLDER~1\AppData\Local\Temp\ccEQi33f.s:28806  .debug_str:00000000000238e6 .LASF1746
C:\Users\SOLDER~1\AppData\Local\Temp\ccEQi33f.s:22616  .debug_str:000000000000a6c3 .LASF1747
C:\Users\SOLDER~1\AppData\Local\Temp\ccEQi33f.s:27582  .debug_str:000000000001e979 .LASF1748
C:\Users\SOLDER~1\AppData\Local\Temp\ccEQi33f.s:31586  .debug_str:000000000002edff .LASF1749
C:\Users\SOLDER~1\AppData\Local\Temp\ccEQi33f.s:21936  .debug_str:00000000000079d4 .LASF1750
C:\Users\SOLDER~1\AppData\Local\Temp\ccEQi33f.s:27440  .debug_str:000000000001e035 .LASF1751
C:\Users\SOLDER~1\AppData\Local\Temp\ccEQi33f.s:24942  .debug_str:0000000000013ea6 .LASF1752
C:\Users\SOLDER~1\AppData\Local\Temp\ccEQi33f.s:25710  .debug_str:0000000000017007 .LASF1753
C:\Users\SOLDER~1\AppData\Local\Temp\ccEQi33f.s:21156  .debug_str:00000000000047bd .LASF1754
C:\Users\SOLDER~1\AppData\Local\Temp\ccEQi33f.s:29502  .debug_str:00000000000266e5 .LASF1755
C:\Users\SOLDER~1\AppData\Local\Temp\ccEQi33f.s:28584  .debug_str:0000000000022a44 .LASF1756
C:\Users\SOLDER~1\AppData\Local\Temp\ccEQi33f.s:23640  .debug_str:000000000000ea03 .LASF1757
C:\Users\SOLDER~1\AppData\Local\Temp\ccEQi33f.s:25314  .debug_str:000000000001574e .LASF1758
C:\Users\SOLDER~1\AppData\Local\Temp\ccEQi33f.s:27612  .debug_str:000000000001eb5a .LASF1759
C:\Users\SOLDER~1\AppData\Local\Temp\ccEQi33f.s:22088  .debug_str:00000000000083fb .LASF1760
C:\Users\SOLDER~1\AppData\Local\Temp\ccEQi33f.s:28200  .debug_str:00000000000211b2 .LASF1761
C:\Users\SOLDER~1\AppData\Local\Temp\ccEQi33f.s:22972  .debug_str:000000000000bd65 .LASF1762
C:\Users\SOLDER~1\AppData\Local\Temp\ccEQi33f.s:20594  .debug_str:00000000000023c2 .LASF1763
C:\Users\SOLDER~1\AppData\Local\Temp\ccEQi33f.s:23554  .debug_str:000000000000e45e .LASF1764
C:\Users\SOLDER~1\AppData\Local\Temp\ccEQi33f.s:24418  .debug_str:0000000000011c1e .LASF1765
C:\Users\SOLDER~1\AppData\Local\Temp\ccEQi33f.s:27220  .debug_str:000000000001d224 .LASF1766
C:\Users\SOLDER~1\AppData\Local\Temp\ccEQi33f.s:25498  .debug_str:00000000000162fa .LASF1767
C:\Users\SOLDER~1\AppData\Local\Temp\ccEQi33f.s:28158  .debug_str:0000000000020ec6 .LASF1768
C:\Users\SOLDER~1\AppData\Local\Temp\ccEQi33f.s:25776  .debug_str:000000000001747d .LASF1769
C:\Users\SOLDER~1\AppData\Local\Temp\ccEQi33f.s:30236  .debug_str:00000000000296cd .LASF1770
C:\Users\SOLDER~1\AppData\Local\Temp\ccEQi33f.s:29270  .debug_str:00000000000256d4 .LASF1771
C:\Users\SOLDER~1\AppData\Local\Temp\ccEQi33f.s:25476  .debug_str:000000000001618b .LASF1772
C:\Users\SOLDER~1\AppData\Local\Temp\ccEQi33f.s:23294  .debug_str:000000000000d341 .LASF1773
C:\Users\SOLDER~1\AppData\Local\Temp\ccEQi33f.s:24822  .debug_str:0000000000013623 .LASF1774
C:\Users\SOLDER~1\AppData\Local\Temp\ccEQi33f.s:20172  .debug_str:000000000000080b .LASF1775
C:\Users\SOLDER~1\AppData\Local\Temp\ccEQi33f.s:29616  .debug_str:0000000000026e73 .LASF1776
C:\Users\SOLDER~1\AppData\Local\Temp\ccEQi33f.s:31310  .debug_str:000000000002dc7d .LASF1777
C:\Users\SOLDER~1\AppData\Local\Temp\ccEQi33f.s:28454  .debug_str:0000000000022199 .LASF1778
C:\Users\SOLDER~1\AppData\Local\Temp\ccEQi33f.s:27880  .debug_str:000000000001fcd7 .LASF1779
C:\Users\SOLDER~1\AppData\Local\Temp\ccEQi33f.s:23842  .debug_str:000000000000f6a0 .LASF1780
GAS LISTING C:\Users\SOLDER~1\AppData\Local\Temp\ccEQi33f.s 			page 74


C:\Users\SOLDER~1\AppData\Local\Temp\ccEQi33f.s:27820  .debug_str:000000000001f90c .LASF1781
C:\Users\SOLDER~1\AppData\Local\Temp\ccEQi33f.s:29722  .debug_str:0000000000027574 .LASF1782
C:\Users\SOLDER~1\AppData\Local\Temp\ccEQi33f.s:23694  .debug_str:000000000000ed32 .LASF1783
C:\Users\SOLDER~1\AppData\Local\Temp\ccEQi33f.s:21174  .debug_str:00000000000048eb .LASF1784
C:\Users\SOLDER~1\AppData\Local\Temp\ccEQi33f.s:21944  .debug_str:0000000000007a62 .LASF1785
C:\Users\SOLDER~1\AppData\Local\Temp\ccEQi33f.s:28946  .debug_str:00000000000241ff .LASF1786
C:\Users\SOLDER~1\AppData\Local\Temp\ccEQi33f.s:25832  .debug_str:00000000000177fb .LASF1787
C:\Users\SOLDER~1\AppData\Local\Temp\ccEQi33f.s:24902  .debug_str:0000000000013bed .LASF1788
C:\Users\SOLDER~1\AppData\Local\Temp\ccEQi33f.s:31484  .debug_str:000000000002e794 .LASF1789
C:\Users\SOLDER~1\AppData\Local\Temp\ccEQi33f.s:21466  .debug_str:0000000000005b51 .LASF1790
C:\Users\SOLDER~1\AppData\Local\Temp\ccEQi33f.s:20348  .debug_str:00000000000013bd .LASF1791
C:\Users\SOLDER~1\AppData\Local\Temp\ccEQi33f.s:26390  .debug_str:0000000000019bfc .LASF1792
C:\Users\SOLDER~1\AppData\Local\Temp\ccEQi33f.s:20948  .debug_str:0000000000003a94 .LASF1793
C:\Users\SOLDER~1\AppData\Local\Temp\ccEQi33f.s:27164  .debug_str:000000000001ce5e .LASF1794
C:\Users\SOLDER~1\AppData\Local\Temp\ccEQi33f.s:27128  .debug_str:000000000001cbe2 .LASF1795
C:\Users\SOLDER~1\AppData\Local\Temp\ccEQi33f.s:27846  .debug_str:000000000001fabb .LASF1796
C:\Users\SOLDER~1\AppData\Local\Temp\ccEQi33f.s:24172  .debug_str:0000000000010c3d .LASF1797
C:\Users\SOLDER~1\AppData\Local\Temp\ccEQi33f.s:31524  .debug_str:000000000002ea52 .LASF1798
C:\Users\SOLDER~1\AppData\Local\Temp\ccEQi33f.s:29734  .debug_str:0000000000027643 .LASF1799
C:\Users\SOLDER~1\AppData\Local\Temp\ccEQi33f.s:20894  .debug_str:0000000000003710 .LASF1800
C:\Users\SOLDER~1\AppData\Local\Temp\ccEQi33f.s:22004  .debug_str:0000000000007e76 .LASF1801
C:\Users\SOLDER~1\AppData\Local\Temp\ccEQi33f.s:27714  .debug_str:000000000001f22a .LASF1802
C:\Users\SOLDER~1\AppData\Local\Temp\ccEQi33f.s:25578  .debug_str:00000000000167c4 .LASF1803
C:\Users\SOLDER~1\AppData\Local\Temp\ccEQi33f.s:21618  .debug_str:0000000000006528 .LASF1804
C:\Users\SOLDER~1\AppData\Local\Temp\ccEQi33f.s:31132  .debug_str:000000000002d12f .LASF1805
C:\Users\SOLDER~1\AppData\Local\Temp\ccEQi33f.s:21052  .debug_str:0000000000004121 .LASF1806
C:\Users\SOLDER~1\AppData\Local\Temp\ccEQi33f.s:27960  .debug_str:00000000000201de .LASF1807
C:\Users\SOLDER~1\AppData\Local\Temp\ccEQi33f.s:25784  .debug_str:00000000000174fe .LASF1808
C:\Users\SOLDER~1\AppData\Local\Temp\ccEQi33f.s:27456  .debug_str:000000000001e153 .LASF1809
C:\Users\SOLDER~1\AppData\Local\Temp\ccEQi33f.s:24754  .debug_str:00000000000131a7 .LASF1810
C:\Users\SOLDER~1\AppData\Local\Temp\ccEQi33f.s:26708  .debug_str:000000000001b026 .LASF1811
C:\Users\SOLDER~1\AppData\Local\Temp\ccEQi33f.s:20124  .debug_str:000000000000045d .LASF1812
C:\Users\SOLDER~1\AppData\Local\Temp\ccEQi33f.s:24092  .debug_str:000000000001072a .LASF1813
C:\Users\SOLDER~1\AppData\Local\Temp\ccEQi33f.s:26038  .debug_str:000000000001855a .LASF1814
C:\Users\SOLDER~1\AppData\Local\Temp\ccEQi33f.s:31450  .debug_str:000000000002e559 .LASF1815
C:\Users\SOLDER~1\AppData\Local\Temp\ccEQi33f.s:27406  .debug_str:000000000001de1b .LASF1816
C:\Users\SOLDER~1\AppData\Local\Temp\ccEQi33f.s:30192  .debug_str:0000000000029409 .LASF1817
C:\Users\SOLDER~1\AppData\Local\Temp\ccEQi33f.s:25248  .debug_str:000000000001531f .LASF1818
C:\Users\SOLDER~1\AppData\Local\Temp\ccEQi33f.s:22048  .debug_str:0000000000008179 .LASF1819
C:\Users\SOLDER~1\AppData\Local\Temp\ccEQi33f.s:21126  .debug_str:00000000000045b6 .LASF1820
C:\Users\SOLDER~1\AppData\Local\Temp\ccEQi33f.s:27626  .debug_str:000000000001ec3f .LASF1821
C:\Users\SOLDER~1\AppData\Local\Temp\ccEQi33f.s:29266  .debug_str:000000000002568d .LASF1822
C:\Users\SOLDER~1\AppData\Local\Temp\ccEQi33f.s:24604  .debug_str:0000000000012796 .LASF1823
C:\Users\SOLDER~1\AppData\Local\Temp\ccEQi33f.s:30550  .debug_str:000000000002ab43 .LASF1824
C:\Users\SOLDER~1\AppData\Local\Temp\ccEQi33f.s:25150  .debug_str:0000000000014ce4 .LASF1825
C:\Users\SOLDER~1\AppData\Local\Temp\ccEQi33f.s:31470  .debug_str:000000000002e693 .LASF1826
C:\Users\SOLDER~1\AppData\Local\Temp\ccEQi33f.s:29874  .debug_str:0000000000027f5a .LASF1827
C:\Users\SOLDER~1\AppData\Local\Temp\ccEQi33f.s:20572  .debug_str:000000000000224f .LASF1828
C:\Users\SOLDER~1\AppData\Local\Temp\ccEQi33f.s:27618  .debug_str:000000000001ebb7 .LASF1829
C:\Users\SOLDER~1\AppData\Local\Temp\ccEQi33f.s:22436  .debug_str:0000000000009aaa .LASF1830
C:\Users\SOLDER~1\AppData\Local\Temp\ccEQi33f.s:22388  .debug_str:0000000000009790 .LASF1831
C:\Users\SOLDER~1\AppData\Local\Temp\ccEQi33f.s:25096  .debug_str:0000000000014949 .LASF1832
C:\Users\SOLDER~1\AppData\Local\Temp\ccEQi33f.s:29788  .debug_str:000000000002797c .LASF1833
C:\Users\SOLDER~1\AppData\Local\Temp\ccEQi33f.s:22744  .debug_str:000000000000af2a .LASF1834
C:\Users\SOLDER~1\AppData\Local\Temp\ccEQi33f.s:21712  .debug_str:0000000000006b62 .LASF1835
C:\Users\SOLDER~1\AppData\Local\Temp\ccEQi33f.s:29408  .debug_str:000000000002608c .LASF1836
C:\Users\SOLDER~1\AppData\Local\Temp\ccEQi33f.s:27370  .debug_str:000000000001db89 .LASF1837
GAS LISTING C:\Users\SOLDER~1\AppData\Local\Temp\ccEQi33f.s 			page 75


C:\Users\SOLDER~1\AppData\Local\Temp\ccEQi33f.s:28270  .debug_str:0000000000021631 .LASF1838
C:\Users\SOLDER~1\AppData\Local\Temp\ccEQi33f.s:24236  .debug_str:0000000000011053 .LASF1839
C:\Users\SOLDER~1\AppData\Local\Temp\ccEQi33f.s:23024  .debug_str:000000000000c0d4 .LASF1840
C:\Users\SOLDER~1\AppData\Local\Temp\ccEQi33f.s:23712  .debug_str:000000000000ee6c .LASF1841
C:\Users\SOLDER~1\AppData\Local\Temp\ccEQi33f.s:20994  .debug_str:0000000000003d82 .LASF1842
C:\Users\SOLDER~1\AppData\Local\Temp\ccEQi33f.s:22956  .debug_str:000000000000bc7b .LASF1843
C:\Users\SOLDER~1\AppData\Local\Temp\ccEQi33f.s:27916  .debug_str:000000000001ff14 .LASF1844
C:\Users\SOLDER~1\AppData\Local\Temp\ccEQi33f.s:20354  .debug_str:000000000000141a .LASF1845
C:\Users\SOLDER~1\AppData\Local\Temp\ccEQi33f.s:22260  .debug_str:0000000000008f2e .LASF1846
C:\Users\SOLDER~1\AppData\Local\Temp\ccEQi33f.s:27692  .debug_str:000000000001f0a8 .LASF1847
C:\Users\SOLDER~1\AppData\Local\Temp\ccEQi33f.s:25262  .debug_str:000000000001541f .LASF1848
C:\Users\SOLDER~1\AppData\Local\Temp\ccEQi33f.s:26050  .debug_str:0000000000018627 .LASF1849
C:\Users\SOLDER~1\AppData\Local\Temp\ccEQi33f.s:21492  .debug_str:0000000000005ce9 .LASF1850
C:\Users\SOLDER~1\AppData\Local\Temp\ccEQi33f.s:29832  .debug_str:0000000000027c9d .LASF1851
C:\Users\SOLDER~1\AppData\Local\Temp\ccEQi33f.s:28922  .debug_str:000000000002404d .LASF1852
C:\Users\SOLDER~1\AppData\Local\Temp\ccEQi33f.s:30122  .debug_str:0000000000028f34 .LASF1853
C:\Users\SOLDER~1\AppData\Local\Temp\ccEQi33f.s:25572  .debug_str:0000000000016764 .LASF1854
C:\Users\SOLDER~1\AppData\Local\Temp\ccEQi33f.s:28760  .debug_str:00000000000235f0 .LASF1855
C:\Users\SOLDER~1\AppData\Local\Temp\ccEQi33f.s:26416  .debug_str:0000000000019d79 .LASF1856
C:\Users\SOLDER~1\AppData\Local\Temp\ccEQi33f.s:29384  .debug_str:0000000000025edb .LASF1857
C:\Users\SOLDER~1\AppData\Local\Temp\ccEQi33f.s:24188  .debug_str:0000000000010d51 .LASF1858
C:\Users\SOLDER~1\AppData\Local\Temp\ccEQi33f.s:24156  .debug_str:0000000000010b46 .LASF1859
C:\Users\SOLDER~1\AppData\Local\Temp\ccEQi33f.s:31042  .debug_str:000000000002caf1 .LASF1860
C:\Users\SOLDER~1\AppData\Local\Temp\ccEQi33f.s:22730  .debug_str:000000000000ae31 .LASF1861
C:\Users\SOLDER~1\AppData\Local\Temp\ccEQi33f.s:28392  .debug_str:0000000000021de8 .LASF1862
C:\Users\SOLDER~1\AppData\Local\Temp\ccEQi33f.s:26680  .debug_str:000000000001aeba .LASF1863
C:\Users\SOLDER~1\AppData\Local\Temp\ccEQi33f.s:29328  .debug_str:0000000000025afc .LASF1864
C:\Users\SOLDER~1\AppData\Local\Temp\ccEQi33f.s:26106  .debug_str:00000000000189d2 .LASF1865
C:\Users\SOLDER~1\AppData\Local\Temp\ccEQi33f.s:30558  .debug_str:000000000002abca .LASF1866
C:\Users\SOLDER~1\AppData\Local\Temp\ccEQi33f.s:29508  .debug_str:0000000000026758 .LASF1867
C:\Users\SOLDER~1\AppData\Local\Temp\ccEQi33f.s:25722  .debug_str:00000000000170d7 .LASF1868
C:\Users\SOLDER~1\AppData\Local\Temp\ccEQi33f.s:23626  .debug_str:000000000000e91e .LASF1869
C:\Users\SOLDER~1\AppData\Local\Temp\ccEQi33f.s:25154  .debug_str:0000000000014d2d .LASF1870
C:\Users\SOLDER~1\AppData\Local\Temp\ccEQi33f.s:20402  .debug_str:0000000000001742 .LASF1871
C:\Users\SOLDER~1\AppData\Local\Temp\ccEQi33f.s:29952  .debug_str:000000000002844f .LASF1872
C:\Users\SOLDER~1\AppData\Local\Temp\ccEQi33f.s:28926  .debug_str:000000000002409f .LASF1873
C:\Users\SOLDER~1\AppData\Local\Temp\ccEQi33f.s:28774  .debug_str:00000000000236e6 .LASF1874
C:\Users\SOLDER~1\AppData\Local\Temp\ccEQi33f.s:30778  .debug_str:000000000002b9c8 .LASF1875
C:\Users\SOLDER~1\AppData\Local\Temp\ccEQi33f.s:28326  .debug_str:00000000000219bf .LASF1876
C:\Users\SOLDER~1\AppData\Local\Temp\ccEQi33f.s:27068  .debug_str:000000000001c7c3 .LASF1877
C:\Users\SOLDER~1\AppData\Local\Temp\ccEQi33f.s:30052  .debug_str:0000000000028ae1 .LASF1878
C:\Users\SOLDER~1\AppData\Local\Temp\ccEQi33f.s:28730  .debug_str:00000000000233f6 .LASF1879
C:\Users\SOLDER~1\AppData\Local\Temp\ccEQi33f.s:21512  .debug_str:0000000000005e24 .LASF1880
C:\Users\SOLDER~1\AppData\Local\Temp\ccEQi33f.s:22268  .debug_str:0000000000008fb4 .LASF1881
C:\Users\SOLDER~1\AppData\Local\Temp\ccEQi33f.s:29284  .debug_str:00000000000257d4 .LASF1882
C:\Users\SOLDER~1\AppData\Local\Temp\ccEQi33f.s:26148  .debug_str:0000000000018ca2 .LASF1883
C:\Users\SOLDER~1\AppData\Local\Temp\ccEQi33f.s:20316  .debug_str:00000000000011ad .LASF1884
C:\Users\SOLDER~1\AppData\Local\Temp\ccEQi33f.s:20168  .debug_str:00000000000007c0 .LASF1885
C:\Users\SOLDER~1\AppData\Local\Temp\ccEQi33f.s:21810  .debug_str:00000000000071f0 .LASF1886
C:\Users\SOLDER~1\AppData\Local\Temp\ccEQi33f.s:21524  .debug_str:0000000000005ecd .LASF1887
C:\Users\SOLDER~1\AppData\Local\Temp\ccEQi33f.s:27550  .debug_str:000000000001e756 .LASF1888
C:\Users\SOLDER~1\AppData\Local\Temp\ccEQi33f.s:22140  .debug_str:0000000000008730 .LASF1889
C:\Users\SOLDER~1\AppData\Local\Temp\ccEQi33f.s:28420  .debug_str:0000000000021f9c .LASF1890
C:\Users\SOLDER~1\AppData\Local\Temp\ccEQi33f.s:28386  .debug_str:0000000000021d77 .LASF1891
C:\Users\SOLDER~1\AppData\Local\Temp\ccEQi33f.s:29008  .debug_str:000000000002461c .LASF1892
C:\Users\SOLDER~1\AppData\Local\Temp\ccEQi33f.s:24528  .debug_str:00000000000122d8 .LASF1893
C:\Users\SOLDER~1\AppData\Local\Temp\ccEQi33f.s:21136  .debug_str:0000000000004662 .LASF1894
GAS LISTING C:\Users\SOLDER~1\AppData\Local\Temp\ccEQi33f.s 			page 76


C:\Users\SOLDER~1\AppData\Local\Temp\ccEQi33f.s:30958  .debug_str:000000000002c5b4 .LASF1895
C:\Users\SOLDER~1\AppData\Local\Temp\ccEQi33f.s:22080  .debug_str:0000000000008388 .LASF1896
C:\Users\SOLDER~1\AppData\Local\Temp\ccEQi33f.s:22326  .debug_str:0000000000009399 .LASF1897
C:\Users\SOLDER~1\AppData\Local\Temp\ccEQi33f.s:26744  .debug_str:000000000001b27e .LASF1898
C:\Users\SOLDER~1\AppData\Local\Temp\ccEQi33f.s:22222  .debug_str:0000000000008c88 .LASF1899
C:\Users\SOLDER~1\AppData\Local\Temp\ccEQi33f.s:21958  .debug_str:0000000000007b5b .LASF1900
C:\Users\SOLDER~1\AppData\Local\Temp\ccEQi33f.s:31472  .debug_str:000000000002e6b7 .LASF1901
C:\Users\SOLDER~1\AppData\Local\Temp\ccEQi33f.s:21394  .debug_str:0000000000005643 .LASF1902
C:\Users\SOLDER~1\AppData\Local\Temp\ccEQi33f.s:31064  .debug_str:000000000002cc3c .LASF1903
C:\Users\SOLDER~1\AppData\Local\Temp\ccEQi33f.s:26256  .debug_str:0000000000019392 .LASF1904
C:\Users\SOLDER~1\AppData\Local\Temp\ccEQi33f.s:27798  .debug_str:000000000001f7ba .LASF1905
C:\Users\SOLDER~1\AppData\Local\Temp\ccEQi33f.s:25090  .debug_str:00000000000148c7 .LASF1906
C:\Users\SOLDER~1\AppData\Local\Temp\ccEQi33f.s:27022  .debug_str:000000000001c493 .LASF1907
C:\Users\SOLDER~1\AppData\Local\Temp\ccEQi33f.s:20438  .debug_str:0000000000001967 .LASF1908
C:\Users\SOLDER~1\AppData\Local\Temp\ccEQi33f.s:30042  .debug_str:0000000000028a3c .LASF1909
C:\Users\SOLDER~1\AppData\Local\Temp\ccEQi33f.s:26356  .debug_str:00000000000199c0 .LASF1910
C:\Users\SOLDER~1\AppData\Local\Temp\ccEQi33f.s:20220  .debug_str:0000000000000b83 .LASF1911
C:\Users\SOLDER~1\AppData\Local\Temp\ccEQi33f.s:29302  .debug_str:000000000002592d .LASF1912
C:\Users\SOLDER~1\AppData\Local\Temp\ccEQi33f.s:30064  .debug_str:0000000000028b86 .LASF1913
C:\Users\SOLDER~1\AppData\Local\Temp\ccEQi33f.s:25596  .debug_str:00000000000168fe .LASF1914
C:\Users\SOLDER~1\AppData\Local\Temp\ccEQi33f.s:30830  .debug_str:000000000002bd2b .LASF1915
C:\Users\SOLDER~1\AppData\Local\Temp\ccEQi33f.s:21460  .debug_str:0000000000005ae4 .LASF1916
C:\Users\SOLDER~1\AppData\Local\Temp\ccEQi33f.s:27956  .debug_str:00000000000201a6 .LASF1917
C:\Users\SOLDER~1\AppData\Local\Temp\ccEQi33f.s:26530  .debug_str:000000000001a4b7 .LASF1918
C:\Users\SOLDER~1\AppData\Local\Temp\ccEQi33f.s:25844  .debug_str:00000000000178ca .LASF1919
C:\Users\SOLDER~1\AppData\Local\Temp\ccEQi33f.s:20304  .debug_str:00000000000010ea .LASF1920
C:\Users\SOLDER~1\AppData\Local\Temp\ccEQi33f.s:26436  .debug_str:0000000000019ebc .LASF1921
C:\Users\SOLDER~1\AppData\Local\Temp\ccEQi33f.s:21070  .debug_str:000000000000424e .LASF1922
C:\Users\SOLDER~1\AppData\Local\Temp\ccEQi33f.s:21036  .debug_str:0000000000004010 .LASF1923
C:\Users\SOLDER~1\AppData\Local\Temp\ccEQi33f.s:28742  .debug_str:00000000000234c3 .LASF1924
C:\Users\SOLDER~1\AppData\Local\Temp\ccEQi33f.s:28772  .debug_str:00000000000236c2 .LASF1925
C:\Users\SOLDER~1\AppData\Local\Temp\ccEQi33f.s:25050  .debug_str:000000000001462b .LASF1926
C:\Users\SOLDER~1\AppData\Local\Temp\ccEQi33f.s:23664  .debug_str:000000000000eb49 .LASF1927
C:\Users\SOLDER~1\AppData\Local\Temp\ccEQi33f.s:26382  .debug_str:0000000000019b74 .LASF1928
C:\Users\SOLDER~1\AppData\Local\Temp\ccEQi33f.s:30030  .debug_str:0000000000028988 .LASF1929
C:\Users\SOLDER~1\AppData\Local\Temp\ccEQi33f.s:22982  .debug_str:000000000000bdf2 .LASF1930
C:\Users\SOLDER~1\AppData\Local\Temp\ccEQi33f.s:22052  .debug_str:00000000000081b9 .LASF1931
C:\Users\SOLDER~1\AppData\Local\Temp\ccEQi33f.s:30636  .debug_str:000000000002b0db .LASF1932
C:\Users\SOLDER~1\AppData\Local\Temp\ccEQi33f.s:23428  .debug_str:000000000000dbe8 .LASF1933
C:\Users\SOLDER~1\AppData\Local\Temp\ccEQi33f.s:29186  .debug_str:000000000002516d .LASF1934
C:\Users\SOLDER~1\AppData\Local\Temp\ccEQi33f.s:20056  .debug_str:0000000000000023 .LASF1935
C:\Users\SOLDER~1\AppData\Local\Temp\ccEQi33f.s:22474  .debug_str:0000000000009d25 .LASF1936
C:\Users\SOLDER~1\AppData\Local\Temp\ccEQi33f.s:24068  .debug_str:00000000000105c5 .LASF1937
C:\Users\SOLDER~1\AppData\Local\Temp\ccEQi33f.s:21324  .debug_str:000000000000520c .LASF1938
C:\Users\SOLDER~1\AppData\Local\Temp\ccEQi33f.s:23276  .debug_str:000000000000d218 .LASF1939
C:\Users\SOLDER~1\AppData\Local\Temp\ccEQi33f.s:28146  .debug_str:0000000000020df3 .LASF1940
C:\Users\SOLDER~1\AppData\Local\Temp\ccEQi33f.s:20578  .debug_str:00000000000022ad .LASF1941
C:\Users\SOLDER~1\AppData\Local\Temp\ccEQi33f.s:25880  .debug_str:0000000000017b15 .LASF1942
C:\Users\SOLDER~1\AppData\Local\Temp\ccEQi33f.s:28002  .debug_str:00000000000204b8 .LASF1943
C:\Users\SOLDER~1\AppData\Local\Temp\ccEQi33f.s:30018  .debug_str:00000000000288bb .LASF1944
C:\Users\SOLDER~1\AppData\Local\Temp\ccEQi33f.s:26276  .debug_str:00000000000194e9 .LASF1945
C:\Users\SOLDER~1\AppData\Local\Temp\ccEQi33f.s:21834  .debug_str:00000000000073a0 .LASF1946
C:\Users\SOLDER~1\AppData\Local\Temp\ccEQi33f.s:30186  .debug_str:000000000002939a .LASF1947
C:\Users\SOLDER~1\AppData\Local\Temp\ccEQi33f.s:29164  .debug_str:0000000000025030 .LASF1948
C:\Users\SOLDER~1\AppData\Local\Temp\ccEQi33f.s:27534  .debug_str:000000000001e659 .LASF1949
C:\Users\SOLDER~1\AppData\Local\Temp\ccEQi33f.s:25916  .debug_str:0000000000017d7a .LASF1950
C:\Users\SOLDER~1\AppData\Local\Temp\ccEQi33f.s:23462  .debug_str:000000000000de0e .LASF1951
GAS LISTING C:\Users\SOLDER~1\AppData\Local\Temp\ccEQi33f.s 			page 77


C:\Users\SOLDER~1\AppData\Local\Temp\ccEQi33f.s:24464  .debug_str:0000000000011eeb .LASF1952
C:\Users\SOLDER~1\AppData\Local\Temp\ccEQi33f.s:30598  .debug_str:000000000002ae0c .LASF1953
C:\Users\SOLDER~1\AppData\Local\Temp\ccEQi33f.s:25382  .debug_str:0000000000015b7f .LASF1954
C:\Users\SOLDER~1\AppData\Local\Temp\ccEQi33f.s:25340  .debug_str:00000000000158e5 .LASF1955
C:\Users\SOLDER~1\AppData\Local\Temp\ccEQi33f.s:26080  .debug_str:0000000000018806 .LASF1956
C:\Users\SOLDER~1\AppData\Local\Temp\ccEQi33f.s:28932  .debug_str:0000000000024101 .LASF1957
C:\Users\SOLDER~1\AppData\Local\Temp\ccEQi33f.s:29680  .debug_str:00000000000272ab .LASF1958
C:\Users\SOLDER~1\AppData\Local\Temp\ccEQi33f.s:27854  .debug_str:000000000001fb3f .LASF1959
C:\Users\SOLDER~1\AppData\Local\Temp\ccEQi33f.s:30542  .debug_str:000000000002aaaf .LASF1960
C:\Users\SOLDER~1\AppData\Local\Temp\ccEQi33f.s:26332  .debug_str:0000000000019835 .LASF1961
C:\Users\SOLDER~1\AppData\Local\Temp\ccEQi33f.s:29346  .debug_str:0000000000025c27 .LASF1962
C:\Users\SOLDER~1\AppData\Local\Temp\ccEQi33f.s:29836  .debug_str:0000000000027ce6 .LASF1963
C:\Users\SOLDER~1\AppData\Local\Temp\ccEQi33f.s:26066  .debug_str:000000000001871f .LASF1964
C:\Users\SOLDER~1\AppData\Local\Temp\ccEQi33f.s:26456  .debug_str:000000000001a019 .LASF1965
C:\Users\SOLDER~1\AppData\Local\Temp\ccEQi33f.s:25488  .debug_str:0000000000016259 .LASF1966
C:\Users\SOLDER~1\AppData\Local\Temp\ccEQi33f.s:20726  .debug_str:0000000000002c22 .LASF1967
C:\Users\SOLDER~1\AppData\Local\Temp\ccEQi33f.s:30304  .debug_str:0000000000029af0 .LASF1968
C:\Users\SOLDER~1\AppData\Local\Temp\ccEQi33f.s:26384  .debug_str:0000000000019b98 .LASF1969
C:\Users\SOLDER~1\AppData\Local\Temp\ccEQi33f.s:29120  .debug_str:0000000000024d5c .LASF1970
C:\Users\SOLDER~1\AppData\Local\Temp\ccEQi33f.s:31110  .debug_str:000000000002cf7a .LASF1971
C:\Users\SOLDER~1\AppData\Local\Temp\ccEQi33f.s:24406  .debug_str:0000000000011b48 .LASF1972
C:\Users\SOLDER~1\AppData\Local\Temp\ccEQi33f.s:28364  .debug_str:0000000000021c12 .LASF1973
C:\Users\SOLDER~1\AppData\Local\Temp\ccEQi33f.s:30396  .debug_str:000000000002a159 .LASF1974
C:\Users\SOLDER~1\AppData\Local\Temp\ccEQi33f.s:24278  .debug_str:00000000000112f1 .LASF1975
C:\Users\SOLDER~1\AppData\Local\Temp\ccEQi33f.s:21854  .debug_str:00000000000074db .LASF1976
C:\Users\SOLDER~1\AppData\Local\Temp\ccEQi33f.s:22498  .debug_str:0000000000009ecb .LASF1977
C:\Users\SOLDER~1\AppData\Local\Temp\ccEQi33f.s:20216  .debug_str:0000000000000b3b .LASF1978
C:\Users\SOLDER~1\AppData\Local\Temp\ccEQi33f.s:26380  .debug_str:0000000000019b4f .LASF1979
C:\Users\SOLDER~1\AppData\Local\Temp\ccEQi33f.s:25470  .debug_str:0000000000016128 .LASF1980
C:\Users\SOLDER~1\AppData\Local\Temp\ccEQi33f.s:20486  .debug_str:0000000000001cbc .LASF1981
C:\Users\SOLDER~1\AppData\Local\Temp\ccEQi33f.s:22142  .debug_str:0000000000008754 .LASF1982
C:\Users\SOLDER~1\AppData\Local\Temp\ccEQi33f.s:22714  .debug_str:000000000000ad0a .LASF1983
C:\Users\SOLDER~1\AppData\Local\Temp\ccEQi33f.s:28716  .debug_str:00000000000232f6 .LASF1984
C:\Users\SOLDER~1\AppData\Local\Temp\ccEQi33f.s:24394  .debug_str:0000000000011a74 .LASF1985
C:\Users\SOLDER~1\AppData\Local\Temp\ccEQi33f.s:29620  .debug_str:0000000000026ebe .LASF1986
C:\Users\SOLDER~1\AppData\Local\Temp\ccEQi33f.s:29578  .debug_str:0000000000026bfa .LASF1987
C:\Users\SOLDER~1\AppData\Local\Temp\ccEQi33f.s:30328  .debug_str:0000000000029cba .LASF1988
C:\Users\SOLDER~1\AppData\Local\Temp\ccEQi33f.s:21608  .debug_str:0000000000006476 .LASF1989
C:\Users\SOLDER~1\AppData\Local\Temp\ccEQi33f.s:23034  .debug_str:000000000000c197 .LASF1990
C:\Users\SOLDER~1\AppData\Local\Temp\ccEQi33f.s:20584  .debug_str:000000000000230f .LASF1991
C:\Users\SOLDER~1\AppData\Local\Temp\ccEQi33f.s:23264  .debug_str:000000000000d154 .LASF1992
C:\Users\SOLDER~1\AppData\Local\Temp\ccEQi33f.s:28340  .debug_str:0000000000021ab2 .LASF1993
C:\Users\SOLDER~1\AppData\Local\Temp\ccEQi33f.s:27060  .debug_str:000000000001c731 .LASF1994
C:\Users\SOLDER~1\AppData\Local\Temp\ccEQi33f.s:26154  .debug_str:0000000000018d11 .LASF1995
C:\Users\SOLDER~1\AppData\Local\Temp\ccEQi33f.s:22282  .debug_str:00000000000090c5 .LASF1996
C:\Users\SOLDER~1\AppData\Local\Temp\ccEQi33f.s:20248  .debug_str:0000000000000d82 .LASF1997
C:\Users\SOLDER~1\AppData\Local\Temp\ccEQi33f.s:21640  .debug_str:00000000000066be .LASF1998
C:\Users\SOLDER~1\AppData\Local\Temp\ccEQi33f.s:28508  .debug_str:0000000000022511 .LASF1999
C:\Users\SOLDER~1\AppData\Local\Temp\ccEQi33f.s:26574  .debug_str:000000000001a7bb .LASF2000
C:\Users\SOLDER~1\AppData\Local\Temp\ccEQi33f.s:28106  .debug_str:0000000000020b52 .LASF2001
C:\Users\SOLDER~1\AppData\Local\Temp\ccEQi33f.s:25332  .debug_str:0000000000015858 .LASF2002
C:\Users\SOLDER~1\AppData\Local\Temp\ccEQi33f.s:27256  .debug_str:000000000001d4a1 .LASF2003
C:\Users\SOLDER~1\AppData\Local\Temp\ccEQi33f.s:20674  .debug_str:0000000000002924 .LASF2004
C:\Users\SOLDER~1\AppData\Local\Temp\ccEQi33f.s:24650  .debug_str:0000000000012aae .LASF2005
C:\Users\SOLDER~1\AppData\Local\Temp\ccEQi33f.s:20282  .debug_str:0000000000000f86 .LASF2006
C:\Users\SOLDER~1\AppData\Local\Temp\ccEQi33f.s:20528  .debug_str:0000000000001f77 .LASF2007
C:\Users\SOLDER~1\AppData\Local\Temp\ccEQi33f.s:29644  .debug_str:0000000000027044 .LASF2008
GAS LISTING C:\Users\SOLDER~1\AppData\Local\Temp\ccEQi33f.s 			page 78


C:\Users\SOLDER~1\AppData\Local\Temp\ccEQi33f.s:30334  .debug_str:0000000000029d25 .LASF2009
C:\Users\SOLDER~1\AppData\Local\Temp\ccEQi33f.s:25940  .debug_str:0000000000017f2c .LASF2010
C:\Users\SOLDER~1\AppData\Local\Temp\ccEQi33f.s:22606  .debug_str:000000000000a60a .LASF2011
C:\Users\SOLDER~1\AppData\Local\Temp\ccEQi33f.s:21704  .debug_str:0000000000006ae8 .LASF2012
C:\Users\SOLDER~1\AppData\Local\Temp\ccEQi33f.s:21970  .debug_str:0000000000007c17 .LASF2013
C:\Users\SOLDER~1\AppData\Local\Temp\ccEQi33f.s:29930  .debug_str:00000000000282ea .LASF2014
C:\Users\SOLDER~1\AppData\Local\Temp\ccEQi33f.s:26988  .debug_str:000000000001c247 .LASF2015
C:\Users\SOLDER~1\AppData\Local\Temp\ccEQi33f.s:21468  .debug_str:0000000000005b76 .LASF2016
C:\Users\SOLDER~1\AppData\Local\Temp\ccEQi33f.s:27602  .debug_str:000000000001eac0 .LASF2017
C:\Users\SOLDER~1\AppData\Local\Temp\ccEQi33f.s:22364  .debug_str:0000000000009605 .LASF2018
C:\Users\SOLDER~1\AppData\Local\Temp\ccEQi33f.s:22236  .debug_str:0000000000008d92 .LASF2019
C:\Users\SOLDER~1\AppData\Local\Temp\ccEQi33f.s:22954  .debug_str:000000000000bc57 .LASF2020
C:\Users\SOLDER~1\AppData\Local\Temp\ccEQi33f.s:29992  .debug_str:0000000000028706 .LASF2021
C:\Users\SOLDER~1\AppData\Local\Temp\ccEQi33f.s:26618  .debug_str:000000000001aa73 .LASF2022
C:\Users\SOLDER~1\AppData\Local\Temp\ccEQi33f.s:24886  .debug_str:0000000000013ad5 .LASF2023
C:\Users\SOLDER~1\AppData\Local\Temp\ccEQi33f.s:30974  .debug_str:000000000002c6b5 .LASF2024
C:\Users\SOLDER~1\AppData\Local\Temp\ccEQi33f.s:31380  .debug_str:000000000002e0de .LASF2025
C:\Users\SOLDER~1\AppData\Local\Temp\ccEQi33f.s:23790  .debug_str:000000000000f339 .LASF2026
C:\Users\SOLDER~1\AppData\Local\Temp\ccEQi33f.s:22378  .debug_str:00000000000096ea .LASF2027
C:\Users\SOLDER~1\AppData\Local\Temp\ccEQi33f.s:30080  .debug_str:0000000000028c9d .LASF2028
C:\Users\SOLDER~1\AppData\Local\Temp\ccEQi33f.s:28024  .debug_str:000000000002061c .LASF2029
C:\Users\SOLDER~1\AppData\Local\Temp\ccEQi33f.s:29422  .debug_str:000000000002617f .LASF2030
C:\Users\SOLDER~1\AppData\Local\Temp\ccEQi33f.s:24812  .debug_str:0000000000013581 .LASF2031
C:\Users\SOLDER~1\AppData\Local\Temp\ccEQi33f.s:22724  .debug_str:000000000000addb .LASF2032
C:\Users\SOLDER~1\AppData\Local\Temp\ccEQi33f.s:24380  .debug_str:0000000000011993 .LASF2033
C:\Users\SOLDER~1\AppData\Local\Temp\ccEQi33f.s:21572  .debug_str:0000000000006225 .LASF2034
C:\Users\SOLDER~1\AppData\Local\Temp\ccEQi33f.s:23516  .debug_str:000000000000e1f5 .LASF2035
C:\Users\SOLDER~1\AppData\Local\Temp\ccEQi33f.s:31014  .debug_str:000000000002c93a .LASF2036
C:\Users\SOLDER~1\AppData\Local\Temp\ccEQi33f.s:30464  .debug_str:000000000002a5e6 .LASF2037
C:\Users\SOLDER~1\AppData\Local\Temp\ccEQi33f.s:22344  .debug_str:00000000000094d8 .LASF2038
C:\Users\SOLDER~1\AppData\Local\Temp\ccEQi33f.s:28324  .debug_str:000000000002199a .LASF2039
C:\Users\SOLDER~1\AppData\Local\Temp\ccEQi33f.s:25870  .debug_str:0000000000017a5b .LASF2040
C:\Users\SOLDER~1\AppData\Local\Temp\ccEQi33f.s:26598  .debug_str:000000000001a927 .LASF2041
C:\Users\SOLDER~1\AppData\Local\Temp\ccEQi33f.s:28446  .debug_str:0000000000022134 .LASF2042
C:\Users\SOLDER~1\AppData\Local\Temp\ccEQi33f.s:30422  .debug_str:000000000002a328 .LASF2043
C:\Users\SOLDER~1\AppData\Local\Temp\ccEQi33f.s:29498  .debug_str:000000000002668f .LASF2044
C:\Users\SOLDER~1\AppData\Local\Temp\ccEQi33f.s:24546  .debug_str:00000000000123f0 .LASF2045
C:\Users\SOLDER~1\AppData\Local\Temp\ccEQi33f.s:26234  .debug_str:0000000000019208 .LASF2046
C:\Users\SOLDER~1\AppData\Local\Temp\ccEQi33f.s:22314  .debug_str:00000000000092d3 .LASF2047
C:\Users\SOLDER~1\AppData\Local\Temp\ccEQi33f.s:28330  .debug_str:0000000000021a06 .LASF2048
C:\Users\SOLDER~1\AppData\Local\Temp\ccEQi33f.s:22924  .debug_str:000000000000ba46 .LASF2049
C:\Users\SOLDER~1\AppData\Local\Temp\ccEQi33f.s:29220  .debug_str:00000000000253ae .LASF2050
C:\Users\SOLDER~1\AppData\Local\Temp\ccEQi33f.s:27894  .debug_str:000000000001fdae .LASF2051
C:\Users\SOLDER~1\AppData\Local\Temp\ccEQi33f.s:29818  .debug_str:0000000000027b8f .LASF2052
C:\Users\SOLDER~1\AppData\Local\Temp\ccEQi33f.s:25348  .debug_str:0000000000015962 .LASF2053
C:\Users\SOLDER~1\AppData\Local\Temp\ccEQi33f.s:31106  .debug_str:000000000002cf33 .LASF2054
C:\Users\SOLDER~1\AppData\Local\Temp\ccEQi33f.s:20202  .debug_str:0000000000000a47 .LASF2055
C:\Users\SOLDER~1\AppData\Local\Temp\ccEQi33f.s:22870  .debug_str:000000000000b710 .LASF2056
C:\Users\SOLDER~1\AppData\Local\Temp\ccEQi33f.s:29204  .debug_str:00000000000252b3 .LASF2057
C:\Users\SOLDER~1\AppData\Local\Temp\ccEQi33f.s:30266  .debug_str:000000000002987f .LASF2058
C:\Users\SOLDER~1\AppData\Local\Temp\ccEQi33f.s:21222  .debug_str:0000000000004be4 .LASF2059
C:\Users\SOLDER~1\AppData\Local\Temp\ccEQi33f.s:28920  .debug_str:0000000000024027 .LASF2060
C:\Users\SOLDER~1\AppData\Local\Temp\ccEQi33f.s:31222  .debug_str:000000000002d6c8 .LASF2061
C:\Users\SOLDER~1\AppData\Local\Temp\ccEQi33f.s:28278  .debug_str:00000000000216a8 .LASF2062
C:\Users\SOLDER~1\AppData\Local\Temp\ccEQi33f.s:23636  .debug_str:000000000000e9b3 .LASF2063
C:\Users\SOLDER~1\AppData\Local\Temp\ccEQi33f.s:30932  .debug_str:000000000002c423 .LASF2064
C:\Users\SOLDER~1\AppData\Local\Temp\ccEQi33f.s:23220  .debug_str:000000000000ce6c .LASF2065
GAS LISTING C:\Users\SOLDER~1\AppData\Local\Temp\ccEQi33f.s 			page 79


C:\Users\SOLDER~1\AppData\Local\Temp\ccEQi33f.s:26924  .debug_str:000000000001be0d .LASF2066
C:\Users\SOLDER~1\AppData\Local\Temp\ccEQi33f.s:22374  .debug_str:000000000000969f .LASF2067
C:\Users\SOLDER~1\AppData\Local\Temp\ccEQi33f.s:21688  .debug_str:00000000000069ee .LASF2068
C:\Users\SOLDER~1\AppData\Local\Temp\ccEQi33f.s:31334  .debug_str:000000000002de0d .LASF2069
C:\Users\SOLDER~1\AppData\Local\Temp\ccEQi33f.s:21774  .debug_str:0000000000006fad .LASF2070
C:\Users\SOLDER~1\AppData\Local\Temp\ccEQi33f.s:27182  .debug_str:000000000001cf62 .LASF2071
C:\Users\SOLDER~1\AppData\Local\Temp\ccEQi33f.s:24676  .debug_str:0000000000012ca7 .LASF2072
C:\Users\SOLDER~1\AppData\Local\Temp\ccEQi33f.s:29488  .debug_str:00000000000265e9 .LASF2073
C:\Users\SOLDER~1\AppData\Local\Temp\ccEQi33f.s:20918  .debug_str:000000000000389c .LASF2074
C:\Users\SOLDER~1\AppData\Local\Temp\ccEQi33f.s:29258  .debug_str:0000000000025602 .LASF2075
C:\Users\SOLDER~1\AppData\Local\Temp\ccEQi33f.s:28344  .debug_str:0000000000021afc .LASF2076
C:\Users\SOLDER~1\AppData\Local\Temp\ccEQi33f.s:23392  .debug_str:000000000000d981 .LASF2077
C:\Users\SOLDER~1\AppData\Local\Temp\ccEQi33f.s:25078  .debug_str:00000000000147d1 .LASF2078
C:\Users\SOLDER~1\AppData\Local\Temp\ccEQi33f.s:26608  .debug_str:000000000001a9dc .LASF2079
C:\Users\SOLDER~1\AppData\Local\Temp\ccEQi33f.s:21062  .debug_str:00000000000041ce .LASF2080
C:\Users\SOLDER~1\AppData\Local\Temp\ccEQi33f.s:27196  .debug_str:000000000001d056 .LASF2081
C:\Users\SOLDER~1\AppData\Local\Temp\ccEQi33f.s:26062  .debug_str:00000000000186e8 .LASF2082
C:\Users\SOLDER~1\AppData\Local\Temp\ccEQi33f.s:21848  .debug_str:0000000000007476 .LASF2083
C:\Users\SOLDER~1\AppData\Local\Temp\ccEQi33f.s:22538  .debug_str:000000000000a17e .LASF2084
C:\Users\SOLDER~1\AppData\Local\Temp\ccEQi33f.s:25284  .debug_str:0000000000015596 .LASF2085
C:\Users\SOLDER~1\AppData\Local\Temp\ccEQi33f.s:24640  .debug_str:0000000000012a17 .LASF2086
C:\Users\SOLDER~1\AppData\Local\Temp\ccEQi33f.s:27378  .debug_str:000000000001dc14 .LASF2087
C:\Users\SOLDER~1\AppData\Local\Temp\ccEQi33f.s:27142  .debug_str:000000000001ccec .LASF2088
C:\Users\SOLDER~1\AppData\Local\Temp\ccEQi33f.s:25514  .debug_str:00000000000163eb .LASF2089
C:\Users\SOLDER~1\AppData\Local\Temp\ccEQi33f.s:29972  .debug_str:000000000002857d .LASF2090
C:\Users\SOLDER~1\AppData\Local\Temp\ccEQi33f.s:27002  .debug_str:000000000001c359 .LASF2091
C:\Users\SOLDER~1\AppData\Local\Temp\ccEQi33f.s:25216  .debug_str:00000000000150ff .LASF2092
C:\Users\SOLDER~1\AppData\Local\Temp\ccEQi33f.s:23052  .debug_str:000000000000c2d0 .LASF2093
C:\Users\SOLDER~1\AppData\Local\Temp\ccEQi33f.s:24552  .debug_str:0000000000012469 .LASF2094
C:\Users\SOLDER~1\AppData\Local\Temp\ccEQi33f.s:31482  .debug_str:000000000002e76e .LASF2095
C:\Users\SOLDER~1\AppData\Local\Temp\ccEQi33f.s:29360  .debug_str:0000000000025d15 .LASF2096
C:\Users\SOLDER~1\AppData\Local\Temp\ccEQi33f.s:26226  .debug_str:000000000001919b .LASF2097
C:\Users\SOLDER~1\AppData\Local\Temp\ccEQi33f.s:28218  .debug_str:00000000000212d8 .LASF2098
C:\Users\SOLDER~1\AppData\Local\Temp\ccEQi33f.s:30188  .debug_str:00000000000293bf .LASF2099
C:\Users\SOLDER~1\AppData\Local\Temp\ccEQi33f.s:24684  .debug_str:0000000000012d26 .LASF2100
C:\Users\SOLDER~1\AppData\Local\Temp\ccEQi33f.s:27566  .debug_str:000000000001e855 .LASF2101
C:\Users\SOLDER~1\AppData\Local\Temp\ccEQi33f.s:29468  .debug_str:00000000000264bb .LASF2102
C:\Users\SOLDER~1\AppData\Local\Temp\ccEQi33f.s:23440  .debug_str:000000000000dc9b .LASF2103
C:\Users\SOLDER~1\AppData\Local\Temp\ccEQi33f.s:20938  .debug_str:00000000000039e3 .LASF2104
C:\Users\SOLDER~1\AppData\Local\Temp\ccEQi33f.s:21686  .debug_str:00000000000069c8 .LASF2105
C:\Users\SOLDER~1\AppData\Local\Temp\ccEQi33f.s:28700  .debug_str:00000000000231cb .LASF2106
C:\Users\SOLDER~1\AppData\Local\Temp\ccEQi33f.s:25564  .debug_str:00000000000166db .LASF2107
C:\Users\SOLDER~1\AppData\Local\Temp\ccEQi33f.s:24622  .debug_str:00000000000128ae .LASF2108
C:\Users\SOLDER~1\AppData\Local\Temp\ccEQi33f.s:31228  .debug_str:000000000002d731 .LASF2109
C:\Users\SOLDER~1\AppData\Local\Temp\ccEQi33f.s:30026  .debug_str:0000000000028947 .LASF2110
C:\Users\SOLDER~1\AppData\Local\Temp\ccEQi33f.s:30882  .debug_str:000000000002c101 .LASF2111
C:\Users\SOLDER~1\AppData\Local\Temp\ccEQi33f.s:25272  .debug_str:00000000000154c9 .LASF2112
C:\Users\SOLDER~1\AppData\Local\Temp\ccEQi33f.s:31418  .debug_str:000000000002e33e .LASF2113
C:\Users\SOLDER~1\AppData\Local\Temp\ccEQi33f.s:26194  .debug_str:0000000000018fbd .LASF2114
C:\Users\SOLDER~1\AppData\Local\Temp\ccEQi33f.s:26152  .debug_str:0000000000018cec .LASF2115
C:\Users\SOLDER~1\AppData\Local\Temp\ccEQi33f.s:26852  .debug_str:000000000001b923 .LASF2116
C:\Users\SOLDER~1\AppData\Local\Temp\ccEQi33f.s:22330  .debug_str:00000000000093ed .LASF2117
C:\Users\SOLDER~1\AppData\Local\Temp\ccEQi33f.s:30500  .debug_str:000000000002a7fc .LASF2118
C:\Users\SOLDER~1\AppData\Local\Temp\ccEQi33f.s:28624  .debug_str:0000000000022cea .LASF2119
C:\Users\SOLDER~1\AppData\Local\Temp\ccEQi33f.s:31362  .debug_str:000000000002dfc6 .LASF2120
C:\Users\SOLDER~1\AppData\Local\Temp\ccEQi33f.s:21748  .debug_str:0000000000006dc8 .LASF2121
C:\Users\SOLDER~1\AppData\Local\Temp\ccEQi33f.s:26268  .debug_str:000000000001946f .LASF2122
GAS LISTING C:\Users\SOLDER~1\AppData\Local\Temp\ccEQi33f.s 			page 80


C:\Users\SOLDER~1\AppData\Local\Temp\ccEQi33f.s:25310  .debug_str:000000000001570e .LASF2123
C:\Users\SOLDER~1\AppData\Local\Temp\ccEQi33f.s:23994  .debug_str:00000000000100ed .LASF2124
C:\Users\SOLDER~1\AppData\Local\Temp\ccEQi33f.s:30878  .debug_str:000000000002c0a3 .LASF2125
C:\Users\SOLDER~1\AppData\Local\Temp\ccEQi33f.s:20826  .debug_str:00000000000032b1 .LASF2126
C:\Users\SOLDER~1\AppData\Local\Temp\ccEQi33f.s:27726  .debug_str:000000000001f2fa .LASF2127
C:\Users\SOLDER~1\AppData\Local\Temp\ccEQi33f.s:25680  .debug_str:0000000000016df6 .LASF2128
C:\Users\SOLDER~1\AppData\Local\Temp\ccEQi33f.s:28250  .debug_str:00000000000214de .LASF2129
C:\Users\SOLDER~1\AppData\Local\Temp\ccEQi33f.s:24486  .debug_str:000000000001203b .LASF2130
C:\Users\SOLDER~1\AppData\Local\Temp\ccEQi33f.s:22774  .debug_str:000000000000b0f4 .LASF2131
C:\Users\SOLDER~1\AppData\Local\Temp\ccEQi33f.s:31432  .debug_str:000000000002e427 .LASF2132
C:\Users\SOLDER~1\AppData\Local\Temp\ccEQi33f.s:23828  .debug_str:000000000000f5cb .LASF2133
C:\Users\SOLDER~1\AppData\Local\Temp\ccEQi33f.s:25794  .debug_str:00000000000175a7 .LASF2134
C:\Users\SOLDER~1\AppData\Local\Temp\ccEQi33f.s:31282  .debug_str:000000000002da9c .LASF2135
C:\Users\SOLDER~1\AppData\Local\Temp\ccEQi33f.s:25132  .debug_str:0000000000014bac .LASF2136
C:\Users\SOLDER~1\AppData\Local\Temp\ccEQi33f.s:29480  .debug_str:000000000002655b .LASF2137
C:\Users\SOLDER~1\AppData\Local\Temp\ccEQi33f.s:25004  .debug_str:00000000000142f5 .LASF2138
C:\Users\SOLDER~1\AppData\Local\Temp\ccEQi33f.s:21804  .debug_str:00000000000071a2 .LASF2139
C:\Users\SOLDER~1\AppData\Local\Temp\ccEQi33f.s:20888  .debug_str:00000000000036ab .LASF2140
C:\Users\SOLDER~1\AppData\Local\Temp\ccEQi33f.s:27670  .debug_str:000000000001ef12 .LASF2141
C:\Users\SOLDER~1\AppData\Local\Temp\ccEQi33f.s:29004  .debug_str:00000000000245e3 .LASF2142
C:\Users\SOLDER~1\AppData\Local\Temp\ccEQi33f.s:23490  .debug_str:000000000000e00c .LASF2143
C:\Users\SOLDER~1\AppData\Local\Temp\ccEQi33f.s:29522  .debug_str:0000000000026845 .LASF2144
C:\Users\SOLDER~1\AppData\Local\Temp\ccEQi33f.s:24138  .debug_str:0000000000010a43 .LASF2145
C:\Users\SOLDER~1\AppData\Local\Temp\ccEQi33f.s:30430  .debug_str:000000000002a3aa .LASF2146
C:\Users\SOLDER~1\AppData\Local\Temp\ccEQi33f.s:30392  .debug_str:000000000002a11a .LASF2147
C:\Users\SOLDER~1\AppData\Local\Temp\ccEQi33f.s:31128  .debug_str:000000000002d0e5 .LASF2148
C:\Users\SOLDER~1\AppData\Local\Temp\ccEQi33f.s:27578  .debug_str:000000000001e930 .LASF2149
C:\Users\SOLDER~1\AppData\Local\Temp\ccEQi33f.s:23114  .debug_str:000000000000c72d .LASF2150
C:\Users\SOLDER~1\AppData\Local\Temp\ccEQi33f.s:21372  .debug_str:00000000000054e6 .LASF2151
C:\Users\SOLDER~1\AppData\Local\Temp\ccEQi33f.s:25224  .debug_str:0000000000015189 .LASF2152
C:\Users\SOLDER~1\AppData\Local\Temp\ccEQi33f.s:29540  .debug_str:0000000000026978 .LASF2153
C:\Users\SOLDER~1\AppData\Local\Temp\ccEQi33f.s:22488  .debug_str:0000000000009e21 .LASF2154
C:\Users\SOLDER~1\AppData\Local\Temp\ccEQi33f.s:21558  .debug_str:000000000000614d .LASF2155
C:\Users\SOLDER~1\AppData\Local\Temp\ccEQi33f.s:29160  .debug_str:0000000000024fe5 .LASF2156
C:\Users\SOLDER~1\AppData\Local\Temp\ccEQi33f.s:27126  .debug_str:000000000001cbbc .LASF2157
C:\Users\SOLDER~1\AppData\Local\Temp\ccEQi33f.s:28602  .debug_str:0000000000022b6f .LASF2158
C:\Users\SOLDER~1\AppData\Local\Temp\ccEQi33f.s:23992  .debug_str:00000000000100c7 .LASF2159
C:\Users\SOLDER~1\AppData\Local\Temp\ccEQi33f.s:21916  .debug_str:0000000000007874 .LASF2160
C:\Users\SOLDER~1\AppData\Local\Temp\ccEQi33f.s:31274  .debug_str:000000000002da21 .LASF2161
C:\Users\SOLDER~1\AppData\Local\Temp\ccEQi33f.s:20754  .debug_str:0000000000002e06 .LASF2162
C:\Users\SOLDER~1\AppData\Local\Temp\ccEQi33f.s:22708  .debug_str:000000000000ac9b .LASF2163
C:\Users\SOLDER~1\AppData\Local\Temp\ccEQi33f.s:27672  .debug_str:000000000001ef38 .LASF2164
C:\Users\SOLDER~1\AppData\Local\Temp\ccEQi33f.s:20110  .debug_str:0000000000000378 .LASF2165
C:\Users\SOLDER~1\AppData\Local\Temp\ccEQi33f.s:22018  .debug_str:0000000000007f66 .LASF2166
C:\Users\SOLDER~1\AppData\Local\Temp\ccEQi33f.s:27434  .debug_str:000000000001dfd9 .LASF2167
C:\Users\SOLDER~1\AppData\Local\Temp\ccEQi33f.s:25024  .debug_str:0000000000014450 .LASF2168
C:\Users\SOLDER~1\AppData\Local\Temp\ccEQi33f.s:25808  .debug_str:000000000001769e .LASF2169
C:\Users\SOLDER~1\AppData\Local\Temp\ccEQi33f.s:21244  .debug_str:0000000000004d37 .LASF2170
C:\Users\SOLDER~1\AppData\Local\Temp\ccEQi33f.s:29586  .debug_str:0000000000026c7f .LASF2171
C:\Users\SOLDER~1\AppData\Local\Temp\ccEQi33f.s:28668  .debug_str:0000000000022fa9 .LASF2172
C:\Users\SOLDER~1\AppData\Local\Temp\ccEQi33f.s:23630  .debug_str:000000000000e954 .LASF2173
C:\Users\SOLDER~1\AppData\Local\Temp\ccEQi33f.s:25304  .debug_str:00000000000156d4 .LASF2174
C:\Users\SOLDER~1\AppData\Local\Temp\ccEQi33f.s:26694  .debug_str:000000000001af8a .LASF2175
C:\Users\SOLDER~1\AppData\Local\Temp\ccEQi33f.s:25950  .debug_str:0000000000017fe6 .LASF2176
C:\Users\SOLDER~1\AppData\Local\Temp\ccEQi33f.s:25302  .debug_str:00000000000156bc .LASF2177
C:\Users\SOLDER~1\AppData\Local\Temp\ccEQi33f.s:26974  .debug_str:000000000001c16c .LASF2178
C:\Users\SOLDER~1\AppData\Local\Temp\ccEQi33f.s:23978  .debug_str:000000000001000b .LASF2179
GAS LISTING C:\Users\SOLDER~1\AppData\Local\Temp\ccEQi33f.s 			page 81


C:\Users\SOLDER~1\AppData\Local\Temp\ccEQi33f.s:26072  .debug_str:000000000001877b .LASF2180
C:\Users\SOLDER~1\AppData\Local\Temp\ccEQi33f.s:22396  .debug_str:0000000000009814 .LASF2181
C:\Users\SOLDER~1\AppData\Local\Temp\ccEQi33f.s:24228  .debug_str:0000000000010fcd .LASF2182
C:\Users\SOLDER~1\AppData\Local\Temp\ccEQi33f.s:20628  .debug_str:00000000000025f5 .LASF2183
C:\Users\SOLDER~1\AppData\Local\Temp\ccEQi33f.s:29456  .debug_str:00000000000263f2 .LASF2184
C:\Users\SOLDER~1\AppData\Local\Temp\ccEQi33f.s:24926  .debug_str:0000000000013d9f .LASF2185
C:\Users\SOLDER~1\AppData\Local\Temp\ccEQi33f.s:23040  .debug_str:000000000000c1f0 .LASF2186
C:\Users\SOLDER~1\AppData\Local\Temp\ccEQi33f.s:22342  .debug_str:00000000000094c5 .LASF2187
C:\Users\SOLDER~1\AppData\Local\Temp\ccEQi33f.s:28168  .debug_str:0000000000020f65 .LASF2188
C:\Users\SOLDER~1\AppData\Local\Temp\ccEQi33f.s:27942  .debug_str:00000000000200cf .LASF2189
C:\Users\SOLDER~1\AppData\Local\Temp\ccEQi33f.s:24860  .debug_str:00000000000138cb .LASF2190
C:\Users\SOLDER~1\AppData\Local\Temp\ccEQi33f.s:23646  .debug_str:000000000000ea56 .LASF2191
C:\Users\SOLDER~1\AppData\Local\Temp\ccEQi33f.s:24804  .debug_str:00000000000134f1 .LASF2192
C:\Users\SOLDER~1\AppData\Local\Temp\ccEQi33f.s:29222  .debug_str:00000000000253d3 .LASF2193
C:\Users\SOLDER~1\AppData\Local\Temp\ccEQi33f.s:30532  .debug_str:000000000002aa06 .LASF2194
C:\Users\SOLDER~1\AppData\Local\Temp\ccEQi33f.s:27878  .debug_str:000000000001fcc4 .LASF2195
C:\Users\SOLDER~1\AppData\Local\Temp\ccEQi33f.s:26722  .debug_str:000000000001b114 .LASF2196
C:\Users\SOLDER~1\AppData\Local\Temp\ccEQi33f.s:23566  .debug_str:000000000000e50c .LASF2197
C:\Users\SOLDER~1\AppData\Local\Temp\ccEQi33f.s:27072  .debug_str:000000000001c80d .LASF2198
C:\Users\SOLDER~1\AppData\Local\Temp\ccEQi33f.s:29174  .debug_str:00000000000250c8 .LASF2199
C:\Users\SOLDER~1\AppData\Local\Temp\ccEQi33f.s:23110  .debug_str:000000000000c6ec .LASF2200
C:\Users\SOLDER~1\AppData\Local\Temp\ccEQi33f.s:20868  .debug_str:000000000000357d .LASF2201
C:\Users\SOLDER~1\AppData\Local\Temp\ccEQi33f.s:21258  .debug_str:0000000000004e09 .LASF2202
C:\Users\SOLDER~1\AppData\Local\Temp\ccEQi33f.s:30120  .debug_str:0000000000028f20 .LASF2203
C:\Users\SOLDER~1\AppData\Local\Temp\ccEQi33f.s:31226  .debug_str:000000000002d710 .LASF2204
C:\Users\SOLDER~1\AppData\Local\Temp\ccEQi33f.s:25408  .debug_str:0000000000015d18 .LASF2205
C:\Users\SOLDER~1\AppData\Local\Temp\ccEQi33f.s:20612  .debug_str:00000000000024f1 .LASF2206
C:\Users\SOLDER~1\AppData\Local\Temp\ccEQi33f.s:20574  .debug_str:0000000000002273 .LASF2207
C:\Users\SOLDER~1\AppData\Local\Temp\ccEQi33f.s:27558  .debug_str:000000000001e7cc .LASF2208
C:\Users\SOLDER~1\AppData\Local\Temp\ccEQi33f.s:26674  .debug_str:000000000001ae68 .LASF2209
C:\Users\SOLDER~1\AppData\Local\Temp\ccEQi33f.s:24134  .debug_str:00000000000109fe .LASF2210
C:\Users\SOLDER~1\AppData\Local\Temp\ccEQi33f.s:24378  .debug_str:000000000001197f .LASF2211
C:\Users\SOLDER~1\AppData\Local\Temp\ccEQi33f.s:25726  .debug_str:000000000001711a .LASF2212
C:\Users\SOLDER~1\AppData\Local\Temp\ccEQi33f.s:30862  .debug_str:000000000002bf84 .LASF2213
C:\Users\SOLDER~1\AppData\Local\Temp\ccEQi33f.s:28298  .debug_str:00000000000217ea .LASF2214
C:\Users\SOLDER~1\AppData\Local\Temp\ccEQi33f.s:26400  .debug_str:0000000000019ca4 .LASF2215
C:\Users\SOLDER~1\AppData\Local\Temp\ccEQi33f.s:25604  .debug_str:0000000000016981 .LASF2216
C:\Users\SOLDER~1\AppData\Local\Temp\ccEQi33f.s:20830  .debug_str:00000000000032fd .LASF2217
C:\Users\SOLDER~1\AppData\Local\Temp\ccEQi33f.s:25532  .debug_str:0000000000016510 .LASF2218
C:\Users\SOLDER~1\AppData\Local\Temp\ccEQi33f.s:25402  .debug_str:0000000000015cd0 .LASF2219
C:\Users\SOLDER~1\AppData\Local\Temp\ccEQi33f.s:22678  .debug_str:000000000000aad7 .LASF2220
C:\Users\SOLDER~1\AppData\Local\Temp\ccEQi33f.s:27852  .debug_str:000000000001fb2c .LASF2221
C:\Users\SOLDER~1\AppData\Local\Temp\ccEQi33f.s:29718  .debug_str:0000000000027531 .LASF2222
C:\Users\SOLDER~1\AppData\Local\Temp\ccEQi33f.s:21642  .debug_str:00000000000066e3 .LASF2223
C:\Users\SOLDER~1\AppData\Local\Temp\ccEQi33f.s:22368  .debug_str:0000000000009641 .LASF2224
C:\Users\SOLDER~1\AppData\Local\Temp\ccEQi33f.s:24536  .debug_str:000000000001234a .LASF2225
C:\Users\SOLDER~1\AppData\Local\Temp\ccEQi33f.s:24970  .debug_str:000000000001406e .LASF2226
C:\Users\SOLDER~1\AppData\Local\Temp\ccEQi33f.s:27096  .debug_str:000000000001c9b5 .LASF2227
C:\Users\SOLDER~1\AppData\Local\Temp\ccEQi33f.s:31012  .debug_str:000000000002c919 .LASF2228
C:\Users\SOLDER~1\AppData\Local\Temp\ccEQi33f.s:22102  .debug_str:00000000000084ef .LASF2229
C:\Users\SOLDER~1\AppData\Local\Temp\ccEQi33f.s:28180  .debug_str:0000000000021042 .LASF2230
C:\Users\SOLDER~1\AppData\Local\Temp\ccEQi33f.s:29058  .debug_str:000000000002495b .LASF2231
C:\Users\SOLDER~1\AppData\Local\Temp\ccEQi33f.s:25016  .debug_str:00000000000143b5 .LASF2232
C:\Users\SOLDER~1\AppData\Local\Temp\ccEQi33f.s:21708  .debug_str:0000000000006b25 .LASF2233
C:\Users\SOLDER~1\AppData\Local\Temp\ccEQi33f.s:24444  .debug_str:0000000000011d91 .LASF2234
C:\Users\SOLDER~1\AppData\Local\Temp\ccEQi33f.s:21338  .debug_str:00000000000052e9 .LASF2235
C:\Users\SOLDER~1\AppData\Local\Temp\ccEQi33f.s:31068  .debug_str:000000000002cc8b .LASF2236
GAS LISTING C:\Users\SOLDER~1\AppData\Local\Temp\ccEQi33f.s 			page 82


C:\Users\SOLDER~1\AppData\Local\Temp\ccEQi33f.s:27906  .debug_str:000000000001fe79 .LASF2237
C:\Users\SOLDER~1\AppData\Local\Temp\ccEQi33f.s:30482  .debug_str:000000000002a6f9 .LASF2238
C:\Users\SOLDER~1\AppData\Local\Temp\ccEQi33f.s:23330  .debug_str:000000000000d5a3 .LASF2239
C:\Users\SOLDER~1\AppData\Local\Temp\ccEQi33f.s:24770  .debug_str:000000000001329a .LASF2240
C:\Users\SOLDER~1\AppData\Local\Temp\ccEQi33f.s:20534  .debug_str:0000000000001fca .LASF2241
C:\Users\SOLDER~1\AppData\Local\Temp\ccEQi33f.s:29560  .debug_str:0000000000026ae3 .LASF2242
C:\Users\SOLDER~1\AppData\Local\Temp\ccEQi33f.s:29504  .debug_str:000000000002670a .LASF2243
C:\Users\SOLDER~1\AppData\Local\Temp\ccEQi33f.s:23916  .debug_str:000000000000fbfd .LASF2244
C:\Users\SOLDER~1\AppData\Local\Temp\ccEQi33f.s:20136  .debug_str:0000000000000527 .LASF2245
C:\Users\SOLDER~1\AppData\Local\Temp\ccEQi33f.s:20088  .debug_str:0000000000000211 .LASF2246
C:\Users\SOLDER~1\AppData\Local\Temp\ccEQi33f.s:25852  .debug_str:000000000001794c .LASF2247
C:\Users\SOLDER~1\AppData\Local\Temp\ccEQi33f.s:21990  .debug_str:0000000000007d84 .LASF2248
C:\Users\SOLDER~1\AppData\Local\Temp\ccEQi33f.s:25042  .debug_str:0000000000014598 .LASF2249
C:\Users\SOLDER~1\AppData\Local\Temp\ccEQi33f.s:23266  .debug_str:000000000000d178 .LASF2250
C:\Users\SOLDER~1\AppData\Local\Temp\ccEQi33f.s:22746  .debug_str:000000000000af4f .LASF2251
C:\Users\SOLDER~1\AppData\Local\Temp\ccEQi33f.s:31200  .debug_str:000000000002d563 .LASF2252
C:\Users\SOLDER~1\AppData\Local\Temp\ccEQi33f.s:24430  .debug_str:0000000000011cd2 .LASF2253
C:\Users\SOLDER~1\AppData\Local\Temp\ccEQi33f.s:26198  .debug_str:0000000000019004 .LASF2254
C:\Users\SOLDER~1\AppData\Local\Temp\ccEQi33f.s:25730  .debug_str:000000000001715d .LASF2255
C:\Users\SOLDER~1\AppData\Local\Temp\ccEQi33f.s:28192  .debug_str:000000000002112b .LASF2256
C:\Users\SOLDER~1\AppData\Local\Temp\ccEQi33f.s:30256  .debug_str:000000000002980b .LASF2257
C:\Users\SOLDER~1\AppData\Local\Temp\ccEQi33f.s:23170  .debug_str:000000000000cb13 .LASF2258
C:\Users\SOLDER~1\AppData\Local\Temp\ccEQi33f.s:20710  .debug_str:0000000000002b4f .LASF2259
C:\Users\SOLDER~1\AppData\Local\Temp\ccEQi33f.s:28756  .debug_str:00000000000235a1 .LASF2260
C:\Users\SOLDER~1\AppData\Local\Temp\ccEQi33f.s:26316  .debug_str:0000000000019740 .LASF2261
C:\Users\SOLDER~1\AppData\Local\Temp\ccEQi33f.s:22066  .debug_str:00000000000082a1 .LASF2262
C:\Users\SOLDER~1\AppData\Local\Temp\ccEQi33f.s:21298  .debug_str:0000000000005066 .LASF2263
C:\Users\SOLDER~1\AppData\Local\Temp\ccEQi33f.s:27856  .debug_str:000000000001fb63 .LASF2264
C:\Users\SOLDER~1\AppData\Local\Temp\ccEQi33f.s:24250  .debug_str:0000000000011152 .LASF2265
C:\Users\SOLDER~1\AppData\Local\Temp\ccEQi33f.s:23792  .debug_str:000000000000f35e .LASF2266
C:\Users\SOLDER~1\AppData\Local\Temp\ccEQi33f.s:26272  .debug_str:00000000000194be .LASF2267
C:\Users\SOLDER~1\AppData\Local\Temp\ccEQi33f.s:23588  .debug_str:000000000000e67a .LASF2268
C:\Users\SOLDER~1\AppData\Local\Temp\ccEQi33f.s:20306  .debug_str:000000000000110e .LASF2269
C:\Users\SOLDER~1\AppData\Local\Temp\ccEQi33f.s:29738  .debug_str:0000000000027684 .LASF2270
C:\Users\SOLDER~1\AppData\Local\Temp\ccEQi33f.s:30480  .debug_str:000000000002a6e5 .LASF2271
C:\Users\SOLDER~1\AppData\Local\Temp\ccEQi33f.s:30676  .debug_str:000000000002b355 .LASF2272
C:\Users\SOLDER~1\AppData\Local\Temp\ccEQi33f.s:29756  .debug_str:00000000000277ae .LASF2273
C:\Users\SOLDER~1\AppData\Local\Temp\ccEQi33f.s:20176  .debug_str:0000000000000851 .LASF2274
C:\Users\SOLDER~1\AppData\Local\Temp\ccEQi33f.s:20254  .debug_str:0000000000000de0 .LASF2275
C:\Users\SOLDER~1\AppData\Local\Temp\ccEQi33f.s:22426  .debug_str:0000000000009a14 .LASF2276
C:\Users\SOLDER~1\AppData\Local\Temp\ccEQi33f.s:27664  .debug_str:000000000001eec7 .LASF2277
C:\Users\SOLDER~1\AppData\Local\Temp\ccEQi33f.s:21960  .debug_str:0000000000007b80 .LASF2278
C:\Users\SOLDER~1\AppData\Local\Temp\ccEQi33f.s:31536  .debug_str:000000000002eb07 .LASF2279
C:\Users\SOLDER~1\AppData\Local\Temp\ccEQi33f.s:24530  .debug_str:00000000000122fc .LASF2280
C:\Users\SOLDER~1\AppData\Local\Temp\ccEQi33f.s:27734  .debug_str:000000000001f386 .LASF2281
C:\Users\SOLDER~1\AppData\Local\Temp\ccEQi33f.s:31140  .debug_str:000000000002d1b6 .LASF2282
C:\Users\SOLDER~1\AppData\Local\Temp\ccEQi33f.s:21898  .debug_str:0000000000007772 .LASF2283
C:\Users\SOLDER~1\AppData\Local\Temp\ccEQi33f.s:20668  .debug_str:00000000000028ba .LASF2284
C:\Users\SOLDER~1\AppData\Local\Temp\ccEQi33f.s:24846  .debug_str:00000000000137bb .LASF2285
C:\Users\SOLDER~1\AppData\Local\Temp\ccEQi33f.s:21858  .debug_str:000000000000751b .LASF2286
C:\Users\SOLDER~1\AppData\Local\Temp\ccEQi33f.s:25814  .debug_str:000000000001770b .LASF2287
C:\Users\SOLDER~1\AppData\Local\Temp\ccEQi33f.s:24480  .debug_str:0000000000011fd7 .LASF2288
C:\Users\SOLDER~1\AppData\Local\Temp\ccEQi33f.s:21984  .debug_str:0000000000007d31 .LASF2289
C:\Users\SOLDER~1\AppData\Local\Temp\ccEQi33f.s:27270  .debug_str:000000000001d56f .LASF2290
C:\Users\SOLDER~1\AppData\Local\Temp\ccEQi33f.s:27770  .debug_str:000000000001f606 .LASF2291
C:\Users\SOLDER~1\AppData\Local\Temp\ccEQi33f.s:24908  .debug_str:0000000000013c44 .LASF2292
C:\Users\SOLDER~1\AppData\Local\Temp\ccEQi33f.s:21076  .debug_str:000000000000429f .LASF2293
GAS LISTING C:\Users\SOLDER~1\AppData\Local\Temp\ccEQi33f.s 			page 83


C:\Users\SOLDER~1\AppData\Local\Temp\ccEQi33f.s:25160  .debug_str:0000000000014d8c .LASF2294
C:\Users\SOLDER~1\AppData\Local\Temp\ccEQi33f.s:31502  .debug_str:000000000002e8f1 .LASF2295
C:\Users\SOLDER~1\AppData\Local\Temp\ccEQi33f.s:21912  .debug_str:0000000000007839 .LASF2296
C:\Users\SOLDER~1\AppData\Local\Temp\ccEQi33f.s:30442  .debug_str:000000000002a470 .LASF2297
C:\Users\SOLDER~1\AppData\Local\Temp\ccEQi33f.s:28664  .debug_str:0000000000022f68 .LASF2298
C:\Users\SOLDER~1\AppData\Local\Temp\ccEQi33f.s:24774  .debug_str:00000000000132da .LASF2299
C:\Users\SOLDER~1\AppData\Local\Temp\ccEQi33f.s:27972  .debug_str:00000000000202ac .LASF2300
C:\Users\SOLDER~1\AppData\Local\Temp\ccEQi33f.s:30772  .debug_str:000000000002b984 .LASF2301
C:\Users\SOLDER~1\AppData\Local\Temp\ccEQi33f.s:24268  .debug_str:000000000001125c .LASF2302
C:\Users\SOLDER~1\AppData\Local\Temp\ccEQi33f.s:28452  .debug_str:0000000000022184 .LASF2303
C:\Users\SOLDER~1\AppData\Local\Temp\ccEQi33f.s:25792  .debug_str:0000000000017585 .LASF2304
C:\Users\SOLDER~1\AppData\Local\Temp\ccEQi33f.s:24698  .debug_str:0000000000012e0a .LASF2305
C:\Users\SOLDER~1\AppData\Local\Temp\ccEQi33f.s:27144  .debug_str:000000000001cd11 .LASF2306
C:\Users\SOLDER~1\AppData\Local\Temp\ccEQi33f.s:30484  .debug_str:000000000002a719 .LASF2307
C:\Users\SOLDER~1\AppData\Local\Temp\ccEQi33f.s:24310  .debug_str:000000000001152d .LASF2308
C:\Users\SOLDER~1\AppData\Local\Temp\ccEQi33f.s:21008  .debug_str:0000000000003e6e .LASF2309
C:\Users\SOLDER~1\AppData\Local\Temp\ccEQi33f.s:23666  .debug_str:000000000000eb6d .LASF2310
C:\Users\SOLDER~1\AppData\Local\Temp\ccEQi33f.s:22728  .debug_str:000000000000ae1c .LASF2311
C:\Users\SOLDER~1\AppData\Local\Temp\ccEQi33f.s:30362  .debug_str:0000000000029efd .LASF2312
C:\Users\SOLDER~1\AppData\Local\Temp\ccEQi33f.s:30504  .debug_str:000000000002a843 .LASF2313
C:\Users\SOLDER~1\AppData\Local\Temp\ccEQi33f.s:23058  .debug_str:000000000000c33e .LASF2314
C:\Users\SOLDER~1\AppData\Local\Temp\ccEQi33f.s:24734  .debug_str:0000000000013058 .LASF2315
C:\Users\SOLDER~1\AppData\Local\Temp\ccEQi33f.s:24434  .debug_str:0000000000011d06 .LASF2316
C:\Users\SOLDER~1\AppData\Local\Temp\ccEQi33f.s:21932  .debug_str:00000000000079a5 .LASF2317
C:\Users\SOLDER~1\AppData\Local\Temp\ccEQi33f.s:24244  .debug_str:00000000000110de .LASF2318
C:\Users\SOLDER~1\AppData\Local\Temp\ccEQi33f.s:31214  .debug_str:000000000002d64a .LASF2319
C:\Users\SOLDER~1\AppData\Local\Temp\ccEQi33f.s:25378  .debug_str:0000000000015b4b .LASF2320
C:\Users\SOLDER~1\AppData\Local\Temp\ccEQi33f.s:28466  .debug_str:0000000000022241 .LASF2321
C:\Users\SOLDER~1\AppData\Local\Temp\ccEQi33f.s:25830  .debug_str:00000000000177db .LASF2322
C:\Users\SOLDER~1\AppData\Local\Temp\ccEQi33f.s:28842  .debug_str:0000000000023b0d .LASF2323
C:\Users\SOLDER~1\AppData\Local\Temp\ccEQi33f.s:28308  .debug_str:0000000000021894 .LASF2324
C:\Users\SOLDER~1\AppData\Local\Temp\ccEQi33f.s:27246  .debug_str:000000000001d3f8 .LASF2325
C:\Users\SOLDER~1\AppData\Local\Temp\ccEQi33f.s:21868  .debug_str:00000000000075a6 .LASF2326
C:\Users\SOLDER~1\AppData\Local\Temp\ccEQi33f.s:26950  .debug_str:000000000001bfa9 .LASF2327
C:\Users\SOLDER~1\AppData\Local\Temp\ccEQi33f.s:22656  .debug_str:000000000000a95a .LASF2328
C:\Users\SOLDER~1\AppData\Local\Temp\ccEQi33f.s:22556  .debug_str:000000000000a29b .LASF2329
C:\Users\SOLDER~1\AppData\Local\Temp\ccEQi33f.s:21376  .debug_str:0000000000005522 .LASF2330
C:\Users\SOLDER~1\AppData\Local\Temp\ccEQi33f.s:20408  .debug_str:00000000000017a2 .LASF2331
C:\Users\SOLDER~1\AppData\Local\Temp\ccEQi33f.s:30696  .debug_str:000000000002b48d .LASF2332
C:\Users\SOLDER~1\AppData\Local\Temp\ccEQi33f.s:21328  .debug_str:0000000000005243 .LASF2333
C:\Users\SOLDER~1\AppData\Local\Temp\ccEQi33f.s:29990  .debug_str:00000000000286e4 .LASF2334
C:\Users\SOLDER~1\AppData\Local\Temp\ccEQi33f.s:22948  .debug_str:000000000000bbfc .LASF2335
C:\Users\SOLDER~1\AppData\Local\Temp\ccEQi33f.s:27730  .debug_str:000000000001f342 .LASF2336
C:\Users\SOLDER~1\AppData\Local\Temp\ccEQi33f.s:23402  .debug_str:000000000000da26 .LASF2337
C:\Users\SOLDER~1\AppData\Local\Temp\ccEQi33f.s:31198  .debug_str:000000000002d540 .LASF2338
C:\Users\SOLDER~1\AppData\Local\Temp\ccEQi33f.s:23180  .debug_str:000000000000cbcb .LASF2339
C:\Users\SOLDER~1\AppData\Local\Temp\ccEQi33f.s:27938  .debug_str:0000000000020083 .LASF2340
C:\Users\SOLDER~1\AppData\Local\Temp\ccEQi33f.s:27810  .debug_str:000000000001f869 .LASF2341
C:\Users\SOLDER~1\AppData\Local\Temp\ccEQi33f.s:30786  .debug_str:000000000002ba4f .LASF2342
C:\Users\SOLDER~1\AppData\Local\Temp\ccEQi33f.s:23048  .debug_str:000000000000c286 .LASF2343
C:\Users\SOLDER~1\AppData\Local\Temp\ccEQi33f.s:29580  .debug_str:0000000000026c1e .LASF2344
C:\Users\SOLDER~1\AppData\Local\Temp\ccEQi33f.s:24170  .debug_str:0000000000010c26 .LASF2345
C:\Users\SOLDER~1\AppData\Local\Temp\ccEQi33f.s:23550  .debug_str:000000000000e423 .LASF2346
C:\Users\SOLDER~1\AppData\Local\Temp\ccEQi33f.s:29886  .debug_str:000000000002803f .LASF2347
C:\Users\SOLDER~1\AppData\Local\Temp\ccEQi33f.s:28110  .debug_str:0000000000020ba1 .LASF2348
C:\Users\SOLDER~1\AppData\Local\Temp\ccEQi33f.s:22002  .debug_str:0000000000007e5a .LASF2349
C:\Users\SOLDER~1\AppData\Local\Temp\ccEQi33f.s:26922  .debug_str:000000000001bde8 .LASF2350
GAS LISTING C:\Users\SOLDER~1\AppData\Local\Temp\ccEQi33f.s 			page 84


C:\Users\SOLDER~1\AppData\Local\Temp\ccEQi33f.s:30078  .debug_str:0000000000028c87 .LASF2351
C:\Users\SOLDER~1\AppData\Local\Temp\ccEQi33f.s:28598  .debug_str:0000000000022b2d .LASF2352
C:\Users\SOLDER~1\AppData\Local\Temp\ccEQi33f.s:22630  .debug_str:000000000000a7a3 .LASF2353
C:\Users\SOLDER~1\AppData\Local\Temp\ccEQi33f.s:31108  .debug_str:000000000002cf58 .LASF2354
C:\Users\SOLDER~1\AppData\Local\Temp\ccEQi33f.s:23408  .debug_str:000000000000da79 .LASF2355
C:\Users\SOLDER~1\AppData\Local\Temp\ccEQi33f.s:26136  .debug_str:0000000000018bd0 .LASF2356
C:\Users\SOLDER~1\AppData\Local\Temp\ccEQi33f.s:23012  .debug_str:000000000000bff9 .LASF2357
C:\Users\SOLDER~1\AppData\Local\Temp\ccEQi33f.s:26900  .debug_str:000000000001bc56 .LASF2358
C:\Users\SOLDER~1\AppData\Local\Temp\ccEQi33f.s:23872  .debug_str:000000000000f8e2 .LASF2359
C:\Users\SOLDER~1\AppData\Local\Temp\ccEQi33f.s:27306  .debug_str:000000000001d7ab .LASF2360
C:\Users\SOLDER~1\AppData\Local\Temp\ccEQi33f.s:28006  .debug_str:00000000000204fb .LASF2361
C:\Users\SOLDER~1\AppData\Local\Temp\ccEQi33f.s:23448  .debug_str:000000000000dd24 .LASF2362
C:\Users\SOLDER~1\AppData\Local\Temp\ccEQi33f.s:24704  .debug_str:0000000000012e63 .LASF2363
C:\Users\SOLDER~1\AppData\Local\Temp\ccEQi33f.s:22770  .debug_str:000000000000b0bd .LASF2364
C:\Users\SOLDER~1\AppData\Local\Temp\ccEQi33f.s:30660  .debug_str:000000000002b26d .LASF2365
C:\Users\SOLDER~1\AppData\Local\Temp\ccEQi33f.s:27928  .debug_str:000000000001ffe6 .LASF2366
C:\Users\SOLDER~1\AppData\Local\Temp\ccEQi33f.s:29156  .debug_str:0000000000024faf .LASF2367
C:\Users\SOLDER~1\AppData\Local\Temp\ccEQi33f.s:28022  .debug_str:00000000000205f9 .LASF2368
C:\Users\SOLDER~1\AppData\Local\Temp\ccEQi33f.s:26110  .debug_str:0000000000018a16 .LASF2369
C:\Users\SOLDER~1\AppData\Local\Temp\ccEQi33f.s:20664  .debug_str:0000000000002841 .LASF2370
C:\Users\SOLDER~1\AppData\Local\Temp\ccEQi33f.s:21118  .debug_str:0000000000004534 .LASF2371
C:\Users\SOLDER~1\AppData\Local\Temp\ccEQi33f.s:27532  .debug_str:000000000001e636 .LASF2372
C:\Users\SOLDER~1\AppData\Local\Temp\ccEQi33f.s:21102  .debug_str:000000000000443e .LASF2373
C:\Users\SOLDER~1\AppData\Local\Temp\ccEQi33f.s:20940  .debug_str:0000000000003a09 .LASF2374
C:\Users\SOLDER~1\AppData\Local\Temp\ccEQi33f.s:21560  .debug_str:0000000000006173 .LASF2375
C:\Users\SOLDER~1\AppData\Local\Temp\ccEQi33f.s:26438  .debug_str:0000000000019ee0 .LASF2376
C:\Users\SOLDER~1\AppData\Local\Temp\ccEQi33f.s:22574  .debug_str:000000000000a3d5 .LASF2377
C:\Users\SOLDER~1\AppData\Local\Temp\ccEQi33f.s:20818  .debug_str:000000000000322e .LASF2378
C:\Users\SOLDER~1\AppData\Local\Temp\ccEQi33f.s:30380  .debug_str:000000000002a034 .LASF2379
C:\Users\SOLDER~1\AppData\Local\Temp\ccEQi33f.s:29784  .debug_str:000000000002794d .LASF2380
C:\Users\SOLDER~1\AppData\Local\Temp\ccEQi33f.s:20166  .debug_str:00000000000007aa .LASF2381
C:\Users\SOLDER~1\AppData\Local\Temp\ccEQi33f.s:31494  .debug_str:000000000002e860 .LASF2382
C:\Users\SOLDER~1\AppData\Local\Temp\ccEQi33f.s:26938  .debug_str:000000000001bee0 .LASF2383
C:\Users\SOLDER~1\AppData\Local\Temp\ccEQi33f.s:23062  .debug_str:000000000000c392 .LASF2384
C:\Users\SOLDER~1\AppData\Local\Temp\ccEQi33f.s:31052  .debug_str:000000000002cba4 .LASF2385
C:\Users\SOLDER~1\AppData\Local\Temp\ccEQi33f.s:30420  .debug_str:000000000002a306 .LASF2386
C:\Users\SOLDER~1\AppData\Local\Temp\ccEQi33f.s:30750  .debug_str:000000000002b80f .LASF2387
C:\Users\SOLDER~1\AppData\Local\Temp\ccEQi33f.s:31236  .debug_str:000000000002d7cf .LASF2388
C:\Users\SOLDER~1\AppData\Local\Temp\ccEQi33f.s:25192  .debug_str:0000000000014f7d .LASF2389
C:\Users\SOLDER~1\AppData\Local\Temp\ccEQi33f.s:21702  .debug_str:0000000000006ac7 .LASF2390
C:\Users\SOLDER~1\AppData\Local\Temp\ccEQi33f.s:30640  .debug_str:000000000002b12d .LASF2391
C:\Users\SOLDER~1\AppData\Local\Temp\ccEQi33f.s:27706  .debug_str:000000000001f1a1 .LASF2392
C:\Users\SOLDER~1\AppData\Local\Temp\ccEQi33f.s:21666  .debug_str:000000000000689c .LASF2393
C:\Users\SOLDER~1\AppData\Local\Temp\ccEQi33f.s:27006  .debug_str:000000000001c39b .LASF2394
C:\Users\SOLDER~1\AppData\Local\Temp\ccEQi33f.s:26738  .debug_str:000000000001b228 .LASF2395
C:\Users\SOLDER~1\AppData\Local\Temp\ccEQi33f.s:20702  .debug_str:0000000000002ae0 .LASF2396
C:\Users\SOLDER~1\AppData\Local\Temp\ccEQi33f.s:23478  .debug_str:000000000000df24 .LASF2397
C:\Users\SOLDER~1\AppData\Local\Temp\ccEQi33f.s:24816  .debug_str:00000000000135bc .LASF2398
C:\Users\SOLDER~1\AppData\Local\Temp\ccEQi33f.s:28934  .debug_str:0000000000024125 .LASF2399
C:\Users\SOLDER~1\AppData\Local\Temp\ccEQi33f.s:22156  .debug_str:0000000000008825 .LASF2400
C:\Users\SOLDER~1\AppData\Local\Temp\ccEQi33f.s:23692  .debug_str:000000000000ed18 .LASF2401
C:\Users\SOLDER~1\AppData\Local\Temp\ccEQi33f.s:24386  .debug_str:00000000000119f0 .LASF2402
C:\Users\SOLDER~1\AppData\Local\Temp\ccEQi33f.s:28786  .debug_str:0000000000023796 .LASF2403
C:\Users\SOLDER~1\AppData\Local\Temp\ccEQi33f.s:23820  .debug_str:000000000000f53a .LASF2404
C:\Users\SOLDER~1\AppData\Local\Temp\ccEQi33f.s:22856  .debug_str:000000000000b647 .LASF2405
C:\Users\SOLDER~1\AppData\Local\Temp\ccEQi33f.s:29236  .debug_str:00000000000254b4 .LASF2406
C:\Users\SOLDER~1\AppData\Local\Temp\ccEQi33f.s:26838  .debug_str:000000000001b849 .LASF2407
GAS LISTING C:\Users\SOLDER~1\AppData\Local\Temp\ccEQi33f.s 			page 85


C:\Users\SOLDER~1\AppData\Local\Temp\ccEQi33f.s:25068  .debug_str:0000000000014741 .LASF2408
C:\Users\SOLDER~1\AppData\Local\Temp\ccEQi33f.s:27214  .debug_str:000000000001d1c5 .LASF2409
C:\Users\SOLDER~1\AppData\Local\Temp\ccEQi33f.s:21224  .debug_str:0000000000004c0a .LASF2410
C:\Users\SOLDER~1\AppData\Local\Temp\ccEQi33f.s:21662  .debug_str:0000000000006862 .LASF2411
C:\Users\SOLDER~1\AppData\Local\Temp\ccEQi33f.s:22758  .debug_str:000000000000b002 .LASF2412
C:\Users\SOLDER~1\AppData\Local\Temp\ccEQi33f.s:23088  .debug_str:000000000000c576 .LASF2413
C:\Users\SOLDER~1\AppData\Local\Temp\ccEQi33f.s:28090  .debug_str:0000000000020a4a .LASF2414
C:\Users\SOLDER~1\AppData\Local\Temp\ccEQi33f.s:21806  .debug_str:00000000000071c8 .LASF2415
C:\Users\SOLDER~1\AppData\Local\Temp\ccEQi33f.s:21086  .debug_str:0000000000004338 .LASF2416
C:\Users\SOLDER~1\AppData\Local\Temp\ccEQi33f.s:26814  .debug_str:000000000001b6ef .LASF2417
C:\Users\SOLDER~1\AppData\Local\Temp\ccEQi33f.s:23908  .debug_str:000000000000fb59 .LASF2418
C:\Users\SOLDER~1\AppData\Local\Temp\ccEQi33f.s:26588  .debug_str:000000000001a8ac .LASF2419
C:\Users\SOLDER~1\AppData\Local\Temp\ccEQi33f.s:27548  .debug_str:000000000001e735 .LASF2420
C:\Users\SOLDER~1\AppData\Local\Temp\ccEQi33f.s:20272  .debug_str:0000000000000ef8 .LASF2421
C:\Users\SOLDER~1\AppData\Local\Temp\ccEQi33f.s:20388  .debug_str:0000000000001655 .LASF2422
C:\Users\SOLDER~1\AppData\Local\Temp\ccEQi33f.s:21274  .debug_str:0000000000004eff .LASF2423
C:\Users\SOLDER~1\AppData\Local\Temp\ccEQi33f.s:31260  .debug_str:000000000002d94a .LASF2424
C:\Users\SOLDER~1\AppData\Local\Temp\ccEQi33f.s:22880  .debug_str:000000000000b79d .LASF2425
C:\Users\SOLDER~1\AppData\Local\Temp\ccEQi33f.s:24952  .debug_str:0000000000013f61 .LASF2426
C:\Users\SOLDER~1\AppData\Local\Temp\ccEQi33f.s:25770  .debug_str:0000000000017416 .LASF2427
C:\Users\SOLDER~1\AppData\Local\Temp\ccEQi33f.s:21658  .debug_str:0000000000006822 .LASF2428
C:\Users\SOLDER~1\AppData\Local\Temp\ccEQi33f.s:20390  .debug_str:0000000000001677 .LASF2429
C:\Users\SOLDER~1\AppData\Local\Temp\ccEQi33f.s:25148  .debug_str:0000000000014cbf .LASF2430
C:\Users\SOLDER~1\AppData\Local\Temp\ccEQi33f.s:27230  .debug_str:000000000001d2e1 .LASF2431
C:\Users\SOLDER~1\AppData\Local\Temp\ccEQi33f.s:20090  .debug_str:0000000000000232 .LASF2432
C:\Users\SOLDER~1\AppData\Local\Temp\ccEQi33f.s:20274  .debug_str:0000000000000f10 .LASF2433
C:\Users\SOLDER~1\AppData\Local\Temp\ccEQi33f.s:26812  .debug_str:000000000001b6ca .LASF2434
C:\Users\SOLDER~1\AppData\Local\Temp\ccEQi33f.s:30864  .debug_str:000000000002bf97 .LASF2435
C:\Users\SOLDER~1\AppData\Local\Temp\ccEQi33f.s:20546  .debug_str:0000000000002077 .LASF2436
C:\Users\SOLDER~1\AppData\Local\Temp\ccEQi33f.s:31168  .debug_str:000000000002d37f .LASF2437
C:\Users\SOLDER~1\AppData\Local\Temp\ccEQi33f.s:29342  .debug_str:0000000000025be9 .LASF2438
C:\Users\SOLDER~1\AppData\Local\Temp\ccEQi33f.s:30488  .debug_str:000000000002a752 .LASF2439
C:\Users\SOLDER~1\AppData\Local\Temp\ccEQi33f.s:25970  .debug_str:000000000001812c .LASF2440
C:\Users\SOLDER~1\AppData\Local\Temp\ccEQi33f.s:23254  .debug_str:000000000000d0b7 .LASF2441
C:\Users\SOLDER~1\AppData\Local\Temp\ccEQi33f.s:25640  .debug_str:0000000000016bb3 .LASF2442
C:\Users\SOLDER~1\AppData\Local\Temp\ccEQi33f.s:30816  .debug_str:000000000002bc47 .LASF2443
C:\Users\SOLDER~1\AppData\Local\Temp\ccEQi33f.s:20798  .debug_str:00000000000030de .LASF2444
C:\Users\SOLDER~1\AppData\Local\Temp\ccEQi33f.s:23256  .debug_str:000000000000d0cd .LASF2445
C:\Users\SOLDER~1\AppData\Local\Temp\ccEQi33f.s:27334  .debug_str:000000000001d936 .LASF2446
C:\Users\SOLDER~1\AppData\Local\Temp\ccEQi33f.s:22958  .debug_str:000000000000bca0 .LASF2447
C:\Users\SOLDER~1\AppData\Local\Temp\ccEQi33f.s:28128  .debug_str:0000000000020cbd .LASF2448
C:\Users\SOLDER~1\AppData\Local\Temp\ccEQi33f.s:27868  .debug_str:000000000001fc28 .LASF2449
C:\Users\SOLDER~1\AppData\Local\Temp\ccEQi33f.s:25142  .debug_str:0000000000014c6a .LASF2450
C:\Users\SOLDER~1\AppData\Local\Temp\ccEQi33f.s:25496  .debug_str:00000000000162e2 .LASF2451
C:\Users\SOLDER~1\AppData\Local\Temp\ccEQi33f.s:24708  .debug_str:0000000000012ea1 .LASF2452
C:\Users\SOLDER~1\AppData\Local\Temp\ccEQi33f.s:28954  .debug_str:0000000000024279 .LASF2453
C:\Users\SOLDER~1\AppData\Local\Temp\ccEQi33f.s:23340  .debug_str:000000000000d632 .LASF2454
C:\Users\SOLDER~1\AppData\Local\Temp\ccEQi33f.s:30594  .debug_str:000000000002adda .LASF2455
C:\Users\SOLDER~1\AppData\Local\Temp\ccEQi33f.s:29140  .debug_str:0000000000024e9d .LASF2456
C:\Users\SOLDER~1\AppData\Local\Temp\ccEQi33f.s:23558  .debug_str:000000000000e4aa .LASF2457
C:\Users\SOLDER~1\AppData\Local\Temp\ccEQi33f.s:29960  .debug_str:00000000000284c1 .LASF2458
C:\Users\SOLDER~1\AppData\Local\Temp\ccEQi33f.s:23260  .debug_str:000000000000d10a .LASF2459
C:\Users\SOLDER~1\AppData\Local\Temp\ccEQi33f.s:28000  .debug_str:0000000000020493 .LASF2460
C:\Users\SOLDER~1\AppData\Local\Temp\ccEQi33f.s:20496  .debug_str:0000000000001d68 .LASF2461
C:\Users\SOLDER~1\AppData\Local\Temp\ccEQi33f.s:29452  .debug_str:00000000000263a0 .LASF2462
C:\Users\SOLDER~1\AppData\Local\Temp\ccEQi33f.s:23126  .debug_str:000000000000c7f8 .LASF2463
C:\Users\SOLDER~1\AppData\Local\Temp\ccEQi33f.s:29668  .debug_str:00000000000271d2 .LASF2464
GAS LISTING C:\Users\SOLDER~1\AppData\Local\Temp\ccEQi33f.s 			page 86


C:\Users\SOLDER~1\AppData\Local\Temp\ccEQi33f.s:22186  .debug_str:0000000000008a32 .LASF2465
C:\Users\SOLDER~1\AppData\Local\Temp\ccEQi33f.s:23384  .debug_str:000000000000d91a .LASF2466
C:\Users\SOLDER~1\AppData\Local\Temp\ccEQi33f.s:23832  .debug_str:000000000000f613 .LASF2467
C:\Users\SOLDER~1\AppData\Local\Temp\ccEQi33f.s:22058  .debug_str:0000000000008207 .LASF2468
C:\Users\SOLDER~1\AppData\Local\Temp\ccEQi33f.s:20982  .debug_str:0000000000003cc2 .LASF2469
C:\Users\SOLDER~1\AppData\Local\Temp\ccEQi33f.s:26996  .debug_str:000000000001c2fe .LASF2470
C:\Users\SOLDER~1\AppData\Local\Temp\ccEQi33f.s:29392  .debug_str:0000000000025f79 .LASF2471
C:\Users\SOLDER~1\AppData\Local\Temp\ccEQi33f.s:28424  .debug_str:0000000000021fdb .LASF2472
C:\Users\SOLDER~1\AppData\Local\Temp\ccEQi33f.s:26882  .debug_str:000000000001bb25 .LASF2473
C:\Users\SOLDER~1\AppData\Local\Temp\ccEQi33f.s:25044  .debug_str:00000000000145b9 .LASF2474
C:\Users\SOLDER~1\AppData\Local\Temp\ccEQi33f.s:30988  .debug_str:000000000002c7ae .LASF2475
C:\Users\SOLDER~1\AppData\Local\Temp\ccEQi33f.s:31610  .debug_str:000000000002ef86 .LASF2476
C:\Users\SOLDER~1\AppData\Local\Temp\ccEQi33f.s:30674  .debug_str:000000000002b33d .LASF2477
C:\Users\SOLDER~1\AppData\Local\Temp\ccEQi33f.s:20916  .debug_str:000000000000387a .LASF2478
C:\Users\SOLDER~1\AppData\Local\Temp\ccEQi33f.s:31252  .debug_str:000000000002d8db .LASF2479
C:\Users\SOLDER~1\AppData\Local\Temp\ccEQi33f.s:27876  .debug_str:000000000001fca3 .LASF2480
C:\Users\SOLDER~1\AppData\Local\Temp\ccEQi33f.s:23334  .debug_str:000000000000d5de .LASF2481
C:\Users\SOLDER~1\AppData\Local\Temp\ccEQi33f.s:28914  .debug_str:0000000000023fce .LASF2482
C:\Users\SOLDER~1\AppData\Local\Temp\ccEQi33f.s:25076  .debug_str:00000000000147b9 .LASF2483
C:\Users\SOLDER~1\AppData\Local\Temp\ccEQi33f.s:28236  .debug_str:00000000000213f2 .LASF2484
C:\Users\SOLDER~1\AppData\Local\Temp\ccEQi33f.s:26676  .debug_str:000000000001ae7c .LASF2485
C:\Users\SOLDER~1\AppData\Local\Temp\ccEQi33f.s:21946  .debug_str:0000000000007a87 .LASF2486
C:\Users\SOLDER~1\AppData\Local\Temp\ccEQi33f.s:29416  .debug_str:0000000000026115 .LASF2487
C:\Users\SOLDER~1\AppData\Local\Temp\ccEQi33f.s:26752  .debug_str:000000000001b301 .LASF2488
C:\Users\SOLDER~1\AppData\Local\Temp\ccEQi33f.s:26190  .debug_str:0000000000018f81 .LASF2489
C:\Users\SOLDER~1\AppData\Local\Temp\ccEQi33f.s:30912  .debug_str:000000000002c2db .LASF2490
C:\Users\SOLDER~1\AppData\Local\Temp\ccEQi33f.s:30904  .debug_str:000000000002c26e .LASF2491
C:\Users\SOLDER~1\AppData\Local\Temp\ccEQi33f.s:26360  .debug_str:00000000000199fa .LASF2492
C:\Users\SOLDER~1\AppData\Local\Temp\ccEQi33f.s:31534  .debug_str:000000000002eae2 .LASF2493
C:\Users\SOLDER~1\AppData\Local\Temp\ccEQi33f.s:21006  .debug_str:0000000000003e49 .LASF2494
C:\Users\SOLDER~1\AppData\Local\Temp\ccEQi33f.s:26878  .debug_str:000000000001baeb .LASF2495
C:\Users\SOLDER~1\AppData\Local\Temp\ccEQi33f.s:26262  .debug_str:00000000000193ff .LASF2496
C:\Users\SOLDER~1\AppData\Local\Temp\ccEQi33f.s:28050  .debug_str:00000000000207a6 .LASF2497
C:\Users\SOLDER~1\AppData\Local\Temp\ccEQi33f.s:26308  .debug_str:00000000000196d9 .LASF2498
C:\Users\SOLDER~1\AppData\Local\Temp\ccEQi33f.s:29344  .debug_str:0000000000025c0b .LASF2499
C:\Users\SOLDER~1\AppData\Local\Temp\ccEQi33f.s:29962  .debug_str:00000000000284e4 .LASF2500
C:\Users\SOLDER~1\AppData\Local\Temp\ccEQi33f.s:26404  .debug_str:0000000000019cd6 .LASF2501
C:\Users\SOLDER~1\AppData\Local\Temp\ccEQi33f.s:30928  .debug_str:000000000002c3e7 .LASF2502
C:\Users\SOLDER~1\AppData\Local\Temp\ccEQi33f.s:23020  .debug_str:000000000000c094 .LASF2503
C:\Users\SOLDER~1\AppData\Local\Temp\ccEQi33f.s:25944  .debug_str:0000000000017f76 .LASF2504
C:\Users\SOLDER~1\AppData\Local\Temp\ccEQi33f.s:27132  .debug_str:000000000001cc27 .LASF2505
C:\Users\SOLDER~1\AppData\Local\Temp\ccEQi33f.s:24352  .debug_str:00000000000117d7 .LASF2506
C:\Users\SOLDER~1\AppData\Local\Temp\ccEQi33f.s:26748  .debug_str:000000000001b2c6 .LASF2507
C:\Users\SOLDER~1\AppData\Local\Temp\ccEQi33f.s:25164  .debug_str:0000000000014dca .LASF2508
C:\Users\SOLDER~1\AppData\Local\Temp\ccEQi33f.s:22550  .debug_str:000000000000a24c .LASF2509
C:\Users\SOLDER~1\AppData\Local\Temp\ccEQi33f.s:22266  .debug_str:0000000000008f93 .LASF2510
C:\Users\SOLDER~1\AppData\Local\Temp\ccEQi33f.s:20200  .debug_str:0000000000000a2f .LASF2511
C:\Users\SOLDER~1\AppData\Local\Temp\ccEQi33f.s:21620  .debug_str:000000000000654d .LASF2512
C:\Users\SOLDER~1\AppData\Local\Temp\ccEQi33f.s:21202  .debug_str:0000000000004a84 .LASF2513
C:\Users\SOLDER~1\AppData\Local\Temp\ccEQi33f.s:20942  .debug_str:0000000000003a2e .LASF2514
C:\Users\SOLDER~1\AppData\Local\Temp\ccEQi33f.s:22814  .debug_str:000000000000b37e .LASF2515
C:\Users\SOLDER~1\AppData\Local\Temp\ccEQi33f.s:26216  .debug_str:0000000000019116 .LASF2516
C:\Users\SOLDER~1\AppData\Local\Temp\ccEQi33f.s:21378  .debug_str:0000000000005543 .LASF2517
C:\Users\SOLDER~1\AppData\Local\Temp\ccEQi33f.s:23580  .debug_str:000000000000e5e9 .LASF2518
C:\Users\SOLDER~1\AppData\Local\Temp\ccEQi33f.s:29096  .debug_str:0000000000024bdd .LASF2519
C:\Users\SOLDER~1\AppData\Local\Temp\ccEQi33f.s:22318  .debug_str:000000000000930b .LASF2520
C:\Users\SOLDER~1\AppData\Local\Temp\ccEQi33f.s:30596  .debug_str:000000000002adf2 .LASF2521
GAS LISTING C:\Users\SOLDER~1\AppData\Local\Temp\ccEQi33f.s 			page 87


C:\Users\SOLDER~1\AppData\Local\Temp\ccEQi33f.s:23094  .debug_str:000000000000c5c9 .LASF2522
C:\Users\SOLDER~1\AppData\Local\Temp\ccEQi33f.s:28872  .debug_str:0000000000023d06 .LASF2523
C:\Users\SOLDER~1\AppData\Local\Temp\ccEQi33f.s:23906  .debug_str:000000000000fb34 .LASF2524
C:\Users\SOLDER~1\AppData\Local\Temp\ccEQi33f.s:29520  .debug_str:000000000002682e .LASF2525
C:\Users\SOLDER~1\AppData\Local\Temp\ccEQi33f.s:21226  .debug_str:0000000000004c2f .LASF2526
C:\Users\SOLDER~1\AppData\Local\Temp\ccEQi33f.s:20848  .debug_str:0000000000003438 .LASF2527
C:\Users\SOLDER~1\AppData\Local\Temp\ccEQi33f.s:28280  .debug_str:00000000000216ce .LASF2528
C:\Users\SOLDER~1\AppData\Local\Temp\ccEQi33f.s:26238  .debug_str:0000000000019255 .LASF2529
C:\Users\SOLDER~1\AppData\Local\Temp\ccEQi33f.s:21304  .debug_str:00000000000050ac .LASF2530
C:\Users\SOLDER~1\AppData\Local\Temp\ccEQi33f.s:30040  .debug_str:0000000000028a25 .LASF2531
C:\Users\SOLDER~1\AppData\Local\Temp\ccEQi33f.s:21254  .debug_str:0000000000004dcc .LASF2532
C:\Users\SOLDER~1\AppData\Local\Temp\ccEQi33f.s:31392  .debug_str:000000000002e1b7 .LASF2533
C:\Users\SOLDER~1\AppData\Local\Temp\ccEQi33f.s:20452  .debug_str:0000000000001a53 .LASF2534
C:\Users\SOLDER~1\AppData\Local\Temp\ccEQi33f.s:21108  .debug_str:000000000000449c .LASF2535
C:\Users\SOLDER~1\AppData\Local\Temp\ccEQi33f.s:26410  .debug_str:0000000000019d22 .LASF2536
C:\Users\SOLDER~1\AppData\Local\Temp\ccEQi33f.s:27982  .debug_str:0000000000020362 .LASF2537
C:\Users\SOLDER~1\AppData\Local\Temp\ccEQi33f.s:20774  .debug_str:0000000000002f85 .LASF2538
C:\Users\SOLDER~1\AppData\Local\Temp\ccEQi33f.s:23806  .debug_str:000000000000f468 .LASF2539
C:\Users\SOLDER~1\AppData\Local\Temp\ccEQi33f.s:26724  .debug_str:000000000001b135 .LASF2540
C:\Users\SOLDER~1\AppData\Local\Temp\ccEQi33f.s:30644  .debug_str:000000000002b16f .LASF2541
C:\Users\SOLDER~1\AppData\Local\Temp\ccEQi33f.s:21000  .debug_str:0000000000003de5 .LASF2542
C:\Users\SOLDER~1\AppData\Local\Temp\ccEQi33f.s:26446  .debug_str:0000000000019f75 .LASF2543
C:\Users\SOLDER~1\AppData\Local\Temp\ccEQi33f.s:24538  .debug_str:000000000001235e .LASF2544
C:\Users\SOLDER~1\AppData\Local\Temp\ccEQi33f.s:20278  .debug_str:0000000000000f4a .LASF2545
C:\Users\SOLDER~1\AppData\Local\Temp\ccEQi33f.s:30764  .debug_str:000000000002b8fb .LASF2546
C:\Users\SOLDER~1\AppData\Local\Temp\ccEQi33f.s:21864  .debug_str:000000000000756e .LASF2547
C:\Users\SOLDER~1\AppData\Local\Temp\ccEQi33f.s:29948  .debug_str:000000000002840d .LASF2548
C:\Users\SOLDER~1\AppData\Local\Temp\ccEQi33f.s:23452  .debug_str:000000000000dd6a .LASF2549
C:\Users\SOLDER~1\AppData\Local\Temp\ccEQi33f.s:29314  .debug_str:0000000000025a14 .LASF2550
C:\Users\SOLDER~1\AppData\Local\Temp\ccEQi33f.s:24994  .debug_str:0000000000014259 .LASF2551
C:\Users\SOLDER~1\AppData\Local\Temp\ccEQi33f.s:22760  .debug_str:000000000000b022 .LASF2552
C:\Users\SOLDER~1\AppData\Local\Temp\ccEQi33f.s:26596  .debug_str:000000000001a910 .LASF2553
C:\Users\SOLDER~1\AppData\Local\Temp\ccEQi33f.s:22622  .debug_str:000000000000a727 .LASF2554
C:\Users\SOLDER~1\AppData\Local\Temp\ccEQi33f.s:28078  .debug_str:0000000000020983 .LASF2555
C:\Users\SOLDER~1\AppData\Local\Temp\ccEQi33f.s:21344  .debug_str:000000000000534f .LASF2556
C:\Users\SOLDER~1\AppData\Local\Temp\ccEQi33f.s:26318  .debug_str:0000000000019754 .LASF2557
C:\Users\SOLDER~1\AppData\Local\Temp\ccEQi33f.s:26362  .debug_str:0000000000019a1d .LASF2558
C:\Users\SOLDER~1\AppData\Local\Temp\ccEQi33f.s:26692  .debug_str:000000000001af73 .LASF2559
C:\Users\SOLDER~1\AppData\Local\Temp\ccEQi33f.s:27530  .debug_str:000000000001e611 .LASF2560
C:\Users\SOLDER~1\AppData\Local\Temp\ccEQi33f.s:28176  .debug_str:0000000000021007 .LASF2561
C:\Users\SOLDER~1\AppData\Local\Temp\ccEQi33f.s:25948  .debug_str:0000000000017fc1 .LASF2562
C:\Users\SOLDER~1\AppData\Local\Temp\ccEQi33f.s:29774  .debug_str:00000000000278bc .LASF2563
C:\Users\SOLDER~1\AppData\Local\Temp\ccEQi33f.s:30994  .debug_str:000000000002c7ef .LASF2564
C:\Users\SOLDER~1\AppData\Local\Temp\ccEQi33f.s:31426  .debug_str:000000000002e3bd .LASF2565
C:\Users\SOLDER~1\AppData\Local\Temp\ccEQi33f.s:24398  .debug_str:0000000000011ab9 .LASF2566
C:\Users\SOLDER~1\AppData\Local\Temp\ccEQi33f.s:21350  .debug_str:00000000000053a8 .LASF2567
C:\Users\SOLDER~1\AppData\Local\Temp\ccEQi33f.s:29208  .debug_str:00000000000252f1 .LASF2568
C:\Users\SOLDER~1\AppData\Local\Temp\ccEQi33f.s:22962  .debug_str:000000000000bcdd .LASF2569
C:\Users\SOLDER~1\AppData\Local\Temp\ccEQi33f.s:22988  .debug_str:000000000000be67 .LASF2570
C:\Users\SOLDER~1\AppData\Local\Temp\ccEQi33f.s:24562  .debug_str:0000000000012542 .LASF2571
C:\Users\SOLDER~1\AppData\Local\Temp\ccEQi33f.s:27968  .debug_str:0000000000020263 .LASF2572
C:\Users\SOLDER~1\AppData\Local\Temp\ccEQi33f.s:27418  .debug_str:000000000001def5 .LASF2573
C:\Users\SOLDER~1\AppData\Local\Temp\ccEQi33f.s:20730  .debug_str:0000000000002c72 .LASF2574
C:\Users\SOLDER~1\AppData\Local\Temp\ccEQi33f.s:25550  .debug_str:000000000001660f .LASF2575
C:\Users\SOLDER~1\AppData\Local\Temp\ccEQi33f.s:26774  .debug_str:000000000001b46e .LASF2576
C:\Users\SOLDER~1\AppData\Local\Temp\ccEQi33f.s:23610  .debug_str:000000000000e810 .LASF2577
C:\Users\SOLDER~1\AppData\Local\Temp\ccEQi33f.s:27424  .debug_str:000000000001df45 .LASF2578
GAS LISTING C:\Users\SOLDER~1\AppData\Local\Temp\ccEQi33f.s 			page 88


C:\Users\SOLDER~1\AppData\Local\Temp\ccEQi33f.s:21722  .debug_str:0000000000006c03 .LASF2579
C:\Users\SOLDER~1\AppData\Local\Temp\ccEQi33f.s:23098  .debug_str:000000000000c609 .LASF2580
C:\Users\SOLDER~1\AppData\Local\Temp\ccEQi33f.s:31402  .debug_str:000000000002e245 .LASF2581
C:\Users\SOLDER~1\AppData\Local\Temp\ccEQi33f.s:27616  .debug_str:000000000001eb90 .LASF2582
C:\Users\SOLDER~1\AppData\Local\Temp\ccEQi33f.s:29450  .debug_str:0000000000026387 .LASF2583
C:\Users\SOLDER~1\AppData\Local\Temp\ccEQi33f.s:28228  .debug_str:0000000000021377 .LASF2584
C:\Users\SOLDER~1\AppData\Local\Temp\ccEQi33f.s:27576  .debug_str:000000000001e917 .LASF2585
C:\Users\SOLDER~1\AppData\Local\Temp\ccEQi33f.s:23738  .debug_str:000000000000eff0 .LASF2586
C:\Users\SOLDER~1\AppData\Local\Temp\ccEQi33f.s:25708  .debug_str:0000000000016fee .LASF2587
C:\Users\SOLDER~1\AppData\Local\Temp\ccEQi33f.s:20360  .debug_str:000000000000148a .LASF2588
C:\Users\SOLDER~1\AppData\Local\Temp\ccEQi33f.s:23772  .debug_str:000000000000f222 .LASF2589
C:\Users\SOLDER~1\AppData\Local\Temp\ccEQi33f.s:30142  .debug_str:00000000000290b2 .LASF2590
C:\Users\SOLDER~1\AppData\Local\Temp\ccEQi33f.s:26558  .debug_str:000000000001a6ac .LASF2591
C:\Users\SOLDER~1\AppData\Local\Temp\ccEQi33f.s:21286  .debug_str:0000000000004fa7 .LASF2592
C:\Users\SOLDER~1\AppData\Local\Temp\ccEQi33f.s:27816  .debug_str:000000000001f8ce .LASF2593
C:\Users\SOLDER~1\AppData\Local\Temp\ccEQi33f.s:27514  .debug_str:000000000001e4d9 .LASF2594
C:\Users\SOLDER~1\AppData\Local\Temp\ccEQi33f.s:26122  .debug_str:0000000000018ad5 .LASF2595
C:\Users\SOLDER~1\AppData\Local\Temp\ccEQi33f.s:20470  .debug_str:0000000000001b92 .LASF2596
C:\Users\SOLDER~1\AppData\Local\Temp\ccEQi33f.s:24440  .debug_str:0000000000011d62 .LASF2597
C:\Users\SOLDER~1\AppData\Local\Temp\ccEQi33f.s:30996  .debug_str:000000000002c814 .LASF2598
C:\Users\SOLDER~1\AppData\Local\Temp\ccEQi33f.s:22802  .debug_str:000000000000b2b0 .LASF2599
C:\Users\SOLDER~1\AppData\Local\Temp\ccEQi33f.s:27138  .debug_str:000000000001cc8c .LASF2600
C:\Users\SOLDER~1\AppData\Local\Temp\ccEQi33f.s:21064  .debug_str:00000000000041f3 .LASF2601
C:\Users\SOLDER~1\AppData\Local\Temp\ccEQi33f.s:23292  .debug_str:000000000000d319 .LASF2602
C:\Users\SOLDER~1\AppData\Local\Temp\ccEQi33f.s:31010  .debug_str:000000000002c8fe .LASF2603
C:\Users\SOLDER~1\AppData\Local\Temp\ccEQi33f.s:26604  .debug_str:000000000001a98f .LASF2604
C:\Users\SOLDER~1\AppData\Local\Temp\ccEQi33f.s:25840  .debug_str:000000000001788a .LASF2605
C:\Users\SOLDER~1\AppData\Local\Temp\ccEQi33f.s:21940  .debug_str:0000000000007a10 .LASF2606
C:\Users\SOLDER~1\AppData\Local\Temp\ccEQi33f.s:27620  .debug_str:000000000001ebdb .LASF2607
C:\Users\SOLDER~1\AppData\Local\Temp\ccEQi33f.s:31448  .debug_str:000000000002e531 .LASF2608
C:\Users\SOLDER~1\AppData\Local\Temp\ccEQi33f.s:26024  .debug_str:000000000001846e .LASF2609
C:\Users\SOLDER~1\AppData\Local\Temp\ccEQi33f.s:25052  .debug_str:000000000001464f .LASF2610
C:\Users\SOLDER~1\AppData\Local\Temp\ccEQi33f.s:24344  .debug_str:0000000000011743 .LASF2611
C:\Users\SOLDER~1\AppData\Local\Temp\ccEQi33f.s:30278  .debug_str:0000000000029932 .LASF2612
C:\Users\SOLDER~1\AppData\Local\Temp\ccEQi33f.s:23868  .debug_str:000000000000f8a7 .LASF2613
C:\Users\SOLDER~1\AppData\Local\Temp\ccEQi33f.s:21068  .debug_str:0000000000004228 .LASF2614
C:\Users\SOLDER~1\AppData\Local\Temp\ccEQi33f.s:20140  .debug_str:0000000000000570 .LASF2615
C:\Users\SOLDER~1\AppData\Local\Temp\ccEQi33f.s:27018  .debug_str:000000000001c44d .LASF2616
C:\Users\SOLDER~1\AppData\Local\Temp\ccEQi33f.s:29752  .debug_str:0000000000027765 .LASF2617
C:\Users\SOLDER~1\AppData\Local\Temp\ccEQi33f.s:21596  .debug_str:00000000000063b7 .LASF2618
C:\Users\SOLDER~1\AppData\Local\Temp\ccEQi33f.s:27864  .debug_str:000000000001fbe3 .LASF2619
C:\Users\SOLDER~1\AppData\Local\Temp\ccEQi33f.s:27922  .debug_str:000000000001ff85 .LASF2620
C:\Users\SOLDER~1\AppData\Local\Temp\ccEQi33f.s:26048  .debug_str:000000000001860f .LASF2621
C:\Users\SOLDER~1\AppData\Local\Temp\ccEQi33f.s:27874  .debug_str:000000000001fc7d .LASF2622
C:\Users\SOLDER~1\AppData\Local\Temp\ccEQi33f.s:23224  .debug_str:000000000000ceb7 .LASF2623
C:\Users\SOLDER~1\AppData\Local\Temp\ccEQi33f.s:28570  .debug_str:0000000000022941 .LASF2624
C:\Users\SOLDER~1\AppData\Local\Temp\ccEQi33f.s:22176  .debug_str:0000000000008996 .LASF2625
C:\Users\SOLDER~1\AppData\Local\Temp\ccEQi33f.s:24112  .debug_str:000000000001088b .LASF2626
C:\Users\SOLDER~1\AppData\Local\Temp\ccEQi33f.s:20294  .debug_str:0000000000001036 .LASF2627
C:\Users\SOLDER~1\AppData\Local\Temp\ccEQi33f.s:20704  .debug_str:0000000000002b02 .LASF2628
C:\Users\SOLDER~1\AppData\Local\Temp\ccEQi33f.s:29908  .debug_str:000000000002818f .LASF2629
C:\Users\SOLDER~1\AppData\Local\Temp\ccEQi33f.s:30404  .debug_str:000000000002a1f3 .LASF2630
C:\Users\SOLDER~1\AppData\Local\Temp\ccEQi33f.s:28100  .debug_str:0000000000020b02 .LASF2631
C:\Users\SOLDER~1\AppData\Local\Temp\ccEQi33f.s:21552  .debug_str:00000000000060df .LASF2632
C:\Users\SOLDER~1\AppData\Local\Temp\ccEQi33f.s:31574  .debug_str:000000000002ed3f .LASF2633
C:\Users\SOLDER~1\AppData\Local\Temp\ccEQi33f.s:24260  .debug_str:00000000000111cf .LASF2634
C:\Users\SOLDER~1\AppData\Local\Temp\ccEQi33f.s:23654  .debug_str:000000000000eaa7 .LASF2635
GAS LISTING C:\Users\SOLDER~1\AppData\Local\Temp\ccEQi33f.s 			page 89


C:\Users\SOLDER~1\AppData\Local\Temp\ccEQi33f.s:28714  .debug_str:00000000000232cf .LASF2636
C:\Users\SOLDER~1\AppData\Local\Temp\ccEQi33f.s:29840  .debug_str:0000000000027d2d .LASF2637
C:\Users\SOLDER~1\AppData\Local\Temp\ccEQi33f.s:27800  .debug_str:000000000001f7df .LASF2638
C:\Users\SOLDER~1\AppData\Local\Temp\ccEQi33f.s:20392  .debug_str:000000000000169c .LASF2639
C:\Users\SOLDER~1\AppData\Local\Temp\ccEQi33f.s:25798  .debug_str:00000000000175f2 .LASF2640
C:\Users\SOLDER~1\AppData\Local\Temp\ccEQi33f.s:30302  .debug_str:0000000000029ad6 .LASF2641
C:\Users\SOLDER~1\AppData\Local\Temp\ccEQi33f.s:21824  .debug_str:00000000000072ef .LASF2642
C:\Users\SOLDER~1\AppData\Local\Temp\ccEQi33f.s:28538  .debug_str:0000000000022715 .LASF2643
C:\Users\SOLDER~1\AppData\Local\Temp\ccEQi33f.s:23306  .debug_str:000000000000d418 .LASF2644
C:\Users\SOLDER~1\AppData\Local\Temp\ccEQi33f.s:26932  .debug_str:000000000001be89 .LASF2645
C:\Users\SOLDER~1\AppData\Local\Temp\ccEQi33f.s:25264  .debug_str:0000000000015444 .LASF2646
C:\Users\SOLDER~1\AppData\Local\Temp\ccEQi33f.s:25300  .debug_str:00000000000156a2 .LASF2647
C:\Users\SOLDER~1\AppData\Local\Temp\ccEQi33f.s:28138  .debug_str:0000000000020d7a .LASF2648
C:\Users\SOLDER~1\AppData\Local\Temp\ccEQi33f.s:23542  .debug_str:000000000000e3b2 .LASF2649
C:\Users\SOLDER~1\AppData\Local\Temp\ccEQi33f.s:29782  .debug_str:0000000000027926 .LASF2650
C:\Users\SOLDER~1\AppData\Local\Temp\ccEQi33f.s:21930  .debug_str:000000000000798b .LASF2651
C:\Users\SOLDER~1\AppData\Local\Temp\ccEQi33f.s:26992  .debug_str:000000000001c28e .LASF2652
C:\Users\SOLDER~1\AppData\Local\Temp\ccEQi33f.s:22532  .debug_str:000000000000a11c .LASF2653
C:\Users\SOLDER~1\AppData\Local\Temp\ccEQi33f.s:20672  .debug_str:00000000000028fe .LASF2654
C:\Users\SOLDER~1\AppData\Local\Temp\ccEQi33f.s:20652  .debug_str:000000000000278d .LASF2655
C:\Users\SOLDER~1\AppData\Local\Temp\ccEQi33f.s:26718  .debug_str:000000000001b0d0 .LASF2656
C:\Users\SOLDER~1\AppData\Local\Temp\ccEQi33f.s:28638  .debug_str:0000000000022dcf .LASF2657
C:\Users\SOLDER~1\AppData\Local\Temp\ccEQi33f.s:21392  .debug_str:000000000000561d .LASF2658
C:\Users\SOLDER~1\AppData\Local\Temp\ccEQi33f.s:28382  .debug_str:0000000000021d4a .LASF2659
C:\Users\SOLDER~1\AppData\Local\Temp\ccEQi33f.s:27502  .debug_str:000000000001e40f .LASF2660
C:\Users\SOLDER~1\AppData\Local\Temp\ccEQi33f.s:26522  .debug_str:000000000001a446 .LASF2661
C:\Users\SOLDER~1\AppData\Local\Temp\ccEQi33f.s:27468  .debug_str:000000000001e204 .LASF2662
C:\Users\SOLDER~1\AppData\Local\Temp\ccEQi33f.s:24598  .debug_str:0000000000012748 .LASF2663
C:\Users\SOLDER~1\AppData\Local\Temp\ccEQi33f.s:28172  .debug_str:0000000000020fa7 .LASF2664
C:\Users\SOLDER~1\AppData\Local\Temp\ccEQi33f.s:22706  .debug_str:000000000000ac83 .LASF2665
C:\Users\SOLDER~1\AppData\Local\Temp\ccEQi33f.s:23680  .debug_str:000000000000ec50 .LASF2666
C:\Users\SOLDER~1\AppData\Local\Temp\ccEQi33f.s:20814  .debug_str:0000000000003203 .LASF2667
C:\Users\SOLDER~1\AppData\Local\Temp\ccEQi33f.s:20314  .debug_str:0000000000001187 .LASF2668
C:\Users\SOLDER~1\AppData\Local\Temp\ccEQi33f.s:21130  .debug_str:00000000000045fb .LASF2669
C:\Users\SOLDER~1\AppData\Local\Temp\ccEQi33f.s:30076  .debug_str:0000000000028c61 .LASF2670
C:\Users\SOLDER~1\AppData\Local\Temp\ccEQi33f.s:28528  .debug_str:000000000002267f .LASF2671
C:\Users\SOLDER~1\AppData\Local\Temp\ccEQi33f.s:21228  .debug_str:0000000000004c4f .LASF2672
C:\Users\SOLDER~1\AppData\Local\Temp\ccEQi33f.s:29212  .debug_str:0000000000025334 .LASF2673
C:\Users\SOLDER~1\AppData\Local\Temp\ccEQi33f.s:28254  .debug_str:0000000000021526 .LASF2674
C:\Users\SOLDER~1\AppData\Local\Temp\ccEQi33f.s:27600  .debug_str:000000000001eaa6 .LASF2675
C:\Users\SOLDER~1\AppData\Local\Temp\ccEQi33f.s:26364  .debug_str:0000000000019a42 .LASF2676
C:\Users\SOLDER~1\AppData\Local\Temp\ccEQi33f.s:25998  .debug_str:00000000000182e0 .LASF2677
C:\Users\SOLDER~1\AppData\Local\Temp\ccEQi33f.s:25418  .debug_str:0000000000015db4 .LASF2678
C:\Users\SOLDER~1\AppData\Local\Temp\ccEQi33f.s:24322  .debug_str:00000000000115ef .LASF2679
C:\Users\SOLDER~1\AppData\Local\Temp\ccEQi33f.s:21562  .debug_str:000000000000618a .LASF2680
C:\Users\SOLDER~1\AppData\Local\Temp\ccEQi33f.s:22578  .debug_str:000000000000a41b .LASF2681
C:\Users\SOLDER~1\AppData\Local\Temp\ccEQi33f.s:31076  .debug_str:000000000002cd07 .LASF2682
C:\Users\SOLDER~1\AppData\Local\Temp\ccEQi33f.s:20962  .debug_str:0000000000003b8c .LASF2683
C:\Users\SOLDER~1\AppData\Local\Temp\ccEQi33f.s:20998  .debug_str:0000000000003dbe .LASF2684
C:\Users\SOLDER~1\AppData\Local\Temp\ccEQi33f.s:27538  .debug_str:000000000001e6a8 .LASF2685
C:\Users\SOLDER~1\AppData\Local\Temp\ccEQi33f.s:27814  .debug_str:000000000001f8a7 .LASF2686
C:\Users\SOLDER~1\AppData\Local\Temp\ccEQi33f.s:29108  .debug_str:0000000000024c98 .LASF2687
C:\Users\SOLDER~1\AppData\Local\Temp\ccEQi33f.s:25876  .debug_str:0000000000017ad5 .LASF2688
C:\Users\SOLDER~1\AppData\Local\Temp\ccEQi33f.s:27492  .debug_str:000000000001e386 .LASF2689
C:\Users\SOLDER~1\AppData\Local\Temp\ccEQi33f.s:27394  .debug_str:000000000001dd3d .LASF2690
C:\Users\SOLDER~1\AppData\Local\Temp\ccEQi33f.s:25902  .debug_str:0000000000017c8e .LASF2691
C:\Users\SOLDER~1\AppData\Local\Temp\ccEQi33f.s:28626  .debug_str:0000000000022d0f .LASF2692
GAS LISTING C:\Users\SOLDER~1\AppData\Local\Temp\ccEQi33f.s 			page 90


C:\Users\SOLDER~1\AppData\Local\Temp\ccEQi33f.s:21364  .debug_str:000000000000546c .LASF2693
C:\Users\SOLDER~1\AppData\Local\Temp\ccEQi33f.s:20564  .debug_str:00000000000021bb .LASF2694
C:\Users\SOLDER~1\AppData\Local\Temp\ccEQi33f.s:31038  .debug_str:000000000002cabe .LASF2695
C:\Users\SOLDER~1\AppData\Local\Temp\ccEQi33f.s:24808  .debug_str:000000000001353d .LASF2696
C:\Users\SOLDER~1\AppData\Local\Temp\ccEQi33f.s:24726  .debug_str:0000000000012fe1 .LASF2697
C:\Users\SOLDER~1\AppData\Local\Temp\ccEQi33f.s:21166  .debug_str:0000000000004864 .LASF2698
C:\Users\SOLDER~1\AppData\Local\Temp\ccEQi33f.s:27216  .debug_str:000000000001d1e1 .LASF2699
C:\Users\SOLDER~1\AppData\Local\Temp\ccEQi33f.s:27490  .debug_str:000000000001e360 .LASF2700
C:\Users\SOLDER~1\AppData\Local\Temp\ccEQi33f.s:31594  .debug_str:000000000002ee83 .LASF2701
C:\Users\SOLDER~1\AppData\Local\Temp\ccEQi33f.s:27452  .debug_str:000000000001e108 .LASF2702
C:\Users\SOLDER~1\AppData\Local\Temp\ccEQi33f.s:23414  .debug_str:000000000000dad5 .LASF2703
C:\Users\SOLDER~1\AppData\Local\Temp\ccEQi33f.s:28066  .debug_str:00000000000208ab .LASF2704
C:\Users\SOLDER~1\AppData\Local\Temp\ccEQi33f.s:21526  .debug_str:0000000000005ef1 .LASF2705
C:\Users\SOLDER~1\AppData\Local\Temp\ccEQi33f.s:23562  .debug_str:000000000000e4cd .LASF2706
C:\Users\SOLDER~1\AppData\Local\Temp\ccEQi33f.s:31192  .debug_str:000000000002d4e8 .LASF2707
C:\Users\SOLDER~1\AppData\Local\Temp\ccEQi33f.s:25072  .debug_str:0000000000014775 .LASF2708
C:\Users\SOLDER~1\AppData\Local\Temp\ccEQi33f.s:29340  .debug_str:0000000000025bd1 .LASF2709
C:\Users\SOLDER~1\AppData\Local\Temp\ccEQi33f.s:29974  .debug_str:00000000000285a3 .LASF2710
C:\Users\SOLDER~1\AppData\Local\Temp\ccEQi33f.s:27464  .debug_str:000000000001e1c1 .LASF2711
C:\Users\SOLDER~1\AppData\Local\Temp\ccEQi33f.s:27862  .debug_str:000000000001fbbd .LASF2712
C:\Users\SOLDER~1\AppData\Local\Temp\ccEQi33f.s:25862  .debug_str:00000000000179f8 .LASF2713
C:\Users\SOLDER~1\AppData\Local\Temp\ccEQi33f.s:28194  .debug_str:000000000002114d .LASF2714
C:\Users\SOLDER~1\AppData\Local\Temp\ccEQi33f.s:24196  .debug_str:0000000000010dc3 .LASF2715
C:\Users\SOLDER~1\AppData\Local\Temp\ccEQi33f.s:21034  .debug_str:0000000000003fe9 .LASF2716
C:\Users\SOLDER~1\AppData\Local\Temp\ccEQi33f.s:22444  .debug_str:0000000000009b37 .LASF2717
C:\Users\SOLDER~1\AppData\Local\Temp\ccEQi33f.s:20222  .debug_str:0000000000000ba8 .LASF2718
C:\Users\SOLDER~1\AppData\Local\Temp\ccEQi33f.s:20820  .debug_str:0000000000003250 .LASF2719
C:\Users\SOLDER~1\AppData\Local\Temp\ccEQi33f.s:27926  .debug_str:000000000001ffbf .LASF2720
C:\Users\SOLDER~1\AppData\Local\Temp\ccEQi33f.s:25978  .debug_str:00000000000181a2 .LASF2721
C:\Users\SOLDER~1\AppData\Local\Temp\ccEQi33f.s:28722  .debug_str:0000000000023368 .LASF2722
C:\Users\SOLDER~1\AppData\Local\Temp\ccEQi33f.s:28962  .debug_str:0000000000024302 .LASF2723
C:\Users\SOLDER~1\AppData\Local\Temp\ccEQi33f.s:27266  .debug_str:000000000001d535 .LASF2724
C:\Users\SOLDER~1\AppData\Local\Temp\ccEQi33f.s:27346  .debug_str:000000000001da05 .LASF2725
C:\Users\SOLDER~1\AppData\Local\Temp\ccEQi33f.s:22612  .debug_str:000000000000a676 .LASF2726
C:\Users\SOLDER~1\AppData\Local\Temp\ccEQi33f.s:25754  .debug_str:00000000000172e6 .LASF2727
C:\Users\SOLDER~1\AppData\Local\Temp\ccEQi33f.s:20550  .debug_str:00000000000020bf .LASF2728
C:\Users\SOLDER~1\AppData\Local\Temp\ccEQi33f.s:24004  .debug_str:0000000000010193 .LASF2729
C:\Users\SOLDER~1\AppData\Local\Temp\ccEQi33f.s:22212  .debug_str:0000000000008bca .LASF2730
C:\Users\SOLDER~1\AppData\Local\Temp\ccEQi33f.s:22354  .debug_str:0000000000009583 .LASF2731
C:\Users\SOLDER~1\AppData\Local\Temp\ccEQi33f.s:30966  .debug_str:000000000002c62f .LASF2732
C:\Users\SOLDER~1\AppData\Local\Temp\ccEQi33f.s:31100  .debug_str:000000000002ced1 .LASF2733
C:\Users\SOLDER~1\AppData\Local\Temp\ccEQi33f.s:29318  .debug_str:0000000000025a54 .LASF2734
C:\Users\SOLDER~1\AppData\Local\Temp\ccEQi33f.s:29158  .debug_str:0000000000024fc8 .LASF2735
C:\Users\SOLDER~1\AppData\Local\Temp\ccEQi33f.s:23824  .debug_str:000000000000f579 .LASF2736
C:\Users\SOLDER~1\AppData\Local\Temp\ccEQi33f.s:27276  .debug_str:000000000001d5d3 .LASF2737
C:\Users\SOLDER~1\AppData\Local\Temp\ccEQi33f.s:29938  .debug_str:000000000002836f .LASF2738
C:\Users\SOLDER~1\AppData\Local\Temp\ccEQi33f.s:25404  .debug_str:0000000000015ce4 .LASF2739
C:\Users\SOLDER~1\AppData\Local\Temp\ccEQi33f.s:24722  .debug_str:0000000000012f8f .LASF2740
C:\Users\SOLDER~1\AppData\Local\Temp\ccEQi33f.s:22108  .debug_str:000000000000853b .LASF2741
C:\Users\SOLDER~1\AppData\Local\Temp\ccEQi33f.s:20956  .debug_str:0000000000003b1a .LASF2742
C:\Users\SOLDER~1\AppData\Local\Temp\ccEQi33f.s:26248  .debug_str:00000000000192f6 .LASF2743
C:\Users\SOLDER~1\AppData\Local\Temp\ccEQi33f.s:25320  .debug_str:0000000000015787 .LASF2744
C:\Users\SOLDER~1\AppData\Local\Temp\ccEQi33f.s:31254  .debug_str:000000000002d8f2 .LASF2745
C:\Users\SOLDER~1\AppData\Local\Temp\ccEQi33f.s:20812  .debug_str:00000000000031d8 .LASF2746
C:\Users\SOLDER~1\AppData\Local\Temp\ccEQi33f.s:29312  .debug_str:00000000000259f7 .LASF2747
C:\Users\SOLDER~1\AppData\Local\Temp\ccEQi33f.s:28938  .debug_str:000000000002416d .LASF2748
C:\Users\SOLDER~1\AppData\Local\Temp\ccEQi33f.s:27438  .debug_str:000000000001e018 .LASF2749
GAS LISTING C:\Users\SOLDER~1\AppData\Local\Temp\ccEQi33f.s 			page 91


C:\Users\SOLDER~1\AppData\Local\Temp\ccEQi33f.s:27208  .debug_str:000000000001d155 .LASF2750
C:\Users\SOLDER~1\AppData\Local\Temp\ccEQi33f.s:25656  .debug_str:0000000000016c92 .LASF2751
C:\Users\SOLDER~1\AppData\Local\Temp\ccEQi33f.s:29882  .debug_str:0000000000027fef .LASF2752
C:\Users\SOLDER~1\AppData\Local\Temp\ccEQi33f.s:21158  .debug_str:00000000000047e2 .LASF2753
C:\Users\SOLDER~1\AppData\Local\Temp\ccEQi33f.s:26902  .debug_str:000000000001bc78 .LASF2754
C:\Users\SOLDER~1\AppData\Local\Temp\ccEQi33f.s:31090  .debug_str:000000000002ce1a .LASF2755
C:\Users\SOLDER~1\AppData\Local\Temp\ccEQi33f.s:28190  .debug_str:00000000000210ff .LASF2756
C:\Users\SOLDER~1\AppData\Local\Temp\ccEQi33f.s:29414  .debug_str:00000000000260f6 .LASF2757
C:\Users\SOLDER~1\AppData\Local\Temp\ccEQi33f.s:30448  .debug_str:000000000002a4bb .LASF2758
C:\Users\SOLDER~1\AppData\Local\Temp\ccEQi33f.s:27720  .debug_str:000000000001f297 .LASF2759
C:\Users\SOLDER~1\AppData\Local\Temp\ccEQi33f.s:26622  .debug_str:000000000001aabc .LASF2760
C:\Users\SOLDER~1\AppData\Local\Temp\ccEQi33f.s:26108  .debug_str:00000000000189f7 .LASF2761
C:\Users\SOLDER~1\AppData\Local\Temp\ccEQi33f.s:24550  .debug_str:000000000001243d .LASF2762
C:\Users\SOLDER~1\AppData\Local\Temp\ccEQi33f.s:24428  .debug_str:0000000000011cb3 .LASF2763
C:\Users\SOLDER~1\AppData\Local\Temp\ccEQi33f.s:26094  .debug_str:00000000000188df .LASF2764
C:\Users\SOLDER~1\AppData\Local\Temp\ccEQi33f.s:22702  .debug_str:000000000000ac44 .LASF2765
C:\Users\SOLDER~1\AppData\Local\Temp\ccEQi33f.s:21310  .debug_str:0000000000005106 .LASF2766
C:\Users\SOLDER~1\AppData\Local\Temp\ccEQi33f.s:23442  .debug_str:000000000000dcc1 .LASF2767
C:\Users\SOLDER~1\AppData\Local\Temp\ccEQi33f.s:30898  .debug_str:000000000002c211 .LASF2768
C:\Users\SOLDER~1\AppData\Local\Temp\ccEQi33f.s:27646  .debug_str:000000000001ed93 .LASF2769
C:\Users\SOLDER~1\AppData\Local\Temp\ccEQi33f.s:20900  .debug_str:0000000000003760 .LASF2770
C:\Users\SOLDER~1\AppData\Local\Temp\ccEQi33f.s:21472  .debug_str:0000000000005bbf .LASF2771
C:\Users\SOLDER~1\AppData\Local\Temp\ccEQi33f.s:31078  .debug_str:000000000002cd2e .LASF2772
C:\Users\SOLDER~1\AppData\Local\Temp\ccEQi33f.s:28012  .debug_str:000000000002055e .LASF2773
C:\Users\SOLDER~1\AppData\Local\Temp\ccEQi33f.s:25114  .debug_str:0000000000014a7f .LASF2774
C:\Users\SOLDER~1\AppData\Local\Temp\ccEQi33f.s:21306  .debug_str:00000000000050d1 .LASF2775
C:\Users\SOLDER~1\AppData\Local\Temp\ccEQi33f.s:31058  .debug_str:000000000002cbe3 .LASF2776
C:\Users\SOLDER~1\AppData\Local\Temp\ccEQi33f.s:24318  .debug_str:00000000000115ba .LASF2777
C:\Users\SOLDER~1\AppData\Local\Temp\ccEQi33f.s:25648  .debug_str:0000000000016c18 .LASF2778
C:\Users\SOLDER~1\AppData\Local\Temp\ccEQi33f.s:22414  .debug_str:0000000000009962 .LASF2779
C:\Users\SOLDER~1\AppData\Local\Temp\ccEQi33f.s:22848  .debug_str:000000000000b5cb .LASF2780
C:\Users\SOLDER~1\AppData\Local\Temp\ccEQi33f.s:20516  .debug_str:0000000000001ea2 .LASF2781
C:\Users\SOLDER~1\AppData\Local\Temp\ccEQi33f.s:20358  .debug_str:0000000000001463 .LASF2782
C:\Users\SOLDER~1\AppData\Local\Temp\ccEQi33f.s:30168  .debug_str:000000000002925c .LASF2783
C:\Users\SOLDER~1\AppData\Local\Temp\ccEQi33f.s:21050  .debug_str:00000000000040fa .LASF2784
C:\Users\SOLDER~1\AppData\Local\Temp\ccEQi33f.s:21080  .debug_str:00000000000042d2 .LASF2785
C:\Users\SOLDER~1\AppData\Local\Temp\ccEQi33f.s:28098  .debug_str:0000000000020adb .LASF2786
C:\Users\SOLDER~1\AppData\Local\Temp\ccEQi33f.s:26396  .debug_str:0000000000019c65 .LASF2787
C:\Users\SOLDER~1\AppData\Local\Temp\ccEQi33f.s:24724  .debug_str:0000000000012fba .LASF2788
C:\Users\SOLDER~1\AppData\Local\Temp\ccEQi33f.s:24466  .debug_str:0000000000011f0f .LASF2789
C:\Users\SOLDER~1\AppData\Local\Temp\ccEQi33f.s:22874  .debug_str:000000000000b73f .LASF2790
C:\Users\SOLDER~1\AppData\Local\Temp\ccEQi33f.s:25614  .debug_str:0000000000016a3b .LASF2791
C:\Users\SOLDER~1\AppData\Local\Temp\ccEQi33f.s:25600  .debug_str:0000000000016945 .LASF2792
C:\Users\SOLDER~1\AppData\Local\Temp\ccEQi33f.s:21988  .debug_str:0000000000007d69 .LASF2793
C:\Users\SOLDER~1\AppData\Local\Temp\ccEQi33f.s:28196  .debug_str:0000000000021174 .LASF2794
C:\Users\SOLDER~1\AppData\Local\Temp\ccEQi33f.s:27472  .debug_str:000000000001e24d .LASF2795
C:\Users\SOLDER~1\AppData\Local\Temp\ccEQi33f.s:24868  .debug_str:0000000000013955 .LASF2796
C:\Users\SOLDER~1\AppData\Local\Temp\ccEQi33f.s:21302  .debug_str:0000000000005091 .LASF2797
C:\Users\SOLDER~1\AppData\Local\Temp\ccEQi33f.s:20144  .debug_str:00000000000005ae .LASF2798
C:\Users\SOLDER~1\AppData\Local\Temp\ccEQi33f.s:28500  .debug_str:000000000002248f .LASF2799
C:\Users\SOLDER~1\AppData\Local\Temp\ccEQi33f.s:27838  .debug_str:000000000001fa2f .LASF2800
C:\Users\SOLDER~1\AppData\Local\Temp\ccEQi33f.s:26896  .debug_str:000000000001bc19 .LASF2801
C:\Users\SOLDER~1\AppData\Local\Temp\ccEQi33f.s:25828  .debug_str:00000000000177b3 .LASF2802
C:\Users\SOLDER~1\AppData\Local\Temp\ccEQi33f.s:25256  .debug_str:00000000000153ba .LASF2803
C:\Users\SOLDER~1\AppData\Local\Temp\ccEQi33f.s:27272  .debug_str:000000000001d590 .LASF2804
C:\Users\SOLDER~1\AppData\Local\Temp\ccEQi33f.s:23594  .debug_str:000000000000e6e1 .LASF2805
C:\Users\SOLDER~1\AppData\Local\Temp\ccEQi33f.s:22520  .debug_str:000000000000a030 .LASF2806
GAS LISTING C:\Users\SOLDER~1\AppData\Local\Temp\ccEQi33f.s 			page 92


C:\Users\SOLDER~1\AppData\Local\Temp\ccEQi33f.s:21886  .debug_str:00000000000076ce .LASF2807
C:\Users\SOLDER~1\AppData\Local\Temp\ccEQi33f.s:20556  .debug_str:0000000000002133 .LASF2808
C:\Users\SOLDER~1\AppData\Local\Temp\ccEQi33f.s:20264  .debug_str:0000000000000e6f .LASF2809
C:\Users\SOLDER~1\AppData\Local\Temp\ccEQi33f.s:22128  .debug_str:000000000000867f .LASF2810
C:\Users\SOLDER~1\AppData\Local\Temp\ccEQi33f.s:30150  .debug_str:0000000000029130 .LASF2811
C:\Users\SOLDER~1\AppData\Local\Temp\ccEQi33f.s:30970  .debug_str:000000000002c67b .LASF2812
C:\Users\SOLDER~1\AppData\Local\Temp\ccEQi33f.s:20522  .debug_str:0000000000001f08 .LASF2813
C:\Users\SOLDER~1\AppData\Local\Temp\ccEQi33f.s:27134  .debug_str:000000000001cc3f .LASF2814
C:\Users\SOLDER~1\AppData\Local\Temp\ccEQi33f.s:28034  .debug_str:00000000000206c8 .LASF2815
C:\Users\SOLDER~1\AppData\Local\Temp\ccEQi33f.s:20454  .debug_str:0000000000001a74 .LASF2816
C:\Users\SOLDER~1\AppData\Local\Temp\ccEQi33f.s:27702  .debug_str:000000000001f159 .LASF2817
C:\Users\SOLDER~1\AppData\Local\Temp\ccEQi33f.s:25728  .debug_str:000000000001713b .LASF2818
C:\Users\SOLDER~1\AppData\Local\Temp\ccEQi33f.s:27966  .debug_str:000000000002023e .LASF2819
C:\Users\SOLDER~1\AppData\Local\Temp\ccEQi33f.s:21800  .debug_str:000000000000715a .LASF2820
C:\Users\SOLDER~1\AppData\Local\Temp\ccEQi33f.s:28356  .debug_str:0000000000021ba2 .LASF2821
C:\Users\SOLDER~1\AppData\Local\Temp\ccEQi33f.s:22000  .debug_str:0000000000007e35 .LASF2822
C:\Users\SOLDER~1\AppData\Local\Temp\ccEQi33f.s:20890  .debug_str:00000000000036d1 .LASF2823
C:\Users\SOLDER~1\AppData\Local\Temp\ccEQi33f.s:26188  .debug_str:0000000000018f5b .LASF2824
C:\Users\SOLDER~1\AppData\Local\Temp\ccEQi33f.s:28974  .debug_str:00000000000243d3 .LASF2825
C:\Users\SOLDER~1\AppData\Local\Temp\ccEQi33f.s:24392  .debug_str:0000000000011a4e .LASF2826
C:\Users\SOLDER~1\AppData\Local\Temp\ccEQi33f.s:21182  .debug_str:000000000000496b .LASF2827
C:\Users\SOLDER~1\AppData\Local\Temp\ccEQi33f.s:28542  .debug_str:000000000002274b .LASF2828
C:\Users\SOLDER~1\AppData\Local\Temp\ccEQi33f.s:25312  .debug_str:0000000000015734 .LASF2829
C:\Users\SOLDER~1\AppData\Local\Temp\ccEQi33f.s:30070  .debug_str:0000000000028bf8 .LASF2830
C:\Users\SOLDER~1\AppData\Local\Temp\ccEQi33f.s:27484  .debug_str:000000000001e2fa .LASF2831
C:\Users\SOLDER~1\AppData\Local\Temp\ccEQi33f.s:31614  .debug_str:000000000002efc7 .LASF2832
C:\Users\SOLDER~1\AppData\Local\Temp\ccEQi33f.s:26372  .debug_str:0000000000019ad7 .LASF2833
C:\Users\SOLDER~1\AppData\Local\Temp\ccEQi33f.s:24314  .debug_str:0000000000011573 .LASF2834
C:\Users\SOLDER~1\AppData\Local\Temp\ccEQi33f.s:25592  .debug_str:00000000000168b8 .LASF2835
C:\Users\SOLDER~1\AppData\Local\Temp\ccEQi33f.s:21548  .debug_str:0000000000006077 .LASF2836
C:\Users\SOLDER~1\AppData\Local\Temp\ccEQi33f.s:27062  .debug_str:000000000001c756 .LASF2837
C:\Users\SOLDER~1\AppData\Local\Temp\ccEQi33f.s:24256  .debug_str:0000000000011189 .LASF2838
C:\Users\SOLDER~1\AppData\Local\Temp\ccEQi33f.s:21142  .debug_str:00000000000046d0 .LASF2839
C:\Users\SOLDER~1\AppData\Local\Temp\ccEQi33f.s:30288  .debug_str:00000000000299f5 .LASF2840
C:\Users\SOLDER~1\AppData\Local\Temp\ccEQi33f.s:29746  .debug_str:00000000000276f5 .LASF2841
C:\Users\SOLDER~1\AppData\Local\Temp\ccEQi33f.s:27092  .debug_str:000000000001c964 .LASF2842
C:\Users\SOLDER~1\AppData\Local\Temp\ccEQi33f.s:27882  .debug_str:000000000001fcfc .LASF2843
C:\Users\SOLDER~1\AppData\Local\Temp\ccEQi33f.s:29670  .debug_str:00000000000271f7 .LASF2844
C:\Users\SOLDER~1\AppData\Local\Temp\ccEQi33f.s:29996  .debug_str:0000000000028753 .LASF2845
C:\Users\SOLDER~1\AppData\Local\Temp\ccEQi33f.s:23486  .debug_str:000000000000dfa3 .LASF2846
C:\Users\SOLDER~1\AppData\Local\Temp\ccEQi33f.s:26966  .debug_str:000000000001c0d1 .LASF2847
C:\Users\SOLDER~1\AppData\Local\Temp\ccEQi33f.s:31576  .debug_str:000000000002ed59 .LASF2848
C:\Users\SOLDER~1\AppData\Local\Temp\ccEQi33f.s:27020  .debug_str:000000000001c473 .LASF2849
C:\Users\SOLDER~1\AppData\Local\Temp\ccEQi33f.s:24916  .debug_str:0000000000013ccd .LASF2850
C:\Users\SOLDER~1\AppData\Local\Temp\ccEQi33f.s:31136  .debug_str:000000000002d179 .LASF2851
C:\Users\SOLDER~1\AppData\Local\Temp\ccEQi33f.s:23312  .debug_str:000000000000d480 .LASF2852
C:\Users\SOLDER~1\AppData\Local\Temp\ccEQi33f.s:22930  .debug_str:000000000000baac .LASF2853
C:\Users\SOLDER~1\AppData\Local\Temp\ccEQi33f.s:30428  .debug_str:000000000002a384 .LASF2854
C:\Users\SOLDER~1\AppData\Local\Temp\ccEQi33f.s:26656  .debug_str:000000000001ad4a .LASF2855
C:\Users\SOLDER~1\AppData\Local\Temp\ccEQi33f.s:30814  .debug_str:000000000002bc24 .LASF2856
C:\Users\SOLDER~1\AppData\Local\Temp\ccEQi33f.s:23138  .debug_str:000000000000c8cf .LASF2857
C:\Users\SOLDER~1\AppData\Local\Temp\ccEQi33f.s:27580  .debug_str:000000000001e955 .LASF2858
C:\Users\SOLDER~1\AppData\Local\Temp\ccEQi33f.s:21380  .debug_str:000000000000555c .LASF2859
C:\Users\SOLDER~1\AppData\Local\Temp\ccEQi33f.s:20914  .debug_str:0000000000003852 .LASF2860
C:\Users\SOLDER~1\AppData\Local\Temp\ccEQi33f.s:29652  .debug_str:00000000000270cc .LASF2861
C:\Users\SOLDER~1\AppData\Local\Temp\ccEQi33f.s:21982  .debug_str:0000000000007d0c .LASF2862
C:\Users\SOLDER~1\AppData\Local\Temp\ccEQi33f.s:28188  .debug_str:00000000000210d8 .LASF2863
GAS LISTING C:\Users\SOLDER~1\AppData\Local\Temp\ccEQi33f.s 			page 93


C:\Users\SOLDER~1\AppData\Local\Temp\ccEQi33f.s:27704  .debug_str:000000000001f179 .LASF2864
C:\Users\SOLDER~1\AppData\Local\Temp\ccEQi33f.s:24494  .debug_str:00000000000120c0 .LASF2865
C:\Users\SOLDER~1\AppData\Local\Temp\ccEQi33f.s:23022  .debug_str:000000000000c0ac .LASF2866
C:\Users\SOLDER~1\AppData\Local\Temp\ccEQi33f.s:24200  .debug_str:0000000000010e04 .LASF2867
C:\Users\SOLDER~1\AppData\Local\Temp\ccEQi33f.s:24778  .debug_str:0000000000013318 .LASF2868
C:\Users\SOLDER~1\AppData\Local\Temp\ccEQi33f.s:31480  .debug_str:000000000002e745 .LASF2869
C:\Users\SOLDER~1\AppData\Local\Temp\ccEQi33f.s:24790  .debug_str:00000000000133f0 .LASF2870
C:\Users\SOLDER~1\AppData\Local\Temp\ccEQi33f.s:30952  .debug_str:000000000002c552 .LASF2871
C:\Users\SOLDER~1\AppData\Local\Temp\ccEQi33f.s:31066  .debug_str:000000000002cc61 .LASF2872
C:\Users\SOLDER~1\AppData\Local\Temp\ccEQi33f.s:26668  .debug_str:000000000001adf8 .LASF2873
C:\Users\SOLDER~1\AppData\Local\Temp\ccEQi33f.s:30982  .debug_str:000000000002c74d .LASF2874
C:\Users\SOLDER~1\AppData\Local\Temp\ccEQi33f.s:28166  .debug_str:0000000000020f3c .LASF2875
C:\Users\SOLDER~1\AppData\Local\Temp\ccEQi33f.s:23798  .debug_str:000000000000f3c9 .LASF2876
C:\Users\SOLDER~1\AppData\Local\Temp\ccEQi33f.s:23900  .debug_str:000000000000fab8 .LASF2877
C:\Users\SOLDER~1\AppData\Local\Temp\ccEQi33f.s:23810  .debug_str:000000000000f495 .LASF2878
C:\Users\SOLDER~1\AppData\Local\Temp\ccEQi33f.s:25822  .debug_str:0000000000017771 .LASF2879
C:\Users\SOLDER~1\AppData\Local\Temp\ccEQi33f.s:31440  .debug_str:000000000002e4ac .LASF2880
C:\Users\SOLDER~1\AppData\Local\Temp\ccEQi33f.s:23326  .debug_str:000000000000d567 .LASF2881
C:\Users\SOLDER~1\AppData\Local\Temp\ccEQi33f.s:31520  .debug_str:000000000002ea03 .LASF2882
C:\Users\SOLDER~1\AppData\Local\Temp\ccEQi33f.s:30650  .debug_str:000000000002b1c7 .LASF2883
C:\Users\SOLDER~1\AppData\Local\Temp\ccEQi33f.s:21814  .debug_str:000000000000723b .LASF2884
C:\Users\SOLDER~1\AppData\Local\Temp\ccEQi33f.s:28838  .debug_str:0000000000023ac7 .LASF2885
C:\Users\SOLDER~1\AppData\Local\Temp\ccEQi33f.s:21490  .debug_str:0000000000005cc1 .LASF2886
C:\Users\SOLDER~1\AppData\Local\Temp\ccEQi33f.s:22098  .debug_str:000000000000849f .LASF2887
C:\Users\SOLDER~1\AppData\Local\Temp\ccEQi33f.s:22810  .debug_str:000000000000b328 .LASF2888
C:\Users\SOLDER~1\AppData\Local\Temp\ccEQi33f.s:22860  .debug_str:000000000000b67b .LASF2889
C:\Users\SOLDER~1\AppData\Local\Temp\ccEQi33f.s:21802  .debug_str:000000000000717a .LASF2890
C:\Users\SOLDER~1\AppData\Local\Temp\ccEQi33f.s:20842  .debug_str:00000000000033c3 .LASF2891
C:\Users\SOLDER~1\AppData\Local\Temp\ccEQi33f.s:23514  .debug_str:000000000000e1cb .LASF2892
C:\Users\SOLDER~1\AppData\Local\Temp\ccEQi33f.s:25558  .debug_str:000000000001667c .LASF2893
C:\Users\SOLDER~1\AppData\Local\Temp\ccEQi33f.s:31280  .debug_str:000000000002da74 .LASF2894
C:\Users\SOLDER~1\AppData\Local\Temp\ccEQi33f.s:22720  .debug_str:000000000000ad77 .LASF2895
C:\Users\SOLDER~1\AppData\Local\Temp\ccEQi33f.s:30346  .debug_str:0000000000029dea .LASF2896
C:\Users\SOLDER~1\AppData\Local\Temp\ccEQi33f.s:31358  .debug_str:000000000002df93 .LASF2897
C:\Users\SOLDER~1\AppData\Local\Temp\ccEQi33f.s:31144  .debug_str:000000000002d1f8 .LASF2898
C:\Users\SOLDER~1\AppData\Local\Temp\ccEQi33f.s:21330  .debug_str:000000000000525b .LASF2899
C:\Users\SOLDER~1\AppData\Local\Temp\ccEQi33f.s:22296  .debug_str:00000000000091b2 .LASF2900
C:\Users\SOLDER~1\AppData\Local\Temp\ccEQi33f.s:27274  .debug_str:000000000001d5b8 .LASF2901
C:\Users\SOLDER~1\AppData\Local\Temp\ccEQi33f.s:23210  .debug_str:000000000000cdc7 .LASF2902
C:\Users\SOLDER~1\AppData\Local\Temp\ccEQi33f.s:25060  .debug_str:00000000000146ca .LASF2903
C:\Users\SOLDER~1\AppData\Local\Temp\ccEQi33f.s:29982  .debug_str:000000000002865a .LASF2904
C:\Users\SOLDER~1\AppData\Local\Temp\ccEQi33f.s:22482  .debug_str:0000000000009dce .LASF2905
C:\Users\SOLDER~1\AppData\Local\Temp\ccEQi33f.s:30088  .debug_str:0000000000028d37 .LASF2906
C:\Users\SOLDER~1\AppData\Local\Temp\ccEQi33f.s:26098  .debug_str:0000000000018923 .LASF2907
C:\Users\SOLDER~1\AppData\Local\Temp\ccEQi33f.s:23528  .debug_str:000000000000e2c6 .LASF2908
C:\Users\SOLDER~1\AppData\Local\Temp\ccEQi33f.s:28276  .debug_str:000000000002168d .LASF2909
C:\Users\SOLDER~1\AppData\Local\Temp\ccEQi33f.s:29026  .debug_str:0000000000024745 .LASF2910
C:\Users\SOLDER~1\AppData\Local\Temp\ccEQi33f.s:24342  .debug_str:0000000000011719 .LASF2911
C:\Users\SOLDER~1\AppData\Local\Temp\ccEQi33f.s:23424  .debug_str:000000000000db82 .LASF2912
C:\Users\SOLDER~1\AppData\Local\Temp\ccEQi33f.s:23762  .debug_str:000000000000f169 .LASF2913
C:\Users\SOLDER~1\AppData\Local\Temp\ccEQi33f.s:20720  .debug_str:0000000000002bc1 .LASF2914
C:\Users\SOLDER~1\AppData\Local\Temp\ccEQi33f.s:26088  .debug_str:0000000000018894 .LASF2915
C:\Users\SOLDER~1\AppData\Local\Temp\ccEQi33f.s:20134  .debug_str:0000000000000500 .LASF2916
C:\Users\SOLDER~1\AppData\Local\Temp\ccEQi33f.s:28752  .debug_str:0000000000023556 .LASF2917
C:\Users\SOLDER~1\AppData\Local\Temp\ccEQi33f.s:23536  .debug_str:000000000000e34d .LASF2918
C:\Users\SOLDER~1\AppData\Local\Temp\ccEQi33f.s:27698  .debug_str:000000000001f11f .LASF2919
C:\Users\SOLDER~1\AppData\Local\Temp\ccEQi33f.s:28992  .debug_str:00000000000244f8 .LASF2920
GAS LISTING C:\Users\SOLDER~1\AppData\Local\Temp\ccEQi33f.s 			page 94


C:\Users\SOLDER~1\AppData\Local\Temp\ccEQi33f.s:27388  .debug_str:000000000001dcce .LASF2921
C:\Users\SOLDER~1\AppData\Local\Temp\ccEQi33f.s:24016  .debug_str:000000000001023c .LASF2922
C:\Users\SOLDER~1\AppData\Local\Temp\ccEQi33f.s:29050  .debug_str:00000000000248ec .LASF2923
C:\Users\SOLDER~1\AppData\Local\Temp\ccEQi33f.s:26160  .debug_str:0000000000018d7f .LASF2924
C:\Users\SOLDER~1\AppData\Local\Temp\ccEQi33f.s:25716  .debug_str:0000000000017071 .LASF2925
C:\Users\SOLDER~1\AppData\Local\Temp\ccEQi33f.s:25006  .debug_str:000000000001431b .LASF2926
C:\Users\SOLDER~1\AppData\Local\Temp\ccEQi33f.s:23320  .debug_str:000000000000d505 .LASF2927
C:\Users\SOLDER~1\AppData\Local\Temp\ccEQi33f.s:23612  .debug_str:000000000000e829 .LASF2928
C:\Users\SOLDER~1\AppData\Local\Temp\ccEQi33f.s:25946  .debug_str:0000000000017f98 .LASF2929
C:\Users\SOLDER~1\AppData\Local\Temp\ccEQi33f.s:27402  .debug_str:000000000001ddcb .LASF2930
C:\Users\SOLDER~1\AppData\Local\Temp\ccEQi33f.s:29102  .debug_str:0000000000024c4d .LASF2931
C:\Users\SOLDER~1\AppData\Local\Temp\ccEQi33f.s:29612  .debug_str:0000000000026e37 .LASF2932
C:\Users\SOLDER~1\AppData\Local\Temp\ccEQi33f.s:29994  .debug_str:000000000002872a .LASF2933
C:\Users\SOLDER~1\AppData\Local\Temp\ccEQi33f.s:27282  .debug_str:000000000001d620 .LASF2934
C:\Users\SOLDER~1\AppData\Local\Temp\ccEQi33f.s:26086  .debug_str:000000000001887a .LASF2935
C:\Users\SOLDER~1\AppData\Local\Temp\ccEQi33f.s:23190  .debug_str:000000000000cc6e .LASF2936
C:\Users\SOLDER~1\AppData\Local\Temp\ccEQi33f.s:20062  .debug_str:0000000000000093 .LASF2937
C:\Users\SOLDER~1\AppData\Local\Temp\ccEQi33f.s:29406  .debug_str:0000000000026063 .LASF2938
C:\Users\SOLDER~1\AppData\Local\Temp\ccEQi33f.s:20320  .debug_str:00000000000011ee .LASF2939
C:\Users\SOLDER~1\AppData\Local\Temp\ccEQi33f.s:21214  .debug_str:0000000000004b5d .LASF2940
C:\Users\SOLDER~1\AppData\Local\Temp\ccEQi33f.s:21924  .debug_str:0000000000007922 .LASF2941
C:\Users\SOLDER~1\AppData\Local\Temp\ccEQi33f.s:28928  .debug_str:00000000000240c4 .LASF2942
C:\Users\SOLDER~1\AppData\Local\Temp\ccEQi33f.s:28814  .debug_str:0000000000023940 .LASF2943
C:\Users\SOLDER~1\AppData\Local\Temp\ccEQi33f.s:22122  .debug_str:0000000000008600 .LASF2944
C:\Users\SOLDER~1\AppData\Local\Temp\ccEQi33f.s:24876  .debug_str:0000000000013a16 .LASF2945
C:\Users\SOLDER~1\AppData\Local\Temp\ccEQi33f.s:26444  .debug_str:0000000000019f4c .LASF2946
C:\Users\SOLDER~1\AppData\Local\Temp\ccEQi33f.s:25522  .debug_str:0000000000016493 .LASF2947
C:\Users\SOLDER~1\AppData\Local\Temp\ccEQi33f.s:25982  .debug_str:00000000000181d9 .LASF2948
C:\Users\SOLDER~1\AppData\Local\Temp\ccEQi33f.s:26244  .debug_str:00000000000192b7 .LASF2949
C:\Users\SOLDER~1\AppData\Local\Temp\ccEQi33f.s:24660  .debug_str:0000000000012b83 .LASF2950
C:\Users\SOLDER~1\AppData\Local\Temp\ccEQi33f.s:26344  .debug_str:00000000000198ef .LASF2951
C:\Users\SOLDER~1\AppData\Local\Temp\ccEQi33f.s:20810  .debug_str:00000000000031ae .LASF2952
C:\Users\SOLDER~1\AppData\Local\Temp\ccEQi33f.s:20260  .debug_str:0000000000000e30 .LASF2953
C:\Users\SOLDER~1\AppData\Local\Temp\ccEQi33f.s:26146  .debug_str:0000000000018c7a .LASF2954
C:\Users\SOLDER~1\AppData\Local\Temp\ccEQi33f.s:29390  .debug_str:0000000000025f4f .LASF2955
C:\Users\SOLDER~1\AppData\Local\Temp\ccEQi33f.s:30118  .debug_str:0000000000028ef6 .LASF2956
C:\Users\SOLDER~1\AppData\Local\Temp\ccEQi33f.s:20624  .debug_str:00000000000025ba .LASF2957
C:\Users\SOLDER~1\AppData\Local\Temp\ccEQi33f.s:23750  .debug_str:000000000000f0a6 .LASF2958
C:\Users\SOLDER~1\AppData\Local\Temp\ccEQi33f.s:31112  .debug_str:000000000002cf9f .LASF2959
C:\Users\SOLDER~1\AppData\Local\Temp\ccEQi33f.s:24290  .debug_str:00000000000113c7 .LASF2960
C:\Users\SOLDER~1\AppData\Local\Temp\ccEQi33f.s:25762  .debug_str:000000000001737b .LASF2961
C:\Users\SOLDER~1\AppData\Local\Temp\ccEQi33f.s:21672  .debug_str:00000000000068f3 .LASF2962
C:\Users\SOLDER~1\AppData\Local\Temp\ccEQi33f.s:21422  .debug_str:000000000000584d .LASF2963
C:\Users\SOLDER~1\AppData\Local\Temp\ccEQi33f.s:29122  .debug_str:0000000000024d81 .LASF2964
C:\Users\SOLDER~1\AppData\Local\Temp\ccEQi33f.s:31546  .debug_str:000000000002eba2 .LASF2965
C:\Users\SOLDER~1\AppData\Local\Temp\ccEQi33f.s:21540  .debug_str:0000000000005fe5 .LASF2966
C:\Users\SOLDER~1\AppData\Local\Temp\ccEQi33f.s:20076  .debug_str:000000000000014a .LASF2967
C:\Users\SOLDER~1\AppData\Local\Temp\ccEQi33f.s:29516  .debug_str:00000000000267e0 .LASF2968
C:\Users\SOLDER~1\AppData\Local\Temp\ccEQi33f.s:28410  .debug_str:0000000000021f0e .LASF2969
C:\Users\SOLDER~1\AppData\Local\Temp\ccEQi33f.s:25280  .debug_str:000000000001554d .LASF2970
C:\Users\SOLDER~1\AppData\Local\Temp\ccEQi33f.s:23844  .debug_str:000000000000f6c5 .LASF2971
C:\Users\SOLDER~1\AppData\Local\Temp\ccEQi33f.s:28680  .debug_str:0000000000023076 .LASF2972
C:\Users\SOLDER~1\AppData\Local\Temp\ccEQi33f.s:22690  .debug_str:000000000000aba2 .LASF2973
C:\Users\SOLDER~1\AppData\Local\Temp\ccEQi33f.s:20512  .debug_str:0000000000001e5c .LASF2974
C:\Users\SOLDER~1\AppData\Local\Temp\ccEQi33f.s:24784  .debug_str:000000000001337d .LASF2975
C:\Users\SOLDER~1\AppData\Local\Temp\ccEQi33f.s:22348  .debug_str:0000000000009518 .LASF2976
C:\Users\SOLDER~1\AppData\Local\Temp\ccEQi33f.s:28468  .debug_str:0000000000022257 .LASF2977
GAS LISTING C:\Users\SOLDER~1\AppData\Local\Temp\ccEQi33f.s 			page 95


C:\Users\SOLDER~1\AppData\Local\Temp\ccEQi33f.s:31116  .debug_str:000000000002cfef .LASF2978
C:\Users\SOLDER~1\AppData\Local\Temp\ccEQi33f.s:23054  .debug_str:000000000000c2f6 .LASF2979
C:\Users\SOLDER~1\AppData\Local\Temp\ccEQi33f.s:28692  .debug_str:0000000000023132 .LASF2980
C:\Users\SOLDER~1\AppData\Local\Temp\ccEQi33f.s:22640  .debug_str:000000000000a83e .LASF2981
C:\Users\SOLDER~1\AppData\Local\Temp\ccEQi33f.s:31096  .debug_str:000000000002ce87 .LASF2982
C:\Users\SOLDER~1\AppData\Local\Temp\ccEQi33f.s:25468  .debug_str:000000000001610f .LASF2983
C:\Users\SOLDER~1\AppData\Local\Temp\ccEQi33f.s:27404  .debug_str:000000000001ddf4 .LASF2984
C:\Users\SOLDER~1\AppData\Local\Temp\ccEQi33f.s:26270  .debug_str:0000000000019495 .LASF2985
C:\Users\SOLDER~1\AppData\Local\Temp\ccEQi33f.s:21004  .debug_str:0000000000003e20 .LASF2986
C:\Users\SOLDER~1\AppData\Local\Temp\ccEQi33f.s:31006  .debug_str:000000000002c8bb .LASF2987
C:\Users\SOLDER~1\AppData\Local\Temp\ccEQi33f.s:24682  .debug_str:0000000000012cff .LASF2988
C:\Users\SOLDER~1\AppData\Local\Temp\ccEQi33f.s:24874  .debug_str:00000000000139ed .LASF2989
C:\Users\SOLDER~1\AppData\Local\Temp\ccEQi33f.s:21452  .debug_str:0000000000005a4c .LASF2990
C:\Users\SOLDER~1\AppData\Local\Temp\ccEQi33f.s:31510  .debug_str:000000000002e977 .LASF2991
C:\Users\SOLDER~1\AppData\Local\Temp\ccEQi33f.s:20554  .debug_str:000000000000210b .LASF2992
C:\Users\SOLDER~1\AppData\Local\Temp\ccEQi33f.s:29642  .debug_str:000000000002701a .LASF2993
C:\Users\SOLDER~1\AppData\Local\Temp\ccEQi33f.s:22584  .debug_str:000000000000a47d .LASF2994
C:\Users\SOLDER~1\AppData\Local\Temp\ccEQi33f.s:20740  .debug_str:0000000000002d22 .LASF2995
C:\Users\SOLDER~1\AppData\Local\Temp\ccEQi33f.s:29460  .debug_str:000000000002644d .LASF2996
C:\Users\SOLDER~1\AppData\Local\Temp\ccEQi33f.s:23418  .debug_str:000000000000db0f .LASF2997
C:\Users\SOLDER~1\AppData\Local\Temp\ccEQi33f.s:24950  .debug_str:0000000000013f37 .LASF2998
C:\Users\SOLDER~1\AppData\Local\Temp\ccEQi33f.s:29430  .debug_str:000000000002621d .LASF2999
C:\Users\SOLDER~1\AppData\Local\Temp\ccEQi33f.s:20548  .debug_str:0000000000002097 .LASF3000
C:\Users\SOLDER~1\AppData\Local\Temp\ccEQi33f.s:26542  .debug_str:000000000001a580 .LASF3001
C:\Users\SOLDER~1\AppData\Local\Temp\ccEQi33f.s:24826  .debug_str:0000000000013667 .LASF3002
C:\Users\SOLDER~1\AppData\Local\Temp\ccEQi33f.s:28422  .debug_str:0000000000021fc0 .LASF3003
C:\Users\SOLDER~1\AppData\Local\Temp\ccEQi33f.s:27296  .debug_str:000000000001d6f0 .LASF3004
C:\Users\SOLDER~1\AppData\Local\Temp\ccEQi33f.s:29076  .debug_str:0000000000024aa6 .LASF3005
C:\Users\SOLDER~1\AppData\Local\Temp\ccEQi33f.s:22666  .debug_str:000000000000aa1e .LASF3006
C:\Users\SOLDER~1\AppData\Local\Temp\ccEQi33f.s:28476  .debug_str:00000000000222dc .LASF3007
C:\Users\SOLDER~1\AppData\Local\Temp\ccEQi33f.s:26200  .debug_str:0000000000019026 .LASF3008
C:\Users\SOLDER~1\AppData\Local\Temp\ccEQi33f.s:31008  .debug_str:000000000002c8d4 .LASF3009
C:\Users\SOLDER~1\AppData\Local\Temp\ccEQi33f.s:26578  .debug_str:000000000001a805 .LASF3010
C:\Users\SOLDER~1\AppData\Local\Temp\ccEQi33f.s:31240  .debug_str:000000000002d817 .LASF3011
C:\Users\SOLDER~1\AppData\Local\Temp\ccEQi33f.s:27888  .debug_str:000000000001fd43 .LASF3012
C:\Users\SOLDER~1\AppData\Local\Temp\ccEQi33f.s:22370  .debug_str:0000000000009662 .LASF3013
C:\Users\SOLDER~1\AppData\Local\Temp\ccEQi33f.s:24042  .debug_str:0000000000010422 .LASF3014
C:\Users\SOLDER~1\AppData\Local\Temp\ccEQi33f.s:24934  .debug_str:0000000000013e21 .LASF3015
C:\Users\SOLDER~1\AppData\Local\Temp\ccEQi33f.s:25906  .debug_str:0000000000017ccc .LASF3016
C:\Users\SOLDER~1\AppData\Local\Temp\ccEQi33f.s:23002  .debug_str:000000000000bf5e .LASF3017
C:\Users\SOLDER~1\AppData\Local\Temp\ccEQi33f.s:22400  .debug_str:0000000000009862 .LASF3018
C:\Users\SOLDER~1\AppData\Local\Temp\ccEQi33f.s:21106  .debug_str:0000000000004484 .LASF3019
C:\Users\SOLDER~1\AppData\Local\Temp\ccEQi33f.s:31456  .debug_str:000000000002e5bc .LASF3020
C:\Users\SOLDER~1\AppData\Local\Temp\ccEQi33f.s:30774  .debug_str:000000000002b999 .LASF3021
C:\Users\SOLDER~1\AppData\Local\Temp\ccEQi33f.s:27396  .debug_str:000000000001dd64 .LASF3022
C:\Users\SOLDER~1\AppData\Local\Temp\ccEQi33f.s:29354  .debug_str:0000000000025cbb .LASF3023
C:\Users\SOLDER~1\AppData\Local\Temp\ccEQi33f.s:26714  .debug_str:000000000001b08d .LASF3024
C:\Users\SOLDER~1\AppData\Local\Temp\ccEQi33f.s:27056  .debug_str:000000000001c6fd .LASF3025
C:\Users\SOLDER~1\AppData\Local\Temp\ccEQi33f.s:20640  .debug_str:00000000000026b6 .LASF3026
C:\Users\SOLDER~1\AppData\Local\Temp\ccEQi33f.s:25172  .debug_str:0000000000014e4d .LASF3027
C:\Users\SOLDER~1\AppData\Local\Temp\ccEQi33f.s:29726  .debug_str:00000000000275ac .LASF3028
C:\Users\SOLDER~1\AppData\Local\Temp\ccEQi33f.s:23250  .debug_str:000000000000d081 .LASF3029
C:\Users\SOLDER~1\AppData\Local\Temp\ccEQi33f.s:25126  .debug_str:0000000000014b46 .LASF3030
C:\Users\SOLDER~1\AppData\Local\Temp\ccEQi33f.s:31438  .debug_str:000000000002e494 .LASF3031
C:\Users\SOLDER~1\AppData\Local\Temp\ccEQi33f.s:22294  .debug_str:0000000000009190 .LASF3032
C:\Users\SOLDER~1\AppData\Local\Temp\ccEQi33f.s:31028  .debug_str:000000000002ca1e .LASF3033
C:\Users\SOLDER~1\AppData\Local\Temp\ccEQi33f.s:24556  .debug_str:00000000000124b9 .LASF3034
GAS LISTING C:\Users\SOLDER~1\AppData\Local\Temp\ccEQi33f.s 			page 96


C:\Users\SOLDER~1\AppData\Local\Temp\ccEQi33f.s:30394  .debug_str:000000000002a13f .LASF3035
C:\Users\SOLDER~1\AppData\Local\Temp\ccEQi33f.s:22536  .debug_str:000000000000a15b .LASF3036
C:\Users\SOLDER~1\AppData\Local\Temp\ccEQi33f.s:28646  .debug_str:0000000000022e48 .LASF3037
C:\Users\SOLDER~1\AppData\Local\Temp\ccEQi33f.s:20456  .debug_str:0000000000001a9f .LASF3038
C:\Users\SOLDER~1\AppData\Local\Temp\ccEQi33f.s:20508  .debug_str:0000000000001e19 .LASF3039
C:\Users\SOLDER~1\AppData\Local\Temp\ccEQi33f.s:20678  .debug_str:000000000000296a .LASF3040
C:\Users\SOLDER~1\AppData\Local\Temp\ccEQi33f.s:25414  .debug_str:0000000000015d7e .LASF3041
C:\Users\SOLDER~1\AppData\Local\Temp\ccEQi33f.s:24118  .debug_str:0000000000010903 .LASF3042
C:\Users\SOLDER~1\AppData\Local\Temp\ccEQi33f.s:23658  .debug_str:000000000000eae4 .LASF3043
C:\Users\SOLDER~1\AppData\Local\Temp\ccEQi33f.s:26228  .debug_str:00000000000191c1 .LASF3044
C:\Users\SOLDER~1\AppData\Local\Temp\ccEQi33f.s:22028  .debug_str:000000000000800d .LASF3045
C:\Users\SOLDER~1\AppData\Local\Temp\ccEQi33f.s:23322  .debug_str:000000000000d51f .LASF3046
C:\Users\SOLDER~1\AppData\Local\Temp\ccEQi33f.s:25972  .debug_str:0000000000018151 .LASF3047
C:\Users\SOLDER~1\AppData\Local\Temp\ccEQi33f.s:28622  .debug_str:0000000000022cc7 .LASF3048
C:\Users\SOLDER~1\AppData\Local\Temp\ccEQi33f.s:24482  .debug_str:0000000000011ff9 .LASF3049
C:\Users\SOLDER~1\AppData\Local\Temp\ccEQi33f.s:27786  .debug_str:000000000001f6fe .LASF3050
C:\Users\SOLDER~1\AppData\Local\Temp\ccEQi33f.s:22146  .debug_str:000000000000879e .LASF3051
C:\Users\SOLDER~1\AppData\Local\Temp\ccEQi33f.s:22992  .debug_str:000000000000beb1 .LASF3052
C:\Users\SOLDER~1\AppData\Local\Temp\ccEQi33f.s:20342  .debug_str:0000000000001357 .LASF3053
C:\Users\SOLDER~1\AppData\Local\Temp\ccEQi33f.s:31398  .debug_str:000000000002e210 .LASF3054
C:\Users\SOLDER~1\AppData\Local\Temp\ccEQi33f.s:29966  .debug_str:000000000002852a .LASF3055
C:\Users\SOLDER~1\AppData\Local\Temp\ccEQi33f.s:25298  .debug_str:000000000001567f .LASF3056
C:\Users\SOLDER~1\AppData\Local\Temp\ccEQi33f.s:28062  .debug_str:0000000000020876 .LASF3057
C:\Users\SOLDER~1\AppData\Local\Temp\ccEQi33f.s:23010  .debug_str:000000000000bfd6 .LASF3058
C:\Users\SOLDER~1\AppData\Local\Temp\ccEQi33f.s:25190  .debug_str:0000000000014f64 .LASF3059
C:\Users\SOLDER~1\AppData\Local\Temp\ccEQi33f.s:22166  .debug_str:00000000000088cb .LASF3060
C:\Users\SOLDER~1\AppData\Local\Temp\ccEQi33f.s:24282  .debug_str:0000000000011324 .LASF3061
C:\Users\SOLDER~1\AppData\Local\Temp\ccEQi33f.s:26414  .debug_str:0000000000019d56 .LASF3062
C:\Users\SOLDER~1\AppData\Local\Temp\ccEQi33f.s:20476  .debug_str:0000000000001bf3 .LASF3063
C:\Users\SOLDER~1\AppData\Local\Temp\ccEQi33f.s:20992  .debug_str:0000000000003d5f .LASF3064
C:\Users\SOLDER~1\AppData\Local\Temp\ccEQi33f.s:29650  .debug_str:00000000000270b3 .LASF3065
C:\Users\SOLDER~1\AppData\Local\Temp\ccEQi33f.s:25910  .debug_str:0000000000017d1a .LASF3066
C:\Users\SOLDER~1\AppData\Local\Temp\ccEQi33f.s:26794  .debug_str:000000000001b5b8 .LASF3067
C:\Users\SOLDER~1\AppData\Local\Temp\ccEQi33f.s:24140  .debug_str:0000000000010a68 .LASF3068
C:\Users\SOLDER~1\AppData\Local\Temp\ccEQi33f.s:26022  .debug_str:0000000000018453 .LASF3069
C:\Users\SOLDER~1\AppData\Local\Temp\ccEQi33f.s:30672  .debug_str:000000000002b319 .LASF3070
C:\Users\SOLDER~1\AppData\Local\Temp\ccEQi33f.s:26808  .debug_str:000000000001b68a .LASF3071
C:\Users\SOLDER~1\AppData\Local\Temp\ccEQi33f.s:22392  .debug_str:00000000000097d1 .LASF3072
C:\Users\SOLDER~1\AppData\Local\Temp\ccEQi33f.s:30494  .debug_str:000000000002a7b0 .LASF3073
C:\Users\SOLDER~1\AppData\Local\Temp\ccEQi33f.s:29984  .debug_str:0000000000028684 .LASF3074
C:\Users\SOLDER~1\AppData\Local\Temp\ccEQi33f.s:31018  .debug_str:000000000002c983 .LASF3075
C:\Users\SOLDER~1\AppData\Local\Temp\ccEQi33f.s:27476  .debug_str:000000000001e281 .LASF3076
C:\Users\SOLDER~1\AppData\Local\Temp\ccEQi33f.s:30902  .debug_str:000000000002c253 .LASF3077
C:\Users\SOLDER~1\AppData\Local\Temp\ccEQi33f.s:22008  .debug_str:0000000000007eb8 .LASF3078
C:\Users\SOLDER~1\AppData\Local\Temp\ccEQi33f.s:27290  .debug_str:000000000001d6a4 .LASF3079
C:\Users\SOLDER~1\AppData\Local\Temp\ccEQi33f.s:29946  .debug_str:00000000000283e8 .LASF3080
C:\Users\SOLDER~1\AppData\Local\Temp\ccEQi33f.s:22906  .debug_str:000000000000b90d .LASF3081
C:\Users\SOLDER~1\AppData\Local\Temp\ccEQi33f.s:30232  .debug_str:00000000000296a3 .LASF3082
C:\Users\SOLDER~1\AppData\Local\Temp\ccEQi33f.s:20996  .debug_str:0000000000003da7 .LASF3083
C:\Users\SOLDER~1\AppData\Local\Temp\ccEQi33f.s:21566  .debug_str:00000000000061ce .LASF3084
C:\Users\SOLDER~1\AppData\Local\Temp\ccEQi33f.s:30198  .debug_str:000000000002947a .LASF3085
C:\Users\SOLDER~1\AppData\Local\Temp\ccEQi33f.s:25254  .debug_str:0000000000015395 .LASF3086
C:\Users\SOLDER~1\AppData\Local\Temp\ccEQi33f.s:28726  .debug_str:00000000000233b1 .LASF3087
C:\Users\SOLDER~1\AppData\Local\Temp\ccEQi33f.s:25220  .debug_str:0000000000015146 .LASF3088
C:\Users\SOLDER~1\AppData\Local\Temp\ccEQi33f.s:26874  .debug_str:000000000001bac0 .LASF3089
C:\Users\SOLDER~1\AppData\Local\Temp\ccEQi33f.s:25964  .debug_str:00000000000180c2 .LASF3090
C:\Users\SOLDER~1\AppData\Local\Temp\ccEQi33f.s:30154  .debug_str:0000000000029172 .LASF3091
GAS LISTING C:\Users\SOLDER~1\AppData\Local\Temp\ccEQi33f.s 			page 97


C:\Users\SOLDER~1\AppData\Local\Temp\ccEQi33f.s:21414  .debug_str:00000000000057af .LASF3092
C:\Users\SOLDER~1\AppData\Local\Temp\ccEQi33f.s:23136  .debug_str:000000000000c8b8 .LASF3093
C:\Users\SOLDER~1\AppData\Local\Temp\ccEQi33f.s:25420  .debug_str:0000000000015ddb .LASF3094
C:\Users\SOLDER~1\AppData\Local\Temp\ccEQi33f.s:25474  .debug_str:0000000000016174 .LASF3095
C:\Users\SOLDER~1\AppData\Local\Temp\ccEQi33f.s:27832  .debug_str:000000000001f9d8 .LASF3096
C:\Users\SOLDER~1\AppData\Local\Temp\ccEQi33f.s:30916  .debug_str:000000000002c326 .LASF3097
C:\Users\SOLDER~1\AppData\Local\Temp\ccEQi33f.s:23724  .debug_str:000000000000ef28 .LASF3098
C:\Users\SOLDER~1\AppData\Local\Temp\ccEQi33f.s:25506  .debug_str:0000000000016374 .LASF3099
C:\Users\SOLDER~1\AppData\Local\Temp\ccEQi33f.s:30758  .debug_str:000000000002b890 .LASF3100
C:\Users\SOLDER~1\AppData\Local\Temp\ccEQi33f.s:24360  .debug_str:000000000001185c .LASF3101
C:\Users\SOLDER~1\AppData\Local\Temp\ccEQi33f.s:23682  .debug_str:000000000000ec76 .LASF3102
C:\Users\SOLDER~1\AppData\Local\Temp\ccEQi33f.s:25276  .debug_str:0000000000015514 .LASF3103
C:\Users\SOLDER~1\AppData\Local\Temp\ccEQi33f.s:22738  .debug_str:000000000000aeaf .LASF3104
C:\Users\SOLDER~1\AppData\Local\Temp\ccEQi33f.s:23564  .debug_str:000000000000e4f3 .LASF3105
C:\Users\SOLDER~1\AppData\Local\Temp\ccEQi33f.s:30466  .debug_str:000000000002a60b .LASF3106
C:\Users\SOLDER~1\AppData\Local\Temp\ccEQi33f.s:21910  .debug_str:0000000000007820 .LASF3107
C:\Users\SOLDER~1\AppData\Local\Temp\ccEQi33f.s:28294  .debug_str:00000000000217a8 .LASF3108
C:\Users\SOLDER~1\AppData\Local\Temp\ccEQi33f.s:20284  .debug_str:0000000000000fab .LASF3109
C:\Users\SOLDER~1\AppData\Local\Temp\ccEQi33f.s:25334  .debug_str:000000000001587d .LASF3110
C:\Users\SOLDER~1\AppData\Local\Temp\ccEQi33f.s:21016  .debug_str:0000000000003ee2 .LASF3111
C:\Users\SOLDER~1\AppData\Local\Temp\ccEQi33f.s:29148  .debug_str:0000000000024f2b .LASF3112
C:\Users\SOLDER~1\AppData\Local\Temp\ccEQi33f.s:28818  .debug_str:000000000002397f .LASF3113
C:\Users\SOLDER~1\AppData\Local\Temp\ccEQi33f.s:27188  .debug_str:000000000001cfbe .LASF3114
C:\Users\SOLDER~1\AppData\Local\Temp\ccEQi33f.s:27124  .debug_str:000000000001cba4 .LASF3115
C:\Users\SOLDER~1\AppData\Local\Temp\ccEQi33f.s:28732  .debug_str:000000000002341b .LASF3116
C:\Users\SOLDER~1\AppData\Local\Temp\ccEQi33f.s:23968  .debug_str:000000000000ff6d .LASF3117
C:\Users\SOLDER~1\AppData\Local\Temp\ccEQi33f.s:27410  .debug_str:000000000001de61 .LASF3118
C:\Users\SOLDER~1\AppData\Local\Temp\ccEQi33f.s:26614  .debug_str:000000000001aa2c .LASF3119
C:\Users\SOLDER~1\AppData\Local\Temp\ccEQi33f.s:27350  .debug_str:000000000001da32 .LASF3120
C:\Users\SOLDER~1\AppData\Local\Temp\ccEQi33f.s:24900  .debug_str:0000000000013bd5 .LASF3121
C:\Users\SOLDER~1\AppData\Local\Temp\ccEQi33f.s:30408  .debug_str:000000000002a240 .LASF3122
C:\Users\SOLDER~1\AppData\Local\Temp\ccEQi33f.s:21692  .debug_str:0000000000006a39 .LASF3123
C:\Users\SOLDER~1\AppData\Local\Temp\ccEQi33f.s:22490  .debug_str:0000000000009e47 .LASF3124
C:\Users\SOLDER~1\AppData\Local\Temp\ccEQi33f.s:21592  .debug_str:000000000000637a .LASF3125
C:\Users\SOLDER~1\AppData\Local\Temp\ccEQi33f.s:24508  .debug_str:00000000000121a4 .LASF3126
C:\Users\SOLDER~1\AppData\Local\Temp\ccEQi33f.s:20790  .debug_str:000000000000305d .LASF3127
C:\Users\SOLDER~1\AppData\Local\Temp\ccEQi33f.s:29924  .debug_str:000000000002828b .LASF3128
C:\Users\SOLDER~1\AppData\Local\Temp\ccEQi33f.s:29758  .debug_str:00000000000277c1 .LASF3129
C:\Users\SOLDER~1\AppData\Local\Temp\ccEQi33f.s:23904  .debug_str:000000000000fb0f .LASF3130
C:\Users\SOLDER~1\AppData\Local\Temp\ccEQi33f.s:30228  .debug_str:0000000000029660 .LASF3131
C:\Users\SOLDER~1\AppData\Local\Temp\ccEQi33f.s:24988  .debug_str:00000000000141d5 .LASF3132
C:\Users\SOLDER~1\AppData\Local\Temp\ccEQi33f.s:22336  .debug_str:0000000000009471 .LASF3133
C:\Users\SOLDER~1\AppData\Local\Temp\ccEQi33f.s:20538  .debug_str:0000000000001ff3 .LASF3134
C:\Users\SOLDER~1\AppData\Local\Temp\ccEQi33f.s:23742  .debug_str:000000000000f033 .LASF3135
C:\Users\SOLDER~1\AppData\Local\Temp\ccEQi33f.s:25788  .debug_str:0000000000017546 .LASF3136
C:\Users\SOLDER~1\AppData\Local\Temp\ccEQi33f.s:22106  .debug_str:0000000000008522 .LASF3137
C:\Users\SOLDER~1\AppData\Local\Temp\ccEQi33f.s:27908  .debug_str:000000000001fe8c .LASF3138
C:\Users\SOLDER~1\AppData\Local\Temp\ccEQi33f.s:28780  .debug_str:0000000000023749 .LASF3139
C:\Users\SOLDER~1\AppData\Local\Temp\ccEQi33f.s:20170  .debug_str:00000000000007e5 .LASF3140
C:\Users\SOLDER~1\AppData\Local\Temp\ccEQi33f.s:20352  .debug_str:0000000000001401 .LASF3141
C:\Users\SOLDER~1\AppData\Local\Temp\ccEQi33f.s:21812  .debug_str:0000000000007215 .LASF3142
C:\Users\SOLDER~1\AppData\Local\Temp\ccEQi33f.s:21388  .debug_str:00000000000055ea .LASF3143
C:\Users\SOLDER~1\AppData\Local\Temp\ccEQi33f.s:25890  .debug_str:0000000000017bb9 .LASF3144
C:\Users\SOLDER~1\AppData\Local\Temp\ccEQi33f.s:30590  .debug_str:000000000002ada0 .LASF3145
C:\Users\SOLDER~1\AppData\Local\Temp\ccEQi33f.s:22382  .debug_str:0000000000009738 .LASF3146
C:\Users\SOLDER~1\AppData\Local\Temp\ccEQi33f.s:28220  .debug_str:00000000000212fe .LASF3147
C:\Users\SOLDER~1\AppData\Local\Temp\ccEQi33f.s:21464  .debug_str:0000000000005b31 .LASF3148
GAS LISTING C:\Users\SOLDER~1\AppData\Local\Temp\ccEQi33f.s 			page 98


C:\Users\SOLDER~1\AppData\Local\Temp\ccEQi33f.s:25924  .debug_str:0000000000017e0b .LASF3149
C:\Users\SOLDER~1\AppData\Local\Temp\ccEQi33f.s:30034  .debug_str:00000000000289c3 .LASF3150
C:\Users\SOLDER~1\AppData\Local\Temp\ccEQi33f.s:28198  .debug_str:000000000002119c .LASF3151
C:\Users\SOLDER~1\AppData\Local\Temp\ccEQi33f.s:29378  .debug_str:0000000000025e5e .LASF3152
C:\Users\SOLDER~1\AppData\Local\Temp\ccEQi33f.s:26338  .debug_str:0000000000019890 .LASF3153
C:\Users\SOLDER~1\AppData\Local\Temp\ccEQi33f.s:20626  .debug_str:00000000000025d5 .LASF3154
C:\Users\SOLDER~1\AppData\Local\Temp\ccEQi33f.s:24408  .debug_str:0000000000011b6d .LASF3155
C:\Users\SOLDER~1\AppData\Local\Temp\ccEQi33f.s:29714  .debug_str:00000000000274ec .LASF3156
C:\Users\SOLDER~1\AppData\Local\Temp\ccEQi33f.s:22502  .debug_str:0000000000009f14 .LASF3157
C:\Users\SOLDER~1\AppData\Local\Temp\ccEQi33f.s:28362  .debug_str:0000000000021bf2 .LASF3158
C:\Users\SOLDER~1\AppData\Local\Temp\ccEQi33f.s:20712  .debug_str:0000000000002b63 .LASF3159
C:\Users\SOLDER~1\AppData\Local\Temp\ccEQi33f.s:28666  .debug_str:0000000000022f89 .LASF3160
C:\Users\SOLDER~1\AppData\Local\Temp\ccEQi33f.s:30358  .debug_str:0000000000029eb4 .LASF3161
C:\Users\SOLDER~1\AppData\Local\Temp\ccEQi33f.s:31036  .debug_str:000000000002ca9e .LASF3162
C:\Users\SOLDER~1\AppData\Local\Temp\ccEQi33f.s:30662  .debug_str:000000000002b285 .LASF3163
C:\Users\SOLDER~1\AppData\Local\Temp\ccEQi33f.s:28040  .debug_str:0000000000020705 .LASF3164
C:\Users\SOLDER~1\AppData\Local\Temp\ccEQi33f.s:23572  .debug_str:000000000000e567 .LASF3165
C:\Users\SOLDER~1\AppData\Local\Temp\ccEQi33f.s:28632  .debug_str:0000000000022d66 .LASF3166
C:\Users\SOLDER~1\AppData\Local\Temp\ccEQi33f.s:24414  .debug_str:0000000000011be0 .LASF3167
C:\Users\SOLDER~1\AppData\Local\Temp\ccEQi33f.s:31182  .debug_str:000000000002d463 .LASF3168
C:\Users\SOLDER~1\AppData\Local\Temp\ccEQi33f.s:22778  .debug_str:000000000000b127 .LASF3169
C:\Users\SOLDER~1\AppData\Local\Temp\ccEQi33f.s:29358  .debug_str:0000000000025cf4 .LASF3170
C:\Users\SOLDER~1\AppData\Local\Temp\ccEQi33f.s:21040  .debug_str:0000000000004051 .LASF3171
C:\Users\SOLDER~1\AppData\Local\Temp\ccEQi33f.s:29356  .debug_str:0000000000025cd3 .LASF3172
C:\Users\SOLDER~1\AppData\Local\Temp\ccEQi33f.s:21116  .debug_str:000000000000451c .LASF3173
C:\Users\SOLDER~1\AppData\Local\Temp\ccEQi33f.s:21866  .debug_str:0000000000007585 .LASF3174
C:\Users\SOLDER~1\AppData\Local\Temp\ccEQi33f.s:26412  .debug_str:0000000000019d43 .LASF3175
C:\Users\SOLDER~1\AppData\Local\Temp\ccEQi33f.s:27210  .debug_str:000000000001d180 .LASF3176
C:\Users\SOLDER~1\AppData\Local\Temp\ccEQi33f.s:24478  .debug_str:0000000000011fc4 .LASF3177
C:\Users\SOLDER~1\AppData\Local\Temp\ccEQi33f.s:26716  .debug_str:000000000001b0af .LASF3178
C:\Users\SOLDER~1\AppData\Local\Temp\ccEQi33f.s:22570  .debug_str:000000000000a38f .LASF3179
C:\Users\SOLDER~1\AppData\Local\Temp\ccEQi33f.s:29152  .debug_str:0000000000024f74 .LASF3180
C:\Users\SOLDER~1\AppData\Local\Temp\ccEQi33f.s:22932  .debug_str:000000000000bac4 .LASF3181
C:\Users\SOLDER~1\AppData\Local\Temp\ccEQi33f.s:27596  .debug_str:000000000001ea5f .LASF3182
C:\Users\SOLDER~1\AppData\Local\Temp\ccEQi33f.s:30424  .debug_str:000000000002a34d .LASF3183
C:\Users\SOLDER~1\AppData\Local\Temp\ccEQi33f.s:30016  .debug_str:000000000002889a .LASF3184
C:\Users\SOLDER~1\AppData\Local\Temp\ccEQi33f.s:28502  .debug_str:00000000000224aa .LASF3185
C:\Users\SOLDER~1\AppData\Local\Temp\ccEQi33f.s:28170  .debug_str:0000000000020f86 .LASF3186
C:\Users\SOLDER~1\AppData\Local\Temp\ccEQi33f.s:26640  .debug_str:000000000001ac4c .LASF3187
C:\Users\SOLDER~1\AppData\Local\Temp\ccEQi33f.s:23678  .debug_str:000000000000ec2f .LASF3188
C:\Users\SOLDER~1\AppData\Local\Temp\ccEQi33f.s:24738  .debug_str:000000000001307b .LASF3189
C:\Users\SOLDER~1\AppData\Local\Temp\ccEQi33f.s:20310  .debug_str:0000000000001153 .LASF3190
C:\Users\SOLDER~1\AppData\Local\Temp\ccEQi33f.s:22580  .debug_str:000000000000a435 .LASF3191
C:\Users\SOLDER~1\AppData\Local\Temp\ccEQi33f.s:30074  .debug_str:0000000000028c40 .LASF3192
C:\Users\SOLDER~1\AppData\Local\Temp\ccEQi33f.s:20932  .debug_str:0000000000003989 .LASF3193
C:\Users\SOLDER~1\AppData\Local\Temp\ccEQi33f.s:25424  .debug_str:0000000000015e23 .LASF3194
C:\Users\SOLDER~1\AppData\Local\Temp\ccEQi33f.s:30496  .debug_str:000000000002a7cb .LASF3195
C:\Users\SOLDER~1\AppData\Local\Temp\ccEQi33f.s:22540  .debug_str:000000000000a1a3 .LASF3196
C:\Users\SOLDER~1\AppData\Local\Temp\ccEQi33f.s:28808  .debug_str:000000000002390b .LASF3197
C:\Users\SOLDER~1\AppData\Local\Temp\ccEQi33f.s:27054  .debug_str:000000000001c6db .LASF3198
C:\Users\SOLDER~1\AppData\Local\Temp\ccEQi33f.s:28384  .debug_str:0000000000021d62 .LASF3199
C:\Users\SOLDER~1\AppData\Local\Temp\ccEQi33f.s:26144  .debug_str:0000000000018c58 .LASF3200
C:\Users\SOLDER~1\AppData\Local\Temp\ccEQi33f.s:25502  .debug_str:0000000000016340 .LASF3201
C:\Users\SOLDER~1\AppData\Local\Temp\ccEQi33f.s:22274  .debug_str:0000000000009021 .LASF3202
C:\Users\SOLDER~1\AppData\Local\Temp\ccEQi33f.s:28868  .debug_str:0000000000023cca .LASF3203
C:\Users\SOLDER~1\AppData\Local\Temp\ccEQi33f.s:23606  .debug_str:000000000000e7c9 .LASF3204
C:\Users\SOLDER~1\AppData\Local\Temp\ccEQi33f.s:22112  .debug_str:0000000000008578 .LASF3205
GAS LISTING C:\Users\SOLDER~1\AppData\Local\Temp\ccEQi33f.s 			page 99


C:\Users\SOLDER~1\AppData\Local\Temp\ccEQi33f.s:21626  .debug_str:00000000000065af .LASF3206
C:\Users\SOLDER~1\AppData\Local\Temp\ccEQi33f.s:25960  .debug_str:0000000000018085 .LASF3207
C:\Users\SOLDER~1\AppData\Local\Temp\ccEQi33f.s:22462  .debug_str:0000000000009c48 .LASF3208
C:\Users\SOLDER~1\AppData\Local\Temp\ccEQi33f.s:24514  .debug_str:0000000000012202 .LASF3209
C:\Users\SOLDER~1\AppData\Local\Temp\ccEQi33f.s:24510  .debug_str:00000000000121c9 .LASF3210
C:\Users\SOLDER~1\AppData\Local\Temp\ccEQi33f.s:25582  .debug_str:000000000001680c .LASF3211
C:\Users\SOLDER~1\AppData\Local\Temp\ccEQi33f.s:24586  .debug_str:00000000000126a3 .LASF3212
C:\Users\SOLDER~1\AppData\Local\Temp\ccEQi33f.s:29530  .debug_str:00000000000268c3 .LASF3213
C:\Users\SOLDER~1\AppData\Local\Temp\ccEQi33f.s:27242  .debug_str:000000000001d3b4 .LASF3214
C:\Users\SOLDER~1\AppData\Local\Temp\ccEQi33f.s:21496  .debug_str:0000000000005d2f .LASF3215
C:\Users\SOLDER~1\AppData\Local\Temp\ccEQi33f.s:28972  .debug_str:00000000000243b2 .LASF3216
C:\Users\SOLDER~1\AppData\Local\Temp\ccEQi33f.s:30224  .debug_str:0000000000029623 .LASF3217
C:\Users\SOLDER~1\AppData\Local\Temp\ccEQi33f.s:23758  .debug_str:000000000000f130 .LASF3218
C:\Users\SOLDER~1\AppData\Local\Temp\ccEQi33f.s:27386  .debug_str:000000000001dcad .LASF3219
C:\Users\SOLDER~1\AppData\Local\Temp\ccEQi33f.s:25554  .debug_str:000000000001664d .LASF3220
C:\Users\SOLDER~1\AppData\Local\Temp\ccEQi33f.s:27392  .debug_str:000000000001dd1c .LASF3221
C:\Users\SOLDER~1\AppData\Local\Temp\ccEQi33f.s:22698  .debug_str:000000000000ac01 .LASF3222
C:\Users\SOLDER~1\AppData\Local\Temp\ccEQi33f.s:22158  .debug_str:000000000000884a .LASF3223
C:\Users\SOLDER~1\AppData\Local\Temp\ccEQi33f.s:31048  .debug_str:000000000002cb5f .LASF3224
C:\Users\SOLDER~1\AppData\Local\Temp\ccEQi33f.s:21846  .debug_str:0000000000007454 .LASF3225
C:\Users\SOLDER~1\AppData\Local\Temp\ccEQi33f.s:30112  .debug_str:0000000000028e9d .LASF3226
C:\Users\SOLDER~1\AppData\Local\Temp\ccEQi33f.s:28134  .debug_str:0000000000020d3d .LASF3227
C:\Users\SOLDER~1\AppData\Local\Temp\ccEQi33f.s:25598  .debug_str:0000000000016923 .LASF3228
C:\Users\SOLDER~1\AppData\Local\Temp\ccEQi33f.s:22898  .debug_str:000000000000b88e .LASF3229
C:\Users\SOLDER~1\AppData\Local\Temp\ccEQi33f.s:20250  .debug_str:0000000000000da7 .LASF3230
C:\Users\SOLDER~1\AppData\Local\Temp\ccEQi33f.s:29250  .debug_str:0000000000025593 .LASF3231
C:\Users\SOLDER~1\AppData\Local\Temp\ccEQi33f.s:30388  .debug_str:000000000002a0d7 .LASF3232
C:\Users\SOLDER~1\AppData\Local\Temp\ccEQi33f.s:20504  .debug_str:0000000000001ddf .LASF3233
C:\Users\SOLDER~1\AppData\Local\Temp\ccEQi33f.s:24580  .debug_str:0000000000012643 .LASF3234
C:\Users\SOLDER~1\AppData\Local\Temp\ccEQi33f.s:31300  .debug_str:000000000002dbbe .LASF3235
C:\Users\SOLDER~1\AppData\Local\Temp\ccEQi33f.s:29084  .debug_str:0000000000024b34 .LASF3236
C:\Users\SOLDER~1\AppData\Local\Temp\ccEQi33f.s:23702  .debug_str:000000000000edbb .LASF3237
C:\Users\SOLDER~1\AppData\Local\Temp\ccEQi33f.s:27358  .debug_str:000000000001dacb .LASF3238
C:\Users\SOLDER~1\AppData\Local\Temp\ccEQi33f.s:30950  .debug_str:000000000002c531 .LASF3239
C:\Users\SOLDER~1\AppData\Local\Temp\ccEQi33f.s:23038  .debug_str:000000000000c1cf .LASF3240
C:\Users\SOLDER~1\AppData\Local\Temp\ccEQi33f.s:29134  .debug_str:0000000000024e58 .LASF3241
C:\Users\SOLDER~1\AppData\Local\Temp\ccEQi33f.s:30844  .debug_str:000000000002be23 .LASF3242
C:\Users\SOLDER~1\AppData\Local\Temp\ccEQi33f.s:24772  .debug_str:00000000000132bb .LASF3243
C:\Users\SOLDER~1\AppData\Local\Temp\ccEQi33f.s:23948  .debug_str:000000000000fe23 .LASF3244
C:\Users\SOLDER~1\AppData\Local\Temp\ccEQi33f.s:29844  .debug_str:0000000000027d6b .LASF3245
C:\Users\SOLDER~1\AppData\Local\Temp\ccEQi33f.s:27526  .debug_str:000000000001e5c1 .LASF3246
C:\Users\SOLDER~1\AppData\Local\Temp\ccEQi33f.s:30004  .debug_str:00000000000287f1 .LASF3247
C:\Users\SOLDER~1\AppData\Local\Temp\ccEQi33f.s:23800  .debug_str:000000000000f3f3 .LASF3248
C:\Users\SOLDER~1\AppData\Local\Temp\ccEQi33f.s:30744  .debug_str:000000000002b7af .LASF3249
C:\Users\SOLDER~1\AppData\Local\Temp\ccEQi33f.s:25202  .debug_str:0000000000015003 .LASF3250
C:\Users\SOLDER~1\AppData\Local\Temp\ccEQi33f.s:31394  .debug_str:000000000002e1ce .LASF3251
C:\Users\SOLDER~1\AppData\Local\Temp\ccEQi33f.s:30460  .debug_str:000000000002a592 .LASF3252
C:\Users\SOLDER~1\AppData\Local\Temp\ccEQi33f.s:29436  .debug_str:0000000000026289 .LASF3253
C:\Users\SOLDER~1\AppData\Local\Temp\ccEQi33f.s:30180  .debug_str:0000000000029323 .LASF3254
C:\Users\SOLDER~1\AppData\Local\Temp\ccEQi33f.s:27036  .debug_str:000000000001c599 .LASF3255
C:\Users\SOLDER~1\AppData\Local\Temp\ccEQi33f.s:24298  .debug_str:000000000001144e .LASF3256
C:\Users\SOLDER~1\AppData\Local\Temp\ccEQi33f.s:21972  .debug_str:0000000000007c3c .LASF3257
C:\Users\SOLDER~1\AppData\Local\Temp\ccEQi33f.s:22946  .debug_str:000000000000bbdd .LASF3258
C:\Users\SOLDER~1\AppData\Local\Temp\ccEQi33f.s:26868  .debug_str:000000000001ba5b .LASF3259
C:\Users\SOLDER~1\AppData\Local\Temp\ccEQi33f.s:24110  .debug_str:000000000001085c .LASF3260
C:\Users\SOLDER~1\AppData\Local\Temp\ccEQi33f.s:26764  .debug_str:000000000001b3ca .LASF3261
C:\Users\SOLDER~1\AppData\Local\Temp\ccEQi33f.s:28400  .debug_str:0000000000021e65 .LASF3262
GAS LISTING C:\Users\SOLDER~1\AppData\Local\Temp\ccEQi33f.s 			page 100


C:\Users\SOLDER~1\AppData\Local\Temp\ccEQi33f.s:28958  .debug_str:00000000000242ae .LASF3263
C:\Users\SOLDER~1\AppData\Local\Temp\ccEQi33f.s:23788  .debug_str:000000000000f302 .LASF3264
C:\Users\SOLDER~1\AppData\Local\Temp\ccEQi33f.s:29902  .debug_str:0000000000028139 .LASF3265
C:\Users\SOLDER~1\AppData\Local\Temp\ccEQi33f.s:26328  .debug_str:00000000000197e0 .LASF3266
C:\Users\SOLDER~1\AppData\Local\Temp\ccEQi33f.s:23100  .debug_str:000000000000c630 .LASF3267
C:\Users\SOLDER~1\AppData\Local\Temp\ccEQi33f.s:22328  .debug_str:00000000000093be .LASF3268
C:\Users\SOLDER~1\AppData\Local\Temp\ccEQi33f.s:22036  .debug_str:00000000000080a7 .LASF3269
C:\Users\SOLDER~1\AppData\Local\Temp\ccEQi33f.s:23860  .debug_str:000000000000f7f6 .LASF3270
C:\Users\SOLDER~1\AppData\Local\Temp\ccEQi33f.s:26074  .debug_str:000000000001879a .LASF3271
C:\Users\SOLDER~1\AppData\Local\Temp\ccEQi33f.s:25092  .debug_str:00000000000148ec .LASF3272
C:\Users\SOLDER~1\AppData\Local\Temp\ccEQi33f.s:27362  .debug_str:000000000001db0f .LASF3273
C:\Users\SOLDER~1\AppData\Local\Temp\ccEQi33f.s:20598  .debug_str:000000000000240b .LASF3274
C:\Users\SOLDER~1\AppData\Local\Temp\ccEQi33f.s:23600  .debug_str:000000000000e744 .LASF3275
C:\Users\SOLDER~1\AppData\Local\Temp\ccEQi33f.s:25270  .debug_str:000000000001549a .LASF3276
C:\Users\SOLDER~1\AppData\Local\Temp\ccEQi33f.s:27684  .debug_str:000000000001f01c .LASF3277
C:\Users\SOLDER~1\AppData\Local\Temp\ccEQi33f.s:28580  .debug_str:00000000000229dd .LASF3278
C:\Users\SOLDER~1\AppData\Local\Temp\ccEQi33f.s:31498  .debug_str:000000000002e89c .LASF3279
C:\Users\SOLDER~1\AppData\Local\Temp\ccEQi33f.s:30368  .debug_str:0000000000029f64 .LASF3280
C:\Users\SOLDER~1\AppData\Local\Temp\ccEQi33f.s:30638  .debug_str:000000000002b100 .LASF3281
C:\Users\SOLDER~1\AppData\Local\Temp\ccEQi33f.s:22202  .debug_str:0000000000008b4a .LASF3282
C:\Users\SOLDER~1\AppData\Local\Temp\ccEQi33f.s:25908  .debug_str:0000000000017cee .LASF3283
C:\Users\SOLDER~1\AppData\Local\Temp\ccEQi33f.s:31158  .debug_str:000000000002d2cc .LASF3284
C:\Users\SOLDER~1\AppData\Local\Temp\ccEQi33f.s:29054  .debug_str:000000000002491f .LASF3285
C:\Users\SOLDER~1\AppData\Local\Temp\ccEQi33f.s:23604  .debug_str:000000000000e796 .LASF3286
C:\Users\SOLDER~1\AppData\Local\Temp\ccEQi33f.s:25138  .debug_str:0000000000014c21 .LASF3287
C:\Users\SOLDER~1\AppData\Local\Temp\ccEQi33f.s:23060  .debug_str:000000000000c35f .LASF3288
C:\Users\SOLDER~1\AppData\Local\Temp\ccEQi33f.s:24316  .debug_str:000000000001159a .LASF3289
C:\Users\SOLDER~1\AppData\Local\Temp\ccEQi33f.s:24938  .debug_str:0000000000013e58 .LASF3290
C:\Users\SOLDER~1\AppData\Local\Temp\ccEQi33f.s:24312  .debug_str:000000000001154f .LASF3291
C:\Users\SOLDER~1\AppData\Local\Temp\ccEQi33f.s:27556  .debug_str:000000000001e79b .LASF3292
C:\Users\SOLDER~1\AppData\Local\Temp\ccEQi33f.s:24702  .debug_str:0000000000012e3b .LASF3293
C:\Users\SOLDER~1\AppData\Local\Temp\ccEQi33f.s:29824  .debug_str:0000000000027bfc .LASF3294
C:\Users\SOLDER~1\AppData\Local\Temp\ccEQi33f.s:27232  .debug_str:000000000001d2fb .LASF3295
C:\Users\SOLDER~1\AppData\Local\Temp\ccEQi33f.s:28368  .debug_str:0000000000021c67 .LASF3296
C:\Users\SOLDER~1\AppData\Local\Temp\ccEQi33f.s:25892  .debug_str:0000000000017bd9 .LASF3297
C:\Users\SOLDER~1\AppData\Local\Temp\ccEQi33f.s:21418  .debug_str:00000000000057fb .LASF3298
C:\Users\SOLDER~1\AppData\Local\Temp\ccEQi33f.s:23878  .debug_str:000000000000f92f .LASF3299
C:\Users\SOLDER~1\AppData\Local\Temp\ccEQi33f.s:25464  .debug_str:00000000000160c3 .LASF3300
C:\Users\SOLDER~1\AppData\Local\Temp\ccEQi33f.s:27336  .debug_str:000000000001d958 .LASF3301
C:\Users\SOLDER~1\AppData\Local\Temp\ccEQi33f.s:26904  .debug_str:000000000001bca4 .LASF3302
C:\Users\SOLDER~1\AppData\Local\Temp\ccEQi33f.s:23234  .debug_str:000000000000cf3e .LASF3303
C:\Users\SOLDER~1\AppData\Local\Temp\ccEQi33f.s:20822  .debug_str:000000000000326a .LASF3304
C:\Users\SOLDER~1\AppData\Local\Temp\ccEQi33f.s:26894  .debug_str:000000000001bbed .LASF3305
C:\Users\SOLDER~1\AppData\Local\Temp\ccEQi33f.s:22228  .debug_str:0000000000008cf4 .LASF3306
C:\Users\SOLDER~1\AppData\Local\Temp\ccEQi33f.s:23676  .debug_str:000000000000ebfc .LASF3307
C:\Users\SOLDER~1\AppData\Local\Temp\ccEQi33f.s:21124  .debug_str:0000000000004580 .LASF3308
C:\Users\SOLDER~1\AppData\Local\Temp\ccEQi33f.s:24018  .debug_str:0000000000010265 .LASF3309
C:\Users\SOLDER~1\AppData\Local\Temp\ccEQi33f.s:21308  .debug_str:00000000000050ea .LASF3310
C:\Users\SOLDER~1\AppData\Local\Temp\ccEQi33f.s:20104  .debug_str:0000000000000309 .LASF3311
C:\Users\SOLDER~1\AppData\Local\Temp\ccEQi33f.s:22506  .debug_str:0000000000009f53 .LASF3312
C:\Users\SOLDER~1\AppData\Local\Temp\ccEQi33f.s:27624  .debug_str:000000000001ec19 .LASF3313
C:\Users\SOLDER~1\AppData\Local\Temp\ccEQi33f.s:31464  .debug_str:000000000002e63a .LASF3314
C:\Users\SOLDER~1\AppData\Local\Temp\ccEQi33f.s:20290  .debug_str:0000000000000ffe .LASF3315
C:\Users\SOLDER~1\AppData\Local\Temp\ccEQi33f.s:20974  .debug_str:0000000000003c41 .LASF3316
C:\Users\SOLDER~1\AppData\Local\Temp\ccEQi33f.s:25518  .debug_str:000000000001644c .LASF3317
C:\Users\SOLDER~1\AppData\Local\Temp\ccEQi33f.s:26528  .debug_str:000000000001a48e .LASF3318
C:\Users\SOLDER~1\AppData\Local\Temp\ccEQi33f.s:26082  .debug_str:000000000001882a .LASF3319
GAS LISTING C:\Users\SOLDER~1\AppData\Local\Temp\ccEQi33f.s 			page 101


C:\Users\SOLDER~1\AppData\Local\Temp\ccEQi33f.s:31152  .debug_str:000000000002d267 .LASF3320
C:\Users\SOLDER~1\AppData\Local\Temp\ccEQi33f.s:27682  .debug_str:000000000001eff3 .LASF3321
C:\Users\SOLDER~1\AppData\Local\Temp\ccEQi33f.s:24220  .debug_str:0000000000010f4a .LASF3322
C:\Users\SOLDER~1\AppData\Local\Temp\ccEQi33f.s:20746  .debug_str:0000000000002d80 .LASF3323
C:\Users\SOLDER~1\AppData\Local\Temp\ccEQi33f.s:28792  .debug_str:00000000000237f2 .LASF3324
C:\Users\SOLDER~1\AppData\Local\Temp\ccEQi33f.s:24912  .debug_str:0000000000013c83 .LASF3325
C:\Users\SOLDER~1\AppData\Local\Temp\ccEQi33f.s:24346  .debug_str:000000000001175e .LASF3326
C:\Users\SOLDER~1\AppData\Local\Temp\ccEQi33f.s:23802  .debug_str:000000000000f422 .LASF3327
C:\Users\SOLDER~1\AppData\Local\Temp\ccEQi33f.s:26156  .debug_str:0000000000018d36 .LASF3328
C:\Users\SOLDER~1\AppData\Local\Temp\ccEQi33f.s:28858  .debug_str:0000000000023c1a .LASF3329
C:\Users\SOLDER~1\AppData\Local\Temp\ccEQi33f.s:20138  .debug_str:0000000000000547 .LASF3330
C:\Users\SOLDER~1\AppData\Local\Temp\ccEQi33f.s:21650  .debug_str:000000000000676c .LASF3331
C:\Users\SOLDER~1\AppData\Local\Temp\ccEQi33f.s:20650  .debug_str:0000000000002764 .LASF3332
C:\Users\SOLDER~1\AppData\Local\Temp\ccEQi33f.s:27780  .debug_str:000000000001f68e .LASF3333
C:\Users\SOLDER~1\AppData\Local\Temp\ccEQi33f.s:30126  .debug_str:0000000000028f7f .LASF3334
C:\Users\SOLDER~1\AppData\Local\Temp\ccEQi33f.s:23026  .debug_str:000000000000c0f9 .LASF3335
C:\Users\SOLDER~1\AppData\Local\Temp\ccEQi33f.s:28058  .debug_str:0000000000020826 .LASF3336
C:\Users\SOLDER~1\AppData\Local\Temp\ccEQi33f.s:21270  .debug_str:0000000000004eb5 .LASF3337
C:\Users\SOLDER~1\AppData\Local\Temp\ccEQi33f.s:22196  .debug_str:0000000000008ad8 .LASF3338
C:\Users\SOLDER~1\AppData\Local\Temp\ccEQi33f.s:23796  .debug_str:000000000000f3a0 .LASF3339
C:\Users\SOLDER~1\AppData\Local\Temp\ccEQi33f.s:21710  .debug_str:0000000000006b39 .LASF3340
C:\Users\SOLDER~1\AppData\Local\Temp\ccEQi33f.s:31508  .debug_str:000000000002e94e .LASF3341
C:\Users\SOLDER~1\AppData\Local\Temp\ccEQi33f.s:27080  .debug_str:000000000001c890 .LASF3342
C:\Users\SOLDER~1\AppData\Local\Temp\ccEQi33f.s:27930  .debug_str:0000000000020008 .LASF3343
C:\Users\SOLDER~1\AppData\Local\Temp\ccEQi33f.s:26182  .debug_str:0000000000018ef9 .LASF3344
C:\Users\SOLDER~1\AppData\Local\Temp\ccEQi33f.s:24364  .debug_str:000000000001189c .LASF3345
C:\Users\SOLDER~1\AppData\Local\Temp\ccEQi33f.s:21872  .debug_str:00000000000075e9 .LASF3346
C:\Users\SOLDER~1\AppData\Local\Temp\ccEQi33f.s:30552  .debug_str:000000000002ab67 .LASF3347
C:\Users\SOLDER~1\AppData\Local\Temp\ccEQi33f.s:22896  .debug_str:000000000000b872 .LASF3348
C:\Users\SOLDER~1\AppData\Local\Temp\ccEQi33f.s:25258  .debug_str:00000000000153d5 .LASF3349
C:\Users\SOLDER~1\AppData\Local\Temp\ccEQi33f.s:28408  .debug_str:0000000000021ef2 .LASF3350
C:\Users\SOLDER~1\AppData\Local\Temp\ccEQi33f.s:27710  .debug_str:000000000001f1df .LASF3351
C:\Users\SOLDER~1\AppData\Local\Temp\ccEQi33f.s:25008  .debug_str:0000000000014344 .LASF3352
C:\Users\SOLDER~1\AppData\Local\Temp\ccEQi33f.s:25286  .debug_str:00000000000155bb .LASF3353
C:\Users\SOLDER~1\AppData\Local\Temp\ccEQi33f.s:25018  .debug_str:00000000000143d6 .LASF3354
C:\Users\SOLDER~1\AppData\Local\Temp\ccEQi33f.s:21536  .debug_str:0000000000005f96 .LASF3355
C:\Users\SOLDER~1\AppData\Local\Temp\ccEQi33f.s:29602  .debug_str:0000000000026d6e .LASF3356
C:\Users\SOLDER~1\AppData\Local\Temp\ccEQi33f.s:28720  .debug_str:000000000002333f .LASF3357
C:\Users\SOLDER~1\AppData\Local\Temp\ccEQi33f.s:26032  .debug_str:00000000000184fe .LASF3358
C:\Users\SOLDER~1\AppData\Local\Temp\ccEQi33f.s:30794  .debug_str:000000000002bac3 .LASF3359
C:\Users\SOLDER~1\AppData\Local\Temp\ccEQi33f.s:23066  .debug_str:000000000000c3d6 .LASF3360
C:\Users\SOLDER~1\AppData\Local\Temp\ccEQi33f.s:27842  .debug_str:000000000001fa69 .LASF3361
C:\Users\SOLDER~1\AppData\Local\Temp\ccEQi33f.s:30620  .debug_str:000000000002afa1 .LASF3362
C:\Users\SOLDER~1\AppData\Local\Temp\ccEQi33f.s:30130  .debug_str:0000000000028fcc .LASF3363
C:\Users\SOLDER~1\AppData\Local\Temp\ccEQi33f.s:28018  .debug_str:00000000000205ab .LASF3364
C:\Users\SOLDER~1\AppData\Local\Temp\ccEQi33f.s:27376  .debug_str:000000000001dbeb .LASF3365
C:\Users\SOLDER~1\AppData\Local\Temp\ccEQi33f.s:28494  .debug_str:0000000000022417 .LASF3366
C:\Users\SOLDER~1\AppData\Local\Temp\ccEQi33f.s:29624  .debug_str:0000000000026f15 .LASF3367
C:\Users\SOLDER~1\AppData\Local\Temp\ccEQi33f.s:30698  .debug_str:000000000002b4af .LASF3368
C:\Users\SOLDER~1\AppData\Local\Temp\ccEQi33f.s:23880  .debug_str:000000000000f957 .LASF3369
C:\Users\SOLDER~1\AppData\Local\Temp\ccEQi33f.s:28596  .debug_str:0000000000022b04 .LASF3370
C:\Users\SOLDER~1\AppData\Local\Temp\ccEQi33f.s:29544  .debug_str:00000000000269c2 .LASF3371
C:\Users\SOLDER~1\AppData\Local\Temp\ccEQi33f.s:21518  .debug_str:0000000000005e78 .LASF3372
C:\Users\SOLDER~1\AppData\Local\Temp\ccEQi33f.s:31332  .debug_str:000000000002dde4 .LASF3373
C:\Users\SOLDER~1\AppData\Local\Temp\ccEQi33f.s:28504  .debug_str:00000000000224bd .LASF3374
C:\Users\SOLDER~1\AppData\Local\Temp\ccEQi33f.s:29968  .debug_str:0000000000028543 .LASF3375
C:\Users\SOLDER~1\AppData\Local\Temp\ccEQi33f.s:22792  .debug_str:000000000000b206 .LASF3376
GAS LISTING C:\Users\SOLDER~1\AppData\Local\Temp\ccEQi33f.s 			page 102


C:\Users\SOLDER~1\AppData\Local\Temp\ccEQi33f.s:24566  .debug_str:0000000000012576 .LASF3377
C:\Users\SOLDER~1\AppData\Local\Temp\ccEQi33f.s:27084  .debug_str:000000000001c8d2 .LASF3378
C:\Users\SOLDER~1\AppData\Local\Temp\ccEQi33f.s:26442  .debug_str:0000000000019f23 .LASF3379
C:\Users\SOLDER~1\AppData\Local\Temp\ccEQi33f.s:24632  .debug_str:0000000000012985 .LASF3380
C:\Users\SOLDER~1\AppData\Local\Temp\ccEQi33f.s:27754  .debug_str:000000000001f4d2 .LASF3381
C:\Users\SOLDER~1\AppData\Local\Temp\ccEQi33f.s:25850  .debug_str:0000000000017930 .LASF3382
C:\Users\SOLDER~1\AppData\Local\Temp\ccEQi33f.s:31382  .debug_str:000000000002e103 .LASF3383
C:\Users\SOLDER~1\AppData\Local\Temp\ccEQi33f.s:26800  .debug_str:000000000001b60e .LASF3384
C:\Users\SOLDER~1\AppData\Local\Temp\ccEQi33f.s:26398  .debug_str:0000000000019c7e .LASF3385
C:\Users\SOLDER~1\AppData\Local\Temp\ccEQi33f.s:30284  .debug_str:00000000000299ad .LASF3386
C:\Users\SOLDER~1\AppData\Local\Temp\ccEQi33f.s:25080  .debug_str:00000000000147f7 .LASF3387
C:\Users\SOLDER~1\AppData\Local\Temp\ccEQi33f.s:31062  .debug_str:000000000002cc1e .LASF3388
C:\Users\SOLDER~1\AppData\Local\Temp\ccEQi33f.s:25166  .debug_str:0000000000014dec .LASF3389
C:\Users\SOLDER~1\AppData\Local\Temp\ccEQi33f.s:27518  .debug_str:000000000001e52b .LASF3390
C:\Users\SOLDER~1\AppData\Local\Temp\ccEQi33f.s:31606  .debug_str:000000000002ef47 .LASF3391
C:\Users\SOLDER~1\AppData\Local\Temp\ccEQi33f.s:23690  .debug_str:000000000000ecef .LASF3392
C:\Users\SOLDER~1\AppData\Local\Temp\ccEQi33f.s:22234  .debug_str:0000000000008d69 .LASF3393
C:\Users\SOLDER~1\AppData\Local\Temp\ccEQi33f.s:20372  .debug_str:000000000000154e .LASF3394
C:\Users\SOLDER~1\AppData\Local\Temp\ccEQi33f.s:29254  .debug_str:00000000000255be .LASF3395
C:\Users\SOLDER~1\AppData\Local\Temp\ccEQi33f.s:29376  .debug_str:0000000000025e35 .LASF3396
C:\Users\SOLDER~1\AppData\Local\Temp\ccEQi33f.s:26450  .debug_str:0000000000019fae .LASF3397
C:\Users\SOLDER~1\AppData\Local\Temp\ccEQi33f.s:23518  .debug_str:000000000000e21a .LASF3398
C:\Users\SOLDER~1\AppData\Local\Temp\ccEQi33f.s:22544  .debug_str:000000000000a1eb .LASF3399
C:\Users\SOLDER~1\AppData\Local\Temp\ccEQi33f.s:25698  .debug_str:0000000000016f30 .LASF3400
C:\Users\SOLDER~1\AppData\Local\Temp\ccEQi33f.s:25912  .debug_str:0000000000017d3d .LASF3401
C:\Users\SOLDER~1\AppData\Local\Temp\ccEQi33f.s:30382  .debug_str:000000000002a050 .LASF3402
C:\Users\SOLDER~1\AppData\Local\Temp\ccEQi33f.s:25692  .debug_str:0000000000016ed0 .LASF3403
C:\Users\SOLDER~1\AppData\Local\Temp\ccEQi33f.s:29588  .debug_str:0000000000026ca5 .LASF3404
C:\Users\SOLDER~1\AppData\Local\Temp\ccEQi33f.s:22796  .debug_str:000000000000b240 .LASF3405
C:\Users\SOLDER~1\AppData\Local\Temp\ccEQi33f.s:27536  .debug_str:000000000001e67e .LASF3406
C:\Users\SOLDER~1\AppData\Local\Temp\ccEQi33f.s:20736  .debug_str:0000000000002cd2 .LASF3407
C:\Users\SOLDER~1\AppData\Local\Temp\ccEQi33f.s:22422  .debug_str:00000000000099cf .LASF3408
C:\Users\SOLDER~1\AppData\Local\Temp\ccEQi33f.s:30230  .debug_str:0000000000029679 .LASF3409
C:\Users\SOLDER~1\AppData\Local\Temp\ccEQi33f.s:30980  .debug_str:000000000002c723 .LASF3410
C:\Users\SOLDER~1\AppData\Local\Temp\ccEQi33f.s:20902  .debug_str:000000000000378c .LASF3411
C:\Users\SOLDER~1\AppData\Local\Temp\ccEQi33f.s:30682  .debug_str:000000000002b3b3 .LASF3412
C:\Users\SOLDER~1\AppData\Local\Temp\ccEQi33f.s:28856  .debug_str:0000000000023bf0 .LASF3413
C:\Users\SOLDER~1\AppData\Local\Temp\ccEQi33f.s:27110  .debug_str:000000000001cab3 .LASF3414
C:\Users\SOLDER~1\AppData\Local\Temp\ccEQi33f.s:25352  .debug_str:00000000000159ab .LASF3415
C:\Users\SOLDER~1\AppData\Local\Temp\ccEQi33f.s:30440  .debug_str:000000000002a446 .LASF3416
C:\Users\SOLDER~1\AppData\Local\Temp\ccEQi33f.s:21780  .debug_str:0000000000007010 .LASF3417
C:\Users\SOLDER~1\AppData\Local\Temp\ccEQi33f.s:25176  .debug_str:0000000000014e7c .LASF3418
C:\Users\SOLDER~1\AppData\Local\Temp\ccEQi33f.s:24198  .debug_str:0000000000010ddd .LASF3419
C:\Users\SOLDER~1\AppData\Local\Temp\ccEQi33f.s:23698  .debug_str:000000000000ed79 .LASF3420
C:\Users\SOLDER~1\AppData\Local\Temp\ccEQi33f.s:29010  .debug_str:0000000000024640 .LASF3421
C:\Users\SOLDER~1\AppData\Local\Temp\ccEQi33f.s:29224  .debug_str:00000000000253e6 .LASF3422
C:\Users\SOLDER~1\AppData\Local\Temp\ccEQi33f.s:24362  .debug_str:0000000000011875 .LASF3423
C:\Users\SOLDER~1\AppData\Local\Temp\ccEQi33f.s:30086  .debug_str:0000000000028d19 .LASF3424
C:\Users\SOLDER~1\AppData\Local\Temp\ccEQi33f.s:27446  .debug_str:000000000001e0a2 .LASF3425
C:\Users\SOLDER~1\AppData\Local\Temp\ccEQi33f.s:28008  .debug_str:0000000000020513 .LASF3426
C:\Users\SOLDER~1\AppData\Local\Temp\ccEQi33f.s:24554  .debug_str:000000000001248f .LASF3427
C:\Users\SOLDER~1\AppData\Local\Temp\ccEQi33f.s:26428  .debug_str:0000000000019e2e .LASF3428
C:\Users\SOLDER~1\AppData\Local\Temp\ccEQi33f.s:20966  .debug_str:0000000000003bb9 .LASF3429
C:\Users\SOLDER~1\AppData\Local\Temp\ccEQi33f.s:25756  .debug_str:0000000000017300 .LASF3430
C:\Users\SOLDER~1\AppData\Local\Temp\ccEQi33f.s:22258  .debug_str:0000000000008f04 .LASF3431
C:\Users\SOLDER~1\AppData\Local\Temp\ccEQi33f.s:28108  .debug_str:0000000000020b77 .LASF3432
C:\Users\SOLDER~1\AppData\Local\Temp\ccEQi33f.s:30876  .debug_str:000000000002c079 .LASF3433
GAS LISTING C:\Users\SOLDER~1\AppData\Local\Temp\ccEQi33f.s 			page 103


C:\Users\SOLDER~1\AppData\Local\Temp\ccEQi33f.s:24204  .debug_str:0000000000010e4a .LASF3434
C:\Users\SOLDER~1\AppData\Local\Temp\ccEQi33f.s:23638  .debug_str:000000000000e9d9 .LASF3435
C:\Users\SOLDER~1\AppData\Local\Temp\ccEQi33f.s:27634  .debug_str:000000000001eccd .LASF3436
C:\Users\SOLDER~1\AppData\Local\Temp\ccEQi33f.s:30400  .debug_str:000000000002a1aa .LASF3437
C:\Users\SOLDER~1\AppData\Local\Temp\ccEQi33f.s:21624  .debug_str:0000000000006585 .LASF3438
C:\Users\SOLDER~1\AppData\Local\Temp\ccEQi33f.s:24388  .debug_str:0000000000011a13 .LASF3439
C:\Users\SOLDER~1\AppData\Local\Temp\ccEQi33f.s:22168  .debug_str:00000000000088ee .LASF3440
C:\Users\SOLDER~1\AppData\Local\Temp\ccEQi33f.s:26908  .debug_str:000000000001bcf3 .LASF3441
C:\Users\SOLDER~1\AppData\Local\Temp\ccEQi33f.s:20120  .debug_str:000000000000040e .LASF3442
C:\Users\SOLDER~1\AppData\Local\Temp\ccEQi33f.s:23070  .debug_str:000000000000c419 .LASF3443
C:\Users\SOLDER~1\AppData\Local\Temp\ccEQi33f.s:29564  .debug_str:0000000000026b22 .LASF3444
C:\Users\SOLDER~1\AppData\Local\Temp\ccEQi33f.s:21584  .debug_str:00000000000062e2 .LASF3445
C:\Users\SOLDER~1\AppData\Local\Temp\ccEQi33f.s:27516  .debug_str:000000000001e501 .LASF3446
C:\Users\SOLDER~1\AppData\Local\Temp\ccEQi33f.s:25022  .debug_str:0000000000014426 .LASF3447
C:\Users\SOLDER~1\AppData\Local\Temp\ccEQi33f.s:23214  .debug_str:000000000000ce06 .LASF3448
C:\Users\SOLDER~1\AppData\Local\Temp\ccEQi33f.s:29606  .debug_str:0000000000026dc0 .LASF3449
C:\Users\SOLDER~1\AppData\Local\Temp\ccEQi33f.s:31234  .debug_str:000000000002d7a5 .LASF3450
C:\Users\SOLDER~1\AppData\Local\Temp\ccEQi33f.s:25344  .debug_str:000000000001592e .LASF3451
C:\Users\SOLDER~1\AppData\Local\Temp\ccEQi33f.s:27662  .debug_str:000000000001ee9d .LASF3452
C:\Users\SOLDER~1\AppData\Local\Temp\ccEQi33f.s:25920  .debug_str:0000000000017dbb .LASF3453
C:\Users\SOLDER~1\AppData\Local\Temp\ccEQi33f.s:21146  .debug_str:000000000000470c .LASF3454
C:\Users\SOLDER~1\AppData\Local\Temp\ccEQi33f.s:26186  .debug_str:0000000000018f43 .LASF3455
C:\Users\SOLDER~1\AppData\Local\Temp\ccEQi33f.s:20696  .debug_str:0000000000002a80 .LASF3456
C:\Users\SOLDER~1\AppData\Local\Temp\ccEQi33f.s:30668  .debug_str:000000000002b2da .LASF3457
C:\Users\SOLDER~1\AppData\Local\Temp\ccEQi33f.s:29872  .debug_str:0000000000027f40 .LASF3458
C:\Users\SOLDER~1\AppData\Local\Temp\ccEQi33f.s:31468  .debug_str:000000000002e678 .LASF3459
C:\Users\SOLDER~1\AppData\Local\Temp\ccEQi33f.s:24372  .debug_str:0000000000011940 .LASF3460
C:\Users\SOLDER~1\AppData\Local\Temp\ccEQi33f.s:29094  .debug_str:0000000000024bc4 .LASF3461
C:\Users\SOLDER~1\AppData\Local\Temp\ccEQi33f.s:24468  .debug_str:0000000000011f28 .LASF3462
C:\Users\SOLDER~1\AppData\Local\Temp\ccEQi33f.s:29904  .debug_str:0000000000028158 .LASF3463
C:\Users\SOLDER~1\AppData\Local\Temp\ccEQi33f.s:28414  .debug_str:0000000000021f50 .LASF3464
C:\Users\SOLDER~1\AppData\Local\Temp\ccEQi33f.s:21400  .debug_str:00000000000056a5 .LASF3465
C:\Users\SOLDER~1\AppData\Local\Temp\ccEQi33f.s:23836  .debug_str:000000000000f648 .LASF3466
C:\Users\SOLDER~1\AppData\Local\Temp\ccEQi33f.s:25714  .debug_str:000000000001704c .LASF3467
C:\Users\SOLDER~1\AppData\Local\Temp\ccEQi33f.s:25888  .debug_str:0000000000017ba0 .LASF3468
C:\Users\SOLDER~1\AppData\Local\Temp\ccEQi33f.s:20680  .debug_str:000000000000298d .LASF3469
C:\Users\SOLDER~1\AppData\Local\Temp\ccEQi33f.s:26020  .debug_str:000000000001843a .LASF3470
C:\Users\SOLDER~1\AppData\Local\Temp\ccEQi33f.s:30754  .debug_str:000000000002b842 .LASF3471
C:\Users\SOLDER~1\AppData\Local\Temp\ccEQi33f.s:27588  .debug_str:000000000001e9e3 .LASF3472
C:\Users\SOLDER~1\AppData\Local\Temp\ccEQi33f.s:20950  .debug_str:0000000000003ab8 .LASF3473
C:\Users\SOLDER~1\AppData\Local\Temp\ccEQi33f.s:21628  .debug_str:00000000000065d1 .LASF3474
C:\Users\SOLDER~1\AppData\Local\Temp\ccEQi33f.s:24866  .debug_str:000000000001392e .LASF3475
C:\Users\SOLDER~1\AppData\Local\Temp\ccEQi33f.s:23182  .debug_str:000000000000cbf0 .LASF3476
C:\Users\SOLDER~1\AppData\Local\Temp\ccEQi33f.s:24974  .debug_str:00000000000140b5 .LASF3477
C:\Users\SOLDER~1\AppData\Local\Temp\ccEQi33f.s:21890  .debug_str:0000000000007707 .LASF3478
C:\Users\SOLDER~1\AppData\Local\Temp\ccEQi33f.s:22230  .debug_str:0000000000008d24 .LASF3479
C:\Users\SOLDER~1\AppData\Local\Temp\ccEQi33f.s:21838  .debug_str:00000000000073dd .LASF3480
C:\Users\SOLDER~1\AppData\Local\Temp\ccEQi33f.s:27644  .debug_str:000000000001ed72 .LASF3481
C:\Users\SOLDER~1\AppData\Local\Temp\ccEQi33f.s:30664  .debug_str:000000000002b29d .LASF3482
C:\Users\SOLDER~1\AppData\Local\Temp\ccEQi33f.s:20802  .debug_str:0000000000003120 .LASF3483
C:\Users\SOLDER~1\AppData\Local\Temp\ccEQi33f.s:28434  .debug_str:0000000000022084 .LASF3484
C:\Users\SOLDER~1\AppData\Local\Temp\ccEQi33f.s:24852  .debug_str:0000000000013822 .LASF3485
C:\Users\SOLDER~1\AppData\Local\Temp\ccEQi33f.s:22012  .debug_str:0000000000007f04 .LASF3486
C:\Users\SOLDER~1\AppData\Local\Temp\ccEQi33f.s:20780  .debug_str:0000000000002fcd .LASF3487
C:\Users\SOLDER~1\AppData\Local\Temp\ccEQi33f.s:29958  .debug_str:00000000000284a7 .LASF3488
C:\Users\SOLDER~1\AppData\Local\Temp\ccEQi33f.s:26112  .debug_str:0000000000018a3b .LASF3489
C:\Users\SOLDER~1\AppData\Local\Temp\ccEQi33f.s:27480  .debug_str:000000000001e2c8 .LASF3490
GAS LISTING C:\Users\SOLDER~1\AppData\Local\Temp\ccEQi33f.s 			page 104


C:\Users\SOLDER~1\AppData\Local\Temp\ccEQi33f.s:24766  .debug_str:000000000001325f .LASF3491
C:\Users\SOLDER~1\AppData\Local\Temp\ccEQi33f.s:27012  .debug_str:000000000001c405 .LASF3492
C:\Users\SOLDER~1\AppData\Local\Temp\ccEQi33f.s:23540  .debug_str:000000000000e38e .LASF3493
C:\Users\SOLDER~1\AppData\Local\Temp\ccEQi33f.s:23000  .debug_str:000000000000bf3a .LASF3494
C:\Users\SOLDER~1\AppData\Local\Temp\ccEQi33f.s:28074  .debug_str:0000000000020938 .LASF3495
C:\Users\SOLDER~1\AppData\Local\Temp\ccEQi33f.s:30572  .debug_str:000000000002aca4 .LASF3496
C:\Users\SOLDER~1\AppData\Local\Temp\ccEQi33f.s:29646  .debug_str:0000000000027069 .LASF3497
C:\Users\SOLDER~1\AppData\Local\Temp\ccEQi33f.s:21754  .debug_str:0000000000006e2e .LASF3498
C:\Users\SOLDER~1\AppData\Local\Temp\ccEQi33f.s:26104  .debug_str:00000000000189ad .LASF3499
C:\Users\SOLDER~1\AppData\Local\Temp\ccEQi33f.s:25478  .debug_str:00000000000161b0 .LASF3500
C:\Users\SOLDER~1\AppData\Local\Temp\ccEQi33f.s:21366  .debug_str:0000000000005484 .LASF3501
C:\Users\SOLDER~1\AppData\Local\Temp\ccEQi33f.s:20716  .debug_str:0000000000002b92 .LASF3502
C:\Users\SOLDER~1\AppData\Local\Temp\ccEQi33f.s:22694  .debug_str:000000000000abc9 .LASF3503
C:\Users\SOLDER~1\AppData\Local\Temp\ccEQi33f.s:28830  .debug_str:0000000000023a4c .LASF3504
C:\Users\SOLDER~1\AppData\Local\Temp\ccEQi33f.s:31516  .debug_str:000000000002e9cd .LASF3505
C:\Users\SOLDER~1\AppData\Local\Temp\ccEQi33f.s:29124  .debug_str:0000000000024dac .LASF3506
C:\Users\SOLDER~1\AppData\Local\Temp\ccEQi33f.s:30208  .debug_str:0000000000029523 .LASF3507
C:\Users\SOLDER~1\AppData\Local\Temp\ccEQi33f.s:29936  .debug_str:000000000002834a .LASF3508
C:\Users\SOLDER~1\AppData\Local\Temp\ccEQi33f.s:22072  .debug_str:00000000000082f0 .LASF3509
C:\Users\SOLDER~1\AppData\Local\Temp\ccEQi33f.s:27082  .debug_str:000000000001c8b9 .LASF3510
C:\Users\SOLDER~1\AppData\Local\Temp\ccEQi33f.s:29682  .debug_str:00000000000272cf .LASF3511
C:\Users\SOLDER~1\AppData\Local\Temp\ccEQi33f.s:30910  .debug_str:000000000002c2c2 .LASF3512
C:\Users\SOLDER~1\AppData\Local\Temp\ccEQi33f.s:23670  .debug_str:000000000000eb9a .LASF3513
C:\Users\SOLDER~1\AppData\Local\Temp\ccEQi33f.s:31322  .debug_str:000000000002dd51 .LASF3514
C:\Users\SOLDER~1\AppData\Local\Temp\ccEQi33f.s:27574  .debug_str:000000000001e8f4 .LASF3515
C:\Users\SOLDER~1\AppData\Local\Temp\ccEQi33f.s:29466  .debug_str:00000000000264a2 .LASF3516
C:\Users\SOLDER~1\AppData\Local\Temp\ccEQi33f.s:21506  .debug_str:0000000000005dc1 .LASF3517
C:\Users\SOLDER~1\AppData\Local\Temp\ccEQi33f.s:30108  .debug_str:0000000000028e67 .LASF3518
C:\Users\SOLDER~1\AppData\Local\Temp\ccEQi33f.s:26440  .debug_str:0000000000019f00 .LASF3519
C:\Users\SOLDER~1\AppData\Local\Temp\ccEQi33f.s:25720  .debug_str:00000000000170be .LASF3520
C:\Users\SOLDER~1\AppData\Local\Temp\ccEQi33f.s:30476  .debug_str:000000000002a6ae .LASF3521
C:\Users\SOLDER~1\AppData\Local\Temp\ccEQi33f.s:23784  .debug_str:000000000000f2cd .LASF3522
C:\Users\SOLDER~1\AppData\Local\Temp\ccEQi33f.s:26750  .debug_str:000000000001b2de .LASF3523
C:\Users\SOLDER~1\AppData\Local\Temp\ccEQi33f.s:21900  .debug_str:0000000000007787 .LASF3524
C:\Users\SOLDER~1\AppData\Local\Temp\ccEQi33f.s:25422  .debug_str:0000000000015e00 .LASF3525
C:\Users\SOLDER~1\AppData\Local\Temp\ccEQi33f.s:20714  .debug_str:0000000000002b79 .LASF3526
C:\Users\SOLDER~1\AppData\Local\Temp\ccEQi33f.s:25734  .debug_str:00000000000171b2 .LASF3527
C:\Users\SOLDER~1\AppData\Local\Temp\ccEQi33f.s:30164  .debug_str:0000000000029222 .LASF3528
C:\Users\SOLDER~1\AppData\Local\Temp\ccEQi33f.s:20410  .debug_str:00000000000017ba .LASF3529
C:\Users\SOLDER~1\AppData\Local\Temp\ccEQi33f.s:30944  .debug_str:000000000002c4d3 .LASF3530
C:\Users\SOLDER~1\AppData\Local\Temp\ccEQi33f.s:25760  .debug_str:0000000000017355 .LASF3531
C:\Users\SOLDER~1\AppData\Local\Temp\ccEQi33f.s:27420  .debug_str:000000000001df0e .LASF3532
C:\Users\SOLDER~1\AppData\Local\Temp\ccEQi33f.s:23454  .debug_str:000000000000dd81 .LASF3533
C:\Users\SOLDER~1\AppData\Local\Temp\ccEQi33f.s:30694  .debug_str:000000000002b474 .LASF3534
C:\Users\SOLDER~1\AppData\Local\Temp\ccEQi33f.s:23882  .debug_str:000000000000f980 .LASF3535
C:\Users\SOLDER~1\AppData\Local\Temp\ccEQi33f.s:28212  .debug_str:0000000000021278 .LASF3536
C:\Users\SOLDER~1\AppData\Local\Temp\ccEQi33f.s:21110  .debug_str:00000000000044b3 .LASF3537
C:\Users\SOLDER~1\AppData\Local\Temp\ccEQi33f.s:24148  .debug_str:0000000000010ad8 .LASF3538
C:\Users\SOLDER~1\AppData\Local\Temp\ccEQi33f.s:20708  .debug_str:0000000000002b2f .LASF3539
C:\Users\SOLDER~1\AppData\Local\Temp\ccEQi33f.s:25384  .debug_str:0000000000015ba3 .LASF3540
C:\Users\SOLDER~1\AppData\Local\Temp\ccEQi33f.s:27000  .debug_str:000000000001c337 .LASF3541
C:\Users\SOLDER~1\AppData\Local\Temp\ccEQi33f.s:20098  .debug_str:00000000000002b1 .LASF3542
C:\Users\SOLDER~1\AppData\Local\Temp\ccEQi33f.s:23744  .debug_str:000000000000f04c .LASF3543
C:\Users\SOLDER~1\AppData\Local\Temp\ccEQi33f.s:28486  .debug_str:0000000000022390 .LASF3544
C:\Users\SOLDER~1\AppData\Local\Temp\ccEQi33f.s:31264  .debug_str:000000000002d98d .LASF3545
C:\Users\SOLDER~1\AppData\Local\Temp\ccEQi33f.s:28284  .debug_str:0000000000021718 .LASF3546
C:\Users\SOLDER~1\AppData\Local\Temp\ccEQi33f.s:21612  .debug_str:00000000000064bf .LASF3547
GAS LISTING C:\Users\SOLDER~1\AppData\Local\Temp\ccEQi33f.s 			page 105


C:\Users\SOLDER~1\AppData\Local\Temp\ccEQi33f.s:21478  .debug_str:0000000000005c00 .LASF3548
C:\Users\SOLDER~1\AppData\Local\Temp\ccEQi33f.s:23158  .debug_str:000000000000ca52 .LASF3549
C:\Users\SOLDER~1\AppData\Local\Temp\ccEQi33f.s:20266  .debug_str:0000000000000e8a .LASF3550
C:\Users\SOLDER~1\AppData\Local\Temp\ccEQi33f.s:23972  .debug_str:000000000000ffa9 .LASF3551
C:\Users\SOLDER~1\AppData\Local\Temp\ccEQi33f.s:21706  .debug_str:0000000000006b0d .LASF3552
C:\Users\SOLDER~1\AppData\Local\Temp\ccEQi33f.s:21294  .debug_str:0000000000005027 .LASF3553
C:\Users\SOLDER~1\AppData\Local\Temp\ccEQi33f.s:20472  .debug_str:0000000000001bba .LASF3554
C:\Users\SOLDER~1\AppData\Local\Temp\ccEQi33f.s:29196  .debug_str:000000000002522d .LASF3555
C:\Users\SOLDER~1\AppData\Local\Temp\ccEQi33f.s:20252  .debug_str:0000000000000dc9 .LASF3556
C:\Users\SOLDER~1\AppData\Local\Temp\ccEQi33f.s:26570  .debug_str:000000000001a781 .LASF3557
C:\Users\SOLDER~1\AppData\Local\Temp\ccEQi33f.s:23760  .debug_str:000000000000f151 .LASF3558
C:\Users\SOLDER~1\AppData\Local\Temp\ccEQi33f.s:20580  .debug_str:00000000000022d2 .LASF3559
C:\Users\SOLDER~1\AppData\Local\Temp\ccEQi33f.s:21348  .debug_str:000000000000538d .LASF3560
C:\Users\SOLDER~1\AppData\Local\Temp\ccEQi33f.s:23648  .debug_str:000000000000ea69 .LASF3561
C:\Users\SOLDER~1\AppData\Local\Temp\ccEQi33f.s:24512  .debug_str:00000000000121e6 .LASF3562
C:\Users\SOLDER~1\AppData\Local\Temp\ccEQi33f.s:31044  .debug_str:000000000002cb15 .LASF3563
C:\Users\SOLDER~1\AppData\Local\Temp\ccEQi33f.s:25434  .debug_str:0000000000015ec8 .LASF3564
C:\Users\SOLDER~1\AppData\Local\Temp\ccEQi33f.s:26872  .debug_str:000000000001ba9a .LASF3565
C:\Users\SOLDER~1\AppData\Local\Temp\ccEQi33f.s:27610  .debug_str:000000000001eb43 .LASF3566
C:\Users\SOLDER~1\AppData\Local\Temp\ccEQi33f.s:20676  .debug_str:0000000000002949 .LASF3567
C:\Users\SOLDER~1\AppData\Local\Temp\ccEQi33f.s:25646  .debug_str:0000000000016c00 .LASF3568
C:\Users\SOLDER~1\AppData\Local\Temp\ccEQi33f.s:24462  .debug_str:0000000000011ec9 .LASF3569
C:\Users\SOLDER~1\AppData\Local\Temp\ccEQi33f.s:30714  .debug_str:000000000002b5dd .LASF3570
C:\Users\SOLDER~1\AppData\Local\Temp\ccEQi33f.s:28010  .debug_str:000000000002053d .LASF3571
C:\Users\SOLDER~1\AppData\Local\Temp\ccEQi33f.s:20632  .debug_str:000000000000261e .LASF3572
C:\Users\SOLDER~1\AppData\Local\Temp\ccEQi33f.s:26172  .debug_str:0000000000018e4a .LASF3573
C:\Users\SOLDER~1\AppData\Local\Temp\ccEQi33f.s:24066  .debug_str:00000000000105a7 .LASF3574
C:\Users\SOLDER~1\AppData\Local\Temp\ccEQi33f.s:23342  .debug_str:000000000000d654 .LASF3575
C:\Users\SOLDER~1\AppData\Local\Temp\ccEQi33f.s:29490  .debug_str:000000000002660f .LASF3576
C:\Users\SOLDER~1\AppData\Local\Temp\ccEQi33f.s:30968  .debug_str:000000000002c656 .LASF3577
C:\Users\SOLDER~1\AppData\Local\Temp\ccEQi33f.s:24762  .debug_str:0000000000013228 .LASF3578
C:\Users\SOLDER~1\AppData\Local\Temp\ccEQi33f.s:28790  .debug_str:00000000000237cf .LASF3579
C:\Users\SOLDER~1\AppData\Local\Temp\ccEQi33f.s:31370  .debug_str:000000000002e047 .LASF3580
C:\Users\SOLDER~1\AppData\Local\Temp\ccEQi33f.s:21144  .debug_str:00000000000046eb .LASF3581
C:\Users\SOLDER~1\AppData\Local\Temp\ccEQi33f.s:25510  .debug_str:00000000000163b0 .LASF3582
C:\Users\SOLDER~1\AppData\Local\Temp\ccEQi33f.s:25858  .debug_str:00000000000179a9 .LASF3583
C:\Users\SOLDER~1\AppData\Local\Temp\ccEQi33f.s:20684  .debug_str:00000000000029c9 .LASF3584
C:\Users\SOLDER~1\AppData\Local\Temp\ccEQi33f.s:21994  .debug_str:0000000000007dc3 .LASF3585
C:\Users\SOLDER~1\AppData\Local\Temp\ccEQi33f.s:20126  .debug_str:0000000000000482 .LASF3586
C:\Users\SOLDER~1\AppData\Local\Temp\ccEQi33f.s:28464  .debug_str:0000000000022220 .LASF3587
C:\Users\SOLDER~1\AppData\Local\Temp\ccEQi33f.s:23894  .debug_str:000000000000fa56 .LASF3588
C:\Users\SOLDER~1\AppData\Local\Temp\ccEQi33f.s:29292  .debug_str:000000000002587d .LASF3589
C:\Users\SOLDER~1\AppData\Local\Temp\ccEQi33f.s:28852  .debug_str:0000000000023bb0 .LASF3590
C:\Users\SOLDER~1\AppData\Local\Temp\ccEQi33f.s:31424  .debug_str:000000000002e39c .LASF3591
C:\Users\SOLDER~1\AppData\Local\Temp\ccEQi33f.s:22642  .debug_str:000000000000a856 .LASF3592
C:\Users\SOLDER~1\AppData\Local\Temp\ccEQi33f.s:23660  .debug_str:000000000000eafe .LASF3593
C:\Users\SOLDER~1\AppData\Local\Temp\ccEQi33f.s:24338  .debug_str:00000000000116d4 .LASF3594
C:\Users\SOLDER~1\AppData\Local\Temp\ccEQi33f.s:20866  .debug_str:000000000000355d .LASF3595
C:\Users\SOLDER~1\AppData\Local\Temp\ccEQi33f.s:29268  .debug_str:00000000000256b2 .LASF3596
C:\Users\SOLDER~1\AppData\Local\Temp\ccEQi33f.s:26854  .debug_str:000000000001b948 .LASF3597
C:\Users\SOLDER~1\AppData\Local\Temp\ccEQi33f.s:30688  .debug_str:000000000002b410 .LASF3598
C:\Users\SOLDER~1\AppData\Local\Temp\ccEQi33f.s:23192  .debug_str:000000000000cc95 .LASF3599
C:\Users\SOLDER~1\AppData\Local\Temp\ccEQi33f.s:20158  .debug_str:0000000000000722 .LASF3600
C:\Users\SOLDER~1\AppData\Local\Temp\ccEQi33f.s:30386  .debug_str:000000000002a0b3 .LASF3601
C:\Users\SOLDER~1\AppData\Local\Temp\ccEQi33f.s:26806  .debug_str:000000000001b666 .LASF3602
C:\Users\SOLDER~1\AppData\Local\Temp\ccEQi33f.s:24340  .debug_str:00000000000116f5 .LASF3603
C:\Users\SOLDER~1\AppData\Local\Temp\ccEQi33f.s:27766  .debug_str:000000000001f5b5 .LASF3604
GAS LISTING C:\Users\SOLDER~1\AppData\Local\Temp\ccEQi33f.s 			page 106


C:\Users\SOLDER~1\AppData\Local\Temp\ccEQi33f.s:29072  .debug_str:0000000000024a47 .LASF3605
C:\Users\SOLDER~1\AppData\Local\Temp\ccEQi33f.s:26672  .debug_str:000000000001ae44 .LASF3606
C:\Users\SOLDER~1\AppData\Local\Temp\ccEQi33f.s:23112  .debug_str:000000000000c70d .LASF3607
C:\Users\SOLDER~1\AppData\Local\Temp\ccEQi33f.s:26822  .debug_str:000000000001b75a .LASF3608
C:\Users\SOLDER~1\AppData\Local\Temp\ccEQi33f.s:30964  .debug_str:000000000002c610 .LASF3609
C:\Users\SOLDER~1\AppData\Local\Temp\ccEQi33f.s:23926  .debug_str:000000000000fcae .LASF3610
C:\Users\SOLDER~1\AppData\Local\Temp\ccEQi33f.s:30280  .debug_str:000000000002995a .LASF3611
C:\Users\SOLDER~1\AppData\Local\Temp\ccEQi33f.s:20406  .debug_str:000000000000178f .LASF3612
C:\Users\SOLDER~1\AppData\Local\Temp\ccEQi33f.s:22182  .debug_str:00000000000089ef .LASF3613
C:\Users\SOLDER~1\AppData\Local\Temp\ccEQi33f.s:28882  .debug_str:0000000000023dbc .LASF3614
C:\Users\SOLDER~1\AppData\Local\Temp\ccEQi33f.s:28264  .debug_str:00000000000215d0 .LASF3615
C:\Users\SOLDER~1\AppData\Local\Temp\ccEQi33f.s:28782  .debug_str:0000000000023762 .LASF3616
C:\Users\SOLDER~1\AppData\Local\Temp\ccEQi33f.s:30048  .debug_str:0000000000028a9f .LASF3617
C:\Users\SOLDER~1\AppData\Local\Temp\ccEQi33f.s:29114  .debug_str:0000000000024d00 .LASF3618
C:\Users\SOLDER~1\AppData\Local\Temp\ccEQi33f.s:23296  .debug_str:000000000000d366 .LASF3619
C:\Users\SOLDER~1\AppData\Local\Temp\ccEQi33f.s:25702  .debug_str:0000000000016f7e .LASF3620
C:\Users\SOLDER~1\AppData\Local\Temp\ccEQi33f.s:30158  .debug_str:00000000000291b4 .LASF3621
C:\Users\SOLDER~1\AppData\Local\Temp\ccEQi33f.s:26848  .debug_str:000000000001b8f2 .LASF3622
C:\Users\SOLDER~1\AppData\Local\Temp\ccEQi33f.s:26742  .debug_str:000000000001b25c .LASF3623
C:\Users\SOLDER~1\AppData\Local\Temp\ccEQi33f.s:21022  .debug_str:0000000000003f2b .LASF3624
C:\Users\SOLDER~1\AppData\Local\Temp\ccEQi33f.s:28898  .debug_str:0000000000023ed2 .LASF3625
C:\Users\SOLDER~1\AppData\Local\Temp\ccEQi33f.s:28272  .debug_str:0000000000021656 .LASF3626
C:\Users\SOLDER~1\AppData\Local\Temp\ccEQi33f.s:30632  .debug_str:000000000002b096 .LASF3627
C:\Users\SOLDER~1\AppData\Local\Temp\ccEQi33f.s:26628  .debug_str:000000000001ab40 .LASF3628
C:\Users\SOLDER~1\AppData\Local\Temp\ccEQi33f.s:29932  .debug_str:000000000002830f .LASF3629
C:\Users\SOLDER~1\AppData\Local\Temp\ccEQi33f.s:24612  .debug_str:000000000001281a .LASF3630
C:\Users\SOLDER~1\AppData\Local\Temp\ccEQi33f.s:30240  .debug_str:00000000000296fd .LASF3631
C:\Users\SOLDER~1\AppData\Local\Temp\ccEQi33f.s:28320  .debug_str:0000000000021968 .LASF3632
C:\Users\SOLDER~1\AppData\Local\Temp\ccEQi33f.s:25724  .debug_str:00000000000170fc .LASF3633
C:\Users\SOLDER~1\AppData\Local\Temp\ccEQi33f.s:28550  .debug_str:00000000000227de .LASF3634
C:\Users\SOLDER~1\AppData\Local\Temp\ccEQi33f.s:25856  .debug_str:0000000000017989 .LASF3635
C:\Users\SOLDER~1\AppData\Local\Temp\ccEQi33f.s:28600  .debug_str:0000000000022b4d .LASF3636
C:\Users\SOLDER~1\AppData\Local\Temp\ccEQi33f.s:23848  .debug_str:000000000000f704 .LASF3637
C:\Users\SOLDER~1\AppData\Local\Temp\ccEQi33f.s:27934  .debug_str:000000000002004e .LASF3638
C:\Users\SOLDER~1\AppData\Local\Temp\ccEQi33f.s:24354  .debug_str:00000000000117f9 .LASF3639
C:\Users\SOLDER~1\AppData\Local\Temp\ccEQi33f.s:30268  .debug_str:00000000000298a5 .LASF3640
C:\Users\SOLDER~1\AppData\Local\Temp\ccEQi33f.s:28614  .debug_str:0000000000022c4c .LASF3641
C:\Users\SOLDER~1\AppData\Local\Temp\ccEQi33f.s:23400  .debug_str:000000000000da05 .LASF3642
C:\Users\SOLDER~1\AppData\Local\Temp\ccEQi33f.s:30300  .debug_str:0000000000029ab3 .LASF3643
C:\Users\SOLDER~1\AppData\Local\Temp\ccEQi33f.s:29130  .debug_str:0000000000024e14 .LASF3644
C:\Users\SOLDER~1\AppData\Local\Temp\ccEQi33f.s:30474  .debug_str:000000000002a68b .LASF3645
C:\Users\SOLDER~1\AppData\Local\Temp\ccEQi33f.s:30972  .debug_str:000000000002c6a3 .LASF3646
C:\Users\SOLDER~1\AppData\Local\Temp\ccEQi33f.s:21676  .debug_str:000000000000693e .LASF3647
C:\Users\SOLDER~1\AppData\Local\Temp\ccEQi33f.s:20106  .debug_str:000000000000032f .LASF3648
C:\Users\SOLDER~1\AppData\Local\Temp\ccEQi33f.s:27680  .debug_str:000000000001efd1 .LASF3649
C:\Users\SOLDER~1\AppData\Local\Temp\ccEQi33f.s:22350  .debug_str:0000000000009543 .LASF3650
C:\Users\SOLDER~1\AppData\Local\Temp\ccEQi33f.s:25392  .debug_str:0000000000015c1a .LASF3651
C:\Users\SOLDER~1\AppData\Local\Temp\ccEQi33f.s:20232  .debug_str:0000000000000c53 .LASF3652
C:\Users\SOLDER~1\AppData\Local\Temp\ccEQi33f.s:31134  .debug_str:000000000002d154 .LASF3653
C:\Users\SOLDER~1\AppData\Local\Temp\ccEQi33f.s:26254  .debug_str:000000000001936d .LASF3654
C:\Users\SOLDER~1\AppData\Local\Temp\ccEQi33f.s:31244  .debug_str:000000000002d857 .LASF3655
C:\Users\SOLDER~1\AppData\Local\Temp\ccEQi33f.s:29686  .debug_str:0000000000027316 .LASF3656
C:\Users\SOLDER~1\AppData\Local\Temp\ccEQi33f.s:22406  .debug_str:00000000000098d9 .LASF3657
C:\Users\SOLDER~1\AppData\Local\Temp\ccEQi33f.s:28876  .debug_str:0000000000023d51 .LASF3658
C:\Users\SOLDER~1\AppData\Local\Temp\ccEQi33f.s:31022  .debug_str:000000000002c9cc .LASF3659
C:\Users\SOLDER~1\AppData\Local\Temp\ccEQi33f.s:21586  .debug_str:000000000000630c .LASF3660
C:\Users\SOLDER~1\AppData\Local\Temp\ccEQi33f.s:20212  .debug_str:0000000000000b06 .LASF3661
GAS LISTING C:\Users\SOLDER~1\AppData\Local\Temp\ccEQi33f.s 			page 107


C:\Users\SOLDER~1\AppData\Local\Temp\ccEQi33f.s:21528  .debug_str:0000000000005f09 .LASF3662
C:\Users\SOLDER~1\AppData\Local\Temp\ccEQi33f.s:21200  .debug_str:0000000000004a61 .LASF3663
C:\Users\SOLDER~1\AppData\Local\Temp\ccEQi33f.s:21234  .debug_str:0000000000004cb7 .LASF3664
C:\Users\SOLDER~1\AppData\Local\Temp\ccEQi33f.s:20724  .debug_str:0000000000002bff .LASF3665
C:\Users\SOLDER~1\AppData\Local\Temp\ccEQi33f.s:29552  .debug_str:0000000000026a52 .LASF3666
C:\Users\SOLDER~1\AppData\Local\Temp\ccEQi33f.s:24792  .debug_str:000000000001341a .LASF3667
C:\Users\SOLDER~1\AppData\Local\Temp\ccEQi33f.s:26008  .debug_str:0000000000018373 .LASF3668
C:\Users\SOLDER~1\AppData\Local\Temp\ccEQi33f.s:23620  .debug_str:000000000000e8bb .LASF3669
C:\Users\SOLDER~1\AppData\Local\Temp\ccEQi33f.s:23884  .debug_str:000000000000f9a0 .LASF3670
C:\Users\SOLDER~1\AppData\Local\Temp\ccEQi33f.s:28456  .debug_str:00000000000221be .LASF3671
C:\Users\SOLDER~1\AppData\Local\Temp\ccEQi33f.s:29532  .debug_str:00000000000268e2 .LASF3672
C:\Users\SOLDER~1\AppData\Local\Temp\ccEQi33f.s:26472  .debug_str:000000000001a0fb .LASF3673
C:\Users\SOLDER~1\AppData\Local\Temp\ccEQi33f.s:26492  .debug_str:000000000001a240 .LASF3674
C:\Users\SOLDER~1\AppData\Local\Temp\ccEQi33f.s:22526  .debug_str:000000000000a0a9 .LASF3675
C:\Users\SOLDER~1\AppData\Local\Temp\ccEQi33f.s:24246  .debug_str:0000000000011100 .LASF3676
C:\Users\SOLDER~1\AppData\Local\Temp\ccEQi33f.s:28572  .debug_str:0000000000022967 .LASF3677
C:\Users\SOLDER~1\AppData\Local\Temp\ccEQi33f.s:26506  .debug_str:000000000001a34b .LASF3678
C:\Users\SOLDER~1\AppData\Local\Temp\ccEQi33f.s:28800  .debug_str:0000000000023881 .LASF3679
C:\Users\SOLDER~1\AppData\Local\Temp\ccEQi33f.s:30152  .debug_str:000000000002914b .LASF3680
C:\Users\SOLDER~1\AppData\Local\Temp\ccEQi33f.s:30956  .debug_str:000000000002c59f .LASF3681
C:\Users\SOLDER~1\AppData\Local\Temp\ccEQi33f.s:25616  .debug_str:0000000000016a54 .LASF3682
C:\Users\SOLDER~1\AppData\Local\Temp\ccEQi33f.s:30634  .debug_str:000000000002b0b7 .LASF3683
C:\Users\SOLDER~1\AppData\Local\Temp\ccEQi33f.s:24368  .debug_str:00000000000118e9 .LASF3684
C:\Users\SOLDER~1\AppData\Local\Temp\ccEQi33f.s:28246  .debug_str:0000000000021492 .LASF3685
C:\Users\SOLDER~1\AppData\Local\Temp\ccEQi33f.s:24176  .debug_str:0000000000010c73 .LASF3686
C:\Users\SOLDER~1\AppData\Local\Temp\ccEQi33f.s:31522  .debug_str:000000000002ea2b .LASF3687
C:\Users\SOLDER~1\AppData\Local\Temp\ccEQi33f.s:28262  .debug_str:00000000000215a9 .LASF3688
C:\Users\SOLDER~1\AppData\Local\Temp\ccEQi33f.s:22190  .debug_str:0000000000008a72 .LASF3689
C:\Users\SOLDER~1\AppData\Local\Temp\ccEQi33f.s:28252  .debug_str:0000000000021504 .LASF3690
C:\Users\SOLDER~1\AppData\Local\Temp\ccEQi33f.s:25210  .debug_str:00000000000150ab .LASF3691
C:\Users\SOLDER~1\AppData\Local\Temp\ccEQi33f.s:21458  .debug_str:0000000000005ac0 .LASF3692
C:\Users\SOLDER~1\AppData\Local\Temp\ccEQi33f.s:23092  .debug_str:000000000000c5b3 .LASF3693
C:\Users\SOLDER~1\AppData\Local\Temp\ccEQi33f.s:30090  .debug_str:0000000000028d5f .LASF3694
C:\Users\SOLDER~1\AppData\Local\Temp\ccEQi33f.s:25118  .debug_str:0000000000014ab0 .LASF3695
C:\Users\SOLDER~1\AppData\Local\Temp\ccEQi33f.s:22384  .debug_str:0000000000009758 .LASF3696
C:\Users\SOLDER~1\AppData\Local\Temp\ccEQi33f.s:22974  .debug_str:000000000000bd89 .LASF3697
C:\Users\SOLDER~1\AppData\Local\Temp\ccEQi33f.s:26526  .debug_str:000000000001a469 .LASF3698
C:\Users\SOLDER~1\AppData\Local\Temp\ccEQi33f.s:23866  .debug_str:000000000000f87c .LASF3699
C:\Users\SOLDER~1\AppData\Local\Temp\ccEQi33f.s:27442  .debug_str:000000000001e05a .LASF3700
C:\Users\SOLDER~1\AppData\Local\Temp\ccEQi33f.s:20524  .debug_str:0000000000001f22 .LASF3701
C:\Users\SOLDER~1\AppData\Local\Temp\ccEQi33f.s:24116  .debug_str:00000000000108d6 .LASF3702
C:\Users\SOLDER~1\AppData\Local\Temp\ccEQi33f.s:23568  .debug_str:000000000000e51e .LASF3703
C:\Users\SOLDER~1\AppData\Local\Temp\ccEQi33f.s:20874  .debug_str:00000000000035c0 .LASF3704
C:\Users\SOLDER~1\AppData\Local\Temp\ccEQi33f.s:29684  .debug_str:00000000000272f2 .LASF3705
C:\Users\SOLDER~1\AppData\Local\Temp\ccEQi33f.s:29020  .debug_str:00000000000246e0 .LASF3706
C:\Users\SOLDER~1\AppData\Local\Temp\ccEQi33f.s:23248  .debug_str:000000000000d05d .LASF3707
C:\Users\SOLDER~1\AppData\Local\Temp\ccEQi33f.s:20606  .debug_str:000000000000248a .LASF3708
C:\Users\SOLDER~1\AppData\Local\Temp\ccEQi33f.s:29264  .debug_str:0000000000025669 .LASF3709
C:\Users\SOLDER~1\AppData\Local\Temp\ccEQi33f.s:20806  .debug_str:0000000000003166 .LASF3710
C:\Users\SOLDER~1\AppData\Local\Temp\ccEQi33f.s:20540  .debug_str:0000000000002019 .LASF3711
C:\Users\SOLDER~1\AppData\Local\Temp\ccEQi33f.s:29352  .debug_str:0000000000025c96 .LASF3712
C:\Users\SOLDER~1\AppData\Local\Temp\ccEQi33f.s:29728  .debug_str:00000000000275ce .LASF3713
C:\Users\SOLDER~1\AppData\Local\Temp\ccEQi33f.s:30196  .debug_str:0000000000029455 .LASF3714
C:\Users\SOLDER~1\AppData\Local\Temp\ccEQi33f.s:21210  .debug_str:0000000000004b0e .LASF3715
C:\Users\SOLDER~1\AppData\Local\Temp\ccEQi33f.s:30210  .debug_str:0000000000029545 .LASF3716
C:\Users\SOLDER~1\AppData\Local\Temp\ccEQi33f.s:26266  .debug_str:000000000001944a .LASF3717
C:\Users\SOLDER~1\AppData\Local\Temp\ccEQi33f.s:23006  .debug_str:000000000000bf8b .LASF3718
GAS LISTING C:\Users\SOLDER~1\AppData\Local\Temp\ccEQi33f.s 			page 108


C:\Users\SOLDER~1\AppData\Local\Temp\ccEQi33f.s:29614  .debug_str:0000000000026e5e .LASF3719
C:\Users\SOLDER~1\AppData\Local\Temp\ccEQi33f.s:23308  .debug_str:000000000000d43f .LASF3720
C:\Users\SOLDER~1\AppData\Local\Temp\ccEQi33f.s:31416  .debug_str:000000000002e326 .LASF3721
C:\Users\SOLDER~1\AppData\Local\Temp\ccEQi33f.s:30666  .debug_str:000000000002b2b5 .LASF3722
C:\Users\SOLDER~1\AppData\Local\Temp\ccEQi33f.s:29092  .debug_str:0000000000024ba3 .LASF3723
C:\Users\SOLDER~1\AppData\Local\Temp\ccEQi33f.s:31142  .debug_str:000000000002d1d7 .LASF3724
C:\Users\SOLDER~1\AppData\Local\Temp\ccEQi33f.s:28142  .debug_str:0000000000020db6 .LASF3725
C:\Users\SOLDER~1\AppData\Local\Temp\ccEQi33f.s:25034  .debug_str:000000000001450a .LASF3726
C:\Users\SOLDER~1\AppData\Local\Temp\ccEQi33f.s:30398  .debug_str:000000000002a17e .LASF3727
C:\Users\SOLDER~1\AppData\Local\Temp\ccEQi33f.s:22686  .debug_str:000000000000ab50 .LASF3728
C:\Users\SOLDER~1\AppData\Local\Temp\ccEQi33f.s:25326  .debug_str:00000000000157f7 .LASF3729
C:\Users\SOLDER~1\AppData\Local\Temp\ccEQi33f.s:26128  .debug_str:0000000000018b3a .LASF3730
C:\Users\SOLDER~1\AppData\Local\Temp\ccEQi33f.s:21964  .debug_str:0000000000007bc9 .LASF3731
C:\Users\SOLDER~1\AppData\Local\Temp\ccEQi33f.s:26650  .debug_str:000000000001ace2 .LASF3732
C:\Users\SOLDER~1\AppData\Local\Temp\ccEQi33f.s:22976  .debug_str:000000000000bdae .LASF3733
C:\Users\SOLDER~1\AppData\Local\Temp\ccEQi33f.s:26424  .debug_str:0000000000019df4 .LASF3734
C:\Users\SOLDER~1\AppData\Local\Temp\ccEQi33f.s:22904  .debug_str:000000000000b8f8 .LASF3735
C:\Users\SOLDER~1\AppData\Local\Temp\ccEQi33f.s:21448  .debug_str:0000000000005a08 .LASF3736
C:\Users\SOLDER~1\AppData\Local\Temp\ccEQi33f.s:23934  .debug_str:000000000000fd35 .LASF3737
C:\Users\SOLDER~1\AppData\Local\Temp\ccEQi33f.s:21750  .debug_str:0000000000006dee .LASF3738
C:\Users\SOLDER~1\AppData\Local\Temp\ccEQi33f.s:20860  .debug_str:0000000000003504 .LASF3739
C:\Users\SOLDER~1\AppData\Local\Temp\ccEQi33f.s:27746  .debug_str:000000000001f465 .LASF3740
C:\Users\SOLDER~1\AppData\Local\Temp\ccEQi33f.s:27840  .debug_str:000000000001fa57 .LASF3741
C:\Users\SOLDER~1\AppData\Local\Temp\ccEQi33f.s:23404  .debug_str:000000000000da3f .LASF3742
C:\Users\SOLDER~1\AppData\Local\Temp\ccEQi33f.s:31366  .debug_str:000000000002e00c .LASF3743
C:\Users\SOLDER~1\AppData\Local\Temp\ccEQi33f.s:25098  .debug_str:000000000001496d .LASF3744
C:\Users\SOLDER~1\AppData\Local\Temp\ccEQi33f.s:30332  .debug_str:0000000000029d0f .LASF3745
C:\Users\SOLDER~1\AppData\Local\Temp\ccEQi33f.s:23450  .debug_str:000000000000dd46 .LASF3746
C:\Users\SOLDER~1\AppData\Local\Temp\ccEQi33f.s:28578  .debug_str:00000000000229c6 .LASF3747
C:\Users\SOLDER~1\AppData\Local\Temp\ccEQi33f.s:24740  .debug_str:000000000001308e .LASF3748
C:\Users\SOLDER~1\AppData\Local\Temp\ccEQi33f.s:23212  .debug_str:000000000000cdef .LASF3749
C:\Users\SOLDER~1\AppData\Local\Temp\ccEQi33f.s:30486  .debug_str:000000000002a72e .LASF3750
C:\Users\SOLDER~1\AppData\Local\Temp\ccEQi33f.s:26830  .debug_str:000000000001b7c4 .LASF3751
C:\Users\SOLDER~1\AppData\Local\Temp\ccEQi33f.s:23954  .debug_str:000000000000fe86 .LASF3752
C:\Users\SOLDER~1\AppData\Local\Temp\ccEQi33f.s:27426  .debug_str:000000000001df6c .LASF3753
C:\Users\SOLDER~1\AppData\Local\Temp\ccEQi33f.s:23918  .debug_str:000000000000fc1e .LASF3754
C:\Users\SOLDER~1\AppData\Local\Temp\ccEQi33f.s:26434  .debug_str:0000000000019ea6 .LASF3755
C:\Users\SOLDER~1\AppData\Local\Temp\ccEQi33f.s:26670  .debug_str:000000000001ae21 .LASF3756
C:\Users\SOLDER~1\AppData\Local\Temp\ccEQi33f.s:24506  .debug_str:000000000001218e .LASF3757
C:\Users\SOLDER~1\AppData\Local\Temp\ccEQi33f.s:26012  .debug_str:00000000000183c1 .LASF3758
C:\Users\SOLDER~1\AppData\Local\Temp\ccEQi33f.s:20630  .debug_str:0000000000002608 .LASF3759
C:\Users\SOLDER~1\AppData\Local\Temp\ccEQi33f.s:21354  .debug_str:00000000000053d1 .LASF3760
C:\Users\SOLDER~1\AppData\Local\Temp\ccEQi33f.s:30938  .debug_str:000000000002c47c .LASF3761
C:\Users\SOLDER~1\AppData\Local\Temp\ccEQi33f.s:31166  .debug_str:000000000002d35c .LASF3762
C:\Users\SOLDER~1\AppData\Local\Temp\ccEQi33f.s:20326  .debug_str:0000000000001259 .LASF3763
C:\Users\SOLDER~1\AppData\Local\Temp\ccEQi33f.s:26070  .debug_str:000000000001875b .LASF3764
C:\Users\SOLDER~1\AppData\Local\Temp\ccEQi33f.s:24224  .debug_str:0000000000010f98 .LASF3765
C:\Users\SOLDER~1\AppData\Local\Temp\ccEQi33f.s:29022  .debug_str:0000000000024704 .LASF3766
C:\Users\SOLDER~1\AppData\Local\Temp\ccEQi33f.s:22772  .debug_str:000000000000b0df .LASF3767
C:\Users\SOLDER~1\AppData\Local\Temp\ccEQi33f.s:28318  .debug_str:0000000000021945 .LASF3768
C:\Users\SOLDER~1\AppData\Local\Temp\ccEQi33f.s:20610  .debug_str:00000000000024dc .LASF3769
C:\Users\SOLDER~1\AppData\Local\Temp\ccEQi33f.s:29798  .debug_str:0000000000027a3c .LASF3770
C:\Users\SOLDER~1\AppData\Local\Temp\ccEQi33f.s:20276  .debug_str:0000000000000f35 .LASF3771
C:\Users\SOLDER~1\AppData\Local\Temp\ccEQi33f.s:28878  .debug_str:0000000000023d78 .LASF3772
C:\Users\SOLDER~1\AppData\Local\Temp\ccEQi33f.s:24858  .debug_str:00000000000138b6 .LASF3773
C:\Users\SOLDER~1\AppData\Local\Temp\ccEQi33f.s:30204  .debug_str:00000000000294d3 .LASF3774
C:\Users\SOLDER~1\AppData\Local\Temp\ccEQi33f.s:27654  .debug_str:000000000001ee16 .LASF3775
GAS LISTING C:\Users\SOLDER~1\AppData\Local\Temp\ccEQi33f.s 			page 109


C:\Users\SOLDER~1\AppData\Local\Temp\ccEQi33f.s:23288  .debug_str:000000000000d2da .LASF3776
C:\Users\SOLDER~1\AppData\Local\Temp\ccEQi33f.s:21860  .debug_str:000000000000753d .LASF3777
C:\Users\SOLDER~1\AppData\Local\Temp\ccEQi33f.s:29518  .debug_str:000000000002680b .LASF3778
C:\Users\SOLDER~1\AppData\Local\Temp\ccEQi33f.s:27834  .debug_str:000000000001f9fd .LASF3779
C:\Users\SOLDER~1\AppData\Local\Temp\ccEQi33f.s:28094  .debug_str:0000000000020a92 .LASF3780
C:\Users\SOLDER~1\AppData\Local\Temp\ccEQi33f.s:28990  .debug_str:00000000000244e2 .LASF3781
C:\Users\SOLDER~1\AppData\Local\Temp\ccEQi33f.s:21048  .debug_str:00000000000040d7 .LASF3782
C:\Users\SOLDER~1\AppData\Local\Temp\ccEQi33f.s:25140  .debug_str:0000000000014c54 .LASF3783
C:\Users\SOLDER~1\AppData\Local\Temp\ccEQi33f.s:23734  .debug_str:000000000000efad .LASF3784
C:\Users\SOLDER~1\AppData\Local\Temp\ccEQi33f.s:21718  .debug_str:0000000000006bcc .LASF3785
C:\Users\SOLDER~1\AppData\Local\Temp\ccEQi33f.s:25942  .debug_str:0000000000017f51 .LASF3786
C:\Users\SOLDER~1\AppData\Local\Temp\ccEQi33f.s:31146  .debug_str:000000000002d220 .LASF3787
C:\Users\SOLDER~1\AppData\Local\Temp\ccEQi33f.s:28994  .debug_str:000000000002451f .LASF3788
C:\Users\SOLDER~1\AppData\Local\Temp\ccEQi33f.s:21498  .debug_str:0000000000005d50 .LASF3789
C:\Users\SOLDER~1\AppData\Local\Temp\ccEQi33f.s:22636  .debug_str:000000000000a80a .LASF3790
C:\Users\SOLDER~1\AppData\Local\Temp\ccEQi33f.s:30032  .debug_str:00000000000289ad .LASF3791
C:\Users\SOLDER~1\AppData\Local\Temp\ccEQi33f.s:29638  .debug_str:0000000000026fde .LASF3792
C:\Users\SOLDER~1\AppData\Local\Temp\ccEQi33f.s:27258  .debug_str:000000000001d4c6 .LASF3793
C:\Users\SOLDER~1\AppData\Local\Temp\ccEQi33f.s:31046  .debug_str:000000000002cb3a .LASF3794
C:\Users\SOLDER~1\AppData\Local\Temp\ccEQi33f.s:24054  .debug_str:00000000000104f4 .LASF3795
C:\Users\SOLDER~1\AppData\Local\Temp\ccEQi33f.s:22516  .debug_str:0000000000009fe9 .LASF3796
C:\Users\SOLDER~1\AppData\Local\Temp\ccEQi33f.s:23956  .debug_str:000000000000feaa .LASF3797
C:\Users\SOLDER~1\AppData\Local\Temp\ccEQi33f.s:29822  .debug_str:0000000000027bd9 .LASF3798
C:\Users\SOLDER~1\AppData\Local\Temp\ccEQi33f.s:30432  .debug_str:000000000002a3cf .LASF3799
C:\Users\SOLDER~1\AppData\Local\Temp\ccEQi33f.s:26898  .debug_str:000000000001bc34 .LASF3800
C:\Users\SOLDER~1\AppData\Local\Temp\ccEQi33f.s:28140  .debug_str:0000000000020da1 .LASF3801
C:\Users\SOLDER~1\AppData\Local\Temp\ccEQi33f.s:25810  .debug_str:00000000000176c4 .LASF3802
C:\Users\SOLDER~1\AppData\Local\Temp\ccEQi33f.s:30144  .debug_str:00000000000290d9 .LASF3803
C:\Users\SOLDER~1\AppData\Local\Temp\ccEQi33f.s:27900  .debug_str:000000000001fe13 .LASF3804
C:\Users\SOLDER~1\AppData\Local\Temp\ccEQi33f.s:27016  .debug_str:000000000001c437 .LASF3805
C:\Users\SOLDER~1\AppData\Local\Temp\ccEQi33f.s:20132  .debug_str:00000000000004dd .LASF3806
C:\Users\SOLDER~1\AppData\Local\Temp\ccEQi33f.s:30782  .debug_str:000000000002ba12 .LASF3807
C:\Users\SOLDER~1\AppData\Local\Temp\ccEQi33f.s:20196  .debug_str:00000000000009e1 .LASF3808
C:\Users\SOLDER~1\AppData\Local\Temp\ccEQi33f.s:25268  .debug_str:0000000000015484 .LASF3809
C:\Users\SOLDER~1\AppData\Local\Temp\ccEQi33f.s:25580  .debug_str:00000000000167e9 .LASF3810
C:\Users\SOLDER~1\AppData\Local\Temp\ccEQi33f.s:27860  .debug_str:000000000001fba8 .LASF3811
C:\Users\SOLDER~1\AppData\Local\Temp\ccEQi33f.s:25388  .debug_str:0000000000015bd9 .LASF3812
C:\Users\SOLDER~1\AppData\Local\Temp\ccEQi33f.s:22118  .debug_str:00000000000085cb .LASF3813
C:\Users\SOLDER~1\AppData\Local\Temp\ccEQi33f.s:21078  .debug_str:00000000000042b4 .LASF3814
C:\Users\SOLDER~1\AppData\Local\Temp\ccEQi33f.s:22302  .debug_str:00000000000091fe .LASF3815
C:\Users\SOLDER~1\AppData\Local\Temp\ccEQi33f.s:25366  .debug_str:0000000000015a85 .LASF3816
C:\Users\SOLDER~1\AppData\Local\Temp\ccEQi33f.s:22138  .debug_str:0000000000008713 .LASF3817
C:\Users\SOLDER~1\AppData\Local\Temp\ccEQi33f.s:23344  .debug_str:000000000000d67c .LASF3818
C:\Users\SOLDER~1\AppData\Local\Temp\ccEQi33f.s:21260  .debug_str:0000000000004e2a .LASF3819
C:\Users\SOLDER~1\AppData\Local\Temp\ccEQi33f.s:29060  .debug_str:000000000002496f .LASF3820
C:\Users\SOLDER~1\AppData\Local\Temp\ccEQi33f.s:24596  .debug_str:0000000000012726 .LASF3821
C:\Users\SOLDER~1\AppData\Local\Temp\ccEQi33f.s:23930  .debug_str:000000000000fcee .LASF3822
C:\Users\SOLDER~1\AppData\Local\Temp\ccEQi33f.s:27158  .debug_str:000000000001cdeb .LASF3823
C:\Users\SOLDER~1\AppData\Local\Temp\ccEQi33f.s:30370  .debug_str:0000000000029f84 .LASF3824
C:\Users\SOLDER~1\AppData\Local\Temp\ccEQi33f.s:22270  .debug_str:0000000000008fd9 .LASF3825
C:\Users\SOLDER~1\AppData\Local\Temp\ccEQi33f.s:28322  .debug_str:0000000000021978 .LASF3826
C:\Users\SOLDER~1\AppData\Local\Temp\ccEQi33f.s:22500  .debug_str:0000000000009ef0 .LASF3827
C:\Users\SOLDER~1\AppData\Local\Temp\ccEQi33f.s:21908  .debug_str:00000000000077fe .LASF3828
C:\Users\SOLDER~1\AppData\Local\Temp\ccEQi33f.s:23116  .debug_str:000000000000c752 .LASF3829
C:\Users\SOLDER~1\AppData\Local\Temp\ccEQi33f.s:23104  .debug_str:000000000000c676 .LASF3830
C:\Users\SOLDER~1\AppData\Local\Temp\ccEQi33f.s:20766  .debug_str:0000000000002ec6 .LASF3831
C:\Users\SOLDER~1\AppData\Local\Temp\ccEQi33f.s:22910  .debug_str:000000000000b956 .LASF3832
GAS LISTING C:\Users\SOLDER~1\AppData\Local\Temp\ccEQi33f.s 			page 110


C:\Users\SOLDER~1\AppData\Local\Temp\ccEQi33f.s:28804  .debug_str:00000000000238c5 .LASF3833
C:\Users\SOLDER~1\AppData\Local\Temp\ccEQi33f.s:26928  .debug_str:000000000001be58 .LASF3834
C:\Users\SOLDER~1\AppData\Local\Temp\ccEQi33f.s:23436  .debug_str:000000000000dc61 .LASF3835
C:\Users\SOLDER~1\AppData\Local\Temp\ccEQi33f.s:30652  .debug_str:000000000002b1f1 .LASF3836
C:\Users\SOLDER~1\AppData\Local\Temp\ccEQi33f.s:28724  .debug_str:000000000002338f .LASF3837
C:\Users\SOLDER~1\AppData\Local\Temp\ccEQi33f.s:21140  .debug_str:00000000000046ae .LASF3838
C:\Users\SOLDER~1\AppData\Local\Temp\ccEQi33f.s:28986  .debug_str:000000000002449b .LASF3839
C:\Users\SOLDER~1\AppData\Local\Temp\ccEQi33f.s:28520  .debug_str:00000000000225dc .LASF3840
C:\Users\SOLDER~1\AppData\Local\Temp\ccEQi33f.s:21096  .debug_str:00000000000043d6 .LASF3841
C:\Users\SOLDER~1\AppData\Local\Temp\ccEQi33f.s:23168  .debug_str:000000000000cae9 .LASF3842
C:\Users\SOLDER~1\AppData\Local\Temp\ccEQi33f.s:30212  .debug_str:000000000002956a .LASF3843
C:\Users\SOLDER~1\AppData\Local\Temp\ccEQi33f.s:22614  .debug_str:000000000000a69d .LASF3844
C:\Users\SOLDER~1\AppData\Local\Temp\ccEQi33f.s:28554  .debug_str:0000000000022819 .LASF3845
C:\Users\SOLDER~1\AppData\Local\Temp\ccEQi33f.s:27148  .debug_str:000000000001cd5e .LASF3846
C:\Users\SOLDER~1\AppData\Local\Temp\ccEQi33f.s:28862  .debug_str:0000000000023c66 .LASF3847
C:\Users\SOLDER~1\AppData\Local\Temp\ccEQi33f.s:24142  .debug_str:0000000000010a8c .LASF3848
C:\Users\SOLDER~1\AppData\Local\Temp\ccEQi33f.s:25520  .debug_str:0000000000016472 .LASF3849
C:\Users\SOLDER~1\AppData\Local\Temp\ccEQi33f.s:21516  .debug_str:0000000000005e64 .LASF3850
C:\Users\SOLDER~1\AppData\Local\Temp\ccEQi33f.s:23016  .debug_str:000000000000c050 .LASF3851
C:\Users\SOLDER~1\AppData\Local\Temp\ccEQi33f.s:22768  .debug_str:000000000000b0aa .LASF3852
C:\Users\SOLDER~1\AppData\Local\Temp\ccEQi33f.s:22798  .debug_str:000000000000b26a .LASF3853
C:\Users\SOLDER~1\AppData\Local\Temp\ccEQi33f.s:20776  .debug_str:0000000000002fa6 .LASF3854
C:\Users\SOLDER~1\AppData\Local\Temp\ccEQi33f.s:26260  .debug_str:00000000000193dc .LASF3855
C:\Users\SOLDER~1\AppData\Local\Temp\ccEQi33f.s:23432  .debug_str:000000000000dc26 .LASF3856
C:\Users\SOLDER~1\AppData\Local\Temp\ccEQi33f.s:31122  .debug_str:000000000002d06a .LASF3857
C:\Users\SOLDER~1\AppData\Local\Temp\ccEQi33f.s:30818  .debug_str:000000000002bc5f .LASF3858
C:\Users\SOLDER~1\AppData\Local\Temp\ccEQi33f.s:29234  .debug_str:0000000000025491 .LASF3859
C:\Users\SOLDER~1\AppData\Local\Temp\ccEQi33f.s:27494  .debug_str:000000000001e3a0 .LASF3860
C:\Users\SOLDER~1\AppData\Local\Temp\ccEQi33f.s:20226  .debug_str:0000000000000be7 .LASF3861
C:\Users\SOLDER~1\AppData\Local\Temp\ccEQi33f.s:30272  .debug_str:00000000000298f7 .LASF3862
C:\Users\SOLDER~1\AppData\Local\Temp\ccEQi33f.s:20936  .debug_str:00000000000039bf .LASF3863
C:\Users\SOLDER~1\AppData\Local\Temp\ccEQi33f.s:31190  .debug_str:000000000002d4d1 .LASF3864
C:\Users\SOLDER~1\AppData\Local\Temp\ccEQi33f.s:23586  .debug_str:000000000000e656 .LASF3865
C:\Users\SOLDER~1\AppData\Local\Temp\ccEQi33f.s:22766  .debug_str:000000000000b08a .LASF3866
C:\Users\SOLDER~1\AppData\Local\Temp\ccEQi33f.s:23928  .debug_str:000000000000fcce .LASF3867
C:\Users\SOLDER~1\AppData\Local\Temp\ccEQi33f.s:26002  .debug_str:0000000000018320 .LASF3868
C:\Users\SOLDER~1\AppData\Local\Temp\ccEQi33f.s:27038  .debug_str:000000000001c5d0 .LASF3869
C:\Users\SOLDER~1\AppData\Local\Temp\ccEQi33f.s:23578  .debug_str:000000000000e5ca .LASF3870
C:\Users\SOLDER~1\AppData\Local\Temp\ccEQi33f.s:22786  .debug_str:000000000000b19f .LASF3871
C:\Users\SOLDER~1\AppData\Local\Temp\ccEQi33f.s:31290  .debug_str:000000000002db31 .LASF3872
C:\Users\SOLDER~1\AppData\Local\Temp\ccEQi33f.s:26100  .debug_str:000000000001894d .LASF3873
C:\Users\SOLDER~1\AppData\Local\Temp\ccEQi33f.s:21028  .debug_str:0000000000003f81 .LASF3874
C:\Users\SOLDER~1\AppData\Local\Temp\ccEQi33f.s:30100  .debug_str:0000000000028df7 .LASF3875
C:\Users\SOLDER~1\AppData\Local\Temp\ccEQi33f.s:21956  .debug_str:0000000000007b3b .LASF3876
C:\Users\SOLDER~1\AppData\Local\Temp\ccEQi33f.s:21026  .debug_str:0000000000003f5d .LASF3877
C:\Users\SOLDER~1\AppData\Local\Temp\ccEQi33f.s:26224  .debug_str:0000000000019177 .LASF3878
C:\Users\SOLDER~1\AppData\Local\Temp\ccEQi33f.s:23028  .debug_str:000000000000c122 .LASF3879
C:\Users\SOLDER~1\AppData\Local\Temp\ccEQi33f.s:23106  .debug_str:000000000000c698 .LASF3880
C:\Users\SOLDER~1\AppData\Local\Temp\ccEQi33f.s:29068  .debug_str:00000000000249e9 .LASF3881
C:\Users\SOLDER~1\AppData\Local\Temp\ccEQi33f.s:23838  .debug_str:000000000000f663 .LASF3882
C:\Users\SOLDER~1\AppData\Local\Temp\ccEQi33f.s:20074  .debug_str:0000000000000132 .LASF3883
C:\Users\SOLDER~1\AppData\Local\Temp\ccEQi33f.s:30726  .debug_str:000000000002b6af .LASF3884
C:\Users\SOLDER~1\AppData\Local\Temp\ccEQi33f.s:30132  .debug_str:0000000000028ff5 .LASF3885
C:\Users\SOLDER~1\AppData\Local\Temp\ccEQi33f.s:23468  .debug_str:000000000000de78 .LASF3886
C:\Users\SOLDER~1\AppData\Local\Temp\ccEQi33f.s:28054  .debug_str:00000000000207ed .LASF3887
C:\Users\SOLDER~1\AppData\Local\Temp\ccEQi33f.s:20206  .debug_str:0000000000000a88 .LASF3888
C:\Users\SOLDER~1\AppData\Local\Temp\ccEQi33f.s:31376  .debug_str:000000000002e0a1 .LASF3889
GAS LISTING C:\Users\SOLDER~1\AppData\Local\Temp\ccEQi33f.s 			page 111


C:\Users\SOLDER~1\AppData\Local\Temp\ccEQi33f.s:22756  .debug_str:000000000000afe2 .LASF3890
C:\Users\SOLDER~1\AppData\Local\Temp\ccEQi33f.s:24002  .debug_str:0000000000010171 .LASF3891
C:\Users\SOLDER~1\AppData\Local\Temp\ccEQi33f.s:30872  .debug_str:000000000002c032 .LASF3892
C:\Users\SOLDER~1\AppData\Local\Temp\ccEQi33f.s:22082  .debug_str:00000000000083ac .LASF3893
C:\Users\SOLDER~1\AppData\Local\Temp\ccEQi33f.s:27176  .debug_str:000000000001cf0b .LASF3894
C:\Users\SOLDER~1\AppData\Local\Temp\ccEQi33f.s:26184  .debug_str:0000000000018f22 .LASF3895
C:\Users\SOLDER~1\AppData\Local\Temp\ccEQi33f.s:28144  .debug_str:0000000000020dd7 .LASF3896
C:\Users\SOLDER~1\AppData\Local\Temp\ccEQi33f.s:22416  .debug_str:000000000000997b .LASF3897
C:\Users\SOLDER~1\AppData\Local\Temp\ccEQi33f.s:29848  .debug_str:0000000000027db4 .LASF3898
C:\Users\SOLDER~1\AppData\Local\Temp\ccEQi33f.s:20474  .debug_str:0000000000001bd2 .LASF3899
C:\Users\SOLDER~1\AppData\Local\Temp\ccEQi33f.s:25780  .debug_str:00000000000174bc .LASF3900
C:\Users\SOLDER~1\AppData\Local\Temp\ccEQi33f.s:30568  .debug_str:000000000002ac6a .LASF3901
C:\Users\SOLDER~1\AppData\Local\Temp\ccEQi33f.s:31390  .debug_str:000000000002e19c .LASF3902
C:\Users\SOLDER~1\AppData\Local\Temp\ccEQi33f.s:23726  .debug_str:000000000000ef4d .LASF3903
C:\Users\SOLDER~1\AppData\Local\Temp\ccEQi33f.s:25058  .debug_str:00000000000146b2 .LASF3904
C:\Users\SOLDER~1\AppData\Local\Temp\ccEQi33f.s:31364  .debug_str:000000000002dfeb .LASF3905
C:\Users\SOLDER~1\AppData\Local\Temp\ccEQi33f.s:29000  .debug_str:00000000000245a3 .LASF3906
C:\Users\SOLDER~1\AppData\Local\Temp\ccEQi33f.s:30060  .debug_str:0000000000028b45 .LASF3907
C:\Users\SOLDER~1\AppData\Local\Temp\ccEQi33f.s:27448  .debug_str:000000000001e0c9 .LASF3908
C:\Users\SOLDER~1\AppData\Local\Temp\ccEQi33f.s:31388  .debug_str:000000000002e179 .LASF3909
C:\Users\SOLDER~1\AppData\Local\Temp\ccEQi33f.s:25436  .debug_str:0000000000015ee5 .LASF3910
C:\Users\SOLDER~1\AppData\Local\Temp\ccEQi33f.s:31248  .debug_str:000000000002d890 .LASF3911
C:\Users\SOLDER~1\AppData\Local\Temp\ccEQi33f.s:25980  .debug_str:00000000000181bc .LASF3912
C:\Users\SOLDER~1\AppData\Local\Temp\ccEQi33f.s:29894  .debug_str:00000000000280d2 .LASF3913
C:\Users\SOLDER~1\AppData\Local\Temp\ccEQi33f.s:21162  .debug_str:0000000000004824 .LASF3914
C:\Users\SOLDER~1\AppData\Local\Temp\ccEQi33f.s:26488  .debug_str:000000000001a20b .LASF3915
C:\Users\SOLDER~1\AppData\Local\Temp\ccEQi33f.s:27686  .debug_str:000000000001f051 .LASF3916
C:\Users\SOLDER~1\AppData\Local\Temp\ccEQi33f.s:28156  .debug_str:0000000000020ea4 .LASF3917
C:\Users\SOLDER~1\AppData\Local\Temp\ccEQi33f.s:24102  .debug_str:00000000000107ef .LASF3918
C:\Users\SOLDER~1\AppData\Local\Temp\ccEQi33f.s:29426  .debug_str:00000000000261d9 .LASF3919
C:\Users\SOLDER~1\AppData\Local\Temp\ccEQi33f.s:30344  .debug_str:0000000000029dd1 .LASF3920
C:\Users\SOLDER~1\AppData\Local\Temp\ccEQi33f.s:29306  .debug_str:000000000002596e .LASF3921
C:\Users\SOLDER~1\AppData\Local\Temp\ccEQi33f.s:21828  .debug_str:0000000000007333 .LASF3922
C:\Users\SOLDER~1\AppData\Local\Temp\ccEQi33f.s:28244  .debug_str:0000000000021471 .LASF3923
C:\Users\SOLDER~1\AppData\Local\Temp\ccEQi33f.s:24230  .debug_str:0000000000010fed .LASF3924
C:\Users\SOLDER~1\AppData\Local\Temp\ccEQi33f.s:28086  .debug_str:0000000000020a04 .LASF3925
C:\Users\SOLDER~1\AppData\Local\Temp\ccEQi33f.s:21316  .debug_str:0000000000005174 .LASF3926
C:\Users\SOLDER~1\AppData\Local\Temp\ccEQi33f.s:24780  .debug_str:0000000000013342 .LASF3927
C:\Users\SOLDER~1\AppData\Local\Temp\ccEQi33f.s:22434  .debug_str:0000000000009a93 .LASF3928
C:\Users\SOLDER~1\AppData\Local\Temp\ccEQi33f.s:20904  .debug_str:00000000000037b6 .LASF3929
C:\Users\SOLDER~1\AppData\Local\Temp\ccEQi33f.s:21934  .debug_str:00000000000079ba .LASF3930
C:\Users\SOLDER~1\AppData\Local\Temp\ccEQi33f.s:27700  .debug_str:000000000001f138 .LASF3931
C:\Users\SOLDER~1\AppData\Local\Temp\ccEQi33f.s:27178  .debug_str:000000000001cf22 .LASF3932
C:\Users\SOLDER~1\AppData\Local\Temp\ccEQi33f.s:29910  .debug_str:00000000000281a7 .LASF3933
C:\Users\SOLDER~1\AppData\Local\Temp\ccEQi33f.s:29482  .debug_str:0000000000026581 .LASF3934
C:\Users\SOLDER~1\AppData\Local\Temp\ccEQi33f.s:22428  .debug_str:0000000000009a36 .LASF3935
C:\Users\SOLDER~1\AppData\Local\Temp\ccEQi33f.s:23622  .debug_str:000000000000e8e1 .LASF3936
C:\Users\SOLDER~1\AppData\Local\Temp\ccEQi33f.s:25390  .debug_str:0000000000015bfb .LASF3937
C:\Users\SOLDER~1\AppData\Local\Temp\ccEQi33f.s:21374  .debug_str:000000000000550b .LASF3938
C:\Users\SOLDER~1\AppData\Local\Temp\ccEQi33f.s:22114  .debug_str:000000000000858d .LASF3939
C:\Users\SOLDER~1\AppData\Local\Temp\ccEQi33f.s:30416  .debug_str:000000000002a2ce .LASF3940
C:\Users\SOLDER~1\AppData\Local\Temp\ccEQi33f.s:25926  .debug_str:0000000000017e21 .LASF3941
C:\Users\SOLDER~1\AppData\Local\Temp\ccEQi33f.s:23548  .debug_str:000000000000e40d .LASF3942
C:\Users\SOLDER~1\AppData\Local\Temp\ccEQi33f.s:28160  .debug_str:0000000000020eea .LASF3943
C:\Users\SOLDER~1\AppData\Local\Temp\ccEQi33f.s:20662  .debug_str:0000000000002827 .LASF3944
C:\Users\SOLDER~1\AppData\Local\Temp\ccEQi33f.s:26940  .debug_str:000000000001bef8 .LASF3945
C:\Users\SOLDER~1\AppData\Local\Temp\ccEQi33f.s:22070  .debug_str:00000000000082d7 .LASF3946
GAS LISTING C:\Users\SOLDER~1\AppData\Local\Temp\ccEQi33f.s 			page 112


C:\Users\SOLDER~1\AppData\Local\Temp\ccEQi33f.s:28028  .debug_str:0000000000020666 .LASF3947
C:\Users\SOLDER~1\AppData\Local\Temp\ccEQi33f.s:29178  .debug_str:00000000000250f8 .LASF3948
C:\Users\SOLDER~1\AppData\Local\Temp\ccEQi33f.s:25294  .debug_str:0000000000015640 .LASF3949
C:\Users\SOLDER~1\AppData\Local\Temp\ccEQi33f.s:20328  .debug_str:000000000000126c .LASF3950
C:\Users\SOLDER~1\AppData\Local\Temp\ccEQi33f.s:28768  .debug_str:000000000002366c .LASF3951
C:\Users\SOLDER~1\AppData\Local\Temp\ccEQi33f.s:21032  .debug_str:0000000000003fcd .LASF3952
C:\Users\SOLDER~1\AppData\Local\Temp\ccEQi33f.s:23966  .debug_str:000000000000ff47 .LASF3953
C:\Users\SOLDER~1\AppData\Local\Temp\ccEQi33f.s:25394  .debug_str:0000000000015c3c .LASF3954
C:\Users\SOLDER~1\AppData\Local\Temp\ccEQi33f.s:22010  .debug_str:0000000000007edc .LASF3955
C:\Users\SOLDER~1\AppData\Local\Temp\ccEQi33f.s:20376  .debug_str:0000000000001592 .LASF3956
C:\Users\SOLDER~1\AppData\Local\Temp\ccEQi33f.s:31598  .debug_str:000000000002eeb5 .LASF3957
C:\Users\SOLDER~1\AppData\Local\Temp\ccEQi33f.s:24524  .debug_str:0000000000012297 .LASF3958
C:\Users\SOLDER~1\AppData\Local\Temp\ccEQi33f.s:25742  .debug_str:000000000001723b .LASF3959
C:\Users\SOLDER~1\AppData\Local\Temp\ccEQi33f.s:23502  .debug_str:000000000000e0f2 .LASF3960
C:\Users\SOLDER~1\AppData\Local\Temp\ccEQi33f.s:26010  .debug_str:0000000000018399 .LASF3961
C:\Users\SOLDER~1\AppData\Local\Temp\ccEQi33f.s:29192  .debug_str:00000000000251f0 .LASF3962
C:\Users\SOLDER~1\AppData\Local\Temp\ccEQi33f.s:23500  .debug_str:000000000000e0cb .LASF3963
C:\Users\SOLDER~1\AppData\Local\Temp\ccEQi33f.s:23634  .debug_str:000000000000e997 .LASF3964
C:\Users\SOLDER~1\AppData\Local\Temp\ccEQi33f.s:28088  .debug_str:0000000000020a24 .LASF3965
C:\Users\SOLDER~1\AppData\Local\Temp\ccEQi33f.s:28154  .debug_str:0000000000020e7c .LASF3966
C:\Users\SOLDER~1\AppData\Local\Temp\ccEQi33f.s:27120  .debug_str:000000000001cb6b .LASF3967
C:\Users\SOLDER~1\AppData\Local\Temp\ccEQi33f.s:28908  .debug_str:0000000000023f77 .LASF3968
C:\Users\SOLDER~1\AppData\Local\Temp\ccEQi33f.s:25886  .debug_str:0000000000017b7c .LASF3969
C:\Users\SOLDER~1\AppData\Local\Temp\ccEQi33f.s:23096  .debug_str:000000000000c5ec .LASF3970
C:\Users\SOLDER~1\AppData\Local\Temp\ccEQi33f.s:22660  .debug_str:000000000000a9a0 .LASF3971
C:\Users\SOLDER~1\AppData\Local\Temp\ccEQi33f.s:21172  .debug_str:00000000000048d1 .LASF3972
C:\Users\SOLDER~1\AppData\Local\Temp\ccEQi33f.s:29438  .debug_str:00000000000262ba .LASF3973
C:\Users\SOLDER~1\AppData\Local\Temp\ccEQi33f.s:23888  .debug_str:000000000000f9f6 .LASF3974
C:\Users\SOLDER~1\AppData\Local\Temp\ccEQi33f.s:24088  .debug_str:00000000000106e3 .LASF3975
C:\Users\SOLDER~1\AppData\Local\Temp\ccEQi33f.s:20186  .debug_str:0000000000000935 .LASF3976
C:\Users\SOLDER~1\AppData\Local\Temp\ccEQi33f.s:21732  .debug_str:0000000000006caa .LASF3977
C:\Users\SOLDER~1\AppData\Local\Temp\ccEQi33f.s:31478  .debug_str:000000000002e734 .LASF3978
C:\Users\SOLDER~1\AppData\Local\Temp\ccEQi33f.s:22594  .debug_str:000000000000a51f .LASF3979
C:\Users\SOLDER~1\AppData\Local\Temp\ccEQi33f.s:25658  .debug_str:0000000000016caf .LASF3980
C:\Users\SOLDER~1\AppData\Local\Temp\ccEQi33f.s:29600  .debug_str:0000000000026d52 .LASF3981
C:\Users\SOLDER~1\AppData\Local\Temp\ccEQi33f.s:26702  .debug_str:000000000001afe4 .LASF3982
C:\Users\SOLDER~1\AppData\Local\Temp\ccEQi33f.s:30028  .debug_str:000000000002896d .LASF3983
C:\Users\SOLDER~1\AppData\Local\Temp\ccEQi33f.s:25824  .debug_str:000000000001778a .LASF3984
C:\Users\SOLDER~1\AppData\Local\Temp\ccEQi33f.s:29594  .debug_str:0000000000026ce7 .LASF3985
C:\Users\SOLDER~1\AppData\Local\Temp\ccEQi33f.s:22160  .debug_str:000000000000886b .LASF3986
C:\Users\SOLDER~1\AppData\Local\Temp\ccEQi33f.s:21682  .debug_str:0000000000006991 .LASF3987
C:\Users\SOLDER~1\AppData\Local\Temp\ccEQi33f.s:27316  .debug_str:000000000001d84d .LASF3988
C:\Users\SOLDER~1\AppData\Local\Temp\ccEQi33f.s:21856  .debug_str:0000000000007500 .LASF3989
C:\Users\SOLDER~1\AppData\Local\Temp\ccEQi33f.s:29464  .debug_str:0000000000026485 .LASF3990
C:\Users\SOLDER~1\AppData\Local\Temp\ccEQi33f.s:21024  .debug_str:0000000000003f40 .LASF3991
C:\Users\SOLDER~1\AppData\Local\Temp\ccEQi33f.s:28900  .debug_str:0000000000023ef4 .LASF3992
C:\Users\SOLDER~1\AppData\Local\Temp\ccEQi33f.s:22254  .debug_str:0000000000008ec6 .LASF3993
C:\Users\SOLDER~1\AppData\Local\Temp\ccEQi33f.s:22838  .debug_str:000000000000b52d .LASF3994
C:\Users\SOLDER~1\AppData\Local\Temp\ccEQi33f.s:23120  .debug_str:000000000000c798 .LASF3995
C:\Users\SOLDER~1\AppData\Local\Temp\ccEQi33f.s:28980  .debug_str:000000000002442c .LASF3996
C:\Users\SOLDER~1\AppData\Local\Temp\ccEQi33f.s:30946  .debug_str:000000000002c4f0 .LASF3997
C:\Users\SOLDER~1\AppData\Local\Temp\ccEQi33f.s:22298  .debug_str:00000000000091dc .LASF3998
C:\Users\SOLDER~1\AppData\Local\Temp\ccEQi33f.s:26850  .debug_str:000000000001b907 .LASF3999
C:\Users\SOLDER~1\AppData\Local\Temp\ccEQi33f.s:25070  .debug_str:0000000000014763 .LASF4000
C:\Users\SOLDER~1\AppData\Local\Temp\ccEQi33f.s:29804  .debug_str:0000000000027a97 .LASF4001
C:\Users\SOLDER~1\AppData\Local\Temp\ccEQi33f.s:31400  .debug_str:000000000002e233 .LASF4002
C:\Users\SOLDER~1\AppData\Local\Temp\ccEQi33f.s:20600  .debug_str:0000000000002438 .LASF4003
GAS LISTING C:\Users\SOLDER~1\AppData\Local\Temp\ccEQi33f.s 			page 113


C:\Users\SOLDER~1\AppData\Local\Temp\ccEQi33f.s:25526  .debug_str:00000000000164bd .LASF4004
C:\Users\SOLDER~1\AppData\Local\Temp\ccEQi33f.s:28916  .debug_str:0000000000023ff0 .LASF4005
C:\Users\SOLDER~1\AppData\Local\Temp\ccEQi33f.s:30148  .debug_str:0000000000029113 .LASF4006
C:\Users\SOLDER~1\AppData\Local\Temp\ccEQi33f.s:21370  .debug_str:00000000000054c9 .LASF4007
C:\Users\SOLDER~1\AppData\Local\Temp\ccEQi33f.s:22046  .debug_str:000000000000815c .LASF4008
C:\Users\SOLDER~1\AppData\Local\Temp\ccEQi33f.s:20292  .debug_str:0000000000001024 .LASF4009
C:\Users\SOLDER~1\AppData\Local\Temp\ccEQi33f.s:30000  .debug_str:00000000000287a8 .LASF4010
C:\Users\SOLDER~1\AppData\Local\Temp\ccEQi33f.s:20258  .debug_str:0000000000000e14 .LASF4011
C:\Users\SOLDER~1\AppData\Local\Temp\ccEQi33f.s:30492  .debug_str:000000000002a793 .LASF4012
C:\Users\SOLDER~1\AppData\Local\Temp\ccEQi33f.s:30020  .debug_str:00000000000288e0 .LASF4013
C:\Users\SOLDER~1\AppData\Local\Temp\ccEQi33f.s:26480  .debug_str:000000000001a184 .LASF4014
C:\Users\SOLDER~1\AppData\Local\Temp\ccEQi33f.s:22648  .debug_str:000000000000a8d0 .LASF4015
C:\Users\SOLDER~1\AppData\Local\Temp\ccEQi33f.s:20514  .debug_str:0000000000001e85 .LASF4016
C:\Users\SOLDER~1\AppData\Local\Temp\ccEQi33f.s:31082  .debug_str:000000000002cd9b .LASF4017
C:\Users\SOLDER~1\AppData\Local\Temp\ccEQi33f.s:28336  .debug_str:0000000000021a78 .LASF4018
C:\Users\SOLDER~1\AppData\Local\Temp\ccEQi33f.s:20114  .debug_str:00000000000003bf .LASF4019
C:\Users\SOLDER~1\AppData\Local\Temp\ccEQi33f.s:23084  .debug_str:000000000000c535 .LASF4020
C:\Users\SOLDER~1\AppData\Local\Temp\ccEQi33f.s:22920  .debug_str:000000000000ba0c .LASF4021
C:\Users\SOLDER~1\AppData\Local\Temp\ccEQi33f.s:28956  .debug_str:0000000000024291 .LASF4022
C:\Users\SOLDER~1\AppData\Local\Temp\ccEQi33f.s:29320  .debug_str:0000000000025a7f .LASF4023
C:\Users\SOLDER~1\AppData\Local\Temp\ccEQi33f.s:29934  .debug_str:0000000000028330 .LASF4024
C:\Users\SOLDER~1\AppData\Local\Temp\ccEQi33f.s:21060  .debug_str:00000000000041b2 .LASF4025
C:\Users\SOLDER~1\AppData\Local\Temp\ccEQi33f.s:27604  .debug_str:000000000001eae4 .LASF4026
C:\Users\SOLDER~1\AppData\Local\Temp\ccEQi33f.s:25168  .debug_str:0000000000014e13 .LASF4027
C:\Users\SOLDER~1\AppData\Local\Temp\ccEQi33f.s:31458  .debug_str:000000000002e5de .LASF4028
C:\Users\SOLDER~1\AppData\Local\Temp\ccEQi33f.s:20920  .debug_str:00000000000038c2 .LASF4029
C:\Users\SOLDER~1\AppData\Local\Temp\ccEQi33f.s:26820  .debug_str:000000000001b749 .LASF4030
C:\Users\SOLDER~1\AppData\Local\Temp\ccEQi33f.s:29486  .debug_str:00000000000265ce .LASF4031
C:\Users\SOLDER~1\AppData\Local\Temp\ccEQi33f.s:23996  .debug_str:0000000000010113 .LASF4032
C:\Users\SOLDER~1\AppData\Local\Temp\ccEQi33f.s:28696  .debug_str:0000000000023184 .LASF4033
C:\Users\SOLDER~1\AppData\Local\Temp\ccEQi33f.s:22922  .debug_str:000000000000ba29 .LASF4034
C:\Users\SOLDER~1\AppData\Local\Temp\ccEQi33f.s:30348  .debug_str:0000000000029e14 .LASF4035
C:\Users\SOLDER~1\AppData\Local\Temp\ccEQi33f.s:22386  .debug_str:000000000000977d .LASF4036
C:\Users\SOLDER~1\AppData\Local\Temp\ccEQi33f.s:21238  .debug_str:0000000000004ce2 .LASF4037
C:\Users\SOLDER~1\AppData\Local\Temp\ccEQi33f.s:25988  .debug_str:0000000000018248 .LASF4038
C:\Users\SOLDER~1\AppData\Local\Temp\ccEQi33f.s:22130  .debug_str:00000000000086a7 .LASF4039
C:\Users\SOLDER~1\AppData\Local\Temp\ccEQi33f.s:28118  .debug_str:0000000000020c11 .LASF4040
C:\Users\SOLDER~1\AppData\Local\Temp\ccEQi33f.s:31210  .debug_str:000000000002d60e .LASF4041
C:\Users\SOLDER~1\AppData\Local\Temp\ccEQi33f.s:23720  .debug_str:000000000000eef8 .LASF4042
C:\Users\SOLDER~1\AppData\Local\Temp\ccEQi33f.s:31314  .debug_str:000000000002dcc7 .LASF4043
C:\Users\SOLDER~1\AppData\Local\Temp\ccEQi33f.s:27884  .debug_str:000000000001fd19 .LASF4044
C:\Users\SOLDER~1\AppData\Local\Temp\ccEQi33f.s:21428  .debug_str:00000000000058c4 .LASF4045
C:\Users\SOLDER~1\AppData\Local\Temp\ccEQi33f.s:27324  .debug_str:000000000001d88f .LASF4046
C:\Users\SOLDER~1\AppData\Local\Temp\ccEQi33f.s:21420  .debug_str:0000000000005830 .LASF4047
C:\Users\SOLDER~1\AppData\Local\Temp\ccEQi33f.s:29166  .debug_str:0000000000025055 .LASF4048
C:\Users\SOLDER~1\AppData\Local\Temp\ccEQi33f.s:24264  .debug_str:000000000001121c .LASF4049
C:\Users\SOLDER~1\AppData\Local\Temp\ccEQi33f.s:24836  .debug_str:0000000000013712 .LASF4050
C:\Users\SOLDER~1\AppData\Local\Temp\ccEQi33f.s:20732  .debug_str:0000000000002c99 .LASF4051
C:\Users\SOLDER~1\AppData\Local\Temp\ccEQi33f.s:24954  .debug_str:0000000000013f83 .LASF4052
C:\Users\SOLDER~1\AppData\Local\Temp\ccEQi33f.s:24056  .debug_str:000000000001050a .LASF4053
C:\Users\SOLDER~1\AppData\Local\Temp\ccEQi33f.s:24240  .debug_str:00000000000110a6 .LASF4054
C:\Users\SOLDER~1\AppData\Local\Temp\ccEQi33f.s:28566  .debug_str:00000000000228fc .LASF4055
C:\Users\SOLDER~1\AppData\Local\Temp\ccEQi33f.s:24162  .debug_str:0000000000010bb1 .LASF4056
C:\Users\SOLDER~1\AppData\Local\Temp\ccEQi33f.s:20824  .debug_str:0000000000003296 .LASF4057
C:\Users\SOLDER~1\AppData\Local\Temp\ccEQi33f.s:24696  .debug_str:0000000000012df9 .LASF4058
C:\Users\SOLDER~1\AppData\Local\Temp\ccEQi33f.s:24610  .debug_str:00000000000127ff .LASF4059
C:\Users\SOLDER~1\AppData\Local\Temp\ccEQi33f.s:22290  .debug_str:0000000000009157 .LASF4060
GAS LISTING C:\Users\SOLDER~1\AppData\Local\Temp\ccEQi33f.s 			page 114


C:\Users\SOLDER~1\AppData\Local\Temp\ccEQi33f.s:21514  .debug_str:0000000000005e49 .LASF4061
C:\Users\SOLDER~1\AppData\Local\Temp\ccEQi33f.s:28114  .debug_str:0000000000020be7 .LASF4062
C:\Users\SOLDER~1\AppData\Local\Temp\ccEQi33f.s:25768  .debug_str:00000000000173f9 .LASF4063
C:\Users\SOLDER~1\AppData\Local\Temp\ccEQi33f.s:27990  .debug_str:00000000000203df .LASF4064
C:\Users\SOLDER~1\AppData\Local\Temp\ccEQi33f.s:28374  .debug_str:0000000000021cd4 .LASF4065
C:\Users\SOLDER~1\AppData\Local\Temp\ccEQi33f.s:28574  .debug_str:000000000002298d .LASF4066
C:\Users\SOLDER~1\AppData\Local\Temp\ccEQi33f.s:24564  .debug_str:0000000000012559 .LASF4067
C:\Users\SOLDER~1\AppData\Local\Temp\ccEQi33f.s:28706  .debug_str:0000000000023233 .LASF4068
C:\Users\SOLDER~1\AppData\Local\Temp\ccEQi33f.s:21564  .debug_str:00000000000061b1 .LASF4069
C:\Users\SOLDER~1\AppData\Local\Temp\ccEQi33f.s:28850  .debug_str:0000000000023b9c .LASF4070
C:\Users\SOLDER~1\AppData\Local\Temp\ccEQi33f.s:26060  .debug_str:00000000000186cb .LASF4071
C:\Users\SOLDER~1\AppData\Local\Temp\ccEQi33f.s:28352  .debug_str:0000000000021b75 .LASF4072
C:\Users\SOLDER~1\AppData\Local\Temp\ccEQi33f.s:20560  .debug_str:0000000000002180 .LASF4073
C:\Users\SOLDER~1\AppData\Local\Temp\ccEQi33f.s:29474  .debug_str:000000000002651b .LASF4074
C:\Users\SOLDER~1\AppData\Local\Temp\ccEQi33f.s:28460  .debug_str:00000000000221e9 .LASF4075
C:\Users\SOLDER~1\AppData\Local\Temp\ccEQi33f.s:24688  .debug_str:0000000000012d6d .LASF4076
C:\Users\SOLDER~1\AppData\Local\Temp\ccEQi33f.s:29276  .debug_str:0000000000025743 .LASF4077
C:\Users\SOLDER~1\AppData\Local\Temp\ccEQi33f.s:20964  .debug_str:0000000000003ba6 .LASF4078
C:\Users\SOLDER~1\AppData\Local\Temp\ccEQi33f.s:23874  .debug_str:000000000000f8f9 .LASF4079
C:\Users\SOLDER~1\AppData\Local\Temp\ccEQi33f.s:22806  .debug_str:000000000000b2f0 .LASF4080
C:\Users\SOLDER~1\AppData\Local\Temp\ccEQi33f.s:21230  .debug_str:0000000000004c75 .LASF4081
C:\Users\SOLDER~1\AppData\Local\Temp\ccEQi33f.s:29800  .debug_str:0000000000027a5f .LASF4082
C:\Users\SOLDER~1\AppData\Local\Temp\ccEQi33f.s:22390  .debug_str:00000000000097b4 .LASF4083
C:\Users\SOLDER~1\AppData\Local\Temp\ccEQi33f.s:30812  .debug_str:000000000002bc11 .LASF4084
C:\Users\SOLDER~1\AppData\Local\Temp\ccEQi33f.s:28704  .debug_str:0000000000023216 .LASF4085
C:\Users\SOLDER~1\AppData\Local\Temp\ccEQi33f.s:29970  .debug_str:000000000002856c .LASF4086
C:\Users\SOLDER~1\AppData\Local\Temp\ccEQi33f.s:26982  .debug_str:000000000001c200 .LASF4087
C:\Users\SOLDER~1\AppData\Local\Temp\ccEQi33f.s:25108  .debug_str:0000000000014a1c .LASF4088
C:\Users\SOLDER~1\AppData\Local\Temp\ccEQi33f.s:21044  .debug_str:000000000000408d .LASF4089
C:\Users\SOLDER~1\AppData\Local\Temp\ccEQi33f.s:26772  .debug_str:000000000001b45b .LASF4090
C:\Users\SOLDER~1\AppData\Local\Temp\ccEQi33f.s:30716  .debug_str:000000000002b5f4 .LASF4091
C:\Users\SOLDER~1\AppData\Local\Temp\ccEQi33f.s:31564  .debug_str:000000000002ecb8 .LASF4092
C:\Users\SOLDER~1\AppData\Local\Temp\ccEQi33f.s:21826  .debug_str:0000000000007316 .LASF4093
C:\Users\SOLDER~1\AppData\Local\Temp\ccEQi33f.s:31026  .debug_str:000000000002ca0a .LASF4094
C:\Users\SOLDER~1\AppData\Local\Temp\ccEQi33f.s:31278  .debug_str:000000000002da57 .LASF4095
C:\Users\SOLDER~1\AppData\Local\Temp\ccEQi33f.s:25976  .debug_str:000000000001818e .LASF4096
C:\Users\SOLDER~1\AppData\Local\Temp\ccEQi33f.s:20378  .debug_str:00000000000015ad .LASF4097
C:\Users\SOLDER~1\AppData\Local\Temp\ccEQi33f.s:21184  .debug_str:0000000000004985 .LASF4098
C:\Users\SOLDER~1\AppData\Local\Temp\ccEQi33f.s:21012  .debug_str:0000000000003eaa .LASF4099
C:\Users\SOLDER~1\AppData\Local\Temp\ccEQi33f.s:26776  .debug_str:000000000001b495 .LASF4100
C:\Users\SOLDER~1\AppData\Local\Temp\ccEQi33f.s:30570  .debug_str:000000000002ac8b .LASF4101
C:\Users\SOLDER~1\AppData\Local\Temp\ccEQi33f.s:25146  .debug_str:0000000000014cad .LASF4102
C:\Users\SOLDER~1\AppData\Local\Temp\ccEQi33f.s:21180  .debug_str:0000000000004952 .LASF4103
C:\Users\SOLDER~1\AppData\Local\Temp\ccEQi33f.s:23388  .debug_str:000000000000d960 .LASF4104
C:\Users\SOLDER~1\AppData\Local\Temp\ccEQi33f.s:22588  .debug_str:000000000000a4cd .LASF4105
C:\Users\SOLDER~1\AppData\Local\Temp\ccEQi33f.s:22508  .debug_str:0000000000009f6f .LASF4106
C:\Users\SOLDER~1\AppData\Local\Temp\ccEQi33f.s:31204  .debug_str:000000000002d59b .LASF4107
C:\Users\SOLDER~1\AppData\Local\Temp\ccEQi33f.s:26116  .debug_str:0000000000018a82 .LASF4108
C:\Users\SOLDER~1\AppData\Local\Temp\ccEQi33f.s:31452  .debug_str:000000000002e57e .LASF4109
C:\Users\SOLDER~1\AppData\Local\Temp\ccEQi33f.s:21020  .debug_str:0000000000003f1b .LASF4110
C:\Users\SOLDER~1\AppData\Local\Temp\ccEQi33f.s:28516  .debug_str:00000000000225a2 .LASF4111
C:\Users\SOLDER~1\AppData\Local\Temp\ccEQi33f.s:24074  .debug_str:0000000000010620 .LASF4112
C:\Users\SOLDER~1\AppData\Local\Temp\ccEQi33f.s:26068  .debug_str:0000000000018744 .LASF4113
C:\Users\SOLDER~1\AppData\Local\Temp\ccEQi33f.s:28260  .debug_str:0000000000021597 .LASF4114
C:\Users\SOLDER~1\AppData\Local\Temp\ccEQi33f.s:26306  .debug_str:00000000000196bd .LASF4115
C:\Users\SOLDER~1\AppData\Local\Temp\ccEQi33f.s:23546  .debug_str:000000000000e3ef .LASF4116
C:\Users\SOLDER~1\AppData\Local\Temp\ccEQi33f.s:31232  .debug_str:000000000002d787 .LASF4117
GAS LISTING C:\Users\SOLDER~1\AppData\Local\Temp\ccEQi33f.s 			page 115


C:\Users\SOLDER~1\AppData\Local\Temp\ccEQi33f.s:22446  .debug_str:0000000000009b51 .LASF4118
C:\Users\SOLDER~1\AppData\Local\Temp\ccEQi33f.s:21752  .debug_str:0000000000006e11 .LASF4119
C:\Users\SOLDER~1\AppData\Local\Temp\ccEQi33f.s:29724  .debug_str:0000000000027599 .LASF4120
C:\Users\SOLDER~1\AppData\Local\Temp\ccEQi33f.s:24210  .debug_str:0000000000010eb1 .LASF4121
C:\Users\SOLDER~1\AppData\Local\Temp\ccEQi33f.s:21352  .debug_str:00000000000053bf .LASF4122
C:\Users\SOLDER~1\AppData\Local\Temp\ccEQi33f.s:21684  .debug_str:00000000000069ac .LASF4123
C:\Users\SOLDER~1\AppData\Local\Temp\ccEQi33f.s:25386  .debug_str:0000000000015bbb .LASF4124
C:\Users\SOLDER~1\AppData\Local\Temp\ccEQi33f.s:22822  .debug_str:000000000000b40b .LASF4125
C:\Users\SOLDER~1\AppData\Local\Temp\ccEQi33f.s:20490  .debug_str:0000000000001d00 .LASF4126
C:\Users\SOLDER~1\AppData\Local\Temp\ccEQi33f.s:25186  .debug_str:0000000000014f2c .LASF4127
C:\Users\SOLDER~1\AppData\Local\Temp\ccEQi33f.s:22968  .debug_str:000000000000bd28 .LASF4128
C:\Users\SOLDER~1\AppData\Local\Temp\ccEQi33f.s:30342  .debug_str:0000000000029dbf .LASF4129
C:\Users\SOLDER~1\AppData\Local\Temp\ccEQi33f.s:20658  .debug_str:00000000000027e9 .LASF4130
C:\Users\SOLDER~1\AppData\Local\Temp\ccEQi33f.s:22620  .debug_str:000000000000a709 .LASF4131
C:\Users\SOLDER~1\AppData\Local\Temp\ccEQi33f.s:27364  .debug_str:000000000001db2f .LASF4132
C:\Users\SOLDER~1\AppData\Local\Temp\ccEQi33f.s:23244  .debug_str:000000000000d01b .LASF4133
C:\Users\SOLDER~1\AppData\Local\Temp\ccEQi33f.s:21390  .debug_str:0000000000005600 .LASF4134
C:\Users\SOLDER~1\AppData\Local\Temp\ccEQi33f.s:24006  .debug_str:00000000000101ad .LASF4135
C:\Users\SOLDER~1\AppData\Local\Temp\ccEQi33f.s:29698  .debug_str:00000000000273e0 .LASF4136
C:\Users\SOLDER~1\AppData\Local\Temp\ccEQi33f.s:28736  .debug_str:0000000000023478 .LASF4137
C:\Users\SOLDER~1\AppData\Local\Temp\ccEQi33f.s:31504  .debug_str:000000000002e906 .LASF4138
C:\Users\SOLDER~1\AppData\Local\Temp\ccEQi33f.s:25074  .debug_str:000000000001479b .LASF4139
C:\Users\SOLDER~1\AppData\Local\Temp\ccEQi33f.s:21882  .debug_str:0000000000007697 .LASF4140
C:\Users\SOLDER~1\AppData\Local\Temp\ccEQi33f.s:28802  .debug_str:00000000000238a7 .LASF4141
C:\Users\SOLDER~1\AppData\Local\Temp\ccEQi33f.s:22042  .debug_str:000000000000812b .LASF4142
C:\Users\SOLDER~1\AppData\Local\Temp\ccEQi33f.s:20418  .debug_str:0000000000001852 .LASF4143
C:\Users\SOLDER~1\AppData\Local\Temp\ccEQi33f.s:28952  .debug_str:0000000000024265 .LASF4144
C:\Users\SOLDER~1\AppData\Local\Temp\ccEQi33f.s:25222  .debug_str:000000000001516b .LASF4145
C:\Users\SOLDER~1\AppData\Local\Temp\ccEQi33f.s:23532  .debug_str:000000000000e305 .LASF4146
C:\Users\SOLDER~1\AppData\Local\Temp\ccEQi33f.s:28546  .debug_str:00000000000227a1 .LASF4147
C:\Users\SOLDER~1\AppData\Local\Temp\ccEQi33f.s:28738  .debug_str:000000000002348b .LASF4148
C:\Users\SOLDER~1\AppData\Local\Temp\ccEQi33f.s:20760  .debug_str:0000000000002e72 .LASF4149
C:\Users\SOLDER~1\AppData\Local\Temp\ccEQi33f.s:28004  .debug_str:00000000000204dd .LASF4150
C:\Users\SOLDER~1\AppData\Local\Temp\ccEQi33f.s:30802  .debug_str:000000000002bb5b .LASF4151
C:\Users\SOLDER~1\AppData\Local\Temp\ccEQi33f.s:27890  .debug_str:000000000001fd6b .LASF4152
C:\Users\SOLDER~1\AppData\Local\Temp\ccEQi33f.s:26920  .debug_str:000000000001bdca .LASF4153
C:\Users\SOLDER~1\AppData\Local\Temp\ccEQi33f.s:21198  .debug_str:0000000000004a4c .LASF4154
C:\Users\SOLDER~1\AppData\Local\Temp\ccEQi33f.s:20618  .debug_str:0000000000002569 .LASF4155
C:\Users\SOLDER~1\AppData\Local\Temp\ccEQi33f.s:22704  .debug_str:000000000000ac63 .LASF4156
C:\Users\SOLDER~1\AppData\Local\Temp\ccEQi33f.s:26052  .debug_str:000000000001864c .LASF4157
C:\Users\SOLDER~1\AppData\Local\Temp\ccEQi33f.s:30446  .debug_str:000000000002a4a8 .LASF4158
C:\Users\SOLDER~1\AppData\Local\Temp\ccEQi33f.s:28462  .debug_str:0000000000022204 .LASF4159
C:\Users\SOLDER~1\AppData\Local\Temp\ccEQi33f.s:26334  .debug_str:000000000001985a .LASF4160
C:\Users\SOLDER~1\AppData\Local\Temp\ccEQi33f.s:20654  .debug_str:00000000000027a5 .LASF4161
C:\Users\SOLDER~1\AppData\Local\Temp\ccEQi33f.s:24522  .debug_str:0000000000012279 .LASF4162
C:\Users\SOLDER~1\AppData\Local\Temp\ccEQi33f.s:27986  .debug_str:000000000002039f .LASF4163
C:\Users\SOLDER~1\AppData\Local\Temp\ccEQi33f.s:25542  .debug_str:00000000000165a5 .LASF4164
C:\Users\SOLDER~1\AppData\Local\Temp\ccEQi33f.s:22652  .debug_str:000000000000a91a .LASF4165
C:\Users\SOLDER~1\AppData\Local\Temp\ccEQi33f.s:28778  .debug_str:000000000002372b .LASF4166
C:\Users\SOLDER~1\AppData\Local\Temp\ccEQi33f.s:29300  .debug_str:000000000002590f .LASF4167
C:\Users\SOLDER~1\AppData\Local\Temp\ccEQi33f.s:29854  .debug_str:0000000000027e0d .LASF4168
C:\Users\SOLDER~1\AppData\Local\Temp\ccEQi33f.s:27640  .debug_str:000000000001ed39 .LASF4169
C:\Users\SOLDER~1\AppData\Local\Temp\ccEQi33f.s:30768  .debug_str:000000000002b944 .LASF4170
C:\Users\SOLDER~1\AppData\Local\Temp\ccEQi33f.s:26870  .debug_str:000000000001ba88 .LASF4171
C:\Users\SOLDER~1\AppData\Local\Temp\ccEQi33f.s:30062  .debug_str:0000000000028b6a .LASF4172
C:\Users\SOLDER~1\AppData\Local\Temp\ccEQi33f.s:31162  .debug_str:000000000002d319 .LASF4173
C:\Users\SOLDER~1\AppData\Local\Temp\ccEQi33f.s:21276  .debug_str:0000000000004f17 .LASF4174
GAS LISTING C:\Users\SOLDER~1\AppData\Local\Temp\ccEQi33f.s 			page 116


C:\Users\SOLDER~1\AppData\Local\Temp\ccEQi33f.s:31404  .debug_str:000000000002e25e .LASF4175
C:\Users\SOLDER~1\AppData\Local\Temp\ccEQi33f.s:27776  .debug_str:000000000001f65f .LASF4176
C:\Users\SOLDER~1\AppData\Local\Temp\ccEQi33f.s:29736  .debug_str:0000000000027667 .LASF4177
C:\Users\SOLDER~1\AppData\Local\Temp\ccEQi33f.s:29248  .debug_str:0000000000025581 .LASF4178
C:\Users\SOLDER~1\AppData\Local\Temp\ccEQi33f.s:23786  .debug_str:000000000000f2e6 .LASF4179
C:\Users\SOLDER~1\AppData\Local\Temp\ccEQi33f.s:26402  .debug_str:0000000000019cb8 .LASF4180
C:\Users\SOLDER~1\AppData\Local\Temp\ccEQi33f.s:21510  .debug_str:0000000000005e06 .LASF4181
C:\Users\SOLDER~1\AppData\Local\Temp\ccEQi33f.s:21122  .debug_str:000000000000456c .LASF4182
C:\Users\SOLDER~1\AppData\Local\Temp\ccEQi33f.s:21784  .debug_str:0000000000007062 .LASF4183
C:\Users\SOLDER~1\AppData\Local\Temp\ccEQi33f.s:29138  .debug_str:0000000000024e89 .LASF4184
C:\Users\SOLDER~1\AppData\Local\Temp\ccEQi33f.s:24962  .debug_str:0000000000013feb .LASF4185
C:\Users\SOLDER~1\AppData\Local\Temp\ccEQi33f.s:31298  .debug_str:000000000002dbab .LASF4186
C:\Users\SOLDER~1\AppData\Local\Temp\ccEQi33f.s:28350  .debug_str:0000000000021b59 .LASF4187
C:\Users\SOLDER~1\AppData\Local\Temp\ccEQi33f.s:21992  .debug_str:0000000000007da5 .LASF4188
C:\Users\SOLDER~1\AppData\Local\Temp\ccEQi33f.s:27562  .debug_str:000000000001e812 .LASF4189
C:\Users\SOLDER~1\AppData\Local\Temp\ccEQi33f.s:21888  .debug_str:00000000000076e9 .LASF4190
C:\Users\SOLDER~1\AppData\Local\Temp\ccEQi33f.s:21680  .debug_str:000000000000697d .LASF4191
C:\Users\SOLDER~1\AppData\Local\Temp\ccEQi33f.s:30110  .debug_str:0000000000028e80 .LASF4192
C:\Users\SOLDER~1\AppData\Local\Temp\ccEQi33f.s:20542  .debug_str:000000000000203e .LASF4193
C:\Users\SOLDER~1\AppData\Local\Temp\ccEQi33f.s:29210  .debug_str:0000000000025316 .LASF4194
C:\Users\SOLDER~1\AppData\Local\Temp\ccEQi33f.s:23142  .debug_str:000000000000c92b .LASF4195
C:\Users\SOLDER~1\AppData\Local\Temp\ccEQi33f.s:31104  .debug_str:000000000002cf13 .LASF4196
C:\Users\SOLDER~1\AppData\Local\Temp\ccEQi33f.s:20180  .debug_str:00000000000008d7 .LASF4197
C:\Users\SOLDER~1\AppData\Local\Temp\ccEQi33f.s:24946  .debug_str:0000000000013eec .LASF4198
C:\Users\SOLDER~1\AppData\Local\Temp\ccEQi33f.s:24928  .debug_str:0000000000013db2 .LASF4199
C:\Users\SOLDER~1\AppData\Local\Temp\ccEQi33f.s:22668  .debug_str:000000000000aa48 .LASF4200
C:\Users\SOLDER~1\AppData\Local\Temp\ccEQi33f.s:22470  .debug_str:0000000000009cf5 .LASF4201
C:\Users\SOLDER~1\AppData\Local\Temp\ccEQi33f.s:22764  .debug_str:000000000000b06c .LASF4202
C:\Users\SOLDER~1\AppData\Local\Temp\ccEQi33f.s:24108  .debug_str:0000000000010847 .LASF4203
C:\Users\SOLDER~1\AppData\Local\Temp\ccEQi33f.s:22672  .debug_str:000000000000aa8a .LASF4204
C:\Users\SOLDER~1\AppData\Local\Temp\ccEQi33f.s:24906  .debug_str:0000000000013c24 .LASF4205
C:\Users\SOLDER~1\AppData\Local\Temp\ccEQi33f.s:26212  .debug_str:00000000000190d1 .LASF4206
C:\Users\SOLDER~1\AppData\Local\Temp\ccEQi33f.s:21576  .debug_str:0000000000006262 .LASF4207
C:\Users\SOLDER~1\AppData\Local\Temp\ccEQi33f.s:24782  .debug_str:0000000000013361 .LASF4208
C:\Users\SOLDER~1\AppData\Local\Temp\ccEQi33f.s:22124  .debug_str:0000000000008627 .LASF4209
C:\Users\SOLDER~1\AppData\Local\Temp\ccEQi33f.s:30222  .debug_str:0000000000029605 .LASF4210
C:\Users\SOLDER~1\AppData\Local\Temp\ccEQi33f.s:30220  .debug_str:00000000000295e7 .LASF4211
C:\Users\SOLDER~1\AppData\Local\Temp\ccEQi33f.s:20442  .debug_str:00000000000019ad .LASF4212
C:\Users\SOLDER~1\AppData\Local\Temp\ccEQi33f.s:28186  .debug_str:00000000000210c6 .LASF4213
C:\Users\SOLDER~1\AppData\Local\Temp\ccEQi33f.s:29770  .debug_str:0000000000027880 .LASF4214
C:\Users\SOLDER~1\AppData\Local\Temp\ccEQi33f.s:22090  .debug_str:000000000000841f .LASF4215
C:\Users\SOLDER~1\AppData\Local\Temp\ccEQi33f.s:25324  .debug_str:00000000000157db .LASF4216
C:\Users\SOLDER~1\AppData\Local\Temp\ccEQi33f.s:25752  .debug_str:00000000000172d3 .LASF4217
C:\Users\SOLDER~1\AppData\Local\Temp\ccEQi33f.s:20102  .debug_str:00000000000002ec .LASF4218
C:\Users\SOLDER~1\AppData\Local\Temp\ccEQi33f.s:25064  .debug_str:000000000001470c .LASF4219
C:\Users\SOLDER~1\AppData\Local\Temp\ccEQi33f.s:29988  .debug_str:00000000000286c7 .LASF4220
C:\Users\SOLDER~1\AppData\Local\Temp\ccEQi33f.s:31072  .debug_str:000000000002ccd1 .LASF4221
C:\Users\SOLDER~1\AppData\Local\Temp\ccEQi33f.s:30322  .debug_str:0000000000029c47 .LASF4222
C:\Users\SOLDER~1\AppData\Local\Temp\ccEQi33f.s:27804  .debug_str:000000000001f82d .LASF4223
C:\Users\SOLDER~1\AppData\Local\Temp\ccEQi33f.s:30244  .debug_str:0000000000029741 .LASF4224
C:\Users\SOLDER~1\AppData\Local\Temp\ccEQi33f.s:26078  .debug_str:00000000000187f3 .LASF4225
C:\Users\SOLDER~1\AppData\Local\Temp\ccEQi33f.s:24098  .debug_str:0000000000010798 .LASF4226
C:\Users\SOLDER~1\AppData\Local\Temp\ccEQi33f.s:22780  .debug_str:000000000000b13f .LASF4227
C:\Users\SOLDER~1\AppData\Local\Temp\ccEQi33f.s:22852  .debug_str:000000000000b60e .LASF4228
C:\Users\SOLDER~1\AppData\Local\Temp\ccEQi33f.s:25196  .debug_str:0000000000014fb5 .LASF4229
C:\Users\SOLDER~1\AppData\Local\Temp\ccEQi33f.s:22726  .debug_str:000000000000ae00 .LASF4230
C:\Users\SOLDER~1\AppData\Local\Temp\ccEQi33f.s:22056  .debug_str:00000000000081f5 .LASF4231
GAS LISTING C:\Users\SOLDER~1\AppData\Local\Temp\ccEQi33f.s 			page 117


C:\Users\SOLDER~1\AppData\Local\Temp\ccEQi33f.s:26562  .debug_str:000000000001a6eb .LASF4232
C:\Users\SOLDER~1\AppData\Local\Temp\ccEQi33f.s:24144  .debug_str:0000000000010a9f .LASF4233
C:\Users\SOLDER~1\AppData\Local\Temp\ccEQi33f.s:30630  .debug_str:000000000002b079 .LASF4234
C:\Users\SOLDER~1\AppData\Local\Temp\ccEQi33f.s:22068  .debug_str:00000000000082c3 .LASF4235
C:\Users\SOLDER~1\AppData\Local\Temp\ccEQi33f.s:24700  .debug_str:0000000000012e1e .LASF4236
C:\Users\SOLDER~1\AppData\Local\Temp\ccEQi33f.s:21644  .debug_str:00000000000066f7 .LASF4237
C:\Users\SOLDER~1\AppData\Local\Temp\ccEQi33f.s:20148  .debug_str:00000000000005f7 .LASF4238
C:\Users\SOLDER~1\AppData\Local\Temp\ccEQi33f.s:20816  .debug_str:000000000000321b .LASF4239
C:\Users\SOLDER~1\AppData\Local\Temp\ccEQi33f.s:28944  .debug_str:00000000000241e3 .LASF4240
C:\Users\SOLDER~1\AppData\Local\Temp\ccEQi33f.s:20786  .debug_str:000000000000302a .LASF4241
C:\Users\SOLDER~1\AppData\Local\Temp\ccEQi33f.s:27872  .debug_str:000000000001fc60 .LASF4242
C:\Users\SOLDER~1\AppData\Local\Temp\ccEQi33f.s:23688  .debug_str:000000000000ecd4 .LASF4243
C:\Users\SOLDER~1\AppData\Local\Temp\ccEQi33f.s:21840  .debug_str:00000000000073f5 .LASF4244
C:\Users\SOLDER~1\AppData\Local\Temp\ccEQi33f.s:28136  .debug_str:0000000000020d5f .LASF4245
C:\Users\SOLDER~1\AppData\Local\Temp\ccEQi33f.s:20722  .debug_str:0000000000002be7 .LASF4246
C:\Users\SOLDER~1\AppData\Local\Temp\ccEQi33f.s:27708  .debug_str:000000000001f1c3 .LASF4247
C:\Users\SOLDER~1\AppData\Local\Temp\ccEQi33f.s:24160  .debug_str:0000000000010b95 .LASF4248
C:\Users\SOLDER~1\AppData\Local\Temp\ccEQi33f.s:20582  .debug_str:00000000000022f3 .LASF4249
C:\Users\SOLDER~1\AppData\Local\Temp\ccEQi33f.s:25296  .debug_str:0000000000015663 .LASF4250
C:\Users\SOLDER~1\AppData\Local\Temp\ccEQi33f.s:28070  .debug_str:00000000000208f5 .LASF4251
C:\Users\SOLDER~1\AppData\Local\Temp\ccEQi33f.s:30546  .debug_str:000000000002aaf8 .LASF4252
C:\Users\SOLDER~1\AppData\Local\Temp\ccEQi33f.s:25848  .debug_str:0000000000017913 .LASF4253
C:\Users\SOLDER~1\AppData\Local\Temp\ccEQi33f.s:25374  .debug_str:0000000000015b06 .LASF4254
C:\Users\SOLDER~1\AppData\Local\Temp\ccEQi33f.s:23632  .debug_str:000000000000e97a .LASF4255
C:\Users\SOLDER~1\AppData\Local\Temp\ccEQi33f.s:30248  .debug_str:000000000002977d .LASF4256
C:\Users\SOLDER~1\AppData\Local\Temp\ccEQi33f.s:21038  .debug_str:0000000000004034 .LASF4257
C:\Users\SOLDER~1\AppData\Local\Temp\ccEQi33f.s:28130  .debug_str:0000000000020cdf .LASF4258
C:\Users\SOLDER~1\AppData\Local\Temp\ccEQi33f.s:21542  .debug_str:000000000000600e .LASF4259
C:\Users\SOLDER~1\AppData\Local\Temp\ccEQi33f.s:24376  .debug_str:0000000000011963 .LASF4260
C:\Users\SOLDER~1\AppData\Local\Temp\ccEQi33f.s:26210  .debug_str:00000000000190b3 .LASF4261
C:\Users\SOLDER~1\AppData\Local\Temp\ccEQi33f.s:29030  .debug_str:0000000000024789 .LASF4262
C:\Users\SOLDER~1\AppData\Local\Temp\ccEQi33f.s:28296  .debug_str:00000000000217ce .LASF4263
C:\Users\SOLDER~1\AppData\Local\Temp\ccEQi33f.s:29478  .debug_str:000000000002653f .LASF4264
C:\Users\SOLDER~1\AppData\Local\Temp\ccEQi33f.s:29768  .debug_str:0000000000027865 .LASF4265
C:\Users\SOLDER~1\AppData\Local\Temp\ccEQi33f.s:30586  .debug_str:000000000002ad71 .LASF4266
C:\Users\SOLDER~1\AppData\Local\Temp\ccEQi33f.s:30056  .debug_str:0000000000028b19 .LASF4267
C:\Users\SOLDER~1\AppData\Local\Temp\ccEQi33f.s:27288  .debug_str:000000000001d689 .LASF4268
C:\Users\SOLDER~1\AppData\Local\Temp\ccEQi33f.s:20286  .debug_str:0000000000000fc4 .LASF4269
C:\Users\SOLDER~1\AppData\Local\Temp\ccEQi33f.s:28208  .debug_str:000000000002123b .LASF4270
C:\Users\SOLDER~1\AppData\Local\Temp\ccEQi33f.s:22044  .debug_str:000000000000813f .LASF4271
C:\Users\SOLDER~1\AppData\Local\Temp\ccEQi33f.s:21296  .debug_str:0000000000005049 .LASF4272
C:\Users\SOLDER~1\AppData\Local\Temp\ccEQi33f.s:29656  .debug_str:0000000000027112 .LASF4273
C:\Users\SOLDER~1\AppData\Local\Temp\ccEQi33f.s:20156  .debug_str:0000000000000705 .LASF4274
C:\Users\SOLDER~1\AppData\Local\Temp\ccEQi33f.s:29256  .debug_str:00000000000255e7 .LASF4275
C:\Users\SOLDER~1\AppData\Local\Temp\ccEQi33f.s:21088  .debug_str:000000000000435a .LASF4276
C:\Users\SOLDER~1\AppData\Local\Temp\ccEQi33f.s:23356  .debug_str:000000000000d763 .LASF4277
C:\Users\SOLDER~1\AppData\Local\Temp\ccEQi33f.s:22086  .debug_str:00000000000083de .LASF4278
C:\Users\SOLDER~1\AppData\Local\Temp\ccEQi33f.s:30842  .debug_str:000000000002be06 .LASF4279
C:\Users\SOLDER~1\AppData\Local\Temp\ccEQi33f.s:24202  .debug_str:0000000000010e2d .LASF4280
C:\Users\SOLDER~1\AppData\Local\Temp\ccEQi33f.s:20112  .debug_str:000000000000039e .LASF4281
C:\Users\SOLDER~1\AppData\Local\Temp\ccEQi33f.s:22366  .debug_str:0000000000009629 .LASF4282
C:\Users\SOLDER~1\AppData\Local\Temp\ccEQi33f.s:25066  .debug_str:000000000001471f .LASF4283
C:\Users\SOLDER~1\AppData\Local\Temp\ccEQi33f.s:21836  .debug_str:00000000000073c5 .LASF4284
C:\Users\SOLDER~1\AppData\Local\Temp\ccEQi33f.s:23074  .debug_str:000000000000c468 .LASF4285
C:\Users\SOLDER~1\AppData\Local\Temp\ccEQi33f.s:26042  .debug_str:00000000000185b9 .LASF4286
C:\Users\SOLDER~1\AppData\Local\Temp\ccEQi33f.s:24976  .debug_str:00000000000140d8 .LASF4287
C:\Users\SOLDER~1\AppData\Local\Temp\ccEQi33f.s:28396  .debug_str:0000000000021e2c .LASF4288
GAS LISTING C:\Users\SOLDER~1\AppData\Local\Temp\ccEQi33f.s 			page 118


C:\Users\SOLDER~1\AppData\Local\Temp\ccEQi33f.s:27478  .debug_str:000000000001e2a5 .LASF4289
C:\Users\SOLDER~1\AppData\Local\Temp\ccEQi33f.s:24206  .debug_str:0000000000010e74 .LASF4290
C:\Users\SOLDER~1\AppData\Local\Temp\ccEQi33f.s:25260  .debug_str:00000000000153fb .LASF4291
C:\Users\SOLDER~1\AppData\Local\Temp\ccEQi33f.s:20340  .debug_str:000000000000133d .LASF4292
C:\Users\SOLDER~1\AppData\Local\Temp\ccEQi33f.s:26342  .debug_str:00000000000198cb .LASF4293
C:\Users\SOLDER~1\AppData\Local\Temp\ccEQi33f.s:26934  .debug_str:000000000001bea3 .LASF4294
C:\Users\SOLDER~1\AppData\Local\Temp\ccEQi33f.s:28120  .debug_str:0000000000020c23 .LASF4295
C:\Users\SOLDER~1\AppData\Local\Temp\ccEQi33f.s:29640  .debug_str:0000000000027001 .LASF4296
C:\Users\SOLDER~1\AppData\Local\Temp\ccEQi33f.s:23656  .debug_str:000000000000eac1 .LASF4297
C:\Users\SOLDER~1\AppData\Local\Temp\ccEQi33f.s:24798  .debug_str:0000000000013479 .LASF4298
C:\Users\SOLDER~1\AppData\Local\Temp\ccEQi33f.s:21360  .debug_str:0000000000005439 .LASF4299
C:\Users\SOLDER~1\AppData\Local\Temp\ccEQi33f.s:23430  .debug_str:000000000000dc0d .LASF4300
C:\Users\SOLDER~1\AppData\Local\Temp\ccEQi33f.s:22172  .debug_str:000000000000894c .LASF4301
C:\Users\SOLDER~1\AppData\Local\Temp\ccEQi33f.s:25956  .debug_str:000000000001804c .LASF4302
C:\Users\SOLDER~1\AppData\Local\Temp\ccEQi33f.s:31304  .debug_str:000000000002dc00 .LASF4303
C:\Users\SOLDER~1\AppData\Local\Temp\ccEQi33f.s:20562  .debug_str:000000000000219b .LASF4304
C:\Users\SOLDER~1\AppData\Local\Temp\ccEQi33f.s:25370  .debug_str:0000000000015ab6 .LASF4305
C:\Users\SOLDER~1\AppData\Local\Temp\ccEQi33f.s:29444  .debug_str:000000000002632e .LASF4306
C:\Users\SOLDER~1\AppData\Local\Temp\ccEQi33f.s:29146  .debug_str:0000000000024f01 .LASF4307
C:\Users\SOLDER~1\AppData\Local\Temp\ccEQi33f.s:27648  .debug_str:000000000001edb2 .LASF4308
C:\Users\SOLDER~1\AppData\Local\Temp\ccEQi33f.s:31422  .debug_str:000000000002e379 .LASF4309
C:\Users\SOLDER~1\AppData\Local\Temp\ccEQi33f.s:22964  .debug_str:000000000000bcf4 .LASF4310
C:\Users\SOLDER~1\AppData\Local\Temp\ccEQi33f.s:23962  .debug_str:000000000000feff .LASF4311
C:\Users\SOLDER~1\AppData\Local\Temp\ccEQi33f.s:21404  .debug_str:00000000000056ed .LASF4312
C:\Users\SOLDER~1\AppData\Local\Temp\ccEQi33f.s:26826  .debug_str:000000000001b790 .LASF4313
C:\Users\SOLDER~1\AppData\Local\Temp\ccEQi33f.s:20412  .debug_str:00000000000017dd .LASF4314
C:\Users\SOLDER~1\AppData\Local\Temp\ccEQi33f.s:25536  .debug_str:0000000000016552 .LASF4315
C:\Users\SOLDER~1\AppData\Local\Temp\ccEQi33f.s:25162  .debug_str:0000000000014dae .LASF4316
C:\Users\SOLDER~1\AppData\Local\Temp\ccEQi33f.s:21950  .debug_str:0000000000007ad1 .LASF4317
C:\Users\SOLDER~1\AppData\Local\Temp\ccEQi33f.s:25426  .debug_str:0000000000015e44 .LASF4318
C:\Users\SOLDER~1\AppData\Local\Temp\ccEQi33f.s:21532  .debug_str:0000000000005f4a .LASF4319
C:\Users\SOLDER~1\AppData\Local\Temp\ccEQi33f.s:30788  .debug_str:000000000002ba72 .LASF4320
C:\Users\SOLDER~1\AppData\Local\Temp\ccEQi33f.s:29850  .debug_str:0000000000027dcb .LASF4321
C:\Users\SOLDER~1\AppData\Local\Temp\ccEQi33f.s:28354  .debug_str:0000000000021b87 .LASF4322
C:\Users\SOLDER~1\AppData\Local\Temp\ccEQi33f.s:31004  .debug_str:000000000002c896 .LASF4323
C:\Users\SOLDER~1\AppData\Local\Temp\ccEQi33f.s:20506  .debug_str:0000000000001dff .LASF4324
C:\Users\SOLDER~1\AppData\Local\Temp\ccEQi33f.s:31386  .debug_str:000000000002e155 .LASF4325
C:\Users\SOLDER~1\AppData\Local\Temp\ccEQi33f.s:24296  .debug_str:0000000000011436 .LASF4326
C:\Users\SOLDER~1\AppData\Local\Temp\ccEQi33f.s:21998  .debug_str:0000000000007e13 .LASF4327
C:\Users\SOLDER~1\AppData\Local\Temp\ccEQi33f.s:31284  .debug_str:000000000002dac2 .LASF4328
C:\Users\SOLDER~1\AppData\Local\Temp\ccEQi33f.s:28556  .debug_str:000000000002283f .LASF4329
C:\Users\SOLDER~1\AppData\Local\Temp\ccEQi33f.s:27774  .debug_str:000000000001f644 .LASF4330
C:\Users\SOLDER~1\AppData\Local\Temp\ccEQi33f.s:30140  .debug_str:000000000002908e .LASF4331
C:\Users\SOLDER~1\AppData\Local\Temp\ccEQi33f.s:24746  .debug_str:00000000000130f8 .LASF4332
C:\Users\SOLDER~1\AppData\Local\Temp\ccEQi33f.s:27784  .debug_str:000000000001f6dd .LASF4333
C:\Users\SOLDER~1\AppData\Local\Temp\ccEQi33f.s:24542  .debug_str:00000000000123ae .LASF4334
C:\Users\SOLDER~1\AppData\Local\Temp\ccEQi33f.s:27106  .debug_str:000000000001ca72 .LASF4335
C:\Users\SOLDER~1\AppData\Local\Temp\ccEQi33f.s:26660  .debug_str:000000000001ad92 .LASF4336
C:\Users\SOLDER~1\AppData\Local\Temp\ccEQi33f.s:21604  .debug_str:0000000000006440 .LASF4337
C:\Users\SOLDER~1\AppData\Local\Temp\ccEQi33f.s:27474  .debug_str:000000000001e268 .LASF4338
C:\Users\SOLDER~1\AppData\Local\Temp\ccEQi33f.s:26352  .debug_str:0000000000019978 .LASF4339
C:\Users\SOLDER~1\AppData\Local\Temp\ccEQi33f.s:27042  .debug_str:000000000001c61c .LASF4340
C:\Users\SOLDER~1\AppData\Local\Temp\ccEQi33f.s:25838  .debug_str:0000000000017866 .LASF4341
C:\Users\SOLDER~1\AppData\Local\Temp\ccEQi33f.s:27284  .debug_str:000000000001d649 .LASF4342
C:\Users\SOLDER~1\AppData\Local\Temp\ccEQi33f.s:25652  .debug_str:0000000000016c55 .LASF4343
C:\Users\SOLDER~1\AppData\Local\Temp\ccEQi33f.s:25744  .debug_str:0000000000017261 .LASF4344
C:\Users\SOLDER~1\AppData\Local\Temp\ccEQi33f.s:29044  .debug_str:000000000002487d .LASF4345
GAS LISTING C:\Users\SOLDER~1\AppData\Local\Temp\ccEQi33f.s 			page 119


C:\Users\SOLDER~1\AppData\Local\Temp\ccEQi33f.s:24576  .debug_str:0000000000012607 .LASF4346
C:\Users\SOLDER~1\AppData\Local\Temp\ccEQi33f.s:20808  .debug_str:000000000000318a .LASF4347
C:\Users\SOLDER~1\AppData\Local\Temp\ccEQi33f.s:28948  .debug_str:0000000000024224 .LASF4348
C:\Users\SOLDER~1\AppData\Local\Temp\ccEQi33f.s:30742  .debug_str:000000000002b78b .LASF4349
C:\Users\SOLDER~1\AppData\Local\Temp\ccEQi33f.s:28594  .debug_str:0000000000022ae8 .LASF4350
C:\Users\SOLDER~1\AppData\Local\Temp\ccEQi33f.s:23706  .debug_str:000000000000ee02 .LASF4351
C:\Users\SOLDER~1\AppData\Local\Temp\ccEQi33f.s:25490  .debug_str:000000000001627e .LASF4352
C:\Users\SOLDER~1\AppData\Local\Temp\ccEQi33f.s:20752  .debug_str:0000000000002de2 .LASF4353
C:\Users\SOLDER~1\AppData\Local\Temp\ccEQi33f.s:26370  .debug_str:0000000000019ab1 .LASF4354
C:\Users\SOLDER~1\AppData\Local\Temp\ccEQi33f.s:24744  .debug_str:00000000000130d2 .LASF4355
C:\Users\SOLDER~1\AppData\Local\Temp\ccEQi33f.s:26740  .debug_str:000000000001b240 .LASF4356
C:\Users\SOLDER~1\AppData\Local\Temp\ccEQi33f.s:28702  .debug_str:00000000000231f1 .LASF4357
C:\Users\SOLDER~1\AppData\Local\Temp\ccEQi33f.s:23438  .debug_str:000000000000dc82 .LASF4358
C:\Users\SOLDER~1\AppData\Local\Temp\ccEQi33f.s:23814  .debug_str:000000000000f4e2 .LASF4359
C:\Users\SOLDER~1\AppData\Local\Temp\ccEQi33f.s:30704  .debug_str:000000000002b521 .LASF4360
C:\Users\SOLDER~1\AppData\Local\Temp\ccEQi33f.s:20834  .debug_str:0000000000003333 .LASF4361
C:\Users\SOLDER~1\AppData\Local\Temp\ccEQi33f.s:22356  .debug_str:000000000000959d .LASF4362
C:\Users\SOLDER~1\AppData\Local\Temp\ccEQi33f.s:21112  .debug_str:00000000000044d0 .LASF4363
C:\Users\SOLDER~1\AppData\Local\Temp\ccEQi33f.s:22966  .debug_str:000000000000bd0d .LASF4364
C:\Users\SOLDER~1\AppData\Local\Temp\ccEQi33f.s:30656  .debug_str:000000000002b236 .LASF4365
C:\Users\SOLDER~1\AppData\Local\Temp\ccEQi33f.s:25778  .debug_str:00000000000174a2 .LASF4366
C:\Users\SOLDER~1\AppData\Local\Temp\ccEQi33f.s:31442  .debug_str:000000000002e4d3 .LASF4367
C:\Users\SOLDER~1\AppData\Local\Temp\ccEQi33f.s:23068  .debug_str:000000000000c3ff .LASF4368
C:\Users\SOLDER~1\AppData\Local\Temp\ccEQi33f.s:28390  .debug_str:0000000000021dc4 .LASF4369
C:\Users\SOLDER~1\AppData\Local\Temp\ccEQi33f.s:29632  .debug_str:0000000000026f8a .LASF4370
C:\Users\SOLDER~1\AppData\Local\Temp\ccEQi33f.s:22092  .debug_str:0000000000008431 .LASF4371
C:\Users\SOLDER~1\AppData\Local\Temp\ccEQi33f.s:31178  .debug_str:000000000002d428 .LASF4372
C:\Users\SOLDER~1\AppData\Local\Temp\ccEQi33f.s:25120  .debug_str:0000000000014ad5 .LASF4373
C:\Users\SOLDER~1\AppData\Local\Temp\ccEQi33f.s:23406  .debug_str:000000000000da5f .LASF4374
C:\Users\SOLDER~1\AppData\Local\Temp\ccEQi33f.s:26220  .debug_str:000000000001914e .LASF4375
C:\Users\SOLDER~1\AppData\Local\Temp\ccEQi33f.s:25100  .debug_str:0000000000014991 .LASF4376
C:\Users\SOLDER~1\AppData\Local\Temp\ccEQi33f.s:26496  .debug_str:000000000001a27a .LASF4377
C:\Users\SOLDER~1\AppData\Local\Temp\ccEQi33f.s:23290  .debug_str:000000000000d2fd .LASF4378
C:\Users\SOLDER~1\AppData\Local\Temp\ccEQi33f.s:27262  .debug_str:000000000001d500 .LASF4379
C:\Users\SOLDER~1\AppData\Local\Temp\ccEQi33f.s:29066  .debug_str:00000000000249cc .LASF4380
C:\Users\SOLDER~1\AppData\Local\Temp\ccEQi33f.s:22242  .debug_str:0000000000008df1 .LASF4381
C:\Users\SOLDER~1\AppData\Local\Temp\ccEQi33f.s:22626  .debug_str:000000000000a76c .LASF4382
C:\Users\SOLDER~1\AppData\Local\Temp\ccEQi33f.s:23184  .debug_str:000000000000cc09 .LASF4383
C:\Users\SOLDER~1\AppData\Local\Temp\ccEQi33f.s:30202  .debug_str:00000000000294b0 .LASF4384
C:\Users\SOLDER~1\AppData\Local\Temp\ccEQi33f.s:26754  .debug_str:000000000001b324 .LASF4385
C:\Users\SOLDER~1\AppData\Local\Temp\ccEQi33f.s:23358  .debug_str:000000000000d780 .LASF4386
C:\Users\SOLDER~1\AppData\Local\Temp\ccEQi33f.s:20208  .debug_str:0000000000000aaa .LASF4387
C:\Users\SOLDER~1\AppData\Local\Temp\ccEQi33f.s:22210  .debug_str:0000000000008ba7 .LASF4388
C:\Users\SOLDER~1\AppData\Local\Temp\ccEQi33f.s:24998  .debug_str:0000000000014296 .LASF4389
C:\Users\SOLDER~1\AppData\Local\Temp\ccEQi33f.s:21132  .debug_str:0000000000004613 .LASF4390
C:\Users\SOLDER~1\AppData\Local\Temp\ccEQi33f.s:21188  .debug_str:00000000000049bb .LASF4391
C:\Users\SOLDER~1\AppData\Local\Temp\ccEQi33f.s:31202  .debug_str:000000000002d585 .LASF4392
C:\Users\SOLDER~1\AppData\Local\Temp\ccEQi33f.s:26090  .debug_str:00000000000188ad .LASF4393
C:\Users\SOLDER~1\AppData\Local\Temp\ccEQi33f.s:31324  .debug_str:000000000002dd6a .LASF4394
C:\Users\SOLDER~1\AppData\Local\Temp\ccEQi33f.s:25528  .debug_str:00000000000164ce .LASF4395
C:\Users\SOLDER~1\AppData\Local\Temp\ccEQi33f.s:23272  .debug_str:000000000000d1d6 .LASF4396
C:\Users\SOLDER~1\AppData\Local\Temp\ccEQi33f.s:22858  .debug_str:000000000000b65e .LASF4397
C:\Users\SOLDER~1\AppData\Local\Temp\ccEQi33f.s:29950  .debug_str:0000000000028432 .LASF4398
C:\Users\SOLDER~1\AppData\Local\Temp\ccEQi33f.s:21312  .debug_str:0000000000005132 .LASF4399
C:\Users\SOLDER~1\AppData\Local\Temp\ccEQi33f.s:24910  .debug_str:0000000000013c66 .LASF4400
C:\Users\SOLDER~1\AppData\Local\Temp\ccEQi33f.s:26388  .debug_str:0000000000019bdf .LASF4401
C:\Users\SOLDER~1\AppData\Local\Temp\ccEQi33f.s:26310  .debug_str:00000000000196fb .LASF4402
GAS LISTING C:\Users\SOLDER~1\AppData\Local\Temp\ccEQi33f.s 			page 120


C:\Users\SOLDER~1\AppData\Local\Temp\ccEQi33f.s:27170  .debug_str:000000000001ceba .LASF4403
C:\Users\SOLDER~1\AppData\Local\Temp\ccEQi33f.s:24966  .debug_str:0000000000014029 .LASF4404
C:\Users\SOLDER~1\AppData\Local\Temp\ccEQi33f.s:28428  .debug_str:0000000000022020 .LASF4405
C:\Users\SOLDER~1\AppData\Local\Temp\ccEQi33f.s:22214  .debug_str:0000000000008bf1 .LASF4406
C:\Users\SOLDER~1\AppData\Local\Temp\ccEQi33f.s:24082  .debug_str:0000000000010685 .LASF4407
C:\Users\SOLDER~1\AppData\Local\Temp\ccEQi33f.s:25562  .debug_str:00000000000166bb .LASF4408
C:\Users\SOLDER~1\AppData\Local\Temp\ccEQi33f.s:28288  .debug_str:000000000002173d .LASF4409
C:\Users\SOLDER~1\AppData\Local\Temp\ccEQi33f.s:25898  .debug_str:0000000000017c46 .LASF4410
C:\Users\SOLDER~1\AppData\Local\Temp\ccEQi33f.s:29012  .debug_str:0000000000024667 .LASF4411
C:\Users\SOLDER~1\AppData\Local\Temp\ccEQi33f.s:28846  .debug_str:0000000000023b59 .LASF4412
C:\Users\SOLDER~1\AppData\Local\Temp\ccEQi33f.s:29382  .debug_str:0000000000025eb7 .LASF4413
C:\Users\SOLDER~1\AppData\Local\Temp\ccEQi33f.s:24076  .debug_str:0000000000010630 .LASF4414
C:\Users\SOLDER~1\AppData\Local\Temp\ccEQi33f.s:24126  .debug_str:000000000001098d .LASF4415
C:\Users\SOLDER~1\AppData\Local\Temp\ccEQi33f.s:20638  .debug_str:0000000000002691 .LASF4416
C:\Users\SOLDER~1\AppData\Local\Temp\ccEQi33f.s:25686  .debug_str:0000000000016e66 .LASF4417
C:\Users\SOLDER~1\AppData\Local\Temp\ccEQi33f.s:24558  .debug_str:00000000000124db .LASF4418
C:\Users\SOLDER~1\AppData\Local\Temp\ccEQi33f.s:20642  .debug_str:00000000000026d8 .LASF4419
C:\Users\SOLDER~1\AppData\Local\Temp\ccEQi33f.s:22562  .debug_str:000000000000a308 .LASF4420
C:\Users\SOLDER~1\AppData\Local\Temp\ccEQi33f.s:27190  .debug_str:000000000001cfe3 .LASF4421
C:\Users\SOLDER~1\AppData\Local\Temp\ccEQi33f.s:26330  .debug_str:000000000001980d .LASF4422
C:\Users\SOLDER~1\AppData\Local\Temp\ccEQi33f.s:24448  .debug_str:0000000000011dd8 .LASF4423
C:\Users\SOLDER~1\AppData\Local\Temp\ccEQi33f.s:27344  .debug_str:000000000001d9dc .LASF4424
C:\Users\SOLDER~1\AppData\Local\Temp\ccEQi33f.s:21522  .debug_str:0000000000005ea7 .LASF4425
C:\Users\SOLDER~1\AppData\Local\Temp\ccEQi33f.s:25086  .debug_str:0000000000014875 .LASF4426
C:\Users\SOLDER~1\AppData\Local\Temp\ccEQi33f.s:28060  .debug_str:000000000002084f .LASF4427
C:\Users\SOLDER~1\AppData\Local\Temp\ccEQi33f.s:31518  .debug_str:000000000002e9f0 .LASF4428
C:\Users\SOLDER~1\AppData\Local\Temp\ccEQi33f.s:26584  .debug_str:000000000001a872 .LASF4429
C:\Users\SOLDER~1\AppData\Local\Temp\ccEQi33f.s:31246  .debug_str:000000000002d87c .LASF4430
C:\Users\SOLDER~1\AppData\Local\Temp\ccEQi33f.s:30258  .debug_str:000000000002981e .LASF4431
C:\Users\SOLDER~1\AppData\Local\Temp\ccEQi33f.s:26336  .debug_str:0000000000019878 .LASF4432
C:\Users\SOLDER~1\AppData\Local\Temp\ccEQi33f.s:26594  .debug_str:000000000001a8fd .LASF4433
C:\Users\SOLDER~1\AppData\Local\Temp\ccEQi33f.s:24308  .debug_str:0000000000011519 .LASF4434
C:\Users\SOLDER~1\AppData\Local\Temp\ccEQi33f.s:31060  .debug_str:000000000002cc0a .LASF4435
C:\Users\SOLDER~1\AppData\Local\Temp\ccEQi33f.s:26304  .debug_str:00000000000196ac .LASF4436
C:\Users\SOLDER~1\AppData\Local\Temp\ccEQi33f.s:29926  .debug_str:00000000000282b0 .LASF4437
C:\Users\SOLDER~1\AppData\Local\Temp\ccEQi33f.s:28592  .debug_str:0000000000022ad4 .LASF4438
C:\Users\SOLDER~1\AppData\Local\Temp\ccEQi33f.s:23846  .debug_str:000000000000f6f0 .LASF4439
C:\Users\SOLDER~1\AppData\Local\Temp\ccEQi33f.s:29218  .debug_str:000000000002539a .LASF4440
C:\Users\SOLDER~1\AppData\Local\Temp\ccEQi33f.s:25634  .debug_str:0000000000016b6e .LASF4441
C:\Users\SOLDER~1\AppData\Local\Temp\ccEQi33f.s:30006  .debug_str:0000000000028812 .LASF4442
C:\Users\SOLDER~1\AppData\Local\Temp\ccEQi33f.s:25538  .debug_str:0000000000016574 .LASF4443
C:\Users\SOLDER~1\AppData\Local\Temp\ccEQi33f.s:22978  .debug_str:000000000000bdc3 .LASF4444
C:\Users\SOLDER~1\AppData\Local\Temp\ccEQi33f.s:25328  .debug_str:0000000000015820 .LASF4445
C:\Users\SOLDER~1\AppData\Local\Temp\ccEQi33f.s:26092  .debug_str:00000000000188cd .LASF4446
C:\Users\SOLDER~1\AppData\Local\Temp\ccEQi33f.s:23164  .debug_str:000000000000cab0 .LASF4447
C:\Users\SOLDER~1\AppData\Local\Temp\ccEQi33f.s:26914  .debug_str:000000000001bd5e .LASF4448
C:\Users\SOLDER~1\AppData\Local\Temp\ccEQi33f.s:28418  .debug_str:0000000000021f84 .LASF4449
C:\Users\SOLDER~1\AppData\Local\Temp\ccEQi33f.s:30104  .debug_str:0000000000028e35 .LASF4450
C:\Users\SOLDER~1\AppData\Local\Temp\ccEQi33f.s:28164  .debug_str:0000000000020f25 .LASF4451
C:\Users\SOLDER~1\AppData\Local\Temp\ccEQi33f.s:26686  .debug_str:000000000001af15 .LASF4452
C:\Users\SOLDER~1\AppData\Local\Temp\ccEQi33f.s:24840  .debug_str:0000000000013747 .LASF4453
C:\Users\SOLDER~1\AppData\Local\Temp\ccEQi33f.s:27154  .debug_str:000000000001cdbc .LASF4454
C:\Users\SOLDER~1\AppData\Local\Temp\ccEQi33f.s:24474  .debug_str:0000000000011f8c .LASF4455
C:\Users\SOLDER~1\AppData\Local\Temp\ccEQi33f.s:29550  .debug_str:0000000000026a3b .LASF4456
C:\Users\SOLDER~1\AppData\Local\Temp\ccEQi33f.s:23942  .debug_str:000000000000fdc6 .LASF4457
C:\Users\SOLDER~1\AppData\Local\Temp\ccEQi33f.s:30366  .debug_str:0000000000029f4e .LASF4458
C:\Users\SOLDER~1\AppData\Local\Temp\ccEQi33f.s:29252  .debug_str:00000000000255aa .LASF4459
GAS LISTING C:\Users\SOLDER~1\AppData\Local\Temp\ccEQi33f.s 			page 121


C:\Users\SOLDER~1\AppData\Local\Temp\ccEQi33f.s:30292  .debug_str:0000000000029a3e .LASF4460
C:\Users\SOLDER~1\AppData\Local\Temp\ccEQi33f.s:24370  .debug_str:000000000001190d .LASF4461
C:\Users\SOLDER~1\AppData\Local\Temp\ccEQi33f.s:25694  .debug_str:0000000000016ef9 .LASF4462
C:\Users\SOLDER~1\AppData\Local\Temp\ccEQi33f.s:26520  .debug_str:000000000001a431 .LASF4463
C:\Users\SOLDER~1\AppData\Local\Temp\ccEQi33f.s:28834  .debug_str:0000000000023a88 .LASF4464
C:\Users\SOLDER~1\AppData\Local\Temp\ccEQi33f.s:26888  .debug_str:000000000001bb84 .LASF4465
C:\Users\SOLDER~1\AppData\Local\Temp\ccEQi33f.s:26494  .debug_str:000000000001a263 .LASF4466
C:\Users\SOLDER~1\AppData\Local\Temp\ccEQi33f.s:26192  .debug_str:0000000000018fa6 .LASF4467
C:\Users\SOLDER~1\AppData\Local\Temp\ccEQi33f.s:27066  .debug_str:000000000001c7ac .LASF4468
C:\Users\SOLDER~1\AppData\Local\Temp\ccEQi33f.s:25612  .debug_str:0000000000016a08 .LASF4469
C:\Users\SOLDER~1\AppData\Local\Temp\ccEQi33f.s:30008  .debug_str:0000000000028823 .LASF4470
C:\Users\SOLDER~1\AppData\Local\Temp\ccEQi33f.s:30776  .debug_str:000000000002b9b1 .LASF4471
C:\Users\SOLDER~1\AppData\Local\Temp\ccEQi33f.s:21248  .debug_str:0000000000004d70 .LASF4472
C:\Users\SOLDER~1\AppData\Local\Temp\ccEQi33f.s:31176  .debug_str:000000000002d411 .LASF4473
C:\Users\SOLDER~1\AppData\Local\Temp\ccEQi33f.s:24010  .debug_str:00000000000101e2 .LASF4474
C:\Users\SOLDER~1\AppData\Local\Temp\ccEQi33f.s:30452  .debug_str:000000000002a4fe .LASF4475
C:\Users\SOLDER~1\AppData\Local\Temp\ccEQi33f.s:25774  .debug_str:0000000000017467 .LASF4476
C:\Users\SOLDER~1\AppData\Local\Temp\ccEQi33f.s:27354  .debug_str:000000000001da7c .LASF4477
C:\Users\SOLDER~1\AppData\Local\Temp\ccEQi33f.s:29660  .debug_str:000000000002714c .LASF4478
C:\Users\SOLDER~1\AppData\Local\Temp\ccEQi33f.s:28376  .debug_str:0000000000021cf1 .LASF4479
C:\Users\SOLDER~1\AppData\Local\Temp\ccEQi33f.s:28304  .debug_str:0000000000021841 .LASF4480
C:\Users\SOLDER~1\AppData\Local\Temp\ccEQi33f.s:24330  .debug_str:000000000001165a .LASF4481
C:\Users\SOLDER~1\AppData\Local\Temp\ccEQi33f.s:31342  .debug_str:000000000002dea2 .LASF4482
C:\Users\SOLDER~1\AppData\Local\Temp\ccEQi33f.s:22582  .debug_str:000000000000a448 .LASF4483
C:\Users\SOLDER~1\AppData\Local\Temp\ccEQi33f.s:30350  .debug_str:0000000000029e31 .LASF4484
C:\Users\SOLDER~1\AppData\Local\Temp\ccEQi33f.s:21724  .debug_str:0000000000006c1c .LASF4485
C:\Users\SOLDER~1\AppData\Local\Temp\ccEQi33f.s:26804  .debug_str:000000000001b64f .LASF4486
C:\Users\SOLDER~1\AppData\Local\Temp\ccEQi33f.s:31124  .debug_str:000000000002d08d .LASF4487
C:\Users\SOLDER~1\AppData\Local\Temp\ccEQi33f.s:30680  .debug_str:000000000002b39b .LASF4488
C:\Users\SOLDER~1\AppData\Local\Temp\ccEQi33f.s:26700  .debug_str:000000000001afcc .LASF4489
C:\Users\SOLDER~1\AppData\Local\Temp\ccEQi33f.s:24830  .debug_str:00000000000136b7 .LASF4490
C:\Users\SOLDER~1\AppData\Local\Temp\ccEQi33f.s:25406  .debug_str:0000000000015d01 .LASF4491
C:\Users\SOLDER~1\AppData\Local\Temp\ccEQi33f.s:24588  .debug_str:00000000000126c2 .LASF4492
C:\Users\SOLDER~1\AppData\Local\Temp\ccEQi33f.s:30528  .debug_str:000000000002a9aa .LASF4493
C:\Users\SOLDER~1\AppData\Local\Temp\ccEQi33f.s:25706  .debug_str:0000000000016fb5 .LASF4494
C:\Users\SOLDER~1\AppData\Local\Temp\ccEQi33f.s:29280  .debug_str:0000000000025788 .LASF4495
C:\Users\SOLDER~1\AppData\Local\Temp\ccEQi33f.s:25836  .debug_str:000000000001782d .LASF4496
C:\Users\SOLDER~1\AppData\Local\Temp\ccEQi33f.s:28032  .debug_str:000000000002068f .LASF4497
C:\Users\SOLDER~1\AppData\Local\Temp\ccEQi33f.s:31206  .debug_str:000000000002d5b4 .LASF4498
C:\Users\SOLDER~1\AppData\Local\Temp\ccEQi33f.s:25110  .debug_str:0000000000014a2d .LASF4499
C:\Users\SOLDER~1\AppData\Local\Temp\ccEQi33f.s:26250  .debug_str:0000000000019313 .LASF4500
C:\Users\SOLDER~1\AppData\Local\Temp\ccEQi33f.s:27430  .debug_str:000000000001df90 .LASF4501
C:\Users\SOLDER~1\AppData\Local\Temp\ccEQi33f.s:28522  .debug_str:0000000000022600 .LASF4502
C:\Users\SOLDER~1\AppData\Local\Temp\ccEQi33f.s:26960  .debug_str:000000000001c053 .LASF4503
C:\Users\SOLDER~1\AppData\Local\Temp\ccEQi33f.s:29750  .debug_str:000000000002772e .LASF4504
C:\Users\SOLDER~1\AppData\Local\Temp\ccEQi33f.s:28562  .debug_str:00000000000228a4 .LASF4505
C:\Users\SOLDER~1\AppData\Local\Temp\ccEQi33f.s:20468  .debug_str:0000000000001b5b .LASF4506
C:\Users\SOLDER~1\AppData\Local\Temp\ccEQi33f.s:29310  .debug_str:00000000000259c0 .LASF4507
C:\Users\SOLDER~1\AppData\Local\Temp\ccEQi33f.s:21632  .debug_str:0000000000006605 .LASF4508
C:\Users\SOLDER~1\AppData\Local\Temp\ccEQi33f.s:24286  .debug_str:0000000000011369 .LASF4509
C:\Users\SOLDER~1\AppData\Local\Temp\ccEQi33f.s:26770  .debug_str:000000000001b442 .LASF4510
C:\Users\SOLDER~1\AppData\Local\Temp\ccEQi33f.s:21002  .debug_str:0000000000003e06 .LASF4511
C:\Users\SOLDER~1\AppData\Local\Temp\ccEQi33f.s:28300  .debug_str:000000000002180a .LASF4512
C:\Users\SOLDER~1\AppData\Local\Temp\ccEQi33f.s:28372  .debug_str:0000000000021cbb .LASF4513
C:\Users\SOLDER~1\AppData\Local\Temp\ccEQi33f.s:27886  .debug_str:000000000001fd2a .LASF4514
C:\Users\SOLDER~1\AppData\Local\Temp\ccEQi33f.s:22442  .debug_str:0000000000009b1e .LASF4515
C:\Users\SOLDER~1\AppData\Local\Temp\ccEQi33f.s:25266  .debug_str:000000000001546b .LASF4516
GAS LISTING C:\Users\SOLDER~1\AppData\Local\Temp\ccEQi33f.s 			page 122


C:\Users\SOLDER~1\AppData\Local\Temp\ccEQi33f.s:27736  .debug_str:000000000001f39a .LASF4517
C:\Users\SOLDER~1\AppData\Local\Temp\ccEQi33f.s:31568  .debug_str:000000000002ece6 .LASF4518
C:\Users\SOLDER~1\AppData\Local\Temp\ccEQi33f.s:27482  .debug_str:000000000001e2e0 .LASF4519
C:\Users\SOLDER~1\AppData\Local\Temp\ccEQi33f.s:20332  .debug_str:000000000000129f .LASF4520
C:\Users\SOLDER~1\AppData\Local\Temp\ccEQi33f.s:26844  .debug_str:000000000001b8b2 .LASF4521
C:\Users\SOLDER~1\AppData\Local\Temp\ccEQi33f.s:23160  .debug_str:000000000000ca74 .LASF4522
C:\Users\SOLDER~1\AppData\Local\Temp\ccEQi33f.s:29188  .debug_str:0000000000025192 .LASF4523
C:\Users\SOLDER~1\AppData\Local\Temp\ccEQi33f.s:23348  .debug_str:000000000000d6e0 .LASF4524
C:\Users\SOLDER~1\AppData\Local\Temp\ccEQi33f.s:30752  .debug_str:000000000002b827 .LASF4525
C:\Users\SOLDER~1\AppData\Local\Temp\ccEQi33f.s:26174  .debug_str:0000000000018e6f .LASF4526
C:\Users\SOLDER~1\AppData\Local\Temp\ccEQi33f.s:25198  .debug_str:0000000000014fc7 .LASF4527
C:\Users\SOLDER~1\AppData\Local\Temp\ccEQi33f.s:29136  .debug_str:0000000000024e6f .LASF4528
C:\Users\SOLDER~1\AppData\Local\Temp\ccEQi33f.s:30618  .debug_str:000000000002af67 .LASF4529
C:\Users\SOLDER~1\AppData\Local\Temp\ccEQi33f.s:22850  .debug_str:000000000000b5f2 .LASF4530
C:\Users\SOLDER~1\AppData\Local\Temp\ccEQi33f.s:29070  .debug_str:0000000000024a0f .LASF4531
C:\Users\SOLDER~1\AppData\Local\Temp\ccEQi33f.s:28710  .debug_str:000000000002326b .LASF4532
C:\Users\SOLDER~1\AppData\Local\Temp\ccEQi33f.s:27204  .debug_str:000000000001d0fb .LASF4533
C:\Users\SOLDER~1\AppData\Local\Temp\ccEQi33f.s:29380  .debug_str:0000000000025e7e .LASF4534
C:\Users\SOLDER~1\AppData\Local\Temp\ccEQi33f.s:30840  .debug_str:000000000002bdcd .LASF4535
C:\Users\SOLDER~1\AppData\Local\Temp\ccEQi33f.s:25516  .debug_str:0000000000016411 .LASF4536
C:\Users\SOLDER~1\AppData\Local\Temp\ccEQi33f.s:21196  .debug_str:0000000000004a32 .LASF4537
C:\Users\SOLDER~1\AppData\Local\Temp\ccEQi33f.s:23766  .debug_str:000000000000f1a3 .LASF4538
C:\Users\SOLDER~1\AppData\Local\Temp\ccEQi33f.s:20414  .debug_str:00000000000017f5 .LASF4539
C:\Users\SOLDER~1\AppData\Local\Temp\ccEQi33f.s:27064  .debug_str:000000000001c771 .LASF4540
C:\Users\SOLDER~1\AppData\Local\Temp\ccEQi33f.s:27032  .debug_str:000000000001c53d .LASF4541
C:\Users\SOLDER~1\AppData\Local\Temp\ccEQi33f.s:24978  .debug_str:00000000000140fa .LASF4542
C:\Users\SOLDER~1\AppData\Local\Temp\ccEQi33f.s:30894  .debug_str:000000000002c1b2 .LASF4543
C:\Users\SOLDER~1\AppData\Local\Temp\ccEQi33f.s:30866  .debug_str:000000000002bfae .LASF4544
C:\Users\SOLDER~1\AppData\Local\Temp\ccEQi33f.s:29074  .debug_str:0000000000024a6b .LASF4545
C:\Users\SOLDER~1\AppData\Local\Temp\ccEQi33f.s:23494  .debug_str:000000000000e057 .LASF4546
C:\Users\SOLDER~1\AppData\Local\Temp\ccEQi33f.s:21636  .debug_str:0000000000006663 .LASF4547
C:\Users\SOLDER~1\AppData\Local\Temp\ccEQi33f.s:21694  .debug_str:0000000000006a51 .LASF4548
C:\Users\SOLDER~1\AppData\Local\Temp\ccEQi33f.s:24736  .debug_str:000000000001306d .LASF4549
C:\Users\SOLDER~1\AppData\Local\Temp\ccEQi33f.s:26514  .debug_str:000000000001a3d9 .LASF4550
C:\Users\SOLDER~1\AppData\Local\Temp\ccEQi33f.s:26930  .debug_str:000000000001be79 .LASF4551
C:\Users\SOLDER~1\AppData\Local\Temp\ccEQi33f.s:26036  .debug_str:000000000001854c .LASF4552
C:\Users\SOLDER~1\AppData\Local\Temp\ccEQi33f.s:30214  .debug_str:0000000000029590 .LASF4553
C:\Users\SOLDER~1\AppData\Local\Temp\ccEQi33f.s:20066  .debug_str:00000000000000e1 .LASF4554
C:\Users\SOLDER~1\AppData\Local\Temp\ccEQi33f.s:28360  .debug_str:0000000000021bde .LASF4555
C:\Users\SOLDER~1\AppData\Local\Temp\ccEQi33f.s:25914  .debug_str:0000000000017d66 .LASF4556
C:\Users\SOLDER~1\AppData\Local\Temp\ccEQi33f.s:26014  .debug_str:00000000000183e4 .LASF4557
C:\Users\SOLDER~1\AppData\Local\Temp\ccEQi33f.s:30732  .debug_str:000000000002b6e8 .LASF4558
C:\Users\SOLDER~1\AppData\Local\Temp\ccEQi33f.s:23984  .debug_str:0000000000010053 .LASF4559
C:\Users\SOLDER~1\AppData\Local\Temp\ccEQi33f.s:24078  .debug_str:0000000000010651 .LASF4560
C:\Users\SOLDER~1\AppData\Local\Temp\ccEQi33f.s:24180  .debug_str:0000000000010cc3 .LASF4561
C:\Users\SOLDER~1\AppData\Local\Temp\ccEQi33f.s:26278  .debug_str:000000000001950e .LASF4562
C:\Users\SOLDER~1\AppData\Local\Temp\ccEQi33f.s:24052  .debug_str:00000000000104e1 .LASF4563
C:\Users\SOLDER~1\AppData\Local\Temp\ccEQi33f.s:22484  .debug_str:0000000000009de9 .LASF4564
C:\Users\SOLDER~1\AppData\Local\Temp\ccEQi33f.s:22240  .debug_str:0000000000008dde .LASF4565
C:\Users\SOLDER~1\AppData\Local\Temp\ccEQi33f.s:21152  .debug_str:0000000000004771 .LASF4566
C:\Users\SOLDER~1\AppData\Local\Temp\ccEQi33f.s:24490  .debug_str:0000000000012086 .LASF4567
C:\Users\SOLDER~1\AppData\Local\Temp\ccEQi33f.s:29708  .debug_str:0000000000027487 .LASF4568
C:\Users\SOLDER~1\AppData\Local\Temp\ccEQi33f.s:25480  .debug_str:00000000000161cb .LASF4569
C:\Users\SOLDER~1\AppData\Local\Temp\ccEQi33f.s:27184  .debug_str:000000000001cf88 .LASF4570
C:\Users\SOLDER~1\AppData\Local\Temp\ccEQi33f.s:27374  .debug_str:000000000001dbdb .LASF4571
C:\Users\SOLDER~1\AppData\Local\Temp\ccEQi33f.s:24214  .debug_str:0000000000010ef2 .LASF4572
C:\Users\SOLDER~1\AppData\Local\Temp\ccEQi33f.s:25800  .debug_str:0000000000017619 .LASF4573
GAS LISTING C:\Users\SOLDER~1\AppData\Local\Temp\ccEQi33f.s 			page 123


C:\Users\SOLDER~1\AppData\Local\Temp\ccEQi33f.s:30736  .debug_str:000000000002b735 .LASF4574
C:\Users\SOLDER~1\AppData\Local\Temp\ccEQi33f.s:27366  .debug_str:000000000001db4d .LASF4575
C:\Users\SOLDER~1\AppData\Local\Temp\ccEQi33f.s:20616  .debug_str:0000000000002557 .LASF4576
C:\Users\SOLDER~1\AppData\Local\Temp\ccEQi33f.s:22682  .debug_str:000000000000ab1a .LASF4577
C:\Users\SOLDER~1\AppData\Local\Temp\ccEQi33f.s:22638  .debug_str:000000000000a82d .LASF4578
C:\Users\SOLDER~1\AppData\Local\Temp\ccEQi33f.s:26944  .debug_str:000000000001bf54 .LASF4579
C:\Users\SOLDER~1\AppData\Local\Temp\ccEQi33f.s:24128  .debug_str:00000000000109ad .LASF4580
C:\Users\SOLDER~1\AppData\Local\Temp\ccEQi33f.s:26860  .debug_str:000000000001b9d9 .LASF4581
C:\Users\SOLDER~1\AppData\Local\Temp\ccEQi33f.s:29760  .debug_str:00000000000277d9 .LASF4582
C:\Users\SOLDER~1\AppData\Local\Temp\ccEQi33f.s:23004  .debug_str:000000000000bf76 .LASF4583
C:\Users\SOLDER~1\AppData\Local\Temp\ccEQi33f.s:21878  .debug_str:000000000000765c .LASF4584
C:\Users\SOLDER~1\AppData\Local\Temp\ccEQi33f.s:25868  .debug_str:0000000000017a46 .LASF4585
C:\Users\SOLDER~1\AppData\Local\Temp\ccEQi33f.s:24518  .debug_str:0000000000012240 .LASF4586
C:\Users\SOLDER~1\AppData\Local\Temp\ccEQi33f.s:21412  .debug_str:000000000000578a .LASF4587
C:\Users\SOLDER~1\AppData\Local\Temp\ccEQi33f.s:21978  .debug_str:0000000000007ccb .LASF4588
C:\Users\SOLDER~1\AppData\Local\Temp\ccEQi33f.s:22180  .debug_str:00000000000089c6 .LASF4589
C:\Users\SOLDER~1\AppData\Local\Temp\ccEQi33f.s:27512  .debug_str:000000000001e4be .LASF4590
C:\Users\SOLDER~1\AppData\Local\Temp\ccEQi33f.s:31040  .debug_str:000000000002cad6 .LASF4591
C:\Users\SOLDER~1\AppData\Local\Temp\ccEQi33f.s:21896  .debug_str:0000000000007746 .LASF4594
C:\Users\SOLDER~1\AppData\Local\Temp\ccEQi33f.s:26556  .debug_str:000000000001a67d .LASF4595
C:\Users\SOLDER~1\AppData\Local\Temp\ccEQi33f.s:24856  .debug_str:0000000000013882 .LASF4596
C:\Users\SOLDER~1\AppData\Local\Temp\ccEQi33f.s:26636  .debug_str:000000000001abcc .LASF4597
C:\Users\SOLDER~1\AppData\Local\Temp\ccEQi33f.s:28312  .debug_str:00000000000218c7 .LASF4598
C:\Users\SOLDER~1\AppData\Local\Temp\ccEQi33f.s:25252  .debug_str:0000000000015369 .LASF4599
C:\Users\SOLDER~1\AppData\Local\Temp\ccEQi33f.s:30642  .debug_str:000000000002b145 .LASF4600
C:\Users\SOLDER~1\AppData\Local\Temp\ccEQi33f.s:25594  .debug_str:00000000000168d3 .LASF4601
C:\Users\SOLDER~1\AppData\Local\Temp\ccEQi33f.s:23198  .debug_str:000000000000cceb .LASF4602
C:\Users\SOLDER~1\AppData\Local\Temp\ccEQi33f.s:24980  .debug_str:0000000000014134 .LASF4603
C:\Users\SOLDER~1\AppData\Local\Temp\ccEQi33f.s:23850  .debug_str:000000000000f726 .LASF4604
C:\Users\SOLDER~1\AppData\Local\Temp\ccEQi33f.s:30360  .debug_str:0000000000029eca .LASF4605
C:\Users\SOLDER~1\AppData\Local\Temp\ccEQi33f.s:31474  .debug_str:000000000002e6dc .LASF4606
C:\Users\SOLDER~1\AppData\Local\Temp\ccEQi33f.s:28844  .debug_str:0000000000023b25 .LASF4607
C:\Users\SOLDER~1\AppData\Local\Temp\ccEQi33f.s:22572  .debug_str:000000000000a3a2 .LASF4608
C:\Users\SOLDER~1\AppData\Local\Temp\ccEQi33f.s:24748  .debug_str:0000000000013110 .LASF4609
C:\Users\SOLDER~1\AppData\Local\Temp\ccEQi33f.s:28826  .debug_str:00000000000239e9 .LASF4610
C:\Users\SOLDER~1\AppData\Local\Temp\ccEQi33f.s:21756  .debug_str:0000000000006e49 .LASF4611
C:\Users\SOLDER~1\AppData\Local\Temp\ccEQi33f.s:27758  .debug_str:000000000001f524 .LASF4612
C:\Users\SOLDER~1\AppData\Local\Temp\ccEQi33f.s:20988  .debug_str:0000000000003d13 .LASF4613
C:\Users\SOLDER~1\AppData\Local\Temp\ccEQi33f.s:29484  .debug_str:000000000002659b .LASF4614
C:\Users\SOLDER~1\AppData\Local\Temp\ccEQi33f.s:22170  .debug_str:0000000000008918 .LASF4615
C:\Users\SOLDER~1\AppData\Local\Temp\ccEQi33f.s:29538  .debug_str:0000000000026945 .LASF4616
C:\Users\SOLDER~1\AppData\Local\Temp\ccEQi33f.s:21764  .debug_str:0000000000006ef5 .LASF4617
C:\Users\SOLDER~1\AppData\Local\Temp\ccEQi33f.s:20728  .debug_str:0000000000002c47 .LASF4618
C:\Users\SOLDER~1\AppData\Local\Temp\ccEQi33f.s:22790  .debug_str:000000000000b1dc .LASF4619
C:\Users\SOLDER~1\AppData\Local\Temp\ccEQi33f.s:22912  .debug_str:000000000000b978 .LASF4620
C:\Users\SOLDER~1\AppData\Local\Temp\ccEQi33f.s:28978  .debug_str:000000000002440e .LASF4621
C:\Users\SOLDER~1\AppData\Local\Temp\ccEQi33f.s:30102  .debug_str:0000000000028e17 .LASF4622
C:\Users\SOLDER~1\AppData\Local\Temp\ccEQi33f.s:25954  .debug_str:000000000001802e .LASF4623
C:\Users\SOLDER~1\AppData\Local\Temp\ccEQi33f.s:23980  .debug_str:0000000000010023 .LASF4624
C:\Users\SOLDER~1\AppData\Local\Temp\ccEQi33f.s:30518  .debug_str:000000000002a902 .LASF4625
C:\Users\SOLDER~1\AppData\Local\Temp\ccEQi33f.s:25630  .debug_str:0000000000016b2c .LASF4626
C:\Users\SOLDER~1\AppData\Local\Temp\ccEQi33f.s:27608  .debug_str:000000000001eb25 .LASF4627
C:\Users\SOLDER~1\AppData\Local\Temp\ccEQi33f.s:24956  .debug_str:0000000000013f96 .LASF4628
C:\Users\SOLDER~1\AppData\Local\Temp\ccEQi33f.s:22358  .debug_str:00000000000095b7 .LASF4629
C:\Users\SOLDER~1\AppData\Local\Temp\ccEQi33f.s:27498  .debug_str:000000000001e3cc .LASF4630
C:\Users\SOLDER~1\AppData\Local\Temp\ccEQi33f.s:28478  .debug_str:00000000000222f7 .LASF4631
C:\Users\SOLDER~1\AppData\Local\Temp\ccEQi33f.s:27310  .debug_str:000000000001d7dd .LASF4632
GAS LISTING C:\Users\SOLDER~1\AppData\Local\Temp\ccEQi33f.s 			page 124


C:\Users\SOLDER~1\AppData\Local\Temp\ccEQi33f.s:31160  .debug_str:000000000002d2fa .LASF4633
C:\Users\SOLDER~1\AppData\Local\Temp\ccEQi33f.s:28444  .debug_str:0000000000022115 .LASF4634
C:\Users\SOLDER~1\AppData\Local\Temp\ccEQi33f.s:20070  .debug_str:0000000000000105 .LASF4635
C:\Users\SOLDER~1\AppData\Local\Temp\ccEQi33f.s:25736  .debug_str:00000000000171d5 .LASF4636
C:\Users\SOLDER~1\AppData\Local\Temp\ccEQi33f.s:24824  .debug_str:0000000000013648 .LASF4637
C:\Users\SOLDER~1\AppData\Local\Temp\ccEQi33f.s:24800  .debug_str:0000000000013492 .LASF4638
C:\Users\SOLDER~1\AppData\Local\Temp\ccEQi33f.s:24802  .debug_str:00000000000134c3 .LASF4639
C:\Users\SOLDER~1\AppData\Local\Temp\ccEQi33f.s:30354  .debug_str:0000000000029e5f .LASF4640
C:\Users\SOLDER~1\AppData\Local\Temp\ccEQi33f.s:23108  .debug_str:000000000000c6bc .LASF4641
C:\Users\SOLDER~1\AppData\Local\Temp\ccEQi33f.s:31590  .debug_str:000000000002ee44 .LASF4642
C:\Users\SOLDER~1\AppData\Local\Temp\ccEQi33f.s:28432  .debug_str:0000000000022063 .LASF4643
C:\Users\SOLDER~1\AppData\Local\Temp\ccEQi33f.s:23328  .debug_str:000000000000d581 .LASF4644
C:\Users\SOLDER~1\AppData\Local\Temp\ccEQi33f.s:27416  .debug_str:000000000001ded3 .LASF4645
C:\Users\SOLDER~1\AppData\Local\Temp\ccEQi33f.s:23360  .debug_str:000000000000d7a3 .LASF4646
C:\Users\SOLDER~1\AppData\Local\Temp\ccEQi33f.s:26866  .debug_str:000000000001ba33 .LASF4647
C:\Users\SOLDER~1\AppData\Local\Temp\ccEQi33f.s:23940  .debug_str:000000000000fd9d .LASF4648
C:\Users\SOLDER~1\AppData\Local\Temp\ccEQi33f.s:23202  .debug_str:000000000000cd3f .LASF4649
C:\Users\SOLDER~1\AppData\Local\Temp\ccEQi33f.s:20502  .debug_str:0000000000001db6 .LASF4650
C:\Users\SOLDER~1\AppData\Local\Temp\ccEQi33f.s:23232  .debug_str:000000000000cf15 .LASF4651
C:\Users\SOLDER~1\AppData\Local\Temp\ccEQi33f.s:26500  .debug_str:000000000001a2c2 .LASF4652
C:\Users\SOLDER~1\AppData\Local\Temp\ccEQi33f.s:28712  .debug_str:00000000000232a5 .LASF4653
C:\Users\SOLDER~1\AppData\Local\Temp\ccEQi33f.s:24872  .debug_str:00000000000139b4 .LASF4654
C:\Users\SOLDER~1\AppData\Local\Temp\ccEQi33f.s:22074  .debug_str:0000000000008315 .LASF4655
C:\Users\SOLDER~1\AppData\Local\Temp\ccEQi33f.s:26942  .debug_str:000000000001bf1c .LASF4656
C:\Users\SOLDER~1\AppData\Local\Temp\ccEQi33f.s:23910  .debug_str:000000000000fb7b .LASF4657
C:\Users\SOLDER~1\AppData\Local\Temp\ccEQi33f.s:22466  .debug_str:0000000000009c8e .LASF4658
C:\Users\SOLDER~1\AppData\Local\Temp\ccEQi33f.s:23178  .debug_str:000000000000cb92 .LASF4659
C:\Users\SOLDER~1\AppData\Local\Temp\ccEQi33f.s:30316  .debug_str:0000000000029bca .LASF4660
C:\Users\SOLDER~1\AppData\Local\Temp\ccEQi33f.s:27098  .debug_str:000000000001c9c9 .LASF4661
C:\Users\SOLDER~1\AppData\Local\Temp\ccEQi33f.s:26418  .debug_str:0000000000019d9d .LASF4662
C:\Users\SOLDER~1\AppData\Local\Temp\ccEQi33f.s:24624  .debug_str:00000000000128d4 .LASF4663
C:\Users\SOLDER~1\AppData\Local\Temp\ccEQi33f.s:24412  .debug_str:0000000000011ba8 .LASF4664
C:\Users\SOLDER~1\AppData\Local\Temp\ccEQi33f.s:26282  .debug_str:0000000000019539 .LASF4665
C:\Users\SOLDER~1\AppData\Local\Temp\ccEQi33f.s:30880  .debug_str:000000000002c0c9 .LASF4666
C:\Users\SOLDER~1\AppData\Local\Temp\ccEQi33f.s:20346  .debug_str:0000000000001397 .LASF4667
C:\Users\SOLDER~1\AppData\Local\Temp\ccEQi33f.s:20142  .debug_str:0000000000000588 .LASF4668
C:\Users\SOLDER~1\AppData\Local\Temp\ccEQi33f.s:21654  .debug_str:00000000000067b9 .LASF4669
C:\Users\SOLDER~1\AppData\Local\Temp\ccEQi33f.s:23504  .debug_str:000000000000e11a .LASF4670
C:\Users\SOLDER~1\AppData\Local\Temp\ccEQi33f.s:20482  .debug_str:0000000000001c59 .LASF4671
C:\Users\SOLDER~1\AppData\Local\Temp\ccEQi33f.s:20384  .debug_str:0000000000001601 .LASF4672
C:\Users\SOLDER~1\AppData\Local\Temp\ccEQi33f.s:31080  .debug_str:000000000002cd5a .LASF4673
C:\Users\SOLDER~1\AppData\Local\Temp\ccEQi33f.s:25486  .debug_str:0000000000016222 .LASF4674
C:\Users\SOLDER~1\AppData\Local\Temp\ccEQi33f.s:21154  .debug_str:0000000000004784 .LASF4675
C:\Users\SOLDER~1\AppData\Local\Temp\ccEQi33f.s:24560  .debug_str:0000000000012503 .LASF4676
C:\Users\SOLDER~1\AppData\Local\Temp\ccEQi33f.s:23886  .debug_str:000000000000f9c7 .LASF4677
C:\Users\SOLDER~1\AppData\Local\Temp\ccEQi33f.s:22026  .debug_str:0000000000007fef .LASF4678
C:\Users\SOLDER~1\AppData\Local\Temp\ccEQi33f.s:29024  .debug_str:0000000000024727 .LASF4679
C:\Users\SOLDER~1\AppData\Local\Temp\ccEQi33f.s:25128  .debug_str:0000000000014b68 .LASF4680
C:\Users\SOLDER~1\AppData\Local\Temp\ccEQi33f.s:20744  .debug_str:0000000000002d63 .LASF4681
C:\Users\SOLDER~1\AppData\Local\Temp\ccEQi33f.s:21660  .debug_str:0000000000006845 .LASF4682
C:\Users\SOLDER~1\AppData\Local\Temp\ccEQi33f.s:20448  .debug_str:0000000000001a11 .LASF4683
C:\Users\SOLDER~1\AppData\Local\Temp\ccEQi33f.s:23076  .debug_str:000000000000c48a .LASF4684
C:\Users\SOLDER~1\AppData\Local\Temp\ccEQi33f.s:30312  .debug_str:0000000000029b8c .LASF4685
C:\Users\SOLDER~1\AppData\Local\Temp\ccEQi33f.s:29780  .debug_str:0000000000027914 .LASF4686
C:\Users\SOLDER~1\AppData\Local\Temp\ccEQi33f.s:27254  .debug_str:000000000001d476 .LASF4687
C:\Users\SOLDER~1\AppData\Local\Temp\ccEQi33f.s:29846  .debug_str:0000000000027d8a .LASF4688
C:\Users\SOLDER~1\AppData\Local\Temp\ccEQi33f.s:27848  .debug_str:000000000001fadf .LASF4689
GAS LISTING C:\Users\SOLDER~1\AppData\Local\Temp\ccEQi33f.s 			page 125


C:\Users\SOLDER~1\AppData\Local\Temp\ccEQi33f.s:29308  .debug_str:000000000002598e .LASF4690
C:\Users\SOLDER~1\AppData\Local\Temp\ccEQi33f.s:20322  .debug_str:0000000000001208 .LASF4691
C:\Users\SOLDER~1\AppData\Local\Temp\ccEQi33f.s:27696  .debug_str:000000000001f0f1 .LASF4692
C:\Users\SOLDER~1\AppData\Local\Temp\ccEQi33f.s:28552  .debug_str:00000000000227fe .LASF4693
C:\Users\SOLDER~1\AppData\Local\Temp\ccEQi33f.s:30106  .debug_str:0000000000028e4c .LASF4694
C:\Users\SOLDER~1\AppData\Local\Temp\ccEQi33f.s:27294  .debug_str:000000000001d6d5 .LASF4695
C:\Users\SOLDER~1\AppData\Local\Temp\ccEQi33f.s:20424  .debug_str:000000000000188b .LASF4696
C:\Users\SOLDER~1\AppData\Local\Temp\ccEQi33f.s:25112  .debug_str:0000000000014a64 .LASF4697
C:\Users\SOLDER~1\AppData\Local\Temp\ccEQi33f.s:21926  .debug_str:000000000000794b .LASF4698
C:\Users\SOLDER~1\AppData\Local\Temp\ccEQi33f.s:30608  .debug_str:000000000002aec7 .LASF4699
C:\Users\SOLDER~1\AppData\Local\Temp\ccEQi33f.s:27118  .debug_str:000000000001cb50 .LASF4700
C:\Users\SOLDER~1\AppData\Local\Temp\ccEQi33f.s:22410  .debug_str:000000000000992b .LASF4701
C:\Users\SOLDER~1\AppData\Local\Temp\ccEQi33f.s:20734  .debug_str:0000000000002cb6 .LASF4702
C:\Users\SOLDER~1\AppData\Local\Temp\ccEQi33f.s:26280  .debug_str:000000000001951d .LASF4703
C:\Users\SOLDER~1\AppData\Local\Temp\ccEQi33f.s:29028  .debug_str:000000000002476d .LASF4704
C:\Users\SOLDER~1\AppData\Local\Temp\ccEQi33f.s:25918  .debug_str:0000000000017d9f .LASF4705
C:\Users\SOLDER~1\AppData\Local\Temp\ccEQi33f.s:25416  .debug_str:0000000000015d98 .LASF4706
C:\Users\SOLDER~1\AppData\Local\Temp\ccEQi33f.s:24332  .debug_str:0000000000011673 .LASF4707
C:\Users\SOLDER~1\AppData\Local\Temp\ccEQi33f.s:22854  .debug_str:000000000000b62b .LASF4708
C:\Users\SOLDER~1\AppData\Local\Temp\ccEQi33f.s:25996  .debug_str:00000000000182c4 .LASF4709
C:\Users\SOLDER~1\AppData\Local\Temp\ccEQi33f.s:27004  .debug_str:000000000001c37f .LASF4710
C:\Users\SOLDER~1\AppData\Local\Temp\ccEQi33f.s:27976  .debug_str:00000000000202f1 .LASF4711
C:\Users\SOLDER~1\AppData\Local\Temp\ccEQi33f.s:25854  .debug_str:000000000001796d .LASF4712
C:\Users\SOLDER~1\AppData\Local\Temp\ccEQi33f.s:26652  .debug_str:000000000001ad05 .LASF4713
C:\Users\SOLDER~1\AppData\Local\Temp\ccEQi33f.s:24070  .debug_str:00000000000105ea .LASF4714
C:\Users\SOLDER~1\AppData\Local\Temp\ccEQi33f.s:31496  .debug_str:000000000002e880 .LASF4715
C:\Users\SOLDER~1\AppData\Local\Temp\ccEQi33f.s:30576  .debug_str:000000000002acef .LASF4716
C:\Users\SOLDER~1\AppData\Local\Temp\ccEQi33f.s:29666  .debug_str:00000000000271b6 .LASF4717
C:\Users\SOLDER~1\AppData\Local\Temp\ccEQi33f.s:30094  .debug_str:0000000000028d94 .LASF4718
C:\Users\SOLDER~1\AppData\Local\Temp\ccEQi33f.s:20794  .debug_str:00000000000030a2 .LASF4719
C:\Users\SOLDER~1\AppData\Local\Temp\ccEQi33f.s:24456  .debug_str:0000000000011e69 .LASF4720
C:\Users\SOLDER~1\AppData\Local\Temp\ccEQi33f.s:26206  .debug_str:0000000000019076 .LASF4721
C:\Users\SOLDER~1\AppData\Local\Temp\ccEQi33f.s:20238  .debug_str:0000000000000cc2 .LASF4722
C:\Users\SOLDER~1\AppData\Local\Temp\ccEQi33f.s:27642  .debug_str:000000000001ed56 .LASF4723
C:\Users\SOLDER~1\AppData\Local\Temp\ccEQi33f.s:22338  .debug_str:000000000000948a .LASF4724
C:\Users\SOLDER~1\AppData\Local\Temp\ccEQi33f.s:27688  .debug_str:000000000001f06c .LASF4725
C:\Users\SOLDER~1\AppData\Local\Temp\ccEQi33f.s:26300  .debug_str:000000000001967c .LASF4726
C:\Users\SOLDER~1\AppData\Local\Temp\ccEQi33f.s:29912  .debug_str:00000000000281c5 .LASF4727
C:\Users\SOLDER~1\AppData\Local\Temp\ccEQi33f.s:22412  .debug_str:0000000000009946 .LASF4728
C:\Users\SOLDER~1\AppData\Local\Temp\ccEQi33f.s:29558  .debug_str:0000000000026ac7 .LASF4729
C:\Users\SOLDER~1\AppData\Local\Temp\ccEQi33f.s:28534  .debug_str:00000000000226c8 .LASF4730
C:\Users\SOLDER~1\AppData\Local\Temp\ccEQi33f.s:30942  .debug_str:000000000002c4b7 .LASF4731
C:\Users\SOLDER~1\AppData\Local\Temp\ccEQi33f.s:28750  .debug_str:000000000002353a .LASF4732
C:\Users\SOLDER~1\AppData\Local\Temp\ccEQi33f.s:29776  .debug_str:00000000000278d3 .LASF4733
C:\Users\SOLDER~1\AppData\Local\Temp\ccEQi33f.s:30226  .debug_str:0000000000029644 .LASF4734
C:\Users\SOLDER~1\AppData\Local\Temp\ccEQi33f.s:22828  .debug_str:000000000000b491 .LASF4735
C:\Users\SOLDER~1\AppData\Local\Temp\ccEQi33f.s:21534  .debug_str:0000000000005f70 .LASF4736
C:\Users\SOLDER~1\AppData\Local\Temp\ccEQi33f.s:20892  .debug_str:00000000000036e9 .LASF4737
C:\Users\SOLDER~1\AppData\Local\Temp\ccEQi33f.s:29704  .debug_str:0000000000027444 .LASF4738
C:\Users\SOLDER~1\AppData\Local\Temp\ccEQi33f.s:23416  .debug_str:000000000000daed .LASF4739
C:\Users\SOLDER~1\AppData\Local\Temp\ccEQi33f.s:20952  .debug_str:0000000000003ada .LASF4740
C:\Users\SOLDER~1\AppData\Local\Temp\ccEQi33f.s:21056  .debug_str:0000000000004169 .LASF4741
C:\Users\SOLDER~1\AppData\Local\Temp\ccEQi33f.s:28770  .debug_str:0000000000023691 .LASF4742
C:\Users\SOLDER~1\AppData\Local\Temp\ccEQi33f.s:29112  .debug_str:0000000000024cd7 .LASF4743
C:\Users\SOLDER~1\AppData\Local\Temp\ccEQi33f.s:24694  .debug_str:0000000000012dd1 .LASF4744
C:\Users\SOLDER~1\AppData\Local\Temp\ccEQi33f.s:20480  .debug_str:0000000000001c33 .LASF4745
C:\Users\SOLDER~1\AppData\Local\Temp\ccEQi33f.s:29294  .debug_str:000000000002589b .LASF4746
GAS LISTING C:\Users\SOLDER~1\AppData\Local\Temp\ccEQi33f.s 			page 126


C:\Users\SOLDER~1\AppData\Local\Temp\ccEQi33f.s:23352  .debug_str:000000000000d723 .LASF4747
C:\Users\SOLDER~1\AppData\Local\Temp\ccEQi33f.s:20318  .debug_str:00000000000011d2 .LASF4748
C:\Users\SOLDER~1\AppData\Local\Temp\ccEQi33f.s:28744  .debug_str:00000000000234e7 .LASF4749
C:\Users\SOLDER~1\AppData\Local\Temp\ccEQi33f.s:30498  .debug_str:000000000002a7e0 .LASF4750
C:\Users\SOLDER~1\AppData\Local\Temp\ccEQi33f.s:23782  .debug_str:000000000000f2b1 .LASF4751
C:\Users\SOLDER~1\AppData\Local\Temp\ccEQi33f.s:22980  .debug_str:000000000000bdd6 .LASF4752
C:\Users\SOLDER~1\AppData\Local\Temp\ccEQi33f.s:29180  .debug_str:0000000000025111 .LASF4753
C:\Users\SOLDER~1\AppData\Local\Temp\ccEQi33f.s:26168  .debug_str:0000000000018e09 .LASF4754
C:\Users\SOLDER~1\AppData\Local\Temp\ccEQi33f.s:20204  .debug_str:0000000000000a6c .LASF4755
C:\Users\SOLDER~1\AppData\Local\Temp\ccEQi33f.s:31572  .debug_str:000000000002ed23 .LASF4756
C:\Users\SOLDER~1\AppData\Local\Temp\ccEQi33f.s:28448  .debug_str:0000000000022159 .LASF4757
C:\Users\SOLDER~1\AppData\Local\Temp\ccEQi33f.s:28918  .debug_str:000000000002400b .LASF4758
C:\Users\SOLDER~1\AppData\Local\Temp\ccEQi33f.s:21320  .debug_str:00000000000051c4 .LASF4759
C:\Users\SOLDER~1\AppData\Local\Temp\ccEQi33f.s:23804  .debug_str:000000000000f44b .LASF4760
C:\Users\SOLDER~1\AppData\Local\Temp\ccEQi33f.s:29176  .debug_str:00000000000250db .LASF4761
C:\Users\SOLDER~1\AppData\Local\Temp\ccEQi33f.s:26164  .debug_str:0000000000018dc9 .LASF4762
C:\Users\SOLDER~1\AppData\Local\Temp\ccEQi33f.s:23056  .debug_str:000000000000c321 .LASF4763
C:\Users\SOLDER~1\AppData\Local\Temp\ccEQi33f.s:22324  .debug_str:000000000000937c .LASF4764
C:\Users\SOLDER~1\AppData\Local\Temp\ccEQi33f.s:22250  .debug_str:0000000000008e83 .LASF4765
C:\Users\SOLDER~1\AppData\Local\Temp\ccEQi33f.s:25430  .debug_str:0000000000015e81 .LASF4766
C:\Users\SOLDER~1\AppData\Local\Temp\ccEQi33f.s:20530  .debug_str:0000000000001f9c .LASF4767
C:\Users\SOLDER~1\AppData\Local\Temp\ccEQi33f.s:24636  .debug_str:00000000000129d4 .LASF4768
C:\Users\SOLDER~1\AppData\Local\Temp\ccEQi33f.s:31196  .debug_str:000000000002d524 .LASF4769
C:\Users\SOLDER~1\AppData\Local\Temp\ccEQi33f.s:27778  .debug_str:000000000001f672 .LASF4770
C:\Users\SOLDER~1\AppData\Local\Temp\ccEQi33f.s:23816  .debug_str:000000000000f505 .LASF4771
C:\Users\SOLDER~1\AppData\Local\Temp\ccEQi33f.s:23740  .debug_str:000000000000f017 .LASF4772
C:\Users\SOLDER~1\AppData\Local\Temp\ccEQi33f.s:20852  .debug_str:0000000000003480 .LASF4773
C:\Users\SOLDER~1\AppData\Local\Temp\ccEQi33f.s:29304  .debug_str:0000000000025952 .LASF4774
C:\Users\SOLDER~1\AppData\Local\Temp\ccEQi33f.s:20368  .debug_str:000000000000150e .LASF4775
C:\Users\SOLDER~1\AppData\Local\Temp\ccEQi33f.s:20976  .debug_str:0000000000003c5e .LASF4776
C:\Users\SOLDER~1\AppData\Local\Temp\ccEQi33f.s:27486  .debug_str:000000000001e313 .LASF4777
C:\Users\SOLDER~1\AppData\Local\Temp\ccEQi33f.s:21384  .debug_str:00000000000055a4 .LASF4778
C:\Users\SOLDER~1\AppData\Local\Temp\ccEQi33f.s:30584  .debug_str:000000000002ad50 .LASF4779
C:\Users\SOLDER~1\AppData\Local\Temp\ccEQi33f.s:30854  .debug_str:000000000002beda .LASF4780
C:\Users\SOLDER~1\AppData\Local\Temp\ccEQi33f.s:23574  .debug_str:000000000000e57f .LASF4781
C:\Users\SOLDER~1\AppData\Local\Temp\ccEQi33f.s:27718  .debug_str:000000000001f270 .LASF4782
C:\Users\SOLDER~1\AppData\Local\Temp\ccEQi33f.s:23476  .debug_str:000000000000df00 .LASF4783
C:\Users\SOLDER~1\AppData\Local\Temp\ccEQi33f.s:22894  .debug_str:000000000000b84c .LASF4784
C:\Users\SOLDER~1\AppData\Local\Temp\ccEQi33f.s:28112  .debug_str:0000000000020bc3 .LASF4785
C:\Users\SOLDER~1\AppData\Local\Temp\ccEQi33f.s:20498  .debug_str:0000000000001d82 .LASF4786
C:\Users\SOLDER~1\AppData\Local\Temp\ccEQi33f.s:26620  .debug_str:000000000001aa97 .LASF4787
C:\Users\SOLDER~1\AppData\Local\Temp\ccEQi33f.s:31486  .debug_str:000000000002e7b9 .LASF4788
C:\Users\SOLDER~1\AppData\Local\Temp\ccEQi33f.s:22590  .debug_str:000000000000a4e6 .LASF4789
C:\Users\SOLDER~1\AppData\Local\Temp\ccEQi33f.s:31512  .debug_str:000000000002e992 .LASF4790
C:\Users\SOLDER~1\AppData\Local\Temp\ccEQi33f.s:21018  .debug_str:0000000000003efa .LASF4791
C:\Users\SOLDER~1\AppData\Local\Temp\ccEQi33f.s:29628  .debug_str:0000000000026f55 .LASF4792
C:\Users\SOLDER~1\AppData\Local\Temp\ccEQi33f.s:29838  .debug_str:0000000000027d0b .LASF4793
C:\Users\SOLDER~1\AppData\Local\Temp\ccEQi33f.s:22154  .debug_str:0000000000008807 .LASF4794
C:\Users\SOLDER~1\AppData\Local\Temp\ccEQi33f.s:21502  .debug_str:0000000000005d90 .LASF4795
C:\Users\SOLDER~1\AppData\Local\Temp\ccEQi33f.s:30516  .debug_str:000000000002a8db .LASF4796
C:\Users\SOLDER~1\AppData\Local\Temp\ccEQi33f.s:25664  .debug_str:0000000000016d0a .LASF4797
C:\Users\SOLDER~1\AppData\Local\Temp\ccEQi33f.s:20878  .debug_str:00000000000035fc .LASF4798
C:\Users\SOLDER~1\AppData\Local\Temp\ccEQi33f.s:22984  .debug_str:000000000000be17 .LASF4799
C:\Users\SOLDER~1\AppData\Local\Temp\ccEQi33f.s:24086  .debug_str:00000000000106b6 .LASF4800
C:\Users\SOLDER~1\AppData\Local\Temp\ccEQi33f.s:30184  .debug_str:0000000000029375 .LASF4801
C:\Users\SOLDER~1\AppData\Local\Temp\ccEQi33f.s:21728  .debug_str:0000000000006c58 .LASF4802
C:\Users\SOLDER~1\AppData\Local\Temp\ccEQi33f.s:28490  .debug_str:00000000000223cc .LASF4803
GAS LISTING C:\Users\SOLDER~1\AppData\Local\Temp\ccEQi33f.s 			page 127


C:\Users\SOLDER~1\AppData\Local\Temp\ccEQi33f.s:23898  .debug_str:000000000000fa92 .LASF4804
C:\Users\SOLDER~1\AppData\Local\Temp\ccEQi33f.s:28096  .debug_str:0000000000020ab5 .LASF4805
C:\Users\SOLDER~1\AppData\Local\Temp\ccEQi33f.s:31070  .debug_str:000000000002ccac .LASF4806
C:\Users\SOLDER~1\AppData\Local\Temp\ccEQi33f.s:21578  .debug_str:0000000000006275 .LASF4807
C:\Users\SOLDER~1\AppData\Local\Temp\ccEQi33f.s:29082  .debug_str:0000000000024b0f .LASF4808
C:\Users\SOLDER~1\AppData\Local\Temp\ccEQi33f.s:22278  .debug_str:000000000000906b .LASF4809
C:\Users\SOLDER~1\AppData\Local\Temp\ccEQi33f.s:23914  .debug_str:000000000000fbd9 .LASF4810
C:\Users\SOLDER~1\AppData\Local\Temp\ccEQi33f.s:26768  .debug_str:000000000001b41d .LASF4811
C:\Users\SOLDER~1\AppData\Local\Temp\ccEQi33f.s:31328  .debug_str:000000000002dd9b .LASF4812
C:\Users\SOLDER~1\AppData\Local\Temp\ccEQi33f.s:31556  .debug_str:000000000002ec34 .LASF4813
C:\Users\SOLDER~1\AppData\Local\Temp\ccEQi33f.s:22096  .debug_str:000000000000847b .LASF4814
C:\Users\SOLDER~1\AppData\Local\Temp\ccEQi33f.s:24212  .debug_str:0000000000010ece .LASF4815
C:\Users\SOLDER~1\AppData\Local\Temp\ccEQi33f.s:23280  .debug_str:000000000000d25f .LASF4816
C:\Users\SOLDER~1\AppData\Local\Temp\ccEQi33f.s:30804  .debug_str:000000000002bb79 .LASF4817
C:\Users\SOLDER~1\AppData\Local\Temp\ccEQi33f.s:20862  .debug_str:0000000000003519 .LASF4818
C:\Users\SOLDER~1\AppData\Local\Temp\ccEQi33f.s:20054  .debug_str:0000000000000000 .LASF4819
C:\Users\SOLDER~1\AppData\Local\Temp\ccEQi33f.s:27584  .debug_str:000000000001e99e .LASF4820
C:\Users\SOLDER~1\AppData\Local\Temp\ccEQi33f.s:28242  .debug_str:000000000002144e .LASF4821
C:\Users\SOLDER~1\AppData\Local\Temp\ccEQi33f.s:31270  .debug_str:000000000002d9d9 .LASF4822
C:\Users\SOLDER~1\AppData\Local\Temp\ccEQi33f.s:22256  .debug_str:0000000000008ee2 .LASF4823
C:\Users\SOLDER~1\AppData\Local\Temp\ccEQi33f.s:21454  .debug_str:0000000000005a75 .LASF4824
C:\Users\SOLDER~1\AppData\Local\Temp\ccEQi33f.s:20214  .debug_str:0000000000000b19 .LASF4825
C:\Users\SOLDER~1\AppData\Local\Temp\ccEQi33f.s:28670  .debug_str:0000000000022fcf .LASF4826
C:\Users\SOLDER~1\AppData\Local\Temp\ccEQi33f.s:23618  .debug_str:000000000000e899 .LASF4827
C:\Users\SOLDER~1\AppData\Local\Temp\ccEQi33f.s:25682  .debug_str:0000000000016e1c .LASF4828
C:\Users\SOLDER~1\AppData\Local\Temp\ccEQi33f.s:25802  .debug_str:0000000000017629 .LASF4829
C:\Users\SOLDER~1\AppData\Local\Temp\ccEQi33f.s:20644  .debug_str:0000000000002701 .LASF4830
C:\Users\SOLDER~1\AppData\Local\Temp\ccEQi33f.s:25182  .debug_str:0000000000014ee1 .LASF4831
C:\Users\SOLDER~1\AppData\Local\Temp\ccEQi33f.s:29808  .debug_str:0000000000027ad8 .LASF4832
C:\Users\SOLDER~1\AppData\Local\Temp\ccEQi33f.s:25364  .debug_str:0000000000015a6d .LASF4833
C:\Users\SOLDER~1\AppData\Local\Temp\ccEQi33f.s:20876  .debug_str:00000000000035e4 .LASF4834
C:\Users\SOLDER~1\AppData\Local\Temp\ccEQi33f.s:28238  .debug_str:0000000000021414 .LASF4835
C:\Users\SOLDER~1\AppData\Local\Temp\ccEQi33f.s:25032  .debug_str:00000000000144e9 .LASF4836
C:\Users\SOLDER~1\AppData\Local\Temp\ccEQi33f.s:22132  .debug_str:00000000000086c5 .LASF4837
C:\Users\SOLDER~1\AppData\Local\Temp\ccEQi33f.s:23526  .debug_str:000000000000e2a5 .LASF4838
C:\Users\SOLDER~1\AppData\Local\Temp\ccEQi33f.s:28416  .debug_str:0000000000021f69 .LASF4839
C:\Users\SOLDER~1\AppData\Local\Temp\ccEQi33f.s:28162  .debug_str:0000000000020f0a .LASF4840
C:\Users\SOLDER~1\AppData\Local\Temp\ccEQi33f.s:26592  .debug_str:000000000001a8e3 .LASF4841
C:\Users\SOLDER~1\AppData\Local\Temp\ccEQi33f.s:25624  .debug_str:0000000000016acd .LASF4842
C:\Users\SOLDER~1\AppData\Local\Temp\ccEQi33f.s:20944  .debug_str:0000000000003a50 .LASF4843
C:\Users\SOLDER~1\AppData\Local\Temp\ccEQi33f.s:25654  .debug_str:0000000000016c7a .LASF4844
C:\Users\SOLDER~1\AppData\Local\Temp\ccEQi33f.s:30160  .debug_str:00000000000291d5 .LASF4845
C:\Users\SOLDER~1\AppData\Local\Temp\ccEQi33f.s:23398  .debug_str:000000000000d9e4 .LASF4846
C:\Users\SOLDER~1\AppData\Local\Temp\ccEQi33f.s:29942  .debug_str:00000000000283bf .LASF4847
C:\Users\SOLDER~1\AppData\Local\Temp\ccEQi33f.s:29582  .debug_str:0000000000026c43 .LASF4848
C:\Users\SOLDER~1\AppData\Local\Temp\ccEQi33f.s:24838  .debug_str:0000000000013725 .LASF4849
C:\Users\SOLDER~1\AppData\Local\Temp\ccEQi33f.s:27998  .debug_str:0000000000020479 .LASF4850
C:\Users\SOLDER~1\AppData\Local\Temp\ccEQi33f.s:26568  .debug_str:000000000001a76c .LASF4852
C:\Users\SOLDER~1\AppData\Local\Temp\ccEQi33f.s:28470  .debug_str:0000000000022273 .LASF4853
C:\Users\SOLDER~1\AppData\Local\Temp\ccEQi33f.s:20772  .debug_str:0000000000002f62 .LASF4854
C:\Users\SOLDER~1\AppData\Local\Temp\ccEQi33f.s:24628  .debug_str:0000000000012930 .LASF4855
C:\Users\SOLDER~1\AppData\Local\Temp\ccEQi33f.s:23534  .debug_str:000000000000e325 .LASF4856
C:\Users\SOLDER~1\AppData\Local\Temp\ccEQi33f.s:26778  .debug_str:000000000001b4a7 .LASF4857
C:\Users\SOLDER~1\AppData\Local\Temp\ccEQi33f.s:22060  .debug_str:0000000000008229 .LASF4858
C:\Users\SOLDER~1\AppData\Local\Temp\ccEQi33f.s:22662  .debug_str:000000000000a9c6 .LASF4859
C:\Users\SOLDER~1\AppData\Local\Temp\ccEQi33f.s:30524  .debug_str:000000000002a96b .LASF4860
C:\Users\SOLDER~1\AppData\Local\Temp\ccEQi33f.s:20958  .debug_str:0000000000003b45 .LASF4861
GAS LISTING C:\Users\SOLDER~1\AppData\Local\Temp\ccEQi33f.s 			page 128


C:\Users\SOLDER~1\AppData\Local\Temp\ccEQi33f.s:29548  .debug_str:0000000000026a13 .LASF4862
C:\Users\SOLDER~1\AppData\Local\Temp\ccEQi33f.s:28256  .debug_str:000000000002154d .LASF4863
C:\Users\SOLDER~1\AppData\Local\Temp\ccEQi33f.s:21094  .debug_str:00000000000043ae .LASF4864
C:\Users\SOLDER~1\AppData\Local\Temp\ccEQi33f.s:28568  .debug_str:0000000000022919 .LASF4865
C:\Users\SOLDER~1\AppData\Local\Temp\ccEQi33f.s:20926  .debug_str:0000000000003924 .LASF4866
C:\Users\SOLDER~1\AppData\Local\Temp\ccEQi33f.s:21114  .debug_str:00000000000044f4 .LASF4867
C:\Users\SOLDER~1\AppData\Local\Temp\ccEQi33f.s:23522  .debug_str:000000000000e258 .LASF4868
C:\Users\SOLDER~1\AppData\Local\Temp\ccEQi33f.s:29812  .debug_str:0000000000027b18 .LASF4869
C:\Users\SOLDER~1\AppData\Local\Temp\ccEQi33f.s:21138  .debug_str:0000000000004686 .LASF4870
C:\Users\SOLDER~1\AppData\Local\Temp\ccEQi33f.s:20190  .debug_str:0000000000000974 .LASF4871
C:\Users\SOLDER~1\AppData\Local\Temp\ccEQi33f.s:27668  .debug_str:000000000001ef00 .LASF4872
C:\Users\SOLDER~1\AppData\Local\Temp\ccEQi33f.s:22884  .debug_str:000000000000b7bf .LASF4873
C:\Users\SOLDER~1\AppData\Local\Temp\ccEQi33f.s:29228  .debug_str:000000000002540c .LASF4874
C:\Users\SOLDER~1\AppData\Local\Temp\ccEQi33f.s:31230  .debug_str:000000000002d757 .LASF4875
C:\Users\SOLDER~1\AppData\Local\Temp\ccEQi33f.s:20634  .debug_str:0000000000002639 .LASF4876
C:\Users\SOLDER~1\AppData\Local\Temp\ccEQi33f.s:21134  .debug_str:0000000000004636 .LASF4877
C:\Users\SOLDER~1\AppData\Local\Temp\ccEQi33f.s:28122  .debug_str:0000000000020c45 .LASF4878
C:\Users\SOLDER~1\AppData\Local\Temp\ccEQi33f.s:30282  .debug_str:000000000002997a .LASF4879
C:\Users\SOLDER~1\AppData\Local\Temp\ccEQi33f.s:29796  .debug_str:0000000000027a05 .LASF4880
C:\Users\SOLDER~1\AppData\Local\Temp\ccEQi33f.s:29622  .debug_str:0000000000026ee2 .LASF4881
C:\Users\SOLDER~1\AppData\Local\Temp\ccEQi33f.s:30306  .debug_str:0000000000029b15 .LASF4882
C:\Users\SOLDER~1\AppData\Local\Temp\ccEQi33f.s:25026  .debug_str:0000000000014476 .LASF4883
C:\Users\SOLDER~1\AppData\Local\Temp\ccEQi33f.s:30364  .debug_str:0000000000029f1f .LASF4884
C:\Users\SOLDER~1\AppData\Local\Temp\ccEQi33f.s:27920  .debug_str:000000000001ff5c .LASF4885
C:\Users\SOLDER~1\AppData\Local\Temp\ccEQi33f.s:28996  .debug_str:0000000000024542 .LASF4886
C:\Users\SOLDER~1\AppData\Local\Temp\ccEQi33f.s:24658  .debug_str:0000000000012b56 .LASF4887
C:\Users\SOLDER~1\AppData\Local\Temp\ccEQi33f.s:20510  .debug_str:0000000000001e33 .LASF4888
C:\Users\SOLDER~1\AppData\Local\Temp\ccEQi33f.s:21336  .debug_str:00000000000052be .LASF4889
C:\Users\SOLDER~1\AppData\Local\Temp\ccEQi33f.s:28282  .debug_str:00000000000216f0 .LASF4890
C:\Users\SOLDER~1\AppData\Local\Temp\ccEQi33f.s:29510  .debug_str:000000000002677d .LASF4891
C:\Users\SOLDER~1\AppData\Local\Temp\ccEQi33f.s:24218  .debug_str:0000000000010f23 .LASF4892
C:\Users\SOLDER~1\AppData\Local\Temp\ccEQi33f.s:27408  .debug_str:000000000001de40 .LASF4893
C:\Users\SOLDER~1\AppData\Local\Temp\ccEQi33f.s:26732  .debug_str:000000000001b1b1 .LASF4894
C:\Users\SOLDER~1\AppData\Local\Temp\ccEQi33f.s:24094  .debug_str:000000000001074f .LASF4895
C:\Users\SOLDER~1\AppData\Local\Temp\ccEQi33f.s:31034  .debug_str:000000000002ca7b .LASF4896
C:\Users\SOLDER~1\AppData\Local\Temp\ccEQi33f.s:29336  .debug_str:0000000000025b6c .LASF4897
C:\Users\SOLDER~1\AppData\Local\Temp\ccEQi33f.s:23412  .debug_str:000000000000dab2 .LASF4898
C:\Users\SOLDER~1\AppData\Local\Temp\ccEQi33f.s:31292  .debug_str:000000000002db4f .LASF4899
C:\Users\SOLDER~1\AppData\Local\Temp\ccEQi33f.s:21954  .debug_str:0000000000007b18 .LASF4900
C:\Users\SOLDER~1\AppData\Local\Temp\ccEQi33f.s:26166  .debug_str:0000000000018de6 .LASF4901
C:\Users\SOLDER~1\AppData\Local\Temp\ccEQi33f.s:23148  .debug_str:000000000000c9a2 .LASF4902
C:\Users\SOLDER~1\AppData\Local\Temp\ccEQi33f.s:29322  .debug_str:0000000000025a8f .LASF4903
C:\Users\SOLDER~1\AppData\Local\Temp\ccEQi33f.s:29706  .debug_str:0000000000027464 .LASF4904
C:\Users\SOLDER~1\AppData\Local\Temp\ccEQi33f.s:27328  .debug_str:000000000001d8c7 .LASF4905
C:\Users\SOLDER~1\AppData\Local\Temp\ccEQi33f.s:27790  .debug_str:000000000001f72a .LASF4906
C:\Users\SOLDER~1\AppData\Local\Temp\ccEQi33f.s:27950  .debug_str:000000000002013f .LASF4907
C:\Users\SOLDER~1\AppData\Local\Temp\ccEQi33f.s:29104  .debug_str:0000000000024c67 .LASF4908
C:\Users\SOLDER~1\AppData\Local\Temp\ccEQi33f.s:28474  .debug_str:00000000000222b9 .LASF4909
C:\Users\SOLDER~1\AppData\Local\Temp\ccEQi33f.s:21920  .debug_str:00000000000078d9 .LASF4910
C:\Users\SOLDER~1\AppData\Local\Temp\ccEQi33f.s:23156  .debug_str:000000000000ca2f .LASF4911
C:\Users\SOLDER~1\AppData\Local\Temp\ccEQi33f.s:25398  .debug_str:0000000000015c89 .LASF4912
C:\Users\SOLDER~1\AppData\Local\Temp\ccEQi33f.s:29046  .debug_str:00000000000248a1 .LASF4913
C:\Users\SOLDER~1\AppData\Local\Temp\ccEQi33f.s:29914  .debug_str:00000000000281e1 .LASF4914
C:\Users\SOLDER~1\AppData\Local\Temp\ccEQi33f.s:24294  .debug_str:0000000000011413 .LASF4915
C:\Users\SOLDER~1\AppData\Local\Temp\ccEQi33f.s:20228  .debug_str:0000000000000c0b .LASF4916
C:\Users\SOLDER~1\AppData\Local\Temp\ccEQi33f.s:26602  .debug_str:000000000001a96c .LASF4917
C:\Users\SOLDER~1\AppData\Local\Temp\ccEQi33f.s:28860  .debug_str:0000000000023c43 .LASF4918
GAS LISTING C:\Users\SOLDER~1\AppData\Local\Temp\ccEQi33f.s 			page 129


C:\Users\SOLDER~1\AppData\Local\Temp\ccEQi33f.s:29142  .debug_str:0000000000024ebf .LASF4919
C:\Users\SOLDER~1\AppData\Local\Temp\ccEQi33f.s:25178  .debug_str:0000000000014e99 .LASF4920
C:\Users\SOLDER~1\AppData\Local\Temp\ccEQi33f.s:29286  .debug_str:00000000000257f9 .LASF4921
C:\Users\SOLDER~1\AppData\Local\Temp\ccEQi33f.s:30096  .debug_str:0000000000028db0 .LASF4922
C:\Users\SOLDER~1\AppData\Local\Temp\ccEQi33f.s:23602  .debug_str:000000000000e773 .LASF4923
C:\Users\SOLDER~1\AppData\Local\Temp\ccEQi33f.s:21054  .debug_str:0000000000004146 .LASF4924
C:\Users\SOLDER~1\AppData\Local\Temp\ccEQi33f.s:26746  .debug_str:000000000001b2a3 .LASF4925
C:\Users\SOLDER~1\AppData\Local\Temp\ccEQi33f.s:27918  .debug_str:000000000001ff39 .LASF4926
C:\Users\SOLDER~1\AppData\Local\Temp\ccEQi33f.s:24450  .debug_str:0000000000011e01 .LASF4927
C:\Users\SOLDER~1\AppData\Local\Temp\ccEQi33f.s:31454  .debug_str:000000000002e597 .LASF4928
C:\Users\SOLDER~1\AppData\Local\Temp\ccEQi33f.s:23570  .debug_str:000000000000e542 .LASF4929
C:\Users\SOLDER~1\AppData\Local\Temp\ccEQi33f.s:30308  .debug_str:0000000000029b44 .LASF4930
C:\Users\SOLDER~1\AppData\Local\Temp\ccEQi33f.s:31130  .debug_str:000000000002d10a .LASF4931
C:\Users\SOLDER~1\AppData\Local\Temp\ccEQi33f.s:27168  .debug_str:000000000001ce95 .LASF4932
C:\Users\SOLDER~1\AppData\Local\Temp\ccEQi33f.s:30600  .debug_str:000000000002ae30 .LASF4933
C:\Users\SOLDER~1\AppData\Local\Temp\ccEQi33f.s:27252  .debug_str:000000000001d451 .LASF4934
C:\Users\SOLDER~1\AppData\Local\Temp\ccEQi33f.s:27892  .debug_str:000000000001fd89 .LASF4935
C:\Users\SOLDER~1\AppData\Local\Temp\ccEQi33f.s:26178  .debug_str:0000000000018eaf .LASF4936
C:\Users\SOLDER~1\AppData\Local\Temp\ccEQi33f.s:21928  .debug_str:0000000000007966 .LASF4937
C:\Users\SOLDER~1\AppData\Local\Temp\ccEQi33f.s:23286  .debug_str:000000000000d2b5 .LASF4938
C:\Users\SOLDER~1\AppData\Local\Temp\ccEQi33f.s:24488  .debug_str:0000000000012061 .LASF4939
C:\Users\SOLDER~1\AppData\Local\Temp\ccEQi33f.s:25530  .debug_str:00000000000164eb .LASF4940
C:\Users\SOLDER~1\AppData\Local\Temp\ccEQi33f.s:27520  .debug_str:000000000001e554 .LASF4941
C:\Users\SOLDER~1\AppData\Local\Temp\ccEQi33f.s:29162  .debug_str:000000000002500b .LASF4942
C:\Users\SOLDER~1\AppData\Local\Temp\ccEQi33f.s:28590  .debug_str:0000000000022aaf .LASF4943
C:\Users\SOLDER~1\AppData\Local\Temp\ccEQi33f.s:28026  .debug_str:0000000000020641 .LASF4944
C:\Users\SOLDER~1\AppData\Local\Temp\ccEQi33f.s:28316  .debug_str:0000000000021920 .LASF4945
C:\Users\SOLDER~1\AppData\Local\Temp\ccEQi33f.s:23592  .debug_str:000000000000e6bc .LASF4946
C:\Users\SOLDER~1\AppData\Local\Temp\ccEQi33f.s:24652  .debug_str:0000000000012ad3 .LASF4947
C:\Users\SOLDER~1\AppData\Local\Temp\ccEQi33f.s:24526  .debug_str:00000000000122b3 .LASF4948
C:\Users\SOLDER~1\AppData\Local\Temp\ccEQi33f.s:23274  .debug_str:000000000000d1f3 .LASF4949
C:\Users\SOLDER~1\AppData\Local\Temp\ccEQi33f.s:30012  .debug_str:000000000002884c .LASF4950
C:\Users\SOLDER~1\AppData\Local\Temp\ccEQi33f.s:20596  .debug_str:00000000000023e6 .LASF4951
C:\Users\SOLDER~1\AppData\Local\Temp\ccEQi33f.s:29884  .debug_str:000000000002801a .LASF4952
C:\Users\SOLDER~1\AppData\Local\Temp\ccEQi33f.s:25250  .debug_str:0000000000015344 .LASF4953
C:\Users\SOLDER~1\AppData\Local\Temp\ccEQi33f.s:22888  .debug_str:000000000000b7f6 .LASF4954
C:\Users\SOLDER~1\AppData\Local\Temp\ccEQi33f.s:23990  .debug_str:00000000000100a2 .LASF4955
C:\Users\SOLDER~1\AppData\Local\Temp\ccEQi33f.s:31184  .debug_str:000000000002d484 .LASF4956
C:\Users\SOLDER~1\AppData\Local\Temp\ccEQi33f.s:25206  .debug_str:0000000000015063 .LASF4957
C:\Users\SOLDER~1\AppData\Local\Temp\ccEQi33f.s:21590  .debug_str:0000000000006355 .LASF4958
C:\Users\SOLDER~1\AppData\Local\Temp\ccEQi33f.s:27312  .debug_str:000000000001d7fc .LASF4959
C:\Users\SOLDER~1\AppData\Local\Temp\ccEQi33f.s:22460  .debug_str:0000000000009c35 .LASF4960
C:\Users\SOLDER~1\AppData\Local\Temp\ccEQi33f.s:26532  .debug_str:000000000001a4dc .LASF4961
C:\Users\SOLDER~1\AppData\Local\Temp\ccEQi33f.s:24026  .debug_str:000000000001030e .LASF4962
C:\Users\SOLDER~1\AppData\Local\Temp\ccEQi33f.s:22448  .debug_str:0000000000009b64 .LASF4963
C:\Users\SOLDER~1\AppData\Local\Temp\ccEQi33f.s:25504  .debug_str:0000000000016355 .LASF4964
C:\Users\SOLDER~1\AppData\Local\Temp\ccEQi33f.s:22788  .debug_str:000000000000b1bd .LASF4965
C:\Users\SOLDER~1\AppData\Local\Temp\ccEQi33f.s:20400  .debug_str:0000000000001723 .LASF4966
C:\Users\SOLDER~1\AppData\Local\Temp\ccEQi33f.s:22592  .debug_str:000000000000a500 .LASF4967
C:\Users\SOLDER~1\AppData\Local\Temp\ccEQi33f.s:22998  .debug_str:000000000000bf1b .LASF4968
C:\Users\SOLDER~1\AppData\Local\Temp\ccEQi33f.s:29144  .debug_str:0000000000024ee2 .LASF4969
C:\Users\SOLDER~1\AppData\Local\Temp\ccEQi33f.s:26124  .debug_str:0000000000018af0 .LASF4970
C:\Users\SOLDER~1\AppData\Local\Temp\ccEQi33f.s:26580  .debug_str:000000000001a82f .LASF4971
C:\Users\SOLDER~1\AppData\Local\Temp\ccEQi33f.s:21128  .debug_str:00000000000045db .LASF4972
C:\Users\SOLDER~1\AppData\Local\Temp\ccEQi33f.s:27750  .debug_str:000000000001f499 .LASF4973
C:\Users\SOLDER~1\AppData\Local\Temp\ccEQi33f.s:24402  .debug_str:0000000000011b0d .LASF4974
C:\Users\SOLDER~1\AppData\Local\Temp\ccEQi33f.s:20350  .debug_str:00000000000013e1 .LASF4975
GAS LISTING C:\Users\SOLDER~1\AppData\Local\Temp\ccEQi33f.s 			page 130


C:\Users\SOLDER~1\AppData\Local\Temp\ccEQi33f.s:20928  .debug_str:000000000000394c .LASF4976
C:\Users\SOLDER~1\AppData\Local\Temp\ccEQi33f.s:24226  .debug_str:0000000000010fad .LASF4977
C:\Users\SOLDER~1\AppData\Local\Temp\ccEQi33f.s:20694  .debug_str:0000000000002a60 .LASF4978
C:\Users\SOLDER~1\AppData\Local\Temp\ccEQi33f.s:27724  .debug_str:000000000001f2da .LASF4979
C:\Users\SOLDER~1\AppData\Local\Temp\ccEQi33f.s:27048  .debug_str:000000000001c672 .LASF4980
C:\Users\SOLDER~1\AppData\Local\Temp\ccEQi33f.s:31582  .debug_str:000000000002edcb .LASF4981
C:\Users\SOLDER~1\AppData\Local\Temp\ccEQi33f.s:31530  .debug_str:000000000002eac1 .LASF4982
C:\Users\SOLDER~1\AppData\Local\Temp\ccEQi33f.s:30454  .debug_str:000000000002a533 .LASF4983
C:\Users\SOLDER~1\AppData\Local\Temp\ccEQi33f.s:27768  .debug_str:000000000001f5d9 .LASF4984
C:\Users\SOLDER~1\AppData\Local\Temp\ccEQi33f.s:22334  .debug_str:0000000000009444 .LASF4985
C:\Users\SOLDER~1\AppData\Local\Temp\ccEQi33f.s:28080  .debug_str:000000000002099a .LASF4986
C:\Users\SOLDER~1\AppData\Local\Temp\ccEQi33f.s:28582  .debug_str:0000000000022a17 .LASF4987
C:\Users\SOLDER~1\AppData\Local\Temp\ccEQi33f.s:30206  .debug_str:00000000000294f6 .LASF4988
C:\Users\SOLDER~1\AppData\Local\Temp\ccEQi33f.s:24750  .debug_str:000000000001314f .LASF4989
C:\Users\SOLDER~1\AppData\Local\Temp\ccEQi33f.s:25860  .debug_str:00000000000179cb .LASF4990
C:\Users\SOLDER~1\AppData\Local\Temp\ccEQi33f.s:20792  .debug_str:0000000000003075 .LASF4991
C:\Users\SOLDER~1\AppData\Local\Temp\ccEQi33f.s:28608  .debug_str:0000000000022bde .LASF4992
C:\Users\SOLDER~1\AppData\Local\Temp\ccEQi33f.s:30548  .debug_str:000000000002ab15 .LASF4993
C:\Users\SOLDER~1\AppData\Local\Temp\ccEQi33f.s:28902  .debug_str:0000000000023f06 .LASF4994
C:\Users\SOLDER~1\AppData\Local\Temp\ccEQi33f.s:24454  .debug_str:0000000000011e3b .LASF4995
C:\Users\SOLDER~1\AppData\Local\Temp\ccEQi33f.s:28966  .debug_str:0000000000024340 .LASF4996
C:\Users\SOLDER~1\AppData\Local\Temp\ccEQi33f.s:30718  .debug_str:000000000002b611 .LASF4997
C:\Users\SOLDER~1\AppData\Local\Temp\ccEQi33f.s:24920  .debug_str:0000000000013d1f .LASF4998
C:\Users\SOLDER~1\AppData\Local\Temp\ccEQi33f.s:22530  .debug_str:000000000000a0ee .LASF4999
C:\Users\SOLDER~1\AppData\Local\Temp\ccEQi33f.s:29712  .debug_str:00000000000274be .LASF5000
C:\Users\SOLDER~1\AppData\Local\Temp\ccEQi33f.s:29290  .debug_str:000000000002584f .LASF5001
C:\Users\SOLDER~1\AppData\Local\Temp\ccEQi33f.s:28544  .debug_str:0000000000022773 .LASF5002
C:\Users\SOLDER~1\AppData\Local\Temp\ccEQi33f.s:26972  .debug_str:000000000001c13e .LASF5003
C:\Users\SOLDER~1\AppData\Local\Temp\ccEQi33f.s:23936  .debug_str:000000000000fd4a .LASF5004
C:\Users\SOLDER~1\AppData\Local\Temp\ccEQi33f.s:28728  .debug_str:00000000000233c8 .LASF5005
C:\Users\SOLDER~1\AppData\Local\Temp\ccEQi33f.s:29814  .debug_str:0000000000027b40 .LASF5006
C:\Users\SOLDER~1\AppData\Local\Temp\ccEQi33f.s:22740  .debug_str:000000000000aed5 .LASF5007
C:\Users\SOLDER~1\AppData\Local\Temp\ccEQi33f.s:25806  .debug_str:0000000000017670 .LASF5008
C:\Users\SOLDER~1\AppData\Local\Temp\ccEQi33f.s:25412  .debug_str:0000000000015d50 .LASF5009
C:\Users\SOLDER~1\AppData\Local\Temp\ccEQi33f.s:29038  .debug_str:00000000000247fc .LASF5010
C:\Users\SOLDER~1\AppData\Local\Temp\ccEQi33f.s:29890  .debug_str:0000000000028083 .LASF5011
C:\Users\SOLDER~1\AppData\Local\Temp\ccEQi33f.s:24986  .debug_str:00000000000141a7 .LASF5012
C:\Users\SOLDER~1\AppData\Local\Temp\ccEQi33f.s:23246  .debug_str:000000000000d02f .LASF5013
C:\Users\SOLDER~1\AppData\Local\Temp\ccEQi33f.s:30270  .debug_str:00000000000298c4 .LASF5014
C:\Users\SOLDER~1\AppData\Local\Temp\ccEQi33f.s:24948  .debug_str:0000000000013f08 .LASF5015
C:\Users\SOLDER~1\AppData\Local\Temp\ccEQi33f.s:28906  .debug_str:0000000000023f59 .LASF5016
C:\Users\SOLDER~1\AppData\Local\Temp\ccEQi33f.s:25028  .debug_str:00000000000144a9 .LASF5017
C:\Users\SOLDER~1\AppData\Local\Temp\ccEQi33f.s:25696  .debug_str:0000000000016f0f .LASF5018
C:\Users\SOLDER~1\AppData\Local\Temp\ccEQi33f.s:25288  .debug_str:00000000000155e1 .LASF5019
C:\Users\SOLDER~1\AppData\Local\Temp\ccEQi33f.s:26366  .debug_str:0000000000019a69 .LASF5020
C:\Users\SOLDER~1\AppData\Local\Temp\ccEQi33f.s:23128  .debug_str:000000000000c81d .LASF5021
C:\Users\SOLDER~1\AppData\Local\Temp\ccEQi33f.s:29648  .debug_str:000000000002708d .LASF5022
C:\Users\SOLDER~1\AppData\Local\Temp\ccEQi33f.s:30678  .debug_str:000000000002b377 .LASF5023
C:\Users\SOLDER~1\AppData\Local\Temp\ccEQi33f.s:27970  .debug_str:0000000000020288 .LASF5024
C:\Users\SOLDER~1\AppData\Local\Temp\ccEQi33f.s:24742  .debug_str:00000000000130b2 .LASF5025
C:\Users\SOLDER~1\AppData\Local\Temp\ccEQi33f.s:24446  .debug_str:0000000000011db2 .LASF5026
C:\Users\SOLDER~1\AppData\Local\Temp\ccEQi33f.s:27962  .debug_str:0000000000020203 .LASF5027
C:\Users\SOLDER~1\AppData\Local\Temp\ccEQi33f.s:25088  .debug_str:000000000001489c .LASF5028
C:\Users\SOLDER~1\AppData\Local\Temp\ccEQi33f.s:26654  .debug_str:000000000001ad21 .LASF5029
C:\Users\SOLDER~1\AppData\Local\Temp\ccEQi33f.s:23970  .debug_str:000000000000ff85 .LASF5030
C:\Users\SOLDER~1\AppData\Local\Temp\ccEQi33f.s:29542  .debug_str:000000000002699e .LASF5031
C:\Users\SOLDER~1\AppData\Local\Temp\ccEQi33f.s:27760  .debug_str:000000000001f557 .LASF5032
GAS LISTING C:\Users\SOLDER~1\AppData\Local\Temp\ccEQi33f.s 			page 131


C:\Users\SOLDER~1\AppData\Local\Temp\ccEQi33f.s:20588  .debug_str:000000000000234c .LASF5033
C:\Users\SOLDER~1\AppData\Local\Temp\ccEQi33f.s:20338  .debug_str:0000000000001312 .LASF5034
C:\Users\SOLDER~1\AppData\Local\Temp\ccEQi33f.s:28438  .debug_str:00000000000220c2 .LASF5035
C:\Users\SOLDER~1\AppData\Local\Temp\ccEQi33f.s:23988  .debug_str:0000000000010084 .LASF5036
C:\Users\SOLDER~1\AppData\Local\Temp\ccEQi33f.s:24504  .debug_str:0000000000012170 .LASF5037
C:\Users\SOLDER~1\AppData\Local\Temp\ccEQi33f.s:30036  .debug_str:00000000000289e3 .LASF5038
C:\Users\SOLDER~1\AppData\Local\Temp\ccEQi33f.s:26816  .debug_str:000000000001b707 .LASF5039
C:\Users\SOLDER~1\AppData\Local\Temp\ccEQi33f.s:24764  .debug_str:0000000000013241 .LASF5040
C:\Users\SOLDER~1\AppData\Local\Temp\ccEQi33f.s:28290  .debug_str:000000000002175d .LASF5041
C:\Users\SOLDER~1\AppData\Local\Temp\ccEQi33f.s:26026  .debug_str:0000000000018489 .LASF5042
C:\Users\SOLDER~1\AppData\Local\Temp\ccEQi33f.s:27796  .debug_str:000000000001f79c .LASF5043
C:\Users\SOLDER~1\AppData\Local\Temp\ccEQi33f.s:26076  .debug_str:00000000000187d5 .LASF5044
C:\Users\SOLDER~1\AppData\Local\Temp\ccEQi33f.s:24810  .debug_str:0000000000013563 .LASF5045
C:\Users\SOLDER~1\AppData\Local\Temp\ccEQi33f.s:22340  .debug_str:00000000000094a6 .LASF5046
C:\Users\SOLDER~1\AppData\Local\Temp\ccEQi33f.s:28848  .debug_str:0000000000023b7d .LASF5047
C:\Users\SOLDER~1\AppData\Local\Temp\ccEQi33f.s:29986  .debug_str:00000000000286a8 .LASF5048
C:\Users\SOLDER~1\AppData\Local\Temp\ccEQi33f.s:28204  .debug_str:00000000000211f5 .LASF5049
C:\Users\SOLDER~1\AppData\Local\Temp\ccEQi33f.s:28202  .debug_str:00000000000211d6 .LASF5050
C:\Users\SOLDER~1\AppData\Local\Temp\ccEQi33f.s:20242  .debug_str:0000000000000d1c .LASF5051
C:\Users\SOLDER~1\AppData\Local\Temp\ccEQi33f.s:31588  .debug_str:000000000002ee24 .LASF5052
C:\Users\SOLDER~1\AppData\Local\Temp\ccEQi33f.s:27152  .debug_str:000000000001cd95 .LASF5053
C:\Users\SOLDER~1\AppData\Local\Temp\ccEQi33f.s:22478  .debug_str:0000000000009d77 .LASF5054
C:\Users\SOLDER~1\AppData\Local\Temp\ccEQi33f.s:24776  .debug_str:00000000000132ef .LASF5055
C:\Users\SOLDER~1\AppData\Local\Temp\ccEQi33f.s:30806  .debug_str:000000000002bb9d .LASF5056
C:\Users\SOLDER~1\AppData\Local\Temp\ccEQi33f.s:22522  .debug_str:000000000000a058 .LASF5057
C:\Users\SOLDER~1\AppData\Local\Temp\ccEQi33f.s:24420  .debug_str:0000000000011c42 .LASF5058
C:\Users\SOLDER~1\AppData\Local\Temp\ccEQi33f.s:30338  .debug_str:0000000000029d6c .LASF5059
C:\Users\SOLDER~1\AppData\Local\Temp\ccEQi33f.s:24922  .debug_str:0000000000013d4d .LASF5060
C:\Users\SOLDER~1\AppData\Local\Temp\ccEQi33f.s:20432  .debug_str:00000000000018e4 .LASF5061
C:\Users\SOLDER~1\AppData\Local\Temp\ccEQi33f.s:25584  .debug_str:000000000001682b .LASF5062
C:\Users\SOLDER~1\AppData\Local\Temp\ccEQi33f.s:23484  .debug_str:000000000000df78 .LASF5063
C:\Users\SOLDER~1\AppData\Local\Temp\ccEQi33f.s:22782  .debug_str:000000000000b152 .LASF5064
C:\Users\SOLDER~1\AppData\Local\Temp\ccEQi33f.s:23132  .debug_str:000000000000c862 .LASF5065
C:\Users\SOLDER~1\AppData\Local\Temp\ccEQi33f.s:20182  .debug_str:00000000000008e9 .LASF5066
C:\Users\SOLDER~1\AppData\Local\Temp\ccEQi33f.s:29048  .debug_str:00000000000248c4 .LASF5067
C:\Users\SOLDER~1\AppData\Local\Temp\ccEQi33f.s:20758  .debug_str:0000000000002e4a .LASF5068
C:\Users\SOLDER~1\AppData\Local\Temp\ccEQi33f.s:22664  .debug_str:000000000000a9f7 .LASF5069
C:\Users\SOLDER~1\AppData\Local\Temp\ccEQi33f.s:21974  .debug_str:0000000000007c75 .LASF5070
C:\Users\SOLDER~1\AppData\Local\Temp\ccEQi33f.s:24302  .debug_str:00000000000114af .LASF5071
C:\Users\SOLDER~1\AppData\Local\Temp\ccEQi33f.s:26892  .debug_str:000000000001bbbe .LASF5072
C:\Users\SOLDER~1\AppData\Local\Temp\ccEQi33f.s:22936  .debug_str:000000000000bb18 .LASF5073
C:\Users\SOLDER~1\AppData\Local\Temp\ccEQi33f.s:24848  .debug_str:00000000000137d0 .LASF5074
C:\Users\SOLDER~1\AppData\Local\Temp\ccEQi33f.s:22220  .debug_str:0000000000008c62 .LASF5075
C:\Users\SOLDER~1\AppData\Local\Temp\ccEQi33f.s:29878  .debug_str:0000000000027fa7 .LASF5076
C:\Users\SOLDER~1\AppData\Local\Temp\ccEQi33f.s:24400  .debug_str:0000000000011ade .LASF5077
C:\Users\SOLDER~1\AppData\Local\Temp\ccEQi33f.s:21830  .debug_str:000000000000734d .LASF5078
C:\Users\SOLDER~1\AppData\Local\Temp\ccEQi33f.s:20478  .debug_str:0000000000001c0c .LASF5079
C:\Users\SOLDER~1\AppData\Local\Temp\ccEQi33f.s:28612  .debug_str:0000000000022c19 .LASF5080
C:\Users\SOLDER~1\AppData\Local\Temp\ccEQi33f.s:24356  .debug_str:000000000001180a .LASF5081
C:\Users\SOLDER~1\AppData\Local\Temp\ccEQi33f.s:22304  .debug_str:000000000000921d .LASF5082
C:\Users\SOLDER~1\AppData\Local\Temp\ccEQi33f.s:22030  .debug_str:0000000000008027 .LASF5083
C:\Users\SOLDER~1\AppData\Local\Temp\ccEQi33f.s:27218  .debug_str:000000000001d1f9 .LASF5084
C:\Users\SOLDER~1\AppData\Local\Temp\ccEQi33f.s:29454  .debug_str:00000000000263c3 .LASF5085
C:\Users\SOLDER~1\AppData\Local\Temp\ccEQi33f.s:31506  .debug_str:000000000002e922 .LASF5086
C:\Users\SOLDER~1\AppData\Local\Temp\ccEQi33f.s:22832  .debug_str:000000000000b4c9 .LASF5087
C:\Users\SOLDER~1\AppData\Local\Temp\ccEQi33f.s:22480  .debug_str:0000000000009d9e .LASF5088
C:\Users\SOLDER~1\AppData\Local\Temp\ccEQi33f.s:22194  .debug_str:0000000000008aab .LASF5089
GAS LISTING C:\Users\SOLDER~1\AppData\Local\Temp\ccEQi33f.s 			page 132


C:\Users\SOLDER~1\AppData\Local\Temp\ccEQi33f.s:28828  .debug_str:0000000000023a1c .LASF5090
C:\Users\SOLDER~1\AppData\Local\Temp\ccEQi33f.s:22476  .debug_str:0000000000009d4a .LASF5091
C:\Users\SOLDER~1\AppData\Local\Temp\ccEQi33f.s:27636  .debug_str:000000000001ecf7 .LASF5092
C:\Users\SOLDER~1\AppData\Local\Temp\ccEQi33f.s:22940  .debug_str:000000000000bb67 .LASF5093
C:\Users\SOLDER~1\AppData\Local\Temp\ccEQi33f.s:22286  .debug_str:00000000000090fc .LASF5094
C:\Users\SOLDER~1\AppData\Local\Temp\ccEQi33f.s:29860  .debug_str:0000000000027e6a .LASF5095
C:\Users\SOLDER~1\AppData\Local\Temp\ccEQi33f.s:25046  .debug_str:00000000000145db .LASF5096
C:\Users\SOLDER~1\AppData\Local\Temp\ccEQi33f.s:30002  .debug_str:00000000000287c4 .LASF5097
C:\Users\SOLDER~1\AppData\Local\Temp\ccEQi33f.s:26736  .debug_str:000000000001b1f7 .LASF5098
C:\Users\SOLDER~1\AppData\Local\Temp\ccEQi33f.s:22032  .debug_str:0000000000008055 .LASF5099
C:\Users\SOLDER~1\AppData\Local\Temp\ccEQi33f.s:22632  .debug_str:000000000000a7bb .LASF5100
C:\Users\SOLDER~1\AppData\Local\Temp\ccEQi33f.s:20236  .debug_str:0000000000000c9d .LASF5101
C:\Users\SOLDER~1\AppData\Local\Temp\ccEQi33f.s:26832  .debug_str:000000000001b7db .LASF5102
C:\Users\SOLDER~1\AppData\Local\Temp\ccEQi33f.s:28912  .debug_str:0000000000023fa9 .LASF5103
C:\Users\SOLDER~1\AppData\Local\Temp\ccEQi33f.s:20428  .debug_str:00000000000018ba .LASF5104
C:\Users\SOLDER~1\AppData\Local\Temp\ccEQi33f.s:27822  .debug_str:000000000001f931 .LASF5105
C:\Users\SOLDER~1\AppData\Local\Temp\ccEQi33f.s:20954  .debug_str:0000000000003afa .LASF5106
C:\Users\SOLDER~1\AppData\Local\Temp\ccEQi33f.s:20880  .debug_str:0000000000003621 .LASF5107
C:\Users\SOLDER~1\AppData\Local\Temp\ccEQi33f.s:29298  .debug_str:00000000000258ef .LASF5108
C:\Users\SOLDER~1\AppData\Local\Temp\ccEQi33f.s:27086  .debug_str:000000000001c8fb .LASF5109
C:\Users\SOLDER~1\AppData\Local\Temp\ccEQi33f.s:24502  .debug_str:0000000000012150 .LASF5110
C:\Users\SOLDER~1\AppData\Local\Temp\ccEQi33f.s:30072  .debug_str:0000000000028c20 .LASF5111
C:\Users\SOLDER~1\AppData\Local\Temp\ccEQi33f.s:24032  .debug_str:0000000000010383 .LASF5112
C:\Users\SOLDER~1\AppData\Local\Temp\ccEQi33f.s:21700  .debug_str:0000000000006aa7 .LASF5113
C:\Users\SOLDER~1\AppData\Local\Temp\ccEQi33f.s:26648  .debug_str:000000000001acc2 .LASF5114
C:\Users\SOLDER~1\AppData\Local\Temp\ccEQi33f.s:22902  .debug_str:000000000000b8d8 .LASF5115
C:\Users\SOLDER~1\AppData\Local\Temp\ccEQi33f.s:26836  .debug_str:000000000001b828 .LASF5116
C:\Users\SOLDER~1\AppData\Local\Temp\ccEQi33f.s:23794  .debug_str:000000000000f37f .LASF5117
C:\Users\SOLDER~1\AppData\Local\Temp\ccEQi33f.s:24008  .debug_str:00000000000101c1 .LASF5118
C:\Users\SOLDER~1\AppData\Local\Temp\ccEQi33f.s:23756  .debug_str:000000000000f10f .LASF5119
C:\Users\SOLDER~1\AppData\Local\Temp\ccEQi33f.s:31578  .debug_str:000000000002ed86 .LASF5120
C:\Users\SOLDER~1\AppData\Local\Temp\ccEQi33f.s:23228  .debug_str:000000000000cee6 .LASF5121
C:\Users\SOLDER~1\AppData\Local\Temp\ccEQi33f.s:23902  .debug_str:000000000000fae1 .LASF5122
C:\Users\SOLDER~1\AppData\Local\Temp\ccEQi33f.s:21046  .debug_str:00000000000040a8 .LASF5123
C:\Users\SOLDER~1\AppData\Local\Temp\ccEQi33f.s:29674  .debug_str:0000000000027252 .LASF5124
C:\Users\SOLDER~1\AppData\Local\Temp\ccEQi33f.s:30738  .debug_str:000000000002b745 .LASF5125
C:\Users\SOLDER~1\AppData\Local\Temp\ccEQi33f.s:21462  .debug_str:0000000000005b09 .LASF5126
C:\Users\SOLDER~1\AppData\Local\Temp\ccEQi33f.s:25922  .debug_str:0000000000017de5 .LASF5127
C:\Users\SOLDER~1\AppData\Local\Temp\ccEQi33f.s:26678  .debug_str:000000000001ae94 .LASF5128
C:\Users\SOLDER~1\AppData\Local\Temp\ccEQi33f.s:25670  .debug_str:0000000000016d68 .LASF5129
C:\Users\SOLDER~1\AppData\Local\Temp\ccEQi33f.s:25994  .debug_str:00000000000182a2 .LASF5130
C:\Users\SOLDER~1\AppData\Local\Temp\ccEQi33f.s:24664  .debug_str:0000000000012bd0 .LASF5131
C:\Users\SOLDER~1\AppData\Local\Temp\ccEQi33f.s:30254  .debug_str:00000000000297e1 .LASF5132
C:\Users\SOLDER~1\AppData\Local\Temp\ccEQi33f.s:28332  .debug_str:0000000000021a2b .LASF5133
C:\Users\SOLDER~1\AppData\Local\Temp\ccEQi33f.s:28366  .debug_str:0000000000021c37 .LASF5134
C:\Users\SOLDER~1\AppData\Local\Temp\ccEQi33f.s:29672  .debug_str:0000000000027221 .LASF5135
C:\Users\SOLDER~1\AppData\Local\Temp\ccEQi33f.s:31562  .debug_str:000000000002ec95 .LASF5136
C:\Users\SOLDER~1\AppData\Local\Temp\ccEQi33f.s:31492  .debug_str:000000000002e83d .LASF5137
C:\Users\SOLDER~1\AppData\Local\Temp\ccEQi33f.s:25632  .debug_str:0000000000016b4a .LASF5138
C:\Users\SOLDER~1\AppData\Local\Temp\ccEQi33f.s:25040  .debug_str:0000000000014574 .LASF5139
C:\Users\SOLDER~1\AppData\Local\Temp\ccEQi33f.s:24878  .debug_str:0000000000013a3f .LASF5140
C:\Users\SOLDER~1\AppData\Local\Temp\ccEQi33f.s:29720  .debug_str:0000000000027551 .LASF5141
C:\Users\SOLDER~1\AppData\Local\Temp\ccEQi33f.s:25934  .debug_str:0000000000017ec6 .LASF5142
C:\Users\SOLDER~1\AppData\Local\Temp\ccEQi33f.s:20362  .debug_str:00000000000014b1 .LASF5143
C:\Users\SOLDER~1\AppData\Local\Temp\ccEQi33f.s:28044  .debug_str:000000000002074a .LASF5144
C:\Users\SOLDER~1\AppData\Local\Temp\ccEQi33f.s:27824  .debug_str:000000000001f956 .LASF5145
C:\Users\SOLDER~1\AppData\Local\Temp\ccEQi33f.s:22742  .debug_str:000000000000af03 .LASF5146
GAS LISTING C:\Users\SOLDER~1\AppData\Local\Temp\ccEQi33f.s 			page 133


C:\Users\SOLDER~1\AppData\Local\Temp\ccEQi33f.s:29608  .debug_str:0000000000026dea .LASF5147
C:\Users\SOLDER~1\AppData\Local\Temp\ccEQi33f.s:28506  .debug_str:00000000000224e6 .LASF5148
C:\Users\SOLDER~1\AppData\Local\Temp\ccEQi33f.s:25232  .debug_str:0000000000015223 .LASF5149
C:\Users\SOLDER~1\AppData\Local\Temp\ccEQi33f.s:29362  .debug_str:0000000000025d3b .LASF5150
C:\Users\SOLDER~1\AppData\Local\Temp\ccEQi33f.s:24258  .debug_str:00000000000111b1 .LASF5151
C:\Users\SOLDER~1\AppData\Local\Temp\ccEQi33f.s:31258  .debug_str:000000000002d92c .LASF5152
C:\Users\SOLDER~1\AppData\Local\Temp\ccEQi33f.s:27764  .debug_str:000000000001f597 .LASF5153
C:\Users\SOLDER~1\AppData\Local\Temp\ccEQi33f.s:28634  .debug_str:0000000000022d87 .LASF5154
C:\Users\SOLDER~1\AppData\Local\Temp\ccEQi33f.s:30136  .debug_str:000000000002902e .LASF5155
C:\Users\SOLDER~1\AppData\Local\Temp\ccEQi33f.s:26214  .debug_str:00000000000190f1 .LASF5156
C:\Users\SOLDER~1\AppData\Local\Temp\ccEQi33f.s:26964  .debug_str:000000000001c0af .LASF5157
C:\Users\SOLDER~1\AppData\Local\Temp\ccEQi33f.s:22226  .debug_str:0000000000008cd3 .LASF5158
C:\Users\SOLDER~1\AppData\Local\Temp\ccEQi33f.s:27818  .debug_str:000000000001f8e9 .LASF5159
C:\Users\SOLDER~1\AppData\Local\Temp\ccEQi33f.s:29980  .debug_str:0000000000028637 .LASF5160
C:\Users\SOLDER~1\AppData\Local\Temp\ccEQi33f.s:28184  .debug_str:00000000000210a4 .LASF5161
C:\Users\SOLDER~1\AppData\Local\Temp\ccEQi33f.s:20334  .debug_str:00000000000012b9 .LASF5162
C:\Users\SOLDER~1\AppData\Local\Temp\ccEQi33f.s:20058  .debug_str:0000000000000048 .LASF5163
C:\Users\SOLDER~1\AppData\Local\Temp\ccEQi33f.s:26818  .debug_str:000000000001b725 .LASF5164
C:\Users\SOLDER~1\AppData\Local\Temp\ccEQi33f.s:31224  .debug_str:000000000002d6ee .LASF5165
C:\Users\SOLDER~1\AppData\Local\Temp\ccEQi33f.s:20084  .debug_str:00000000000001ca .LASF5166
C:\Users\SOLDER~1\AppData\Local\Temp\ccEQi33f.s:22452  .debug_str:0000000000009bae .LASF5167
C:\Users\SOLDER~1\AppData\Local\Temp\ccEQi33f.s:31602  .debug_str:000000000002eeff .LASF5168
C:\Users\SOLDER~1\AppData\Local\Temp\ccEQi33f.s:24470  .debug_str:0000000000011f3e .LASF5169
C:\Users\SOLDER~1\AppData\Local\Temp\ccEQi33f.s:26126  .debug_str:0000000000018b0f .LASF5170
C:\Users\SOLDER~1\AppData\Local\Temp\ccEQi33f.s:21976  .debug_str:0000000000007ca3 .LASF5171
C:\Users\SOLDER~1\AppData\Local\Temp\ccEQi33f.s:21986  .debug_str:0000000000007d45 .LASF5172
C:\Users\SOLDER~1\AppData\Local\Temp\ccEQi33f.s:27606  .debug_str:000000000001eb00 .LASF5173
C:\Users\SOLDER~1\AppData\Local\Temp\ccEQi33f.s:31218  .debug_str:000000000002d684 .LASF5174
C:\Users\SOLDER~1\AppData\Local\Temp\ccEQi33f.s:24168  .debug_str:0000000000010bfd .LASF5175
C:\Users\SOLDER~1\AppData\Local\Temp\ccEQi33f.s:22292  .debug_str:0000000000009168 .LASF5176
C:\Users\SOLDER~1\AppData\Local\Temp\ccEQi33f.s:24924  .debug_str:0000000000013d78 .LASF5177
C:\Users\SOLDER~1\AppData\Local\Temp\ccEQi33f.s:28016  .debug_str:0000000000020587 .LASF5178
C:\Users\SOLDER~1\AppData\Local\Temp\ccEQi33f.s:25508  .debug_str:000000000001638d .LASF5179
C:\Users\SOLDER~1\AppData\Local\Temp\ccEQi33f.s:23892  .debug_str:000000000000fa31 .LASF5180
C:\Users\SOLDER~1\AppData\Local\Temp\ccEQi33f.s:31540  .debug_str:000000000002eb40 .LASF5181
C:\Users\SOLDER~1\AppData\Local\Temp\ccEQi33f.s:23196  .debug_str:000000000000ccc7 .LASF5182
C:\Users\SOLDER~1\AppData\Local\Temp\ccEQi33f.s:27632  .debug_str:000000000001eca8 .LASF5183
C:\Users\SOLDER~1\AppData\Local\Temp\ccEQi33f.s:20762  .debug_str:0000000000002e8e .LASF5184
C:\Users\SOLDER~1\AppData\Local\Temp\ccEQi33f.s:24262  .debug_str:00000000000111f6 .LASF5185
C:\Users\SOLDER~1\AppData\Local\Temp\ccEQi33f.s:27400  .debug_str:000000000001dda7 .LASF5186
C:\Users\SOLDER~1\AppData\Local\Temp\ccEQi33f.s:25152  .debug_str:0000000000014d08 .LASF5187
C:\Users\SOLDER~1\AppData\Local\Temp\ccEQi33f.s:29242  .debug_str:00000000000254f7 .LASF5188
C:\Users\SOLDER~1\AppData\Local\Temp\ccEQi33f.s:26918  .debug_str:000000000001bd96 .LASF5189
C:\Users\SOLDER~1\AppData\Local\Temp\ccEQi33f.s:23346  .debug_str:000000000000d69e .LASF5190
C:\Users\SOLDER~1\AppData\Local\Temp\ccEQi33f.s:21550  .debug_str:00000000000060a0 .LASF5191
C:\Users\SOLDER~1\AppData\Local\Temp\ccEQi33f.s:31490  .debug_str:000000000002e806 .LASF5192
C:\Users\SOLDER~1\AppData\Local\Temp\ccEQi33f.s:20336  .debug_str:00000000000012dc .LASF5193
C:\Users\SOLDER~1\AppData\Local\Temp\ccEQi33f.s:23140  .debug_str:000000000000c8f1 .LASF5194
C:\Users\SOLDER~1\AppData\Local\Temp\ccEQi33f.s:29662  .debug_str:0000000000027166 .LASF5195
C:\Users\SOLDER~1\AppData\Local\Temp\ccEQi33f.s:26566  .debug_str:000000000001a72c .LASF5196
C:\Users\SOLDER~1\AppData\Local\Temp\ccEQi33f.s:22604  .debug_str:000000000000a5c7 .LASF5197
C:\Users\SOLDER~1\AppData\Local\Temp\ccEQi33f.s:20614  .debug_str:0000000000002511 .LASF5198
C:\Users\SOLDER~1\AppData\Local\Temp\ccEQi33f.s:26638  .debug_str:000000000001ac03 .LASF5199
C:\Users\SOLDER~1\AppData\Local\Temp\ccEQi33f.s:29338  .debug_str:0000000000025b8f .LASF5200
C:\Users\SOLDER~1\AppData\Local\Temp\ccEQi33f.s:22280  .debug_str:0000000000009090 .LASF5201
C:\Users\SOLDER~1\AppData\Local\Temp\ccEQi33f.s:29424  .debug_str:00000000000261a4 .LASF5202
C:\Users\SOLDER~1\AppData\Local\Temp\ccEQi33f.s:21318  .debug_str:000000000000518c .LASF5203
GAS LISTING C:\Users\SOLDER~1\AppData\Local\Temp\ccEQi33f.s 			page 134


C:\Users\SOLDER~1\AppData\Local\Temp\ccEQi33f.s:20210  .debug_str:0000000000000acd .LASF5204
C:\Users\SOLDER~1\AppData\Local\Temp\ccEQi33f.s:23144  .debug_str:000000000000c94b .LASF5205
C:\Users\SOLDER~1\AppData\Local\Temp\ccEQi33f.s:24424  .debug_str:0000000000011c89 .LASF5206
C:\Users\SOLDER~1\AppData\Local\Temp\ccEQi33f.s:25574  .debug_str:0000000000016789 .LASF5207
C:\Users\SOLDER~1\AppData\Local\Temp\ccEQi33f.s:21598  .debug_str:00000000000063dd .LASF5208
C:\Users\SOLDER~1\AppData\Local\Temp\ccEQi33f.s:29880  .debug_str:0000000000027fce .LASF5209
C:\Users\SOLDER~1\AppData\Local\Temp\ccEQi33f.s:28564  .debug_str:00000000000228db .LASF5210
C:\Users\SOLDER~1\AppData\Local\Temp\ccEQi33f.s:24842  .debug_str:000000000001375f .LASF5211
C:\Users\SOLDER~1\AppData\Local\Temp\ccEQi33f.s:28258  .debug_str:0000000000021575 .LASF5212
C:\Users\SOLDER~1\AppData\Local\Temp\ccEQi33f.s:29034  .debug_str:00000000000247c9 .LASF5213
C:\Users\SOLDER~1\AppData\Local\Temp\ccEQi33f.s:27090  .debug_str:000000000001c941 .LASF5214
C:\Users\SOLDER~1\AppData\Local\Temp\ccEQi33f.s:25590  .debug_str:0000000000016895 .LASF5215
C:\Users\SOLDER~1\AppData\Local\Temp\ccEQi33f.s:28880  .debug_str:0000000000023d9b .LASF5216
C:\Users\SOLDER~1\AppData\Local\Temp\ccEQi33f.s:31180  .debug_str:000000000002d442 .LASF5217
C:\Users\SOLDER~1\AppData\Local\Temp\ccEQi33f.s:23778  .debug_str:000000000000f27f .LASF5218
C:\Users\SOLDER~1\AppData\Local\Temp\ccEQi33f.s:20836  .debug_str:0000000000003357 .LASF5219
C:\Users\SOLDER~1\AppData\Local\Temp\ccEQi33f.s:30514  .debug_str:000000000002a8b9 .LASF5220
C:\Users\SOLDER~1\AppData\Local\Temp\ccEQi33f.s:24090  .debug_str:0000000000010704 .LASF5221
C:\Users\SOLDER~1\AppData\Local\Temp\ccEQi33f.s:30324  .debug_str:0000000000029c63 .LASF5222
C:\Users\SOLDER~1\AppData\Local\Temp\ccEQi33f.s:23858  .debug_str:000000000000f7c8 .LASF5223
C:\Users\SOLDER~1\AppData\Local\Temp\ccEQi33f.s:20608  .debug_str:00000000000024ae .LASF5224
C:\Users\SOLDER~1\AppData\Local\Temp\ccEQi33f.s:26482  .debug_str:000000000001a1a1 .LASF5225
C:\Users\SOLDER~1\AppData\Local\Temp\ccEQi33f.s:20884  .debug_str:0000000000003662 .LASF5226
C:\Users\SOLDER~1\AppData\Local\Temp\ccEQi33f.s:21290  .debug_str:0000000000004ff2 .LASF5227
C:\Users\SOLDER~1\AppData\Local\Temp\ccEQi33f.s:30414  .debug_str:000000000002a2aa .LASF5228
C:\Users\SOLDER~1\AppData\Local\Temp\ccEQi33f.s:20100  .debug_str:00000000000002c8 .LASF5229
C:\Users\SOLDER~1\AppData\Local\Temp\ccEQi33f.s:21790  .debug_str:00000000000070cc .LASF5230
C:\Users\SOLDER~1\AppData\Local\Temp\ccEQi33f.s:30654  .debug_str:000000000002b212 .LASF5231
C:\Users\SOLDER~1\AppData\Local\Temp\ccEQi33f.s:22670  .debug_str:000000000000aa66 .LASF5232
C:\Users\SOLDER~1\AppData\Local\Temp\ccEQi33f.s:29428  .debug_str:00000000000261f8 .LASF5233
C:\Users\SOLDER~1\AppData\Local\Temp\ccEQi33f.s:30784  .debug_str:000000000002ba2a .LASF5234
C:\Users\SOLDER~1\AppData\Local\Temp\ccEQi33f.s:24036  .debug_str:00000000000103bd .LASF5235
C:\Users\SOLDER~1\AppData\Local\Temp\ccEQi33f.s:23050  .debug_str:000000000000c2ab .LASF5236
C:\Users\SOLDER~1\AppData\Local\Temp\ccEQi33f.s:29090  .debug_str:0000000000024b7e .LASF5237
C:\Users\SOLDER~1\AppData\Local\Temp\ccEQi33f.s:26340  .debug_str:00000000000198a6 .LASF5238
C:\Users\SOLDER~1\AppData\Local\Temp\ccEQi33f.s:23584  .debug_str:000000000000e631 .LASF5239
C:\Users\SOLDER~1\AppData\Local\Temp\ccEQi33f.s:31410  .debug_str:000000000002e2c1 .LASF5240
C:\Users\SOLDER~1\AppData\Local\Temp\ccEQi33f.s:24284  .debug_str:000000000001133d .LASF5241
C:\Users\SOLDER~1\AppData\Local\Temp\ccEQi33f.s:27146  .debug_str:000000000001cd32 .LASF5242
C:\Users\SOLDER~1\AppData\Local\Temp\ccEQi33f.s:25872  .debug_str:0000000000017a80 .LASF5243
C:\Users\SOLDER~1\AppData\Local\Temp\ccEQi33f.s:21962  .debug_str:0000000000007ba2 .LASF5244
C:\Users\SOLDER~1\AppData\Local\Temp\ccEQi33f.s:31378  .debug_str:000000000002e0b7 .LASF5245
C:\Users\SOLDER~1\AppData\Local\Temp\ccEQi33f.s:27488  .debug_str:000000000001e339 .LASF5246
C:\Users\SOLDER~1\AppData\Local\Temp\ccEQi33f.s:20344  .debug_str:0000000000001370 .LASF5247
C:\Users\SOLDER~1\AppData\Local\Temp\ccEQi33f.s:25376  .debug_str:0000000000015b23 .LASF5248
C:\Users\SOLDER~1\AppData\Local\Temp\ccEQi33f.s:29598  .debug_str:0000000000026d2a .LASF5249
C:\Users\SOLDER~1\AppData\Local\Temp\ccEQi33f.s:24484  .debug_str:0000000000012012 .LASF5250
C:\Users\SOLDER~1\AppData\Local\Temp\ccEQi33f.s:29828  .debug_str:0000000000027c52 .LASF5251
C:\Users\SOLDER~1\AppData\Local\Temp\ccEQi33f.s:20436  .debug_str:000000000000193e .LASF5252
C:\Users\SOLDER~1\AppData\Local\Temp\ccEQi33f.s:28492  .debug_str:00000000000223f2 .LASF5253
C:\Users\SOLDER~1\AppData\Local\Temp\ccEQi33f.s:26458  .debug_str:000000000001a03e .LASF5254
C:\Users\SOLDER~1\AppData\Local\Temp\ccEQi33f.s:25396  .debug_str:0000000000015c64 .LASF5255
C:\Users\SOLDER~1\AppData\Local\Temp\ccEQi33f.s:22684  .debug_str:000000000000ab2b .LASF5256
C:\Users\SOLDER~1\AppData\Local\Temp\ccEQi33f.s:20188  .debug_str:000000000000094e .LASF5257
C:\Users\SOLDER~1\AppData\Local\Temp\ccEQi33f.s:27594  .debug_str:000000000001ea41 .LASF5258
C:\Users\SOLDER~1\AppData\Local\Temp\ccEQi33f.s:30372  .debug_str:0000000000029fa6 .LASF5259
C:\Users\SOLDER~1\AppData\Local\Temp\ccEQi33f.s:25820  .debug_str:0000000000017753 .LASF5260
GAS LISTING C:\Users\SOLDER~1\AppData\Local\Temp\ccEQi33f.s 			page 135


C:\Users\SOLDER~1\AppData\Local\Temp\ccEQi33f.s:24000  .debug_str:0000000000010153 .LASF5261
C:\Users\SOLDER~1\AppData\Local\Temp\ccEQi33f.s:20756  .debug_str:0000000000002e2c .LASF5262
C:\Users\SOLDER~1\AppData\Local\Temp\ccEQi33f.s:21894  .debug_str:000000000000772b .LASF5263
C:\Users\SOLDER~1\AppData\Local\Temp\ccEQi33f.s:27372  .debug_str:000000000001dbae .LASF5264
C:\Users\SOLDER~1\AppData\Local\Temp\ccEQi33f.s:21996  .debug_str:0000000000007de6 .LASF5265
C:\Users\SOLDER~1\AppData\Local\Temp\ccEQi33f.s:27040  .debug_str:000000000001c5ef .LASF5266
C:\Users\SOLDER~1\AppData\Local\Temp\ccEQi33f.s:20828  .debug_str:00000000000032d7 .LASF5267
C:\Users\SOLDER~1\AppData\Local\Temp\ccEQi33f.s:21436  .debug_str:0000000000005946 .LASF5268
C:\Users\SOLDER~1\AppData\Local\Temp\ccEQi33f.s:27024  .debug_str:000000000001c4b8 .LASF5269
C:\Users\SOLDER~1\AppData\Local\Temp\ccEQi33f.s:20846  .debug_str:0000000000003412 .LASF5270
C:\Users\SOLDER~1\AppData\Local\Temp\ccEQi33f.s:30930  .debug_str:000000000002c407 .LASF5271
C:\Users\SOLDER~1\AppData\Local\Temp\ccEQi33f.s:23728  .debug_str:000000000000ef71 .LASF5272
C:\Users\SOLDER~1\AppData\Local\Temp\ccEQi33f.s:24104  .debug_str:0000000000010807 .LASF5273
C:\Users\SOLDER~1\AppData\Local\Temp\ccEQi33f.s:21030  .debug_str:0000000000003fa1 .LASF5274
C:\Users\SOLDER~1\AppData\Local\Temp\ccEQi33f.s:21408  .debug_str:000000000000573a .LASF5275
C:\Users\SOLDER~1\AppData\Local\Temp\ccEQi33f.s:20268  .debug_str:0000000000000ea1 .LASF5276
C:\Users\SOLDER~1\AppData\Local\Temp\ccEQi33f.s:24832  .debug_str:00000000000136cf .LASF5277
C:\Users\SOLDER~1\AppData\Local\Temp\ccEQi33f.s:28698  .debug_str:00000000000231a1 .LASF5278
C:\Users\SOLDER~1\AppData\Local\Temp\ccEQi33f.s:25764  .debug_str:0000000000017397 .LASF5279
C:\Users\SOLDER~1\AppData\Local\Temp\ccEQi33f.s:25674  .debug_str:0000000000016d94 .LASF5280
C:\Users\SOLDER~1\AppData\Local\Temp\ccEQi33f.s:23662  .debug_str:000000000000eb1f .LASF5281
C:\Users\SOLDER~1\AppData\Local\Temp\ccEQi33f.s:21786  .debug_str:000000000000707f .LASF5282
C:\Users\SOLDER~1\AppData\Local\Temp\ccEQi33f.s:22040  .debug_str:0000000000008101 .LASF5283
C:\Users\SOLDER~1\AppData\Local\Temp\ccEQi33f.s:30156  .debug_str:0000000000029189 .LASF5284
C:\Users\SOLDER~1\AppData\Local\Temp\ccEQi33f.s:25570  .debug_str:0000000000016738 .LASF5285
C:\Users\SOLDER~1\AppData\Local\Temp\ccEQi33f.s:23134  .debug_str:000000000000c88d .LASF5286
C:\Users\SOLDER~1\AppData\Local\Temp\ccEQi33f.s:28840  .debug_str:0000000000023ae1 .LASF5287
C:\Users\SOLDER~1\AppData\Local\Temp\ccEQi33f.s:26958  .debug_str:000000000001c027 .LASF5288
C:\Users\SOLDER~1\AppData\Local\Temp\ccEQi33f.s:27162  .debug_str:000000000001ce32 .LASF5289
C:\Users\SOLDER~1\AppData\Local\Temp\ccEQi33f.s:24248  .debug_str:0000000000011126 .LASF5290
C:\Users\SOLDER~1\AppData\Local\Temp\ccEQi33f.s:22812  .debug_str:000000000000b352 .LASF5291
C:\Users\SOLDER~1\AppData\Local\Temp\ccEQi33f.s:27466  .debug_str:000000000001e1d9 .LASF5292
C:\Users\SOLDER~1\AppData\Local\Temp\ccEQi33f.s:27828  .debug_str:000000000001f98e .LASF5293
C:\Users\SOLDER~1\AppData\Local\Temp\ccEQi33f.s:22440  .debug_str:0000000000009af3 .LASF5294
C:\Users\SOLDER~1\AppData\Local\Temp\ccEQi33f.s:30628  .debug_str:000000000002b04e .LASF5295
C:\Users\SOLDER~1\AppData\Local\Temp\ccEQi33f.s:29420  .debug_str:0000000000026154 .LASF5296
C:\Users\SOLDER~1\AppData\Local\Temp\ccEQi33f.s:20526  .debug_str:0000000000001f4a .LASF5297
C:\Users\SOLDER~1\AppData\Local\Temp\ccEQi33f.s:24752  .debug_str:000000000001317c .LASF5298
C:\Users\SOLDER~1\AppData\Local\Temp\ccEQi33f.s:21092  .debug_str:0000000000004382 .LASF5299
C:\Users\SOLDER~1\AppData\Local\Temp\ccEQi33f.s:24806  .debug_str:0000000000013512 .LASF5300
C:\Users\SOLDER~1\AppData\Local\Temp\ccEQi33f.s:22558  .debug_str:000000000000a2b2 .LASF5301
C:\Users\SOLDER~1\AppData\Local\Temp\ccEQi33f.s:28498  .debug_str:0000000000022464 .LASF5302
C:\Users\SOLDER~1\AppData\Local\Temp\ccEQi33f.s:25438  .debug_str:0000000000015f00 .LASF5303
C:\Users\SOLDER~1\AppData\Local\Temp\ccEQi33f.s:30286  .debug_str:00000000000299ca .LASF5304
C:\Users\SOLDER~1\AppData\Local\Temp\ccEQi33f.s:26132  .debug_str:0000000000018b85 .LASF5305
C:\Users\SOLDER~1\AppData\Local\Temp\ccEQi33f.s:29732  .debug_str:0000000000027617 .LASF5306
C:\Users\SOLDER~1\AppData\Local\Temp\ccEQi33f.s:27572  .debug_str:000000000001e8c8 .LASF5307
C:\Users\SOLDER~1\AppData\Local\Temp\ccEQi33f.s:24602  .debug_str:000000000001276a .LASF5308
C:\Users\SOLDER~1\AppData\Local\Temp\ccEQi33f.s:25758  .debug_str:000000000001732a .LASF5309
C:\Users\SOLDER~1\AppData\Local\Temp\ccEQi33f.s:27228  .debug_str:000000000001d2b6 .LASF5310
C:\Users\SOLDER~1\AppData\Local\Temp\ccEQi33f.s:20434  .debug_str:0000000000001913 .LASF5311
C:\Users\SOLDER~1\AppData\Local\Temp\ccEQi33f.s:28758  .debug_str:00000000000235c3 .LASF5312
C:\Users\SOLDER~1\AppData\Local\Temp\ccEQi33f.s:24044  .debug_str:000000000001044c .LASF5313
C:\Users\SOLDER~1\AppData\Local\Temp\ccEQi33f.s:21768  .debug_str:0000000000006f51 .LASF5314
C:\Users\SOLDER~1\AppData\Local\Temp\ccEQi33f.s:21322  .debug_str:00000000000051e0 .LASF5315
C:\Users\SOLDER~1\AppData\Local\Temp\ccEQi33f.s:24158  .debug_str:0000000000010b6a .LASF5316
C:\Users\SOLDER~1\AppData\Local\Temp\ccEQi33f.s:22288  .debug_str:000000000000912c .LASF5317
GAS LISTING C:\Users\SOLDER~1\AppData\Local\Temp\ccEQi33f.s 			page 136


C:\Users\SOLDER~1\AppData\Local\Temp\ccEQi33f.s:29126  .debug_str:0000000000024dc5 .LASF5318
C:\Users\SOLDER~1\AppData\Local\Temp\ccEQi33f.s:30162  .debug_str:00000000000291f7 .LASF5319
C:\Users\SOLDER~1\AppData\Local\Temp\ccEQi33f.s:21440  .debug_str:000000000000598c .LASF5320
C:\Users\SOLDER~1\AppData\Local\Temp\ccEQi33f.s:25432  .debug_str:0000000000015e9e .LASF5321
C:\Users\SOLDER~1\AppData\Local\Temp\ccEQi33f.s:23032  .debug_str:000000000000c16d .LASF5322
C:\Users\SOLDER~1\AppData\Local\Temp\ccEQi33f.s:21942  .debug_str:0000000000007a38 .LASF5323
C:\Users\SOLDER~1\AppData\Local\Temp\ccEQi33f.s:21822  .debug_str:00000000000072cf .LASF5324
C:\Users\SOLDER~1\AppData\Local\Temp\ccEQi33f.s:28348  .debug_str:0000000000021b3a .LASF5325
C:\Users\SOLDER~1\AppData\Local\Temp\ccEQi33f.s:26378  .debug_str:0000000000019b33 .LASF5326
C:\Users\SOLDER~1\AppData\Local\Temp\ccEQi33f.s:29744  .debug_str:00000000000276d9 .LASF5327
C:\Users\SOLDER~1\AppData\Local\Temp\ccEQi33f.s:31580  .debug_str:000000000002eda7 .LASF5328
C:\Users\SOLDER~1\AppData\Local\Temp\ccEQi33f.s:28558  .debug_str:0000000000022862 .LASF5329
C:\Users\SOLDER~1\AppData\Local\Temp\ccEQi33f.s:31054  .debug_str:000000000002cbbc .LASF5330
C:\Users\SOLDER~1\AppData\Local\Temp\ccEQi33f.s:20908  .debug_str:00000000000037f9 .LASF5331
C:\Users\SOLDER~1\AppData\Local\Temp\ccEQi33f.s:30692  .debug_str:000000000002b454 .LASF5332
C:\Users\SOLDER~1\AppData\Local\Temp\ccEQi33f.s:26134  .debug_str:0000000000018bb0 .LASF5333
C:\Users\SOLDER~1\AppData\Local\Temp\ccEQi33f.s:25896  .debug_str:0000000000017c26 .LASF5334
C:\Users\SOLDER~1\AppData\Local\Temp\ccEQi33f.s:20796  .debug_str:00000000000030be .LASF5335
C:\Users\SOLDER~1\AppData\Local\Temp\ccEQi33f.s:23150  .debug_str:000000000000c9c5 .LASF5336
C:\Users\SOLDER~1\AppData\Local\Temp\ccEQi33f.s:30762  .debug_str:000000000002b8da .LASF5337
C:\Users\SOLDER~1\AppData\Local\Temp\ccEQi33f.s:30134  .debug_str:000000000002900d .LASF5338
C:\Users\SOLDER~1\AppData\Local\Temp\ccEQi33f.s:31086  .debug_str:000000000002cdd8 .LASF5339
C:\Users\SOLDER~1\AppData\Local\Temp\ccEQi33f.s:28482  .debug_str:000000000002233b .LASF5340
C:\Users\SOLDER~1\AppData\Local\Temp\ccEQi33f.s:24238  .debug_str:0000000000011078 .LASF5341
C:\Users\SOLDER~1\AppData\Local\Temp\ccEQi33f.s:21430  .debug_str:00000000000058df .LASF5342
C:\Users\SOLDER~1\AppData\Local\Temp\ccEQi33f.s:30720  .debug_str:000000000002b63f .LASF5343
C:\Users\SOLDER~1\AppData\Local\Temp\ccEQi33f.s:25338  .debug_str:00000000000158c4 .LASF5344
C:\Users\SOLDER~1\AppData\Local\Temp\ccEQi33f.s:25036  .debug_str:0000000000014531 .LASF5345
C:\Users\SOLDER~1\AppData\Local\Temp\ccEQi33f.s:29892  .debug_str:00000000000280b1 .LASF5346
C:\Users\SOLDER~1\AppData\Local\Temp\ccEQi33f.s:20858  .debug_str:00000000000034e3 .LASF5347
C:\Users\SOLDER~1\AppData\Local\Temp\ccEQi33f.s:24960  .debug_str:0000000000013fca .LASF5348
C:\Users\SOLDER~1\AppData\Local\Temp\ccEQi33f.s:26474  .debug_str:000000000001a11e .LASF5349
C:\Users\SOLDER~1\AppData\Local\Temp\ccEQi33f.s:20764  .debug_str:0000000000002eb4 .LASF5350
C:\Users\SOLDER~1\AppData\Local\Temp\ccEQi33f.s:22006  .debug_str:0000000000007e9b .LASF5351
C:\Users\SOLDER~1\AppData\Local\Temp\ccEQi33f.s:26452  .debug_str:0000000000019fd7 .LASF5352
C:\Users\SOLDER~1\AppData\Local\Temp\ccEQi33f.s:25484  .debug_str:0000000000016204 .LASF5353
C:\Users\SOLDER~1\AppData\Local\Temp\ccEQi33f.s:29040  .debug_str:000000000002482a .LASF5354
C:\Users\SOLDER~1\AppData\Local\Temp\ccEQi33f.s:24500  .debug_str:0000000000012130 .LASF5355
C:\Users\SOLDER~1\AppData\Local\Temp\ccEQi33f.s:30832  .debug_str:000000000002bd50 .LASF5356
C:\Users\SOLDER~1\AppData\Local\Temp\ccEQi33f.s:25048  .debug_str:000000000001460b .LASF5357
C:\Users\SOLDER~1\AppData\Local\Temp\ccEQi33f.s:23302  .debug_str:000000000000d3d5 .LASF5358
C:\Users\SOLDER~1\AppData\Local\Temp\ccEQi33f.s:30962  .debug_str:000000000002c5fe .LASF5359
C:\Users\SOLDER~1\AppData\Local\Temp\ccEQi33f.s:29288  .debug_str:000000000002581c .LASF5360
C:\Users\SOLDER~1\AppData\Local\Temp\ccEQi33f.s:25134  .debug_str:0000000000014bd2 .LASF5361
C:\Users\SOLDER~1\AppData\Local\Temp\ccEQi33f.s:21212  .debug_str:0000000000004b33 .LASF5362
C:\Users\SOLDER~1\AppData\Local\Temp\ccEQi33f.s:21398  .debug_str:000000000000567b .LASF5363
C:\Users\SOLDER~1\AppData\Local\Temp\ccEQi33f.s:26430  .debug_str:0000000000019e58 .LASF5364
C:\Users\SOLDER~1\AppData\Local\Temp\ccEQi33f.s:28560  .debug_str:0000000000022882 .LASF5365
C:\Users\SOLDER~1\AppData\Local\Temp\ccEQi33f.s:20324  .debug_str:0000000000001235 .LASF5366
C:\Users\SOLDER~1\AppData\Local\Temp\ccEQi33f.s:23870  .debug_str:000000000000f8bf .LASF5367
C:\Users\SOLDER~1\AppData\Local\Temp\ccEQi33f.s:29262  .debug_str:0000000000025649 .LASF5368
C:\Users\SOLDER~1\AppData\Local\Temp\ccEQi33f.s:20116  .debug_str:00000000000003da .LASF5369
C:\Users\SOLDER~1\AppData\Local\Temp\ccEQi33f.s:30562  .debug_str:000000000002ac0d .LASF5370
C:\Users\SOLDER~1\AppData\Local\Temp\ccEQi33f.s:31604  .debug_str:000000000002ef25 .LASF5371
C:\Users\SOLDER~1\AppData\Local\Temp\ccEQi33f.s:26286  .debug_str:0000000000019597 .LASF5372
C:\Users\SOLDER~1\AppData\Local\Temp\ccEQi33f.s:30892  .debug_str:000000000002c192 .LASF5373
C:\Users\SOLDER~1\AppData\Local\Temp\ccEQi33f.s:26264  .debug_str:000000000001941f .LASF5374
GAS LISTING C:\Users\SOLDER~1\AppData\Local\Temp\ccEQi33f.s 			page 137


C:\Users\SOLDER~1\AppData\Local\Temp\ccEQi33f.s:24020  .debug_str:0000000000010297 .LASF5375
C:\Users\SOLDER~1\AppData\Local\Temp\ccEQi33f.s:22450  .debug_str:0000000000009b83 .LASF5376
C:\Users\SOLDER~1\AppData\Local\Temp\ccEQi33f.s:24712  .debug_str:0000000000012ee8 .LASF5377
C:\Users\SOLDER~1\AppData\Local\Temp\ccEQi33f.s:27904  .debug_str:000000000001fe4d .LASF5378
C:\Users\SOLDER~1\AppData\Local\Temp\ccEQi33f.s:31384  .debug_str:000000000002e129 .LASF5379
C:\Users\SOLDER~1\AppData\Local\Temp\ccEQi33f.s:22914  .debug_str:000000000000b996 .LASF5380
C:\Users\SOLDER~1\AppData\Local\Temp\ccEQi33f.s:26626  .debug_str:000000000001ab13 .LASF5381
C:\Users\SOLDER~1\AppData\Local\Temp\ccEQi33f.s:31098  .debug_str:000000000002cead .LASF5382
C:\Users\SOLDER~1\AppData\Local\Temp\ccEQi33f.s:29002  .debug_str:00000000000245bf .LASF5383
C:\Users\SOLDER~1\AppData\Local\Temp\ccEQi33f.s:26550  .debug_str:000000000001a60d .LASF5384
C:\Users\SOLDER~1\AppData\Local\Temp\ccEQi33f.s:27240  .debug_str:000000000001d390 .LASF5385
C:\Users\SOLDER~1\AppData\Local\Temp\ccEQi33f.s:22866  .debug_str:000000000000b6d2 .LASF5386
C:\Users\SOLDER~1\AppData\Local\Temp\ccEQi33f.s:26034  .debug_str:0000000000018527 .LASF5387
C:\Users\SOLDER~1\AppData\Local\Temp\ccEQi33f.s:29762  .debug_str:00000000000277f0 .LASF5388
C:\Users\SOLDER~1\AppData\Local\Temp\ccEQi33f.s:23920  .debug_str:000000000000fc41 .LASF5389
C:\Users\SOLDER~1\AppData\Local\Temp\ccEQi33f.s:26114  .debug_str:0000000000018a5e .LASF5390
C:\Users\SOLDER~1\AppData\Local\Temp\ccEQi33f.s:25106  .debug_str:00000000000149f3 .LASF5391
C:\Users\SOLDER~1\AppData\Local\Temp\ccEQi33f.s:30710  .debug_str:000000000002b58d .LASF5392
C:\Users\SOLDER~1\AppData\Local\Temp\ccEQi33f.s:31174  .debug_str:000000000002d3eb .LASF5393
C:\Users\SOLDER~1\AppData\Local\Temp\ccEQi33f.s:31020  .debug_str:000000000002c99e .LASF5394
C:\Users\SOLDER~1\AppData\Local\Temp\ccEQi33f.s:21538  .debug_str:0000000000005fbf .LASF5395
C:\Users\SOLDER~1\AppData\Local\Temp\ccEQi33f.s:29100  .debug_str:0000000000024c27 .LASF5396
C:\Users\SOLDER~1\AppData\Local\Temp\ccEQi33f.s:22688  .debug_str:000000000000ab79 .LASF5397
C:\Users\SOLDER~1\AppData\Local\Temp\ccEQi33f.s:22634  .debug_str:000000000000a7e0 .LASF5398
C:\Users\SOLDER~1\AppData\Local\Temp\ccEQi33f.s:26294  .debug_str:0000000000019628 .LASF5399
C:\Users\SOLDER~1\AppData\Local\Temp\ccEQi33f.s:29688  .debug_str:000000000002733c .LASF5400
C:\Users\SOLDER~1\AppData\Local\Temp\ccEQi33f.s:23118  .debug_str:000000000000c774 .LASF5401
C:\Users\SOLDER~1\AppData\Local\Temp\ccEQi33f.s:24234  .debug_str:000000000001102f .LASF5402
C:\Users\SOLDER~1\AppData\Local\Temp\ccEQi33f.s:22658  .debug_str:000000000000a97c .LASF5403
C:\Users\SOLDER~1\AppData\Local\Temp\ccEQi33f.s:31050  .debug_str:000000000002cb80 .LASF5404
C:\Users\SOLDER~1\AppData\Local\Temp\ccEQi33f.s:27568  .debug_str:000000000001e87b .LASF5405
C:\Users\SOLDER~1\AppData\Local\Temp\ccEQi33f.s:28604  .debug_str:0000000000022b95 .LASF5406
C:\Users\SOLDER~1\AppData\Local\Temp\ccEQi33f.s:27050  .debug_str:000000000001c692 .LASF5407
C:\Users\SOLDER~1\AppData\Local\Temp\ccEQi33f.s:22198  .debug_str:0000000000008b01 .LASF5408
C:\Users\SOLDER~1\AppData\Local\Temp\ccEQi33f.s:29916  .debug_str:0000000000028204 .LASF5409
C:\Users\SOLDER~1\AppData\Local\Temp\ccEQi33f.s:31308  .debug_str:000000000002dc5c .LASF5410
C:\Users\SOLDER~1\AppData\Local\Temp\ccEQi33f.s:21402  .debug_str:00000000000056c8 .LASF5411
C:\Users\SOLDER~1\AppData\Local\Temp\ccEQi33f.s:25054  .debug_str:0000000000014677 .LASF5412
C:\Users\SOLDER~1\AppData\Local\Temp\ccEQi33f.s:30722  .debug_str:000000000002b660 .LASF5413
C:\Users\SOLDER~1\AppData\Local\Temp\ccEQi33f.s:31120  .debug_str:000000000002d03d .LASF5414
C:\Users\SOLDER~1\AppData\Local\Temp\ccEQi33f.s:24306  .debug_str:00000000000114fe .LASF5415
C:\Users\SOLDER~1\AppData\Local\Temp\ccEQi33f.s:21190  .debug_str:00000000000049de .LASF5416
C:\Users\SOLDER~1\AppData\Local\Temp\ccEQi33f.s:20838  .debug_str:000000000000337a .LASF5417
C:\Users\SOLDER~1\AppData\Local\Temp\ccEQi33f.s:26786  .debug_str:000000000001b534 .LASF5418
C:\Users\SOLDER~1\AppData\Local\Temp\ccEQi33f.s:30050  .debug_str:0000000000028ac2 .LASF5419
C:\Users\SOLDER~1\AppData\Local\Temp\ccEQi33f.s:22628  .debug_str:000000000000a783 .LASF5420
C:\Users\SOLDER~1\AppData\Local\Temp\ccEQi33f.s:23864  .debug_str:000000000000f85d .LASF5421
C:\Users\SOLDER~1\AppData\Local\Temp\ccEQi33f.s:27206  .debug_str:000000000001d136 .LASF5422
C:\Users\SOLDER~1\AppData\Local\Temp\ccEQi33f.s:28064  .debug_str:000000000002088f .LASF5423
C:\Users\SOLDER~1\AppData\Local\Temp\ccEQi33f.s:22494  .debug_str:0000000000009e85 .LASF5424
C:\Users\SOLDER~1\AppData\Local\Temp\ccEQi33f.s:20458  .debug_str:0000000000001ac2 .LASF5425
C:\Users\SOLDER~1\AppData\Local\Temp\ccEQi33f.s:26354  .debug_str:000000000001999b .LASF5426
C:\Users\SOLDER~1\AppData\Local\Temp\ccEQi33f.s:21220  .debug_str:0000000000004bc0 .LASF5427
C:\Users\SOLDER~1\AppData\Local\Temp\ccEQi33f.s:30890  .debug_str:000000000002c16f .LASF5428
C:\Users\SOLDER~1\AppData\Local\Temp\ccEQi33f.s:27948  .debug_str:000000000002011f .LASF5429
C:\Users\SOLDER~1\AppData\Local\Temp\ccEQi33f.s:28430  .debug_str:0000000000022040 .LASF5430
C:\Users\SOLDER~1\AppData\Local\Temp\ccEQi33f.s:25534  .debug_str:0000000000016531 .LASF5431
GAS LISTING C:\Users\SOLDER~1\AppData\Local\Temp\ccEQi33f.s 			page 138


C:\Users\SOLDER~1\AppData\Local\Temp\ccEQi33f.s:24058  .debug_str:0000000000010527 .LASF5432
C:\Users\SOLDER~1\AppData\Local\Temp\ccEQi33f.s:25400  .debug_str:0000000000015cac .LASF5433
C:\Users\SOLDER~1\AppData\Local\Temp\ccEQi33f.s:24382  .debug_str:00000000000119b8 .LASF5434
C:\Users\SOLDER~1\AppData\Local\Temp\ccEQi33f.s:29368  .debug_str:0000000000025d9f .LASF5435
C:\Users\SOLDER~1\AppData\Local\Temp\ccEQi33f.s:23938  .debug_str:000000000000fd78 .LASF5436
C:\Users\SOLDER~1\AppData\Local\Temp\ccEQi33f.s:22820  .debug_str:000000000000b3e4 .LASF5437
C:\Users\SOLDER~1\AppData\Local\Temp\ccEQi33f.s:24710  .debug_str:0000000000012ec3 .LASF5438
C:\Users\SOLDER~1\AppData\Local\Temp\ccEQi33f.s:23770  .debug_str:000000000000f1ff .LASF5439
C:\Users\SOLDER~1\AppData\Local\Temp\ccEQi33f.s:20934  .debug_str:000000000000399c .LASF5440
C:\Users\SOLDER~1\AppData\Local\Temp\ccEQi33f.s:22610  .debug_str:000000000000a651 .LASF5441
C:\Users\SOLDER~1\AppData\Local\Temp\ccEQi33f.s:21098  .debug_str:00000000000043fa .LASF5442
C:\Users\SOLDER~1\AppData\Local\Temp\ccEQi33f.s:22546  .debug_str:000000000000a214 .LASF5443
C:\Users\SOLDER~1\AppData\Local\Temp\ccEQi33f.s:22458  .debug_str:0000000000009c14 .LASF5444
C:\Users\SOLDER~1\AppData\Local\Temp\ccEQi33f.s:30850  .debug_str:000000000002be93 .LASF5445
C:\Users\SOLDER~1\AppData\Local\Temp\ccEQi33f.s:25668  .debug_str:0000000000016d47 .LASF5446
C:\Users\SOLDER~1\AppData\Local\Temp\ccEQi33f.s:26468  .debug_str:000000000001a0c8 .LASF5447
C:\Users\SOLDER~1\AppData\Local\Temp\ccEQi33f.s:25282  .debug_str:0000000000015576 .LASF5448
C:\Users\SOLDER~1\AppData\Local\Temp\ccEQi33f.s:28302  .debug_str:0000000000021821 .LASF5449
C:\Users\SOLDER~1\AppData\Local\Temp\ccEQi33f.s:29418  .debug_str:000000000002612e .LASF5450
C:\Users\SOLDER~1\AppData\Local\Temp\ccEQi33f.s:22900  .debug_str:000000000000b8b0 .LASF5451
C:\Users\SOLDER~1\AppData\Local\Temp\ccEQi33f.s:21760  .debug_str:0000000000006e9d .LASF5452
C:\Users\SOLDER~1\AppData\Local\Temp\ccEQi33f.s:22332  .debug_str:0000000000009412 .LASF5453
C:\Users\SOLDER~1\AppData\Local\Temp\ccEQi33f.s:22908  .debug_str:000000000000b924 .LASF5454
C:\Users\SOLDER~1\AppData\Local\Temp\ccEQi33f.s:23826  .debug_str:000000000000f5a4 .LASF5455
C:\Users\SOLDER~1\AppData\Local\Temp\ccEQi33f.s:26586  .debug_str:000000000001a886 .LASF5456
C:\Users\SOLDER~1\AppData\Local\Temp\ccEQi33f.s:27192  .debug_str:000000000001d00c .LASF5457
C:\Users\SOLDER~1\AppData\Local\Temp\ccEQi33f.s:30976  .debug_str:000000000002c6d9 .LASF5458
C:\Users\SOLDER~1\AppData\Local\Temp\ccEQi33f.s:30510  .debug_str:000000000002a87c .LASF5459
C:\Users\SOLDER~1\AppData\Local\Temp\ccEQi33f.s:27112  .debug_str:000000000001cadd .LASF5460
C:\Users\SOLDER~1\AppData\Local\Temp\ccEQi33f.s:23862  .debug_str:000000000000f831 .LASF5461
C:\Users\SOLDER~1\AppData\Local\Temp\ccEQi33f.s:27238  .debug_str:000000000001d365 .LASF5462
C:\Users\SOLDER~1\AppData\Local\Temp\ccEQi33f.s:23216  .debug_str:000000000000ce30 .LASF5463
C:\Users\SOLDER~1\AppData\Local\Temp\ccEQi33f.s:22456  .debug_str:0000000000009bf1 .LASF5464
C:\Users\SOLDER~1\AppData\Local\Temp\ccEQi33f.s:29244  .debug_str:000000000002551a .LASF5465
C:\Users\SOLDER~1\AppData\Local\Temp\ccEQi33f.s:23944  .debug_str:000000000000fddb .LASF5466
C:\Users\SOLDER~1\AppData\Local\Temp\ccEQi33f.s:31286  .debug_str:000000000002dadc .LASF5467
C:\Users\SOLDER~1\AppData\Local\Temp\ccEQi33f.s:27564  .debug_str:000000000001e830 .LASF5468
C:\Users\SOLDER~1\AppData\Local\Temp\ccEQi33f.s:20198  .debug_str:0000000000000a06 .LASF5469
C:\Users\SOLDER~1\AppData\Local\Temp\ccEQi33f.s:24890  .debug_str:0000000000013b15 .LASF5470
C:\Users\SOLDER~1\AppData\Local\Temp\ccEQi33f.s:30084  .debug_str:0000000000028ceb .LASF5471
C:\Users\SOLDER~1\AppData\Local\Temp\ccEQi33f.s:26616  .debug_str:000000000001aa44 .LASF5472
C:\Users\SOLDER~1\AppData\Local\Temp\ccEQi33f.s:22878  .debug_str:000000000000b778 .LASF5473
C:\Users\SOLDER~1\AppData\Local\Temp\ccEQi33f.s:25704  .debug_str:0000000000016f92 .LASF5474
C:\Users\SOLDER~1\AppData\Local\Temp\ccEQi33f.s:30412  .debug_str:000000000002a287 .LASF5475
C:\Users\SOLDER~1\AppData\Local\Temp\ccEQi33f.s:23596  .debug_str:000000000000e6fc .LASF5476
C:\Users\SOLDER~1\AppData\Local\Temp\ccEQi33f.s:26834  .debug_str:000000000001b800 .LASF5477
C:\Users\SOLDER~1\AppData\Local\Temp\ccEQi33f.s:23350  .debug_str:000000000000d6fa .LASF5478
C:\Users\SOLDER~1\AppData\Local\Temp\ccEQi33f.s:29546  .debug_str:00000000000269eb .LASF5479
C:\Users\SOLDER~1\AppData\Local\Temp\ccEQi33f.s:28892  .debug_str:0000000000023e5d .LASF5480
C:\Users\SOLDER~1\AppData\Local\Temp\ccEQi33f.s:30822  .debug_str:000000000002bc9c .LASF5481
C:\Users\SOLDER~1\AppData\Local\Temp\ccEQi33f.s:23240  .debug_str:000000000000cfb1 .LASF5482
C:\Users\SOLDER~1\AppData\Local\Temp\ccEQi33f.s:28836  .debug_str:0000000000023a9f .LASF5483
C:\Users\SOLDER~1\AppData\Local\Temp\ccEQi33f.s:26044  .debug_str:00000000000185d1 .LASF5484
C:\Users\SOLDER~1\AppData\Local\Temp\ccEQi33f.s:29976  .debug_str:00000000000285c9 .LASF5485
C:\Users\SOLDER~1\AppData\Local\Temp\ccEQi33f.s:26642  .debug_str:000000000001ac5f .LASF5486
C:\Users\SOLDER~1\AppData\Local\Temp\ccEQi33f.s:24024  .debug_str:00000000000102e3 .LASF5487
C:\Users\SOLDER~1\AppData\Local\Temp\ccEQi33f.s:21342  .debug_str:0000000000005323 .LASF5488
GAS LISTING C:\Users\SOLDER~1\AppData\Local\Temp\ccEQi33f.s 			page 139


C:\Users\SOLDER~1\AppData\Local\Temp\ccEQi33f.s:22650  .debug_str:000000000000a8ec .LASF5489
C:\Users\SOLDER~1\AppData\Local\Temp\ccEQi33f.s:25020  .debug_str:00000000000143ff .LASF5490
C:\Users\SOLDER~1\AppData\Local\Temp\ccEQi33f.s:23278  .debug_str:000000000000d23d .LASF5491
C:\Users\SOLDER~1\AppData\Local\Temp\ccEQi33f.s:28216  .debug_str:00000000000212b6 .LASF5492
C:\Users\SOLDER~1\AppData\Local\Temp\ccEQi33f.s:27988  .debug_str:00000000000203bd .LASF5493
C:\Users\SOLDER~1\AppData\Local\Temp\ccEQi33f.s:25102  .debug_str:00000000000149ab .LASF5494
C:\Users\SOLDER~1\AppData\Local\Temp\ccEQi33f.s:24334  .debug_str:000000000001168f .LASF5495
C:\Users\SOLDER~1\AppData\Local\Temp\ccEQi33f.s:28226  .debug_str:0000000000021359 .LASF5496
C:\Users\SOLDER~1\AppData\Local\Temp\ccEQi33f.s:28148  .debug_str:0000000000020e18 .LASF5497
C:\Users\SOLDER~1\AppData\Local\Temp\ccEQi33f.s:21772  .debug_str:0000000000006f8f .LASF5498
C:\Users\SOLDER~1\AppData\Local\Temp\ccEQi33f.s:24012  .debug_str:00000000000101f9 .LASF5499
C:\Users\SOLDER~1\AppData\Local\Temp\ccEQi33f.s:29852  .debug_str:0000000000027def .LASF5500
C:\Users\SOLDER~1\AppData\Local\Temp\ccEQi33f.s:30410  .debug_str:000000000002a265 .LASF5501
C:\Users\SOLDER~1\AppData\Local\Temp\ccEQi33f.s:26912  .debug_str:000000000001bd3e .LASF5502
C:\Users\SOLDER~1\AppData\Local\Temp\ccEQi33f.s:31372  .debug_str:000000000002e05e .LASF5503
C:\Users\SOLDER~1\AppData\Local\Temp\ccEQi33f.s:30858  .debug_str:000000000002bf20 .LASF5504
C:\Users\SOLDER~1\AppData\Local\Temp\ccEQi33f.s:28708  .debug_str:0000000000023247 .LASF5505
C:\Users\SOLDER~1\AppData\Local\Temp\ccEQi33f.s:20416  .debug_str:000000000000182e .LASF5506
C:\Users\SOLDER~1\AppData\Local\Temp\ccEQi33f.s:24788  .debug_str:00000000000133ce .LASF5507
C:\Users\SOLDER~1\AppData\Local\Temp\ccEQi33f.s:24496  .debug_str:00000000000120e7 .LASF5508
C:\Users\SOLDER~1\AppData\Local\Temp\ccEQi33f.s:24028  .debug_str:000000000001032d .LASF5509
C:\Users\SOLDER~1\AppData\Local\Temp\ccEQi33f.s:20544  .debug_str:0000000000002052 .LASF5510
C:\Users\SOLDER~1\AppData\Local\Temp\ccEQi33f.s:20270  .debug_str:0000000000000ed4 .LASF5511
C:\Users\SOLDER~1\AppData\Local\Temp\ccEQi33f.s:27858  .debug_str:000000000001fb85 .LASF5512
C:\Users\SOLDER~1\AppData\Local\Temp\ccEQi33f.s:31126  .debug_str:000000000002d0c2 .LASF5513
C:\Users\SOLDER~1\AppData\Local\Temp\ccEQi33f.s:27622  .debug_str:000000000001ebf6 .LASF5514
C:\Users\SOLDER~1\AppData\Local\Temp\ccEQi33f.s:28970  .debug_str:000000000002438f .LASF5515
C:\Users\SOLDER~1\AppData\Local\Temp\ccEQi33f.s:21788  .debug_str:00000000000070a8 .LASF5516
C:\Users\SOLDER~1\AppData\Local\Temp\ccEQi33f.s:26962  .debug_str:000000000001c08b .LASF5517
C:\Users\SOLDER~1\AppData\Local\Temp\ccEQi33f.s:24654  .debug_str:0000000000012af8 .LASF5518
C:\Users\SOLDER~1\AppData\Local\Temp\ccEQi33f.s:31526  .debug_str:000000000002ea76 .LASF5519
C:\Users\SOLDER~1\AppData\Local\Temp\ccEQi33f.s:23354  .debug_str:000000000000d73f .LASF5520
C:\Users\SOLDER~1\AppData\Local\Temp\ccEQi33f.s:28510  .debug_str:0000000000022536 .LASF5521
C:\Users\SOLDER~1\AppData\Local\Temp\ccEQi33f.s:31430  .debug_str:000000000002e3f7 .LASF5522
C:\Users\SOLDER~1\AppData\Local\Temp\ccEQi33f.s:29500  .debug_str:00000000000266b4 .LASF5523
C:\Users\SOLDER~1\AppData\Local\Temp\ccEQi33f.s:23298  .debug_str:000000000000d388 .LASF5524
C:\Users\SOLDER~1\AppData\Local\Temp\ccEQi33f.s:30330  .debug_str:0000000000029cde .LASF5525
C:\Users\SOLDER~1\AppData\Local\Temp\ccEQi33f.s:30708  .debug_str:000000000002b55c .LASF5526
C:\Users\SOLDER~1\AppData\Local\Temp\ccEQi33f.s:28536  .debug_str:00000000000226e4 .LASF5527
C:\Users\SOLDER~1\AppData\Local\Temp\ccEQi33f.s:29754  .debug_str:000000000002777d .LASF5528
C:\Users\SOLDER~1\AppData\Local\Temp\ccEQi33f.s:25204  .debug_str:0000000000015032 .LASF5529
C:\Users\SOLDER~1\AppData\Local\Temp\ccEQi33f.s:31288  .debug_str:000000000002db00 .LASF5530
C:\Users\SOLDER~1\AppData\Local\Temp\ccEQi33f.s:26030  .debug_str:00000000000184cc .LASF5531
C:\Users\SOLDER~1\AppData\Local\Temp\ccEQi33f.s:25084  .debug_str:0000000000014843 .LASF5532
C:\Users\SOLDER~1\AppData\Local\Temp\ccEQi33f.s:24884  .debug_str:0000000000013aa3 .LASF5533
C:\Users\SOLDER~1\AppData\Local\Temp\ccEQi33f.s:22512  .debug_str:0000000000009fa6 .LASF5534
C:\Users\SOLDER~1\AppData\Local\Temp\ccEQi33f.s:27224  .debug_str:000000000001d26d .LASF5535
C:\Users\SOLDER~1\AppData\Local\Temp\ccEQi33f.s:22644  .debug_str:000000000000a877 .LASF5536
C:\Users\SOLDER~1\AppData\Local\Temp\ccEQi33f.s:29374  .debug_str:0000000000025e03 .LASF5537
C:\Users\SOLDER~1\AppData\Local\Temp\ccEQi33f.s:20768  .debug_str:0000000000002eea .LASF5538
C:\Users\SOLDER~1\AppData\Local\Temp\ccEQi33f.s:21206  .debug_str:0000000000004ac6 .LASF5539
C:\Users\SOLDER~1\AppData\Local\Temp\ccEQi33f.s:22754  .debug_str:000000000000afc0 .LASF5540
C:\Users\SOLDER~1\AppData\Local\Temp\ccEQi33f.s:26240  .debug_str:0000000000019271 .LASF5541
C:\Users\SOLDER~1\AppData\Local\Temp\ccEQi33f.s:23310  .debug_str:000000000000d461 .LASF5542
C:\Users\SOLDER~1\AppData\Local\Temp\ccEQi33f.s:28784  .debug_str:0000000000023777 .LASF5543
C:\Users\SOLDER~1\AppData\Local\Temp\ccEQi33f.s:29920  .debug_str:0000000000028243 .LASF5544
C:\Users\SOLDER~1\AppData\Local\Temp\ccEQi33f.s:22784  .debug_str:000000000000b180 .LASF5545
GAS LISTING C:\Users\SOLDER~1\AppData\Local\Temp\ccEQi33f.s 			page 140


C:\Users\SOLDER~1\AppData\Local\Temp\ccEQi33f.s:27340  .debug_str:000000000001d99a .LASF5546
C:\Users\SOLDER~1\AppData\Local\Temp\ccEQi33f.s:29858  .debug_str:0000000000027e45 .LASF5547
C:\Users\SOLDER~1\AppData\Local\Temp\ccEQi33f.s:27078  .debug_str:000000000001c86a .LASF5548
C:\Users\SOLDER~1\AppData\Local\Temp\ccEQi33f.s:31488  .debug_str:000000000002e7e0 .LASF5549
C:\Users\SOLDER~1\AppData\Local\Temp\ccEQi33f.s:30556  .debug_str:000000000002aba4 .LASF5550
C:\Users\SOLDER~1\AppData\Local\Temp\ccEQi33f.s:30834  .debug_str:000000000002bd6f .LASF5551
C:\Users\SOLDER~1\AppData\Local\Temp\ccEQi33f.s:26292  .debug_str:0000000000019609 .LASF5552
C:\Users\SOLDER~1\AppData\Local\Temp\ccEQi33f.s:21720  .debug_str:0000000000006be4 .LASF5553
C:\Users\SOLDER~1\AppData\Local\Temp\ccEQi33f.s:20288  .debug_str:0000000000000fdf .LASF5554
C:\Users\SOLDER~1\AppData\Local\Temp\ccEQi33f.s:28588  .debug_str:0000000000022a8d .LASF5555
C:\Users\SOLDER~1\AppData\Local\Temp\ccEQi33f.s:20194  .debug_str:00000000000009c0 .LASF5556
C:\Users\SOLDER~1\AppData\Local\Temp\ccEQi33f.s:24914  .debug_str:0000000000013cac .LASF5557
C:\Users\SOLDER~1\AppData\Local\Temp\ccEQi33f.s:24276  .debug_str:00000000000112d2 .LASF5558
C:\Users\SOLDER~1\AppData\Local\Temp\ccEQi33f.s:29042  .debug_str:000000000002484c .LASF5559
C:\Users\SOLDER~1\AppData\Local\Temp\ccEQi33f.s:20308  .debug_str:0000000000001122 .LASF5560
C:\Users\SOLDER~1\AppData\Local\Temp\ccEQi33f.s:25732  .debug_str:000000000001717f .LASF5561
C:\Users\SOLDER~1\AppData\Local\Temp\ccEQi33f.s:24540  .debug_str:000000000001237f .LASF5562
C:\Users\SOLDER~1\AppData\Local\Temp\ccEQi33f.s:21874  .debug_str:0000000000007605 .LASF5563
C:\Users\SOLDER~1\AppData\Local\Temp\ccEQi33f.s:22408  .debug_str:00000000000098ff .LASF5564
C:\Users\SOLDER~1\AppData\Local\Temp\ccEQi33f.s:24630  .debug_str:0000000000012956 .LASF5565
C:\Users\SOLDER~1\AppData\Local\Temp\ccEQi33f.s:26432  .debug_str:0000000000019e7b .LASF5566
C:\Users\SOLDER~1\AppData\Local\Temp\ccEQi33f.s:26288  .debug_str:00000000000195b7 .LASF5567
C:\Users\SOLDER~1\AppData\Local\Temp\ccEQi33f.s:26548  .debug_str:000000000001a5e6 .LASF5568
C:\Users\SOLDER~1\AppData\Local\Temp\ccEQi33f.s:27742  .debug_str:000000000001f419 .LASF5569
C:\Users\SOLDER~1\AppData\Local\Temp\ccEQi33f.s:24516  .debug_str:0000000000012218 .LASF5570
C:\Users\SOLDER~1\AppData\Local\Temp\ccEQi33f.s:30604  .debug_str:000000000002ae78 .LASF5571
C:\Users\SOLDER~1\AppData\Local\Temp\ccEQi33f.s:20060  .debug_str:000000000000006c .LASF5572
C:\Users\SOLDER~1\AppData\Local\Temp\ccEQi33f.s:28206  .debug_str:0000000000021214 .LASF5573
C:\Users\SOLDER~1\AppData\Local\Temp\ccEQi33f.s:23924  .debug_str:000000000000fc87 .LASF5574
C:\Users\SOLDER~1\AppData\Local\Temp\ccEQi33f.s:22646  .debug_str:000000000000a8a9 .LASF5575
C:\Users\SOLDER~1\AppData\Local\Temp\ccEQi33f.s:26138  .debug_str:0000000000018bf2 .LASF5576
C:\Users\SOLDER~1\AppData\Local\Temp\ccEQi33f.s:21500  .debug_str:0000000000005d65 .LASF5577
C:\Users\SOLDER~1\AppData\Local\Temp\ccEQi33f.s:21904  .debug_str:00000000000077b0 .LASF5578
C:\Users\SOLDER~1\AppData\Local\Temp\ccEQi33f.s:22560  .debug_str:000000000000a2dd .LASF5579
C:\Users\SOLDER~1\AppData\Local\Temp\ccEQi33f.s:28660  .debug_str:0000000000022f17 .LASF5580
C:\Users\SOLDER~1\AppData\Local\Temp\ccEQi33f.s:27330  .debug_str:000000000001d8ea .LASF5581
C:\Users\SOLDER~1\AppData\Local\Temp\ccEQi33f.s:20160  .debug_str:0000000000000746 .LASF5582
C:\Users\SOLDER~1\AppData\Local\Temp\ccEQi33f.s:24146  .debug_str:0000000000010ab3 .LASF5583
C:\Users\SOLDER~1\AppData\Local\Temp\ccEQi33f.s:31148  .debug_str:000000000002d235 .LASF5584
C:\Users\SOLDER~1\AppData\Local\Temp\ccEQi33f.s:21262  .debug_str:0000000000004e4c .LASF5585
C:\Users\SOLDER~1\AppData\Local\Temp\ccEQi33f.s:28870  .debug_str:0000000000023cdf .LASF5586
C:\Users\SOLDER~1\AppData\Local\Temp\ccEQi33f.s:29810  .debug_str:0000000000027af0 .LASF5587
C:\Users\SOLDER~1\AppData\Local\Temp\ccEQi33f.s:28388  .debug_str:0000000000021d9b .LASF5588
C:\Users\SOLDER~1\AppData\Local\Temp\ccEQi33f.s:28338  .debug_str:0000000000021a89 .LASF5589
C:\Users\SOLDER~1\AppData\Local\Temp\ccEQi33f.s:27944  .debug_str:00000000000200e1 .LASF5590
C:\Users\SOLDER~1\AppData\Local\Temp\ccEQi33f.s:20494  .debug_str:0000000000001d3f .LASF5591
C:\Users\SOLDER~1\AppData\Local\Temp\ccEQi33f.s:30082  .debug_str:0000000000028cc2 .LASF5592
C:\Users\SOLDER~1\AppData\Local\Temp\ccEQi33f.s:27200  .debug_str:000000000001d0b9 .LASF5593
C:\Users\SOLDER~1\AppData\Local\Temp\ccEQi33f.s:31094  .debug_str:000000000002ce5e .LASF5594
C:\Users\SOLDER~1\AppData\Local\Temp\ccEQi33f.s:21726  .debug_str:0000000000006c31 .LASF5595
C:\Users\SOLDER~1\AppData\Local\Temp\ccEQi33f.s:23030  .debug_str:000000000000c146 .LASF5596
C:\Users\SOLDER~1\AppData\Local\Temp\ccEQi33f.s:30326  .debug_str:0000000000029c91 .LASF5597
C:\Users\SOLDER~1\AppData\Local\Temp\ccEQi33f.s:26142  .debug_str:0000000000018c2d .LASF5598
C:\Users\SOLDER~1\AppData\Local\Temp\ccEQi33f.s:28984  .debug_str:000000000002446d .LASF5599
C:\Users\SOLDER~1\AppData\Local\Temp\ccEQi33f.s:27382  .debug_str:000000000001dc5d .LASF5600
C:\Users\SOLDER~1\AppData\Local\Temp\ccEQi33f.s:25678  .debug_str:0000000000016dd3 .LASF5601
C:\Users\SOLDER~1\AppData\Local\Temp\ccEQi33f.s:21386  .debug_str:00000000000055ca .LASF5602
GAS LISTING C:\Users\SOLDER~1\AppData\Local\Temp\ccEQi33f.s 			page 141


C:\Users\SOLDER~1\AppData\Local\Temp\ccEQi33f.s:25540  .debug_str:0000000000016585 .LASF5603
C:\Users\SOLDER~1\AppData\Local\Temp\ccEQi33f.s:29494  .debug_str:000000000002664b .LASF5604
C:\Users\SOLDER~1\AppData\Local\Temp\ccEQi33f.s:24304  .debug_str:00000000000114de .LASF5605
C:\Users\SOLDER~1\AppData\Local\Temp\ccEQi33f.s:26690  .debug_str:000000000001af53 .LASF5606
C:\Users\SOLDER~1\AppData\Local\Temp\ccEQi33f.s:20152  .debug_str:00000000000006cb .LASF5607
C:\Users\SOLDER~1\AppData\Local\Temp\ccEQi33f.s:22680  .debug_str:000000000000aaf8 .LASF5608
C:\Users\SOLDER~1\AppData\Local\Temp\ccEQi33f.s:27444  .debug_str:000000000001e080 .LASF5609
C:\Users\SOLDER~1\AppData\Local\Temp\ccEQi33f.s:24606  .debug_str:00000000000127ba .LASF5610
C:\Users\SOLDER~1\AppData\Local\Temp\ccEQi33f.s:24864  .debug_str:000000000001390c .LASF5611
C:\Users\SOLDER~1\AppData\Local\Temp\ccEQi33f.s:23064  .debug_str:000000000000c3b4 .LASF5612
C:\Users\SOLDER~1\AppData\Local\Temp\ccEQi33f.s:28150  .debug_str:0000000000020e36 .LASF5613
C:\Users\SOLDER~1\AppData\Local\Temp\ccEQi33f.s:25766  .debug_str:00000000000173c1 .LASF5614
C:\Users\SOLDER~1\AppData\Local\Temp\ccEQi33f.s:29998  .debug_str:0000000000028770 .LASF5615
C:\Users\SOLDER~1\AppData\Local\Temp\ccEQi33f.s:25772  .debug_str:000000000001742f .LASF5616
C:\Users\SOLDER~1\AppData\Local\Temp\ccEQi33f.s:31318  .debug_str:000000000002dd09 .LASF5617
C:\Users\SOLDER~1\AppData\Local\Temp\ccEQi33f.s:25546  .debug_str:00000000000165c9 .LASF5618
C:\Users\SOLDER~1\AppData\Local\Temp\ccEQi33f.s:27140  .debug_str:000000000001ccb4 .LASF5619
C:\Users\SOLDER~1\AppData\Local\Temp\ccEQi33f.s:28734  .debug_str:0000000000023440 .LASF5620
C:\Users\SOLDER~1\AppData\Local\Temp\ccEQi33f.s:24182  .debug_str:0000000000010cd2 .LASF5621
C:\Users\SOLDER~1\AppData\Local\Temp\ccEQi33f.s:26040  .debug_str:000000000001857f .LASF5622
C:\Users\SOLDER~1\AppData\Local\Temp\ccEQi33f.s:22126  .debug_str:0000000000008645 .LASF5623
C:\Users\SOLDER~1\AppData\Local\Temp\ccEQi33f.s:24844  .debug_str:0000000000013781 .LASF5624
C:\Users\SOLDER~1\AppData\Local\Temp\ccEQi33f.s:28306  .debug_str:000000000002185a .LASF5625
C:\Users\SOLDER~1\AppData\Local\Temp\ccEQi33f.s:30622  .debug_str:000000000002afca .LASF5626
C:\Users\SOLDER~1\AppData\Local\Temp\ccEQi33f.s:22598  .debug_str:000000000000a563 .LASF5627
C:\Users\SOLDER~1\AppData\Local\Temp\ccEQi33f.s:28174  .debug_str:0000000000020fcd .LASF5628
C:\Users\SOLDER~1\AppData\Local\Temp\ccEQi33f.s:24674  .debug_str:0000000000012c6d .LASF5629
C:\Users\SOLDER~1\AppData\Local\Temp\ccEQi33f.s:28998  .debug_str:0000000000024569 .LASF5630
C:\Users\SOLDER~1\AppData\Local\Temp\ccEQi33f.s:25158  .debug_str:0000000000014d78 .LASF5631
C:\Users\SOLDER~1\AppData\Local\Temp\ccEQi33f.s:21082  .debug_str:00000000000042eb .LASF5632
C:\Users\SOLDER~1\AppData\Local\Temp\ccEQi33f.s:31528  .debug_str:000000000002ea9a .LASF5633
C:\Users\SOLDER~1\AppData\Local\Temp\ccEQi33f.s:30886  .debug_str:000000000002c136 .LASF5634
C:\Users\SOLDER~1\AppData\Local\Temp\ccEQi33f.s:30178  .debug_str:00000000000292fd .LASF5635
C:\Users\SOLDER~1\AppData\Local\Temp\ccEQi33f.s:21738  .debug_str:0000000000006d0a .LASF5636
C:\Users\SOLDER~1\AppData\Local\Temp\ccEQi33f.s:25156  .debug_str:0000000000014d52 .LASF5637
C:\Users\SOLDER~1\AppData\Local\Temp\ccEQi33f.s:21734  .debug_str:0000000000006ccd .LASF5638
C:\Users\SOLDER~1\AppData\Local\Temp\ccEQi33f.s:28682  .debug_str:00000000000230a1 .LASF5639
C:\Users\SOLDER~1\AppData\Local\Temp\ccEQi33f.s:30702  .debug_str:000000000002b4fd .LASF5640
C:\Users\SOLDER~1\AppData\Local\Temp\ccEQi33f.s:20854  .debug_str:000000000000349c .LASF5641
C:\Users\SOLDER~1\AppData\Local\Temp\ccEQi33f.s:30686  .debug_str:000000000002b3ef .LASF5642
C:\Users\SOLDER~1\AppData\Local\Temp\ccEQi33f.s:27508  .debug_str:000000000001e467 .LASF5643
C:\Users\SOLDER~1\AppData\Local\Temp\ccEQi33f.s:24030  .debug_str:0000000000010352 .LASF5644
C:\Users\SOLDER~1\AppData\Local\Temp\ccEQi33f.s:21698  .debug_str:0000000000006a76 .LASF5645
C:\Users\SOLDER~1\AppData\Local\Temp\ccEQi33f.s:21406  .debug_str:0000000000005705 .LASF5646
C:\Users\SOLDER~1\AppData\Local\Temp\ccEQi33f.s:20636  .debug_str:000000000000266a .LASF5647
C:\Users\SOLDER~1\AppData\Local\Temp\ccEQi33f.s:20856  .debug_str:00000000000034bd .LASF5648
C:\Users\SOLDER~1\AppData\Local\Temp\ccEQi33f.s:28832  .debug_str:0000000000023a66 .LASF5649
C:\Users\SOLDER~1\AppData\Local\Temp\ccEQi33f.s:22308  .debug_str:0000000000009250 .LASF5650
C:\Users\SOLDER~1\AppData\Local\Temp\ccEQi33f.s:21410  .debug_str:0000000000005766 .LASF5651
C:\Users\SOLDER~1\AppData\Local\Temp\ccEQi33f.s:29350  .debug_str:0000000000025c72 .LASF5652
C:\Users\SOLDER~1\AppData\Local\Temp\ccEQi33f.s:23200  .debug_str:000000000000cd16 .LASF5653
C:\Users\SOLDER~1\AppData\Local\Temp\ccEQi33f.s:21782  .debug_str:000000000000703a .LASF5654
C:\Users\SOLDER~1\AppData\Local\Temp\ccEQi33f.s:31612  .debug_str:000000000002efa8 .LASF5655
C:\Users\SOLDER~1\AppData\Local\Temp\ccEQi33f.s:22110  .debug_str:0000000000008558 .LASF5656
C:\Users\SOLDER~1\AppData\Local\Temp\ccEQi33f.s:21796  .debug_str:0000000000007128 .LASF5657
C:\Users\SOLDER~1\AppData\Local\Temp\ccEQi33f.s:25456  .debug_str:000000000001604c .LASF5658
C:\Users\SOLDER~1\AppData\Local\Temp\ccEQi33f.s:31428  .debug_str:000000000002e3d4 .LASF5659
GAS LISTING C:\Users\SOLDER~1\AppData\Local\Temp\ccEQi33f.s 			page 142


C:\Users\SOLDER~1\AppData\Local\Temp\ccEQi33f.s:20492  .debug_str:0000000000001d1e .LASF5660
C:\Users\SOLDER~1\AppData\Local\Temp\ccEQi33f.s:25278  .debug_str:000000000001552d .LASF5661
C:\Users\SOLDER~1\AppData\Local\Temp\ccEQi33f.s:31220  .debug_str:000000000002d6a8 .LASF5662
C:\Users\SOLDER~1\AppData\Local\Temp\ccEQi33f.s:27690  .debug_str:000000000001f088 .LASF5663
C:\Users\SOLDER~1\AppData\Local\Temp\ccEQi33f.s:24208  .debug_str:0000000000010e8e .LASF5664
C:\Users\SOLDER~1\AppData\Local\Temp\ccEQi33f.s:28854  .debug_str:0000000000023bd1 .LASF5665
C:\Users\SOLDER~1\AppData\Local\Temp\ccEQi33f.s:28370  .debug_str:0000000000021c9c .LASF5666
C:\Users\SOLDER~1\AppData\Local\Temp\ccEQi33f.s:20870  .debug_str:0000000000003591 .LASF5667
C:\Users\SOLDER~1\AppData\Local\Temp\ccEQi33f.s:26730  .debug_str:000000000001b18e .LASF5668
C:\Users\SOLDER~1\AppData\Local\Temp\ccEQi33f.s:25208  .debug_str:0000000000015088 .LASF5669
C:\Users\SOLDER~1\AppData\Local\Temp\ccEQi33f.s:27180  .debug_str:000000000001cf39 .LASF5670
C:\Users\SOLDER~1\AppData\Local\Temp\ccEQi33f.s:30846  .debug_str:000000000002be41 .LASF5671
C:\Users\SOLDER~1\AppData\Local\Temp\ccEQi33f.s:29202  .debug_str:0000000000025281 .LASF5672
C:\Users\SOLDER~1\AppData\Local\Temp\ccEQi33f.s:26632  .debug_str:000000000001ab76 .LASF5673
C:\Users\SOLDER~1\AppData\Local\Temp\ccEQi33f.s:26624  .debug_str:000000000001aae8 .LASF5674
C:\Users\SOLDER~1\AppData\Local\Temp\ccEQi33f.s:26968  .debug_str:000000000001c0f1 .LASF5675
C:\Users\SOLDER~1\AppData\Local\Temp\ccEQi33f.s:25144  .debug_str:0000000000014c8b .LASF5676
C:\Users\SOLDER~1\AppData\Local\Temp\ccEQi33f.s:24578  .debug_str:0000000000012621 .LASF5677
C:\Users\SOLDER~1\AppData\Local\Temp\ccEQi33f.s:26630  .debug_str:000000000001ab54 .LASF5678
C:\Users\SOLDER~1\AppData\Local\Temp\ccEQi33f.s:25958  .debug_str:0000000000018064 .LASF5679
C:\Users\SOLDER~1\AppData\Local\Temp\ccEQi33f.s:31340  .debug_str:000000000002de7f .LASF5680
C:\Users\SOLDER~1\AppData\Local\Temp\ccEQi33f.s:23998  .debug_str:0000000000010130 .LASF5681
C:\Users\SOLDER~1\AppData\Local\Temp\ccEQi33f.s:30690  .debug_str:000000000002b432 .LASF5682
C:\Users\SOLDER~1\AppData\Local\Temp\ccEQi33f.s:27384  .debug_str:000000000001dc8c .LASF5683
C:\Users\SOLDER~1\AppData\Local\Temp\ccEQi33f.s:24396  .debug_str:0000000000011a98 .LASF5684
C:\Users\SOLDER~1\AppData\Local\Temp\ccEQi33f.s:21952  .debug_str:0000000000007af7 .LASF5685
C:\Users\SOLDER~1\AppData\Local\Temp\ccEQi33f.s:20312  .debug_str:0000000000001174 .LASF5686
C:\Users\SOLDER~1\AppData\Local\Temp\ccEQi33f.s:28896  .debug_str:0000000000023eaa .LASF5687
C:\Users\SOLDER~1\AppData\Local\Temp\ccEQi33f.s:24548  .debug_str:0000000000012415 .LASF5688
C:\Users\SOLDER~1\AppData\Local\Temp\ccEQi33f.s:22218  .debug_str:0000000000008c3a .LASF5689
C:\Users\SOLDER~1\AppData\Local\Temp\ccEQi33f.s:21444  .debug_str:00000000000059ca .LASF5690
C:\Users\SOLDER~1\AppData\Local\Temp\ccEQi33f.s:30918  .debug_str:000000000002c33d .LASF5691
C:\Users\SOLDER~1\AppData\Local\Temp\ccEQi33f.s:22994  .debug_str:000000000000bed4 .LASF5692
C:\Users\SOLDER~1\AppData\Local\Temp\ccEQi33f.s:23186  .debug_str:000000000000cc2a .LASF5693
C:\Users\SOLDER~1\AppData\Local\Temp\ccEQi33f.s:27300  .debug_str:000000000001d739 .LASF5694
C:\Users\SOLDER~1\AppData\Local\Temp\ccEQi33f.s:26704  .debug_str:000000000001aff5 .LASF5695
C:\Users\SOLDER~1\AppData\Local\Temp\ccEQi33f.s:26176  .debug_str:0000000000018e89 .LASF5696
C:\Users\SOLDER~1\AppData\Local\Temp\ccEQi33f.s:26790  .debug_str:000000000001b57c .LASF5697
C:\Users\SOLDER~1\AppData\Local\Temp\ccEQi33f.s:28046  .debug_str:000000000002076b .LASF5698
C:\Users\SOLDER~1\AppData\Local\Temp\ccEQi33f.s:26858  .debug_str:000000000001b9b1 .LASF5699
C:\Users\SOLDER~1\AppData\Local\Temp\ccEQi33f.s:25684  .debug_str:0000000000016e3e .LASF5700
C:\Users\SOLDER~1\AppData\Local\Temp\ccEQi33f.s:29278  .debug_str:0000000000025760 .LASF5701
C:\Users\SOLDER~1\AppData\Local\Temp\ccEQi33f.s:20404  .debug_str:0000000000001767 .LASF5702
C:\Users\SOLDER~1\AppData\Local\Temp\ccEQi33f.s:24350  .debug_str:00000000000117af .LASF5703
C:\Users\SOLDER~1\AppData\Local\Temp\ccEQi33f.s:24358  .debug_str:0000000000011834 .LASF5704
C:\Users\SOLDER~1\AppData\Local\Temp\ccEQi33f.s:22674  .debug_str:000000000000aaa8 .LASF5705
C:\Users\SOLDER~1\AppData\Local\Temp\ccEQi33f.s:23046  .debug_str:000000000000c258 .LASF5706
C:\Users\SOLDER~1\AppData\Local\Temp\ccEQi33f.s:22184  .debug_str:0000000000008a10 .LASF5707
C:\Users\SOLDER~1\AppData\Local\Temp\ccEQi33f.s:22062  .debug_str:000000000000825a .LASF5708
C:\Users\SOLDER~1\AppData\Local\Temp\ccEQi33f.s:24896  .debug_str:0000000000013b8b .LASF5709
C:\Users\SOLDER~1\AppData\Local\Temp\ccEQi33f.s:23304  .debug_str:000000000000d3f5 .LASF5710
C:\Users\SOLDER~1\AppData\Local\Temp\ccEQi33f.s:28084  .debug_str:00000000000209df .LASF5711
                           .group:0000000000000000 wm4.0.cc27e0d2094b492664a2491ca1ae43b0
                           .group:0000000000000000 wm4.ch32v20x.h.13.a030255a3e90e7179ae3b08da8e2408d
                           .group:0000000000000000 wm4._newlib_version.h.4.529115dae5e4f67702b1de0b6e841f38
                           .group:0000000000000000 wm4.features.h.33.3e67abe6fb64142d4f6fa9496796153c
                           .group:0000000000000000 wm4._default_types.h.15.247e5cd201eca3442cbf5404108c4935
GAS LISTING C:\Users\SOLDER~1\AppData\Local\Temp\ccEQi33f.s 			page 143


                           .group:0000000000000000 wm4._intsup.h.10.48bafbb683905c4daa4565a85aeeb264
                           .group:0000000000000000 wm4._stdint.h.10.c24fa3af3bc1706662bb5593a907e841
                           .group:0000000000000000 wm4.stdint.h.23.d53047a68f4a85177f80b422d52785ed
                           .group:0000000000000000 wm4.core_riscv.h.11.151d7acb41e203dcc664023294f59bdc
                           .group:0000000000000000 wm4.ch32v20x.h.153.1d8393f26361703471ea96fe9aa4b4f9
                           .group:0000000000000000 wm4.ch32v20x_adc.h.56.f131972e7ce35efbe3b5c47a075d6d1b
                           .group:0000000000000000 wm4.ch32v20x_bkp.h.14.0a7965eb5be5000a494c3059b6f0eca5
                           .group:0000000000000000 wm4.ch32v20x_can.h.14.aa1dae2c28cbaf083875b4b61810c3c7
                           .group:0000000000000000 wm4.ch32v20x_dbgmcu.h.14.26ef95879978d9caaa154b373f3a512b
                           .group:0000000000000000 wm4.ch32v20x_dma.h.14.425a907348dd0134bf6e82c73bbd3df8
                           .group:0000000000000000 wm4.ch32v20x_exti.h.14.f67190d3fb91aa9aecce0f4d5a543221
                           .group:0000000000000000 wm4.ch32v20x_flash.h.14.91c5ecdad44f358d5032244aabf7ef4e
                           .group:0000000000000000 wm4.ch32v20x_gpio.h.14.bdb7f79cce0dffbc24dc81ea80f90bd2
                           .group:0000000000000000 wm4.ch32v20x_i2c.h.14.101eb625c9d2afac400f4e8ac2e9fb1d
                           .group:0000000000000000 wm4.ch32v20x_iwdg.h.14.26025d04ceeb3151185969ed5850fbb4
                           .group:0000000000000000 wm4.ch32v20x_rcc.h.13.18c6b8696a30372de01acaf3c246ecb8
                           .group:0000000000000000 wm4.ch32v20x_rtc.h.14.eb8734f5dd75abcf831b4f12ec49aebe
                           .group:0000000000000000 wm4.ch32v20x_spi.h.14.f12b1f237c615e7304ae62cc2e2c3c1a
                           .group:0000000000000000 wm4.ch32v20x_tim.h.14.35d11fab62898d9d661122ade86d8a6c
                           .group:0000000000000000 wm4.ch32v20x_usart.h.14.9d28c7ec28f2121810b69a55079cd38f
                           .group:0000000000000000 wm4.ch32v20x_wwdg.h.14.49bada437175894a4dce7e12e4216bc9
                           .group:0000000000000000 wm4.ch32v20x_misc.h.14.f3992cf724c30ec0bea268444ffdb6e0
                           .group:0000000000000000 wm4.ch32v20x_pwr.h.23.a763606c00ef9922243f2434660d58da

UNDEFINED SYMBOLS
RCC_APB1PeriphResetCmd
