GAS LISTING C:\Users\SOLDER~1\AppData\Local\Temp\ccUIzJuS.s 			page 1


   1              		.file	"ch32v20x_dma.c"
   2              		.option nopic
   3              		.attribute arch, "rv32i2p0_m2p0_a2p0_c2p0_xw"
   4              		.attribute unaligned_access, 0
   5              		.attribute stack_align, 16
   6              		.text
   7              	.Ltext0:
   8              		.cfi_sections	.debug_frame
   9              		.file 0 "C:\\Users\\Solderingiron\\Documents\\GitHub\\VSC-make-example\\VSC_CH32V203C8T6" "Drivers
  10              		.section	.text.DMA_DeInit,"ax",@progbits
  11              		.align	1
  12              		.globl	DMA_DeInit
  14              	DMA_DeInit:
  15              	.LFB16:
  16              		.file 1 "Drivers/src/ch32v20x_dma.c"
   1:Drivers/src/ch32v20x_dma.c **** /********************************** (C) COPYRIGHT  *******************************
   2:Drivers/src/ch32v20x_dma.c ****  * File Name          : ch32v20x_dma.c
   3:Drivers/src/ch32v20x_dma.c ****  * Author             : WCH
   4:Drivers/src/ch32v20x_dma.c ****  * Version            : V1.0.0
   5:Drivers/src/ch32v20x_dma.c ****  * Date               : 2021/06/06
   6:Drivers/src/ch32v20x_dma.c ****  * Description        : This file provides all the DMA firmware functions.
   7:Drivers/src/ch32v20x_dma.c **** *********************************************************************************
   8:Drivers/src/ch32v20x_dma.c **** * Copyright (c) 2021 Nanjing Qinheng Microelectronics Co., Ltd.
   9:Drivers/src/ch32v20x_dma.c **** * Attention: This software (modified or not) and binary are used for 
  10:Drivers/src/ch32v20x_dma.c **** * microcontroller manufactured by Nanjing Qinheng Microelectronics.
  11:Drivers/src/ch32v20x_dma.c **** *******************************************************************************/
  12:Drivers/src/ch32v20x_dma.c **** #include "ch32v20x_dma.h"
  13:Drivers/src/ch32v20x_dma.c **** #include "ch32v20x_rcc.h"
  14:Drivers/src/ch32v20x_dma.c **** 
  15:Drivers/src/ch32v20x_dma.c **** /* DMA1 Channelx interrupt pending bit masks */
  16:Drivers/src/ch32v20x_dma.c **** #define DMA1_Channel1_IT_Mask    ((uint32_t)(DMA_GIF1 | DMA_TCIF1 | DMA_HTIF1 | DMA_TEIF1))
  17:Drivers/src/ch32v20x_dma.c **** #define DMA1_Channel2_IT_Mask    ((uint32_t)(DMA_GIF2 | DMA_TCIF2 | DMA_HTIF2 | DMA_TEIF2))
  18:Drivers/src/ch32v20x_dma.c **** #define DMA1_Channel3_IT_Mask    ((uint32_t)(DMA_GIF3 | DMA_TCIF3 | DMA_HTIF3 | DMA_TEIF3))
  19:Drivers/src/ch32v20x_dma.c **** #define DMA1_Channel4_IT_Mask    ((uint32_t)(DMA_GIF4 | DMA_TCIF4 | DMA_HTIF4 | DMA_TEIF4))
  20:Drivers/src/ch32v20x_dma.c **** #define DMA1_Channel5_IT_Mask    ((uint32_t)(DMA_GIF5 | DMA_TCIF5 | DMA_HTIF5 | DMA_TEIF5))
  21:Drivers/src/ch32v20x_dma.c **** #define DMA1_Channel6_IT_Mask    ((uint32_t)(DMA_GIF6 | DMA_TCIF6 | DMA_HTIF6 | DMA_TEIF6))
  22:Drivers/src/ch32v20x_dma.c **** #define DMA1_Channel7_IT_Mask    ((uint32_t)(DMA_GIF7 | DMA_TCIF7 | DMA_HTIF7 | DMA_TEIF7))
  23:Drivers/src/ch32v20x_dma.c **** #define DMA1_Channel8_IT_Mask    ((uint32_t)(DMA_GIF8 | DMA_TCIF8 | DMA_HTIF8 | DMA_TEIF8))
  24:Drivers/src/ch32v20x_dma.c **** 
  25:Drivers/src/ch32v20x_dma.c **** /* DMA2 FLAG mask */
  26:Drivers/src/ch32v20x_dma.c **** #define FLAG_Mask                ((uint32_t)0x10000000)
  27:Drivers/src/ch32v20x_dma.c **** 
  28:Drivers/src/ch32v20x_dma.c **** /* DMA registers Masks */
  29:Drivers/src/ch32v20x_dma.c **** #define CFGR_CLEAR_Mask          ((uint32_t)0xFFFF800F)
  30:Drivers/src/ch32v20x_dma.c **** 
  31:Drivers/src/ch32v20x_dma.c **** /*********************************************************************
  32:Drivers/src/ch32v20x_dma.c ****  * @fn      DMA_DeInit
  33:Drivers/src/ch32v20x_dma.c ****  *
  34:Drivers/src/ch32v20x_dma.c ****  * @brief   Deinitializes the DMAy Channelx registers to their default
  35:Drivers/src/ch32v20x_dma.c ****  *        reset values.
  36:Drivers/src/ch32v20x_dma.c ****  *
  37:Drivers/src/ch32v20x_dma.c ****  * @param   DMAy_Channelx - here y can be 1 or 2 to select the DMA and x can be
  38:Drivers/src/ch32v20x_dma.c ****  *        1 to 7 for DMA1 and 1 to 11 for DMA2 to select the DMA Channel.
  39:Drivers/src/ch32v20x_dma.c ****  *
  40:Drivers/src/ch32v20x_dma.c ****  * @return  none
  41:Drivers/src/ch32v20x_dma.c ****  */
  42:Drivers/src/ch32v20x_dma.c **** void DMA_DeInit(DMA_Channel_TypeDef *DMAy_Channelx)
GAS LISTING C:\Users\SOLDER~1\AppData\Local\Temp\ccUIzJuS.s 			page 2


  43:Drivers/src/ch32v20x_dma.c **** {
  17              		.loc 1 43 1
  18              		.cfi_startproc
  19 0000 0111     		addi	sp,sp,-32
  20              		.cfi_def_cfa_offset 32
  21 0002 22CE     		sw	s0,28(sp)
  22              		.cfi_offset 8, -4
  23 0004 0010     		addi	s0,sp,32
  24              		.cfi_def_cfa 8, 0
  25 0006 2326A4FE 		sw	a0,-20(s0)
  44:Drivers/src/ch32v20x_dma.c ****     DMAy_Channelx->CFGR &= (uint16_t)(~DMA_CFGR1_EN);
  26              		.loc 1 44 18
  27 000a 8327C4FE 		lw	a5,-20(s0)
  28 000e 9843     		lw	a4,0(a5)
  29              		.loc 1 44 25
  30 0010 C167     		li	a5,65536
  31 0012 F917     		addi	a5,a5,-2
  32 0014 7D8F     		and	a4,a4,a5
  33 0016 8327C4FE 		lw	a5,-20(s0)
  34 001a 98C3     		sw	a4,0(a5)
  45:Drivers/src/ch32v20x_dma.c ****     DMAy_Channelx->CFGR = 0;
  35              		.loc 1 45 25
  36 001c 8327C4FE 		lw	a5,-20(s0)
  37 0020 23A00700 		sw	zero,0(a5)
  46:Drivers/src/ch32v20x_dma.c ****     DMAy_Channelx->CNTR = 0;
  38              		.loc 1 46 25
  39 0024 8327C4FE 		lw	a5,-20(s0)
  40 0028 23A20700 		sw	zero,4(a5)
  47:Drivers/src/ch32v20x_dma.c ****     DMAy_Channelx->PADDR = 0;
  41              		.loc 1 47 26
  42 002c 8327C4FE 		lw	a5,-20(s0)
  43 0030 23A40700 		sw	zero,8(a5)
  48:Drivers/src/ch32v20x_dma.c ****     DMAy_Channelx->MADDR = 0;
  44              		.loc 1 48 26
  45 0034 8327C4FE 		lw	a5,-20(s0)
  46 0038 23A60700 		sw	zero,12(a5)
  49:Drivers/src/ch32v20x_dma.c ****     if(DMAy_Channelx == DMA1_Channel1)
  47              		.loc 1 49 7
  48 003c 0327C4FE 		lw	a4,-20(s0)
  49 0040 B7070240 		li	a5,1073872896
  50 0044 A107     		addi	a5,a5,8
  51 0046 631BF700 		bne	a4,a5,.L2
  50:Drivers/src/ch32v20x_dma.c ****     {
  51:Drivers/src/ch32v20x_dma.c ****         DMA1->INTFCR |= DMA1_Channel1_IT_Mask;
  52              		.loc 1 51 13
  53 004a B7070240 		li	a5,1073872896
  54 004e D843     		lw	a4,4(a5)
  55 0050 B7070240 		li	a5,1073872896
  56              		.loc 1 51 22
  57 0054 1367F700 		ori	a4,a4,15
  58 0058 D8C3     		sw	a4,4(a5)
  52:Drivers/src/ch32v20x_dma.c ****     }
  53:Drivers/src/ch32v20x_dma.c ****     else if(DMAy_Channelx == DMA1_Channel2)
  54:Drivers/src/ch32v20x_dma.c ****     {
  55:Drivers/src/ch32v20x_dma.c ****         DMA1->INTFCR |= DMA1_Channel2_IT_Mask;
  56:Drivers/src/ch32v20x_dma.c ****     }
  57:Drivers/src/ch32v20x_dma.c ****     else if(DMAy_Channelx == DMA1_Channel3)
GAS LISTING C:\Users\SOLDER~1\AppData\Local\Temp\ccUIzJuS.s 			page 3


  58:Drivers/src/ch32v20x_dma.c ****     {
  59:Drivers/src/ch32v20x_dma.c ****         DMA1->INTFCR |= DMA1_Channel3_IT_Mask;
  60:Drivers/src/ch32v20x_dma.c ****     }
  61:Drivers/src/ch32v20x_dma.c ****     else if(DMAy_Channelx == DMA1_Channel4)
  62:Drivers/src/ch32v20x_dma.c ****     {
  63:Drivers/src/ch32v20x_dma.c ****         DMA1->INTFCR |= DMA1_Channel4_IT_Mask;
  64:Drivers/src/ch32v20x_dma.c ****     }
  65:Drivers/src/ch32v20x_dma.c ****     else if(DMAy_Channelx == DMA1_Channel5)
  66:Drivers/src/ch32v20x_dma.c ****     {
  67:Drivers/src/ch32v20x_dma.c ****         DMA1->INTFCR |= DMA1_Channel5_IT_Mask;
  68:Drivers/src/ch32v20x_dma.c ****     }
  69:Drivers/src/ch32v20x_dma.c ****     else if(DMAy_Channelx == DMA1_Channel6)
  70:Drivers/src/ch32v20x_dma.c ****     {
  71:Drivers/src/ch32v20x_dma.c ****         DMA1->INTFCR |= DMA1_Channel6_IT_Mask;
  72:Drivers/src/ch32v20x_dma.c ****     }
  73:Drivers/src/ch32v20x_dma.c ****     else if(DMAy_Channelx == DMA1_Channel7)
  74:Drivers/src/ch32v20x_dma.c ****     {
  75:Drivers/src/ch32v20x_dma.c ****         DMA1->INTFCR |= DMA1_Channel7_IT_Mask;
  76:Drivers/src/ch32v20x_dma.c ****     }
  77:Drivers/src/ch32v20x_dma.c ****     else if(DMAy_Channelx == DMA1_Channel8)
  78:Drivers/src/ch32v20x_dma.c ****     {
  79:Drivers/src/ch32v20x_dma.c ****         DMA1->INTFCR |= DMA1_Channel8_IT_Mask;
  80:Drivers/src/ch32v20x_dma.c ****     }
  81:Drivers/src/ch32v20x_dma.c **** }
  59              		.loc 1 81 1
  60 005a DDA8     		j	.L10
  61              	.L2:
  53:Drivers/src/ch32v20x_dma.c ****     {
  62              		.loc 1 53 12
  63 005c 0327C4FE 		lw	a4,-20(s0)
  64 0060 B7070240 		li	a5,1073872896
  65 0064 F107     		addi	a5,a5,28
  66 0066 631BF700 		bne	a4,a5,.L4
  55:Drivers/src/ch32v20x_dma.c ****     }
  67              		.loc 1 55 13
  68 006a B7070240 		li	a5,1073872896
  69 006e D843     		lw	a4,4(a5)
  70 0070 B7070240 		li	a5,1073872896
  55:Drivers/src/ch32v20x_dma.c ****     }
  71              		.loc 1 55 22
  72 0074 1367070F 		ori	a4,a4,240
  73 0078 D8C3     		sw	a4,4(a5)
  74              		.loc 1 81 1
  75 007a D9A8     		j	.L10
  76              	.L4:
  57:Drivers/src/ch32v20x_dma.c ****     {
  77              		.loc 1 57 12
  78 007c 0327C4FE 		lw	a4,-20(s0)
  79 0080 B7070240 		li	a5,1073872896
  80 0084 93870703 		addi	a5,a5,48
  81 0088 631DF700 		bne	a4,a5,.L5
  59:Drivers/src/ch32v20x_dma.c ****     }
  82              		.loc 1 59 13
  83 008c B7070240 		li	a5,1073872896
  84 0090 D443     		lw	a3,4(a5)
  85 0092 B7070240 		li	a5,1073872896
  59:Drivers/src/ch32v20x_dma.c ****     }
GAS LISTING C:\Users\SOLDER~1\AppData\Local\Temp\ccUIzJuS.s 			page 4


  86              		.loc 1 59 22
  87 0096 0567     		li	a4,4096
  88 0098 130707F0 		addi	a4,a4,-256
  89 009c 558F     		or	a4,a3,a4
  90 009e D8C3     		sw	a4,4(a5)
  91              		.loc 1 81 1
  92 00a0 45A8     		j	.L10
  93              	.L5:
  61:Drivers/src/ch32v20x_dma.c ****     {
  94              		.loc 1 61 12
  95 00a2 0327C4FE 		lw	a4,-20(s0)
  96 00a6 B7070240 		li	a5,1073872896
  97 00aa 93874704 		addi	a5,a5,68
  98 00ae 631BF700 		bne	a4,a5,.L6
  63:Drivers/src/ch32v20x_dma.c ****     }
  99              		.loc 1 63 13
 100 00b2 B7070240 		li	a5,1073872896
 101 00b6 D443     		lw	a3,4(a5)
 102 00b8 B7070240 		li	a5,1073872896
  63:Drivers/src/ch32v20x_dma.c ****     }
 103              		.loc 1 63 22
 104 00bc 3D67     		li	a4,61440
 105 00be 558F     		or	a4,a3,a4
 106 00c0 D8C3     		sw	a4,4(a5)
 107              		.loc 1 81 1
 108 00c2 79A0     		j	.L10
 109              	.L6:
  65:Drivers/src/ch32v20x_dma.c ****     {
 110              		.loc 1 65 12
 111 00c4 0327C4FE 		lw	a4,-20(s0)
 112 00c8 B7070240 		li	a5,1073872896
 113 00cc 93878705 		addi	a5,a5,88
 114 00d0 631CF700 		bne	a4,a5,.L7
  67:Drivers/src/ch32v20x_dma.c ****     }
 115              		.loc 1 67 13
 116 00d4 B7070240 		li	a5,1073872896
 117 00d8 D443     		lw	a3,4(a5)
 118 00da B7070240 		li	a5,1073872896
  67:Drivers/src/ch32v20x_dma.c ****     }
 119              		.loc 1 67 22
 120 00de 37070F00 		li	a4,983040
 121 00e2 558F     		or	a4,a3,a4
 122 00e4 D8C3     		sw	a4,4(a5)
 123              		.loc 1 81 1
 124 00e6 ADA0     		j	.L10
 125              	.L7:
  69:Drivers/src/ch32v20x_dma.c ****     {
 126              		.loc 1 69 12
 127 00e8 0327C4FE 		lw	a4,-20(s0)
 128 00ec B7070240 		li	a5,1073872896
 129 00f0 9387C706 		addi	a5,a5,108
 130 00f4 631CF700 		bne	a4,a5,.L8
  71:Drivers/src/ch32v20x_dma.c ****     }
 131              		.loc 1 71 13
 132 00f8 B7070240 		li	a5,1073872896
 133 00fc D443     		lw	a3,4(a5)
 134 00fe B7070240 		li	a5,1073872896
GAS LISTING C:\Users\SOLDER~1\AppData\Local\Temp\ccUIzJuS.s 			page 5


  71:Drivers/src/ch32v20x_dma.c ****     }
 135              		.loc 1 71 22
 136 0102 3707F000 		li	a4,15728640
 137 0106 558F     		or	a4,a3,a4
 138 0108 D8C3     		sw	a4,4(a5)
 139              		.loc 1 81 1
 140 010a 99A0     		j	.L10
 141              	.L8:
  73:Drivers/src/ch32v20x_dma.c ****     {
 142              		.loc 1 73 12
 143 010c 0327C4FE 		lw	a4,-20(s0)
 144 0110 B7070240 		li	a5,1073872896
 145 0114 93870708 		addi	a5,a5,128
 146 0118 631CF700 		bne	a4,a5,.L9
  75:Drivers/src/ch32v20x_dma.c ****     }
 147              		.loc 1 75 13
 148 011c B7070240 		li	a5,1073872896
 149 0120 D443     		lw	a3,4(a5)
 150 0122 B7070240 		li	a5,1073872896
  75:Drivers/src/ch32v20x_dma.c ****     }
 151              		.loc 1 75 22
 152 0126 3707000F 		li	a4,251658240
 153 012a 558F     		or	a4,a3,a4
 154 012c D8C3     		sw	a4,4(a5)
 155              		.loc 1 81 1
 156 012e 0DA0     		j	.L10
 157              	.L9:
  77:Drivers/src/ch32v20x_dma.c ****     {
 158              		.loc 1 77 12
 159 0130 0327C4FE 		lw	a4,-20(s0)
 160 0134 B7070240 		li	a5,1073872896
 161 0138 93874709 		addi	a5,a5,148
 162 013c 631AF700 		bne	a4,a5,.L10
  79:Drivers/src/ch32v20x_dma.c ****     }
 163              		.loc 1 79 13
 164 0140 B7070240 		li	a5,1073872896
 165 0144 D843     		lw	a4,4(a5)
 166 0146 B7070240 		li	a5,1073872896
  79:Drivers/src/ch32v20x_dma.c ****     }
 167              		.loc 1 79 22
 168 014a 1367F700 		ori	a4,a4,15
 169 014e D8C3     		sw	a4,4(a5)
 170              	.L10:
 171              		.loc 1 81 1
 172 0150 0100     		nop
 173 0152 7244     		lw	s0,28(sp)
 174              		.cfi_restore 8
 175              		.cfi_def_cfa 2, 32
 176 0154 0561     		addi	sp,sp,32
 177              		.cfi_def_cfa_offset 0
 178 0156 8280     		jr	ra
 179              		.cfi_endproc
 180              	.LFE16:
 182              		.section	.text.DMA_Init,"ax",@progbits
 183              		.align	1
 184              		.globl	DMA_Init
 186              	DMA_Init:
GAS LISTING C:\Users\SOLDER~1\AppData\Local\Temp\ccUIzJuS.s 			page 6


 187              	.LFB17:
  82:Drivers/src/ch32v20x_dma.c **** 
  83:Drivers/src/ch32v20x_dma.c **** /*********************************************************************
  84:Drivers/src/ch32v20x_dma.c ****  * @fn      DMA_Init
  85:Drivers/src/ch32v20x_dma.c ****  *
  86:Drivers/src/ch32v20x_dma.c ****  * @brief   Initializes the DMAy Channelx according to the specified
  87:Drivers/src/ch32v20x_dma.c ****  *        parameters in the DMA_InitStruct.
  88:Drivers/src/ch32v20x_dma.c ****  *
  89:Drivers/src/ch32v20x_dma.c ****  * @param   DMAy_Channelx - here y can be 1 or 2 to select the DMA and x can be
  90:Drivers/src/ch32v20x_dma.c ****  *        1 to 7 for DMA1 and 1 to 11 for DMA2 to select the DMA Channel.
  91:Drivers/src/ch32v20x_dma.c ****  *          DMA_InitStruct - pointer to a DMA_InitTypeDef structure that contains
  92:Drivers/src/ch32v20x_dma.c ****  *        contains the configuration information for the specified DMA Channel.
  93:Drivers/src/ch32v20x_dma.c ****  *
  94:Drivers/src/ch32v20x_dma.c ****  * @return  none
  95:Drivers/src/ch32v20x_dma.c ****  */
  96:Drivers/src/ch32v20x_dma.c **** void DMA_Init(DMA_Channel_TypeDef *DMAy_Channelx, DMA_InitTypeDef *DMA_InitStruct)
  97:Drivers/src/ch32v20x_dma.c **** {
 188              		.loc 1 97 1
 189              		.cfi_startproc
 190 0000 7971     		addi	sp,sp,-48
 191              		.cfi_def_cfa_offset 48
 192 0002 22D6     		sw	s0,44(sp)
 193              		.cfi_offset 8, -4
 194 0004 0018     		addi	s0,sp,48
 195              		.cfi_def_cfa 8, 0
 196 0006 232EA4FC 		sw	a0,-36(s0)
 197 000a 232CB4FC 		sw	a1,-40(s0)
  98:Drivers/src/ch32v20x_dma.c ****     uint32_t tmpreg = 0;
 198              		.loc 1 98 14
 199 000e 232604FE 		sw	zero,-20(s0)
  99:Drivers/src/ch32v20x_dma.c **** 
 100:Drivers/src/ch32v20x_dma.c ****     tmpreg = DMAy_Channelx->CFGR;
 200              		.loc 1 100 12
 201 0012 8327C4FD 		lw	a5,-36(s0)
 202 0016 9C43     		lw	a5,0(a5)
 203 0018 2326F4FE 		sw	a5,-20(s0)
 101:Drivers/src/ch32v20x_dma.c ****     tmpreg &= CFGR_CLEAR_Mask;
 204              		.loc 1 101 12
 205 001c 0327C4FE 		lw	a4,-20(s0)
 206 0020 E177     		li	a5,-32768
 207 0022 BD07     		addi	a5,a5,15
 208 0024 F98F     		and	a5,a4,a5
 209 0026 2326F4FE 		sw	a5,-20(s0)
 102:Drivers/src/ch32v20x_dma.c ****     tmpreg |= DMA_InitStruct->DMA_DIR | DMA_InitStruct->DMA_Mode |
 210              		.loc 1 102 29
 211 002a 832784FD 		lw	a5,-40(s0)
 212 002e 9847     		lw	a4,8(a5)
 213              		.loc 1 102 55
 214 0030 832784FD 		lw	a5,-40(s0)
 215 0034 9C53     		lw	a5,32(a5)
 216              		.loc 1 102 39
 217 0036 5D8F     		or	a4,a4,a5
 103:Drivers/src/ch32v20x_dma.c ****               DMA_InitStruct->DMA_PeripheralInc | DMA_InitStruct->DMA_MemoryInc |
 218              		.loc 1 103 29
 219 0038 832784FD 		lw	a5,-40(s0)
 220 003c 9C4B     		lw	a5,16(a5)
 102:Drivers/src/ch32v20x_dma.c ****     tmpreg |= DMA_InitStruct->DMA_DIR | DMA_InitStruct->DMA_Mode |
GAS LISTING C:\Users\SOLDER~1\AppData\Local\Temp\ccUIzJuS.s 			page 7


 221              		.loc 1 102 66
 222 003e 5D8F     		or	a4,a4,a5
 223              		.loc 1 103 65
 224 0040 832784FD 		lw	a5,-40(s0)
 225 0044 DC4B     		lw	a5,20(a5)
 226              		.loc 1 103 49
 227 0046 5D8F     		or	a4,a4,a5
 104:Drivers/src/ch32v20x_dma.c ****               DMA_InitStruct->DMA_PeripheralDataSize | DMA_InitStruct->DMA_MemoryDataSize |
 228              		.loc 1 104 29
 229 0048 832784FD 		lw	a5,-40(s0)
 230 004c 9C4F     		lw	a5,24(a5)
 103:Drivers/src/ch32v20x_dma.c ****               DMA_InitStruct->DMA_PeripheralInc | DMA_InitStruct->DMA_MemoryInc |
 231              		.loc 1 103 81
 232 004e 5D8F     		or	a4,a4,a5
 233              		.loc 1 104 70
 234 0050 832784FD 		lw	a5,-40(s0)
 235 0054 DC4F     		lw	a5,28(a5)
 236              		.loc 1 104 54
 237 0056 5D8F     		or	a4,a4,a5
 105:Drivers/src/ch32v20x_dma.c ****               DMA_InitStruct->DMA_Priority | DMA_InitStruct->DMA_M2M;
 238              		.loc 1 105 29
 239 0058 832784FD 		lw	a5,-40(s0)
 240 005c DC53     		lw	a5,36(a5)
 104:Drivers/src/ch32v20x_dma.c ****               DMA_InitStruct->DMA_PeripheralDataSize | DMA_InitStruct->DMA_MemoryDataSize |
 241              		.loc 1 104 91
 242 005e 5D8F     		or	a4,a4,a5
 243              		.loc 1 105 60
 244 0060 832784FD 		lw	a5,-40(s0)
 245 0064 9C57     		lw	a5,40(a5)
 246              		.loc 1 105 44
 247 0066 D98F     		or	a5,a4,a5
 102:Drivers/src/ch32v20x_dma.c ****               DMA_InitStruct->DMA_PeripheralInc | DMA_InitStruct->DMA_MemoryInc |
 248              		.loc 1 102 12
 249 0068 0327C4FE 		lw	a4,-20(s0)
 250 006c D98F     		or	a5,a4,a5
 251 006e 2326F4FE 		sw	a5,-20(s0)
 106:Drivers/src/ch32v20x_dma.c **** 
 107:Drivers/src/ch32v20x_dma.c ****     DMAy_Channelx->CFGR = tmpreg;
 252              		.loc 1 107 25
 253 0072 8327C4FD 		lw	a5,-36(s0)
 254 0076 0327C4FE 		lw	a4,-20(s0)
 255 007a 98C3     		sw	a4,0(a5)
 108:Drivers/src/ch32v20x_dma.c ****     DMAy_Channelx->CNTR = DMA_InitStruct->DMA_BufferSize;
 256              		.loc 1 108 41
 257 007c 832784FD 		lw	a5,-40(s0)
 258 0080 D847     		lw	a4,12(a5)
 259              		.loc 1 108 25
 260 0082 8327C4FD 		lw	a5,-36(s0)
 261 0086 D8C3     		sw	a4,4(a5)
 109:Drivers/src/ch32v20x_dma.c ****     DMAy_Channelx->PADDR = DMA_InitStruct->DMA_PeripheralBaseAddr;
 262              		.loc 1 109 42
 263 0088 832784FD 		lw	a5,-40(s0)
 264 008c 9843     		lw	a4,0(a5)
 265              		.loc 1 109 26
 266 008e 8327C4FD 		lw	a5,-36(s0)
 267 0092 98C7     		sw	a4,8(a5)
 110:Drivers/src/ch32v20x_dma.c ****     DMAy_Channelx->MADDR = DMA_InitStruct->DMA_MemoryBaseAddr;
GAS LISTING C:\Users\SOLDER~1\AppData\Local\Temp\ccUIzJuS.s 			page 8


 268              		.loc 1 110 42
 269 0094 832784FD 		lw	a5,-40(s0)
 270 0098 D843     		lw	a4,4(a5)
 271              		.loc 1 110 26
 272 009a 8327C4FD 		lw	a5,-36(s0)
 273 009e D8C7     		sw	a4,12(a5)
 111:Drivers/src/ch32v20x_dma.c **** }
 274              		.loc 1 111 1
 275 00a0 0100     		nop
 276 00a2 3254     		lw	s0,44(sp)
 277              		.cfi_restore 8
 278              		.cfi_def_cfa 2, 48
 279 00a4 4561     		addi	sp,sp,48
 280              		.cfi_def_cfa_offset 0
 281 00a6 8280     		jr	ra
 282              		.cfi_endproc
 283              	.LFE17:
 285              		.section	.text.DMA_StructInit,"ax",@progbits
 286              		.align	1
 287              		.globl	DMA_StructInit
 289              	DMA_StructInit:
 290              	.LFB18:
 112:Drivers/src/ch32v20x_dma.c **** 
 113:Drivers/src/ch32v20x_dma.c **** /*********************************************************************
 114:Drivers/src/ch32v20x_dma.c ****  * @fn      DMA_StructInit
 115:Drivers/src/ch32v20x_dma.c ****  *
 116:Drivers/src/ch32v20x_dma.c ****  * @brief   Fills each DMA_InitStruct member with its default value.
 117:Drivers/src/ch32v20x_dma.c ****  *
 118:Drivers/src/ch32v20x_dma.c ****  * @param   DMAy_Channelx - here y can be 1 or 2 to select the DMA and x can be
 119:Drivers/src/ch32v20x_dma.c ****  *        1 to 7 for DMA1 and 1 to 11 for DMA2 to select the DMA Channel.
 120:Drivers/src/ch32v20x_dma.c ****  *          DMA_InitStruct - pointer to a DMA_InitTypeDef structure that contains
 121:Drivers/src/ch32v20x_dma.c ****  *        contains the configuration information for the specified DMA Channel.
 122:Drivers/src/ch32v20x_dma.c ****  *
 123:Drivers/src/ch32v20x_dma.c ****  * @return  none
 124:Drivers/src/ch32v20x_dma.c ****  */
 125:Drivers/src/ch32v20x_dma.c **** void DMA_StructInit(DMA_InitTypeDef *DMA_InitStruct)
 126:Drivers/src/ch32v20x_dma.c **** {
 291              		.loc 1 126 1
 292              		.cfi_startproc
 293 0000 0111     		addi	sp,sp,-32
 294              		.cfi_def_cfa_offset 32
 295 0002 22CE     		sw	s0,28(sp)
 296              		.cfi_offset 8, -4
 297 0004 0010     		addi	s0,sp,32
 298              		.cfi_def_cfa 8, 0
 299 0006 2326A4FE 		sw	a0,-20(s0)
 127:Drivers/src/ch32v20x_dma.c ****     DMA_InitStruct->DMA_PeripheralBaseAddr = 0;
 300              		.loc 1 127 44
 301 000a 8327C4FE 		lw	a5,-20(s0)
 302 000e 23A00700 		sw	zero,0(a5)
 128:Drivers/src/ch32v20x_dma.c ****     DMA_InitStruct->DMA_MemoryBaseAddr = 0;
 303              		.loc 1 128 40
 304 0012 8327C4FE 		lw	a5,-20(s0)
 305 0016 23A20700 		sw	zero,4(a5)
 129:Drivers/src/ch32v20x_dma.c ****     DMA_InitStruct->DMA_DIR = DMA_DIR_PeripheralSRC;
 306              		.loc 1 129 29
 307 001a 8327C4FE 		lw	a5,-20(s0)
GAS LISTING C:\Users\SOLDER~1\AppData\Local\Temp\ccUIzJuS.s 			page 9


 308 001e 23A40700 		sw	zero,8(a5)
 130:Drivers/src/ch32v20x_dma.c ****     DMA_InitStruct->DMA_BufferSize = 0;
 309              		.loc 1 130 36
 310 0022 8327C4FE 		lw	a5,-20(s0)
 311 0026 23A60700 		sw	zero,12(a5)
 131:Drivers/src/ch32v20x_dma.c ****     DMA_InitStruct->DMA_PeripheralInc = DMA_PeripheralInc_Disable;
 312              		.loc 1 131 39
 313 002a 8327C4FE 		lw	a5,-20(s0)
 314 002e 23A80700 		sw	zero,16(a5)
 132:Drivers/src/ch32v20x_dma.c ****     DMA_InitStruct->DMA_MemoryInc = DMA_MemoryInc_Disable;
 315              		.loc 1 132 35
 316 0032 8327C4FE 		lw	a5,-20(s0)
 317 0036 23AA0700 		sw	zero,20(a5)
 133:Drivers/src/ch32v20x_dma.c ****     DMA_InitStruct->DMA_PeripheralDataSize = DMA_PeripheralDataSize_Byte;
 318              		.loc 1 133 44
 319 003a 8327C4FE 		lw	a5,-20(s0)
 320 003e 23AC0700 		sw	zero,24(a5)
 134:Drivers/src/ch32v20x_dma.c ****     DMA_InitStruct->DMA_MemoryDataSize = DMA_MemoryDataSize_Byte;
 321              		.loc 1 134 40
 322 0042 8327C4FE 		lw	a5,-20(s0)
 323 0046 23AE0700 		sw	zero,28(a5)
 135:Drivers/src/ch32v20x_dma.c ****     DMA_InitStruct->DMA_Mode = DMA_Mode_Normal;
 324              		.loc 1 135 30
 325 004a 8327C4FE 		lw	a5,-20(s0)
 326 004e 23A00702 		sw	zero,32(a5)
 136:Drivers/src/ch32v20x_dma.c ****     DMA_InitStruct->DMA_Priority = DMA_Priority_Low;
 327              		.loc 1 136 34
 328 0052 8327C4FE 		lw	a5,-20(s0)
 329 0056 23A20702 		sw	zero,36(a5)
 137:Drivers/src/ch32v20x_dma.c ****     DMA_InitStruct->DMA_M2M = DMA_M2M_Disable;
 330              		.loc 1 137 29
 331 005a 8327C4FE 		lw	a5,-20(s0)
 332 005e 23A40702 		sw	zero,40(a5)
 138:Drivers/src/ch32v20x_dma.c **** }
 333              		.loc 1 138 1
 334 0062 0100     		nop
 335 0064 7244     		lw	s0,28(sp)
 336              		.cfi_restore 8
 337              		.cfi_def_cfa 2, 32
 338 0066 0561     		addi	sp,sp,32
 339              		.cfi_def_cfa_offset 0
 340 0068 8280     		jr	ra
 341              		.cfi_endproc
 342              	.LFE18:
 344              		.section	.text.DMA_Cmd,"ax",@progbits
 345              		.align	1
 346              		.globl	DMA_Cmd
 348              	DMA_Cmd:
 349              	.LFB19:
 139:Drivers/src/ch32v20x_dma.c **** 
 140:Drivers/src/ch32v20x_dma.c **** /*********************************************************************
 141:Drivers/src/ch32v20x_dma.c ****  * @fn      DMA_Cmd
 142:Drivers/src/ch32v20x_dma.c ****  *
 143:Drivers/src/ch32v20x_dma.c ****  * @brief   Enables or disables the specified DMAy Channelx.
 144:Drivers/src/ch32v20x_dma.c ****  *
 145:Drivers/src/ch32v20x_dma.c ****  * @param   DMAy_Channelx - here y can be 1 or 2 to select the DMA and x can be
 146:Drivers/src/ch32v20x_dma.c ****  *        1 to 7 for DMA1 and 1 to 11 for DMA2 to select the DMA Channel.
GAS LISTING C:\Users\SOLDER~1\AppData\Local\Temp\ccUIzJuS.s 			page 10


 147:Drivers/src/ch32v20x_dma.c ****  *          NewState - new state of the DMAy Channelx(ENABLE or DISABLE).
 148:Drivers/src/ch32v20x_dma.c ****  *
 149:Drivers/src/ch32v20x_dma.c ****  * @return  none
 150:Drivers/src/ch32v20x_dma.c ****  */
 151:Drivers/src/ch32v20x_dma.c **** void DMA_Cmd(DMA_Channel_TypeDef *DMAy_Channelx, FunctionalState NewState)
 152:Drivers/src/ch32v20x_dma.c **** {
 350              		.loc 1 152 1
 351              		.cfi_startproc
 352 0000 0111     		addi	sp,sp,-32
 353              		.cfi_def_cfa_offset 32
 354 0002 22CE     		sw	s0,28(sp)
 355              		.cfi_offset 8, -4
 356 0004 0010     		addi	s0,sp,32
 357              		.cfi_def_cfa 8, 0
 358 0006 2326A4FE 		sw	a0,-20(s0)
 359 000a 2324B4FE 		sw	a1,-24(s0)
 153:Drivers/src/ch32v20x_dma.c ****     if(NewState != DISABLE)
 360              		.loc 1 153 7
 361 000e 832784FE 		lw	a5,-24(s0)
 362 0012 91CB     		beq	a5,zero,.L14
 154:Drivers/src/ch32v20x_dma.c ****     {
 155:Drivers/src/ch32v20x_dma.c ****         DMAy_Channelx->CFGR |= DMA_CFGR1_EN;
 363              		.loc 1 155 22
 364 0014 8327C4FE 		lw	a5,-20(s0)
 365 0018 9C43     		lw	a5,0(a5)
 366              		.loc 1 155 29
 367 001a 13E71700 		ori	a4,a5,1
 368 001e 8327C4FE 		lw	a5,-20(s0)
 369 0022 98C3     		sw	a4,0(a5)
 156:Drivers/src/ch32v20x_dma.c ****     }
 157:Drivers/src/ch32v20x_dma.c ****     else
 158:Drivers/src/ch32v20x_dma.c ****     {
 159:Drivers/src/ch32v20x_dma.c ****         DMAy_Channelx->CFGR &= (uint16_t)(~DMA_CFGR1_EN);
 160:Drivers/src/ch32v20x_dma.c ****     }
 161:Drivers/src/ch32v20x_dma.c **** }
 370              		.loc 1 161 1
 371 0024 11A8     		j	.L16
 372              	.L14:
 159:Drivers/src/ch32v20x_dma.c ****     }
 373              		.loc 1 159 22
 374 0026 8327C4FE 		lw	a5,-20(s0)
 375 002a 9843     		lw	a4,0(a5)
 159:Drivers/src/ch32v20x_dma.c ****     }
 376              		.loc 1 159 29
 377 002c C167     		li	a5,65536
 378 002e F917     		addi	a5,a5,-2
 379 0030 7D8F     		and	a4,a4,a5
 380 0032 8327C4FE 		lw	a5,-20(s0)
 381 0036 98C3     		sw	a4,0(a5)
 382              	.L16:
 383              		.loc 1 161 1
 384 0038 0100     		nop
 385 003a 7244     		lw	s0,28(sp)
 386              		.cfi_restore 8
 387              		.cfi_def_cfa 2, 32
 388 003c 0561     		addi	sp,sp,32
 389              		.cfi_def_cfa_offset 0
GAS LISTING C:\Users\SOLDER~1\AppData\Local\Temp\ccUIzJuS.s 			page 11


 390 003e 8280     		jr	ra
 391              		.cfi_endproc
 392              	.LFE19:
 394              		.section	.text.DMA_ITConfig,"ax",@progbits
 395              		.align	1
 396              		.globl	DMA_ITConfig
 398              	DMA_ITConfig:
 399              	.LFB20:
 162:Drivers/src/ch32v20x_dma.c **** 
 163:Drivers/src/ch32v20x_dma.c **** /*********************************************************************
 164:Drivers/src/ch32v20x_dma.c ****  * @fn      DMA_ITConfig
 165:Drivers/src/ch32v20x_dma.c ****  *
 166:Drivers/src/ch32v20x_dma.c ****  * @brief   Enables or disables the specified DMAy Channelx interrupts.
 167:Drivers/src/ch32v20x_dma.c ****  *
 168:Drivers/src/ch32v20x_dma.c ****  * @param   DMAy_Channelx - here y can be 1 or 2 to select the DMA and x can be
 169:Drivers/src/ch32v20x_dma.c ****  *        1 to 7 for DMA1 and 1 to 11 for DMA2 to select the DMA Channel.
 170:Drivers/src/ch32v20x_dma.c ****  *          DMA_IT - specifies the DMA interrupts sources to be enabled
 171:Drivers/src/ch32v20x_dma.c ****  *        or disabled.
 172:Drivers/src/ch32v20x_dma.c ****  *           DMA_IT_TC - Transfer complete interrupt mask
 173:Drivers/src/ch32v20x_dma.c ****  *           DMA_IT_HT - Half transfer interrupt mask
 174:Drivers/src/ch32v20x_dma.c ****  *           DMA_IT_TE -  Transfer error interrupt mask
 175:Drivers/src/ch32v20x_dma.c ****  *          NewState - new state of the DMAy Channelx(ENABLE or DISABLE).
 176:Drivers/src/ch32v20x_dma.c ****  *
 177:Drivers/src/ch32v20x_dma.c ****  * @return  none
 178:Drivers/src/ch32v20x_dma.c ****  */
 179:Drivers/src/ch32v20x_dma.c **** void DMA_ITConfig(DMA_Channel_TypeDef *DMAy_Channelx, uint32_t DMA_IT, FunctionalState NewState)
 180:Drivers/src/ch32v20x_dma.c **** {
 400              		.loc 1 180 1
 401              		.cfi_startproc
 402 0000 0111     		addi	sp,sp,-32
 403              		.cfi_def_cfa_offset 32
 404 0002 22CE     		sw	s0,28(sp)
 405              		.cfi_offset 8, -4
 406 0004 0010     		addi	s0,sp,32
 407              		.cfi_def_cfa 8, 0
 408 0006 2326A4FE 		sw	a0,-20(s0)
 409 000a 2324B4FE 		sw	a1,-24(s0)
 410 000e 2322C4FE 		sw	a2,-28(s0)
 181:Drivers/src/ch32v20x_dma.c ****     if(NewState != DISABLE)
 411              		.loc 1 181 7
 412 0012 832744FE 		lw	a5,-28(s0)
 413 0016 99CB     		beq	a5,zero,.L18
 182:Drivers/src/ch32v20x_dma.c ****     {
 183:Drivers/src/ch32v20x_dma.c ****         DMAy_Channelx->CFGR |= DMA_IT;
 414              		.loc 1 183 22
 415 0018 8327C4FE 		lw	a5,-20(s0)
 416 001c 9843     		lw	a4,0(a5)
 417              		.loc 1 183 29
 418 001e 832784FE 		lw	a5,-24(s0)
 419 0022 5D8F     		or	a4,a4,a5
 420 0024 8327C4FE 		lw	a5,-20(s0)
 421 0028 98C3     		sw	a4,0(a5)
 184:Drivers/src/ch32v20x_dma.c ****     }
 185:Drivers/src/ch32v20x_dma.c ****     else
 186:Drivers/src/ch32v20x_dma.c ****     {
 187:Drivers/src/ch32v20x_dma.c ****         DMAy_Channelx->CFGR &= ~DMA_IT;
 188:Drivers/src/ch32v20x_dma.c ****     }
GAS LISTING C:\Users\SOLDER~1\AppData\Local\Temp\ccUIzJuS.s 			page 12


 189:Drivers/src/ch32v20x_dma.c **** }
 422              		.loc 1 189 1
 423 002a 21A8     		j	.L20
 424              	.L18:
 187:Drivers/src/ch32v20x_dma.c ****     }
 425              		.loc 1 187 22
 426 002c 8327C4FE 		lw	a5,-20(s0)
 427 0030 9843     		lw	a4,0(a5)
 187:Drivers/src/ch32v20x_dma.c ****     }
 428              		.loc 1 187 32
 429 0032 832784FE 		lw	a5,-24(s0)
 430 0036 93C7F7FF 		not	a5,a5
 187:Drivers/src/ch32v20x_dma.c ****     }
 431              		.loc 1 187 29
 432 003a 7D8F     		and	a4,a4,a5
 433 003c 8327C4FE 		lw	a5,-20(s0)
 434 0040 98C3     		sw	a4,0(a5)
 435              	.L20:
 436              		.loc 1 189 1
 437 0042 0100     		nop
 438 0044 7244     		lw	s0,28(sp)
 439              		.cfi_restore 8
 440              		.cfi_def_cfa 2, 32
 441 0046 0561     		addi	sp,sp,32
 442              		.cfi_def_cfa_offset 0
 443 0048 8280     		jr	ra
 444              		.cfi_endproc
 445              	.LFE20:
 447              		.section	.text.DMA_SetCurrDataCounter,"ax",@progbits
 448              		.align	1
 449              		.globl	DMA_SetCurrDataCounter
 451              	DMA_SetCurrDataCounter:
 452              	.LFB21:
 190:Drivers/src/ch32v20x_dma.c **** 
 191:Drivers/src/ch32v20x_dma.c **** /*********************************************************************
 192:Drivers/src/ch32v20x_dma.c ****  * @fn      DMA_SetCurrDataCounter
 193:Drivers/src/ch32v20x_dma.c ****  *
 194:Drivers/src/ch32v20x_dma.c ****  * @brief   Sets the number of data units in the current DMAy Channelx transfer.
 195:Drivers/src/ch32v20x_dma.c ****  *
 196:Drivers/src/ch32v20x_dma.c ****  * @param   DMAy_Channelx - here y can be 1 or 2 to select the DMA and x can be
 197:Drivers/src/ch32v20x_dma.c ****  *        1 to 7 for DMA1 and 1 to 11 for DMA2 to select the DMA Channel.
 198:Drivers/src/ch32v20x_dma.c ****  *          DataNumber - The number of data units in the current DMAy Channelx
 199:Drivers/src/ch32v20x_dma.c ****  *        transfer.
 200:Drivers/src/ch32v20x_dma.c ****  *
 201:Drivers/src/ch32v20x_dma.c ****  * @return  none
 202:Drivers/src/ch32v20x_dma.c ****  */
 203:Drivers/src/ch32v20x_dma.c **** void DMA_SetCurrDataCounter(DMA_Channel_TypeDef *DMAy_Channelx, uint16_t DataNumber)
 204:Drivers/src/ch32v20x_dma.c **** {
 453              		.loc 1 204 1
 454              		.cfi_startproc
 455 0000 0111     		addi	sp,sp,-32
 456              		.cfi_def_cfa_offset 32
 457 0002 22CE     		sw	s0,28(sp)
 458              		.cfi_offset 8, -4
 459 0004 0010     		addi	s0,sp,32
 460              		.cfi_def_cfa 8, 0
 461 0006 2326A4FE 		sw	a0,-20(s0)
GAS LISTING C:\Users\SOLDER~1\AppData\Local\Temp\ccUIzJuS.s 			page 13


 462 000a AE87     		mv	a5,a1
 463 000c 2315F4FE 		sh	a5,-22(s0)
 205:Drivers/src/ch32v20x_dma.c ****     DMAy_Channelx->CNTR = DataNumber;
 464              		.loc 1 205 25
 465 0010 0357A4FE 		lhu	a4,-22(s0)
 466 0014 8327C4FE 		lw	a5,-20(s0)
 467 0018 D8C3     		sw	a4,4(a5)
 206:Drivers/src/ch32v20x_dma.c **** }
 468              		.loc 1 206 1
 469 001a 0100     		nop
 470 001c 7244     		lw	s0,28(sp)
 471              		.cfi_restore 8
 472              		.cfi_def_cfa 2, 32
 473 001e 0561     		addi	sp,sp,32
 474              		.cfi_def_cfa_offset 0
 475 0020 8280     		jr	ra
 476              		.cfi_endproc
 477              	.LFE21:
 479              		.section	.text.DMA_GetCurrDataCounter,"ax",@progbits
 480              		.align	1
 481              		.globl	DMA_GetCurrDataCounter
 483              	DMA_GetCurrDataCounter:
 484              	.LFB22:
 207:Drivers/src/ch32v20x_dma.c **** 
 208:Drivers/src/ch32v20x_dma.c **** /*********************************************************************
 209:Drivers/src/ch32v20x_dma.c ****  * @fn      DMA_GetCurrDataCounter
 210:Drivers/src/ch32v20x_dma.c ****  *
 211:Drivers/src/ch32v20x_dma.c ****  * @brief   Returns the number of remaining data units in the current
 212:Drivers/src/ch32v20x_dma.c ****  *        DMAy Channelx transfer.
 213:Drivers/src/ch32v20x_dma.c ****  *
 214:Drivers/src/ch32v20x_dma.c ****  * @param   DMAy_Channelx - here y can be 1 or 2 to select the DMA and x can be
 215:Drivers/src/ch32v20x_dma.c ****  *        1 to 7 for DMA1 and 1 to 11 for DMA2 to select the DMA Channel.
 216:Drivers/src/ch32v20x_dma.c ****  *
 217:Drivers/src/ch32v20x_dma.c ****  * @return  DataNumber - The number of remaining data units in the current
 218:Drivers/src/ch32v20x_dma.c ****  *        DMAy Channelx transfer.
 219:Drivers/src/ch32v20x_dma.c ****  */
 220:Drivers/src/ch32v20x_dma.c **** uint16_t DMA_GetCurrDataCounter(DMA_Channel_TypeDef *DMAy_Channelx)
 221:Drivers/src/ch32v20x_dma.c **** {
 485              		.loc 1 221 1
 486              		.cfi_startproc
 487 0000 0111     		addi	sp,sp,-32
 488              		.cfi_def_cfa_offset 32
 489 0002 22CE     		sw	s0,28(sp)
 490              		.cfi_offset 8, -4
 491 0004 0010     		addi	s0,sp,32
 492              		.cfi_def_cfa 8, 0
 493 0006 2326A4FE 		sw	a0,-20(s0)
 222:Drivers/src/ch32v20x_dma.c ****     return ((uint16_t)(DMAy_Channelx->CNTR));
 494              		.loc 1 222 37
 495 000a 8327C4FE 		lw	a5,-20(s0)
 496 000e DC43     		lw	a5,4(a5)
 497              		.loc 1 222 13
 498 0010 C207     		slli	a5,a5,16
 499 0012 C183     		srli	a5,a5,16
 223:Drivers/src/ch32v20x_dma.c **** }
 500              		.loc 1 223 1
 501 0014 3E85     		mv	a0,a5
GAS LISTING C:\Users\SOLDER~1\AppData\Local\Temp\ccUIzJuS.s 			page 14


 502 0016 7244     		lw	s0,28(sp)
 503              		.cfi_restore 8
 504              		.cfi_def_cfa 2, 32
 505 0018 0561     		addi	sp,sp,32
 506              		.cfi_def_cfa_offset 0
 507 001a 8280     		jr	ra
 508              		.cfi_endproc
 509              	.LFE22:
 511              		.section	.text.DMA_GetFlagStatus,"ax",@progbits
 512              		.align	1
 513              		.globl	DMA_GetFlagStatus
 515              	DMA_GetFlagStatus:
 516              	.LFB23:
 224:Drivers/src/ch32v20x_dma.c **** 
 225:Drivers/src/ch32v20x_dma.c **** /*********************************************************************
 226:Drivers/src/ch32v20x_dma.c ****  * @fn      DMA_GetFlagStatus
 227:Drivers/src/ch32v20x_dma.c ****  *
 228:Drivers/src/ch32v20x_dma.c ****  * @brief   Checks whether the specified DMAy Channelx flag is set or not.
 229:Drivers/src/ch32v20x_dma.c ****  *
 230:Drivers/src/ch32v20x_dma.c ****  * @param   DMAy_FLAG - specifies the flag to check.
 231:Drivers/src/ch32v20x_dma.c ****  *            DMA1_FLAG_GL1 - DMA1 Channel1 global flag.
 232:Drivers/src/ch32v20x_dma.c ****  *            DMA1_FLAG_TC1 - DMA1 Channel1 transfer complete flag.
 233:Drivers/src/ch32v20x_dma.c ****  *            DMA1_FLAG_HT1 - DMA1 Channel1 half transfer flag.
 234:Drivers/src/ch32v20x_dma.c ****  *            DMA1_FLAG_TE1 - DMA1 Channel1 transfer error flag.
 235:Drivers/src/ch32v20x_dma.c ****  *            DMA1_FLAG_GL2 - DMA1 Channel2 global flag.
 236:Drivers/src/ch32v20x_dma.c ****  *            DMA1_FLAG_TC2 - DMA1 Channel2 transfer complete flag.
 237:Drivers/src/ch32v20x_dma.c ****  *            DMA1_FLAG_HT2 - DMA1 Channel2 half transfer flag.
 238:Drivers/src/ch32v20x_dma.c ****  *            DMA1_FLAG_TE2 - DMA1 Channel2 transfer error flag.
 239:Drivers/src/ch32v20x_dma.c ****  *            DMA1_FLAG_GL3 - DMA1 Channel3 global flag.
 240:Drivers/src/ch32v20x_dma.c ****  *            DMA1_FLAG_TC3 - DMA1 Channel3 transfer complete flag.
 241:Drivers/src/ch32v20x_dma.c ****  *            DMA1_FLAG_HT3 - DMA1 Channel3 half transfer flag.
 242:Drivers/src/ch32v20x_dma.c ****  *            DMA1_FLAG_TE3 - DMA1 Channel3 transfer error flag.
 243:Drivers/src/ch32v20x_dma.c ****  *            DMA1_FLAG_GL4 - DMA1 Channel4 global flag.
 244:Drivers/src/ch32v20x_dma.c ****  *            DMA1_FLAG_TC4 - DMA1 Channel4 transfer complete flag.
 245:Drivers/src/ch32v20x_dma.c ****  *            DMA1_FLAG_HT4 - DMA1 Channel4 half transfer flag.
 246:Drivers/src/ch32v20x_dma.c ****  *            DMA1_FLAG_TE4 - DMA1 Channel4 transfer error flag.
 247:Drivers/src/ch32v20x_dma.c ****  *            DMA1_FLAG_GL5 - DMA1 Channel5 global flag.
 248:Drivers/src/ch32v20x_dma.c ****  *            DMA1_FLAG_TC5 - DMA1 Channel5 transfer complete flag.
 249:Drivers/src/ch32v20x_dma.c ****  *            DMA1_FLAG_HT5 - DMA1 Channel5 half transfer flag.
 250:Drivers/src/ch32v20x_dma.c ****  *            DMA1_FLAG_TE5 - DMA1 Channel5 transfer error flag.
 251:Drivers/src/ch32v20x_dma.c ****  *            DMA1_FLAG_GL6 - DMA1 Channel6 global flag.
 252:Drivers/src/ch32v20x_dma.c ****  *            DMA1_FLAG_TC6 - DMA1 Channel6 transfer complete flag.
 253:Drivers/src/ch32v20x_dma.c ****  *            DMA1_FLAG_HT6 - DMA1 Channel6 half transfer flag.
 254:Drivers/src/ch32v20x_dma.c ****  *            DMA1_FLAG_TE6 - DMA1 Channel6 transfer error flag.
 255:Drivers/src/ch32v20x_dma.c ****  *            DMA1_FLAG_GL7 - DMA1 Channel7 global flag.
 256:Drivers/src/ch32v20x_dma.c ****  *            DMA1_FLAG_TC7 - DMA1 Channel7 transfer complete flag.
 257:Drivers/src/ch32v20x_dma.c ****  *            DMA1_FLAG_HT7 - DMA1 Channel7 half transfer flag.
 258:Drivers/src/ch32v20x_dma.c ****  *            DMA1_FLAG_TE7 - DMA1 Channel7 transfer error flag.
 259:Drivers/src/ch32v20x_dma.c ****  *            DMA2_FLAG_GL1 - DMA2 Channel1 global flag.
 260:Drivers/src/ch32v20x_dma.c ****  *            DMA2_FLAG_TC1 - DMA2 Channel1 transfer complete flag.
 261:Drivers/src/ch32v20x_dma.c ****  *            DMA2_FLAG_HT1 - DMA2 Channel1 half transfer flag.
 262:Drivers/src/ch32v20x_dma.c ****  *            DMA2_FLAG_TE1 - DMA2 Channel1 transfer error flag.
 263:Drivers/src/ch32v20x_dma.c **** 
 264:Drivers/src/ch32v20x_dma.c ****  * @return  The new state of DMAy_FLAG (SET or RESET).
 265:Drivers/src/ch32v20x_dma.c ****  */
 266:Drivers/src/ch32v20x_dma.c **** FlagStatus DMA_GetFlagStatus(uint32_t DMAy_FLAG)
 267:Drivers/src/ch32v20x_dma.c **** {
GAS LISTING C:\Users\SOLDER~1\AppData\Local\Temp\ccUIzJuS.s 			page 15


 517              		.loc 1 267 1
 518              		.cfi_startproc
 519 0000 7971     		addi	sp,sp,-48
 520              		.cfi_def_cfa_offset 48
 521 0002 22D6     		sw	s0,44(sp)
 522              		.cfi_offset 8, -4
 523 0004 0018     		addi	s0,sp,48
 524              		.cfi_def_cfa 8, 0
 525 0006 232EA4FC 		sw	a0,-36(s0)
 268:Drivers/src/ch32v20x_dma.c ****     FlagStatus bitstatus = RESET;
 526              		.loc 1 268 16
 527 000a 232604FE 		sw	zero,-20(s0)
 269:Drivers/src/ch32v20x_dma.c ****     uint32_t   tmpreg = 0;
 528              		.loc 1 269 16
 529 000e 232404FE 		sw	zero,-24(s0)
 270:Drivers/src/ch32v20x_dma.c **** 
 271:Drivers/src/ch32v20x_dma.c ****     tmpreg = DMA1->INTFR;
 530              		.loc 1 271 18
 531 0012 B7070240 		li	a5,1073872896
 532              		.loc 1 271 12
 533 0016 9C43     		lw	a5,0(a5)
 534 0018 2324F4FE 		sw	a5,-24(s0)
 272:Drivers/src/ch32v20x_dma.c **** 
 273:Drivers/src/ch32v20x_dma.c ****     if((tmpreg & DMAy_FLAG) != (uint32_t)RESET)
 535              		.loc 1 273 16
 536 001c 032784FE 		lw	a4,-24(s0)
 537 0020 8327C4FD 		lw	a5,-36(s0)
 538 0024 F98F     		and	a5,a4,a5
 539              		.loc 1 273 7
 540 0026 89C7     		beq	a5,zero,.L25
 274:Drivers/src/ch32v20x_dma.c ****     {
 275:Drivers/src/ch32v20x_dma.c ****         bitstatus = SET;
 541              		.loc 1 275 19
 542 0028 8547     		li	a5,1
 543 002a 2326F4FE 		sw	a5,-20(s0)
 544 002e 19A0     		j	.L26
 545              	.L25:
 276:Drivers/src/ch32v20x_dma.c ****     }
 277:Drivers/src/ch32v20x_dma.c ****     else
 278:Drivers/src/ch32v20x_dma.c ****     {
 279:Drivers/src/ch32v20x_dma.c ****         bitstatus = RESET;
 546              		.loc 1 279 19
 547 0030 232604FE 		sw	zero,-20(s0)
 548              	.L26:
 280:Drivers/src/ch32v20x_dma.c ****     }
 281:Drivers/src/ch32v20x_dma.c **** 
 282:Drivers/src/ch32v20x_dma.c ****     return bitstatus;
 549              		.loc 1 282 12
 550 0034 8327C4FE 		lw	a5,-20(s0)
 283:Drivers/src/ch32v20x_dma.c **** }
 551              		.loc 1 283 1
 552 0038 3E85     		mv	a0,a5
 553 003a 3254     		lw	s0,44(sp)
 554              		.cfi_restore 8
 555              		.cfi_def_cfa 2, 48
 556 003c 4561     		addi	sp,sp,48
 557              		.cfi_def_cfa_offset 0
GAS LISTING C:\Users\SOLDER~1\AppData\Local\Temp\ccUIzJuS.s 			page 16


 558 003e 8280     		jr	ra
 559              		.cfi_endproc
 560              	.LFE23:
 562              		.section	.text.DMA_ClearFlag,"ax",@progbits
 563              		.align	1
 564              		.globl	DMA_ClearFlag
 566              	DMA_ClearFlag:
 567              	.LFB24:
 284:Drivers/src/ch32v20x_dma.c **** 
 285:Drivers/src/ch32v20x_dma.c **** /*********************************************************************
 286:Drivers/src/ch32v20x_dma.c ****  * @fn      DMA_ClearFlag
 287:Drivers/src/ch32v20x_dma.c ****  *
 288:Drivers/src/ch32v20x_dma.c ****  * @brief   Clears the DMAy Channelx's pending flags.
 289:Drivers/src/ch32v20x_dma.c ****  *
 290:Drivers/src/ch32v20x_dma.c ****  * @param   DMAy_FLAG - specifies the flag to check.
 291:Drivers/src/ch32v20x_dma.c ****  *            DMA1_FLAG_GL1 - DMA1 Channel1 global flag.
 292:Drivers/src/ch32v20x_dma.c ****  *            DMA1_FLAG_TC1 - DMA1 Channel1 transfer complete flag.
 293:Drivers/src/ch32v20x_dma.c ****  *            DMA1_FLAG_HT1 - DMA1 Channel1 half transfer flag.
 294:Drivers/src/ch32v20x_dma.c ****  *            DMA1_FLAG_TE1 - DMA1 Channel1 transfer error flag.
 295:Drivers/src/ch32v20x_dma.c ****  *            DMA1_FLAG_GL2 - DMA1 Channel2 global flag.
 296:Drivers/src/ch32v20x_dma.c ****  *            DMA1_FLAG_TC2 - DMA1 Channel2 transfer complete flag.
 297:Drivers/src/ch32v20x_dma.c ****  *            DMA1_FLAG_HT2 - DMA1 Channel2 half transfer flag.
 298:Drivers/src/ch32v20x_dma.c ****  *            DMA1_FLAG_TE2 - DMA1 Channel2 transfer error flag.
 299:Drivers/src/ch32v20x_dma.c ****  *            DMA1_FLAG_GL3 - DMA1 Channel3 global flag.
 300:Drivers/src/ch32v20x_dma.c ****  *            DMA1_FLAG_TC3 - DMA1 Channel3 transfer complete flag.
 301:Drivers/src/ch32v20x_dma.c ****  *            DMA1_FLAG_HT3 - DMA1 Channel3 half transfer flag.
 302:Drivers/src/ch32v20x_dma.c ****  *            DMA1_FLAG_TE3 - DMA1 Channel3 transfer error flag.
 303:Drivers/src/ch32v20x_dma.c ****  *            DMA1_FLAG_GL4 - DMA1 Channel4 global flag.
 304:Drivers/src/ch32v20x_dma.c ****  *            DMA1_FLAG_TC4 - DMA1 Channel4 transfer complete flag.
 305:Drivers/src/ch32v20x_dma.c ****  *            DMA1_FLAG_HT4 - DMA1 Channel4 half transfer flag.
 306:Drivers/src/ch32v20x_dma.c ****  *            DMA1_FLAG_TE4 - DMA1 Channel4 transfer error flag.
 307:Drivers/src/ch32v20x_dma.c ****  *            DMA1_FLAG_GL5 - DMA1 Channel5 global flag.
 308:Drivers/src/ch32v20x_dma.c ****  *            DMA1_FLAG_TC5 - DMA1 Channel5 transfer complete flag.
 309:Drivers/src/ch32v20x_dma.c ****  *            DMA1_FLAG_HT5 - DMA1 Channel5 half transfer flag.
 310:Drivers/src/ch32v20x_dma.c ****  *            DMA1_FLAG_TE5 - DMA1 Channel5 transfer error flag.
 311:Drivers/src/ch32v20x_dma.c ****  *            DMA1_FLAG_GL6 - DMA1 Channel6 global flag.
 312:Drivers/src/ch32v20x_dma.c ****  *            DMA1_FLAG_TC6 - DMA1 Channel6 transfer complete flag.
 313:Drivers/src/ch32v20x_dma.c ****  *            DMA1_FLAG_HT6 - DMA1 Channel6 half transfer flag.
 314:Drivers/src/ch32v20x_dma.c ****  *            DMA1_FLAG_TE6 - DMA1 Channel6 transfer error flag.
 315:Drivers/src/ch32v20x_dma.c ****  *            DMA1_FLAG_GL7 - DMA1 Channel7 global flag.
 316:Drivers/src/ch32v20x_dma.c ****  *            DMA1_FLAG_TC7 - DMA1 Channel7 transfer complete flag.
 317:Drivers/src/ch32v20x_dma.c ****  *            DMA1_FLAG_HT7 - DMA1 Channel7 half transfer flag.
 318:Drivers/src/ch32v20x_dma.c ****  *            DMA1_FLAG_TE7 - DMA1 Channel7 transfer error flag.
 319:Drivers/src/ch32v20x_dma.c ****  *            DMA2_FLAG_GL1 - DMA2 Channel1 global flag.
 320:Drivers/src/ch32v20x_dma.c ****  *            DMA2_FLAG_TC1 - DMA2 Channel1 transfer complete flag.
 321:Drivers/src/ch32v20x_dma.c ****  *            DMA2_FLAG_HT1 - DMA2 Channel1 half transfer flag.
 322:Drivers/src/ch32v20x_dma.c ****  *            DMA2_FLAG_TE1 - DMA2 Channel1 transfer error flag.
 323:Drivers/src/ch32v20x_dma.c ****  * @return  none
 324:Drivers/src/ch32v20x_dma.c ****  */
 325:Drivers/src/ch32v20x_dma.c **** void DMA_ClearFlag(uint32_t DMAy_FLAG)
 326:Drivers/src/ch32v20x_dma.c **** {
 568              		.loc 1 326 1
 569              		.cfi_startproc
 570 0000 0111     		addi	sp,sp,-32
 571              		.cfi_def_cfa_offset 32
 572 0002 22CE     		sw	s0,28(sp)
 573              		.cfi_offset 8, -4
GAS LISTING C:\Users\SOLDER~1\AppData\Local\Temp\ccUIzJuS.s 			page 17


 574 0004 0010     		addi	s0,sp,32
 575              		.cfi_def_cfa 8, 0
 576 0006 2326A4FE 		sw	a0,-20(s0)
 327:Drivers/src/ch32v20x_dma.c ****     DMA1->INTFCR = DMAy_FLAG;
 577              		.loc 1 327 9
 578 000a B7070240 		li	a5,1073872896
 579              		.loc 1 327 18
 580 000e 0327C4FE 		lw	a4,-20(s0)
 581 0012 D8C3     		sw	a4,4(a5)
 328:Drivers/src/ch32v20x_dma.c **** }
 582              		.loc 1 328 1
 583 0014 0100     		nop
 584 0016 7244     		lw	s0,28(sp)
 585              		.cfi_restore 8
 586              		.cfi_def_cfa 2, 32
 587 0018 0561     		addi	sp,sp,32
 588              		.cfi_def_cfa_offset 0
 589 001a 8280     		jr	ra
 590              		.cfi_endproc
 591              	.LFE24:
 593              		.section	.text.DMA_GetITStatus,"ax",@progbits
 594              		.align	1
 595              		.globl	DMA_GetITStatus
 597              	DMA_GetITStatus:
 598              	.LFB25:
 329:Drivers/src/ch32v20x_dma.c **** 
 330:Drivers/src/ch32v20x_dma.c **** /*********************************************************************
 331:Drivers/src/ch32v20x_dma.c ****  * @fn      DMA_GetITStatus
 332:Drivers/src/ch32v20x_dma.c ****  *
 333:Drivers/src/ch32v20x_dma.c ****  * @brief   Checks whether the specified DMAy Channelx interrupt has
 334:Drivers/src/ch32v20x_dma.c ****  *        occurred or not.
 335:Drivers/src/ch32v20x_dma.c ****  *
 336:Drivers/src/ch32v20x_dma.c ****  * @param   DMAy_IT - specifies the DMAy interrupt source to check.
 337:Drivers/src/ch32v20x_dma.c ****  *            DMA1_IT_GL1 - DMA1 Channel1 global flag.
 338:Drivers/src/ch32v20x_dma.c ****  *            DMA1_IT_TC1 - DMA1 Channel1 transfer complete flag.
 339:Drivers/src/ch32v20x_dma.c ****  *            DMA1_IT_HT1 - DMA1 Channel1 half transfer flag.
 340:Drivers/src/ch32v20x_dma.c ****  *            DMA1_IT_TE1 - DMA1 Channel1 transfer error flag.
 341:Drivers/src/ch32v20x_dma.c ****  *            DMA1_IT_GL2 - DMA1 Channel2 global flag.
 342:Drivers/src/ch32v20x_dma.c ****  *            DMA1_IT_TC2 - DMA1 Channel2 transfer complete flag.
 343:Drivers/src/ch32v20x_dma.c ****  *            DMA1_IT_HT2 - DMA1 Channel2 half transfer flag.
 344:Drivers/src/ch32v20x_dma.c ****  *            DMA1_IT_TE2 - DMA1 Channel2 transfer error flag.
 345:Drivers/src/ch32v20x_dma.c ****  *            DMA1_IT_GL3 - DMA1 Channel3 global flag.
 346:Drivers/src/ch32v20x_dma.c ****  *            DMA1_IT_TC3 - DMA1 Channel3 transfer complete flag.
 347:Drivers/src/ch32v20x_dma.c ****  *            DMA1_IT_HT3 - DMA1 Channel3 half transfer flag.
 348:Drivers/src/ch32v20x_dma.c ****  *            DMA1_IT_TE3 - DMA1 Channel3 transfer error flag.
 349:Drivers/src/ch32v20x_dma.c ****  *            DMA1_IT_GL4 - DMA1 Channel4 global flag.
 350:Drivers/src/ch32v20x_dma.c ****  *            DMA1_IT_TC4 - DMA1 Channel4 transfer complete flag.
 351:Drivers/src/ch32v20x_dma.c ****  *            DMA1_IT_HT4 - DMA1 Channel4 half transfer flag.
 352:Drivers/src/ch32v20x_dma.c ****  *            DMA1_IT_TE4 - DMA1 Channel4 transfer error flag.
 353:Drivers/src/ch32v20x_dma.c ****  *            DMA1_IT_GL5 - DMA1 Channel5 global flag.
 354:Drivers/src/ch32v20x_dma.c ****  *            DMA1_IT_TC5 - DMA1 Channel5 transfer complete flag.
 355:Drivers/src/ch32v20x_dma.c ****  *            DMA1_IT_HT5 - DMA1 Channel5 half transfer flag.
 356:Drivers/src/ch32v20x_dma.c ****  *            DMA1_IT_TE5 - DMA1 Channel5 transfer error flag.
 357:Drivers/src/ch32v20x_dma.c ****  *            DMA1_IT_GL6 - DMA1 Channel6 global flag.
 358:Drivers/src/ch32v20x_dma.c ****  *            DMA1_IT_TC6 - DMA1 Channel6 transfer complete flag.
 359:Drivers/src/ch32v20x_dma.c ****  *            DMA1_IT_HT6 - DMA1 Channel6 half transfer flag.
 360:Drivers/src/ch32v20x_dma.c ****  *            DMA1_IT_TE6 - DMA1 Channel6 transfer error flag.
GAS LISTING C:\Users\SOLDER~1\AppData\Local\Temp\ccUIzJuS.s 			page 18


 361:Drivers/src/ch32v20x_dma.c ****  *            DMA1_IT_GL7 - DMA1 Channel7 global flag.
 362:Drivers/src/ch32v20x_dma.c ****  *            DMA1_IT_TC7 - DMA1 Channel7 transfer complete flag.
 363:Drivers/src/ch32v20x_dma.c ****  *            DMA1_IT_HT7 - DMA1 Channel7 half transfer flag.
 364:Drivers/src/ch32v20x_dma.c ****  *            DMA1_IT_TE7 - DMA1 Channel7 transfer error flag.
 365:Drivers/src/ch32v20x_dma.c ****  *            DMA2_IT_GL1 - DMA2 Channel1 global flag.
 366:Drivers/src/ch32v20x_dma.c ****  *            DMA2_IT_TC1 - DMA2 Channel1 transfer complete flag.
 367:Drivers/src/ch32v20x_dma.c ****  *            DMA2_IT_HT1 - DMA2 Channel1 half transfer flag.
 368:Drivers/src/ch32v20x_dma.c ****  *            DMA2_IT_TE1 - DMA2 Channel1 transfer error flag.
 369:Drivers/src/ch32v20x_dma.c ****  * @return  The new state of DMAy_IT (SET or RESET).
 370:Drivers/src/ch32v20x_dma.c ****  */
 371:Drivers/src/ch32v20x_dma.c **** ITStatus DMA_GetITStatus(uint32_t DMAy_IT)
 372:Drivers/src/ch32v20x_dma.c **** {
 599              		.loc 1 372 1
 600              		.cfi_startproc
 601 0000 7971     		addi	sp,sp,-48
 602              		.cfi_def_cfa_offset 48
 603 0002 22D6     		sw	s0,44(sp)
 604              		.cfi_offset 8, -4
 605 0004 0018     		addi	s0,sp,48
 606              		.cfi_def_cfa 8, 0
 607 0006 232EA4FC 		sw	a0,-36(s0)
 373:Drivers/src/ch32v20x_dma.c ****     ITStatus bitstatus = RESET;
 608              		.loc 1 373 14
 609 000a 232604FE 		sw	zero,-20(s0)
 374:Drivers/src/ch32v20x_dma.c ****     uint32_t tmpreg = 0;
 610              		.loc 1 374 14
 611 000e 232404FE 		sw	zero,-24(s0)
 375:Drivers/src/ch32v20x_dma.c **** 
 376:Drivers/src/ch32v20x_dma.c ****     tmpreg = DMA1->INTFR;
 612              		.loc 1 376 18
 613 0012 B7070240 		li	a5,1073872896
 614              		.loc 1 376 12
 615 0016 9C43     		lw	a5,0(a5)
 616 0018 2324F4FE 		sw	a5,-24(s0)
 377:Drivers/src/ch32v20x_dma.c **** 
 378:Drivers/src/ch32v20x_dma.c ****     if((tmpreg & DMAy_IT) != (uint32_t)RESET)
 617              		.loc 1 378 16
 618 001c 032784FE 		lw	a4,-24(s0)
 619 0020 8327C4FD 		lw	a5,-36(s0)
 620 0024 F98F     		and	a5,a4,a5
 621              		.loc 1 378 7
 622 0026 89C7     		beq	a5,zero,.L30
 379:Drivers/src/ch32v20x_dma.c ****     {
 380:Drivers/src/ch32v20x_dma.c ****         bitstatus = SET;
 623              		.loc 1 380 19
 624 0028 8547     		li	a5,1
 625 002a 2326F4FE 		sw	a5,-20(s0)
 626 002e 19A0     		j	.L31
 627              	.L30:
 381:Drivers/src/ch32v20x_dma.c ****     }
 382:Drivers/src/ch32v20x_dma.c ****     else
 383:Drivers/src/ch32v20x_dma.c ****     {
 384:Drivers/src/ch32v20x_dma.c ****         bitstatus = RESET;
 628              		.loc 1 384 19
 629 0030 232604FE 		sw	zero,-20(s0)
 630              	.L31:
 385:Drivers/src/ch32v20x_dma.c ****     }
GAS LISTING C:\Users\SOLDER~1\AppData\Local\Temp\ccUIzJuS.s 			page 19


 386:Drivers/src/ch32v20x_dma.c ****     return bitstatus;
 631              		.loc 1 386 12
 632 0034 8327C4FE 		lw	a5,-20(s0)
 387:Drivers/src/ch32v20x_dma.c **** }
 633              		.loc 1 387 1
 634 0038 3E85     		mv	a0,a5
 635 003a 3254     		lw	s0,44(sp)
 636              		.cfi_restore 8
 637              		.cfi_def_cfa 2, 48
 638 003c 4561     		addi	sp,sp,48
 639              		.cfi_def_cfa_offset 0
 640 003e 8280     		jr	ra
 641              		.cfi_endproc
 642              	.LFE25:
 644              		.section	.text.DMA_ClearITPendingBit,"ax",@progbits
 645              		.align	1
 646              		.globl	DMA_ClearITPendingBit
 648              	DMA_ClearITPendingBit:
 649              	.LFB26:
 388:Drivers/src/ch32v20x_dma.c **** 
 389:Drivers/src/ch32v20x_dma.c **** /*********************************************************************
 390:Drivers/src/ch32v20x_dma.c ****  * @fn      DMA_ClearITPendingBit
 391:Drivers/src/ch32v20x_dma.c ****  *
 392:Drivers/src/ch32v20x_dma.c ****  * @brief   Clears the DMAy Channelx's interrupt pending bits.
 393:Drivers/src/ch32v20x_dma.c ****  *
 394:Drivers/src/ch32v20x_dma.c ****  * @param   DMAy_IT - specifies the DMAy interrupt source to check.
 395:Drivers/src/ch32v20x_dma.c ****  *            DMA1_IT_GL1 - DMA1 Channel1 global flag.
 396:Drivers/src/ch32v20x_dma.c ****  *            DMA1_IT_TC1 - DMA1 Channel1 transfer complete flag.
 397:Drivers/src/ch32v20x_dma.c ****  *            DMA1_IT_HT1 - DMA1 Channel1 half transfer flag.
 398:Drivers/src/ch32v20x_dma.c ****  *            DMA1_IT_TE1 - DMA1 Channel1 transfer error flag.
 399:Drivers/src/ch32v20x_dma.c ****  *            DMA1_IT_GL2 - DMA1 Channel2 global flag.
 400:Drivers/src/ch32v20x_dma.c ****  *            DMA1_IT_TC2 - DMA1 Channel2 transfer complete flag.
 401:Drivers/src/ch32v20x_dma.c ****  *            DMA1_IT_HT2 - DMA1 Channel2 half transfer flag.
 402:Drivers/src/ch32v20x_dma.c ****  *            DMA1_IT_TE2 - DMA1 Channel2 transfer error flag.
 403:Drivers/src/ch32v20x_dma.c ****  *            DMA1_IT_GL3 - DMA1 Channel3 global flag.
 404:Drivers/src/ch32v20x_dma.c ****  *            DMA1_IT_TC3 - DMA1 Channel3 transfer complete flag.
 405:Drivers/src/ch32v20x_dma.c ****  *            DMA1_IT_HT3 - DMA1 Channel3 half transfer flag.
 406:Drivers/src/ch32v20x_dma.c ****  *            DMA1_IT_TE3 - DMA1 Channel3 transfer error flag.
 407:Drivers/src/ch32v20x_dma.c ****  *            DMA1_IT_GL4 - DMA1 Channel4 global flag.
 408:Drivers/src/ch32v20x_dma.c ****  *            DMA1_IT_TC4 - DMA1 Channel4 transfer complete flag.
 409:Drivers/src/ch32v20x_dma.c ****  *            DMA1_IT_HT4 - DMA1 Channel4 half transfer flag.
 410:Drivers/src/ch32v20x_dma.c ****  *            DMA1_IT_TE4 - DMA1 Channel4 transfer error flag.
 411:Drivers/src/ch32v20x_dma.c ****  *            DMA1_IT_GL5 - DMA1 Channel5 global flag.
 412:Drivers/src/ch32v20x_dma.c ****  *            DMA1_IT_TC5 - DMA1 Channel5 transfer complete flag.
 413:Drivers/src/ch32v20x_dma.c ****  *            DMA1_IT_HT5 - DMA1 Channel5 half transfer flag.
 414:Drivers/src/ch32v20x_dma.c ****  *            DMA1_IT_TE5 - DMA1 Channel5 transfer error flag.
 415:Drivers/src/ch32v20x_dma.c ****  *            DMA1_IT_GL6 - DMA1 Channel6 global flag.
 416:Drivers/src/ch32v20x_dma.c ****  *            DMA1_IT_TC6 - DMA1 Channel6 transfer complete flag.
 417:Drivers/src/ch32v20x_dma.c ****  *            DMA1_IT_HT6 - DMA1 Channel6 half transfer flag.
 418:Drivers/src/ch32v20x_dma.c ****  *            DMA1_IT_TE6 - DMA1 Channel6 transfer error flag.
 419:Drivers/src/ch32v20x_dma.c ****  *            DMA1_IT_GL7 - DMA1 Channel7 global flag.
 420:Drivers/src/ch32v20x_dma.c ****  *            DMA1_IT_TC7 - DMA1 Channel7 transfer complete flag.
 421:Drivers/src/ch32v20x_dma.c ****  *            DMA1_IT_HT7 - DMA1 Channel7 half transfer flag.
 422:Drivers/src/ch32v20x_dma.c ****  *            DMA1_IT_TE7 - DMA1 Channel7 transfer error flag.
 423:Drivers/src/ch32v20x_dma.c ****  *            DMA2_IT_GL1 - DMA2 Channel1 global flag.
 424:Drivers/src/ch32v20x_dma.c ****  *            DMA2_IT_TC1 - DMA2 Channel1 transfer complete flag.
 425:Drivers/src/ch32v20x_dma.c ****  *            DMA2_IT_HT1 - DMA2 Channel1 half transfer flag.
GAS LISTING C:\Users\SOLDER~1\AppData\Local\Temp\ccUIzJuS.s 			page 20


 426:Drivers/src/ch32v20x_dma.c ****  *            DMA2_IT_TE1 - DMA2 Channel1 transfer error flag.
 427:Drivers/src/ch32v20x_dma.c ****  * @return  none
 428:Drivers/src/ch32v20x_dma.c ****  */
 429:Drivers/src/ch32v20x_dma.c **** void DMA_ClearITPendingBit(uint32_t DMAy_IT)
 430:Drivers/src/ch32v20x_dma.c **** {
 650              		.loc 1 430 1
 651              		.cfi_startproc
 652 0000 0111     		addi	sp,sp,-32
 653              		.cfi_def_cfa_offset 32
 654 0002 22CE     		sw	s0,28(sp)
 655              		.cfi_offset 8, -4
 656 0004 0010     		addi	s0,sp,32
 657              		.cfi_def_cfa 8, 0
 658 0006 2326A4FE 		sw	a0,-20(s0)
 431:Drivers/src/ch32v20x_dma.c ****     DMA1->INTFCR = DMAy_IT;
 659              		.loc 1 431 9
 660 000a B7070240 		li	a5,1073872896
 661              		.loc 1 431 18
 662 000e 0327C4FE 		lw	a4,-20(s0)
 663 0012 D8C3     		sw	a4,4(a5)
 432:Drivers/src/ch32v20x_dma.c **** }
 664              		.loc 1 432 1
 665 0014 0100     		nop
 666 0016 7244     		lw	s0,28(sp)
 667              		.cfi_restore 8
 668              		.cfi_def_cfa 2, 32
 669 0018 0561     		addi	sp,sp,32
 670              		.cfi_def_cfa_offset 0
 671 001a 8280     		jr	ra
 672              		.cfi_endproc
 673              	.LFE26:
 675              		.text
 676              	.Letext0:
 677              		.file 2 "c:\\dev_tools\\ch32_tools\\risc-v_embedded_gcc12\\riscv-none-elf\\include\\machine\\_defa
 678              		.file 3 "c:\\dev_tools\\ch32_tools\\risc-v_embedded_gcc12\\riscv-none-elf\\include\\sys\\_stdint.h
 679              		.file 4 "Drivers/inc/core_riscv.h"
 680              		.file 5 "Drivers/inc/ch32v20x.h"
 681              		.file 6 "Drivers/inc/ch32v20x_dma.h"
GAS LISTING C:\Users\SOLDER~1\AppData\Local\Temp\ccUIzJuS.s 			page 21


DEFINED SYMBOLS
                            *ABS*:0000000000000000 ch32v20x_dma.c
C:\Users\SOLDER~1\AppData\Local\Temp\ccUIzJuS.s:14     .text.DMA_DeInit:0000000000000000 DMA_DeInit
C:\Users\SOLDER~1\AppData\Local\Temp\ccUIzJuS.s:18     .text.DMA_DeInit:0000000000000000 .L0 
C:\Users\SOLDER~1\AppData\Local\Temp\ccUIzJuS.s:19     .text.DMA_DeInit:0000000000000000 $x
C:\Users\SOLDER~1\AppData\Local\Temp\ccUIzJuS.s:19     .text.DMA_DeInit:0000000000000000 .L0 
C:\Users\SOLDER~1\AppData\Local\Temp\ccUIzJuS.s:20     .text.DMA_DeInit:0000000000000002 .L0 
C:\Users\SOLDER~1\AppData\Local\Temp\ccUIzJuS.s:22     .text.DMA_DeInit:0000000000000004 .L0 
C:\Users\SOLDER~1\AppData\Local\Temp\ccUIzJuS.s:24     .text.DMA_DeInit:0000000000000006 .L0 
C:\Users\SOLDER~1\AppData\Local\Temp\ccUIzJuS.s:27     .text.DMA_DeInit:000000000000000a .L0 
C:\Users\SOLDER~1\AppData\Local\Temp\ccUIzJuS.s:30     .text.DMA_DeInit:0000000000000010 .L0 
C:\Users\SOLDER~1\AppData\Local\Temp\ccUIzJuS.s:36     .text.DMA_DeInit:000000000000001c .L0 
C:\Users\SOLDER~1\AppData\Local\Temp\ccUIzJuS.s:39     .text.DMA_DeInit:0000000000000024 .L0 
C:\Users\SOLDER~1\AppData\Local\Temp\ccUIzJuS.s:42     .text.DMA_DeInit:000000000000002c .L0 
C:\Users\SOLDER~1\AppData\Local\Temp\ccUIzJuS.s:45     .text.DMA_DeInit:0000000000000034 .L0 
C:\Users\SOLDER~1\AppData\Local\Temp\ccUIzJuS.s:48     .text.DMA_DeInit:000000000000003c .L0 
C:\Users\SOLDER~1\AppData\Local\Temp\ccUIzJuS.s:53     .text.DMA_DeInit:000000000000004a .L0 
C:\Users\SOLDER~1\AppData\Local\Temp\ccUIzJuS.s:57     .text.DMA_DeInit:0000000000000054 .L0 
C:\Users\SOLDER~1\AppData\Local\Temp\ccUIzJuS.s:60     .text.DMA_DeInit:000000000000005a .L0 
C:\Users\SOLDER~1\AppData\Local\Temp\ccUIzJuS.s:63     .text.DMA_DeInit:000000000000005c .L0 
C:\Users\SOLDER~1\AppData\Local\Temp\ccUIzJuS.s:68     .text.DMA_DeInit:000000000000006a .L0 
C:\Users\SOLDER~1\AppData\Local\Temp\ccUIzJuS.s:72     .text.DMA_DeInit:0000000000000074 .L0 
C:\Users\SOLDER~1\AppData\Local\Temp\ccUIzJuS.s:75     .text.DMA_DeInit:000000000000007a .L0 
C:\Users\SOLDER~1\AppData\Local\Temp\ccUIzJuS.s:78     .text.DMA_DeInit:000000000000007c .L0 
C:\Users\SOLDER~1\AppData\Local\Temp\ccUIzJuS.s:83     .text.DMA_DeInit:000000000000008c .L0 
C:\Users\SOLDER~1\AppData\Local\Temp\ccUIzJuS.s:87     .text.DMA_DeInit:0000000000000096 .L0 
C:\Users\SOLDER~1\AppData\Local\Temp\ccUIzJuS.s:92     .text.DMA_DeInit:00000000000000a0 .L0 
C:\Users\SOLDER~1\AppData\Local\Temp\ccUIzJuS.s:95     .text.DMA_DeInit:00000000000000a2 .L0 
C:\Users\SOLDER~1\AppData\Local\Temp\ccUIzJuS.s:100    .text.DMA_DeInit:00000000000000b2 .L0 
C:\Users\SOLDER~1\AppData\Local\Temp\ccUIzJuS.s:104    .text.DMA_DeInit:00000000000000bc .L0 
C:\Users\SOLDER~1\AppData\Local\Temp\ccUIzJuS.s:108    .text.DMA_DeInit:00000000000000c2 .L0 
C:\Users\SOLDER~1\AppData\Local\Temp\ccUIzJuS.s:111    .text.DMA_DeInit:00000000000000c4 .L0 
C:\Users\SOLDER~1\AppData\Local\Temp\ccUIzJuS.s:116    .text.DMA_DeInit:00000000000000d4 .L0 
C:\Users\SOLDER~1\AppData\Local\Temp\ccUIzJuS.s:120    .text.DMA_DeInit:00000000000000de .L0 
C:\Users\SOLDER~1\AppData\Local\Temp\ccUIzJuS.s:124    .text.DMA_DeInit:00000000000000e6 .L0 
C:\Users\SOLDER~1\AppData\Local\Temp\ccUIzJuS.s:127    .text.DMA_DeInit:00000000000000e8 .L0 
C:\Users\SOLDER~1\AppData\Local\Temp\ccUIzJuS.s:132    .text.DMA_DeInit:00000000000000f8 .L0 
C:\Users\SOLDER~1\AppData\Local\Temp\ccUIzJuS.s:136    .text.DMA_DeInit:0000000000000102 .L0 
C:\Users\SOLDER~1\AppData\Local\Temp\ccUIzJuS.s:140    .text.DMA_DeInit:000000000000010a .L0 
C:\Users\SOLDER~1\AppData\Local\Temp\ccUIzJuS.s:143    .text.DMA_DeInit:000000000000010c .L0 
C:\Users\SOLDER~1\AppData\Local\Temp\ccUIzJuS.s:148    .text.DMA_DeInit:000000000000011c .L0 
C:\Users\SOLDER~1\AppData\Local\Temp\ccUIzJuS.s:152    .text.DMA_DeInit:0000000000000126 .L0 
C:\Users\SOLDER~1\AppData\Local\Temp\ccUIzJuS.s:156    .text.DMA_DeInit:000000000000012e .L0 
C:\Users\SOLDER~1\AppData\Local\Temp\ccUIzJuS.s:159    .text.DMA_DeInit:0000000000000130 .L0 
C:\Users\SOLDER~1\AppData\Local\Temp\ccUIzJuS.s:164    .text.DMA_DeInit:0000000000000140 .L0 
C:\Users\SOLDER~1\AppData\Local\Temp\ccUIzJuS.s:168    .text.DMA_DeInit:000000000000014a .L0 
C:\Users\SOLDER~1\AppData\Local\Temp\ccUIzJuS.s:172    .text.DMA_DeInit:0000000000000150 .L0 
C:\Users\SOLDER~1\AppData\Local\Temp\ccUIzJuS.s:174    .text.DMA_DeInit:0000000000000154 .L0 
C:\Users\SOLDER~1\AppData\Local\Temp\ccUIzJuS.s:175    .text.DMA_DeInit:0000000000000154 .L0 
C:\Users\SOLDER~1\AppData\Local\Temp\ccUIzJuS.s:177    .text.DMA_DeInit:0000000000000156 .L0 
C:\Users\SOLDER~1\AppData\Local\Temp\ccUIzJuS.s:179    .text.DMA_DeInit:0000000000000158 .L0 
C:\Users\SOLDER~1\AppData\Local\Temp\ccUIzJuS.s:186    .text.DMA_Init:0000000000000000 DMA_Init
C:\Users\SOLDER~1\AppData\Local\Temp\ccUIzJuS.s:189    .text.DMA_Init:0000000000000000 .L0 
C:\Users\SOLDER~1\AppData\Local\Temp\ccUIzJuS.s:190    .text.DMA_Init:0000000000000000 $x
C:\Users\SOLDER~1\AppData\Local\Temp\ccUIzJuS.s:190    .text.DMA_Init:0000000000000000 .L0 
C:\Users\SOLDER~1\AppData\Local\Temp\ccUIzJuS.s:191    .text.DMA_Init:0000000000000002 .L0 
C:\Users\SOLDER~1\AppData\Local\Temp\ccUIzJuS.s:193    .text.DMA_Init:0000000000000004 .L0 
GAS LISTING C:\Users\SOLDER~1\AppData\Local\Temp\ccUIzJuS.s 			page 22


C:\Users\SOLDER~1\AppData\Local\Temp\ccUIzJuS.s:195    .text.DMA_Init:0000000000000006 .L0 
C:\Users\SOLDER~1\AppData\Local\Temp\ccUIzJuS.s:199    .text.DMA_Init:000000000000000e .L0 
C:\Users\SOLDER~1\AppData\Local\Temp\ccUIzJuS.s:201    .text.DMA_Init:0000000000000012 .L0 
C:\Users\SOLDER~1\AppData\Local\Temp\ccUIzJuS.s:205    .text.DMA_Init:000000000000001c .L0 
C:\Users\SOLDER~1\AppData\Local\Temp\ccUIzJuS.s:211    .text.DMA_Init:000000000000002a .L0 
C:\Users\SOLDER~1\AppData\Local\Temp\ccUIzJuS.s:214    .text.DMA_Init:0000000000000030 .L0 
C:\Users\SOLDER~1\AppData\Local\Temp\ccUIzJuS.s:217    .text.DMA_Init:0000000000000036 .L0 
C:\Users\SOLDER~1\AppData\Local\Temp\ccUIzJuS.s:219    .text.DMA_Init:0000000000000038 .L0 
C:\Users\SOLDER~1\AppData\Local\Temp\ccUIzJuS.s:222    .text.DMA_Init:000000000000003e .L0 
C:\Users\SOLDER~1\AppData\Local\Temp\ccUIzJuS.s:224    .text.DMA_Init:0000000000000040 .L0 
C:\Users\SOLDER~1\AppData\Local\Temp\ccUIzJuS.s:227    .text.DMA_Init:0000000000000046 .L0 
C:\Users\SOLDER~1\AppData\Local\Temp\ccUIzJuS.s:229    .text.DMA_Init:0000000000000048 .L0 
C:\Users\SOLDER~1\AppData\Local\Temp\ccUIzJuS.s:232    .text.DMA_Init:000000000000004e .L0 
C:\Users\SOLDER~1\AppData\Local\Temp\ccUIzJuS.s:234    .text.DMA_Init:0000000000000050 .L0 
C:\Users\SOLDER~1\AppData\Local\Temp\ccUIzJuS.s:237    .text.DMA_Init:0000000000000056 .L0 
C:\Users\SOLDER~1\AppData\Local\Temp\ccUIzJuS.s:239    .text.DMA_Init:0000000000000058 .L0 
C:\Users\SOLDER~1\AppData\Local\Temp\ccUIzJuS.s:242    .text.DMA_Init:000000000000005e .L0 
C:\Users\SOLDER~1\AppData\Local\Temp\ccUIzJuS.s:244    .text.DMA_Init:0000000000000060 .L0 
C:\Users\SOLDER~1\AppData\Local\Temp\ccUIzJuS.s:247    .text.DMA_Init:0000000000000066 .L0 
C:\Users\SOLDER~1\AppData\Local\Temp\ccUIzJuS.s:249    .text.DMA_Init:0000000000000068 .L0 
C:\Users\SOLDER~1\AppData\Local\Temp\ccUIzJuS.s:253    .text.DMA_Init:0000000000000072 .L0 
C:\Users\SOLDER~1\AppData\Local\Temp\ccUIzJuS.s:257    .text.DMA_Init:000000000000007c .L0 
C:\Users\SOLDER~1\AppData\Local\Temp\ccUIzJuS.s:260    .text.DMA_Init:0000000000000082 .L0 
C:\Users\SOLDER~1\AppData\Local\Temp\ccUIzJuS.s:263    .text.DMA_Init:0000000000000088 .L0 
C:\Users\SOLDER~1\AppData\Local\Temp\ccUIzJuS.s:266    .text.DMA_Init:000000000000008e .L0 
C:\Users\SOLDER~1\AppData\Local\Temp\ccUIzJuS.s:269    .text.DMA_Init:0000000000000094 .L0 
C:\Users\SOLDER~1\AppData\Local\Temp\ccUIzJuS.s:272    .text.DMA_Init:000000000000009a .L0 
C:\Users\SOLDER~1\AppData\Local\Temp\ccUIzJuS.s:275    .text.DMA_Init:00000000000000a0 .L0 
C:\Users\SOLDER~1\AppData\Local\Temp\ccUIzJuS.s:277    .text.DMA_Init:00000000000000a4 .L0 
C:\Users\SOLDER~1\AppData\Local\Temp\ccUIzJuS.s:278    .text.DMA_Init:00000000000000a4 .L0 
C:\Users\SOLDER~1\AppData\Local\Temp\ccUIzJuS.s:280    .text.DMA_Init:00000000000000a6 .L0 
C:\Users\SOLDER~1\AppData\Local\Temp\ccUIzJuS.s:282    .text.DMA_Init:00000000000000a8 .L0 
C:\Users\SOLDER~1\AppData\Local\Temp\ccUIzJuS.s:289    .text.DMA_StructInit:0000000000000000 DMA_StructInit
C:\Users\SOLDER~1\AppData\Local\Temp\ccUIzJuS.s:292    .text.DMA_StructInit:0000000000000000 .L0 
C:\Users\SOLDER~1\AppData\Local\Temp\ccUIzJuS.s:293    .text.DMA_StructInit:0000000000000000 $x
C:\Users\SOLDER~1\AppData\Local\Temp\ccUIzJuS.s:293    .text.DMA_StructInit:0000000000000000 .L0 
C:\Users\SOLDER~1\AppData\Local\Temp\ccUIzJuS.s:294    .text.DMA_StructInit:0000000000000002 .L0 
C:\Users\SOLDER~1\AppData\Local\Temp\ccUIzJuS.s:296    .text.DMA_StructInit:0000000000000004 .L0 
C:\Users\SOLDER~1\AppData\Local\Temp\ccUIzJuS.s:298    .text.DMA_StructInit:0000000000000006 .L0 
C:\Users\SOLDER~1\AppData\Local\Temp\ccUIzJuS.s:301    .text.DMA_StructInit:000000000000000a .L0 
C:\Users\SOLDER~1\AppData\Local\Temp\ccUIzJuS.s:304    .text.DMA_StructInit:0000000000000012 .L0 
C:\Users\SOLDER~1\AppData\Local\Temp\ccUIzJuS.s:307    .text.DMA_StructInit:000000000000001a .L0 
C:\Users\SOLDER~1\AppData\Local\Temp\ccUIzJuS.s:310    .text.DMA_StructInit:0000000000000022 .L0 
C:\Users\SOLDER~1\AppData\Local\Temp\ccUIzJuS.s:313    .text.DMA_StructInit:000000000000002a .L0 
C:\Users\SOLDER~1\AppData\Local\Temp\ccUIzJuS.s:316    .text.DMA_StructInit:0000000000000032 .L0 
C:\Users\SOLDER~1\AppData\Local\Temp\ccUIzJuS.s:319    .text.DMA_StructInit:000000000000003a .L0 
C:\Users\SOLDER~1\AppData\Local\Temp\ccUIzJuS.s:322    .text.DMA_StructInit:0000000000000042 .L0 
C:\Users\SOLDER~1\AppData\Local\Temp\ccUIzJuS.s:325    .text.DMA_StructInit:000000000000004a .L0 
C:\Users\SOLDER~1\AppData\Local\Temp\ccUIzJuS.s:328    .text.DMA_StructInit:0000000000000052 .L0 
C:\Users\SOLDER~1\AppData\Local\Temp\ccUIzJuS.s:331    .text.DMA_StructInit:000000000000005a .L0 
C:\Users\SOLDER~1\AppData\Local\Temp\ccUIzJuS.s:334    .text.DMA_StructInit:0000000000000062 .L0 
C:\Users\SOLDER~1\AppData\Local\Temp\ccUIzJuS.s:336    .text.DMA_StructInit:0000000000000066 .L0 
C:\Users\SOLDER~1\AppData\Local\Temp\ccUIzJuS.s:337    .text.DMA_StructInit:0000000000000066 .L0 
C:\Users\SOLDER~1\AppData\Local\Temp\ccUIzJuS.s:339    .text.DMA_StructInit:0000000000000068 .L0 
C:\Users\SOLDER~1\AppData\Local\Temp\ccUIzJuS.s:341    .text.DMA_StructInit:000000000000006a .L0 
C:\Users\SOLDER~1\AppData\Local\Temp\ccUIzJuS.s:348    .text.DMA_Cmd:0000000000000000 DMA_Cmd
C:\Users\SOLDER~1\AppData\Local\Temp\ccUIzJuS.s:351    .text.DMA_Cmd:0000000000000000 .L0 
GAS LISTING C:\Users\SOLDER~1\AppData\Local\Temp\ccUIzJuS.s 			page 23


C:\Users\SOLDER~1\AppData\Local\Temp\ccUIzJuS.s:352    .text.DMA_Cmd:0000000000000000 $x
C:\Users\SOLDER~1\AppData\Local\Temp\ccUIzJuS.s:352    .text.DMA_Cmd:0000000000000000 .L0 
C:\Users\SOLDER~1\AppData\Local\Temp\ccUIzJuS.s:353    .text.DMA_Cmd:0000000000000002 .L0 
C:\Users\SOLDER~1\AppData\Local\Temp\ccUIzJuS.s:355    .text.DMA_Cmd:0000000000000004 .L0 
C:\Users\SOLDER~1\AppData\Local\Temp\ccUIzJuS.s:357    .text.DMA_Cmd:0000000000000006 .L0 
C:\Users\SOLDER~1\AppData\Local\Temp\ccUIzJuS.s:361    .text.DMA_Cmd:000000000000000e .L0 
C:\Users\SOLDER~1\AppData\Local\Temp\ccUIzJuS.s:364    .text.DMA_Cmd:0000000000000014 .L0 
C:\Users\SOLDER~1\AppData\Local\Temp\ccUIzJuS.s:367    .text.DMA_Cmd:000000000000001a .L0 
C:\Users\SOLDER~1\AppData\Local\Temp\ccUIzJuS.s:371    .text.DMA_Cmd:0000000000000024 .L0 
C:\Users\SOLDER~1\AppData\Local\Temp\ccUIzJuS.s:374    .text.DMA_Cmd:0000000000000026 .L0 
C:\Users\SOLDER~1\AppData\Local\Temp\ccUIzJuS.s:377    .text.DMA_Cmd:000000000000002c .L0 
C:\Users\SOLDER~1\AppData\Local\Temp\ccUIzJuS.s:384    .text.DMA_Cmd:0000000000000038 .L0 
C:\Users\SOLDER~1\AppData\Local\Temp\ccUIzJuS.s:386    .text.DMA_Cmd:000000000000003c .L0 
C:\Users\SOLDER~1\AppData\Local\Temp\ccUIzJuS.s:387    .text.DMA_Cmd:000000000000003c .L0 
C:\Users\SOLDER~1\AppData\Local\Temp\ccUIzJuS.s:389    .text.DMA_Cmd:000000000000003e .L0 
C:\Users\SOLDER~1\AppData\Local\Temp\ccUIzJuS.s:391    .text.DMA_Cmd:0000000000000040 .L0 
C:\Users\SOLDER~1\AppData\Local\Temp\ccUIzJuS.s:398    .text.DMA_ITConfig:0000000000000000 DMA_ITConfig
C:\Users\SOLDER~1\AppData\Local\Temp\ccUIzJuS.s:401    .text.DMA_ITConfig:0000000000000000 .L0 
C:\Users\SOLDER~1\AppData\Local\Temp\ccUIzJuS.s:402    .text.DMA_ITConfig:0000000000000000 $x
C:\Users\SOLDER~1\AppData\Local\Temp\ccUIzJuS.s:402    .text.DMA_ITConfig:0000000000000000 .L0 
C:\Users\SOLDER~1\AppData\Local\Temp\ccUIzJuS.s:403    .text.DMA_ITConfig:0000000000000002 .L0 
C:\Users\SOLDER~1\AppData\Local\Temp\ccUIzJuS.s:405    .text.DMA_ITConfig:0000000000000004 .L0 
C:\Users\SOLDER~1\AppData\Local\Temp\ccUIzJuS.s:407    .text.DMA_ITConfig:0000000000000006 .L0 
C:\Users\SOLDER~1\AppData\Local\Temp\ccUIzJuS.s:412    .text.DMA_ITConfig:0000000000000012 .L0 
C:\Users\SOLDER~1\AppData\Local\Temp\ccUIzJuS.s:415    .text.DMA_ITConfig:0000000000000018 .L0 
C:\Users\SOLDER~1\AppData\Local\Temp\ccUIzJuS.s:418    .text.DMA_ITConfig:000000000000001e .L0 
C:\Users\SOLDER~1\AppData\Local\Temp\ccUIzJuS.s:423    .text.DMA_ITConfig:000000000000002a .L0 
C:\Users\SOLDER~1\AppData\Local\Temp\ccUIzJuS.s:426    .text.DMA_ITConfig:000000000000002c .L0 
C:\Users\SOLDER~1\AppData\Local\Temp\ccUIzJuS.s:429    .text.DMA_ITConfig:0000000000000032 .L0 
C:\Users\SOLDER~1\AppData\Local\Temp\ccUIzJuS.s:432    .text.DMA_ITConfig:000000000000003a .L0 
C:\Users\SOLDER~1\AppData\Local\Temp\ccUIzJuS.s:437    .text.DMA_ITConfig:0000000000000042 .L0 
C:\Users\SOLDER~1\AppData\Local\Temp\ccUIzJuS.s:439    .text.DMA_ITConfig:0000000000000046 .L0 
C:\Users\SOLDER~1\AppData\Local\Temp\ccUIzJuS.s:440    .text.DMA_ITConfig:0000000000000046 .L0 
C:\Users\SOLDER~1\AppData\Local\Temp\ccUIzJuS.s:442    .text.DMA_ITConfig:0000000000000048 .L0 
C:\Users\SOLDER~1\AppData\Local\Temp\ccUIzJuS.s:444    .text.DMA_ITConfig:000000000000004a .L0 
C:\Users\SOLDER~1\AppData\Local\Temp\ccUIzJuS.s:451    .text.DMA_SetCurrDataCounter:0000000000000000 DMA_SetCurrDataCounter
C:\Users\SOLDER~1\AppData\Local\Temp\ccUIzJuS.s:454    .text.DMA_SetCurrDataCounter:0000000000000000 .L0 
C:\Users\SOLDER~1\AppData\Local\Temp\ccUIzJuS.s:455    .text.DMA_SetCurrDataCounter:0000000000000000 $x
C:\Users\SOLDER~1\AppData\Local\Temp\ccUIzJuS.s:455    .text.DMA_SetCurrDataCounter:0000000000000000 .L0 
C:\Users\SOLDER~1\AppData\Local\Temp\ccUIzJuS.s:456    .text.DMA_SetCurrDataCounter:0000000000000002 .L0 
C:\Users\SOLDER~1\AppData\Local\Temp\ccUIzJuS.s:458    .text.DMA_SetCurrDataCounter:0000000000000004 .L0 
C:\Users\SOLDER~1\AppData\Local\Temp\ccUIzJuS.s:460    .text.DMA_SetCurrDataCounter:0000000000000006 .L0 
C:\Users\SOLDER~1\AppData\Local\Temp\ccUIzJuS.s:465    .text.DMA_SetCurrDataCounter:0000000000000010 .L0 
C:\Users\SOLDER~1\AppData\Local\Temp\ccUIzJuS.s:469    .text.DMA_SetCurrDataCounter:000000000000001a .L0 
C:\Users\SOLDER~1\AppData\Local\Temp\ccUIzJuS.s:471    .text.DMA_SetCurrDataCounter:000000000000001e .L0 
C:\Users\SOLDER~1\AppData\Local\Temp\ccUIzJuS.s:472    .text.DMA_SetCurrDataCounter:000000000000001e .L0 
C:\Users\SOLDER~1\AppData\Local\Temp\ccUIzJuS.s:474    .text.DMA_SetCurrDataCounter:0000000000000020 .L0 
C:\Users\SOLDER~1\AppData\Local\Temp\ccUIzJuS.s:476    .text.DMA_SetCurrDataCounter:0000000000000022 .L0 
C:\Users\SOLDER~1\AppData\Local\Temp\ccUIzJuS.s:483    .text.DMA_GetCurrDataCounter:0000000000000000 DMA_GetCurrDataCounter
C:\Users\SOLDER~1\AppData\Local\Temp\ccUIzJuS.s:486    .text.DMA_GetCurrDataCounter:0000000000000000 .L0 
C:\Users\SOLDER~1\AppData\Local\Temp\ccUIzJuS.s:487    .text.DMA_GetCurrDataCounter:0000000000000000 $x
C:\Users\SOLDER~1\AppData\Local\Temp\ccUIzJuS.s:487    .text.DMA_GetCurrDataCounter:0000000000000000 .L0 
C:\Users\SOLDER~1\AppData\Local\Temp\ccUIzJuS.s:488    .text.DMA_GetCurrDataCounter:0000000000000002 .L0 
C:\Users\SOLDER~1\AppData\Local\Temp\ccUIzJuS.s:490    .text.DMA_GetCurrDataCounter:0000000000000004 .L0 
C:\Users\SOLDER~1\AppData\Local\Temp\ccUIzJuS.s:492    .text.DMA_GetCurrDataCounter:0000000000000006 .L0 
C:\Users\SOLDER~1\AppData\Local\Temp\ccUIzJuS.s:495    .text.DMA_GetCurrDataCounter:000000000000000a .L0 
C:\Users\SOLDER~1\AppData\Local\Temp\ccUIzJuS.s:498    .text.DMA_GetCurrDataCounter:0000000000000010 .L0 
GAS LISTING C:\Users\SOLDER~1\AppData\Local\Temp\ccUIzJuS.s 			page 24


C:\Users\SOLDER~1\AppData\Local\Temp\ccUIzJuS.s:501    .text.DMA_GetCurrDataCounter:0000000000000014 .L0 
C:\Users\SOLDER~1\AppData\Local\Temp\ccUIzJuS.s:503    .text.DMA_GetCurrDataCounter:0000000000000018 .L0 
C:\Users\SOLDER~1\AppData\Local\Temp\ccUIzJuS.s:504    .text.DMA_GetCurrDataCounter:0000000000000018 .L0 
C:\Users\SOLDER~1\AppData\Local\Temp\ccUIzJuS.s:506    .text.DMA_GetCurrDataCounter:000000000000001a .L0 
C:\Users\SOLDER~1\AppData\Local\Temp\ccUIzJuS.s:508    .text.DMA_GetCurrDataCounter:000000000000001c .L0 
C:\Users\SOLDER~1\AppData\Local\Temp\ccUIzJuS.s:515    .text.DMA_GetFlagStatus:0000000000000000 DMA_GetFlagStatus
C:\Users\SOLDER~1\AppData\Local\Temp\ccUIzJuS.s:518    .text.DMA_GetFlagStatus:0000000000000000 .L0 
C:\Users\SOLDER~1\AppData\Local\Temp\ccUIzJuS.s:519    .text.DMA_GetFlagStatus:0000000000000000 $x
C:\Users\SOLDER~1\AppData\Local\Temp\ccUIzJuS.s:519    .text.DMA_GetFlagStatus:0000000000000000 .L0 
C:\Users\SOLDER~1\AppData\Local\Temp\ccUIzJuS.s:520    .text.DMA_GetFlagStatus:0000000000000002 .L0 
C:\Users\SOLDER~1\AppData\Local\Temp\ccUIzJuS.s:522    .text.DMA_GetFlagStatus:0000000000000004 .L0 
C:\Users\SOLDER~1\AppData\Local\Temp\ccUIzJuS.s:524    .text.DMA_GetFlagStatus:0000000000000006 .L0 
C:\Users\SOLDER~1\AppData\Local\Temp\ccUIzJuS.s:527    .text.DMA_GetFlagStatus:000000000000000a .L0 
C:\Users\SOLDER~1\AppData\Local\Temp\ccUIzJuS.s:529    .text.DMA_GetFlagStatus:000000000000000e .L0 
C:\Users\SOLDER~1\AppData\Local\Temp\ccUIzJuS.s:531    .text.DMA_GetFlagStatus:0000000000000012 .L0 
C:\Users\SOLDER~1\AppData\Local\Temp\ccUIzJuS.s:533    .text.DMA_GetFlagStatus:0000000000000016 .L0 
C:\Users\SOLDER~1\AppData\Local\Temp\ccUIzJuS.s:536    .text.DMA_GetFlagStatus:000000000000001c .L0 
C:\Users\SOLDER~1\AppData\Local\Temp\ccUIzJuS.s:540    .text.DMA_GetFlagStatus:0000000000000026 .L0 
C:\Users\SOLDER~1\AppData\Local\Temp\ccUIzJuS.s:542    .text.DMA_GetFlagStatus:0000000000000028 .L0 
C:\Users\SOLDER~1\AppData\Local\Temp\ccUIzJuS.s:547    .text.DMA_GetFlagStatus:0000000000000030 .L0 
C:\Users\SOLDER~1\AppData\Local\Temp\ccUIzJuS.s:550    .text.DMA_GetFlagStatus:0000000000000034 .L0 
C:\Users\SOLDER~1\AppData\Local\Temp\ccUIzJuS.s:552    .text.DMA_GetFlagStatus:0000000000000038 .L0 
C:\Users\SOLDER~1\AppData\Local\Temp\ccUIzJuS.s:554    .text.DMA_GetFlagStatus:000000000000003c .L0 
C:\Users\SOLDER~1\AppData\Local\Temp\ccUIzJuS.s:555    .text.DMA_GetFlagStatus:000000000000003c .L0 
C:\Users\SOLDER~1\AppData\Local\Temp\ccUIzJuS.s:557    .text.DMA_GetFlagStatus:000000000000003e .L0 
C:\Users\SOLDER~1\AppData\Local\Temp\ccUIzJuS.s:559    .text.DMA_GetFlagStatus:0000000000000040 .L0 
C:\Users\SOLDER~1\AppData\Local\Temp\ccUIzJuS.s:566    .text.DMA_ClearFlag:0000000000000000 DMA_ClearFlag
C:\Users\SOLDER~1\AppData\Local\Temp\ccUIzJuS.s:569    .text.DMA_ClearFlag:0000000000000000 .L0 
C:\Users\SOLDER~1\AppData\Local\Temp\ccUIzJuS.s:570    .text.DMA_ClearFlag:0000000000000000 $x
C:\Users\SOLDER~1\AppData\Local\Temp\ccUIzJuS.s:570    .text.DMA_ClearFlag:0000000000000000 .L0 
C:\Users\SOLDER~1\AppData\Local\Temp\ccUIzJuS.s:571    .text.DMA_ClearFlag:0000000000000002 .L0 
C:\Users\SOLDER~1\AppData\Local\Temp\ccUIzJuS.s:573    .text.DMA_ClearFlag:0000000000000004 .L0 
C:\Users\SOLDER~1\AppData\Local\Temp\ccUIzJuS.s:575    .text.DMA_ClearFlag:0000000000000006 .L0 
C:\Users\SOLDER~1\AppData\Local\Temp\ccUIzJuS.s:578    .text.DMA_ClearFlag:000000000000000a .L0 
C:\Users\SOLDER~1\AppData\Local\Temp\ccUIzJuS.s:580    .text.DMA_ClearFlag:000000000000000e .L0 
C:\Users\SOLDER~1\AppData\Local\Temp\ccUIzJuS.s:583    .text.DMA_ClearFlag:0000000000000014 .L0 
C:\Users\SOLDER~1\AppData\Local\Temp\ccUIzJuS.s:585    .text.DMA_ClearFlag:0000000000000018 .L0 
C:\Users\SOLDER~1\AppData\Local\Temp\ccUIzJuS.s:586    .text.DMA_ClearFlag:0000000000000018 .L0 
C:\Users\SOLDER~1\AppData\Local\Temp\ccUIzJuS.s:588    .text.DMA_ClearFlag:000000000000001a .L0 
C:\Users\SOLDER~1\AppData\Local\Temp\ccUIzJuS.s:590    .text.DMA_ClearFlag:000000000000001c .L0 
C:\Users\SOLDER~1\AppData\Local\Temp\ccUIzJuS.s:597    .text.DMA_GetITStatus:0000000000000000 DMA_GetITStatus
C:\Users\SOLDER~1\AppData\Local\Temp\ccUIzJuS.s:600    .text.DMA_GetITStatus:0000000000000000 .L0 
C:\Users\SOLDER~1\AppData\Local\Temp\ccUIzJuS.s:601    .text.DMA_GetITStatus:0000000000000000 $x
C:\Users\SOLDER~1\AppData\Local\Temp\ccUIzJuS.s:601    .text.DMA_GetITStatus:0000000000000000 .L0 
C:\Users\SOLDER~1\AppData\Local\Temp\ccUIzJuS.s:602    .text.DMA_GetITStatus:0000000000000002 .L0 
C:\Users\SOLDER~1\AppData\Local\Temp\ccUIzJuS.s:604    .text.DMA_GetITStatus:0000000000000004 .L0 
C:\Users\SOLDER~1\AppData\Local\Temp\ccUIzJuS.s:606    .text.DMA_GetITStatus:0000000000000006 .L0 
C:\Users\SOLDER~1\AppData\Local\Temp\ccUIzJuS.s:609    .text.DMA_GetITStatus:000000000000000a .L0 
C:\Users\SOLDER~1\AppData\Local\Temp\ccUIzJuS.s:611    .text.DMA_GetITStatus:000000000000000e .L0 
C:\Users\SOLDER~1\AppData\Local\Temp\ccUIzJuS.s:613    .text.DMA_GetITStatus:0000000000000012 .L0 
C:\Users\SOLDER~1\AppData\Local\Temp\ccUIzJuS.s:615    .text.DMA_GetITStatus:0000000000000016 .L0 
C:\Users\SOLDER~1\AppData\Local\Temp\ccUIzJuS.s:618    .text.DMA_GetITStatus:000000000000001c .L0 
C:\Users\SOLDER~1\AppData\Local\Temp\ccUIzJuS.s:622    .text.DMA_GetITStatus:0000000000000026 .L0 
C:\Users\SOLDER~1\AppData\Local\Temp\ccUIzJuS.s:624    .text.DMA_GetITStatus:0000000000000028 .L0 
C:\Users\SOLDER~1\AppData\Local\Temp\ccUIzJuS.s:629    .text.DMA_GetITStatus:0000000000000030 .L0 
C:\Users\SOLDER~1\AppData\Local\Temp\ccUIzJuS.s:632    .text.DMA_GetITStatus:0000000000000034 .L0 
C:\Users\SOLDER~1\AppData\Local\Temp\ccUIzJuS.s:634    .text.DMA_GetITStatus:0000000000000038 .L0 
GAS LISTING C:\Users\SOLDER~1\AppData\Local\Temp\ccUIzJuS.s 			page 25


C:\Users\SOLDER~1\AppData\Local\Temp\ccUIzJuS.s:636    .text.DMA_GetITStatus:000000000000003c .L0 
C:\Users\SOLDER~1\AppData\Local\Temp\ccUIzJuS.s:637    .text.DMA_GetITStatus:000000000000003c .L0 
C:\Users\SOLDER~1\AppData\Local\Temp\ccUIzJuS.s:639    .text.DMA_GetITStatus:000000000000003e .L0 
C:\Users\SOLDER~1\AppData\Local\Temp\ccUIzJuS.s:641    .text.DMA_GetITStatus:0000000000000040 .L0 
C:\Users\SOLDER~1\AppData\Local\Temp\ccUIzJuS.s:648    .text.DMA_ClearITPendingBit:0000000000000000 DMA_ClearITPendingBit
C:\Users\SOLDER~1\AppData\Local\Temp\ccUIzJuS.s:651    .text.DMA_ClearITPendingBit:0000000000000000 .L0 
C:\Users\SOLDER~1\AppData\Local\Temp\ccUIzJuS.s:652    .text.DMA_ClearITPendingBit:0000000000000000 $x
C:\Users\SOLDER~1\AppData\Local\Temp\ccUIzJuS.s:652    .text.DMA_ClearITPendingBit:0000000000000000 .L0 
C:\Users\SOLDER~1\AppData\Local\Temp\ccUIzJuS.s:653    .text.DMA_ClearITPendingBit:0000000000000002 .L0 
C:\Users\SOLDER~1\AppData\Local\Temp\ccUIzJuS.s:655    .text.DMA_ClearITPendingBit:0000000000000004 .L0 
C:\Users\SOLDER~1\AppData\Local\Temp\ccUIzJuS.s:657    .text.DMA_ClearITPendingBit:0000000000000006 .L0 
C:\Users\SOLDER~1\AppData\Local\Temp\ccUIzJuS.s:660    .text.DMA_ClearITPendingBit:000000000000000a .L0 
C:\Users\SOLDER~1\AppData\Local\Temp\ccUIzJuS.s:662    .text.DMA_ClearITPendingBit:000000000000000e .L0 
C:\Users\SOLDER~1\AppData\Local\Temp\ccUIzJuS.s:665    .text.DMA_ClearITPendingBit:0000000000000014 .L0 
C:\Users\SOLDER~1\AppData\Local\Temp\ccUIzJuS.s:667    .text.DMA_ClearITPendingBit:0000000000000018 .L0 
C:\Users\SOLDER~1\AppData\Local\Temp\ccUIzJuS.s:668    .text.DMA_ClearITPendingBit:0000000000000018 .L0 
C:\Users\SOLDER~1\AppData\Local\Temp\ccUIzJuS.s:670    .text.DMA_ClearITPendingBit:000000000000001a .L0 
C:\Users\SOLDER~1\AppData\Local\Temp\ccUIzJuS.s:672    .text.DMA_ClearITPendingBit:000000000000001c .L0 
C:\Users\SOLDER~1\AppData\Local\Temp\ccUIzJuS.s:30809  .debug_line_str:0000000000000065 .L0 
C:\Users\SOLDER~1\AppData\Local\Temp\ccUIzJuS.s:30809  .debug_line_str:00000000000000af .L0 
C:\Users\SOLDER~1\AppData\Local\Temp\ccUIzJuS.s:30809  .debug_line_str:00000000000000bb .L0 
C:\Users\SOLDER~1\AppData\Local\Temp\ccUIzJuS.s:30809  .debug_line_str:0000000000000108 .L0 
C:\Users\SOLDER~1\AppData\Local\Temp\ccUIzJuS.s:30809  .debug_line_str:0000000000000151 .L0 
C:\Users\SOLDER~1\AppData\Local\Temp\ccUIzJuS.s:30809  .debug_line_str:000000000000015d .L0 
C:\Users\SOLDER~1\AppData\Local\Temp\ccUIzJuS.s:30809  .debug_line_str:00000000000001b1 .L0 
C:\Users\SOLDER~1\AppData\Local\Temp\ccUIzJuS.s:30809  .debug_line_str:00000000000001f6 .L0 
C:\Users\SOLDER~1\AppData\Local\Temp\ccUIzJuS.s:30809  .debug_line_str:0000000000000205 .L0 
C:\Users\SOLDER~1\AppData\Local\Temp\ccUIzJuS.s:30809  .debug_line_str:0000000000000214 .L0 
C:\Users\SOLDER~1\AppData\Local\Temp\ccUIzJuS.s:30809  .debug_line_str:0000000000000225 .L0 
C:\Users\SOLDER~1\AppData\Local\Temp\ccUIzJuS.s:30809  .debug_line_str:000000000000022f .L0 
C:\Users\SOLDER~1\AppData\Local\Temp\ccUIzJuS.s:30809  .debug_line_str:000000000000023c .L0 
C:\Users\SOLDER~1\AppData\Local\Temp\ccUIzJuS.s:30809  .debug_line_str:0000000000000247 .L0 
C:\Users\SOLDER~1\AppData\Local\Temp\ccUIzJuS.s:30809  .debug_line_str:0000000000000256 .L0 
C:\Users\SOLDER~1\AppData\Local\Temp\ccUIzJuS.s:30809  .debug_line_str:000000000000025f .L0 
C:\Users\SOLDER~1\AppData\Local\Temp\ccUIzJuS.s:30809  .debug_line_str:0000000000000268 .L0 
C:\Users\SOLDER~1\AppData\Local\Temp\ccUIzJuS.s:30809  .debug_line_str:0000000000000273 .L0 
C:\Users\SOLDER~1\AppData\Local\Temp\ccUIzJuS.s:30809  .debug_line_str:0000000000000285 .L0 
C:\Users\SOLDER~1\AppData\Local\Temp\ccUIzJuS.s:30809  .debug_line_str:000000000000028f .L0 
C:\Users\SOLDER~1\AppData\Local\Temp\ccUIzJuS.s:30809  .debug_line_str:000000000000029f .L0 
C:\Users\SOLDER~1\AppData\Local\Temp\ccUIzJuS.s:30809  .debug_line_str:00000000000002ae .L0 
C:\Users\SOLDER~1\AppData\Local\Temp\ccUIzJuS.s:30809  .debug_line_str:00000000000002bd .L0 
C:\Users\SOLDER~1\AppData\Local\Temp\ccUIzJuS.s:30809  .debug_line_str:00000000000002cc .L0 
C:\Users\SOLDER~1\AppData\Local\Temp\ccUIzJuS.s:30809  .debug_line_str:00000000000002db .L0 
C:\Users\SOLDER~1\AppData\Local\Temp\ccUIzJuS.s:30809  .debug_line_str:00000000000002ed .L0 
C:\Users\SOLDER~1\AppData\Local\Temp\ccUIzJuS.s:30809  .debug_line_str:00000000000002fd .L0 
C:\Users\SOLDER~1\AppData\Local\Temp\ccUIzJuS.s:30809  .debug_line_str:000000000000030e .L0 
C:\Users\SOLDER~1\AppData\Local\Temp\ccUIzJuS.s:30809  .debug_line_str:000000000000031e .L0 
C:\Users\SOLDER~1\AppData\Local\Temp\ccUIzJuS.s:30809  .debug_line_str:000000000000032d .L0 
C:\Users\SOLDER~1\AppData\Local\Temp\ccUIzJuS.s:30809  .debug_line_str:000000000000033d .L0 
C:\Users\SOLDER~1\AppData\Local\Temp\ccUIzJuS.s:30809  .debug_line_str:000000000000034c .L0 
C:\Users\SOLDER~1\AppData\Local\Temp\ccUIzJuS.s:30809  .debug_line_str:000000000000035b .L0 
C:\Users\SOLDER~1\AppData\Local\Temp\ccUIzJuS.s:30809  .debug_line_str:000000000000036a .L0 
C:\Users\SOLDER~1\AppData\Local\Temp\ccUIzJuS.s:30809  .debug_line_str:0000000000000379 .L0 
C:\Users\SOLDER~1\AppData\Local\Temp\ccUIzJuS.s:30809  .debug_line_str:0000000000000388 .L0 
C:\Users\SOLDER~1\AppData\Local\Temp\ccUIzJuS.s:30809  .debug_line_str:0000000000000399 .L0 
C:\Users\SOLDER~1\AppData\Local\Temp\ccUIzJuS.s:30809  .debug_line_str:00000000000003a9 .L0 
C:\Users\SOLDER~1\AppData\Local\Temp\ccUIzJuS.s:182    .text.DMA_DeInit:0000000000000158 .L0 
GAS LISTING C:\Users\SOLDER~1\AppData\Local\Temp\ccUIzJuS.s 			page 26


C:\Users\SOLDER~1\AppData\Local\Temp\ccUIzJuS.s:285    .text.DMA_Init:00000000000000a8 .L0 
C:\Users\SOLDER~1\AppData\Local\Temp\ccUIzJuS.s:344    .text.DMA_StructInit:000000000000006a .L0 
C:\Users\SOLDER~1\AppData\Local\Temp\ccUIzJuS.s:394    .text.DMA_Cmd:0000000000000040 .L0 
C:\Users\SOLDER~1\AppData\Local\Temp\ccUIzJuS.s:447    .text.DMA_ITConfig:000000000000004a .L0 
C:\Users\SOLDER~1\AppData\Local\Temp\ccUIzJuS.s:479    .text.DMA_SetCurrDataCounter:0000000000000022 .L0 
C:\Users\SOLDER~1\AppData\Local\Temp\ccUIzJuS.s:511    .text.DMA_GetCurrDataCounter:000000000000001c .L0 
C:\Users\SOLDER~1\AppData\Local\Temp\ccUIzJuS.s:562    .text.DMA_GetFlagStatus:0000000000000040 .L0 
C:\Users\SOLDER~1\AppData\Local\Temp\ccUIzJuS.s:593    .text.DMA_ClearFlag:000000000000001c .L0 
C:\Users\SOLDER~1\AppData\Local\Temp\ccUIzJuS.s:644    .text.DMA_GetITStatus:0000000000000040 .L0 
C:\Users\SOLDER~1\AppData\Local\Temp\ccUIzJuS.s:675    .text.DMA_ClearITPendingBit:000000000000001c .L0 
                     .debug_frame:0000000000000000 .L0 
C:\Users\SOLDER~1\AppData\Local\Temp\ccUIzJuS.s:61     .text.DMA_DeInit:000000000000005c .L2
C:\Users\SOLDER~1\AppData\Local\Temp\ccUIzJuS.s:170    .text.DMA_DeInit:0000000000000150 .L10
C:\Users\SOLDER~1\AppData\Local\Temp\ccUIzJuS.s:76     .text.DMA_DeInit:000000000000007c .L4
C:\Users\SOLDER~1\AppData\Local\Temp\ccUIzJuS.s:93     .text.DMA_DeInit:00000000000000a2 .L5
C:\Users\SOLDER~1\AppData\Local\Temp\ccUIzJuS.s:109    .text.DMA_DeInit:00000000000000c4 .L6
C:\Users\SOLDER~1\AppData\Local\Temp\ccUIzJuS.s:125    .text.DMA_DeInit:00000000000000e8 .L7
C:\Users\SOLDER~1\AppData\Local\Temp\ccUIzJuS.s:141    .text.DMA_DeInit:000000000000010c .L8
C:\Users\SOLDER~1\AppData\Local\Temp\ccUIzJuS.s:157    .text.DMA_DeInit:0000000000000130 .L9
C:\Users\SOLDER~1\AppData\Local\Temp\ccUIzJuS.s:372    .text.DMA_Cmd:0000000000000026 .L14
C:\Users\SOLDER~1\AppData\Local\Temp\ccUIzJuS.s:382    .text.DMA_Cmd:0000000000000038 .L16
C:\Users\SOLDER~1\AppData\Local\Temp\ccUIzJuS.s:424    .text.DMA_ITConfig:000000000000002c .L18
C:\Users\SOLDER~1\AppData\Local\Temp\ccUIzJuS.s:435    .text.DMA_ITConfig:0000000000000042 .L20
C:\Users\SOLDER~1\AppData\Local\Temp\ccUIzJuS.s:545    .text.DMA_GetFlagStatus:0000000000000030 .L25
C:\Users\SOLDER~1\AppData\Local\Temp\ccUIzJuS.s:548    .text.DMA_GetFlagStatus:0000000000000034 .L26
C:\Users\SOLDER~1\AppData\Local\Temp\ccUIzJuS.s:627    .text.DMA_GetITStatus:0000000000000030 .L30
C:\Users\SOLDER~1\AppData\Local\Temp\ccUIzJuS.s:630    .text.DMA_GetITStatus:0000000000000034 .L31
C:\Users\SOLDER~1\AppData\Local\Temp\ccUIzJuS.s:1202   .debug_abbrev:0000000000000000 .Ldebug_abbrev0
C:\Users\SOLDER~1\AppData\Local\Temp\ccUIzJuS.s:19344  .debug_str:0000000000000689 .LASF5780
C:\Users\SOLDER~1\AppData\Local\Temp\ccUIzJuS.s:30805  .debug_line_str:0000000000000000 .LASF0
C:\Users\SOLDER~1\AppData\Local\Temp\ccUIzJuS.s:30807  .debug_line_str:000000000000001b .LASF1
C:\Users\SOLDER~1\AppData\Local\Temp\ccUIzJuS.s:1660   .debug_rnglists:000000000000000c .LLRL0
C:\Users\SOLDER~1\AppData\Local\Temp\ccUIzJuS.s:19242  .debug_line:0000000000000000 .Ldebug_line0
C:\Users\SOLDER~1\AppData\Local\Temp\ccUIzJuS.s:1697   .debug_macro:0000000000000000 .Ldebug_macro0
C:\Users\SOLDER~1\AppData\Local\Temp\ccUIzJuS.s:30740  .debug_str:000000000002ee02 .LASF5722
C:\Users\SOLDER~1\AppData\Local\Temp\ccUIzJuS.s:25516  .debug_str:000000000001994e .LASF5723
C:\Users\SOLDER~1\AppData\Local\Temp\ccUIzJuS.s:25006  .debug_str:0000000000017846 .LASF5724
C:\Users\SOLDER~1\AppData\Local\Temp\ccUIzJuS.s:24304  .debug_str:0000000000014b87 .LASF5725
C:\Users\SOLDER~1\AppData\Local\Temp\ccUIzJuS.s:22858  .debug_str:000000000000ec57 .LASF5728
C:\Users\SOLDER~1\AppData\Local\Temp\ccUIzJuS.s:24418  .debug_str:00000000000152ba .LASF5726
C:\Users\SOLDER~1\AppData\Local\Temp\ccUIzJuS.s:28762  .debug_str:0000000000026d9c .LASF5727
C:\Users\SOLDER~1\AppData\Local\Temp\ccUIzJuS.s:25714  .debug_str:000000000001a5c0 .LASF5729
C:\Users\SOLDER~1\AppData\Local\Temp\ccUIzJuS.s:19356  .debug_str:00000000000007e5 .LASF5730
C:\Users\SOLDER~1\AppData\Local\Temp\ccUIzJuS.s:19264  .debug_str:0000000000000157 .LASF5731
C:\Users\SOLDER~1\AppData\Local\Temp\ccUIzJuS.s:28850  .debug_str:000000000002735f .LASF5732
C:\Users\SOLDER~1\AppData\Local\Temp\ccUIzJuS.s:28778  .debug_str:0000000000026e89 .LASF5733
C:\Users\SOLDER~1\AppData\Local\Temp\ccUIzJuS.s:20082  .debug_str:00000000000036bb .LASF5734
C:\Users\SOLDER~1\AppData\Local\Temp\ccUIzJuS.s:21332  .debug_str:0000000000008798 .LASF5735
C:\Users\SOLDER~1\AppData\Local\Temp\ccUIzJuS.s:22840  .debug_str:000000000000eb55 .LASF5736
C:\Users\SOLDER~1\AppData\Local\Temp\ccUIzJuS.s:24766  .debug_str:00000000000168d5 .LASF5737
C:\Users\SOLDER~1\AppData\Local\Temp\ccUIzJuS.s:28510  .debug_str:0000000000025c4b .LASF5738
C:\Users\SOLDER~1\AppData\Local\Temp\ccUIzJuS.s:21884  .debug_str:000000000000ac11 .LASF5739
C:\Users\SOLDER~1\AppData\Local\Temp\ccUIzJuS.s:24470  .debug_str:0000000000015621 .LASF5740
C:\Users\SOLDER~1\AppData\Local\Temp\ccUIzJuS.s:19622  .debug_str:000000000000192b .LASF5741
C:\Users\SOLDER~1\AppData\Local\Temp\ccUIzJuS.s:25316  .debug_str:0000000000018c8e .LASF5742
C:\Users\SOLDER~1\AppData\Local\Temp\ccUIzJuS.s:23786  .debug_str:0000000000012824 .LASF5743
C:\Users\SOLDER~1\AppData\Local\Temp\ccUIzJuS.s:30020  .debug_str:000000000002bfc1 .LASF5744
GAS LISTING C:\Users\SOLDER~1\AppData\Local\Temp\ccUIzJuS.s 			page 27


C:\Users\SOLDER~1\AppData\Local\Temp\ccUIzJuS.s:27656  .debug_str:00000000000223ac .LASF5745
C:\Users\SOLDER~1\AppData\Local\Temp\ccUIzJuS.s:24390  .debug_str:00000000000150d6 .LASF5746
C:\Users\SOLDER~1\AppData\Local\Temp\ccUIzJuS.s:23162  .debug_str:0000000000010069 .LASF5747
C:\Users\SOLDER~1\AppData\Local\Temp\ccUIzJuS.s:27578  .debug_str:0000000000021f3c .LASF5748
C:\Users\SOLDER~1\AppData\Local\Temp\ccUIzJuS.s:30240  .debug_str:000000000002cdcb .LASF5749
C:\Users\SOLDER~1\AppData\Local\Temp\ccUIzJuS.s:27388  .debug_str:0000000000021379 .LASF5750
C:\Users\SOLDER~1\AppData\Local\Temp\ccUIzJuS.s:22616  .debug_str:000000000000dc89 .LASF5751
C:\Users\SOLDER~1\AppData\Local\Temp\ccUIzJuS.s:24904  .debug_str:0000000000017194 .LASF5752
C:\Users\SOLDER~1\AppData\Local\Temp\ccUIzJuS.s:27130  .debug_str:00000000000202b2 .LASF5753
C:\Users\SOLDER~1\AppData\Local\Temp\ccUIzJuS.s:25480  .debug_str:000000000001978e .LASF5754
C:\Users\SOLDER~1\AppData\Local\Temp\ccUIzJuS.s:25230  .debug_str:000000000001870e .LASF5755
C:\Users\SOLDER~1\AppData\Local\Temp\ccUIzJuS.s:28604  .debug_str:00000000000262bd .LASF5756
C:\Users\SOLDER~1\AppData\Local\Temp\ccUIzJuS.s:29436  .debug_str:00000000000299db .LASF5757
C:\Users\SOLDER~1\AppData\Local\Temp\ccUIzJuS.s:25484  .debug_str:00000000000197bb .LASF5758
C:\Users\SOLDER~1\AppData\Local\Temp\ccUIzJuS.s:19682  .debug_str:0000000000001d4c .LASF5759
C:\Users\SOLDER~1\AppData\Local\Temp\ccUIzJuS.s:22026  .debug_str:000000000000b548 .LASF5760
C:\Users\SOLDER~1\AppData\Local\Temp\ccUIzJuS.s:22468  .debug_str:000000000000d2be .LASF5764
C:\Users\SOLDER~1\AppData\Local\Temp\ccUIzJuS.s:649    .text.DMA_ClearITPendingBit:0000000000000000 .LFB26
C:\Users\SOLDER~1\AppData\Local\Temp\ccUIzJuS.s:673    .text.DMA_ClearITPendingBit:000000000000001c .LFE26
C:\Users\SOLDER~1\AppData\Local\Temp\ccUIzJuS.s:21244  .debug_str:000000000000820c .LASF5761
C:\Users\SOLDER~1\AppData\Local\Temp\ccUIzJuS.s:21424  .debug_str:0000000000008d8a .LASF5767
C:\Users\SOLDER~1\AppData\Local\Temp\ccUIzJuS.s:598    .text.DMA_GetITStatus:0000000000000000 .LFB25
C:\Users\SOLDER~1\AppData\Local\Temp\ccUIzJuS.s:642    .text.DMA_GetITStatus:0000000000000040 .LFE25
C:\Users\SOLDER~1\AppData\Local\Temp\ccUIzJuS.s:23794  .debug_str:000000000001287c .LASF5762
C:\Users\SOLDER~1\AppData\Local\Temp\ccUIzJuS.s:19898  .debug_str:0000000000002aff .LASF5763
C:\Users\SOLDER~1\AppData\Local\Temp\ccUIzJuS.s:20656  .debug_str:0000000000005b94 .LASF5765
C:\Users\SOLDER~1\AppData\Local\Temp\ccUIzJuS.s:567    .text.DMA_ClearFlag:0000000000000000 .LFB24
C:\Users\SOLDER~1\AppData\Local\Temp\ccUIzJuS.s:591    .text.DMA_ClearFlag:000000000000001c .LFE24
C:\Users\SOLDER~1\AppData\Local\Temp\ccUIzJuS.s:21520  .debug_str:0000000000009412 .LASF5766
C:\Users\SOLDER~1\AppData\Local\Temp\ccUIzJuS.s:25642  .debug_str:000000000001a134 .LASF5768
C:\Users\SOLDER~1\AppData\Local\Temp\ccUIzJuS.s:516    .text.DMA_GetFlagStatus:0000000000000000 .LFB23
C:\Users\SOLDER~1\AppData\Local\Temp\ccUIzJuS.s:560    .text.DMA_GetFlagStatus:0000000000000040 .LFE23
C:\Users\SOLDER~1\AppData\Local\Temp\ccUIzJuS.s:19720  .debug_str:0000000000001fa1 .LASF5769
C:\Users\SOLDER~1\AppData\Local\Temp\ccUIzJuS.s:484    .text.DMA_GetCurrDataCounter:0000000000000000 .LFB22
C:\Users\SOLDER~1\AppData\Local\Temp\ccUIzJuS.s:509    .text.DMA_GetCurrDataCounter:000000000000001c .LFE22
C:\Users\SOLDER~1\AppData\Local\Temp\ccUIzJuS.s:30088  .debug_str:000000000002c467 .LASF5770
C:\Users\SOLDER~1\AppData\Local\Temp\ccUIzJuS.s:20900  .debug_str:0000000000006b9d .LASF5771
C:\Users\SOLDER~1\AppData\Local\Temp\ccUIzJuS.s:452    .text.DMA_SetCurrDataCounter:0000000000000000 .LFB21
C:\Users\SOLDER~1\AppData\Local\Temp\ccUIzJuS.s:477    .text.DMA_SetCurrDataCounter:0000000000000022 .LFE21
C:\Users\SOLDER~1\AppData\Local\Temp\ccUIzJuS.s:21052  .debug_str:00000000000075ab .LASF5772
C:\Users\SOLDER~1\AppData\Local\Temp\ccUIzJuS.s:27316  .debug_str:0000000000020eb5 .LASF5773
C:\Users\SOLDER~1\AppData\Local\Temp\ccUIzJuS.s:399    .text.DMA_ITConfig:0000000000000000 .LFB20
C:\Users\SOLDER~1\AppData\Local\Temp\ccUIzJuS.s:445    .text.DMA_ITConfig:000000000000004a .LFE20
C:\Users\SOLDER~1\AppData\Local\Temp\ccUIzJuS.s:27542  .debug_str:0000000000021d00 .LASF5774
C:\Users\SOLDER~1\AppData\Local\Temp\ccUIzJuS.s:26742  .debug_str:000000000001e924 .LASF5775
C:\Users\SOLDER~1\AppData\Local\Temp\ccUIzJuS.s:19732  .debug_str:0000000000002045 .LASF5776
C:\Users\SOLDER~1\AppData\Local\Temp\ccUIzJuS.s:349    .text.DMA_Cmd:0000000000000000 .LFB19
C:\Users\SOLDER~1\AppData\Local\Temp\ccUIzJuS.s:392    .text.DMA_Cmd:0000000000000040 .LFE19
C:\Users\SOLDER~1\AppData\Local\Temp\ccUIzJuS.s:28628  .debug_str:00000000000264b5 .LASF5777
C:\Users\SOLDER~1\AppData\Local\Temp\ccUIzJuS.s:290    .text.DMA_StructInit:0000000000000000 .LFB18
C:\Users\SOLDER~1\AppData\Local\Temp\ccUIzJuS.s:342    .text.DMA_StructInit:000000000000006a .LFE18
C:\Users\SOLDER~1\AppData\Local\Temp\ccUIzJuS.s:26642  .debug_str:000000000001e2a5 .LASF5778
C:\Users\SOLDER~1\AppData\Local\Temp\ccUIzJuS.s:25080  .debug_str:0000000000017d2b .LASF5779
C:\Users\SOLDER~1\AppData\Local\Temp\ccUIzJuS.s:187    .text.DMA_Init:0000000000000000 .LFB17
C:\Users\SOLDER~1\AppData\Local\Temp\ccUIzJuS.s:283    .text.DMA_Init:00000000000000a8 .LFE17
C:\Users\SOLDER~1\AppData\Local\Temp\ccUIzJuS.s:23560  .debug_str:00000000000119ec .LASF5781
C:\Users\SOLDER~1\AppData\Local\Temp\ccUIzJuS.s:15     .text.DMA_DeInit:0000000000000000 .LFB16
GAS LISTING C:\Users\SOLDER~1\AppData\Local\Temp\ccUIzJuS.s 			page 28


C:\Users\SOLDER~1\AppData\Local\Temp\ccUIzJuS.s:180    .text.DMA_DeInit:0000000000000158 .LFE16
C:\Users\SOLDER~1\AppData\Local\Temp\ccUIzJuS.s:683    .debug_info:0000000000000000 .Ldebug_info0
C:\Users\SOLDER~1\AppData\Local\Temp\ccUIzJuS.s:1969   .debug_macro:0000000000000000 .Ldebug_macro2
C:\Users\SOLDER~1\AppData\Local\Temp\ccUIzJuS.s:19842  .debug_str:0000000000002750 .LASF318
C:\Users\SOLDER~1\AppData\Local\Temp\ccUIzJuS.s:2922   .debug_macro:0000000000000000 .Ldebug_macro3
C:\Users\SOLDER~1\AppData\Local\Temp\ccUIzJuS.s:25612  .debug_str:0000000000019f51 .LASF336
C:\Users\SOLDER~1\AppData\Local\Temp\ccUIzJuS.s:20286  .debug_str:00000000000043ea .LASF337
C:\Users\SOLDER~1\AppData\Local\Temp\ccUIzJuS.s:27580  .debug_str:0000000000021f48 .LASF338
C:\Users\SOLDER~1\AppData\Local\Temp\ccUIzJuS.s:2978   .debug_macro:0000000000000000 .Ldebug_macro4
C:\Users\SOLDER~1\AppData\Local\Temp\ccUIzJuS.s:2998   .debug_macro:0000000000000000 .Ldebug_macro5
C:\Users\SOLDER~1\AppData\Local\Temp\ccUIzJuS.s:3063   .debug_macro:0000000000000000 .Ldebug_macro6
C:\Users\SOLDER~1\AppData\Local\Temp\ccUIzJuS.s:3104   .debug_macro:0000000000000000 .Ldebug_macro7
C:\Users\SOLDER~1\AppData\Local\Temp\ccUIzJuS.s:3229   .debug_macro:0000000000000000 .Ldebug_macro8
C:\Users\SOLDER~1\AppData\Local\Temp\ccUIzJuS.s:3285   .debug_macro:0000000000000000 .Ldebug_macro9
C:\Users\SOLDER~1\AppData\Local\Temp\ccUIzJuS.s:19618  .debug_str:00000000000018f2 .LASF493
C:\Users\SOLDER~1\AppData\Local\Temp\ccUIzJuS.s:3497   .debug_macro:0000000000000000 .Ldebug_macro10
C:\Users\SOLDER~1\AppData\Local\Temp\ccUIzJuS.s:3535   .debug_macro:0000000000000000 .Ldebug_macro11
C:\Users\SOLDER~1\AppData\Local\Temp\ccUIzJuS.s:19884  .debug_str:0000000000002a22 .LASF4592
C:\Users\SOLDER~1\AppData\Local\Temp\ccUIzJuS.s:28380  .debug_str:0000000000025393 .LASF4593
C:\Users\SOLDER~1\AppData\Local\Temp\ccUIzJuS.s:15801  .debug_macro:0000000000000000 .Ldebug_macro12
C:\Users\SOLDER~1\AppData\Local\Temp\ccUIzJuS.s:16082  .debug_macro:0000000000000000 .Ldebug_macro13
C:\Users\SOLDER~1\AppData\Local\Temp\ccUIzJuS.s:16234  .debug_macro:0000000000000000 .Ldebug_macro14
C:\Users\SOLDER~1\AppData\Local\Temp\ccUIzJuS.s:24758  .debug_str:0000000000016847 .LASF4851
C:\Users\SOLDER~1\AppData\Local\Temp\ccUIzJuS.s:16587  .debug_macro:0000000000000000 .Ldebug_macro15
C:\Users\SOLDER~1\AppData\Local\Temp\ccUIzJuS.s:16652  .debug_macro:0000000000000000 .Ldebug_macro16
C:\Users\SOLDER~1\AppData\Local\Temp\ccUIzJuS.s:16723  .debug_macro:0000000000000000 .Ldebug_macro17
C:\Users\SOLDER~1\AppData\Local\Temp\ccUIzJuS.s:16887  .debug_macro:0000000000000000 .Ldebug_macro18
C:\Users\SOLDER~1\AppData\Local\Temp\ccUIzJuS.s:17159  .debug_macro:0000000000000000 .Ldebug_macro19
C:\Users\SOLDER~1\AppData\Local\Temp\ccUIzJuS.s:17410  .debug_macro:0000000000000000 .Ldebug_macro20
C:\Users\SOLDER~1\AppData\Local\Temp\ccUIzJuS.s:17451  .debug_macro:0000000000000000 .Ldebug_macro21
C:\Users\SOLDER~1\AppData\Local\Temp\ccUIzJuS.s:17504  .debug_macro:0000000000000000 .Ldebug_macro22
C:\Users\SOLDER~1\AppData\Local\Temp\ccUIzJuS.s:17905  .debug_macro:0000000000000000 .Ldebug_macro23
C:\Users\SOLDER~1\AppData\Local\Temp\ccUIzJuS.s:17937  .debug_macro:0000000000000000 .Ldebug_macro24
C:\Users\SOLDER~1\AppData\Local\Temp\ccUIzJuS.s:18167  .debug_macro:0000000000000000 .Ldebug_macro25
C:\Users\SOLDER~1\AppData\Local\Temp\ccUIzJuS.s:18763  .debug_macro:0000000000000000 .Ldebug_macro26
C:\Users\SOLDER~1\AppData\Local\Temp\ccUIzJuS.s:18933  .debug_macro:0000000000000000 .Ldebug_macro27
C:\Users\SOLDER~1\AppData\Local\Temp\ccUIzJuS.s:18953  .debug_macro:0000000000000000 .Ldebug_macro28
C:\Users\SOLDER~1\AppData\Local\Temp\ccUIzJuS.s:18976  .debug_macro:0000000000000000 .Ldebug_macro29
C:\Users\SOLDER~1\AppData\Local\Temp\ccUIzJuS.s:22612  .debug_str:000000000000dc13 .LASF5712
C:\Users\SOLDER~1\AppData\Local\Temp\ccUIzJuS.s:25008  .debug_str:0000000000017854 .LASF5713
C:\Users\SOLDER~1\AppData\Local\Temp\ccUIzJuS.s:20316  .debug_str:00000000000045c2 .LASF5714
C:\Users\SOLDER~1\AppData\Local\Temp\ccUIzJuS.s:25746  .debug_str:000000000001a7d7 .LASF5715
C:\Users\SOLDER~1\AppData\Local\Temp\ccUIzJuS.s:30788  .debug_str:000000000002f0db .LASF5716
C:\Users\SOLDER~1\AppData\Local\Temp\ccUIzJuS.s:28606  .debug_str:00000000000262d0 .LASF5717
C:\Users\SOLDER~1\AppData\Local\Temp\ccUIzJuS.s:28906  .debug_str:000000000002771a .LASF5718
C:\Users\SOLDER~1\AppData\Local\Temp\ccUIzJuS.s:23818  .debug_str:00000000000129f0 .LASF5719
C:\Users\SOLDER~1\AppData\Local\Temp\ccUIzJuS.s:29776  .debug_str:000000000002afd9 .LASF5720
C:\Users\SOLDER~1\AppData\Local\Temp\ccUIzJuS.s:24922  .debug_str:00000000000172bb .LASF5721
C:\Users\SOLDER~1\AppData\Local\Temp\ccUIzJuS.s:20668  .debug_str:0000000000005c4f .LASF2
C:\Users\SOLDER~1\AppData\Local\Temp\ccUIzJuS.s:29546  .debug_str:000000000002a0e0 .LASF3
C:\Users\SOLDER~1\AppData\Local\Temp\ccUIzJuS.s:29924  .debug_str:000000000002b9b1 .LASF4
C:\Users\SOLDER~1\AppData\Local\Temp\ccUIzJuS.s:23380  .debug_str:0000000000010e3b .LASF5
C:\Users\SOLDER~1\AppData\Local\Temp\ccUIzJuS.s:24736  .debug_str:00000000000166fd .LASF6
C:\Users\SOLDER~1\AppData\Local\Temp\ccUIzJuS.s:30338  .debug_str:000000000002d478 .LASF7
C:\Users\SOLDER~1\AppData\Local\Temp\ccUIzJuS.s:23442  .debug_str:0000000000011232 .LASF8
C:\Users\SOLDER~1\AppData\Local\Temp\ccUIzJuS.s:24188  .debug_str:00000000000143b1 .LASF9
C:\Users\SOLDER~1\AppData\Local\Temp\ccUIzJuS.s:21402  .debug_str:0000000000008c1b .LASF10
GAS LISTING C:\Users\SOLDER~1\AppData\Local\Temp\ccUIzJuS.s 			page 29


C:\Users\SOLDER~1\AppData\Local\Temp\ccUIzJuS.s:29250  .debug_str:0000000000028dda .LASF11
C:\Users\SOLDER~1\AppData\Local\Temp\ccUIzJuS.s:25806  .debug_str:000000000001abe6 .LASF12
C:\Users\SOLDER~1\AppData\Local\Temp\ccUIzJuS.s:25660  .debug_str:000000000001a245 .LASF13
C:\Users\SOLDER~1\AppData\Local\Temp\ccUIzJuS.s:28182  .debug_str:0000000000024687 .LASF14
C:\Users\SOLDER~1\AppData\Local\Temp\ccUIzJuS.s:25680  .debug_str:000000000001a381 .LASF15
C:\Users\SOLDER~1\AppData\Local\Temp\ccUIzJuS.s:21888  .debug_str:000000000000ac41 .LASF16
C:\Users\SOLDER~1\AppData\Local\Temp\ccUIzJuS.s:27084  .debug_str:000000000001ffba .LASF17
C:\Users\SOLDER~1\AppData\Local\Temp\ccUIzJuS.s:27800  .debug_str:0000000000022d7d .LASF18
C:\Users\SOLDER~1\AppData\Local\Temp\ccUIzJuS.s:21926  .debug_str:000000000000aecc .LASF19
C:\Users\SOLDER~1\AppData\Local\Temp\ccUIzJuS.s:20822  .debug_str:0000000000006666 .LASF20
C:\Users\SOLDER~1\AppData\Local\Temp\ccUIzJuS.s:22920  .debug_str:000000000000f054 .LASF21
C:\Users\SOLDER~1\AppData\Local\Temp\ccUIzJuS.s:28662  .debug_str:00000000000266ce .LASF22
C:\Users\SOLDER~1\AppData\Local\Temp\ccUIzJuS.s:25488  .debug_str:00000000000197e2 .LASF23
C:\Users\SOLDER~1\AppData\Local\Temp\ccUIzJuS.s:25486  .debug_str:00000000000197c8 .LASF24
C:\Users\SOLDER~1\AppData\Local\Temp\ccUIzJuS.s:28106  .debug_str:000000000002416e .LASF25
C:\Users\SOLDER~1\AppData\Local\Temp\ccUIzJuS.s:28776  .debug_str:0000000000026e7a .LASF26
C:\Users\SOLDER~1\AppData\Local\Temp\ccUIzJuS.s:20176  .debug_str:0000000000003ceb .LASF27
C:\Users\SOLDER~1\AppData\Local\Temp\ccUIzJuS.s:24878  .debug_str:0000000000016fd6 .LASF28
C:\Users\SOLDER~1\AppData\Local\Temp\ccUIzJuS.s:28004  .debug_str:0000000000023aa1 .LASF29
C:\Users\SOLDER~1\AppData\Local\Temp\ccUIzJuS.s:27810  .debug_str:0000000000022e25 .LASF30
C:\Users\SOLDER~1\AppData\Local\Temp\ccUIzJuS.s:20606  .debug_str:000000000000581b .LASF31
C:\Users\SOLDER~1\AppData\Local\Temp\ccUIzJuS.s:26862  .debug_str:000000000001f0f9 .LASF32
C:\Users\SOLDER~1\AppData\Local\Temp\ccUIzJuS.s:19578  .debug_str:000000000000168b .LASF33
C:\Users\SOLDER~1\AppData\Local\Temp\ccUIzJuS.s:23614  .debug_str:0000000000011d43 .LASF34
C:\Users\SOLDER~1\AppData\Local\Temp\ccUIzJuS.s:24550  .debug_str:0000000000015b55 .LASF35
C:\Users\SOLDER~1\AppData\Local\Temp\ccUIzJuS.s:22670  .debug_str:000000000000dff6 .LASF36
C:\Users\SOLDER~1\AppData\Local\Temp\ccUIzJuS.s:21764  .debug_str:000000000000a413 .LASF37
C:\Users\SOLDER~1\AppData\Local\Temp\ccUIzJuS.s:21618  .debug_str:0000000000009a72 .LASF38
C:\Users\SOLDER~1\AppData\Local\Temp\ccUIzJuS.s:22944  .debug_str:000000000000f1c7 .LASF39
C:\Users\SOLDER~1\AppData\Local\Temp\ccUIzJuS.s:25912  .debug_str:000000000001b2d3 .LASF40
C:\Users\SOLDER~1\AppData\Local\Temp\ccUIzJuS.s:21146  .debug_str:0000000000007b57 .LASF41
C:\Users\SOLDER~1\AppData\Local\Temp\ccUIzJuS.s:23318  .debug_str:0000000000010a55 .LASF42
C:\Users\SOLDER~1\AppData\Local\Temp\ccUIzJuS.s:29082  .debug_str:00000000000282f3 .LASF43
C:\Users\SOLDER~1\AppData\Local\Temp\ccUIzJuS.s:19938  .debug_str:0000000000002d63 .LASF44
C:\Users\SOLDER~1\AppData\Local\Temp\ccUIzJuS.s:23010  .debug_str:000000000000f5fa .LASF45
C:\Users\SOLDER~1\AppData\Local\Temp\ccUIzJuS.s:23924  .debug_str:000000000001313f .LASF46
C:\Users\SOLDER~1\AppData\Local\Temp\ccUIzJuS.s:28388  .debug_str:000000000002542d .LASF47
C:\Users\SOLDER~1\AppData\Local\Temp\ccUIzJuS.s:25902  .debug_str:000000000001b228 .LASF48
C:\Users\SOLDER~1\AppData\Local\Temp\ccUIzJuS.s:23774  .debug_str:000000000001277c .LASF49
C:\Users\SOLDER~1\AppData\Local\Temp\ccUIzJuS.s:20434  .debug_str:0000000000004d7e .LASF50
C:\Users\SOLDER~1\AppData\Local\Temp\ccUIzJuS.s:23926  .debug_str:0000000000013158 .LASF51
C:\Users\SOLDER~1\AppData\Local\Temp\ccUIzJuS.s:28568  .debug_str:000000000002604f .LASF52
C:\Users\SOLDER~1\AppData\Local\Temp\ccUIzJuS.s:22668  .debug_str:000000000000dfd6 .LASF53
C:\Users\SOLDER~1\AppData\Local\Temp\ccUIzJuS.s:19784  .debug_str:00000000000023af .LASF54
C:\Users\SOLDER~1\AppData\Local\Temp\ccUIzJuS.s:19272  .debug_str:00000000000001bc .LASF55
C:\Users\SOLDER~1\AppData\Local\Temp\ccUIzJuS.s:29964  .debug_str:000000000002bc3c .LASF56
C:\Users\SOLDER~1\AppData\Local\Temp\ccUIzJuS.s:27980  .debug_str:0000000000023944 .LASF57
C:\Users\SOLDER~1\AppData\Local\Temp\ccUIzJuS.s:19358  .debug_str:00000000000007f7 .LASF58
C:\Users\SOLDER~1\AppData\Local\Temp\ccUIzJuS.s:23284  .debug_str:0000000000010802 .LASF59
C:\Users\SOLDER~1\AppData\Local\Temp\ccUIzJuS.s:21232  .debug_str:000000000000812a .LASF60
C:\Users\SOLDER~1\AppData\Local\Temp\ccUIzJuS.s:27636  .debug_str:0000000000022287 .LASF61
C:\Users\SOLDER~1\AppData\Local\Temp\ccUIzJuS.s:19530  .debug_str:0000000000001361 .LASF62
C:\Users\SOLDER~1\AppData\Local\Temp\ccUIzJuS.s:22554  .debug_str:000000000000d868 .LASF63
C:\Users\SOLDER~1\AppData\Local\Temp\ccUIzJuS.s:25450  .debug_str:0000000000019571 .LASF64
C:\Users\SOLDER~1\AppData\Local\Temp\ccUIzJuS.s:26264  .debug_str:000000000001c9d3 .LASF65
C:\Users\SOLDER~1\AppData\Local\Temp\ccUIzJuS.s:20018  .debug_str:0000000000003298 .LASF66
C:\Users\SOLDER~1\AppData\Local\Temp\ccUIzJuS.s:22658  .debug_str:000000000000df33 .LASF67
GAS LISTING C:\Users\SOLDER~1\AppData\Local\Temp\ccUIzJuS.s 			page 30


C:\Users\SOLDER~1\AppData\Local\Temp\ccUIzJuS.s:22386  .debug_str:000000000000cd5c .LASF68
C:\Users\SOLDER~1\AppData\Local\Temp\ccUIzJuS.s:25892  .debug_str:000000000001b1a0 .LASF69
C:\Users\SOLDER~1\AppData\Local\Temp\ccUIzJuS.s:24544  .debug_str:0000000000015aeb .LASF70
C:\Users\SOLDER~1\AppData\Local\Temp\ccUIzJuS.s:29724  .debug_str:000000000002ac66 .LASF71
C:\Users\SOLDER~1\AppData\Local\Temp\ccUIzJuS.s:30190  .debug_str:000000000002caa8 .LASF72
C:\Users\SOLDER~1\AppData\Local\Temp\ccUIzJuS.s:23730  .debug_str:000000000001247d .LASF73
C:\Users\SOLDER~1\AppData\Local\Temp\ccUIzJuS.s:22832  .debug_str:000000000000eaf0 .LASF74
C:\Users\SOLDER~1\AppData\Local\Temp\ccUIzJuS.s:20452  .debug_str:0000000000004e95 .LASF75
C:\Users\SOLDER~1\AppData\Local\Temp\ccUIzJuS.s:23764  .debug_str:00000000000126e2 .LASF76
C:\Users\SOLDER~1\AppData\Local\Temp\ccUIzJuS.s:22308  .debug_str:000000000000c7fc .LASF77
C:\Users\SOLDER~1\AppData\Local\Temp\ccUIzJuS.s:24014  .debug_str:000000000001373e .LASF78
C:\Users\SOLDER~1\AppData\Local\Temp\ccUIzJuS.s:24552  .debug_str:0000000000015b83 .LASF79
C:\Users\SOLDER~1\AppData\Local\Temp\ccUIzJuS.s:23954  .debug_str:0000000000013349 .LASF80
C:\Users\SOLDER~1\AppData\Local\Temp\ccUIzJuS.s:28474  .debug_str:00000000000259db .LASF81
C:\Users\SOLDER~1\AppData\Local\Temp\ccUIzJuS.s:26390  .debug_str:000000000001d26c .LASF82
C:\Users\SOLDER~1\AppData\Local\Temp\ccUIzJuS.s:26828  .debug_str:000000000001eed4 .LASF83
C:\Users\SOLDER~1\AppData\Local\Temp\ccUIzJuS.s:29708  .debug_str:000000000002ab57 .LASF84
C:\Users\SOLDER~1\AppData\Local\Temp\ccUIzJuS.s:21710  .debug_str:000000000000a071 .LASF85
C:\Users\SOLDER~1\AppData\Local\Temp\ccUIzJuS.s:25572  .debug_str:0000000000019cee .LASF86
C:\Users\SOLDER~1\AppData\Local\Temp\ccUIzJuS.s:23766  .debug_str:0000000000012709 .LASF87
C:\Users\SOLDER~1\AppData\Local\Temp\ccUIzJuS.s:25918  .debug_str:000000000001b333 .LASF88
C:\Users\SOLDER~1\AppData\Local\Temp\ccUIzJuS.s:20962  .debug_str:0000000000006ff8 .LASF89
C:\Users\SOLDER~1\AppData\Local\Temp\ccUIzJuS.s:30184  .debug_str:000000000002ca46 .LASF90
C:\Users\SOLDER~1\AppData\Local\Temp\ccUIzJuS.s:29880  .debug_str:000000000002b6bd .LASF91
C:\Users\SOLDER~1\AppData\Local\Temp\ccUIzJuS.s:27248  .debug_str:0000000000020a5c .LASF92
C:\Users\SOLDER~1\AppData\Local\Temp\ccUIzJuS.s:25988  .debug_str:000000000001b7a8 .LASF93
C:\Users\SOLDER~1\AppData\Local\Temp\ccUIzJuS.s:27272  .debug_str:0000000000020bf7 .LASF94
C:\Users\SOLDER~1\AppData\Local\Temp\ccUIzJuS.s:30100  .debug_str:000000000002c511 .LASF95
C:\Users\SOLDER~1\AppData\Local\Temp\ccUIzJuS.s:28880  .debug_str:000000000002756f .LASF96
C:\Users\SOLDER~1\AppData\Local\Temp\ccUIzJuS.s:21798  .debug_str:000000000000a65a .LASF97
C:\Users\SOLDER~1\AppData\Local\Temp\ccUIzJuS.s:28100  .debug_str:00000000000240f3 .LASF98
C:\Users\SOLDER~1\AppData\Local\Temp\ccUIzJuS.s:24250  .debug_str:00000000000147e6 .LASF99
C:\Users\SOLDER~1\AppData\Local\Temp\ccUIzJuS.s:28266  .debug_str:0000000000024c2e .LASF100
C:\Users\SOLDER~1\AppData\Local\Temp\ccUIzJuS.s:30376  .debug_str:000000000002d6d9 .LASF101
C:\Users\SOLDER~1\AppData\Local\Temp\ccUIzJuS.s:23860  .debug_str:0000000000012d28 .LASF102
C:\Users\SOLDER~1\AppData\Local\Temp\ccUIzJuS.s:27822  .debug_str:0000000000022ed6 .LASF103
C:\Users\SOLDER~1\AppData\Local\Temp\ccUIzJuS.s:26454  .debug_str:000000000001d6bb .LASF104
C:\Users\SOLDER~1\AppData\Local\Temp\ccUIzJuS.s:23336  .debug_str:0000000000010b68 .LASF105
C:\Users\SOLDER~1\AppData\Local\Temp\ccUIzJuS.s:21060  .debug_str:0000000000007600 .LASF106
C:\Users\SOLDER~1\AppData\Local\Temp\ccUIzJuS.s:23608  .debug_str:0000000000011cce .LASF107
C:\Users\SOLDER~1\AppData\Local\Temp\ccUIzJuS.s:22580  .debug_str:000000000000d9f4 .LASF108
C:\Users\SOLDER~1\AppData\Local\Temp\ccUIzJuS.s:23782  .debug_str:000000000001280c .LASF109
C:\Users\SOLDER~1\AppData\Local\Temp\ccUIzJuS.s:20484  .debug_str:0000000000005073 .LASF110
C:\Users\SOLDER~1\AppData\Local\Temp\ccUIzJuS.s:23602  .debug_str:0000000000011c78 .LASF111
C:\Users\SOLDER~1\AppData\Local\Temp\ccUIzJuS.s:22576  .debug_str:000000000000d9bf .LASF112
C:\Users\SOLDER~1\AppData\Local\Temp\ccUIzJuS.s:24072  .debug_str:0000000000013b94 .LASF113
C:\Users\SOLDER~1\AppData\Local\Temp\ccUIzJuS.s:22970  .debug_str:000000000000f364 .LASF114
C:\Users\SOLDER~1\AppData\Local\Temp\ccUIzJuS.s:25540  .debug_str:0000000000019ade .LASF115
C:\Users\SOLDER~1\AppData\Local\Temp\ccUIzJuS.s:22058  .debug_str:000000000000b722 .LASF116
C:\Users\SOLDER~1\AppData\Local\Temp\ccUIzJuS.s:21792  .debug_str:000000000000a5d3 .LASF117
C:\Users\SOLDER~1\AppData\Local\Temp\ccUIzJuS.s:23138  .debug_str:000000000000feef .LASF118
C:\Users\SOLDER~1\AppData\Local\Temp\ccUIzJuS.s:29760  .debug_str:000000000002aee0 .LASF119
C:\Users\SOLDER~1\AppData\Local\Temp\ccUIzJuS.s:25070  .debug_str:0000000000017c87 .LASF120
C:\Users\SOLDER~1\AppData\Local\Temp\ccUIzJuS.s:21560  .debug_str:00000000000096b7 .LASF121
C:\Users\SOLDER~1\AppData\Local\Temp\ccUIzJuS.s:26246  .debug_str:000000000001c89f .LASF122
C:\Users\SOLDER~1\AppData\Local\Temp\ccUIzJuS.s:30508  .debug_str:000000000002df4d .LASF123
C:\Users\SOLDER~1\AppData\Local\Temp\ccUIzJuS.s:22886  .debug_str:000000000000ee1f .LASF124
GAS LISTING C:\Users\SOLDER~1\AppData\Local\Temp\ccUIzJuS.s 			page 31


C:\Users\SOLDER~1\AppData\Local\Temp\ccUIzJuS.s:28460  .debug_str:00000000000258c5 .LASF125
C:\Users\SOLDER~1\AppData\Local\Temp\ccUIzJuS.s:22360  .debug_str:000000000000cb9c .LASF126
C:\Users\SOLDER~1\AppData\Local\Temp\ccUIzJuS.s:22452  .debug_str:000000000000d1b3 .LASF127
C:\Users\SOLDER~1\AppData\Local\Temp\ccUIzJuS.s:20116  .debug_str:00000000000038f0 .LASF128
C:\Users\SOLDER~1\AppData\Local\Temp\ccUIzJuS.s:20402  .debug_str:0000000000004b86 .LASF129
C:\Users\SOLDER~1\AppData\Local\Temp\ccUIzJuS.s:29446  .debug_str:0000000000029a66 .LASF130
C:\Users\SOLDER~1\AppData\Local\Temp\ccUIzJuS.s:23788  .debug_str:000000000001282a .LASF131
C:\Users\SOLDER~1\AppData\Local\Temp\ccUIzJuS.s:26650  .debug_str:000000000001e304 .LASF132
C:\Users\SOLDER~1\AppData\Local\Temp\ccUIzJuS.s:21628  .debug_str:0000000000009b0d .LASF133
C:\Users\SOLDER~1\AppData\Local\Temp\ccUIzJuS.s:28988  .debug_str:0000000000027c5a .LASF134
C:\Users\SOLDER~1\AppData\Local\Temp\ccUIzJuS.s:29312  .debug_str:00000000000291a0 .LASF135
C:\Users\SOLDER~1\AppData\Local\Temp\ccUIzJuS.s:29112  .debug_str:00000000000284d5 .LASF136
C:\Users\SOLDER~1\AppData\Local\Temp\ccUIzJuS.s:22864  .debug_str:000000000000eca4 .LASF137
C:\Users\SOLDER~1\AppData\Local\Temp\ccUIzJuS.s:28374  .debug_str:0000000000025331 .LASF138
C:\Users\SOLDER~1\AppData\Local\Temp\ccUIzJuS.s:20388  .debug_str:0000000000004a79 .LASF139
C:\Users\SOLDER~1\AppData\Local\Temp\ccUIzJuS.s:21274  .debug_str:00000000000083e8 .LASF140
C:\Users\SOLDER~1\AppData\Local\Temp\ccUIzJuS.s:30182  .debug_str:000000000002ca32 .LASF141
C:\Users\SOLDER~1\AppData\Local\Temp\ccUIzJuS.s:26142  .debug_str:000000000001c17f .LASF142
C:\Users\SOLDER~1\AppData\Local\Temp\ccUIzJuS.s:29652  .debug_str:000000000002a817 .LASF143
C:\Users\SOLDER~1\AppData\Local\Temp\ccUIzJuS.s:28752  .debug_str:0000000000026cf7 .LASF144
C:\Users\SOLDER~1\AppData\Local\Temp\ccUIzJuS.s:26338  .debug_str:000000000001cf09 .LASF145
C:\Users\SOLDER~1\AppData\Local\Temp\ccUIzJuS.s:21750  .debug_str:000000000000a313 .LASF146
C:\Users\SOLDER~1\AppData\Local\Temp\ccUIzJuS.s:24008  .debug_str:00000000000136e4 .LASF147
C:\Users\SOLDER~1\AppData\Local\Temp\ccUIzJuS.s:25504  .debug_str:00000000000198aa .LASF148
C:\Users\SOLDER~1\AppData\Local\Temp\ccUIzJuS.s:24560  .debug_str:0000000000015bdb .LASF149
C:\Users\SOLDER~1\AppData\Local\Temp\ccUIzJuS.s:22412  .debug_str:000000000000cefb .LASF150
C:\Users\SOLDER~1\AppData\Local\Temp\ccUIzJuS.s:20450  .debug_str:0000000000004e7e .LASF151
C:\Users\SOLDER~1\AppData\Local\Temp\ccUIzJuS.s:23006  .debug_str:000000000000f5bc .LASF152
C:\Users\SOLDER~1\AppData\Local\Temp\ccUIzJuS.s:25492  .debug_str:0000000000019812 .LASF153
C:\Users\SOLDER~1\AppData\Local\Temp\ccUIzJuS.s:19348  .debug_str:0000000000000765 .LASF154
C:\Users\SOLDER~1\AppData\Local\Temp\ccUIzJuS.s:27812  .debug_str:0000000000022e3f .LASF155
C:\Users\SOLDER~1\AppData\Local\Temp\ccUIzJuS.s:24062  .debug_str:0000000000013aaf .LASF156
C:\Users\SOLDER~1\AppData\Local\Temp\ccUIzJuS.s:28754  .debug_str:0000000000026d0f .LASF157
C:\Users\SOLDER~1\AppData\Local\Temp\ccUIzJuS.s:26542  .debug_str:000000000001dbe8 .LASF158
C:\Users\SOLDER~1\AppData\Local\Temp\ccUIzJuS.s:28692  .debug_str:00000000000268c9 .LASF159
C:\Users\SOLDER~1\AppData\Local\Temp\ccUIzJuS.s:29366  .debug_str:0000000000029534 .LASF160
C:\Users\SOLDER~1\AppData\Local\Temp\ccUIzJuS.s:26686  .debug_str:000000000001e53b .LASF161
C:\Users\SOLDER~1\AppData\Local\Temp\ccUIzJuS.s:22288  .debug_str:000000000000c6a2 .LASF162
C:\Users\SOLDER~1\AppData\Local\Temp\ccUIzJuS.s:21376  .debug_str:0000000000008a60 .LASF163
C:\Users\SOLDER~1\AppData\Local\Temp\ccUIzJuS.s:24198  .debug_str:0000000000014459 .LASF164
C:\Users\SOLDER~1\AppData\Local\Temp\ccUIzJuS.s:26188  .debug_str:000000000001c4da .LASF165
C:\Users\SOLDER~1\AppData\Local\Temp\ccUIzJuS.s:27628  .debug_str:000000000002222a .LASF166
C:\Users\SOLDER~1\AppData\Local\Temp\ccUIzJuS.s:29242  .debug_str:0000000000028d5b .LASF167
C:\Users\SOLDER~1\AppData\Local\Temp\ccUIzJuS.s:28364  .debug_str:0000000000025277 .LASF168
C:\Users\SOLDER~1\AppData\Local\Temp\ccUIzJuS.s:30082  .debug_str:000000000002c40f .LASF169
C:\Users\SOLDER~1\AppData\Local\Temp\ccUIzJuS.s:21136  .debug_str:0000000000007aa7 .LASF170
C:\Users\SOLDER~1\AppData\Local\Temp\ccUIzJuS.s:29752  .debug_str:000000000002ae60 .LASF171
C:\Users\SOLDER~1\AppData\Local\Temp\ccUIzJuS.s:21522  .debug_str:000000000000941c .LASF172
C:\Users\SOLDER~1\AppData\Local\Temp\ccUIzJuS.s:26044  .debug_str:000000000001bb07 .LASF173
C:\Users\SOLDER~1\AppData\Local\Temp\ccUIzJuS.s:25290  .debug_str:0000000000018abf .LASF174
C:\Users\SOLDER~1\AppData\Local\Temp\ccUIzJuS.s:29172  .debug_str:00000000000288a3 .LASF175
C:\Users\SOLDER~1\AppData\Local\Temp\ccUIzJuS.s:26184  .debug_str:000000000001c46c .LASF176
C:\Users\SOLDER~1\AppData\Local\Temp\ccUIzJuS.s:26464  .debug_str:000000000001d74f .LASF177
C:\Users\SOLDER~1\AppData\Local\Temp\ccUIzJuS.s:21744  .debug_str:000000000000a2ce .LASF178
C:\Users\SOLDER~1\AppData\Local\Temp\ccUIzJuS.s:23728  .debug_str:0000000000012465 .LASF179
C:\Users\SOLDER~1\AppData\Local\Temp\ccUIzJuS.s:25616  .debug_str:0000000000019f7f .LASF180
C:\Users\SOLDER~1\AppData\Local\Temp\ccUIzJuS.s:20792  .debug_str:0000000000006481 .LASF181
GAS LISTING C:\Users\SOLDER~1\AppData\Local\Temp\ccUIzJuS.s 			page 32


C:\Users\SOLDER~1\AppData\Local\Temp\ccUIzJuS.s:21604  .debug_str:00000000000099ab .LASF182
C:\Users\SOLDER~1\AppData\Local\Temp\ccUIzJuS.s:20256  .debug_str:000000000000421e .LASF183
C:\Users\SOLDER~1\AppData\Local\Temp\ccUIzJuS.s:25674  .debug_str:000000000001a322 .LASF184
C:\Users\SOLDER~1\AppData\Local\Temp\ccUIzJuS.s:24200  .debug_str:0000000000014470 .LASF185
C:\Users\SOLDER~1\AppData\Local\Temp\ccUIzJuS.s:19778  .debug_str:000000000000233f .LASF186
C:\Users\SOLDER~1\AppData\Local\Temp\ccUIzJuS.s:30374  .debug_str:000000000002d6c6 .LASF187
C:\Users\SOLDER~1\AppData\Local\Temp\ccUIzJuS.s:19562  .debug_str:0000000000001596 .LASF188
C:\Users\SOLDER~1\AppData\Local\Temp\ccUIzJuS.s:24180  .debug_str:0000000000014317 .LASF189
C:\Users\SOLDER~1\AppData\Local\Temp\ccUIzJuS.s:24630  .debug_str:000000000001605a .LASF190
C:\Users\SOLDER~1\AppData\Local\Temp\ccUIzJuS.s:29578  .debug_str:000000000002a30e .LASF191
C:\Users\SOLDER~1\AppData\Local\Temp\ccUIzJuS.s:22610  .debug_str:000000000000dbd7 .LASF192
C:\Users\SOLDER~1\AppData\Local\Temp\ccUIzJuS.s:30052  .debug_str:000000000002c1df .LASF193
C:\Users\SOLDER~1\AppData\Local\Temp\ccUIzJuS.s:24146  .debug_str:00000000000140ac .LASF194
C:\Users\SOLDER~1\AppData\Local\Temp\ccUIzJuS.s:22906  .debug_str:000000000000ef84 .LASF195
C:\Users\SOLDER~1\AppData\Local\Temp\ccUIzJuS.s:21940  .debug_str:000000000000afc5 .LASF196
C:\Users\SOLDER~1\AppData\Local\Temp\ccUIzJuS.s:26744  .debug_str:000000000001e92d .LASF197
C:\Users\SOLDER~1\AppData\Local\Temp\ccUIzJuS.s:29666  .debug_str:000000000002a8fd .LASF198
C:\Users\SOLDER~1\AppData\Local\Temp\ccUIzJuS.s:24426  .debug_str:000000000001533e .LASF199
C:\Users\SOLDER~1\AppData\Local\Temp\ccUIzJuS.s:26940  .debug_str:000000000001f64f .LASF200
C:\Users\SOLDER~1\AppData\Local\Temp\ccUIzJuS.s:19572  .debug_str:0000000000001638 .LASF201
C:\Users\SOLDER~1\AppData\Local\Temp\ccUIzJuS.s:30608  .debug_str:000000000002e568 .LASF202
C:\Users\SOLDER~1\AppData\Local\Temp\ccUIzJuS.s:24402  .debug_str:0000000000015191 .LASF203
C:\Users\SOLDER~1\AppData\Local\Temp\ccUIzJuS.s:27128  .debug_str:000000000002029a .LASF204
C:\Users\SOLDER~1\AppData\Local\Temp\ccUIzJuS.s:25694  .debug_str:000000000001a464 .LASF205
C:\Users\SOLDER~1\AppData\Local\Temp\ccUIzJuS.s:20840  .debug_str:00000000000067a4 .LASF206
C:\Users\SOLDER~1\AppData\Local\Temp\ccUIzJuS.s:24414  .debug_str:0000000000015258 .LASF207
C:\Users\SOLDER~1\AppData\Local\Temp\ccUIzJuS.s:26386  .debug_str:000000000001d205 .LASF208
C:\Users\SOLDER~1\AppData\Local\Temp\ccUIzJuS.s:27360  .debug_str:0000000000021183 .LASF209
C:\Users\SOLDER~1\AppData\Local\Temp\ccUIzJuS.s:23230  .debug_str:00000000000104d4 .LASF210
C:\Users\SOLDER~1\AppData\Local\Temp\ccUIzJuS.s:28756  .debug_str:0000000000026d4b .LASF211
C:\Users\SOLDER~1\AppData\Local\Temp\ccUIzJuS.s:28554  .debug_str:0000000000025f39 .LASF212
C:\Users\SOLDER~1\AppData\Local\Temp\ccUIzJuS.s:21082  .debug_str:0000000000007763 .LASF213
C:\Users\SOLDER~1\AppData\Local\Temp\ccUIzJuS.s:28066  .debug_str:0000000000023ebc .LASF214
C:\Users\SOLDER~1\AppData\Local\Temp\ccUIzJuS.s:24716  .debug_str:00000000000165fb .LASF215
C:\Users\SOLDER~1\AppData\Local\Temp\ccUIzJuS.s:21048  .debug_str:000000000000756c .LASF216
C:\Users\SOLDER~1\AppData\Local\Temp\ccUIzJuS.s:21464  .debug_str:0000000000009044 .LASF217
C:\Users\SOLDER~1\AppData\Local\Temp\ccUIzJuS.s:28632  .debug_str:00000000000264e4 .LASF218
C:\Users\SOLDER~1\AppData\Local\Temp\ccUIzJuS.s:27556  .debug_str:0000000000021dd1 .LASF219
C:\Users\SOLDER~1\AppData\Local\Temp\ccUIzJuS.s:19874  .debug_str:0000000000002985 .LASF220
C:\Users\SOLDER~1\AppData\Local\Temp\ccUIzJuS.s:21598  .debug_str:0000000000009908 .LASF221
C:\Users\SOLDER~1\AppData\Local\Temp\ccUIzJuS.s:19288  .debug_str:00000000000002c5 .LASF222
C:\Users\SOLDER~1\AppData\Local\Temp\ccUIzJuS.s:27164  .debug_str:00000000000204cb .LASF223
C:\Users\SOLDER~1\AppData\Local\Temp\ccUIzJuS.s:21510  .debug_str:0000000000009355 .LASF224
C:\Users\SOLDER~1\AppData\Local\Temp\ccUIzJuS.s:20848  .debug_str:0000000000006857 .LASF225
C:\Users\SOLDER~1\AppData\Local\Temp\ccUIzJuS.s:26648  .debug_str:000000000001e2ed .LASF226
C:\Users\SOLDER~1\AppData\Local\Temp\ccUIzJuS.s:24814  .debug_str:0000000000016bf7 .LASF227
C:\Users\SOLDER~1\AppData\Local\Temp\ccUIzJuS.s:23146  .debug_str:000000000000ff5f .LASF228
C:\Users\SOLDER~1\AppData\Local\Temp\ccUIzJuS.s:27162  .debug_str:00000000000204b2 .LASF229
C:\Users\SOLDER~1\AppData\Local\Temp\ccUIzJuS.s:28190  .debug_str:0000000000024708 .LASF230
C:\Users\SOLDER~1\AppData\Local\Temp\ccUIzJuS.s:23170  .debug_str:00000000000100cd .LASF231
C:\Users\SOLDER~1\AppData\Local\Temp\ccUIzJuS.s:28984  .debug_str:0000000000027c1e .LASF232
C:\Users\SOLDER~1\AppData\Local\Temp\ccUIzJuS.s:28256  .debug_str:0000000000024b84 .LASF233
C:\Users\SOLDER~1\AppData\Local\Temp\ccUIzJuS.s:30028  .debug_str:000000000002c02a .LASF234
C:\Users\SOLDER~1\AppData\Local\Temp\ccUIzJuS.s:21248  .debug_str:0000000000008239 .LASF235
C:\Users\SOLDER~1\AppData\Local\Temp\ccUIzJuS.s:23222  .debug_str:0000000000010447 .LASF236
C:\Users\SOLDER~1\AppData\Local\Temp\ccUIzJuS.s:22676  .debug_str:000000000000e066 .LASF237
C:\Users\SOLDER~1\AppData\Local\Temp\ccUIzJuS.s:28292  .debug_str:0000000000024dcb .LASF238
GAS LISTING C:\Users\SOLDER~1\AppData\Local\Temp\ccUIzJuS.s 			page 33


C:\Users\SOLDER~1\AppData\Local\Temp\ccUIzJuS.s:24046  .debug_str:000000000001396f .LASF239
C:\Users\SOLDER~1\AppData\Local\Temp\ccUIzJuS.s:27178  .debug_str:00000000000205bc .LASF240
C:\Users\SOLDER~1\AppData\Local\Temp\ccUIzJuS.s:19958  .debug_str:0000000000002eb5 .LASF241
C:\Users\SOLDER~1\AppData\Local\Temp\ccUIzJuS.s:25018  .debug_str:0000000000017912 .LASF242
C:\Users\SOLDER~1\AppData\Local\Temp\ccUIzJuS.s:26478  .debug_str:000000000001d81a .LASF243
C:\Users\SOLDER~1\AppData\Local\Temp\ccUIzJuS.s:25856  .debug_str:000000000001af7b .LASF244
C:\Users\SOLDER~1\AppData\Local\Temp\ccUIzJuS.s:30342  .debug_str:000000000002d4ad .LASF245
C:\Users\SOLDER~1\AppData\Local\Temp\ccUIzJuS.s:26414  .debug_str:000000000001d429 .LASF246
C:\Users\SOLDER~1\AppData\Local\Temp\ccUIzJuS.s:29472  .debug_str:0000000000029be5 .LASF247
C:\Users\SOLDER~1\AppData\Local\Temp\ccUIzJuS.s:22700  .debug_str:000000000000e249 .LASF248
C:\Users\SOLDER~1\AppData\Local\Temp\ccUIzJuS.s:28844  .debug_str:00000000000272ef .LASF249
C:\Users\SOLDER~1\AppData\Local\Temp\ccUIzJuS.s:22552  .debug_str:000000000000d850 .LASF250
C:\Users\SOLDER~1\AppData\Local\Temp\ccUIzJuS.s:25764  .debug_str:000000000001a94c .LASF251
C:\Users\SOLDER~1\AppData\Local\Temp\ccUIzJuS.s:23260  .debug_str:0000000000010698 .LASF252
C:\Users\SOLDER~1\AppData\Local\Temp\ccUIzJuS.s:19498  .debug_str:0000000000001148 .LASF253
C:\Users\SOLDER~1\AppData\Local\Temp\ccUIzJuS.s:22014  .debug_str:000000000000b458 .LASF254
C:\Users\SOLDER~1\AppData\Local\Temp\ccUIzJuS.s:19436  .debug_str:0000000000000d64 .LASF255
C:\Users\SOLDER~1\AppData\Local\Temp\ccUIzJuS.s:22120  .debug_str:000000000000bb22 .LASF256
C:\Users\SOLDER~1\AppData\Local\Temp\ccUIzJuS.s:21602  .debug_str:0000000000009966 .LASF257
C:\Users\SOLDER~1\AppData\Local\Temp\ccUIzJuS.s:30548  .debug_str:000000000002e1ba .LASF258
C:\Users\SOLDER~1\AppData\Local\Temp\ccUIzJuS.s:26362  .debug_str:000000000001d07b .LASF259
C:\Users\SOLDER~1\AppData\Local\Temp\ccUIzJuS.s:25172  .debug_str:0000000000018355 .LASF260
C:\Users\SOLDER~1\AppData\Local\Temp\ccUIzJuS.s:25976  .debug_str:000000000001b6ec .LASF261
C:\Users\SOLDER~1\AppData\Local\Temp\ccUIzJuS.s:22726  .debug_str:000000000000e40f .LASF262
C:\Users\SOLDER~1\AppData\Local\Temp\ccUIzJuS.s:22066  .debug_str:000000000000b7aa .LASF263
C:\Users\SOLDER~1\AppData\Local\Temp\ccUIzJuS.s:29844  .debug_str:000000000002b486 .LASF264
C:\Users\SOLDER~1\AppData\Local\Temp\ccUIzJuS.s:22372  .debug_str:000000000000cc6d .LASF265
C:\Users\SOLDER~1\AppData\Local\Temp\ccUIzJuS.s:23352  .debug_str:0000000000010c5e .LASF266
C:\Users\SOLDER~1\AppData\Local\Temp\ccUIzJuS.s:25204  .debug_str:000000000001854d .LASF267
C:\Users\SOLDER~1\AppData\Local\Temp\ccUIzJuS.s:29094  .debug_str:00000000000283cb .LASF268
C:\Users\SOLDER~1\AppData\Local\Temp\ccUIzJuS.s:22200  .debug_str:000000000000c054 .LASF269
C:\Users\SOLDER~1\AppData\Local\Temp\ccUIzJuS.s:20936  .debug_str:0000000000006dde .LASF270
C:\Users\SOLDER~1\AppData\Local\Temp\ccUIzJuS.s:21116  .debug_str:0000000000007948 .LASF271
C:\Users\SOLDER~1\AppData\Local\Temp\ccUIzJuS.s:22424  .debug_str:000000000000cfce .LASF272
C:\Users\SOLDER~1\AppData\Local\Temp\ccUIzJuS.s:22268  .debug_str:000000000000c532 .LASF273
C:\Users\SOLDER~1\AppData\Local\Temp\ccUIzJuS.s:19584  .debug_str:00000000000016fe .LASF274
C:\Users\SOLDER~1\AppData\Local\Temp\ccUIzJuS.s:20928  .debug_str:0000000000006d6b .LASF275
C:\Users\SOLDER~1\AppData\Local\Temp\ccUIzJuS.s:29780  .debug_str:000000000002b01d .LASF276
C:\Users\SOLDER~1\AppData\Local\Temp\ccUIzJuS.s:27712  .debug_str:0000000000022777 .LASF277
C:\Users\SOLDER~1\AppData\Local\Temp\ccUIzJuS.s:28658  .debug_str:00000000000266a8 .LASF278
C:\Users\SOLDER~1\AppData\Local\Temp\ccUIzJuS.s:20888  .debug_str:0000000000006ad7 .LASF279
C:\Users\SOLDER~1\AppData\Local\Temp\ccUIzJuS.s:20670  .debug_str:0000000000005c5a .LASF280
C:\Users\SOLDER~1\AppData\Local\Temp\ccUIzJuS.s:20548  .debug_str:000000000000547c .LASF281
C:\Users\SOLDER~1\AppData\Local\Temp\ccUIzJuS.s:25234  .debug_str:000000000001874f .LASF282
C:\Users\SOLDER~1\AppData\Local\Temp\ccUIzJuS.s:28626  .debug_str:0000000000026490 .LASF283
C:\Users\SOLDER~1\AppData\Local\Temp\ccUIzJuS.s:28888  .debug_str:00000000000275e6 .LASF284
C:\Users\SOLDER~1\AppData\Local\Temp\ccUIzJuS.s:29758  .debug_str:000000000002aec2 .LASF285
C:\Users\SOLDER~1\AppData\Local\Temp\ccUIzJuS.s:26424  .debug_str:000000000001d4cd .LASF286
C:\Users\SOLDER~1\AppData\Local\Temp\ccUIzJuS.s:30538  .debug_str:000000000002e119 .LASF287
C:\Users\SOLDER~1\AppData\Local\Temp\ccUIzJuS.s:20642  .debug_str:0000000000005a96 .LASF288
C:\Users\SOLDER~1\AppData\Local\Temp\ccUIzJuS.s:24430  .debug_str:0000000000015373 .LASF289
C:\Users\SOLDER~1\AppData\Local\Temp\ccUIzJuS.s:23306  .debug_str:00000000000109a0 .LASF290
C:\Users\SOLDER~1\AppData\Local\Temp\ccUIzJuS.s:30778  .debug_str:000000000002f041 .LASF291
C:\Users\SOLDER~1\AppData\Local\Temp\ccUIzJuS.s:29596  .debug_str:000000000002a469 .LASF292
C:\Users\SOLDER~1\AppData\Local\Temp\ccUIzJuS.s:20472  .debug_str:0000000000004fc7 .LASF293
C:\Users\SOLDER~1\AppData\Local\Temp\ccUIzJuS.s:19290  .debug_str:0000000000000306 .LASF294
C:\Users\SOLDER~1\AppData\Local\Temp\ccUIzJuS.s:24480  .debug_str:00000000000156b8 .LASF295
GAS LISTING C:\Users\SOLDER~1\AppData\Local\Temp\ccUIzJuS.s 			page 34


C:\Users\SOLDER~1\AppData\Local\Temp\ccUIzJuS.s:25308  .debug_str:0000000000018c0d .LASF296
C:\Users\SOLDER~1\AppData\Local\Temp\ccUIzJuS.s:22718  .debug_str:000000000000e389 .LASF297
C:\Users\SOLDER~1\AppData\Local\Temp\ccUIzJuS.s:23252  .debug_str:0000000000010625 .LASF298
C:\Users\SOLDER~1\AppData\Local\Temp\ccUIzJuS.s:26016  .debug_str:000000000001b94e .LASF299
C:\Users\SOLDER~1\AppData\Local\Temp\ccUIzJuS.s:24554  .debug_str:0000000000015b9c .LASF300
C:\Users\SOLDER~1\AppData\Local\Temp\ccUIzJuS.s:23988  .debug_str:0000000000013591 .LASF301
C:\Users\SOLDER~1\AppData\Local\Temp\ccUIzJuS.s:19814  .debug_str:00000000000025b5 .LASF302
C:\Users\SOLDER~1\AppData\Local\Temp\ccUIzJuS.s:22378  .debug_str:000000000000ccd6 .LASF303
C:\Users\SOLDER~1\AppData\Local\Temp\ccUIzJuS.s:27792  .debug_str:0000000000022cfa .LASF304
C:\Users\SOLDER~1\AppData\Local\Temp\ccUIzJuS.s:23272  .debug_str:0000000000010737 .LASF305
C:\Users\SOLDER~1\AppData\Local\Temp\ccUIzJuS.s:28648  .debug_str:0000000000026617 .LASF306
C:\Users\SOLDER~1\AppData\Local\Temp\ccUIzJuS.s:28228  .debug_str:0000000000024994 .LASF307
C:\Users\SOLDER~1\AppData\Local\Temp\ccUIzJuS.s:26436  .debug_str:000000000001d598 .LASF308
C:\Users\SOLDER~1\AppData\Local\Temp\ccUIzJuS.s:20262  .debug_str:0000000000004282 .LASF309
C:\Users\SOLDER~1\AppData\Local\Temp\ccUIzJuS.s:26804  .debug_str:000000000001ed28 .LASF310
C:\Users\SOLDER~1\AppData\Local\Temp\ccUIzJuS.s:22498  .debug_str:000000000000d4d4 .LASF311
C:\Users\SOLDER~1\AppData\Local\Temp\ccUIzJuS.s:23814  .debug_str:00000000000129b8 .LASF312
C:\Users\SOLDER~1\AppData\Local\Temp\ccUIzJuS.s:21668  .debug_str:0000000000009d9e .LASF313
C:\Users\SOLDER~1\AppData\Local\Temp\ccUIzJuS.s:24244  .debug_str:000000000001478e .LASF314
C:\Users\SOLDER~1\AppData\Local\Temp\ccUIzJuS.s:21112  .debug_str:0000000000007909 .LASF315
C:\Users\SOLDER~1\AppData\Local\Temp\ccUIzJuS.s:26508  .debug_str:000000000001d9d4 .LASF316
C:\Users\SOLDER~1\AppData\Local\Temp\ccUIzJuS.s:28980  .debug_str:0000000000027bef .LASF317
C:\Users\SOLDER~1\AppData\Local\Temp\ccUIzJuS.s:28234  .debug_str:0000000000024a01 .LASF319
C:\Users\SOLDER~1\AppData\Local\Temp\ccUIzJuS.s:23110  .debug_str:000000000000fd00 .LASF320
C:\Users\SOLDER~1\AppData\Local\Temp\ccUIzJuS.s:24400  .debug_str:000000000001516c .LASF321
C:\Users\SOLDER~1\AppData\Local\Temp\ccUIzJuS.s:26846  .debug_str:000000000001efd8 .LASF322
C:\Users\SOLDER~1\AppData\Local\Temp\ccUIzJuS.s:25668  .debug_str:000000000001a2c2 .LASF323
C:\Users\SOLDER~1\AppData\Local\Temp\ccUIzJuS.s:22390  .debug_str:000000000000cd98 .LASF324
C:\Users\SOLDER~1\AppData\Local\Temp\ccUIzJuS.s:20638  .debug_str:0000000000005a5d .LASF325
C:\Users\SOLDER~1\AppData\Local\Temp\ccUIzJuS.s:19374  .debug_str:00000000000008fc .LASF326
C:\Users\SOLDER~1\AppData\Local\Temp\ccUIzJuS.s:29600  .debug_str:000000000002a4ae .LASF327
C:\Users\SOLDER~1\AppData\Local\Temp\ccUIzJuS.s:21032  .debug_str:000000000000747b .LASF328
C:\Users\SOLDER~1\AppData\Local\Temp\ccUIzJuS.s:30464  .debug_str:000000000002dc53 .LASF329
C:\Users\SOLDER~1\AppData\Local\Temp\ccUIzJuS.s:20762  .debug_str:0000000000006284 .LASF330
C:\Users\SOLDER~1\AppData\Local\Temp\ccUIzJuS.s:20306  .debug_str:0000000000004515 .LASF331
C:\Users\SOLDER~1\AppData\Local\Temp\ccUIzJuS.s:19302  .debug_str:00000000000003c7 .LASF332
C:\Users\SOLDER~1\AppData\Local\Temp\ccUIzJuS.s:24652  .debug_str:00000000000161cf .LASF333
C:\Users\SOLDER~1\AppData\Local\Temp\ccUIzJuS.s:27262  .debug_str:0000000000020b52 .LASF334
C:\Users\SOLDER~1\AppData\Local\Temp\ccUIzJuS.s:25548  .debug_str:0000000000019b5f .LASF335
C:\Users\SOLDER~1\AppData\Local\Temp\ccUIzJuS.s:25406  .debug_str:000000000001926a .LASF339
C:\Users\SOLDER~1\AppData\Local\Temp\ccUIzJuS.s:25952  .debug_str:000000000001b565 .LASF340
C:\Users\SOLDER~1\AppData\Local\Temp\ccUIzJuS.s:21966  .debug_str:000000000000b149 .LASF341
C:\Users\SOLDER~1\AppData\Local\Temp\ccUIzJuS.s:25178  .debug_str:00000000000183bb .LASF342
C:\Users\SOLDER~1\AppData\Local\Temp\ccUIzJuS.s:25392  .debug_str:0000000000019190 .LASF343
C:\Users\SOLDER~1\AppData\Local\Temp\ccUIzJuS.s:19858  .debug_str:000000000000283b .LASF344
C:\Users\SOLDER~1\AppData\Local\Temp\ccUIzJuS.s:22008  .debug_str:000000000000b3e6 .LASF345
C:\Users\SOLDER~1\AppData\Local\Temp\ccUIzJuS.s:20172  .debug_str:0000000000003ca8 .LASF346
C:\Users\SOLDER~1\AppData\Local\Temp\ccUIzJuS.s:30128  .debug_str:000000000002c6d2 .LASF347
C:\Users\SOLDER~1\AppData\Local\Temp\ccUIzJuS.s:24740  .debug_str:0000000000016747 .LASF348
C:\Users\SOLDER~1\AppData\Local\Temp\ccUIzJuS.s:27198  .debug_str:000000000002071c .LASF349
C:\Users\SOLDER~1\AppData\Local\Temp\ccUIzJuS.s:21500  .debug_str:00000000000092d0 .LASF350
C:\Users\SOLDER~1\AppData\Local\Temp\ccUIzJuS.s:25244  .debug_str:00000000000187e6 .LASF351
C:\Users\SOLDER~1\AppData\Local\Temp\ccUIzJuS.s:30454  .debug_str:000000000002dbbc .LASF352
C:\Users\SOLDER~1\AppData\Local\Temp\ccUIzJuS.s:21942  .debug_str:000000000000afde .LASF353
C:\Users\SOLDER~1\AppData\Local\Temp\ccUIzJuS.s:23022  .debug_str:000000000000f6d0 .LASF354
C:\Users\SOLDER~1\AppData\Local\Temp\ccUIzJuS.s:26450  .debug_str:000000000001d684 .LASF355
C:\Users\SOLDER~1\AppData\Local\Temp\ccUIzJuS.s:24650  .debug_str:00000000000161bf .LASF356
GAS LISTING C:\Users\SOLDER~1\AppData\Local\Temp\ccUIzJuS.s 			page 35


C:\Users\SOLDER~1\AppData\Local\Temp\ccUIzJuS.s:25628  .debug_str:000000000001a048 .LASF357
C:\Users\SOLDER~1\AppData\Local\Temp\ccUIzJuS.s:27836  .debug_str:0000000000022fae .LASF358
C:\Users\SOLDER~1\AppData\Local\Temp\ccUIzJuS.s:23874  .debug_str:0000000000012e1b .LASF359
C:\Users\SOLDER~1\AppData\Local\Temp\ccUIzJuS.s:24854  .debug_str:0000000000016e3c .LASF360
C:\Users\SOLDER~1\AppData\Local\Temp\ccUIzJuS.s:27946  .debug_str:0000000000023721 .LASF361
C:\Users\SOLDER~1\AppData\Local\Temp\ccUIzJuS.s:21000  .debug_str:000000000000725b .LASF362
C:\Users\SOLDER~1\AppData\Local\Temp\ccUIzJuS.s:29732  .debug_str:000000000002acfa .LASF363
C:\Users\SOLDER~1\AppData\Local\Temp\ccUIzJuS.s:20518  .debug_str:00000000000052a3 .LASF364
C:\Users\SOLDER~1\AppData\Local\Temp\ccUIzJuS.s:25328  .debug_str:0000000000018d49 .LASF365
C:\Users\SOLDER~1\AppData\Local\Temp\ccUIzJuS.s:21100  .debug_str:000000000000784e .LASF366
C:\Users\SOLDER~1\AppData\Local\Temp\ccUIzJuS.s:29676  .debug_str:000000000002a981 .LASF367
C:\Users\SOLDER~1\AppData\Local\Temp\ccUIzJuS.s:19260  .debug_str:000000000000011b .LASF368
C:\Users\SOLDER~1\AppData\Local\Temp\ccUIzJuS.s:27148  .debug_str:00000000000203ce .LASF369
C:\Users\SOLDER~1\AppData\Local\Temp\ccUIzJuS.s:22708  .debug_str:000000000000e2dc .LASF370
C:\Users\SOLDER~1\AppData\Local\Temp\ccUIzJuS.s:28136  .debug_str:0000000000024369 .LASF371
C:\Users\SOLDER~1\AppData\Local\Temp\ccUIzJuS.s:27080  .debug_str:000000000001ff7c .LASF372
C:\Users\SOLDER~1\AppData\Local\Temp\ccUIzJuS.s:23466  .debug_str:00000000000113a3 .LASF373
C:\Users\SOLDER~1\AppData\Local\Temp\ccUIzJuS.s:30600  .debug_str:000000000002e4eb .LASF374
C:\Users\SOLDER~1\AppData\Local\Temp\ccUIzJuS.s:30536  .debug_str:000000000002e113 .LASF375
C:\Users\SOLDER~1\AppData\Local\Temp\ccUIzJuS.s:21282  .debug_str:0000000000008469 .LASF376
C:\Users\SOLDER~1\AppData\Local\Temp\ccUIzJuS.s:29630  .debug_str:000000000002a69a .LASF377
C:\Users\SOLDER~1\AppData\Local\Temp\ccUIzJuS.s:24636  .debug_str:00000000000160e2 .LASF378
C:\Users\SOLDER~1\AppData\Local\Temp\ccUIzJuS.s:28406  .debug_str:0000000000025534 .LASF379
C:\Users\SOLDER~1\AppData\Local\Temp\ccUIzJuS.s:29428  .debug_str:000000000002996d .LASF380
C:\Users\SOLDER~1\AppData\Local\Temp\ccUIzJuS.s:27872  .debug_str:000000000002321b .LASF381
C:\Users\SOLDER~1\AppData\Local\Temp\ccUIzJuS.s:24830  .debug_str:0000000000016cdf .LASF382
C:\Users\SOLDER~1\AppData\Local\Temp\ccUIzJuS.s:29456  .debug_str:0000000000029af4 .LASF383
C:\Users\SOLDER~1\AppData\Local\Temp\ccUIzJuS.s:26176  .debug_str:000000000001c3f9 .LASF384
C:\Users\SOLDER~1\AppData\Local\Temp\ccUIzJuS.s:23570  .debug_str:0000000000011a8b .LASF385
C:\Users\SOLDER~1\AppData\Local\Temp\ccUIzJuS.s:27994  .debug_str:0000000000023a1a .LASF386
C:\Users\SOLDER~1\AppData\Local\Temp\ccUIzJuS.s:26994  .debug_str:000000000001fa09 .LASF387
C:\Users\SOLDER~1\AppData\Local\Temp\ccUIzJuS.s:19612  .debug_str:00000000000018bb .LASF388
C:\Users\SOLDER~1\AppData\Local\Temp\ccUIzJuS.s:20278  .debug_str:000000000000436a .LASF389
C:\Users\SOLDER~1\AppData\Local\Temp\ccUIzJuS.s:20696  .debug_str:0000000000005e01 .LASF390
C:\Users\SOLDER~1\AppData\Local\Temp\ccUIzJuS.s:21868  .debug_str:000000000000ab23 .LASF391
C:\Users\SOLDER~1\AppData\Local\Temp\ccUIzJuS.s:21350  .debug_str:00000000000088b1 .LASF392
C:\Users\SOLDER~1\AppData\Local\Temp\ccUIzJuS.s:26694  .debug_str:000000000001e5b9 .LASF393
C:\Users\SOLDER~1\AppData\Local\Temp\ccUIzJuS.s:27330  .debug_str:0000000000020f8d .LASF394
C:\Users\SOLDER~1\AppData\Local\Temp\ccUIzJuS.s:27466  .debug_str:000000000002185b .LASF395
C:\Users\SOLDER~1\AppData\Local\Temp\ccUIzJuS.s:21506  .debug_str:0000000000009326 .LASF396
C:\Users\SOLDER~1\AppData\Local\Temp\ccUIzJuS.s:21090  .debug_str:00000000000077cd .LASF397
C:\Users\SOLDER~1\AppData\Local\Temp\ccUIzJuS.s:26504  .debug_str:000000000001d9b0 .LASF398
C:\Users\SOLDER~1\AppData\Local\Temp\ccUIzJuS.s:29138  .debug_str:0000000000028690 .LASF399
C:\Users\SOLDER~1\AppData\Local\Temp\ccUIzJuS.s:23784  .debug_str:000000000001281a .LASF400
C:\Users\SOLDER~1\AppData\Local\Temp\ccUIzJuS.s:24536  .debug_str:0000000000015a6e .LASF401
C:\Users\SOLDER~1\AppData\Local\Temp\ccUIzJuS.s:22362  .debug_str:000000000000cbc7 .LASF402
C:\Users\SOLDER~1\AppData\Local\Temp\ccUIzJuS.s:26204  .debug_str:000000000001c5e0 .LASF403
C:\Users\SOLDER~1\AppData\Local\Temp\ccUIzJuS.s:24748  .debug_str:00000000000167b4 .LASF404
C:\Users\SOLDER~1\AppData\Local\Temp\ccUIzJuS.s:25194  .debug_str:00000000000184ba .LASF405
C:\Users\SOLDER~1\AppData\Local\Temp\ccUIzJuS.s:21406  .debug_str:0000000000008c4a .LASF406
C:\Users\SOLDER~1\AppData\Local\Temp\ccUIzJuS.s:30078  .debug_str:000000000002c3db .LASF407
C:\Users\SOLDER~1\AppData\Local\Temp\ccUIzJuS.s:24094  .debug_str:0000000000013d2f .LASF408
C:\Users\SOLDER~1\AppData\Local\Temp\ccUIzJuS.s:26534  .debug_str:000000000001db73 .LASF409
C:\Users\SOLDER~1\AppData\Local\Temp\ccUIzJuS.s:22938  .debug_str:000000000000f166 .LASF410
C:\Users\SOLDER~1\AppData\Local\Temp\ccUIzJuS.s:27230  .debug_str:000000000002093a .LASF411
C:\Users\SOLDER~1\AppData\Local\Temp\ccUIzJuS.s:29204  .debug_str:0000000000028ae9 .LASF412
C:\Users\SOLDER~1\AppData\Local\Temp\ccUIzJuS.s:23640  .debug_str:0000000000011ec8 .LASF413
GAS LISTING C:\Users\SOLDER~1\AppData\Local\Temp\ccUIzJuS.s 			page 36


C:\Users\SOLDER~1\AppData\Local\Temp\ccUIzJuS.s:23630  .debug_str:0000000000011e3e .LASF414
C:\Users\SOLDER~1\AppData\Local\Temp\ccUIzJuS.s:25610  .debug_str:0000000000019f3d .LASF415
C:\Users\SOLDER~1\AppData\Local\Temp\ccUIzJuS.s:30634  .debug_str:000000000002e716 .LASF416
C:\Users\SOLDER~1\AppData\Local\Temp\ccUIzJuS.s:30770  .debug_str:000000000002efc8 .LASF417
C:\Users\SOLDER~1\AppData\Local\Temp\ccUIzJuS.s:21162  .debug_str:0000000000007c69 .LASF418
C:\Users\SOLDER~1\AppData\Local\Temp\ccUIzJuS.s:22222  .debug_str:000000000000c1fe .LASF419
C:\Users\SOLDER~1\AppData\Local\Temp\ccUIzJuS.s:19796  .debug_str:0000000000002482 .LASF420
C:\Users\SOLDER~1\AppData\Local\Temp\ccUIzJuS.s:27282  .debug_str:0000000000020ca5 .LASF421
C:\Users\SOLDER~1\AppData\Local\Temp\ccUIzJuS.s:27970  .debug_str:00000000000238a1 .LASF422
C:\Users\SOLDER~1\AppData\Local\Temp\ccUIzJuS.s:19730  .debug_str:0000000000002030 .LASF423
C:\Users\SOLDER~1\AppData\Local\Temp\ccUIzJuS.s:24028  .debug_str:0000000000013837 .LASF424
C:\Users\SOLDER~1\AppData\Local\Temp\ccUIzJuS.s:27220  .debug_str:0000000000020892 .LASF425
C:\Users\SOLDER~1\AppData\Local\Temp\ccUIzJuS.s:23620  .debug_str:0000000000011dba .LASF426
C:\Users\SOLDER~1\AppData\Local\Temp\ccUIzJuS.s:30752  .debug_str:000000000002eea8 .LASF427
C:\Users\SOLDER~1\AppData\Local\Temp\ccUIzJuS.s:26216  .debug_str:000000000001c695 .LASF428
C:\Users\SOLDER~1\AppData\Local\Temp\ccUIzJuS.s:20532  .debug_str:0000000000005394 .LASF429
C:\Users\SOLDER~1\AppData\Local\Temp\ccUIzJuS.s:28346  .debug_str:0000000000025176 .LASF430
C:\Users\SOLDER~1\AppData\Local\Temp\ccUIzJuS.s:23962  .debug_str:00000000000133d2 .LASF431
C:\Users\SOLDER~1\AppData\Local\Temp\ccUIzJuS.s:28258  .debug_str:0000000000024ba2 .LASF432
C:\Users\SOLDER~1\AppData\Local\Temp\ccUIzJuS.s:20440  .debug_str:0000000000004de6 .LASF433
C:\Users\SOLDER~1\AppData\Local\Temp\ccUIzJuS.s:22912  .debug_str:000000000000efd2 .LASF434
C:\Users\SOLDER~1\AppData\Local\Temp\ccUIzJuS.s:27114  .debug_str:00000000000201c4 .LASF435
C:\Users\SOLDER~1\AppData\Local\Temp\ccUIzJuS.s:19422  .debug_str:0000000000000c7a .LASF436
C:\Users\SOLDER~1\AppData\Local\Temp\ccUIzJuS.s:22400  .debug_str:000000000000ce46 .LASF437
C:\Users\SOLDER~1\AppData\Local\Temp\ccUIzJuS.s:24372  .debug_str:0000000000014fd6 .LASF438
C:\Users\SOLDER~1\AppData\Local\Temp\ccUIzJuS.s:20520  .debug_str:00000000000052b8 .LASF439
C:\Users\SOLDER~1\AppData\Local\Temp\ccUIzJuS.s:23690  .debug_str:00000000000121f8 .LASF440
C:\Users\SOLDER~1\AppData\Local\Temp\ccUIzJuS.s:29394  .debug_str:0000000000029736 .LASF441
C:\Users\SOLDER~1\AppData\Local\Temp\ccUIzJuS.s:22054  .debug_str:000000000000b6e3 .LASF442
C:\Users\SOLDER~1\AppData\Local\Temp\ccUIzJuS.s:26262  .debug_str:000000000001c9b7 .LASF443
C:\Users\SOLDER~1\AppData\Local\Temp\ccUIzJuS.s:29950  .debug_str:000000000002bb40 .LASF444
C:\Users\SOLDER~1\AppData\Local\Temp\ccUIzJuS.s:23828  .debug_str:0000000000012ae3 .LASF445
C:\Users\SOLDER~1\AppData\Local\Temp\ccUIzJuS.s:23238  .debug_str:000000000001054b .LASF446
C:\Users\SOLDER~1\AppData\Local\Temp\ccUIzJuS.s:27016  .debug_str:000000000001fb6e .LASF447
C:\Users\SOLDER~1\AppData\Local\Temp\ccUIzJuS.s:21404  .debug_str:0000000000008c30 .LASF448
C:\Users\SOLDER~1\AppData\Local\Temp\ccUIzJuS.s:26608  .debug_str:000000000001e07d .LASF449
C:\Users\SOLDER~1\AppData\Local\Temp\ccUIzJuS.s:22904  .debug_str:000000000000ef59 .LASF450
C:\Users\SOLDER~1\AppData\Local\Temp\ccUIzJuS.s:29364  .debug_str:000000000002950e .LASF451
C:\Users\SOLDER~1\AppData\Local\Temp\ccUIzJuS.s:23540  .debug_str:000000000001187d .LASF452
C:\Users\SOLDER~1\AppData\Local\Temp\ccUIzJuS.s:19976  .debug_str:0000000000002fe9 .LASF453
C:\Users\SOLDER~1\AppData\Local\Temp\ccUIzJuS.s:19568  .debug_str:00000000000015f5 .LASF454
C:\Users\SOLDER~1\AppData\Local\Temp\ccUIzJuS.s:27720  .debug_str:00000000000227f8 .LASF455
C:\Users\SOLDER~1\AppData\Local\Temp\ccUIzJuS.s:28624  .debug_str:0000000000026465 .LASF456
C:\Users\SOLDER~1\AppData\Local\Temp\ccUIzJuS.s:22420  .debug_str:000000000000cf7f .LASF457
C:\Users\SOLDER~1\AppData\Local\Temp\ccUIzJuS.s:22748  .debug_str:000000000000e569 .LASF458
C:\Users\SOLDER~1\AppData\Local\Temp\ccUIzJuS.s:29264  .debug_str:0000000000028ea5 .LASF459
C:\Users\SOLDER~1\AppData\Local\Temp\ccUIzJuS.s:30194  .debug_str:000000000002cae0 .LASF460
C:\Users\SOLDER~1\AppData\Local\Temp\ccUIzJuS.s:19554  .debug_str:0000000000001500 .LASF461
C:\Users\SOLDER~1\AppData\Local\Temp\ccUIzJuS.s:22036  .debug_str:000000000000b5cd .LASF462
C:\Users\SOLDER~1\AppData\Local\Temp\ccUIzJuS.s:28580  .debug_str:0000000000026117 .LASF463
C:\Users\SOLDER~1\AppData\Local\Temp\ccUIzJuS.s:25950  .debug_str:000000000001b53f .LASF464
C:\Users\SOLDER~1\AppData\Local\Temp\ccUIzJuS.s:29116  .debug_str:0000000000028513 .LASF465
C:\Users\SOLDER~1\AppData\Local\Temp\ccUIzJuS.s:25122  .debug_str:0000000000018009 .LASF466
C:\Users\SOLDER~1\AppData\Local\Temp\ccUIzJuS.s:27510  .debug_str:0000000000021b1b .LASF467
C:\Users\SOLDER~1\AppData\Local\Temp\ccUIzJuS.s:26168  .debug_str:000000000001c369 .LASF468
C:\Users\SOLDER~1\AppData\Local\Temp\ccUIzJuS.s:19654  .debug_str:0000000000001b49 .LASF469
C:\Users\SOLDER~1\AppData\Local\Temp\ccUIzJuS.s:22170  .debug_str:000000000000be62 .LASF470
GAS LISTING C:\Users\SOLDER~1\AppData\Local\Temp\ccUIzJuS.s 			page 37


C:\Users\SOLDER~1\AppData\Local\Temp\ccUIzJuS.s:27096  .debug_str:000000000002007c .LASF471
C:\Users\SOLDER~1\AppData\Local\Temp\ccUIzJuS.s:30444  .debug_str:000000000002db1b .LASF472
C:\Users\SOLDER~1\AppData\Local\Temp\ccUIzJuS.s:30688  .debug_str:000000000002eabb .LASF473
C:\Users\SOLDER~1\AppData\Local\Temp\ccUIzJuS.s:30540  .debug_str:000000000002e13b .LASF474
C:\Users\SOLDER~1\AppData\Local\Temp\ccUIzJuS.s:28616  .debug_str:00000000000263bf .LASF475
C:\Users\SOLDER~1\AppData\Local\Temp\ccUIzJuS.s:21688  .debug_str:0000000000009ef7 .LASF476
C:\Users\SOLDER~1\AppData\Local\Temp\ccUIzJuS.s:25730  .debug_str:000000000001a6c4 .LASF477
C:\Users\SOLDER~1\AppData\Local\Temp\ccUIzJuS.s:24806  .debug_str:0000000000016b82 .LASF478
C:\Users\SOLDER~1\AppData\Local\Temp\ccUIzJuS.s:28722  .debug_str:0000000000026ad6 .LASF479
C:\Users\SOLDER~1\AppData\Local\Temp\ccUIzJuS.s:30782  .debug_str:000000000002f077 .LASF480
C:\Users\SOLDER~1\AppData\Local\Temp\ccUIzJuS.s:27522  .debug_str:0000000000021beb .LASF481
C:\Users\SOLDER~1\AppData\Local\Temp\ccUIzJuS.s:28816  .debug_str:0000000000027132 .LASF482
C:\Users\SOLDER~1\AppData\Local\Temp\ccUIzJuS.s:22686  .debug_str:000000000000e14e .LASF483
C:\Users\SOLDER~1\AppData\Local\Temp\ccUIzJuS.s:25890  .debug_str:000000000001b188 .LASF484
C:\Users\SOLDER~1\AppData\Local\Temp\ccUIzJuS.s:25802  .debug_str:000000000001abb5 .LASF485
C:\Users\SOLDER~1\AppData\Local\Temp\ccUIzJuS.s:28942  .debug_str:0000000000027991 .LASF486
C:\Users\SOLDER~1\AppData\Local\Temp\ccUIzJuS.s:26360  .debug_str:000000000001d063 .LASF487
C:\Users\SOLDER~1\AppData\Local\Temp\ccUIzJuS.s:28426  .debug_str:0000000000025693 .LASF488
C:\Users\SOLDER~1\AppData\Local\Temp\ccUIzJuS.s:25284  .debug_str:0000000000018a5f .LASF489
C:\Users\SOLDER~1\AppData\Local\Temp\ccUIzJuS.s:20464  .debug_str:0000000000004f40 .LASF490
C:\Users\SOLDER~1\AppData\Local\Temp\ccUIzJuS.s:23516  .debug_str:00000000000116ff .LASF491
C:\Users\SOLDER~1\AppData\Local\Temp\ccUIzJuS.s:22484  .debug_str:000000000000d3e3 .LASF492
C:\Users\SOLDER~1\AppData\Local\Temp\ccUIzJuS.s:27832  .debug_str:0000000000022f77 .LASF494
C:\Users\SOLDER~1\AppData\Local\Temp\ccUIzJuS.s:21572  .debug_str:000000000000976e .LASF495
C:\Users\SOLDER~1\AppData\Local\Temp\ccUIzJuS.s:20560  .debug_str:000000000000552b .LASF496
C:\Users\SOLDER~1\AppData\Local\Temp\ccUIzJuS.s:26614  .debug_str:000000000001e0d6 .LASF497
C:\Users\SOLDER~1\AppData\Local\Temp\ccUIzJuS.s:25954  .debug_str:000000000001b57d .LASF498
C:\Users\SOLDER~1\AppData\Local\Temp\ccUIzJuS.s:26050  .debug_str:000000000001bb8e .LASF499
C:\Users\SOLDER~1\AppData\Local\Temp\ccUIzJuS.s:22752  .debug_str:000000000000e5aa .LASF500
C:\Users\SOLDER~1\AppData\Local\Temp\ccUIzJuS.s:20362  .debug_str:0000000000004910 .LASF501
C:\Users\SOLDER~1\AppData\Local\Temp\ccUIzJuS.s:23674  .debug_str:0000000000012101 .LASF502
C:\Users\SOLDER~1\AppData\Local\Temp\ccUIzJuS.s:28310  .debug_str:0000000000024f32 .LASF503
C:\Users\SOLDER~1\AppData\Local\Temp\ccUIzJuS.s:24520  .debug_str:0000000000015948 .LASF504
C:\Users\SOLDER~1\AppData\Local\Temp\ccUIzJuS.s:19270  .debug_str:00000000000001a8 .LASF505
C:\Users\SOLDER~1\AppData\Local\Temp\ccUIzJuS.s:22564  .debug_str:000000000000d911 .LASF506
C:\Users\SOLDER~1\AppData\Local\Temp\ccUIzJuS.s:30504  .debug_str:000000000002deee .LASF507
C:\Users\SOLDER~1\AppData\Local\Temp\ccUIzJuS.s:29434  .debug_str:00000000000299b9 .LASF508
C:\Users\SOLDER~1\AppData\Local\Temp\ccUIzJuS.s:24054  .debug_str:0000000000013a17 .LASF509
C:\Users\SOLDER~1\AppData\Local\Temp\ccUIzJuS.s:24976  .debug_str:0000000000017649 .LASF510
C:\Users\SOLDER~1\AppData\Local\Temp\ccUIzJuS.s:24356  .debug_str:0000000000014ee1 .LASF511
C:\Users\SOLDER~1\AppData\Local\Temp\ccUIzJuS.s:25422  .debug_str:000000000001936d .LASF512
C:\Users\SOLDER~1\AppData\Local\Temp\ccUIzJuS.s:27256  .debug_str:0000000000020ae7 .LASF513
C:\Users\SOLDER~1\AppData\Local\Temp\ccUIzJuS.s:26282  .debug_str:000000000001cb1a .LASF514
C:\Users\SOLDER~1\AppData\Local\Temp\ccUIzJuS.s:21952  .debug_str:000000000000b076 .LASF515
C:\Users\SOLDER~1\AppData\Local\Temp\ccUIzJuS.s:30048  .debug_str:000000000002c197 .LASF516
C:\Users\SOLDER~1\AppData\Local\Temp\ccUIzJuS.s:26524  .debug_str:000000000001dac9 .LASF517
C:\Users\SOLDER~1\AppData\Local\Temp\ccUIzJuS.s:29920  .debug_str:000000000002b96b .LASF518
C:\Users\SOLDER~1\AppData\Local\Temp\ccUIzJuS.s:28504  .debug_str:0000000000025bdd .LASF519
C:\Users\SOLDER~1\AppData\Local\Temp\ccUIzJuS.s:25698  .debug_str:000000000001a4c5 .LASF520
C:\Users\SOLDER~1\AppData\Local\Temp\ccUIzJuS.s:20786  .debug_str:000000000000640a .LASF521
C:\Users\SOLDER~1\AppData\Local\Temp\ccUIzJuS.s:27876  .debug_str:000000000002324c .LASF522
C:\Users\SOLDER~1\AppData\Local\Temp\ccUIzJuS.s:21730  .debug_str:000000000000a1cd .LASF523
C:\Users\SOLDER~1\AppData\Local\Temp\ccUIzJuS.s:19760  .debug_str:0000000000002213 .LASF524
C:\Users\SOLDER~1\AppData\Local\Temp\ccUIzJuS.s:26576  .debug_str:000000000001de4b .LASF525
C:\Users\SOLDER~1\AppData\Local\Temp\ccUIzJuS.s:22620  .debug_str:000000000000dca7 .LASF526
C:\Users\SOLDER~1\AppData\Local\Temp\ccUIzJuS.s:24376  .debug_str:0000000000015012 .LASF527
C:\Users\SOLDER~1\AppData\Local\Temp\ccUIzJuS.s:22660  .debug_str:000000000000df55 .LASF528
GAS LISTING C:\Users\SOLDER~1\AppData\Local\Temp\ccUIzJuS.s 			page 38


C:\Users\SOLDER~1\AppData\Local\Temp\ccUIzJuS.s:21462  .debug_str:0000000000009020 .LASF529
C:\Users\SOLDER~1\AppData\Local\Temp\ccUIzJuS.s:21104  .debug_str:0000000000007887 .LASF530
C:\Users\SOLDER~1\AppData\Local\Temp\ccUIzJuS.s:22258  .debug_str:000000000000c486 .LASF531
C:\Users\SOLDER~1\AppData\Local\Temp\ccUIzJuS.s:28864  .debug_str:0000000000027445 .LASF532
C:\Users\SOLDER~1\AppData\Local\Temp\ccUIzJuS.s:30650  .debug_str:000000000002e80b .LASF533
C:\Users\SOLDER~1\AppData\Local\Temp\ccUIzJuS.s:23696  .debug_str:0000000000012268 .LASF534
C:\Users\SOLDER~1\AppData\Local\Temp\ccUIzJuS.s:30040  .debug_str:000000000002c109 .LASF535
C:\Users\SOLDER~1\AppData\Local\Temp\ccUIzJuS.s:26170  .debug_str:000000000001c392 .LASF536
C:\Users\SOLDER~1\AppData\Local\Temp\ccUIzJuS.s:22572  .debug_str:000000000000d987 .LASF537
C:\Users\SOLDER~1\AppData\Local\Temp\ccUIzJuS.s:25948  .debug_str:000000000001b519 .LASF538
C:\Users\SOLDER~1\AppData\Local\Temp\ccUIzJuS.s:20350  .debug_str:000000000000483f .LASF539
C:\Users\SOLDER~1\AppData\Local\Temp\ccUIzJuS.s:27926  .debug_str:00000000000235c9 .LASF540
C:\Users\SOLDER~1\AppData\Local\Temp\ccUIzJuS.s:25994  .debug_str:000000000001b7ff .LASF541
C:\Users\SOLDER~1\AppData\Local\Temp\ccUIzJuS.s:30134  .debug_str:000000000002c71b .LASF542
C:\Users\SOLDER~1\AppData\Local\Temp\ccUIzJuS.s:22078  .debug_str:000000000000b870 .LASF543
C:\Users\SOLDER~1\AppData\Local\Temp\ccUIzJuS.s:28840  .debug_str:00000000000272ae .LASF544
C:\Users\SOLDER~1\AppData\Local\Temp\ccUIzJuS.s:28062  .debug_str:0000000000023e6c .LASF545
C:\Users\SOLDER~1\AppData\Local\Temp\ccUIzJuS.s:26848  .debug_str:000000000001effa .LASF546
C:\Users\SOLDER~1\AppData\Local\Temp\ccUIzJuS.s:29062  .debug_str:000000000002817a .LASF547
C:\Users\SOLDER~1\AppData\Local\Temp\ccUIzJuS.s:27050  .debug_str:000000000001fd87 .LASF548
C:\Users\SOLDER~1\AppData\Local\Temp\ccUIzJuS.s:25174  .debug_str:0000000000018370 .LASF549
C:\Users\SOLDER~1\AppData\Local\Temp\ccUIzJuS.s:23888  .debug_str:0000000000012ef2 .LASF550
C:\Users\SOLDER~1\AppData\Local\Temp\ccUIzJuS.s:27472  .debug_str:00000000000218a5 .LASF551
C:\Users\SOLDER~1\AppData\Local\Temp\ccUIzJuS.s:24118  .debug_str:0000000000013ec8 .LASF552
C:\Users\SOLDER~1\AppData\Local\Temp\ccUIzJuS.s:26720  .debug_str:000000000001e79a .LASF553
C:\Users\SOLDER~1\AppData\Local\Temp\ccUIzJuS.s:24662  .debug_str:0000000000016277 .LASF554
C:\Users\SOLDER~1\AppData\Local\Temp\ccUIzJuS.s:19594  .debug_str:000000000000179b .LASF555
C:\Users\SOLDER~1\AppData\Local\Temp\ccUIzJuS.s:23412  .debug_str:0000000000011040 .LASF556
C:\Users\SOLDER~1\AppData\Local\Temp\ccUIzJuS.s:20746  .debug_str:000000000000616d .LASF557
C:\Users\SOLDER~1\AppData\Local\Temp\ccUIzJuS.s:23308  .debug_str:00000000000109bd .LASF558
C:\Users\SOLDER~1\AppData\Local\Temp\ccUIzJuS.s:23174  .debug_str:00000000000100ee .LASF559
C:\Users\SOLDER~1\AppData\Local\Temp\ccUIzJuS.s:19680  .debug_str:0000000000001d2d .LASF560
C:\Users\SOLDER~1\AppData\Local\Temp\ccUIzJuS.s:28378  .debug_str:0000000000025373 .LASF561
C:\Users\SOLDER~1\AppData\Local\Temp\ccUIzJuS.s:30326  .debug_str:000000000002d3b3 .LASF562
C:\Users\SOLDER~1\AppData\Local\Temp\ccUIzJuS.s:30562  .debug_str:000000000002e27e .LASF563
C:\Users\SOLDER~1\AppData\Local\Temp\ccUIzJuS.s:22644  .debug_str:000000000000de3c .LASF564
C:\Users\SOLDER~1\AppData\Local\Temp\ccUIzJuS.s:19502  .debug_str:00000000000011a6 .LASF565
C:\Users\SOLDER~1\AppData\Local\Temp\ccUIzJuS.s:27976  .debug_str:0000000000023901 .LASF566
C:\Users\SOLDER~1\AppData\Local\Temp\ccUIzJuS.s:25876  .debug_str:000000000001b0c6 .LASF567
C:\Users\SOLDER~1\AppData\Local\Temp\ccUIzJuS.s:26106  .debug_str:000000000001bf34 .LASF568
C:\Users\SOLDER~1\AppData\Local\Temp\ccUIzJuS.s:19712  .debug_str:0000000000001f12 .LASF569
C:\Users\SOLDER~1\AppData\Local\Temp\ccUIzJuS.s:24462  .debug_str:0000000000015599 .LASF570
C:\Users\SOLDER~1\AppData\Local\Temp\ccUIzJuS.s:28158  .debug_str:00000000000244ca .LASF571
C:\Users\SOLDER~1\AppData\Local\Temp\ccUIzJuS.s:22964  .debug_str:000000000000f30e .LASF572
C:\Users\SOLDER~1\AppData\Local\Temp\ccUIzJuS.s:24898  .debug_str:0000000000017126 .LASF573
C:\Users\SOLDER~1\AppData\Local\Temp\ccUIzJuS.s:22782  .debug_str:000000000000e785 .LASF574
C:\Users\SOLDER~1\AppData\Local\Temp\ccUIzJuS.s:24794  .debug_str:0000000000016aae .LASF575
C:\Users\SOLDER~1\AppData\Local\Temp\ccUIzJuS.s:23912  .debug_str:000000000001307e .LASF576
C:\Users\SOLDER~1\AppData\Local\Temp\ccUIzJuS.s:23876  .debug_str:0000000000012e2c .LASF577
C:\Users\SOLDER~1\AppData\Local\Temp\ccUIzJuS.s:30400  .debug_str:000000000002d846 .LASF578
C:\Users\SOLDER~1\AppData\Local\Temp\ccUIzJuS.s:25350  .debug_str:0000000000018ede .LASF579
C:\Users\SOLDER~1\AppData\Local\Temp\ccUIzJuS.s:28582  .debug_str:000000000002613b .LASF580
C:\Users\SOLDER~1\AppData\Local\Temp\ccUIzJuS.s:20346  .debug_str:0000000000004801 .LASF581
C:\Users\SOLDER~1\AppData\Local\Temp\ccUIzJuS.s:21838  .debug_str:000000000000a903 .LASF582
C:\Users\SOLDER~1\AppData\Local\Temp\ccUIzJuS.s:26866  .debug_str:000000000001f149 .LASF583
C:\Users\SOLDER~1\AppData\Local\Temp\ccUIzJuS.s:30170  .debug_str:000000000002c96c .LASF584
C:\Users\SOLDER~1\AppData\Local\Temp\ccUIzJuS.s:21902  .debug_str:000000000000ad14 .LASF585
GAS LISTING C:\Users\SOLDER~1\AppData\Local\Temp\ccUIzJuS.s 			page 39


C:\Users\SOLDER~1\AppData\Local\Temp\ccUIzJuS.s:29704  .debug_str:000000000002ab0c .LASF586
C:\Users\SOLDER~1\AppData\Local\Temp\ccUIzJuS.s:28592  .debug_str:00000000000261ef .LASF587
C:\Users\SOLDER~1\AppData\Local\Temp\ccUIzJuS.s:23808  .debug_str:000000000001294b .LASF588
C:\Users\SOLDER~1\AppData\Local\Temp\ccUIzJuS.s:25728  .debug_str:000000000001a6a3 .LASF589
C:\Users\SOLDER~1\AppData\Local\Temp\ccUIzJuS.s:27866  .debug_str:00000000000231b5 .LASF590
C:\Users\SOLDER~1\AppData\Local\Temp\ccUIzJuS.s:24826  .debug_str:0000000000016c9f .LASF591
C:\Users\SOLDER~1\AppData\Local\Temp\ccUIzJuS.s:29320  .debug_str:000000000002921b .LASF592
C:\Users\SOLDER~1\AppData\Local\Temp\ccUIzJuS.s:26422  .debug_str:000000000001d4ad .LASF593
C:\Users\SOLDER~1\AppData\Local\Temp\ccUIzJuS.s:25120  .debug_str:0000000000017fcf .LASF594
C:\Users\SOLDER~1\AppData\Local\Temp\ccUIzJuS.s:30494  .debug_str:000000000002de2e .LASF595
C:\Users\SOLDER~1\AppData\Local\Temp\ccUIzJuS.s:21912  .debug_str:000000000000add0 .LASF596
C:\Users\SOLDER~1\AppData\Local\Temp\ccUIzJuS.s:29928  .debug_str:000000000002b9d6 .LASF597
C:\Users\SOLDER~1\AppData\Local\Temp\ccUIzJuS.s:23850  .debug_str:0000000000012c51 .LASF598
C:\Users\SOLDER~1\AppData\Local\Temp\ccUIzJuS.s:29334  .debug_str:0000000000029316 .LASF599
C:\Users\SOLDER~1\AppData\Local\Temp\ccUIzJuS.s:23288  .debug_str:0000000000010847 .LASF600
C:\Users\SOLDER~1\AppData\Local\Temp\ccUIzJuS.s:28644  .debug_str:00000000000265b5 .LASF601
C:\Users\SOLDER~1\AppData\Local\Temp\ccUIzJuS.s:28748  .debug_str:0000000000026caf .LASF602
C:\Users\SOLDER~1\AppData\Local\Temp\ccUIzJuS.s:22648  .debug_str:000000000000de81 .LASF603
C:\Users\SOLDER~1\AppData\Local\Temp\ccUIzJuS.s:22434  .debug_str:000000000000d08d .LASF604
C:\Users\SOLDER~1\AppData\Local\Temp\ccUIzJuS.s:26500  .debug_str:000000000001d973 .LASF605
C:\Users\SOLDER~1\AppData\Local\Temp\ccUIzJuS.s:28412  .debug_str:000000000002558f .LASF606
C:\Users\SOLDER~1\AppData\Local\Temp\ccUIzJuS.s:24906  .debug_str:00000000000171a3 .LASF607
C:\Users\SOLDER~1\AppData\Local\Temp\ccUIzJuS.s:27620  .debug_str:00000000000221ac .LASF608
C:\Users\SOLDER~1\AppData\Local\Temp\ccUIzJuS.s:30012  .debug_str:000000000002bf2c .LASF609
C:\Users\SOLDER~1\AppData\Local\Temp\ccUIzJuS.s:21546  .debug_str:00000000000095df .LASF610
C:\Users\SOLDER~1\AppData\Local\Temp\ccUIzJuS.s:23586  .debug_str:0000000000011b6f .LASF611
C:\Users\SOLDER~1\AppData\Local\Temp\ccUIzJuS.s:23862  .debug_str:0000000000012d42 .LASF612
C:\Users\SOLDER~1\AppData\Local\Temp\ccUIzJuS.s:26494  .debug_str:000000000001d91e .LASF613
C:\Users\SOLDER~1\AppData\Local\Temp\ccUIzJuS.s:20984  .debug_str:000000000000716b .LASF614
C:\Users\SOLDER~1\AppData\Local\Temp\ccUIzJuS.s:19726  .debug_str:000000000000200a .LASF615
C:\Users\SOLDER~1\AppData\Local\Temp\ccUIzJuS.s:24980  .debug_str:0000000000017692 .LASF616
C:\Users\SOLDER~1\AppData\Local\Temp\ccUIzJuS.s:20584  .debug_str:0000000000005695 .LASF617
C:\Users\SOLDER~1\AppData\Local\Temp\ccUIzJuS.s:28332  .debug_str:00000000000250a2 .LASF618
C:\Users\SOLDER~1\AppData\Local\Temp\ccUIzJuS.s:20006  .debug_str:00000000000031df .LASF619
C:\Users\SOLDER~1\AppData\Local\Temp\ccUIzJuS.s:23868  .debug_str:0000000000012da2 .LASF620
C:\Users\SOLDER~1\AppData\Local\Temp\ccUIzJuS.s:20098  .debug_str:00000000000037c6 .LASF621
C:\Users\SOLDER~1\AppData\Local\Temp\ccUIzJuS.s:24526  .debug_str:00000000000159b9 .LASF622
C:\Users\SOLDER~1\AppData\Local\Temp\ccUIzJuS.s:25598  .debug_str:0000000000019e67 .LASF623
C:\Users\SOLDER~1\AppData\Local\Temp\ccUIzJuS.s:23458  .debug_str:0000000000011325 .LASF624
C:\Users\SOLDER~1\AppData\Local\Temp\ccUIzJuS.s:26180  .debug_str:000000000001c422 .LASF625
C:\Users\SOLDER~1\AppData\Local\Temp\ccUIzJuS.s:20950  .debug_str:0000000000006ef5 .LASF626
C:\Users\SOLDER~1\AppData\Local\Temp\ccUIzJuS.s:20908  .debug_str:0000000000006c24 .LASF627
C:\Users\SOLDER~1\AppData\Local\Temp\ccUIzJuS.s:25840  .debug_str:000000000001ae7c .LASF628
C:\Users\SOLDER~1\AppData\Local\Temp\ccUIzJuS.s:22652  .debug_str:000000000000decb .LASF629
C:\Users\SOLDER~1\AppData\Local\Temp\ccUIzJuS.s:27118  .debug_str:0000000000020203 .LASF630
C:\Users\SOLDER~1\AppData\Local\Temp\ccUIzJuS.s:26100  .debug_str:000000000001bedb .LASF631
C:\Users\SOLDER~1\AppData\Local\Temp\ccUIzJuS.s:27106  .debug_str:000000000002013e .LASF632
C:\Users\SOLDER~1\AppData\Local\Temp\ccUIzJuS.s:25564  .debug_str:0000000000019c6a .LASF633
C:\Users\SOLDER~1\AppData\Local\Temp\ccUIzJuS.s:29150  .debug_str:0000000000028746 .LASF634
C:\Users\SOLDER~1\AppData\Local\Temp\ccUIzJuS.s:24322  .debug_str:0000000000014cb3 .LASF635
C:\Users\SOLDER~1\AppData\Local\Temp\ccUIzJuS.s:26064  .debug_str:000000000001bc74 .LASF636
C:\Users\SOLDER~1\AppData\Local\Temp\ccUIzJuS.s:28206  .debug_str:000000000002480c .LASF637
C:\Users\SOLDER~1\AppData\Local\Temp\ccUIzJuS.s:19694  .debug_str:0000000000001df6 .LASF638
C:\Users\SOLDER~1\AppData\Local\Temp\ccUIzJuS.s:24360  .debug_str:0000000000014f17 .LASF639
C:\Users\SOLDER~1\AppData\Local\Temp\ccUIzJuS.s:23914  .debug_str:000000000001309c .LASF640
C:\Users\SOLDER~1\AppData\Local\Temp\ccUIzJuS.s:24930  .debug_str:0000000000017349 .LASF641
C:\Users\SOLDER~1\AppData\Local\Temp\ccUIzJuS.s:24838  .debug_str:0000000000016d4b .LASF642
GAS LISTING C:\Users\SOLDER~1\AppData\Local\Temp\ccUIzJuS.s 			page 40


C:\Users\SOLDER~1\AppData\Local\Temp\ccUIzJuS.s:26198  .debug_str:000000000001c574 .LASF643
C:\Users\SOLDER~1\AppData\Local\Temp\ccUIzJuS.s:20814  .debug_str:00000000000065e7 .LASF644
C:\Users\SOLDER~1\AppData\Local\Temp\ccUIzJuS.s:28152  .debug_str:000000000002446c .LASF645
C:\Users\SOLDER~1\AppData\Local\Temp\ccUIzJuS.s:24886  .debug_str:0000000000017053 .LASF646
C:\Users\SOLDER~1\AppData\Local\Temp\ccUIzJuS.s:22790  .debug_str:000000000000e808 .LASF647
C:\Users\SOLDER~1\AppData\Local\Temp\ccUIzJuS.s:24318  .debug_str:0000000000014c68 .LASF648
C:\Users\SOLDER~1\AppData\Local\Temp\ccUIzJuS.s:22874  .debug_str:000000000000ed64 .LASF649
C:\Users\SOLDER~1\AppData\Local\Temp\ccUIzJuS.s:29504  .debug_str:0000000000029e03 .LASF650
C:\Users\SOLDER~1\AppData\Local\Temp\ccUIzJuS.s:25736  .debug_str:000000000001a71b .LASF651
C:\Users\SOLDER~1\AppData\Local\Temp\ccUIzJuS.s:21398  .debug_str:0000000000008bd7 .LASF652
C:\Users\SOLDER~1\AppData\Local\Temp\ccUIzJuS.s:25338  .debug_str:0000000000018df7 .LASF653
C:\Users\SOLDER~1\AppData\Local\Temp\ccUIzJuS.s:24640  .debug_str:000000000001610b .LASF654
C:\Users\SOLDER~1\AppData\Local\Temp\ccUIzJuS.s:30514  .debug_str:000000000002df92 .LASF655
C:\Users\SOLDER~1\AppData\Local\Temp\ccUIzJuS.s:25384  .debug_str:0000000000019113 .LASF656
C:\Users\SOLDER~1\AppData\Local\Temp\ccUIzJuS.s:29786  .debug_str:000000000002b074 .LASF657
C:\Users\SOLDER~1\AppData\Local\Temp\ccUIzJuS.s:29148  .debug_str:0000000000028725 .LASF658
C:\Users\SOLDER~1\AppData\Local\Temp\ccUIzJuS.s:27928  .debug_str:00000000000235ee .LASF659
C:\Users\SOLDER~1\AppData\Local\Temp\ccUIzJuS.s:27956  .debug_str:00000000000237d1 .LASF660
C:\Users\SOLDER~1\AppData\Local\Temp\ccUIzJuS.s:30176  .debug_str:000000000002c9e3 .LASF661
C:\Users\SOLDER~1\AppData\Local\Temp\ccUIzJuS.s:22662  .debug_str:000000000000df79 .LASF662
C:\Users\SOLDER~1\AppData\Local\Temp\ccUIzJuS.s:21984  .debug_str:000000000000b25e .LASF663
C:\Users\SOLDER~1\AppData\Local\Temp\ccUIzJuS.s:29454  .debug_str:0000000000029ad5 .LASF664
C:\Users\SOLDER~1\AppData\Local\Temp\ccUIzJuS.s:26646  .debug_str:000000000001e2d9 .LASF665
C:\Users\SOLDER~1\AppData\Local\Temp\ccUIzJuS.s:26920  .debug_str:000000000001f4fa .LASF666
C:\Users\SOLDER~1\AppData\Local\Temp\ccUIzJuS.s:26936  .debug_str:000000000001f61e .LASF667
C:\Users\SOLDER~1\AppData\Local\Temp\ccUIzJuS.s:20870  .debug_str:00000000000069d6 .LASF668
C:\Users\SOLDER~1\AppData\Local\Temp\ccUIzJuS.s:27992  .debug_str:0000000000023a06 .LASF669
C:\Users\SOLDER~1\AppData\Local\Temp\ccUIzJuS.s:29020  .debug_str:0000000000027eae .LASF670
C:\Users\SOLDER~1\AppData\Local\Temp\ccUIzJuS.s:30482  .debug_str:000000000002dd7e .LASF671
C:\Users\SOLDER~1\AppData\Local\Temp\ccUIzJuS.s:29778  .debug_str:000000000002affa .LASF672
C:\Users\SOLDER~1\AppData\Local\Temp\ccUIzJuS.s:26036  .debug_str:000000000001ba86 .LASF673
C:\Users\SOLDER~1\AppData\Local\Temp\ccUIzJuS.s:22176  .debug_str:000000000000becf .LASF674
C:\Users\SOLDER~1\AppData\Local\Temp\ccUIzJuS.s:20132  .debug_str:00000000000039f9 .LASF675
C:\Users\SOLDER~1\AppData\Local\Temp\ccUIzJuS.s:23316  .debug_str:0000000000010a3e .LASF676
C:\Users\SOLDER~1\AppData\Local\Temp\ccUIzJuS.s:25742  .debug_str:000000000001a78b .LASF677
C:\Users\SOLDER~1\AppData\Local\Temp\ccUIzJuS.s:28820  .debug_str:0000000000027164 .LASF678
C:\Users\SOLDER~1\AppData\Local\Temp\ccUIzJuS.s:30102  .debug_str:000000000002c529 .LASF679
C:\Users\SOLDER~1\AppData\Local\Temp\ccUIzJuS.s:25054  .debug_str:0000000000017b74 .LASF680
C:\Users\SOLDER~1\AppData\Local\Temp\ccUIzJuS.s:26566  .debug_str:000000000001dd8d .LASF681
C:\Users\SOLDER~1\AppData\Local\Temp\ccUIzJuS.s:23864  .debug_str:0000000000012d5a .LASF682
C:\Users\SOLDER~1\AppData\Local\Temp\ccUIzJuS.s:24776  .debug_str:000000000001697b .LASF683
C:\Users\SOLDER~1\AppData\Local\Temp\ccUIzJuS.s:21348  .debug_str:000000000000888e .LASF684
C:\Users\SOLDER~1\AppData\Local\Temp\ccUIzJuS.s:26344  .debug_str:000000000001cf5e .LASF685
C:\Users\SOLDER~1\AppData\Local\Temp\ccUIzJuS.s:26882  .debug_str:000000000001f268 .LASF686
C:\Users\SOLDER~1\AppData\Local\Temp\ccUIzJuS.s:19656  .debug_str:0000000000001b6d .LASF687
C:\Users\SOLDER~1\AppData\Local\Temp\ccUIzJuS.s:26658  .debug_str:000000000001e38b .LASF688
C:\Users\SOLDER~1\AppData\Local\Temp\ccUIzJuS.s:29986  .debug_str:000000000002bd88 .LASF689
C:\Users\SOLDER~1\AppData\Local\Temp\ccUIzJuS.s:19276  .debug_str:00000000000001f3 .LASF690
C:\Users\SOLDER~1\AppData\Local\Temp\ccUIzJuS.s:27142  .debug_str:0000000000020370 .LASF691
C:\Users\SOLDER~1\AppData\Local\Temp\ccUIzJuS.s:27092  .debug_str:0000000000020036 .LASF692
C:\Users\SOLDER~1\AppData\Local\Temp\ccUIzJuS.s:21448  .debug_str:0000000000008f2d .LASF693
C:\Users\SOLDER~1\AppData\Local\Temp\ccUIzJuS.s:26850  .debug_str:000000000001f027 .LASF694
C:\Users\SOLDER~1\AppData\Local\Temp\ccUIzJuS.s:21430  .debug_str:0000000000008dec .LASF695
C:\Users\SOLDER~1\AppData\Local\Temp\ccUIzJuS.s:26354  .debug_str:000000000001d00c .LASF696
C:\Users\SOLDER~1\AppData\Local\Temp\ccUIzJuS.s:29010  .debug_str:0000000000027deb .LASF697
C:\Users\SOLDER~1\AppData\Local\Temp\ccUIzJuS.s:29800  .debug_str:000000000002b13d .LASF698
C:\Users\SOLDER~1\AppData\Local\Temp\ccUIzJuS.s:22808  .debug_str:000000000000e968 .LASF699
GAS LISTING C:\Users\SOLDER~1\AppData\Local\Temp\ccUIzJuS.s 			page 41


C:\Users\SOLDER~1\AppData\Local\Temp\ccUIzJuS.s:30484  .debug_str:000000000002dd94 .LASF700
C:\Users\SOLDER~1\AppData\Local\Temp\ccUIzJuS.s:25596  .debug_str:0000000000019e54 .LASF701
C:\Users\SOLDER~1\AppData\Local\Temp\ccUIzJuS.s:20068  .debug_str:00000000000035c8 .LASF702
C:\Users\SOLDER~1\AppData\Local\Temp\ccUIzJuS.s:28064  .debug_str:0000000000023e99 .LASF703
C:\Users\SOLDER~1\AppData\Local\Temp\ccUIzJuS.s:26068  .debug_str:000000000001bc9f .LASF704
C:\Users\SOLDER~1\AppData\Local\Temp\ccUIzJuS.s:29060  .debug_str:0000000000028157 .LASF705
C:\Users\SOLDER~1\AppData\Local\Temp\ccUIzJuS.s:24810  .debug_str:0000000000016bc6 .LASF706
C:\Users\SOLDER~1\AppData\Local\Temp\ccUIzJuS.s:22130  .debug_str:000000000000bc07 .LASF707
C:\Users\SOLDER~1\AppData\Local\Temp\ccUIzJuS.s:27668  .debug_str:0000000000022472 .LASF708
C:\Users\SOLDER~1\AppData\Local\Temp\ccUIzJuS.s:27136  .debug_str:0000000000020307 .LASF709
C:\Users\SOLDER~1\AppData\Local\Temp\ccUIzJuS.s:20084  .debug_str:00000000000036c4 .LASF710
C:\Users\SOLDER~1\AppData\Local\Temp\ccUIzJuS.s:28548  .debug_str:0000000000025edb .LASF711
C:\Users\SOLDER~1\AppData\Local\Temp\ccUIzJuS.s:27858  .debug_str:0000000000023121 .LASF712
C:\Users\SOLDER~1\AppData\Local\Temp\ccUIzJuS.s:21210  .debug_str:0000000000007fa9 .LASF713
C:\Users\SOLDER~1\AppData\Local\Temp\ccUIzJuS.s:28898  .debug_str:0000000000027684 .LASF714
C:\Users\SOLDER~1\AppData\Local\Temp\ccUIzJuS.s:26864  .debug_str:000000000001f126 .LASF715
C:\Users\SOLDER~1\AppData\Local\Temp\ccUIzJuS.s:28006  .debug_str:0000000000023abb .LASF716
C:\Users\SOLDER~1\AppData\Local\Temp\ccUIzJuS.s:23340  .debug_str:0000000000010b9f .LASF717
C:\Users\SOLDER~1\AppData\Local\Temp\ccUIzJuS.s:30524  .debug_str:000000000002e03f .LASF718
C:\Users\SOLDER~1\AppData\Local\Temp\ccUIzJuS.s:25774  .debug_str:000000000001a9fa .LASF719
C:\Users\SOLDER~1\AppData\Local\Temp\ccUIzJuS.s:23776  .debug_str:0000000000012799 .LASF720
C:\Users\SOLDER~1\AppData\Local\Temp\ccUIzJuS.s:27408  .debug_str:00000000000214b2 .LASF721
C:\Users\SOLDER~1\AppData\Local\Temp\ccUIzJuS.s:25566  .debug_str:0000000000019c8c .LASF722
C:\Users\SOLDER~1\AppData\Local\Temp\ccUIzJuS.s:27454  .debug_str:0000000000021794 .LASF723
C:\Users\SOLDER~1\AppData\Local\Temp\ccUIzJuS.s:24704  .debug_str:0000000000016517 .LASF724
C:\Users\SOLDER~1\AppData\Local\Temp\ccUIzJuS.s:23950  .debug_str:00000000000132fd .LASF725
C:\Users\SOLDER~1\AppData\Local\Temp\ccUIzJuS.s:29672  .debug_str:000000000002a959 .LASF726
C:\Users\SOLDER~1\AppData\Local\Temp\ccUIzJuS.s:24128  .debug_str:0000000000013f7d .LASF727
C:\Users\SOLDER~1\AppData\Local\Temp\ccUIzJuS.s:19416  .debug_str:0000000000000c0b .LASF728
C:\Users\SOLDER~1\AppData\Local\Temp\ccUIzJuS.s:22560  .debug_str:000000000000d8c9 .LASF729
C:\Users\SOLDER~1\AppData\Local\Temp\ccUIzJuS.s:25416  .debug_str:0000000000019311 .LASF730
C:\Users\SOLDER~1\AppData\Local\Temp\ccUIzJuS.s:26020  .debug_str:000000000001b987 .LASF731
C:\Users\SOLDER~1\AppData\Local\Temp\ccUIzJuS.s:21038  .debug_str:00000000000074bb .LASF732
C:\Users\SOLDER~1\AppData\Local\Temp\ccUIzJuS.s:21650  .debug_str:0000000000009c5a .LASF733
C:\Users\SOLDER~1\AppData\Local\Temp\ccUIzJuS.s:27650  .debug_str:000000000002234c .LASF734
C:\Users\SOLDER~1\AppData\Local\Temp\ccUIzJuS.s:27582  .debug_str:0000000000021f59 .LASF735
C:\Users\SOLDER~1\AppData\Local\Temp\ccUIzJuS.s:25252  .debug_str:0000000000018861 .LASF736
C:\Users\SOLDER~1\AppData\Local\Temp\ccUIzJuS.s:22124  .debug_str:000000000000bb92 .LASF737
C:\Users\SOLDER~1\AppData\Local\Temp\ccUIzJuS.s:30654  .debug_str:000000000002e84d .LASF738
C:\Users\SOLDER~1\AppData\Local\Temp\ccUIzJuS.s:22348  .debug_str:000000000000cad1 .LASF739
C:\Users\SOLDER~1\AppData\Local\Temp\ccUIzJuS.s:19762  .debug_str:0000000000002239 .LASF740
C:\Users\SOLDER~1\AppData\Local\Temp\ccUIzJuS.s:24434  .debug_str:00000000000153b7 .LASF741
C:\Users\SOLDER~1\AppData\Local\Temp\ccUIzJuS.s:22112  .debug_str:000000000000bab6 .LASF742
C:\Users\SOLDER~1\AppData\Local\Temp\ccUIzJuS.s:28936  .debug_str:0000000000027934 .LASF743
C:\Users\SOLDER~1\AppData\Local\Temp\ccUIzJuS.s:25584  .debug_str:0000000000019dab .LASF744
C:\Users\SOLDER~1\AppData\Local\Temp\ccUIzJuS.s:23716  .debug_str:000000000001239e .LASF745
C:\Users\SOLDER~1\AppData\Local\Temp\ccUIzJuS.s:27012  .debug_str:000000000001fb31 .LASF746
C:\Users\SOLDER~1\AppData\Local\Temp\ccUIzJuS.s:27574  .debug_str:0000000000021ee7 .LASF747
C:\Users\SOLDER~1\AppData\Local\Temp\ccUIzJuS.s:28512  .debug_str:0000000000025c51 .LASF748
C:\Users\SOLDER~1\AppData\Local\Temp\ccUIzJuS.s:27944  .debug_str:00000000000236ff .LASF749
C:\Users\SOLDER~1\AppData\Local\Temp\ccUIzJuS.s:20934  .debug_str:0000000000006dbc .LASF750
C:\Users\SOLDER~1\AppData\Local\Temp\ccUIzJuS.s:20426  .debug_str:0000000000004d1d .LASF751
C:\Users\SOLDER~1\AppData\Local\Temp\ccUIzJuS.s:21820  .debug_str:000000000000a7fd .LASF752
C:\Users\SOLDER~1\AppData\Local\Temp\ccUIzJuS.s:22030  .debug_str:000000000000b56f .LASF753
C:\Users\SOLDER~1\AppData\Local\Temp\ccUIzJuS.s:29762  .debug_str:000000000002aef9 .LASF754
C:\Users\SOLDER~1\AppData\Local\Temp\ccUIzJuS.s:27664  .debug_str:0000000000022437 .LASF755
C:\Users\SOLDER~1\AppData\Local\Temp\ccUIzJuS.s:19910  .debug_str:0000000000002b85 .LASF756
GAS LISTING C:\Users\SOLDER~1\AppData\Local\Temp\ccUIzJuS.s 			page 42


C:\Users\SOLDER~1\AppData\Local\Temp\ccUIzJuS.s:28966  .debug_str:0000000000027b19 .LASF757
C:\Users\SOLDER~1\AppData\Local\Temp\ccUIzJuS.s:19794  .debug_str:0000000000002460 .LASF758
C:\Users\SOLDER~1\AppData\Local\Temp\ccUIzJuS.s:25514  .debug_str:000000000001992c .LASF759
C:\Users\SOLDER~1\AppData\Local\Temp\ccUIzJuS.s:24642  .debug_str:0000000000016130 .LASF760
C:\Users\SOLDER~1\AppData\Local\Temp\ccUIzJuS.s:19312  .debug_str:0000000000000471 .LASF761
C:\Users\SOLDER~1\AppData\Local\Temp\ccUIzJuS.s:19500  .debug_str:0000000000001186 .LASF762
C:\Users\SOLDER~1\AppData\Local\Temp\ccUIzJuS.s:28042  .debug_str:0000000000023d23 .LASF763
C:\Users\SOLDER~1\AppData\Local\Temp\ccUIzJuS.s:28352  .debug_str:00000000000251cb .LASF764
C:\Users\SOLDER~1\AppData\Local\Temp\ccUIzJuS.s:20700  .debug_str:0000000000005e31 .LASF765
C:\Users\SOLDER~1\AppData\Local\Temp\ccUIzJuS.s:21516  .debug_str:00000000000093da .LASF766
C:\Users\SOLDER~1\AppData\Local\Temp\ccUIzJuS.s:29508  .debug_str:0000000000029e44 .LASF767
C:\Users\SOLDER~1\AppData\Local\Temp\ccUIzJuS.s:19442  .debug_str:0000000000000de6 .LASF768
C:\Users\SOLDER~1\AppData\Local\Temp\ccUIzJuS.s:24226  .debug_str:000000000001463d .LASF769
C:\Users\SOLDER~1\AppData\Local\Temp\ccUIzJuS.s:26220  .debug_str:000000000001c6d2 .LASF770
C:\Users\SOLDER~1\AppData\Local\Temp\ccUIzJuS.s:20990  .debug_str:00000000000071c2 .LASF771
C:\Users\SOLDER~1\AppData\Local\Temp\ccUIzJuS.s:20674  .debug_str:0000000000005c89 .LASF772
C:\Users\SOLDER~1\AppData\Local\Temp\ccUIzJuS.s:22230  .debug_str:000000000000c279 .LASF773
C:\Users\SOLDER~1\AppData\Local\Temp\ccUIzJuS.s:19812  .debug_str:0000000000002593 .LASF774
C:\Users\SOLDER~1\AppData\Local\Temp\ccUIzJuS.s:20466  .debug_str:0000000000004f5a .LASF775
C:\Users\SOLDER~1\AppData\Local\Temp\ccUIzJuS.s:20448  .debug_str:0000000000004e6b .LASF776
C:\Users\SOLDER~1\AppData\Local\Temp\ccUIzJuS.s:20722  .debug_str:0000000000005f92 .LASF777
C:\Users\SOLDER~1\AppData\Local\Temp\ccUIzJuS.s:29662  .debug_str:000000000002a8b9 .LASF778
C:\Users\SOLDER~1\AppData\Local\Temp\ccUIzJuS.s:26446  .debug_str:000000000001d63d .LASF779
C:\Users\SOLDER~1\AppData\Local\Temp\ccUIzJuS.s:25576  .debug_str:0000000000019d25 .LASF780
C:\Users\SOLDER~1\AppData\Local\Temp\ccUIzJuS.s:27418  .debug_str:0000000000021545 .LASF781
C:\Users\SOLDER~1\AppData\Local\Temp\ccUIzJuS.s:21302  .debug_str:000000000000859d .LASF782
C:\Users\SOLDER~1\AppData\Local\Temp\ccUIzJuS.s:30796  .debug_str:000000000002f19d .LASF783
C:\Users\SOLDER~1\AppData\Local\Temp\ccUIzJuS.s:19652  .debug_str:0000000000001b29 .LASF784
C:\Users\SOLDER~1\AppData\Local\Temp\ccUIzJuS.s:22522  .debug_str:000000000000d643 .LASF785
C:\Users\SOLDER~1\AppData\Local\Temp\ccUIzJuS.s:20986  .debug_str:0000000000007183 .LASF786
C:\Users\SOLDER~1\AppData\Local\Temp\ccUIzJuS.s:25878  .debug_str:000000000001b0e7 .LASF787
C:\Users\SOLDER~1\AppData\Local\Temp\ccUIzJuS.s:27854  .debug_str:00000000000230e0 .LASF788
C:\Users\SOLDER~1\AppData\Local\Temp\ccUIzJuS.s:25056  .debug_str:0000000000017b98 .LASF789
C:\Users\SOLDER~1\AppData\Local\Temp\ccUIzJuS.s:30456  .debug_str:000000000002dbcb .LASF790
C:\Users\SOLDER~1\AppData\Local\Temp\ccUIzJuS.s:25390  .debug_str:0000000000019180 .LASF791
C:\Users\SOLDER~1\AppData\Local\Temp\ccUIzJuS.s:27616  .debug_str:0000000000022170 .LASF792
C:\Users\SOLDER~1\AppData\Local\Temp\ccUIzJuS.s:23518  .debug_str:0000000000011719 .LASF793
C:\Users\SOLDER~1\AppData\Local\Temp\ccUIzJuS.s:28586  .debug_str:0000000000026181 .LASF794
C:\Users\SOLDER~1\AppData\Local\Temp\ccUIzJuS.s:29024  .debug_str:0000000000027ef8 .LASF795
C:\Users\SOLDER~1\AppData\Local\Temp\ccUIzJuS.s:22204  .debug_str:000000000000c0b5 .LASF796
C:\Users\SOLDER~1\AppData\Local\Temp\ccUIzJuS.s:29054  .debug_str:00000000000280fe .LASF797
C:\Users\SOLDER~1\AppData\Local\Temp\ccUIzJuS.s:24422  .debug_str:00000000000152f6 .LASF798
C:\Users\SOLDER~1\AppData\Local\Temp\ccUIzJuS.s:24388  .debug_str:00000000000150b4 .LASF799
C:\Users\SOLDER~1\AppData\Local\Temp\ccUIzJuS.s:23842  .debug_str:0000000000012bd1 .LASF800
C:\Users\SOLDER~1\AppData\Local\Temp\ccUIzJuS.s:22264  .debug_str:000000000000c4ec .LASF801
C:\Users\SOLDER~1\AppData\Local\Temp\ccUIzJuS.s:26916  .debug_str:000000000001f4b6 .LASF802
C:\Users\SOLDER~1\AppData\Local\Temp\ccUIzJuS.s:30744  .debug_str:000000000002ee34 .LASF803
C:\Users\SOLDER~1\AppData\Local\Temp\ccUIzJuS.s:30490  .debug_str:000000000002ddea .LASF804
C:\Users\SOLDER~1\AppData\Local\Temp\ccUIzJuS.s:28700  .debug_str:0000000000026969 .LASF805
C:\Users\SOLDER~1\AppData\Local\Temp\ccUIzJuS.s:19862  .debug_str:00000000000028b1 .LASF806
C:\Users\SOLDER~1\AppData\Local\Temp\ccUIzJuS.s:28760  .debug_str:0000000000026d89 .LASF807
C:\Users\SOLDER~1\AppData\Local\Temp\ccUIzJuS.s:28986  .debug_str:0000000000027c3a .LASF808
C:\Users\SOLDER~1\AppData\Local\Temp\ccUIzJuS.s:20866  .debug_str:0000000000006994 .LASF809
C:\Users\SOLDER~1\AppData\Local\Temp\ccUIzJuS.s:25638  .debug_str:000000000001a0e9 .LASF810
C:\Users\SOLDER~1\AppData\Local\Temp\ccUIzJuS.s:24692  .debug_str:000000000001646d .LASF811
C:\Users\SOLDER~1\AppData\Local\Temp\ccUIzJuS.s:20838  .debug_str:0000000000006782 .LASF812
C:\Users\SOLDER~1\AppData\Local\Temp\ccUIzJuS.s:30344  .debug_str:000000000002d4c7 .LASF813
GAS LISTING C:\Users\SOLDER~1\AppData\Local\Temp\ccUIzJuS.s 			page 43


C:\Users\SOLDER~1\AppData\Local\Temp\ccUIzJuS.s:29368  .debug_str:0000000000029572 .LASF814
C:\Users\SOLDER~1\AppData\Local\Temp\ccUIzJuS.s:20646  .debug_str:0000000000005ae0 .LASF815
C:\Users\SOLDER~1\AppData\Local\Temp\ccUIzJuS.s:30016  .debug_str:000000000002bf7a .LASF816
C:\Users\SOLDER~1\AppData\Local\Temp\ccUIzJuS.s:28882  .debug_str:0000000000027583 .LASF817
C:\Users\SOLDER~1\AppData\Local\Temp\ccUIzJuS.s:26926  .debug_str:000000000001f569 .LASF818
C:\Users\SOLDER~1\AppData\Local\Temp\ccUIzJuS.s:28634  .debug_str:00000000000264fb .LASF819
C:\Users\SOLDER~1\AppData\Local\Temp\ccUIzJuS.s:25702  .debug_str:000000000001a50b .LASF820
C:\Users\SOLDER~1\AppData\Local\Temp\ccUIzJuS.s:22388  .debug_str:000000000000cd88 .LASF821
C:\Users\SOLDER~1\AppData\Local\Temp\ccUIzJuS.s:25382  .debug_str:00000000000190f6 .LASF822
C:\Users\SOLDER~1\AppData\Local\Temp\ccUIzJuS.s:21594  .debug_str:00000000000098d7 .LASF823
C:\Users\SOLDER~1\AppData\Local\Temp\ccUIzJuS.s:26528  .debug_str:000000000001db11 .LASF824
C:\Users\SOLDER~1\AppData\Local\Temp\ccUIzJuS.s:22862  .debug_str:000000000000ec85 .LASF825
C:\Users\SOLDER~1\AppData\Local\Temp\ccUIzJuS.s:26296  .debug_str:000000000001cc1e .LASF826
C:\Users\SOLDER~1\AppData\Local\Temp\ccUIzJuS.s:28932  .debug_str:0000000000027900 .LASF827
C:\Users\SOLDER~1\AppData\Local\Temp\ccUIzJuS.s:25128  .debug_str:0000000000018073 .LASF828
C:\Users\SOLDER~1\AppData\Local\Temp\ccUIzJuS.s:22418  .debug_str:000000000000cf5e .LASF829
C:\Users\SOLDER~1\AppData\Local\Temp\ccUIzJuS.s:28440  .debug_str:0000000000025754 .LASF830
C:\Users\SOLDER~1\AppData\Local\Temp\ccUIzJuS.s:23042  .debug_str:000000000000f819 .LASF831
C:\Users\SOLDER~1\AppData\Local\Temp\ccUIzJuS.s:29360  .debug_str:00000000000294d4 .LASF832
C:\Users\SOLDER~1\AppData\Local\Temp\ccUIzJuS.s:21512  .debug_str:0000000000009394 .LASF833
C:\Users\SOLDER~1\AppData\Local\Temp\ccUIzJuS.s:29254  .debug_str:0000000000028e08 .LASF834
C:\Users\SOLDER~1\AppData\Local\Temp\ccUIzJuS.s:30224  .debug_str:000000000002ccc8 .LASF835
C:\Users\SOLDER~1\AppData\Local\Temp\ccUIzJuS.s:20202  .debug_str:0000000000003eb0 .LASF836
C:\Users\SOLDER~1\AppData\Local\Temp\ccUIzJuS.s:27238  .debug_str:00000000000209ac .LASF837
C:\Users\SOLDER~1\AppData\Local\Temp\ccUIzJuS.s:19878  .debug_str:00000000000029b8 .LASF838
C:\Users\SOLDER~1\AppData\Local\Temp\ccUIzJuS.s:22114  .debug_str:000000000000bad6 .LASF839
C:\Users\SOLDER~1\AppData\Local\Temp\ccUIzJuS.s:20570  .debug_str:00000000000055b0 .LASF840
C:\Users\SOLDER~1\AppData\Local\Temp\ccUIzJuS.s:23462  .debug_str:000000000001136a .LASF841
C:\Users\SOLDER~1\AppData\Local\Temp\ccUIzJuS.s:23446  .debug_str:0000000000011256 .LASF842
C:\Users\SOLDER~1\AppData\Local\Temp\ccUIzJuS.s:26076  .debug_str:000000000001bd23 .LASF843
C:\Users\SOLDER~1\AppData\Local\Temp\ccUIzJuS.s:30584  .debug_str:000000000002e3ec .LASF844
C:\Users\SOLDER~1\AppData\Local\Temp\ccUIzJuS.s:29612  .debug_str:000000000002a57a .LASF845
C:\Users\SOLDER~1\AppData\Local\Temp\ccUIzJuS.s:25706  .debug_str:000000000001a549 .LASF846
C:\Users\SOLDER~1\AppData\Local\Temp\ccUIzJuS.s:23636  .debug_str:0000000000011e8c .LASF847
C:\Users\SOLDER~1\AppData\Local\Temp\ccUIzJuS.s:19614  .debug_str:00000000000018c4 .LASF848
C:\Users\SOLDER~1\AppData\Local\Temp\ccUIzJuS.s:26714  .debug_str:000000000001e725 .LASF849
C:\Users\SOLDER~1\AppData\Local\Temp\ccUIzJuS.s:29698  .debug_str:000000000002aabd .LASF850
C:\Users\SOLDER~1\AppData\Local\Temp\ccUIzJuS.s:20542  .debug_str:0000000000005414 .LASF851
C:\Users\SOLDER~1\AppData\Local\Temp\ccUIzJuS.s:22954  .debug_str:000000000000f254 .LASF852
C:\Users\SOLDER~1\AppData\Local\Temp\ccUIzJuS.s:24638  .debug_str:00000000000160e9 .LASF853
C:\Users\SOLDER~1\AppData\Local\Temp\ccUIzJuS.s:21804  .debug_str:000000000000a6e0 .LASF854
C:\Users\SOLDER~1\AppData\Local\Temp\ccUIzJuS.s:22842  .debug_str:000000000000eb5c .LASF855
C:\Users\SOLDER~1\AppData\Local\Temp\ccUIzJuS.s:26820  .debug_str:000000000001ee35 .LASF856
C:\Users\SOLDER~1\AppData\Local\Temp\ccUIzJuS.s:22876  .debug_str:000000000000ed7a .LASF857
C:\Users\SOLDER~1\AppData\Local\Temp\ccUIzJuS.s:27706  .debug_str:0000000000022726 .LASF858
C:\Users\SOLDER~1\AppData\Local\Temp\ccUIzJuS.s:20164  .debug_str:0000000000003c0b .LASF859
C:\Users\SOLDER~1\AppData\Local\Temp\ccUIzJuS.s:22172  .debug_str:000000000000be88 .LASF860
C:\Users\SOLDER~1\AppData\Local\Temp\ccUIzJuS.s:27570  .debug_str:0000000000021eac .LASF861
C:\Users\SOLDER~1\AppData\Local\Temp\ccUIzJuS.s:23444  .debug_str:0000000000011243 .LASF862
C:\Users\SOLDER~1\AppData\Local\Temp\ccUIzJuS.s:25782  .debug_str:000000000001aa6e .LASF863
C:\Users\SOLDER~1\AppData\Local\Temp\ccUIzJuS.s:23932  .debug_str:000000000001319d .LASF864
C:\Users\SOLDER~1\AppData\Local\Temp\ccUIzJuS.s:27618  .debug_str:000000000002218a .LASF865
C:\Users\SOLDER~1\AppData\Local\Temp\ccUIzJuS.s:23248  .debug_str:00000000000105dd .LASF866
C:\Users\SOLDER~1\AppData\Local\Temp\ccUIzJuS.s:20050  .debug_str:00000000000034c2 .LASF867
C:\Users\SOLDER~1\AppData\Local\Temp\ccUIzJuS.s:30622  .debug_str:000000000002e643 .LASF868
C:\Users\SOLDER~1\AppData\Local\Temp\ccUIzJuS.s:20476  .debug_str:000000000000500f .LASF869
C:\Users\SOLDER~1\AppData\Local\Temp\ccUIzJuS.s:24124  .debug_str:0000000000013f31 .LASF870
GAS LISTING C:\Users\SOLDER~1\AppData\Local\Temp\ccUIzJuS.s 			page 44


C:\Users\SOLDER~1\AppData\Local\Temp\ccUIzJuS.s:30130  .debug_str:000000000002c6e4 .LASF871
C:\Users\SOLDER~1\AppData\Local\Temp\ccUIzJuS.s:24618  .debug_str:0000000000015f8f .LASF872
C:\Users\SOLDER~1\AppData\Local\Temp\ccUIzJuS.s:30738  .debug_str:000000000002ede1 .LASF873
C:\Users\SOLDER~1\AppData\Local\Temp\ccUIzJuS.s:26146  .debug_str:000000000001c1c4 .LASF874
C:\Users\SOLDER~1\AppData\Local\Temp\ccUIzJuS.s:25396  .debug_str:00000000000191c4 .LASF875
C:\Users\SOLDER~1\AppData\Local\Temp\ccUIzJuS.s:20798  .debug_str:00000000000064dd .LASF876
C:\Users\SOLDER~1\AppData\Local\Temp\ccUIzJuS.s:29310  .debug_str:0000000000029181 .LASF877
C:\Users\SOLDER~1\AppData\Local\Temp\ccUIzJuS.s:27856  .debug_str:0000000000023100 .LASF878
C:\Users\SOLDER~1\AppData\Local\Temp\ccUIzJuS.s:23402  .debug_str:0000000000010f8a .LASF879
C:\Users\SOLDER~1\AppData\Local\Temp\ccUIzJuS.s:19936  .debug_str:0000000000002d42 .LASF880
C:\Users\SOLDER~1\AppData\Local\Temp\ccUIzJuS.s:29808  .debug_str:000000000002b1ca .LASF881
C:\Users\SOLDER~1\AppData\Local\Temp\ccUIzJuS.s:20938  .debug_str:0000000000006e22 .LASF882
C:\Users\SOLDER~1\AppData\Local\Temp\ccUIzJuS.s:20512  .debug_str:000000000000524f .LASF883
C:\Users\SOLDER~1\AppData\Local\Temp\ccUIzJuS.s:24506  .debug_str:0000000000015866 .LASF884
C:\Users\SOLDER~1\AppData\Local\Temp\ccUIzJuS.s:22182  .debug_str:000000000000bf3d .LASF885
C:\Users\SOLDER~1\AppData\Local\Temp\ccUIzJuS.s:26584  .debug_str:000000000001deda .LASF886
C:\Users\SOLDER~1\AppData\Local\Temp\ccUIzJuS.s:25676  .debug_str:000000000001a33e .LASF887
C:\Users\SOLDER~1\AppData\Local\Temp\ccUIzJuS.s:21814  .debug_str:000000000000a799 .LASF888
C:\Users\SOLDER~1\AppData\Local\Temp\ccUIzJuS.s:23338  .debug_str:0000000000010b7e .LASF889
C:\Users\SOLDER~1\AppData\Local\Temp\ccUIzJuS.s:29470  .debug_str:0000000000029bd3 .LASF890
C:\Users\SOLDER~1\AppData\Local\Temp\ccUIzJuS.s:19322  .debug_str:000000000000050f .LASF891
C:\Users\SOLDER~1\AppData\Local\Temp\ccUIzJuS.s:29984  .debug_str:000000000002bd67 .LASF892
C:\Users\SOLDER~1\AppData\Local\Temp\ccUIzJuS.s:29902  .debug_str:000000000002b81b .LASF893
C:\Users\SOLDER~1\AppData\Local\Temp\ccUIzJuS.s:27870  .debug_str:00000000000231fa .LASF894
C:\Users\SOLDER~1\AppData\Local\Temp\ccUIzJuS.s:29484  .debug_str:0000000000029cb7 .LASF895
C:\Users\SOLDER~1\AppData\Local\Temp\ccUIzJuS.s:30278  .debug_str:000000000002d036 .LASF896
C:\Users\SOLDER~1\AppData\Local\Temp\ccUIzJuS.s:29056  .debug_str:0000000000028120 .LASF897
C:\Users\SOLDER~1\AppData\Local\Temp\ccUIzJuS.s:20862  .debug_str:000000000000694c .LASF898
C:\Users\SOLDER~1\AppData\Local\Temp\ccUIzJuS.s:19340  .debug_str:000000000000064c .LASF899
C:\Users\SOLDER~1\AppData\Local\Temp\ccUIzJuS.s:20794  .debug_str:0000000000006497 .LASF900
C:\Users\SOLDER~1\AppData\Local\Temp\ccUIzJuS.s:25156  .debug_str:0000000000018260 .LASF901
C:\Users\SOLDER~1\AppData\Local\Temp\ccUIzJuS.s:27034  .debug_str:000000000001fc97 .LASF902
C:\Users\SOLDER~1\AppData\Local\Temp\ccUIzJuS.s:21014  .debug_str:000000000000734c .LASF903
C:\Users\SOLDER~1\AppData\Local\Temp\ccUIzJuS.s:20058  .debug_str:0000000000003535 .LASF904
C:\Users\SOLDER~1\AppData\Local\Temp\ccUIzJuS.s:22138  .debug_str:000000000000bc83 .LASF905
C:\Users\SOLDER~1\AppData\Local\Temp\ccUIzJuS.s:20290  .debug_str:000000000000442a .LASF906
C:\Users\SOLDER~1\AppData\Local\Temp\ccUIzJuS.s:21068  .debug_str:0000000000007676 .LASF907
C:\Users\SOLDER~1\AppData\Local\Temp\ccUIzJuS.s:28044  .debug_str:0000000000023d45 .LASF908
C:\Users\SOLDER~1\AppData\Local\Temp\ccUIzJuS.s:24936  .debug_str:00000000000173ab .LASF909
C:\Users\SOLDER~1\AppData\Local\Temp\ccUIzJuS.s:24012  .debug_str:000000000001371d .LASF910
C:\Users\SOLDER~1\AppData\Local\Temp\ccUIzJuS.s:26618  .debug_str:000000000001e11b .LASF911
C:\Users\SOLDER~1\AppData\Local\Temp\ccUIzJuS.s:20554  .debug_str:00000000000054c9 .LASF912
C:\Users\SOLDER~1\AppData\Local\Temp\ccUIzJuS.s:29664  .debug_str:000000000002a8db .LASF913
C:\Users\SOLDER~1\AppData\Local\Temp\ccUIzJuS.s:19852  .debug_str:00000000000027da .LASF914
C:\Users\SOLDER~1\AppData\Local\Temp\ccUIzJuS.s:26696  .debug_str:000000000001e5c9 .LASF915
C:\Users\SOLDER~1\AppData\Local\Temp\ccUIzJuS.s:25074  .debug_str:0000000000017cc5 .LASF916
C:\Users\SOLDER~1\AppData\Local\Temp\ccUIzJuS.s:20354  .debug_str:000000000000488a .LASF917
C:\Users\SOLDER~1\AppData\Local\Temp\ccUIzJuS.s:26950  .debug_str:000000000001f733 .LASF918
C:\Users\SOLDER~1\AppData\Local\Temp\ccUIzJuS.s:25792  .debug_str:000000000001aaf7 .LASF919
C:\Users\SOLDER~1\AppData\Local\Temp\ccUIzJuS.s:27492  .debug_str:00000000000219ee .LASF920
C:\Users\SOLDER~1\AppData\Local\Temp\ccUIzJuS.s:23018  .debug_str:000000000000f68c .LASF921
C:\Users\SOLDER~1\AppData\Local\Temp\ccUIzJuS.s:19638  .debug_str:0000000000001a3b .LASF922
C:\Users\SOLDER~1\AppData\Local\Temp\ccUIzJuS.s:29336  .debug_str:0000000000029350 .LASF923
C:\Users\SOLDER~1\AppData\Local\Temp\ccUIzJuS.s:29650  .debug_str:000000000002a7f5 .LASF924
C:\Users\SOLDER~1\AppData\Local\Temp\ccUIzJuS.s:20430  .debug_str:0000000000004d56 .LASF925
C:\Users\SOLDER~1\AppData\Local\Temp\ccUIzJuS.s:20860  .debug_str:000000000000692c .LASF926
C:\Users\SOLDER~1\AppData\Local\Temp\ccUIzJuS.s:21724  .debug_str:000000000000a165 .LASF927
GAS LISTING C:\Users\SOLDER~1\AppData\Local\Temp\ccUIzJuS.s 			page 45


C:\Users\SOLDER~1\AppData\Local\Temp\ccUIzJuS.s:26224  .debug_str:000000000001c72e .LASF928
C:\Users\SOLDER~1\AppData\Local\Temp\ccUIzJuS.s:25318  .debug_str:0000000000018c93 .LASF929
C:\Users\SOLDER~1\AppData\Local\Temp\ccUIzJuS.s:26736  .debug_str:000000000001e8bd .LASF930
C:\Users\SOLDER~1\AppData\Local\Temp\ccUIzJuS.s:19580  .debug_str:00000000000016a0 .LASF931
C:\Users\SOLDER~1\AppData\Local\Temp\ccUIzJuS.s:20932  .debug_str:0000000000006da9 .LASF932
C:\Users\SOLDER~1\AppData\Local\Temp\ccUIzJuS.s:19496  .debug_str:0000000000001128 .LASF933
C:\Users\SOLDER~1\AppData\Local\Temp\ccUIzJuS.s:22696  .debug_str:000000000000e1fe .LASF934
C:\Users\SOLDER~1\AppData\Local\Temp\ccUIzJuS.s:29530  .debug_str:0000000000029fe4 .LASF935
C:\Users\SOLDER~1\AppData\Local\Temp\ccUIzJuS.s:27506  .debug_str:0000000000021ad4 .LASF936
C:\Users\SOLDER~1\AppData\Local\Temp\ccUIzJuS.s:29092  .debug_str:00000000000283a9 .LASF937
C:\Users\SOLDER~1\AppData\Local\Temp\ccUIzJuS.s:26374  .debug_str:000000000001d126 .LASF938
C:\Users\SOLDER~1\AppData\Local\Temp\ccUIzJuS.s:29370  .debug_str:0000000000029585 .LASF939
C:\Users\SOLDER~1\AppData\Local\Temp\ccUIzJuS.s:21552  .debug_str:0000000000009647 .LASF940
C:\Users\SOLDER~1\AppData\Local\Temp\ccUIzJuS.s:29514  .debug_str:0000000000029ec1 .LASF941
C:\Users\SOLDER~1\AppData\Local\Temp\ccUIzJuS.s:22900  .debug_str:000000000000ef14 .LASF942
C:\Users\SOLDER~1\AppData\Local\Temp\ccUIzJuS.s:28420  .debug_str:0000000000025632 .LASF943
C:\Users\SOLDER~1\AppData\Local\Temp\ccUIzJuS.s:20072  .debug_str:000000000000360d .LASF944
C:\Users\SOLDER~1\AppData\Local\Temp\ccUIzJuS.s:22742  .debug_str:000000000000e503 .LASF945
C:\Users\SOLDER~1\AppData\Local\Temp\ccUIzJuS.s:29686  .debug_str:000000000002aa0a .LASF946
C:\Users\SOLDER~1\AppData\Local\Temp\ccUIzJuS.s:28496  .debug_str:0000000000025b64 .LASF947
C:\Users\SOLDER~1\AppData\Local\Temp\ccUIzJuS.s:25974  .debug_str:000000000001b6c7 .LASF948
C:\Users\SOLDER~1\AppData\Local\Temp\ccUIzJuS.s:21622  .debug_str:0000000000009aaf .LASF949
C:\Users\SOLDER~1\AppData\Local\Temp\ccUIzJuS.s:22712  .debug_str:000000000000e319 .LASF950
C:\Users\SOLDER~1\AppData\Local\Temp\ccUIzJuS.s:23064  .debug_str:000000000000f9b1 .LASF951
C:\Users\SOLDER~1\AppData\Local\Temp\ccUIzJuS.s:30358  .debug_str:000000000002d5be .LASF952
C:\Users\SOLDER~1\AppData\Local\Temp\ccUIzJuS.s:22568  .debug_str:000000000000d949 .LASF953
C:\Users\SOLDER~1\AppData\Local\Temp\ccUIzJuS.s:24972  .debug_str:00000000000175f9 .LASF954
C:\Users\SOLDER~1\AppData\Local\Temp\ccUIzJuS.s:25502  .debug_str:0000000000019894 .LASF955
C:\Users\SOLDER~1\AppData\Local\Temp\ccUIzJuS.s:28918  .debug_str:0000000000027808 .LASF956
C:\Users\SOLDER~1\AppData\Local\Temp\ccUIzJuS.s:24824  .debug_str:0000000000016c89 .LASF957
C:\Users\SOLDER~1\AppData\Local\Temp\ccUIzJuS.s:22926  .debug_str:000000000000f0a3 .LASF958
C:\Users\SOLDER~1\AppData\Local\Temp\ccUIzJuS.s:20392  .debug_str:0000000000004ad5 .LASF959
C:\Users\SOLDER~1\AppData\Local\Temp\ccUIzJuS.s:20630  .debug_str:00000000000059c6 .LASF960
C:\Users\SOLDER~1\AppData\Local\Temp\ccUIzJuS.s:27448  .debug_str:0000000000021745 .LASF961
C:\Users\SOLDER~1\AppData\Local\Temp\ccUIzJuS.s:29812  .debug_str:000000000002b214 .LASF962
C:\Users\SOLDER~1\AppData\Local\Temp\ccUIzJuS.s:22996  .debug_str:000000000000f51a .LASF963
C:\Users\SOLDER~1\AppData\Local\Temp\ccUIzJuS.s:26158  .debug_str:000000000001c2af .LASF964
C:\Users\SOLDER~1\AppData\Local\Temp\ccUIzJuS.s:30094  .debug_str:000000000002c4c6 .LASF965
C:\Users\SOLDER~1\AppData\Local\Temp\ccUIzJuS.s:25076  .debug_str:0000000000017ce7 .LASF966
C:\Users\SOLDER~1\AppData\Local\Temp\ccUIzJuS.s:24864  .debug_str:0000000000016ee9 .LASF967
C:\Users\SOLDER~1\AppData\Local\Temp\ccUIzJuS.s:22632  .debug_str:000000000000dd6f .LASF968
C:\Users\SOLDER~1\AppData\Local\Temp\ccUIzJuS.s:21220  .debug_str:0000000000008064 .LASF969
C:\Users\SOLDER~1\AppData\Local\Temp\ccUIzJuS.s:20248  .debug_str:00000000000041a2 .LASF970
C:\Users\SOLDER~1\AppData\Local\Temp\ccUIzJuS.s:28240  .debug_str:0000000000024a45 .LASF971
C:\Users\SOLDER~1\AppData\Local\Temp\ccUIzJuS.s:29440  .debug_str:0000000000029a00 .LASF972
C:\Users\SOLDER~1\AppData\Local\Temp\ccUIzJuS.s:22408  .debug_str:000000000000cec3 .LASF973
C:\Users\SOLDER~1\AppData\Local\Temp\ccUIzJuS.s:23484  .debug_str:00000000000114f5 .LASF974
C:\Users\SOLDER~1\AppData\Local\Temp\ccUIzJuS.s:23028  .debug_str:000000000000f724 .LASF975
C:\Users\SOLDER~1\AppData\Local\Temp\ccUIzJuS.s:23910  .debug_str:000000000001305d .LASF976
C:\Users\SOLDER~1\AppData\Local\Temp\ccUIzJuS.s:30216  .debug_str:000000000002cc5f .LASF977
C:\Users\SOLDER~1\AppData\Local\Temp\ccUIzJuS.s:30274  .debug_str:000000000002cff4 .LASF978
C:\Users\SOLDER~1\AppData\Local\Temp\ccUIzJuS.s:25734  .debug_str:000000000001a704 .LASF979
C:\Users\SOLDER~1\AppData\Local\Temp\ccUIzJuS.s:27838  .debug_str:0000000000022fc4 .LASF980
C:\Users\SOLDER~1\AppData\Local\Temp\ccUIzJuS.s:21252  .debug_str:0000000000008279 .LASF981
C:\Users\SOLDER~1\AppData\Local\Temp\ccUIzJuS.s:25510  .debug_str:00000000000198e5 .LASF982
C:\Users\SOLDER~1\AppData\Local\Temp\ccUIzJuS.s:28268  .debug_str:0000000000024c40 .LASF983
C:\Users\SOLDER~1\AppData\Local\Temp\ccUIzJuS.s:23210  .debug_str:0000000000010366 .LASF984
GAS LISTING C:\Users\SOLDER~1\AppData\Local\Temp\ccUIzJuS.s 			page 46


C:\Users\SOLDER~1\AppData\Local\Temp\ccUIzJuS.s:23838  .debug_str:0000000000012b96 .LASF985
C:\Users\SOLDER~1\AppData\Local\Temp\ccUIzJuS.s:20808  .debug_str:000000000000657f .LASF986
C:\Users\SOLDER~1\AppData\Local\Temp\ccUIzJuS.s:24362  .debug_str:0000000000014f38 .LASF987
C:\Users\SOLDER~1\AppData\Local\Temp\ccUIzJuS.s:29992  .debug_str:000000000002bdf0 .LASF988
C:\Users\SOLDER~1\AppData\Local\Temp\ccUIzJuS.s:26506  .debug_str:000000000001d9bd .LASF989
C:\Users\SOLDER~1\AppData\Local\Temp\ccUIzJuS.s:20688  .debug_str:0000000000005d7f .LASF990
C:\Users\SOLDER~1\AppData\Local\Temp\ccUIzJuS.s:22034  .debug_str:000000000000b5b6 .LASF991
C:\Users\SOLDER~1\AppData\Local\Temp\ccUIzJuS.s:25246  .debug_str:00000000000187fe .LASF992
C:\Users\SOLDER~1\AppData\Local\Temp\ccUIzJuS.s:29100  .debug_str:0000000000028424 .LASF993
C:\Users\SOLDER~1\AppData\Local\Temp\ccUIzJuS.s:26318  .debug_str:000000000001cd90 .LASF994
C:\Users\SOLDER~1\AppData\Local\Temp\ccUIzJuS.s:24656  .debug_str:0000000000016222 .LASF995
C:\Users\SOLDER~1\AppData\Local\Temp\ccUIzJuS.s:23292  .debug_str:00000000000108a0 .LASF996
C:\Users\SOLDER~1\AppData\Local\Temp\ccUIzJuS.s:20154  .debug_str:0000000000003b74 .LASF997
C:\Users\SOLDER~1\AppData\Local\Temp\ccUIzJuS.s:21562  .debug_str:00000000000096c6 .LASF998
C:\Users\SOLDER~1\AppData\Local\Temp\ccUIzJuS.s:27296  .debug_str:0000000000020d76 .LASF999
C:\Users\SOLDER~1\AppData\Local\Temp\ccUIzJuS.s:30734  .debug_str:000000000002ed99 .LASF1000
C:\Users\SOLDER~1\AppData\Local\Temp\ccUIzJuS.s:22834  .debug_str:000000000000eb07 .LASF1001
C:\Users\SOLDER~1\AppData\Local\Temp\ccUIzJuS.s:28296  .debug_str:0000000000024e36 .LASF1002
C:\Users\SOLDER~1\AppData\Local\Temp\ccUIzJuS.s:29942  .debug_str:000000000002bad3 .LASF1003
C:\Users\SOLDER~1\AppData\Local\Temp\ccUIzJuS.s:26052  .debug_str:000000000001bbaf .LASF1004
C:\Users\SOLDER~1\AppData\Local\Temp\ccUIzJuS.s:25464  .debug_str:0000000000019666 .LASF1005
C:\Users\SOLDER~1\AppData\Local\Temp\ccUIzJuS.s:23658  .debug_str:0000000000012006 .LASF1006
C:\Users\SOLDER~1\AppData\Local\Temp\ccUIzJuS.s:20968  .debug_str:000000000000704e .LASF1007
C:\Users\SOLDER~1\AppData\Local\Temp\ccUIzJuS.s:21276  .debug_str:0000000000008402 .LASF1008
C:\Users\SOLDER~1\AppData\Local\Temp\ccUIzJuS.s:28088  .debug_str:000000000002402e .LASF1009
C:\Users\SOLDER~1\AppData\Local\Temp\ccUIzJuS.s:30450  .debug_str:000000000002db78 .LASF1010
C:\Users\SOLDER~1\AppData\Local\Temp\ccUIzJuS.s:23650  .debug_str:0000000000011f78 .LASF1011
C:\Users\SOLDER~1\AppData\Local\Temp\ccUIzJuS.s:28678  .debug_str:00000000000267d5 .LASF1012
C:\Users\SOLDER~1\AppData\Local\Temp\ccUIzJuS.s:30728  .debug_str:000000000002ed40 .LASF1013
C:\Users\SOLDER~1\AppData\Local\Temp\ccUIzJuS.s:29158  .debug_str:00000000000287ba .LASF1014
C:\Users\SOLDER~1\AppData\Local\Temp\ccUIzJuS.s:26234  .debug_str:000000000001c7e5 .LASF1015
C:\Users\SOLDER~1\AppData\Local\Temp\ccUIzJuS.s:26782  .debug_str:000000000001ebca .LASF1016
C:\Users\SOLDER~1\AppData\Local\Temp\ccUIzJuS.s:21748  .debug_str:000000000000a2fc .LASF1017
C:\Users\SOLDER~1\AppData\Local\Temp\ccUIzJuS.s:24406  .debug_str:00000000000151cf .LASF1018
C:\Users\SOLDER~1\AppData\Local\Temp\ccUIzJuS.s:26622  .debug_str:000000000001e153 .LASF1019
C:\Users\SOLDER~1\AppData\Local\Temp\ccUIzJuS.s:22006  .debug_str:000000000000b3c5 .LASF1020
C:\Users\SOLDER~1\AppData\Local\Temp\ccUIzJuS.s:23624  .debug_str:0000000000011de7 .LASF1021
C:\Users\SOLDER~1\AppData\Local\Temp\ccUIzJuS.s:25700  .debug_str:000000000001a4ea .LASF1022
C:\Users\SOLDER~1\AppData\Local\Temp\ccUIzJuS.s:19972  .debug_str:0000000000002fbe .LASF1023
C:\Users\SOLDER~1\AppData\Local\Temp\ccUIzJuS.s:28862  .debug_str:0000000000027424 .LASF1024
C:\Users\SOLDER~1\AppData\Local\Temp\ccUIzJuS.s:27826  .debug_str:0000000000022f20 .LASF1025
C:\Users\SOLDER~1\AppData\Local\Temp\ccUIzJuS.s:26484  .debug_str:000000000001d86a .LASF1026
C:\Users\SOLDER~1\AppData\Local\Temp\ccUIzJuS.s:22548  .debug_str:000000000000d818 .LASF1027
C:\Users\SOLDER~1\AppData\Local\Temp\ccUIzJuS.s:24132  .debug_str:0000000000013fc3 .LASF1028
C:\Users\SOLDER~1\AppData\Local\Temp\ccUIzJuS.s:29644  .debug_str:000000000002a77c .LASF1029
C:\Users\SOLDER~1\AppData\Local\Temp\ccUIzJuS.s:21720  .debug_str:000000000000a121 .LASF1030
C:\Users\SOLDER~1\AppData\Local\Temp\ccUIzJuS.s:21318  .debug_str:000000000000869b .LASF1031
C:\Users\SOLDER~1\AppData\Local\Temp\ccUIzJuS.s:19370  .debug_str:00000000000008ba .LASF1032
C:\Users\SOLDER~1\AppData\Local\Temp\ccUIzJuS.s:20676  .debug_str:0000000000005ca9 .LASF1033
C:\Users\SOLDER~1\AppData\Local\Temp\ccUIzJuS.s:20456  .debug_str:0000000000004ed7 .LASF1034
C:\Users\SOLDER~1\AppData\Local\Temp\ccUIzJuS.s:27710  .debug_str:0000000000022760 .LASF1035
C:\Users\SOLDER~1\AppData\Local\Temp\ccUIzJuS.s:29628  .debug_str:000000000002a679 .LASF1036
C:\Users\SOLDER~1\AppData\Local\Temp\ccUIzJuS.s:23376  .debug_str:0000000000010dff .LASF1037
C:\Users\SOLDER~1\AppData\Local\Temp\ccUIzJuS.s:27218  .debug_str:0000000000020871 .LASF1038
C:\Users\SOLDER~1\AppData\Local\Temp\ccUIzJuS.s:28212  .debug_str:0000000000024879 .LASF1039
C:\Users\SOLDER~1\AppData\Local\Temp\ccUIzJuS.s:21616  .debug_str:0000000000009a57 .LASF1040
C:\Users\SOLDER~1\AppData\Local\Temp\ccUIzJuS.s:20378  .debug_str:00000000000049f9 .LASF1041
GAS LISTING C:\Users\SOLDER~1\AppData\Local\Temp\ccUIzJuS.s 			page 47


C:\Users\SOLDER~1\AppData\Local\Temp\ccUIzJuS.s:23234  .debug_str:0000000000010515 .LASF1042
C:\Users\SOLDER~1\AppData\Local\Temp\ccUIzJuS.s:29288  .debug_str:0000000000029044 .LASF1043
C:\Users\SOLDER~1\AppData\Local\Temp\ccUIzJuS.s:27022  .debug_str:000000000001fbc8 .LASF1044
C:\Users\SOLDER~1\AppData\Local\Temp\ccUIzJuS.s:24572  .debug_str:0000000000015ca8 .LASF1045
C:\Users\SOLDER~1\AppData\Local\Temp\ccUIzJuS.s:20162  .debug_str:0000000000003bef .LASF1046
C:\Users\SOLDER~1\AppData\Local\Temp\ccUIzJuS.s:28710  .debug_str:0000000000026a15 .LASF1047
C:\Users\SOLDER~1\AppData\Local\Temp\ccUIzJuS.s:20766  .debug_str:00000000000062c2 .LASF1048
C:\Users\SOLDER~1\AppData\Local\Temp\ccUIzJuS.s:24940  .debug_str:00000000000173f1 .LASF1049
C:\Users\SOLDER~1\AppData\Local\Temp\ccUIzJuS.s:23634  .debug_str:0000000000011e73 .LASF1050
C:\Users\SOLDER~1\AppData\Local\Temp\ccUIzJuS.s:26310  .debug_str:000000000001cd1d .LASF1051
C:\Users\SOLDER~1\AppData\Local\Temp\ccUIzJuS.s:28698  .debug_str:000000000002694e .LASF1052
C:\Users\SOLDER~1\AppData\Local\Temp\ccUIzJuS.s:22820  .debug_str:000000000000ea35 .LASF1053
C:\Users\SOLDER~1\AppData\Local\Temp\ccUIzJuS.s:26136  .debug_str:000000000001c127 .LASF1054
C:\Users\SOLDER~1\AppData\Local\Temp\ccUIzJuS.s:20462  .debug_str:0000000000004f2e .LASF1055
C:\Users\SOLDER~1\AppData\Local\Temp\ccUIzJuS.s:27400  .debug_str:0000000000021428 .LASF1056
C:\Users\SOLDER~1\AppData\Local\Temp\ccUIzJuS.s:27488  .debug_str:00000000000219a6 .LASF1057
C:\Users\SOLDER~1\AppData\Local\Temp\ccUIzJuS.s:26466  .debug_str:000000000001d764 .LASF1058
C:\Users\SOLDER~1\AppData\Local\Temp\ccUIzJuS.s:29492  .debug_str:0000000000029d3c .LASF1059
C:\Users\SOLDER~1\AppData\Local\Temp\ccUIzJuS.s:27410  .debug_str:00000000000214c6 .LASF1060
C:\Users\SOLDER~1\AppData\Local\Temp\ccUIzJuS.s:27180  .debug_str:00000000000205fd .LASF1061
C:\Users\SOLDER~1\AppData\Local\Temp\ccUIzJuS.s:30396  .debug_str:000000000002d809 .LASF1062
C:\Users\SOLDER~1\AppData\Local\Temp\ccUIzJuS.s:20830  .debug_str:0000000000006715 .LASF1063
C:\Users\SOLDER~1\AppData\Local\Temp\ccUIzJuS.s:23140  .debug_str:000000000000ff04 .LASF1064
C:\Users\SOLDER~1\AppData\Local\Temp\ccUIzJuS.s:27818  .debug_str:0000000000022e9d .LASF1065
C:\Users\SOLDER~1\AppData\Local\Temp\ccUIzJuS.s:27840  .debug_str:0000000000022fe5 .LASF1066
C:\Users\SOLDER~1\AppData\Local\Temp\ccUIzJuS.s:22550  .debug_str:000000000000d82f .LASF1067
C:\Users\SOLDER~1\AppData\Local\Temp\ccUIzJuS.s:20364  .debug_str:0000000000004931 .LASF1068
C:\Users\SOLDER~1\AppData\Local\Temp\ccUIzJuS.s:23370  .debug_str:0000000000010d94 .LASF1069
C:\Users\SOLDER~1\AppData\Local\Temp\ccUIzJuS.s:27694  .debug_str:0000000000022649 .LASF1070
C:\Users\SOLDER~1\AppData\Local\Temp\ccUIzJuS.s:26382  .debug_str:000000000001d1be .LASF1071
C:\Users\SOLDER~1\AppData\Local\Temp\ccUIzJuS.s:23350  .debug_str:0000000000010c3c .LASF1072
C:\Users\SOLDER~1\AppData\Local\Temp\ccUIzJuS.s:27934  .debug_str:0000000000023645 .LASF1073
C:\Users\SOLDER~1\AppData\Local\Temp\ccUIzJuS.s:19390  .debug_str:0000000000000a48 .LASF1074
C:\Users\SOLDER~1\AppData\Local\Temp\ccUIzJuS.s:25654  .debug_str:000000000001a1f2 .LASF1075
C:\Users\SOLDER~1\AppData\Local\Temp\ccUIzJuS.s:24152  .debug_str:0000000000014100 .LASF1076
C:\Users\SOLDER~1\AppData\Local\Temp\ccUIzJuS.s:22352  .debug_str:000000000000cb0a .LASF1077
C:\Users\SOLDER~1\AppData\Local\Temp\ccUIzJuS.s:19838  .debug_str:000000000000270f .LASF1078
C:\Users\SOLDER~1\AppData\Local\Temp\ccUIzJuS.s:28394  .debug_str:000000000002547d .LASF1079
C:\Users\SOLDER~1\AppData\Local\Temp\ccUIzJuS.s:21436  .debug_str:0000000000008e5c .LASF1080
C:\Users\SOLDER~1\AppData\Local\Temp\ccUIzJuS.s:23810  .debug_str:000000000001296c .LASF1081
C:\Users\SOLDER~1\AppData\Local\Temp\ccUIzJuS.s:27252  .debug_str:0000000000020a9b .LASF1082
C:\Users\SOLDER~1\AppData\Local\Temp\ccUIzJuS.s:26716  .debug_str:000000000001e745 .LASF1083
C:\Users\SOLDER~1\AppData\Local\Temp\ccUIzJuS.s:24648  .debug_str:0000000000016197 .LASF1084
C:\Users\SOLDER~1\AppData\Local\Temp\ccUIzJuS.s:20680  .debug_str:0000000000005ce5 .LASF1085
C:\Users\SOLDER~1\AppData\Local\Temp\ccUIzJuS.s:27802  .debug_str:0000000000022d8e .LASF1086
C:\Users\SOLDER~1\AppData\Local\Temp\ccUIzJuS.s:29572  .debug_str:000000000002a2a1 .LASF1087
C:\Users\SOLDER~1\AppData\Local\Temp\ccUIzJuS.s:27392  .debug_str:00000000000213a2 .LASF1088
C:\Users\SOLDER~1\AppData\Local\Temp\ccUIzJuS.s:20650  .debug_str:0000000000005b23 .LASF1089
C:\Users\SOLDER~1\AppData\Local\Temp\ccUIzJuS.s:28720  .debug_str:0000000000026aae .LASF1090
C:\Users\SOLDER~1\AppData\Local\Temp\ccUIzJuS.s:26554  .debug_str:000000000001dcb5 .LASF1091
C:\Users\SOLDER~1\AppData\Local\Temp\ccUIzJuS.s:21008  .debug_str:00000000000072e0 .LASF1092
C:\Users\SOLDER~1\AppData\Local\Temp\ccUIzJuS.s:25092  .debug_str:0000000000017de1 .LASF1093
C:\Users\SOLDER~1\AppData\Local\Temp\ccUIzJuS.s:22518  .debug_str:000000000000d604 .LASF1094
C:\Users\SOLDER~1\AppData\Local\Temp\ccUIzJuS.s:19596  .debug_str:00000000000017be .LASF1095
C:\Users\SOLDER~1\AppData\Local\Temp\ccUIzJuS.s:20738  .debug_str:00000000000060b8 .LASF1096
C:\Users\SOLDER~1\AppData\Local\Temp\ccUIzJuS.s:27824  .debug_str:0000000000022ef9 .LASF1097
C:\Users\SOLDER~1\AppData\Local\Temp\ccUIzJuS.s:27122  .debug_str:000000000002023b .LASF1098
GAS LISTING C:\Users\SOLDER~1\AppData\Local\Temp\ccUIzJuS.s 			page 48


C:\Users\SOLDER~1\AppData\Local\Temp\ccUIzJuS.s:20970  .debug_str:0000000000007065 .LASF1099
C:\Users\SOLDER~1\AppData\Local\Temp\ccUIzJuS.s:24416  .debug_str:0000000000015293 .LASF1100
C:\Users\SOLDER~1\AppData\Local\Temp\ccUIzJuS.s:28068  .debug_str:0000000000023ed2 .LASF1101
C:\Users\SOLDER~1\AppData\Local\Temp\ccUIzJuS.s:29770  .debug_str:000000000002af79 .LASF1102
C:\Users\SOLDER~1\AppData\Local\Temp\ccUIzJuS.s:19454  .debug_str:0000000000000ea8 .LASF1103
C:\Users\SOLDER~1\AppData\Local\Temp\ccUIzJuS.s:19564  .debug_str:00000000000015ae .LASF1104
C:\Users\SOLDER~1\AppData\Local\Temp\ccUIzJuS.s:27054  .debug_str:000000000001fdcb .LASF1105
C:\Users\SOLDER~1\AppData\Local\Temp\ccUIzJuS.s:20622  .debug_str:0000000000005947 .LASF1106
C:\Users\SOLDER~1\AppData\Local\Temp\ccUIzJuS.s:22156  .debug_str:000000000000bd90 .LASF1107
C:\Users\SOLDER~1\AppData\Local\Temp\ccUIzJuS.s:19632  .debug_str:00000000000019d8 .LASF1108
C:\Users\SOLDER~1\AppData\Local\Temp\ccUIzJuS.s:27138  .debug_str:000000000002032a .LASF1109
C:\Users\SOLDER~1\AppData\Local\Temp\ccUIzJuS.s:20712  .debug_str:0000000000005eee .LASF1110
C:\Users\SOLDER~1\AppData\Local\Temp\ccUIzJuS.s:21218  .debug_str:000000000000803c .LASF1111
C:\Users\SOLDER~1\AppData\Local\Temp\ccUIzJuS.s:21700  .debug_str:0000000000009fc3 .LASF1112
C:\Users\SOLDER~1\AppData\Local\Temp\ccUIzJuS.s:22128  .debug_str:000000000000bbdf .LASF1113
C:\Users\SOLDER~1\AppData\Local\Temp\ccUIzJuS.s:29068  .debug_str:00000000000281e5 .LASF1114
C:\Users\SOLDER~1\AppData\Local\Temp\ccUIzJuS.s:21360  .debug_str:000000000000892e .LASF1115
C:\Users\SOLDER~1\AppData\Local\Temp\ccUIzJuS.s:28782  .debug_str:0000000000026ead .LASF1116
C:\Users\SOLDER~1\AppData\Local\Temp\ccUIzJuS.s:30248  .debug_str:000000000002ce3e .LASF1117
C:\Users\SOLDER~1\AppData\Local\Temp\ccUIzJuS.s:29736  .debug_str:000000000002ad35 .LASF1118
C:\Users\SOLDER~1\AppData\Local\Temp\ccUIzJuS.s:24074  .debug_str:0000000000013bad .LASF1119
C:\Users\SOLDER~1\AppData\Local\Temp\ccUIzJuS.s:20380  .debug_str:0000000000004a0a .LASF1120
C:\Users\SOLDER~1\AppData\Local\Temp\ccUIzJuS.s:26598  .debug_str:000000000001dfda .LASF1121
C:\Users\SOLDER~1\AppData\Local\Temp\ccUIzJuS.s:21478  .debug_str:0000000000009137 .LASF1122
C:\Users\SOLDER~1\AppData\Local\Temp\ccUIzJuS.s:29908  .debug_str:000000000002b895 .LASF1123
C:\Users\SOLDER~1\AppData\Local\Temp\ccUIzJuS.s:24312  .debug_str:0000000000014bff .LASF1124
C:\Users\SOLDER~1\AppData\Local\Temp\ccUIzJuS.s:22020  .debug_str:000000000000b4d2 .LASF1125
C:\Users\SOLDER~1\AppData\Local\Temp\ccUIzJuS.s:30426  .debug_str:000000000002d9fd .LASF1126
C:\Users\SOLDER~1\AppData\Local\Temp\ccUIzJuS.s:28530  .debug_str:0000000000025d9c .LASF1127
C:\Users\SOLDER~1\AppData\Local\Temp\ccUIzJuS.s:27584  .debug_str:0000000000021f7b .LASF1128
C:\Users\SOLDER~1\AppData\Local\Temp\ccUIzJuS.s:25272  .debug_str:00000000000189a7 .LASF1129
C:\Users\SOLDER~1\AppData\Local\Temp\ccUIzJuS.s:25882  .debug_str:000000000001b114 .LASF1130
C:\Users\SOLDER~1\AppData\Local\Temp\ccUIzJuS.s:21372  .debug_str:0000000000008a21 .LASF1131
C:\Users\SOLDER~1\AppData\Local\Temp\ccUIzJuS.s:26900  .debug_str:000000000001f3a0 .LASF1132
C:\Users\SOLDER~1\AppData\Local\Temp\ccUIzJuS.s:21938  .debug_str:000000000000afa0 .LASF1133
C:\Users\SOLDER~1\AppData\Local\Temp\ccUIzJuS.s:24928  .debug_str:0000000000017324 .LASF1134
C:\Users\SOLDER~1\AppData\Local\Temp\ccUIzJuS.s:24310  .debug_str:0000000000014bda .LASF1135
C:\Users\SOLDER~1\AppData\Local\Temp\ccUIzJuS.s:24938  .debug_str:00000000000173cc .LASF1136
C:\Users\SOLDER~1\AppData\Local\Temp\ccUIzJuS.s:28972  .debug_str:0000000000027b6c .LASF1137
C:\Users\SOLDER~1\AppData\Local\Temp\ccUIzJuS.s:26840  .debug_str:000000000001ef78 .LASF1138
C:\Users\SOLDER~1\AppData\Local\Temp\ccUIzJuS.s:28126  .debug_str:00000000000242c0 .LASF1139
C:\Users\SOLDER~1\AppData\Local\Temp\ccUIzJuS.s:19782  .debug_str:0000000000002388 .LASF1140
C:\Users\SOLDER~1\AppData\Local\Temp\ccUIzJuS.s:28396  .debug_str:00000000000254a5 .LASF1141
C:\Users\SOLDER~1\AppData\Local\Temp\ccUIzJuS.s:27704  .debug_str:0000000000022700 .LASF1142
C:\Users\SOLDER~1\AppData\Local\Temp\ccUIzJuS.s:26240  .debug_str:000000000001c83e .LASF1143
C:\Users\SOLDER~1\AppData\Local\Temp\ccUIzJuS.s:30000  .debug_str:000000000002be7d .LASF1144
C:\Users\SOLDER~1\AppData\Local\Temp\ccUIzJuS.s:26734  .debug_str:000000000001e896 .LASF1145
C:\Users\SOLDER~1\AppData\Local\Temp\ccUIzJuS.s:26490  .debug_str:000000000001d8d6 .LASF1146
C:\Users\SOLDER~1\AppData\Local\Temp\ccUIzJuS.s:24816  .debug_str:0000000000016c10 .LASF1147
C:\Users\SOLDER~1\AppData\Local\Temp\ccUIzJuS.s:30118  .debug_str:000000000002c622 .LASF1148
C:\Users\SOLDER~1\AppData\Local\Temp\ccUIzJuS.s:27402  .debug_str:0000000000021444 .LASF1149
C:\Users\SOLDER~1\AppData\Local\Temp\ccUIzJuS.s:24546  .debug_str:0000000000015b09 .LASF1150
C:\Users\SOLDER~1\AppData\Local\Temp\ccUIzJuS.s:26292  .debug_str:000000000001cbd3 .LASF1151
C:\Users\SOLDER~1\AppData\Local\Temp\ccUIzJuS.s:23364  .debug_str:0000000000010d24 .LASF1152
C:\Users\SOLDER~1\AppData\Local\Temp\ccUIzJuS.s:28872  .debug_str:00000000000274d6 .LASF1153
C:\Users\SOLDER~1\AppData\Local\Temp\ccUIzJuS.s:25180  .debug_str:00000000000183ce .LASF1154
C:\Users\SOLDER~1\AppData\Local\Temp\ccUIzJuS.s:19676  .debug_str:0000000000001cdf .LASF1155
GAS LISTING C:\Users\SOLDER~1\AppData\Local\Temp\ccUIzJuS.s 			page 49


C:\Users\SOLDER~1\AppData\Local\Temp\ccUIzJuS.s:24084  .debug_str:0000000000013c7f .LASF1156
C:\Users\SOLDER~1\AppData\Local\Temp\ccUIzJuS.s:27168  .debug_str:000000000002051e .LASF1157
C:\Users\SOLDER~1\AppData\Local\Temp\ccUIzJuS.s:30534  .debug_str:000000000002e0ed .LASF1158
C:\Users\SOLDER~1\AppData\Local\Temp\ccUIzJuS.s:30542  .debug_str:000000000002e153 .LASF1159
C:\Users\SOLDER~1\AppData\Local\Temp\ccUIzJuS.s:29122  .debug_str:0000000000028574 .LASF1160
C:\Users\SOLDER~1\AppData\Local\Temp\ccUIzJuS.s:19262  .debug_str:0000000000000130 .LASF1161
C:\Users\SOLDER~1\AppData\Local\Temp\ccUIzJuS.s:25206  .debug_str:0000000000018568 .LASF1162
C:\Users\SOLDER~1\AppData\Local\Temp\ccUIzJuS.s:28958  .debug_str:0000000000027a96 .LASF1163
C:\Users\SOLDER~1\AppData\Local\Temp\ccUIzJuS.s:23422  .debug_str:00000000000110d3 .LASF1164
C:\Users\SOLDER~1\AppData\Local\Temp\ccUIzJuS.s:28890  .debug_str:0000000000027604 .LASF1165
C:\Users\SOLDER~1\AppData\Local\Temp\ccUIzJuS.s:30596  .debug_str:000000000002e49d .LASF1166
C:\Users\SOLDER~1\AppData\Local\Temp\ccUIzJuS.s:26960  .debug_str:000000000001f7c9 .LASF1167
C:\Users\SOLDER~1\AppData\Local\Temp\ccUIzJuS.s:23952  .debug_str:0000000000013320 .LASF1168
C:\Users\SOLDER~1\AppData\Local\Temp\ccUIzJuS.s:29444  .debug_str:0000000000029a3d .LASF1169
C:\Users\SOLDER~1\AppData\Local\Temp\ccUIzJuS.s:21414  .debug_str:0000000000008cc9 .LASF1170
C:\Users\SOLDER~1\AppData\Local\Temp\ccUIzJuS.s:27446  .debug_str:000000000002171c .LASF1171
C:\Users\SOLDER~1\AppData\Local\Temp\ccUIzJuS.s:28294  .debug_str:0000000000024e0f .LASF1172
C:\Users\SOLDER~1\AppData\Local\Temp\ccUIzJuS.s:26788  .debug_str:000000000001ec2a .LASF1173
C:\Users\SOLDER~1\AppData\Local\Temp\ccUIzJuS.s:25192  .debug_str:0000000000018494 .LASF1174
C:\Users\SOLDER~1\AppData\Local\Temp\ccUIzJuS.s:23164  .debug_str:0000000000010070 .LASF1175
C:\Users\SOLDER~1\AppData\Local\Temp\ccUIzJuS.s:26988  .debug_str:000000000001f9ab .LASF1176
C:\Users\SOLDER~1\AppData\Local\Temp\ccUIzJuS.s:24088  .debug_str:0000000000013ccb .LASF1177
C:\Users\SOLDER~1\AppData\Local\Temp\ccUIzJuS.s:23832  .debug_str:0000000000012b25 .LASF1178
C:\Users\SOLDER~1\AppData\Local\Temp\ccUIzJuS.s:21692  .debug_str:0000000000009f3c .LASF1179
C:\Users\SOLDER~1\AppData\Local\Temp\ccUIzJuS.s:23044  .debug_str:000000000000f83a .LASF1180
C:\Users\SOLDER~1\AppData\Local\Temp\ccUIzJuS.s:25118  .debug_str:0000000000017fa6 .LASF1181
C:\Users\SOLDER~1\AppData\Local\Temp\ccUIzJuS.s:28570  .debug_str:0000000000026076 .LASF1182
C:\Users\SOLDER~1\AppData\Local\Temp\ccUIzJuS.s:23228  .debug_str:00000000000104ab .LASF1183
C:\Users\SOLDER~1\AppData\Local\Temp\ccUIzJuS.s:28790  .debug_str:0000000000026f42 .LASF1184
C:\Users\SOLDER~1\AppData\Local\Temp\ccUIzJuS.s:25708  .debug_str:000000000001a56a .LASF1185
C:\Users\SOLDER~1\AppData\Local\Temp\ccUIzJuS.s:29208  .debug_str:0000000000028b22 .LASF1186
C:\Users\SOLDER~1\AppData\Local\Temp\ccUIzJuS.s:23740  .debug_str:000000000001250e .LASF1187
C:\Users\SOLDER~1\AppData\Local\Temp\ccUIzJuS.s:21782  .debug_str:000000000000a540 .LASF1188
C:\Users\SOLDER~1\AppData\Local\Temp\ccUIzJuS.s:21120  .debug_str:00000000000079aa .LASF1189
C:\Users\SOLDER~1\AppData\Local\Temp\ccUIzJuS.s:19714  .debug_str:0000000000001f38 .LASF1190
C:\Users\SOLDER~1\AppData\Local\Temp\ccUIzJuS.s:23464  .debug_str:000000000001137c .LASF1191
C:\Users\SOLDER~1\AppData\Local\Temp\ccUIzJuS.s:20198  .debug_str:0000000000003e60 .LASF1192
C:\Users\SOLDER~1\AppData\Local\Temp\ccUIzJuS.s:30736  .debug_str:000000000002edba .LASF1193
C:\Users\SOLDER~1\AppData\Local\Temp\ccUIzJuS.s:25744  .debug_str:000000000001a7af .LASF1194
C:\Users\SOLDER~1\AppData\Local\Temp\ccUIzJuS.s:20958  .debug_str:0000000000006fa3 .LASF1195
C:\Users\SOLDER~1\AppData\Local\Temp\ccUIzJuS.s:26434  .debug_str:000000000001d56f .LASF1196
C:\Users\SOLDER~1\AppData\Local\Temp\ccUIzJuS.s:29990  .debug_str:000000000002bdc7 .LASF1197
C:\Users\SOLDER~1\AppData\Local\Temp\ccUIzJuS.s:24512  .debug_str:00000000000158c8 .LASF1198
C:\Users\SOLDER~1\AppData\Local\Temp\ccUIzJuS.s:21580  .debug_str:00000000000097f1 .LASF1199
C:\Users\SOLDER~1\AppData\Local\Temp\ccUIzJuS.s:26980  .debug_str:000000000001f918 .LASF1200
C:\Users\SOLDER~1\AppData\Local\Temp\ccUIzJuS.s:30526  .debug_str:000000000002e062 .LASF1201
C:\Users\SOLDER~1\AppData\Local\Temp\ccUIzJuS.s:25150  .debug_str:00000000000181ee .LASF1202
C:\Users\SOLDER~1\AppData\Local\Temp\ccUIzJuS.s:20526  .debug_str:000000000000531d .LASF1203
C:\Users\SOLDER~1\AppData\Local\Temp\ccUIzJuS.s:19768  .debug_str:0000000000002293 .LASF1204
C:\Users\SOLDER~1\AppData\Local\Temp\ccUIzJuS.s:23908  .debug_str:0000000000013036 .LASF1205
C:\Users\SOLDER~1\AppData\Local\Temp\ccUIzJuS.s:27692  .debug_str:0000000000022622 .LASF1206
C:\Users\SOLDER~1\AppData\Local\Temp\ccUIzJuS.s:30438  .debug_str:000000000002dac0 .LASF1207
C:\Users\SOLDER~1\AppData\Local\Temp\ccUIzJuS.s:29388  .debug_str:00000000000296c7 .LASF1208
C:\Users\SOLDER~1\AppData\Local\Temp\ccUIzJuS.s:29940  .debug_str:000000000002baab .LASF1209
C:\Users\SOLDER~1\AppData\Local\Temp\ccUIzJuS.s:28742  .debug_str:0000000000026c49 .LASF1210
C:\Users\SOLDER~1\AppData\Local\Temp\ccUIzJuS.s:22698  .debug_str:000000000000e220 .LASF1211
C:\Users\SOLDER~1\AppData\Local\Temp\ccUIzJuS.s:26144  .debug_str:000000000001c19b .LASF1212
GAS LISTING C:\Users\SOLDER~1\AppData\Local\Temp\ccUIzJuS.s 			page 50


C:\Users\SOLDER~1\AppData\Local\Temp\ccUIzJuS.s:20760  .debug_str:000000000000625b .LASF1213
C:\Users\SOLDER~1\AppData\Local\Temp\ccUIzJuS.s:29810  .debug_str:000000000002b1eb .LASF1214
C:\Users\SOLDER~1\AppData\Local\Temp\ccUIzJuS.s:20616  .debug_str:00000000000058e2 .LASF1215
C:\Users\SOLDER~1\AppData\Local\Temp\ccUIzJuS.s:26760  .debug_str:000000000001ea49 .LASF1216
C:\Users\SOLDER~1\AppData\Local\Temp\ccUIzJuS.s:21386  .debug_str:0000000000008afb .LASF1217
C:\Users\SOLDER~1\AppData\Local\Temp\ccUIzJuS.s:19986  .debug_str:000000000000308f .LASF1218
C:\Users\SOLDER~1\AppData\Local\Temp\ccUIzJuS.s:27978  .debug_str:0000000000023922 .LASF1219
C:\Users\SOLDER~1\AppData\Local\Temp\ccUIzJuS.s:27698  .debug_str:0000000000022682 .LASF1220
C:\Users\SOLDER~1\AppData\Local\Temp\ccUIzJuS.s:27158  .debug_str:0000000000020473 .LASF1221
C:\Users\SOLDER~1\AppData\Local\Temp\ccUIzJuS.s:23802  .debug_str:00000000000128f8 .LASF1222
C:\Users\SOLDER~1\AppData\Local\Temp\ccUIzJuS.s:20614  .debug_str:00000000000058bf .LASF1223
C:\Users\SOLDER~1\AppData\Local\Temp\ccUIzJuS.s:22052  .debug_str:000000000000b6c0 .LASF1224
C:\Users\SOLDER~1\AppData\Local\Temp\ccUIzJuS.s:25438  .debug_str:000000000001948a .LASF1225
C:\Users\SOLDER~1\AppData\Local\Temp\ccUIzJuS.s:22958  .debug_str:000000000000f2af .LASF1226
C:\Users\SOLDER~1\AppData\Local\Temp\ccUIzJuS.s:28112  .debug_str:00000000000241cb .LASF1227
C:\Users\SOLDER~1\AppData\Local\Temp\ccUIzJuS.s:21924  .debug_str:000000000000aea9 .LASF1228
C:\Users\SOLDER~1\AppData\Local\Temp\ccUIzJuS.s:23000  .debug_str:000000000000f55a .LASF1229
C:\Users\SOLDER~1\AppData\Local\Temp\ccUIzJuS.s:28960  .debug_str:0000000000027abe .LASF1230
C:\Users\SOLDER~1\AppData\Local\Temp\ccUIzJuS.s:23990  .debug_str:00000000000135a6 .LASF1231
C:\Users\SOLDER~1\AppData\Local\Temp\ccUIzJuS.s:25130  .debug_str:0000000000018092 .LASF1232
C:\Users\SOLDER~1\AppData\Local\Temp\ccUIzJuS.s:23322  .debug_str:0000000000010a99 .LASF1233
C:\Users\SOLDER~1\AppData\Local\Temp\ccUIzJuS.s:20906  .debug_str:0000000000006c02 .LASF1234
C:\Users\SOLDER~1\AppData\Local\Temp\ccUIzJuS.s:24042  .debug_str:0000000000013928 .LASF1235
C:\Users\SOLDER~1\AppData\Local\Temp\ccUIzJuS.s:20544  .debug_str:0000000000005436 .LASF1236
C:\Users\SOLDER~1\AppData\Local\Temp\ccUIzJuS.s:28714  .debug_str:0000000000026a4b .LASF1237
C:\Users\SOLDER~1\AppData\Local\Temp\ccUIzJuS.s:25582  .debug_str:0000000000019d88 .LASF1238
C:\Users\SOLDER~1\AppData\Local\Temp\ccUIzJuS.s:22732  .debug_str:000000000000e465 .LASF1239
C:\Users\SOLDER~1\AppData\Local\Temp\ccUIzJuS.s:30360  .debug_str:000000000002d5e5 .LASF1240
C:\Users\SOLDER~1\AppData\Local\Temp\ccUIzJuS.s:27860  .debug_str:0000000000023142 .LASF1241
C:\Users\SOLDER~1\AppData\Local\Temp\ccUIzJuS.s:26546  .debug_str:000000000001dc40 .LASF1242
C:\Users\SOLDER~1\AppData\Local\Temp\ccUIzJuS.s:26776  .debug_str:000000000001eb6a .LASF1243
C:\Users\SOLDER~1\AppData\Local\Temp\ccUIzJuS.s:19970  .debug_str:0000000000002f9b .LASF1244
C:\Users\SOLDER~1\AppData\Local\Temp\ccUIzJuS.s:22684  .debug_str:000000000000e12a .LASF1245
C:\Users\SOLDER~1\AppData\Local\Temp\ccUIzJuS.s:29234  .debug_str:0000000000028cd5 .LASF1246
C:\Users\SOLDER~1\AppData\Local\Temp\ccUIzJuS.s:28770  .debug_str:0000000000026e06 .LASF1247
C:\Users\SOLDER~1\AppData\Local\Temp\ccUIzJuS.s:28546  .debug_str:0000000000025eb7 .LASF1248
C:\Users\SOLDER~1\AppData\Local\Temp\ccUIzJuS.s:28584  .debug_str:000000000002615e .LASF1249
C:\Users\SOLDER~1\AppData\Local\Temp\ccUIzJuS.s:22272  .debug_str:000000000000c595 .LASF1250
C:\Users\SOLDER~1\AppData\Local\Temp\ccUIzJuS.s:30382  .debug_str:000000000002d71d .LASF1251
C:\Users\SOLDER~1\AppData\Local\Temp\ccUIzJuS.s:26998  .debug_str:000000000001fa2b .LASF1252
C:\Users\SOLDER~1\AppData\Local\Temp\ccUIzJuS.s:23820  .debug_str:0000000000012a41 .LASF1253
C:\Users\SOLDER~1\AppData\Local\Temp\ccUIzJuS.s:25852  .debug_str:000000000001af3b .LASF1254
C:\Users\SOLDER~1\AppData\Local\Temp\ccUIzJuS.s:28578  .debug_str:00000000000260f3 .LASF1255
C:\Users\SOLDER~1\AppData\Local\Temp\ccUIzJuS.s:26162  .debug_str:000000000001c2f8 .LASF1256
C:\Users\SOLDER~1\AppData\Local\Temp\ccUIzJuS.s:24850  .debug_str:0000000000016df2 .LASF1257
C:\Users\SOLDER~1\AppData\Local\Temp\ccUIzJuS.s:25162  .debug_str:00000000000182bf .LASF1258
C:\Users\SOLDER~1\AppData\Local\Temp\ccUIzJuS.s:29790  .debug_str:000000000002b09e .LASF1259
C:\Users\SOLDER~1\AppData\Local\Temp\ccUIzJuS.s:22074  .debug_str:000000000000b826 .LASF1260
C:\Users\SOLDER~1\AppData\Local\Temp\ccUIzJuS.s:28594  .debug_str:000000000002620f .LASF1261
C:\Users\SOLDER~1\AppData\Local\Temp\ccUIzJuS.s:29742  .debug_str:000000000002ada6 .LASF1262
C:\Users\SOLDER~1\AppData\Local\Temp\ccUIzJuS.s:27834  .debug_str:0000000000022f89 .LASF1263
C:\Users\SOLDER~1\AppData\Local\Temp\ccUIzJuS.s:25652  .debug_str:000000000001a1d2 .LASF1264
C:\Users\SOLDER~1\AppData\Local\Temp\ccUIzJuS.s:27798  .debug_str:0000000000022d5c .LASF1265
C:\Users\SOLDER~1\AppData\Local\Temp\ccUIzJuS.s:24382  .debug_str:0000000000015067 .LASF1266
C:\Users\SOLDER~1\AppData\Local\Temp\ccUIzJuS.s:21012  .debug_str:000000000000732b .LASF1267
C:\Users\SOLDER~1\AppData\Local\Temp\ccUIzJuS.s:29376  .debug_str:00000000000295ed .LASF1268
C:\Users\SOLDER~1\AppData\Local\Temp\ccUIzJuS.s:19840  .debug_str:000000000000272f .LASF1269
GAS LISTING C:\Users\SOLDER~1\AppData\Local\Temp\ccUIzJuS.s 			page 51


C:\Users\SOLDER~1\AppData\Local\Temp\ccUIzJuS.s:22596  .debug_str:000000000000dade .LASF1270
C:\Users\SOLDER~1\AppData\Local\Temp\ccUIzJuS.s:20156  .debug_str:0000000000003b8b .LASF1271
C:\Users\SOLDER~1\AppData\Local\Temp\ccUIzJuS.s:28144  .debug_str:00000000000243ef .LASF1272
C:\Users\SOLDER~1\AppData\Local\Temp\ccUIzJuS.s:30702  .debug_str:000000000002eb94 .LASF1273
C:\Users\SOLDER~1\AppData\Local\Temp\ccUIzJuS.s:23882  .debug_str:0000000000012e9a .LASF1274
C:\Users\SOLDER~1\AppData\Local\Temp\ccUIzJuS.s:25724  .debug_str:000000000001a65d .LASF1275
C:\Users\SOLDER~1\AppData\Local\Temp\ccUIzJuS.s:20780  .debug_str:00000000000063ab .LASF1276
C:\Users\SOLDER~1\AppData\Local\Temp\ccUIzJuS.s:21892  .debug_str:000000000000ac75 .LASF1277
C:\Users\SOLDER~1\AppData\Local\Temp\ccUIzJuS.s:20110  .debug_str:0000000000003886 .LASF1278
C:\Users\SOLDER~1\AppData\Local\Temp\ccUIzJuS.s:19642  .debug_str:0000000000001a7b .LASF1279
C:\Users\SOLDER~1\AppData\Local\Temp\ccUIzJuS.s:21040  .debug_str:00000000000074db .LASF1280
C:\Users\SOLDER~1\AppData\Local\Temp\ccUIzJuS.s:20232  .debug_str:0000000000004079 .LASF1281
C:\Users\SOLDER~1\AppData\Local\Temp\ccUIzJuS.s:23562  .debug_str:00000000000119f7 .LASF1282
C:\Users\SOLDER~1\AppData\Local\Temp\ccUIzJuS.s:29638  .debug_str:000000000002a719 .LASF1283
C:\Users\SOLDER~1\AppData\Local\Temp\ccUIzJuS.s:24796  .debug_str:0000000000016acc .LASF1284
C:\Users\SOLDER~1\AppData\Local\Temp\ccUIzJuS.s:22630  .debug_str:000000000000dd4b .LASF1285
C:\Users\SOLDER~1\AppData\Local\Temp\ccUIzJuS.s:19280  .debug_str:0000000000000239 .LASF1286
C:\Users\SOLDER~1\AppData\Local\Temp\ccUIzJuS.s:24044  .debug_str:000000000001394b .LASF1287
C:\Users\SOLDER~1\AppData\Local\Temp\ccUIzJuS.s:24120  .debug_str:0000000000013ef5 .LASF1288
C:\Users\SOLDER~1\AppData\Local\Temp\ccUIzJuS.s:30018  .debug_str:000000000002bf9c .LASF1289
C:\Users\SOLDER~1\AppData\Local\Temp\ccUIzJuS.s:22942  .debug_str:000000000000f1a2 .LASF1290
C:\Users\SOLDER~1\AppData\Local\Temp\ccUIzJuS.s:21998  .debug_str:000000000000b332 .LASF1291
C:\Users\SOLDER~1\AppData\Local\Temp\ccUIzJuS.s:29632  .debug_str:000000000002a6b6 .LASF1292
C:\Users\SOLDER~1\AppData\Local\Temp\ccUIzJuS.s:27534  .debug_str:0000000000021c82 .LASF1293
C:\Users\SOLDER~1\AppData\Local\Temp\ccUIzJuS.s:29058  .debug_str:0000000000028132 .LASF1294
C:\Users\SOLDER~1\AppData\Local\Temp\ccUIzJuS.s:24432  .debug_str:0000000000015392 .LASF1295
C:\Users\SOLDER~1\AppData\Local\Temp\ccUIzJuS.s:22338  .debug_str:000000000000ca28 .LASF1296
C:\Users\SOLDER~1\AppData\Local\Temp\ccUIzJuS.s:30500  .debug_str:000000000002deae .LASF1297
C:\Users\SOLDER~1\AppData\Local\Temp\ccUIzJuS.s:21212  .debug_str:0000000000007fcc .LASF1298
C:\Users\SOLDER~1\AppData\Local\Temp\ccUIzJuS.s:22604  .debug_str:000000000000db64 .LASF1299
C:\Users\SOLDER~1\AppData\Local\Temp\ccUIzJuS.s:29896  .debug_str:000000000002b7b8 .LASF1300
C:\Users\SOLDER~1\AppData\Local\Temp\ccUIzJuS.s:24368  .debug_str:0000000000014f8f .LASF1301
C:\Users\SOLDER~1\AppData\Local\Temp\ccUIzJuS.s:22440  .debug_str:000000000000d0d9 .LASF1302
C:\Users\SOLDER~1\AppData\Local\Temp\ccUIzJuS.s:27844  .debug_str:0000000000023032 .LASF1303
C:\Users\SOLDER~1\AppData\Local\Temp\ccUIzJuS.s:25472  .debug_str:00000000000196f7 .LASF1304
C:\Users\SOLDER~1\AppData\Local\Temp\ccUIzJuS.s:26200  .debug_str:000000000001c597 .LASF1305
C:\Users\SOLDER~1\AppData\Local\Temp\ccUIzJuS.s:21682  .debug_str:0000000000009e87 .LASF1306
C:\Users\SOLDER~1\AppData\Local\Temp\ccUIzJuS.s:30064  .debug_str:000000000002c2c2 .LASF1307
C:\Users\SOLDER~1\AppData\Local\Temp\ccUIzJuS.s:29134  .debug_str:000000000002864b .LASF1308
C:\Users\SOLDER~1\AppData\Local\Temp\ccUIzJuS.s:24106  .debug_str:0000000000013df2 .LASF1309
C:\Users\SOLDER~1\AppData\Local\Temp\ccUIzJuS.s:25756  .debug_str:000000000001a8b2 .LASF1310
C:\Users\SOLDER~1\AppData\Local\Temp\ccUIzJuS.s:23922  .debug_str:000000000001311b .LASF1311
C:\Users\SOLDER~1\AppData\Local\Temp\ccUIzJuS.s:29960  .debug_str:000000000002bbfb .LASF1312
C:\Users\SOLDER~1\AppData\Local\Temp\ccUIzJuS.s:24540  .debug_str:0000000000015a9d .LASF1313
C:\Users\SOLDER~1\AppData\Local\Temp\ccUIzJuS.s:24798  .debug_str:0000000000016af0 .LASF1314
C:\Users\SOLDER~1\AppData\Local\Temp\ccUIzJuS.s:30724  .debug_str:000000000002ecf7 .LASF1315
C:\Users\SOLDER~1\AppData\Local\Temp\ccUIzJuS.s:19880  .debug_str:00000000000029d9 .LASF1316
C:\Users\SOLDER~1\AppData\Local\Temp\ccUIzJuS.s:26928  .debug_str:000000000001f58b .LASF1317
C:\Users\SOLDER~1\AppData\Local\Temp\ccUIzJuS.s:23528  .debug_str:00000000000117a6 .LASF1318
C:\Users\SOLDER~1\AppData\Local\Temp\ccUIzJuS.s:21772  .debug_str:000000000000a490 .LASF1319
C:\Users\SOLDER~1\AppData\Local\Temp\ccUIzJuS.s:24478  .debug_str:0000000000015694 .LASF1320
C:\Users\SOLDER~1\AppData\Local\Temp\ccUIzJuS.s:26258  .debug_str:000000000001c972 .LASF1321
C:\Users\SOLDER~1\AppData\Local\Temp\ccUIzJuS.s:30786  .debug_str:000000000002f0b6 .LASF1322
C:\Users\SOLDER~1\AppData\Local\Temp\ccUIzJuS.s:29728  .debug_str:000000000002acb4 .LASF1323
C:\Users\SOLDER~1\AppData\Local\Temp\ccUIzJuS.s:25904  .debug_str:000000000001b245 .LASF1324
C:\Users\SOLDER~1\AppData\Local\Temp\ccUIzJuS.s:23836  .debug_str:0000000000012b71 .LASF1325
C:\Users\SOLDER~1\AppData\Local\Temp\ccUIzJuS.s:25368  .debug_str:000000000001900d .LASF1326
GAS LISTING C:\Users\SOLDER~1\AppData\Local\Temp\ccUIzJuS.s 			page 52


C:\Users\SOLDER~1\AppData\Local\Temp\ccUIzJuS.s:20682  .debug_str:0000000000005d0d .LASF1327
C:\Users\SOLDER~1\AppData\Local\Temp\ccUIzJuS.s:30178  .debug_str:000000000002c9f5 .LASF1328
C:\Users\SOLDER~1\AppData\Local\Temp\ccUIzJuS.s:20168  .debug_str:0000000000003c49 .LASF1329
C:\Users\SOLDER~1\AppData\Local\Temp\ccUIzJuS.s:28996  .debug_str:0000000000027cef .LASF1330
C:\Users\SOLDER~1\AppData\Local\Temp\ccUIzJuS.s:19440  .debug_str:0000000000000dc1 .LASF1331
C:\Users\SOLDER~1\AppData\Local\Temp\ccUIzJuS.s:29822  .debug_str:000000000002b2f7 .LASF1332
C:\Users\SOLDER~1\AppData\Local\Temp\ccUIzJuS.s:28306  .debug_str:0000000000024eea .LASF1333
C:\Users\SOLDER~1\AppData\Local\Temp\ccUIzJuS.s:30282  .debug_str:000000000002d076 .LASF1334
C:\Users\SOLDER~1\AppData\Local\Temp\ccUIzJuS.s:24156  .debug_str:0000000000014141 .LASF1335
C:\Users\SOLDER~1\AppData\Local\Temp\ccUIzJuS.s:21706  .debug_str:000000000000a01a .LASF1336
C:\Users\SOLDER~1\AppData\Local\Temp\ccUIzJuS.s:22450  .debug_str:000000000000d18e .LASF1337
C:\Users\SOLDER~1\AppData\Local\Temp\ccUIzJuS.s:29512  .debug_str:0000000000029e9c .LASF1338
C:\Users\SOLDER~1\AppData\Local\Temp\ccUIzJuS.s:26304  .debug_str:000000000001ccb5 .LASF1339
C:\Users\SOLDER~1\AppData\Local\Temp\ccUIzJuS.s:25432  .debug_str:0000000000019411 .LASF1340
C:\Users\SOLDER~1\AppData\Local\Temp\ccUIzJuS.s:20334  .debug_str:0000000000004728 .LASF1341
C:\Users\SOLDER~1\AppData\Local\Temp\ccUIzJuS.s:21994  .debug_str:000000000000b2fa .LASF1342
C:\Users\SOLDER~1\AppData\Local\Temp\ccUIzJuS.s:28140  .debug_str:000000000002439d .LASF1343
C:\Users\SOLDER~1\AppData\Local\Temp\ccUIzJuS.s:22566  .debug_str:000000000000d925 .LASF1344
C:\Users\SOLDER~1\AppData\Local\Temp\ccUIzJuS.s:28682  .debug_str:0000000000026816 .LASF1345
C:\Users\SOLDER~1\AppData\Local\Temp\ccUIzJuS.s:23480  .debug_str:00000000000114a6 .LASF1346
C:\Users\SOLDER~1\AppData\Local\Temp\ccUIzJuS.s:27356  .debug_str:000000000002113f .LASF1347
C:\Users\SOLDER~1\AppData\Local\Temp\ccUIzJuS.s:24172  .debug_str:000000000001427b .LASF1348
C:\Users\SOLDER~1\AppData\Local\Temp\ccUIzJuS.s:19658  .debug_str:0000000000001b83 .LASF1349
C:\Users\SOLDER~1\AppData\Local\Temp\ccUIzJuS.s:27768  .debug_str:0000000000022b58 .LASF1350
C:\Users\SOLDER~1\AppData\Local\Temp\ccUIzJuS.s:25980  .debug_str:000000000001b72a .LASF1351
C:\Users\SOLDER~1\AppData\Local\Temp\ccUIzJuS.s:21848  .debug_str:000000000000a9b3 .LASF1352
C:\Users\SOLDER~1\AppData\Local\Temp\ccUIzJuS.s:22510  .debug_str:000000000000d58f .LASF1353
C:\Users\SOLDER~1\AppData\Local\Temp\ccUIzJuS.s:26932  .debug_str:000000000001f5d6 .LASF1354
C:\Users\SOLDER~1\AppData\Local\Temp\ccUIzJuS.s:26002  .debug_str:000000000001b87a .LASF1355
C:\Users\SOLDER~1\AppData\Local\Temp\ccUIzJuS.s:22146  .debug_str:000000000000bd03 .LASF1356
C:\Users\SOLDER~1\AppData\Local\Temp\ccUIzJuS.s:20092  .debug_str:000000000000375b .LASF1357
C:\Users\SOLDER~1\AppData\Local\Temp\ccUIzJuS.s:21342  .debug_str:000000000000882b .LASF1358
C:\Users\SOLDER~1\AppData\Local\Temp\ccUIzJuS.s:28370  .debug_str:00000000000252ef .LASF1359
C:\Users\SOLDER~1\AppData\Local\Temp\ccUIzJuS.s:26410  .debug_str:000000000001d3d2 .LASF1360
C:\Users\SOLDER~1\AppData\Local\Temp\ccUIzJuS.s:27942  .debug_str:00000000000236da .LASF1361
C:\Users\SOLDER~1\AppData\Local\Temp\ccUIzJuS.s:25306  .debug_str:0000000000018be8 .LASF1362
C:\Users\SOLDER~1\AppData\Local\Temp\ccUIzJuS.s:27202  .debug_str:0000000000020755 .LASF1363
C:\Users\SOLDER~1\AppData\Local\Temp\ccUIzJuS.s:20624  .debug_str:0000000000005968 .LASF1364
C:\Users\SOLDER~1\AppData\Local\Temp\ccUIzJuS.s:24532  .debug_str:0000000000015a1f .LASF1365
C:\Users\SOLDER~1\AppData\Local\Temp\ccUIzJuS.s:26512  .debug_str:000000000001d9f4 .LASF1366
C:\Users\SOLDER~1\AppData\Local\Temp\ccUIzJuS.s:24744  .debug_str:000000000001676e .LASF1367
C:\Users\SOLDER~1\AppData\Local\Temp\ccUIzJuS.s:29534  .debug_str:000000000002a034 .LASF1368
C:\Users\SOLDER~1\AppData\Local\Temp\ccUIzJuS.s:30292  .debug_str:000000000002d12b .LASF1369
C:\Users\SOLDER~1\AppData\Local\Temp\ccUIzJuS.s:30306  .debug_str:000000000002d235 .LASF1370
C:\Users\SOLDER~1\AppData\Local\Temp\ccUIzJuS.s:22556  .debug_str:000000000000d880 .LASF1371
C:\Users\SOLDER~1\AppData\Local\Temp\ccUIzJuS.s:21660  .debug_str:0000000000009cf4 .LASF1372
C:\Users\SOLDER~1\AppData\Local\Temp\ccUIzJuS.s:28118  .debug_str:000000000002423f .LASF1373
C:\Users\SOLDER~1\AppData\Local\Temp\ccUIzJuS.s:29824  .debug_str:000000000002b31c .LASF1374
C:\Users\SOLDER~1\AppData\Local\Temp\ccUIzJuS.s:20826  .debug_str:00000000000066b7 .LASF1375
C:\Users\SOLDER~1\AppData\Local\Temp\ccUIzJuS.s:23886  .debug_str:0000000000012ece .LASF1376
C:\Users\SOLDER~1\AppData\Local\Temp\ccUIzJuS.s:21442  .debug_str:0000000000008ec4 .LASF1377
C:\Users\SOLDER~1\AppData\Local\Temp\ccUIzJuS.s:26400  .debug_str:000000000001d32b .LASF1378
C:\Users\SOLDER~1\AppData\Local\Temp\ccUIzJuS.s:27676  .debug_str:0000000000022509 .LASF1379
C:\Users\SOLDER~1\AppData\Local\Temp\ccUIzJuS.s:28484  .debug_str:0000000000025a75 .LASF1380
C:\Users\SOLDER~1\AppData\Local\Temp\ccUIzJuS.s:23840  .debug_str:0000000000012bad .LASF1381
C:\Users\SOLDER~1\AppData\Local\Temp\ccUIzJuS.s:20436  .debug_str:0000000000004da1 .LASF1382
C:\Users\SOLDER~1\AppData\Local\Temp\ccUIzJuS.s:30266  .debug_str:000000000002cf67 .LASF1383
GAS LISTING C:\Users\SOLDER~1\AppData\Local\Temp\ccUIzJuS.s 			page 53


C:\Users\SOLDER~1\AppData\Local\Temp\ccUIzJuS.s:21390  .debug_str:0000000000008b39 .LASF1384
C:\Users\SOLDER~1\AppData\Local\Temp\ccUIzJuS.s:30352  .debug_str:000000000002d554 .LASF1385
C:\Users\SOLDER~1\AppData\Local\Temp\ccUIzJuS.s:23202  .debug_str:00000000000102bb .LASF1386
C:\Users\SOLDER~1\AppData\Local\Temp\ccUIzJuS.s:29734  .debug_str:000000000002ad10 .LASF1387
C:\Users\SOLDER~1\AppData\Local\Temp\ccUIzJuS.s:29974  .debug_str:000000000002bcc8 .LASF1388
C:\Users\SOLDER~1\AppData\Local\Temp\ccUIzJuS.s:27868  .debug_str:00000000000231d5 .LASF1389
C:\Users\SOLDER~1\AppData\Local\Temp\ccUIzJuS.s:29410  .debug_str:0000000000029843 .LASF1390
C:\Users\SOLDER~1\AppData\Local\Temp\ccUIzJuS.s:24684  .debug_str:00000000000163e8 .LASF1391
C:\Users\SOLDER~1\AppData\Local\Temp\ccUIzJuS.s:25010  .debug_str:00000000000178a5 .LASF1392
C:\Users\SOLDER~1\AppData\Local\Temp\ccUIzJuS.s:24270  .debug_str:0000000000014910 .LASF1393
C:\Users\SOLDER~1\AppData\Local\Temp\ccUIzJuS.s:23300  .debug_str:000000000001092b .LASF1394
C:\Users\SOLDER~1\AppData\Local\Temp\ccUIzJuS.s:23492  .debug_str:000000000001158d .LASF1395
C:\Users\SOLDER~1\AppData\Local\Temp\ccUIzJuS.s:28410  .debug_str:000000000002556a .LASF1396
C:\Users\SOLDER~1\AppData\Local\Temp\ccUIzJuS.s:20774  .debug_str:0000000000006335 .LASF1397
C:\Users\SOLDER~1\AppData\Local\Temp\ccUIzJuS.s:22774  .debug_str:000000000000e6f5 .LASF1398
C:\Users\SOLDER~1\AppData\Local\Temp\ccUIzJuS.s:28164  .debug_str:000000000002453e .LASF1399
C:\Users\SOLDER~1\AppData\Local\Temp\ccUIzJuS.s:25798  .debug_str:000000000001ab6b .LASF1400
C:\Users\SOLDER~1\AppData\Local\Temp\ccUIzJuS.s:26430  .debug_str:000000000001d532 .LASF1401
C:\Users\SOLDER~1\AppData\Local\Temp\ccUIzJuS.s:22016  .debug_str:000000000000b49b .LASF1402
C:\Users\SOLDER~1\AppData\Local\Temp\ccUIzJuS.s:28288  .debug_str:0000000000024d7d .LASF1403
C:\Users\SOLDER~1\AppData\Local\Temp\ccUIzJuS.s:29488  .debug_str:0000000000029cf1 .LASF1404
C:\Users\SOLDER~1\AppData\Local\Temp\ccUIzJuS.s:24428  .debug_str:000000000001534e .LASF1405
C:\Users\SOLDER~1\AppData\Local\Temp\ccUIzJuS.s:26080  .debug_str:000000000001bd59 .LASF1406
C:\Users\SOLDER~1\AppData\Local\Temp\ccUIzJuS.s:25144  .debug_str:0000000000018194 .LASF1407
C:\Users\SOLDER~1\AppData\Local\Temp\ccUIzJuS.s:26818  .debug_str:000000000001ee11 .LASF1408
C:\Users\SOLDER~1\AppData\Local\Temp\ccUIzJuS.s:25726  .debug_str:000000000001a67f .LASF1409
C:\Users\SOLDER~1\AppData\Local\Temp\ccUIzJuS.s:20468  .debug_str:0000000000004f7c .LASF1410
C:\Users\SOLDER~1\AppData\Local\Temp\ccUIzJuS.s:20336  .debug_str:000000000000474d .LASF1411
C:\Users\SOLDER~1\AppData\Local\Temp\ccUIzJuS.s:21078  .debug_str:0000000000007721 .LASF1412
C:\Users\SOLDER~1\AppData\Local\Temp\ccUIzJuS.s:28072  .debug_str:0000000000023f22 .LASF1413
C:\Users\SOLDER~1\AppData\Local\Temp\ccUIzJuS.s:24752  .debug_str:00000000000167dd .LASF1414
C:\Users\SOLDER~1\AppData\Local\Temp\ccUIzJuS.s:22966  .debug_str:000000000000f32e .LASF1415
C:\Users\SOLDER~1\AppData\Local\Temp\ccUIzJuS.s:25688  .debug_str:000000000001a3f2 .LASF1416
C:\Users\SOLDER~1\AppData\Local\Temp\ccUIzJuS.s:26488  .debug_str:000000000001d8b1 .LASF1417
C:\Users\SOLDER~1\AppData\Local\Temp\ccUIzJuS.s:19480  .debug_str:000000000000103b .LASF1418
C:\Users\SOLDER~1\AppData\Local\Temp\ccUIzJuS.s:30068  .debug_str:000000000002c309 .LASF1419
C:\Users\SOLDER~1\AppData\Local\Temp\ccUIzJuS.s:26218  .debug_str:000000000001c6ad .LASF1420
C:\Users\SOLDER~1\AppData\Local\Temp\ccUIzJuS.s:19428  .debug_str:0000000000000cd9 .LASF1421
C:\Users\SOLDER~1\AppData\Local\Temp\ccUIzJuS.s:25692  .debug_str:000000000001a43f .LASF1422
C:\Users\SOLDER~1\AppData\Local\Temp\ccUIzJuS.s:20922  .debug_str:0000000000006d00 .LASF1423
C:\Users\SOLDER~1\AppData\Local\Temp\ccUIzJuS.s:30518  .debug_str:000000000002dfcb .LASF1424
C:\Users\SOLDER~1\AppData\Local\Temp\ccUIzJuS.s:20498  .debug_str:0000000000005148 .LASF1425
C:\Users\SOLDER~1\AppData\Local\Temp\ccUIzJuS.s:29340  .debug_str:0000000000029387 .LASF1426
C:\Users\SOLDER~1\AppData\Local\Temp\ccUIzJuS.s:19744  .debug_str:00000000000020f2 .LASF1427
C:\Users\SOLDER~1\AppData\Local\Temp\ccUIzJuS.s:24634  .debug_str:00000000000160bd .LASF1428
C:\Users\SOLDER~1\AppData\Local\Temp\ccUIzJuS.s:28552  .debug_str:0000000000025f14 .LASF1429
C:\Users\SOLDER~1\AppData\Local\Temp\ccUIzJuS.s:30624  .debug_str:000000000002e665 .LASF1430
C:\Users\SOLDER~1\AppData\Local\Temp\ccUIzJuS.s:20026  .debug_str:0000000000003325 .LASF1431
C:\Users\SOLDER~1\AppData\Local\Temp\ccUIzJuS.s:22032  .debug_str:000000000000b591 .LASF1432
C:\Users\SOLDER~1\AppData\Local\Temp\ccUIzJuS.s:22694  .debug_str:000000000000e1d9 .LASF1433
C:\Users\SOLDER~1\AppData\Local\Temp\ccUIzJuS.s:29842  .debug_str:000000000002b461 .LASF1434
C:\Users\SOLDER~1\AppData\Local\Temp\ccUIzJuS.s:26636  .debug_str:000000000001e235 .LASF1435
C:\Users\SOLDER~1\AppData\Local\Temp\ccUIzJuS.s:21334  .debug_str:00000000000087a0 .LASF1436
C:\Users\SOLDER~1\AppData\Local\Temp\ccUIzJuS.s:20400  .debug_str:0000000000004b61 .LASF1437
C:\Users\SOLDER~1\AppData\Local\Temp\ccUIzJuS.s:22316  .debug_str:000000000000c880 .LASF1438
C:\Users\SOLDER~1\AppData\Local\Temp\ccUIzJuS.s:29384  .debug_str:000000000002967e .LASF1439
C:\Users\SOLDER~1\AppData\Local\Temp\ccUIzJuS.s:23866  .debug_str:0000000000012d7e .LASF1440
GAS LISTING C:\Users\SOLDER~1\AppData\Local\Temp\ccUIzJuS.s 			page 54


C:\Users\SOLDER~1\AppData\Local\Temp\ccUIzJuS.s:30002  .debug_str:000000000002bea4 .LASF1441
C:\Users\SOLDER~1\AppData\Local\Temp\ccUIzJuS.s:24686  .debug_str:000000000001640d .LASF1442
C:\Users\SOLDER~1\AppData\Local\Temp\ccUIzJuS.s:24644  .debug_str:0000000000016152 .LASF1443
C:\Users\SOLDER~1\AppData\Local\Temp\ccUIzJuS.s:27176  .debug_str:0000000000020598 .LASF1444
C:\Users\SOLDER~1\AppData\Local\Temp\ccUIzJuS.s:20844  .debug_str:000000000000680d .LASF1445
C:\Users\SOLDER~1\AppData\Local\Temp\ccUIzJuS.s:22768  .debug_str:000000000000e68f .LASF1446
C:\Users\SOLDER~1\AppData\Local\Temp\ccUIzJuS.s:27224  .debug_str:00000000000208cd .LASF1447
C:\Users\SOLDER~1\AppData\Local\Temp\ccUIzJuS.s:29954  .debug_str:000000000002bb91 .LASF1448
C:\Users\SOLDER~1\AppData\Local\Temp\ccUIzJuS.s:21346  .debug_str:0000000000008869 .LASF1449
C:\Users\SOLDER~1\AppData\Local\Temp\ccUIzJuS.s:27234  .debug_str:000000000002096f .LASF1450
C:\Users\SOLDER~1\AppData\Local\Temp\ccUIzJuS.s:24170  .debug_str:0000000000014256 .LASF1451
C:\Users\SOLDER~1\AppData\Local\Temp\ccUIzJuS.s:22466  .debug_str:000000000000d299 .LASF1452
C:\Users\SOLDER~1\AppData\Local\Temp\ccUIzJuS.s:20416  .debug_str:0000000000004c6e .LASF1453
C:\Users\SOLDER~1\AppData\Local\Temp\ccUIzJuS.s:21922  .debug_str:000000000000ae84 .LASF1454
C:\Users\SOLDER~1\AppData\Local\Temp\ccUIzJuS.s:28712  .debug_str:0000000000026a26 .LASF1455
C:\Users\SOLDER~1\AppData\Local\Temp\ccUIzJuS.s:26750  .debug_str:000000000001e997 .LASF1456
C:\Users\SOLDER~1\AppData\Local\Temp\ccUIzJuS.s:28278  .debug_str:0000000000024cdb .LASF1457
C:\Users\SOLDER~1\AppData\Local\Temp\ccUIzJuS.s:25536  .debug_str:0000000000019a93 .LASF1458
C:\Users\SOLDER~1\AppData\Local\Temp\ccUIzJuS.s:27518  .debug_str:0000000000021ba0 .LASF1459
C:\Users\SOLDER~1\AppData\Local\Temp\ccUIzJuS.s:20806  .debug_str:000000000000655a .LASF1460
C:\Users\SOLDER~1\AppData\Local\Temp\ccUIzJuS.s:24876  .debug_str:0000000000016fb1 .LASF1461
C:\Users\SOLDER~1\AppData\Local\Temp\ccUIzJuS.s:24808  .debug_str:0000000000016ba1 .LASF1462
C:\Users\SOLDER~1\AppData\Local\Temp\ccUIzJuS.s:20736  .debug_str:0000000000006093 .LASF1463
C:\Users\SOLDER~1\AppData\Local\Temp\ccUIzJuS.s:29866  .debug_str:000000000002b5d4 .LASF1464
C:\Users\SOLDER~1\AppData\Local\Temp\ccUIzJuS.s:30544  .debug_str:000000000002e17a .LASF1465
C:\Users\SOLDER~1\AppData\Local\Temp\ccUIzJuS.s:26096  .debug_str:000000000001be8c .LASF1466
C:\Users\SOLDER~1\AppData\Local\Temp\ccUIzJuS.s:20882  .debug_str:0000000000006a8c .LASF1467
C:\Users\SOLDER~1\AppData\Local\Temp\ccUIzJuS.s:21908  .debug_str:000000000000ad81 .LASF1468
C:\Users\SOLDER~1\AppData\Local\Temp\ccUIzJuS.s:26472  .debug_str:000000000001d7c3 .LASF1469
C:\Users\SOLDER~1\AppData\Local\Temp\ccUIzJuS.s:25086  .debug_str:0000000000017d7c .LASF1470
C:\Users\SOLDER~1\AppData\Local\Temp\ccUIzJuS.s:22104  .debug_str:000000000000ba33 .LASF1471
C:\Users\SOLDER~1\AppData\Local\Temp\ccUIzJuS.s:28002  .debug_str:0000000000023a7d .LASF1472
C:\Users\SOLDER~1\AppData\Local\Temp\ccUIzJuS.s:22606  .debug_str:000000000000db89 .LASF1473
C:\Users\SOLDER~1\AppData\Local\Temp\ccUIzJuS.s:28922  .debug_str:000000000002784d .LASF1474
C:\Users\SOLDER~1\AppData\Local\Temp\ccUIzJuS.s:28884  .debug_str:00000000000275a5 .LASF1475
C:\Users\SOLDER~1\AppData\Local\Temp\ccUIzJuS.s:29620  .debug_str:000000000002a5f5 .LASF1476
C:\Users\SOLDER~1\AppData\Local\Temp\ccUIzJuS.s:25154  .debug_str:000000000001823c .LASF1477
C:\Users\SOLDER~1\AppData\Local\Temp\ccUIzJuS.s:21714  .debug_str:000000000000a0a5 .LASF1478
C:\Users\SOLDER~1\AppData\Local\Temp\ccUIzJuS.s:19890  .debug_str:0000000000002a6f .LASF1479
C:\Users\SOLDER~1\AppData\Local\Temp\ccUIzJuS.s:22558  .debug_str:000000000000d8a5 .LASF1480
C:\Users\SOLDER~1\AppData\Local\Temp\ccUIzJuS.s:30602  .debug_str:000000000002e506 .LASF1481
C:\Users\SOLDER~1\AppData\Local\Temp\ccUIzJuS.s:23520  .debug_str:000000000001172b .LASF1482
C:\Users\SOLDER~1\AppData\Local\Temp\ccUIzJuS.s:22562  .debug_str:000000000000d8ec .LASF1483
C:\Users\SOLDER~1\AppData\Local\Temp\ccUIzJuS.s:30302  .debug_str:000000000002d1e7 .LASF1484
C:\Users\SOLDER~1\AppData\Local\Temp\ccUIzJuS.s:28192  .debug_str:0000000000024720 .LASF1485
C:\Users\SOLDER~1\AppData\Local\Temp\ccUIzJuS.s:29656  .debug_str:000000000002a856 .LASF1486
C:\Users\SOLDER~1\AppData\Local\Temp\ccUIzJuS.s:25038  .debug_str:0000000000017a7d .LASF1487
C:\Users\SOLDER~1\AppData\Local\Temp\ccUIzJuS.s:22358  .debug_str:000000000000cb77 .LASF1488
C:\Users\SOLDER~1\AppData\Local\Temp\ccUIzJuS.s:24600  .debug_str:0000000000015e5a .LASF1489
C:\Users\SOLDER~1\AppData\Local\Temp\ccUIzJuS.s:21760  .debug_str:000000000000a3c8 .LASF1490
C:\Users\SOLDER~1\AppData\Local\Temp\ccUIzJuS.s:20748  .debug_str:0000000000006190 .LASF1491
C:\Users\SOLDER~1\AppData\Local\Temp\ccUIzJuS.s:28656  .debug_str:0000000000026683 .LASF1492
C:\Users\SOLDER~1\AppData\Local\Temp\ccUIzJuS.s:25768  .debug_str:000000000001a98b .LASF1493
C:\Users\SOLDER~1\AppData\Local\Temp\ccUIzJuS.s:23120  .debug_str:000000000000fdab .LASF1494
C:\Users\SOLDER~1\AppData\Local\Temp\ccUIzJuS.s:28506  .debug_str:0000000000025c02 .LASF1495
C:\Users\SOLDER~1\AppData\Local\Temp\ccUIzJuS.s:26116  .debug_str:000000000001bff1 .LASF1496
C:\Users\SOLDER~1\AppData\Local\Temp\ccUIzJuS.s:26780  .debug_str:000000000001eba5 .LASF1497
GAS LISTING C:\Users\SOLDER~1\AppData\Local\Temp\ccUIzJuS.s 			page 55


C:\Users\SOLDER~1\AppData\Local\Temp\ccUIzJuS.s:22340  .debug_str:000000000000ca4d .LASF1498
C:\Users\SOLDER~1\AppData\Local\Temp\ccUIzJuS.s:30648  .debug_str:000000000002e7e6 .LASF1499
C:\Users\SOLDER~1\AppData\Local\Temp\ccUIzJuS.s:29720  .debug_str:000000000002ac19 .LASF1500
C:\Users\SOLDER~1\AppData\Local\Temp\ccUIzJuS.s:24778  .debug_str:0000000000016991 .LASF1501
C:\Users\SOLDER~1\AppData\Local\Temp\ccUIzJuS.s:19882  .debug_str:00000000000029fd .LASF1502
C:\Users\SOLDER~1\AppData\Local\Temp\ccUIzJuS.s:26290  .debug_str:000000000001cbaf .LASF1503
C:\Users\SOLDER~1\AppData\Local\Temp\ccUIzJuS.s:20772  .debug_str:0000000000006311 .LASF1504
C:\Users\SOLDER~1\AppData\Local\Temp\ccUIzJuS.s:26910  .debug_str:000000000001f44c .LASF1505
C:\Users\SOLDER~1\AppData\Local\Temp\ccUIzJuS.s:21664  .debug_str:0000000000009d5c .LASF1506
C:\Users\SOLDER~1\AppData\Local\Temp\ccUIzJuS.s:21630  .debug_str:0000000000009b25 .LASF1507
C:\Users\SOLDER~1\AppData\Local\Temp\ccUIzJuS.s:22332  .debug_str:000000000000c9c1 .LASF1508
C:\Users\SOLDER~1\AppData\Local\Temp\ccUIzJuS.s:29294  .debug_str:0000000000029095 .LASF1509
C:\Users\SOLDER~1\AppData\Local\Temp\ccUIzJuS.s:26690  .debug_str:000000000001e56f .LASF1510
C:\Users\SOLDER~1\AppData\Local\Temp\ccUIzJuS.s:24178  .debug_str:00000000000142f3 .LASF1511
C:\Users\SOLDER~1\AppData\Local\Temp\ccUIzJuS.s:26856  .debug_str:000000000001f089 .LASF1512
C:\Users\SOLDER~1\AppData\Local\Temp\ccUIzJuS.s:26842  .debug_str:000000000001ef9e .LASF1513
C:\Users\SOLDER~1\AppData\Local\Temp\ccUIzJuS.s:19750  .debug_str:0000000000002167 .LASF1514
C:\Users\SOLDER~1\AppData\Local\Temp\ccUIzJuS.s:30404  .debug_str:000000000002d87c .LASF1515
C:\Users\SOLDER~1\AppData\Local\Temp\ccUIzJuS.s:26538  .debug_str:000000000001dbab .LASF1516
C:\Users\SOLDER~1\AppData\Local\Temp\ccUIzJuS.s:27426  .debug_str:00000000000215c6 .LASF1517
C:\Users\SOLDER~1\AppData\Local\Temp\ccUIzJuS.s:25920  .debug_str:000000000001b346 .LASF1518
C:\Users\SOLDER~1\AppData\Local\Temp\ccUIzJuS.s:21262  .debug_str:0000000000008317 .LASF1519
C:\Users\SOLDER~1\AppData\Local\Temp\ccUIzJuS.s:30756  .debug_str:000000000002eeda .LASF1520
C:\Users\SOLDER~1\AppData\Local\Temp\ccUIzJuS.s:28242  .debug_str:0000000000024a5b .LASF1521
C:\Users\SOLDER~1\AppData\Local\Temp\ccUIzJuS.s:29584  .debug_str:000000000002a38a .LASF1522
C:\Users\SOLDER~1\AppData\Local\Temp\ccUIzJuS.s:19990  .debug_str:00000000000030d0 .LASF1523
C:\Users\SOLDER~1\AppData\Local\Temp\ccUIzJuS.s:24986  .debug_str:00000000000176f3 .LASF1524
C:\Users\SOLDER~1\AppData\Local\Temp\ccUIzJuS.s:28904  .debug_str:00000000000276f5 .LASF1525
C:\Users\SOLDER~1\AppData\Local\Temp\ccUIzJuS.s:19316  .debug_str:00000000000004ae .LASF1526
C:\Users\SOLDER~1\AppData\Local\Temp\ccUIzJuS.s:24832  .debug_str:0000000000016ce7 .LASF1527
C:\Users\SOLDER~1\AppData\Local\Temp\ccUIzJuS.s:22276  .debug_str:000000000000c5d1 .LASF1528
C:\Users\SOLDER~1\AppData\Local\Temp\ccUIzJuS.s:23040  .debug_str:000000000000f7f4 .LASF1529
C:\Users\SOLDER~1\AppData\Local\Temp\ccUIzJuS.s:21236  .debug_str:000000000000818c .LASF1530
C:\Users\SOLDER~1\AppData\Local\Temp\ccUIzJuS.s:27788  .debug_str:0000000000022ca8 .LASF1531
C:\Users\SOLDER~1\AppData\Local\Temp\ccUIzJuS.s:25990  .debug_str:000000000001b7be .LASF1532
C:\Users\SOLDER~1\AppData\Local\Temp\ccUIzJuS.s:20802  .debug_str:0000000000006512 .LASF1533
C:\Users\SOLDER~1\AppData\Local\Temp\ccUIzJuS.s:22646  .debug_str:000000000000de5c .LASF1534
C:\Users\SOLDER~1\AppData\Local\Temp\ccUIzJuS.s:30594  .debug_str:000000000002e479 .LASF1535
C:\Users\SOLDER~1\AppData\Local\Temp\ccUIzJuS.s:25096  .debug_str:0000000000017e23 .LASF1536
C:\Users\SOLDER~1\AppData\Local\Temp\ccUIzJuS.s:19636  .debug_str:0000000000001a17 .LASF1537
C:\Users\SOLDER~1\AppData\Local\Temp\ccUIzJuS.s:25958  .debug_str:000000000001b5cb .LASF1538
C:\Users\SOLDER~1\AppData\Local\Temp\ccUIzJuS.s:25828  .debug_str:000000000001ad75 .LASF1539
C:\Users\SOLDER~1\AppData\Local\Temp\ccUIzJuS.s:26518  .debug_str:000000000001da66 .LASF1540
C:\Users\SOLDER~1\AppData\Local\Temp\ccUIzJuS.s:22024  .debug_str:000000000000b524 .LASF1541
C:\Users\SOLDER~1\AppData\Local\Temp\ccUIzJuS.s:30208  .debug_str:000000000002cbcb .LASF1542
C:\Users\SOLDER~1\AppData\Local\Temp\ccUIzJuS.s:28328  .debug_str:000000000002505d .LASF1543
C:\Users\SOLDER~1\AppData\Local\Temp\ccUIzJuS.s:19592  .debug_str:0000000000001777 .LASF1544
C:\Users\SOLDER~1\AppData\Local\Temp\ccUIzJuS.s:23100  .debug_str:000000000000fc4f .LASF1545
C:\Users\SOLDER~1\AppData\Local\Temp\ccUIzJuS.s:27554  .debug_str:0000000000021dac .LASF1546
C:\Users\SOLDER~1\AppData\Local\Temp\ccUIzJuS.s:26640  .debug_str:000000000001e280 .LASF1547
C:\Users\SOLDER~1\AppData\Local\Temp\ccUIzJuS.s:22800  .debug_str:000000000000e8dd .LASF1548
C:\Users\SOLDER~1\AppData\Local\Temp\ccUIzJuS.s:30460  .debug_str:000000000002dc08 .LASF1549
C:\Users\SOLDER~1\AppData\Local\Temp\ccUIzJuS.s:21164  .debug_str:0000000000007c7d .LASF1550
C:\Users\SOLDER~1\AppData\Local\Temp\ccUIzJuS.s:29050  .debug_str:00000000000280ac .LASF1551
C:\Users\SOLDER~1\AppData\Local\Temp\ccUIzJuS.s:26992  .debug_str:000000000001f9e4 .LASF1552
C:\Users\SOLDER~1\AppData\Local\Temp\ccUIzJuS.s:28618  .debug_str:00000000000263eb .LASF1553
C:\Users\SOLDER~1\AppData\Local\Temp\ccUIzJuS.s:25858  .debug_str:000000000001af96 .LASF1554
GAS LISTING C:\Users\SOLDER~1\AppData\Local\Temp\ccUIzJuS.s 			page 56


C:\Users\SOLDER~1\AppData\Local\Temp\ccUIzJuS.s:27758  .debug_str:0000000000022a90 .LASF1555
C:\Users\SOLDER~1\AppData\Local\Temp\ccUIzJuS.s:21216  .debug_str:0000000000008017 .LASF1556
C:\Users\SOLDER~1\AppData\Local\Temp\ccUIzJuS.s:25216  .debug_str:00000000000185fc .LASF1557
C:\Users\SOLDER~1\AppData\Local\Temp\ccUIzJuS.s:27094  .debug_str:0000000000020057 .LASF1558
C:\Users\SOLDER~1\AppData\Local\Temp\ccUIzJuS.s:21074  .debug_str:00000000000076e5 .LASF1559
C:\Users\SOLDER~1\AppData\Local\Temp\ccUIzJuS.s:30116  .debug_str:000000000002c5fd .LASF1560
C:\Users\SOLDER~1\AppData\Local\Temp\ccUIzJuS.s:19324  .debug_str:000000000000052e .LASF1561
C:\Users\SOLDER~1\AppData\Local\Temp\ccUIzJuS.s:26324  .debug_str:000000000001cdf1 .LASF1562
C:\Users\SOLDER~1\AppData\Local\Temp\ccUIzJuS.s:23152  .debug_str:000000000000ffc1 .LASF1563
C:\Users\SOLDER~1\AppData\Local\Temp\ccUIzJuS.s:22228  .debug_str:000000000000c254 .LASF1564
C:\Users\SOLDER~1\AppData\Local\Temp\ccUIzJuS.s:28796  .debug_str:0000000000026fbd .LASF1565
C:\Users\SOLDER~1\AppData\Local\Temp\ccUIzJuS.s:24994  .debug_str:0000000000017771 .LASF1566
C:\Users\SOLDER~1\AppData\Local\Temp\ccUIzJuS.s:23310  .debug_str:00000000000109e3 .LASF1567
C:\Users\SOLDER~1\AppData\Local\Temp\ccUIzJuS.s:29324  .debug_str:000000000002926a .LASF1568
C:\Users\SOLDER~1\AppData\Local\Temp\ccUIzJuS.s:23812  .debug_str:0000000000012994 .LASF1569
C:\Users\SOLDER~1\AppData\Local\Temp\ccUIzJuS.s:30146  .debug_str:000000000002c7e7 .LASF1570
C:\Users\SOLDER~1\AppData\Local\Temp\ccUIzJuS.s:30114  .debug_str:000000000002c5d9 .LASF1571
C:\Users\SOLDER~1\AppData\Local\Temp\ccUIzJuS.s:19286  .debug_str:00000000000002a1 .LASF1572
C:\Users\SOLDER~1\AppData\Local\Temp\ccUIzJuS.s:26302  .debug_str:000000000001cc91 .LASF1573
C:\Users\SOLDER~1\AppData\Local\Temp\ccUIzJuS.s:22908  .debug_str:000000000000ef9c .LASF1574
C:\Users\SOLDER~1\AppData\Local\Temp\ccUIzJuS.s:21176  .debug_str:0000000000007d73 .LASF1575
C:\Users\SOLDER~1\AppData\Local\Temp\ccUIzJuS.s:23762  .debug_str:00000000000126be .LASF1576
C:\Users\SOLDER~1\AppData\Local\Temp\ccUIzJuS.s:19382  .debug_str:00000000000009bb .LASF1577
C:\Users\SOLDER~1\AppData\Local\Temp\ccUIzJuS.s:23856  .debug_str:0000000000012ce0 .LASF1578
C:\Users\SOLDER~1\AppData\Local\Temp\ccUIzJuS.s:22898  .debug_str:000000000000eeef .LASF1579
C:\Users\SOLDER~1\AppData\Local\Temp\ccUIzJuS.s:30556  .debug_str:000000000002e22e .LASF1580
C:\Users\SOLDER~1\AppData\Local\Temp\ccUIzJuS.s:28452  .debug_str:0000000000025825 .LASF1581
C:\Users\SOLDER~1\AppData\Local\Temp\ccUIzJuS.s:29994  .debug_str:000000000002be11 .LASF1582
C:\Users\SOLDER~1\AppData\Local\Temp\ccUIzJuS.s:25358  .debug_str:0000000000018f5d .LASF1583
C:\Users\SOLDER~1\AppData\Local\Temp\ccUIzJuS.s:23268  .debug_str:00000000000106f2 .LASF1584
C:\Users\SOLDER~1\AppData\Local\Temp\ccUIzJuS.s:24848  .debug_str:0000000000016dcd .LASF1585
C:\Users\SOLDER~1\AppData\Local\Temp\ccUIzJuS.s:22102  .debug_str:000000000000ba0e .LASF1586
C:\Users\SOLDER~1\AppData\Local\Temp\ccUIzJuS.s:24086  .debug_str:0000000000013ca6 .LASF1587
C:\Users\SOLDER~1\AppData\Local\Temp\ccUIzJuS.s:29000  .debug_str:0000000000027d30 .LASF1588
C:\Users\SOLDER~1\AppData\Local\Temp\ccUIzJuS.s:21446  .debug_str:0000000000008f08 .LASF1589
C:\Users\SOLDER~1\AppData\Local\Temp\ccUIzJuS.s:23372  .debug_str:0000000000010db6 .LASF1590
C:\Users\SOLDER~1\AppData\Local\Temp\ccUIzJuS.s:28758  .debug_str:0000000000026d64 .LASF1591
C:\Users\SOLDER~1\AppData\Local\Temp\ccUIzJuS.s:26348  .debug_str:000000000001cf97 .LASF1592
C:\Users\SOLDER~1\AppData\Local\Temp\ccUIzJuS.s:29014  .debug_str:0000000000027e31 .LASF1593
C:\Users\SOLDER~1\AppData\Local\Temp\ccUIzJuS.s:22582  .debug_str:000000000000da0c .LASF1594
C:\Users\SOLDER~1\AppData\Local\Temp\ccUIzJuS.s:19432  .debug_str:0000000000000d23 .LASF1595
C:\Users\SOLDER~1\AppData\Local\Temp\ccUIzJuS.s:30060  .debug_str:000000000002c284 .LASF1596
C:\Users\SOLDER~1\AppData\Local\Temp\ccUIzJuS.s:25034  .debug_str:0000000000017a34 .LASF1597
C:\Users\SOLDER~1\AppData\Local\Temp\ccUIzJuS.s:27900  .debug_str:0000000000023409 .LASF1598
C:\Users\SOLDER~1\AppData\Local\Temp\ccUIzJuS.s:30192  .debug_str:000000000002cabb .LASF1599
C:\Users\SOLDER~1\AppData\Local\Temp\ccUIzJuS.s:24674  .debug_str:000000000001632e .LASF1600
C:\Users\SOLDER~1\AppData\Local\Temp\ccUIzJuS.s:19256  .debug_str:00000000000000e7 .LASF1601
C:\Users\SOLDER~1\AppData\Local\Temp\ccUIzJuS.s:25478  .debug_str:0000000000019769 .LASF1602
C:\Users\SOLDER~1\AppData\Local\Temp\ccUIzJuS.s:25444  .debug_str:00000000000194f7 .LASF1603
C:\Users\SOLDER~1\AppData\Local\Temp\ccUIzJuS.s:26138  .debug_str:000000000001c142 .LASF1604
C:\Users\SOLDER~1\AppData\Local\Temp\ccUIzJuS.s:21636  .debug_str:0000000000009b84 .LASF1605
C:\Users\SOLDER~1\AppData\Local\Temp\ccUIzJuS.s:29804  .debug_str:000000000002b18a .LASF1606
C:\Users\SOLDER~1\AppData\Local\Temp\ccUIzJuS.s:27998  .debug_str:0000000000023a40 .LASF1607
C:\Users\SOLDER~1\AppData\Local\Temp\ccUIzJuS.s:30664  .debug_str:000000000002e8f9 .LASF1608
C:\Users\SOLDER~1\AppData\Local\Temp\ccUIzJuS.s:24160  .debug_str:0000000000014187 .LASF1609
C:\Users\SOLDER~1\AppData\Local\Temp\ccUIzJuS.s:22680  .debug_str:000000000000e0ca .LASF1610
C:\Users\SOLDER~1\AppData\Local\Temp\ccUIzJuS.s:26970  .debug_str:000000000001f865 .LASF1611
GAS LISTING C:\Users\SOLDER~1\AppData\Local\Temp\ccUIzJuS.s 			page 57


C:\Users\SOLDER~1\AppData\Local\Temp\ccUIzJuS.s:19930  .debug_str:0000000000002cd6 .LASF1612
C:\Users\SOLDER~1\AppData\Local\Temp\ccUIzJuS.s:27304  .debug_str:0000000000020dee .LASF1613
C:\Users\SOLDER~1\AppData\Local\Temp\ccUIzJuS.s:28804  .debug_str:0000000000027043 .LASF1614
C:\Users\SOLDER~1\AppData\Local\Temp\ccUIzJuS.s:24190  .debug_str:00000000000143c7 .LASF1615
C:\Users\SOLDER~1\AppData\Local\Temp\ccUIzJuS.s:21298  .debug_str:0000000000008564 .LASF1616
C:\Users\SOLDER~1\AppData\Local\Temp\ccUIzJuS.s:23670  .debug_str:00000000000120c4 .LASF1617
C:\Users\SOLDER~1\AppData\Local\Temp\ccUIzJuS.s:20954  .debug_str:0000000000006f4a .LASF1618
C:\Users\SOLDER~1\AppData\Local\Temp\ccUIzJuS.s:22894  .debug_str:000000000000eea4 .LASF1619
C:\Users\SOLDER~1\AppData\Local\Temp\ccUIzJuS.s:27830  .debug_str:0000000000022f51 .LASF1620
C:\Users\SOLDER~1\AppData\Local\Temp\ccUIzJuS.s:20272  .debug_str:0000000000004305 .LASF1621
C:\Users\SOLDER~1\AppData\Local\Temp\ccUIzJuS.s:22194  .debug_str:000000000000bff3 .LASF1622
C:\Users\SOLDER~1\AppData\Local\Temp\ccUIzJuS.s:27590  .debug_str:0000000000021fd8 .LASF1623
C:\Users\SOLDER~1\AppData\Local\Temp\ccUIzJuS.s:25242  .debug_str:00000000000187c0 .LASF1624
C:\Users\SOLDER~1\AppData\Local\Temp\ccUIzJuS.s:25972  .debug_str:000000000001b6a1 .LASF1625
C:\Users\SOLDER~1\AppData\Local\Temp\ccUIzJuS.s:21452  .debug_str:0000000000008f6d .LASF1626
C:\Users\SOLDER~1\AppData\Local\Temp\ccUIzJuS.s:29814  .debug_str:000000000002b234 .LASF1627
C:\Users\SOLDER~1\AppData\Local\Temp\ccUIzJuS.s:28878  .debug_str:0000000000027549 .LASF1628
C:\Users\SOLDER~1\AppData\Local\Temp\ccUIzJuS.s:21412  .debug_str:0000000000008ca3 .LASF1629
C:\Users\SOLDER~1\AppData\Local\Temp\ccUIzJuS.s:25512  .debug_str:0000000000019906 .LASF1630
C:\Users\SOLDER~1\AppData\Local\Temp\ccUIzJuS.s:22890  .debug_str:000000000000ee5e .LASF1631
C:\Users\SOLDER~1\AppData\Local\Temp\ccUIzJuS.s:28822  .debug_str:0000000000027179 .LASF1632
C:\Users\SOLDER~1\AppData\Local\Temp\ccUIzJuS.s:23432  .debug_str:0000000000011186 .LASF1633
C:\Users\SOLDER~1\AppData\Local\Temp\ccUIzJuS.s:29738  .debug_str:000000000002ad5d .LASF1634
C:\Users\SOLDER~1\AppData\Local\Temp\ccUIzJuS.s:28082  .debug_str:0000000000023fd0 .LASF1635
C:\Users\SOLDER~1\AppData\Local\Temp\ccUIzJuS.s:30430  .debug_str:000000000002da3e .LASF1636
C:\Users\SOLDER~1\AppData\Local\Temp\ccUIzJuS.s:25926  .debug_str:000000000001b3a4 .LASF1637
C:\Users\SOLDER~1\AppData\Local\Temp\ccUIzJuS.s:22502  .debug_str:000000000000d509 .LASF1638
C:\Users\SOLDER~1\AppData\Local\Temp\ccUIzJuS.s:20678  .debug_str:0000000000005cc0 .LASF1639
C:\Users\SOLDER~1\AppData\Local\Temp\ccUIzJuS.s:23378  .debug_str:0000000000010e16 .LASF1640
C:\Users\SOLDER~1\AppData\Local\Temp\ccUIzJuS.s:26034  .debug_str:000000000001ba60 .LASF1641
C:\Users\SOLDER~1\AppData\Local\Temp\ccUIzJuS.s:30532  .debug_str:000000000002e0c7 .LASF1642
C:\Users\SOLDER~1\AppData\Local\Temp\ccUIzJuS.s:29490  .debug_str:0000000000029d16 .LASF1643
C:\Users\SOLDER~1\AppData\Local\Temp\ccUIzJuS.s:25666  .debug_str:000000000001a29c .LASF1644
C:\Users\SOLDER~1\AppData\Local\Temp\ccUIzJuS.s:23580  .debug_str:0000000000011afc .LASF1645
C:\Users\SOLDER~1\AppData\Local\Temp\ccUIzJuS.s:29550  .debug_str:000000000002a128 .LASF1646
C:\Users\SOLDER~1\AppData\Local\Temp\ccUIzJuS.s:20424  .debug_str:0000000000004cf7 .LASF1647
C:\Users\SOLDER~1\AppData\Local\Temp\ccUIzJuS.s:24292  .debug_str:0000000000014aae .LASF1648
C:\Users\SOLDER~1\AppData\Local\Temp\ccUIzJuS.s:19928  .debug_str:0000000000002cb0 .LASF1649
C:\Users\SOLDER~1\AppData\Local\Temp\ccUIzJuS.s:28740  .debug_str:0000000000026c23 .LASF1650
C:\Users\SOLDER~1\AppData\Local\Temp\ccUIzJuS.s:30730  .debug_str:000000000002ed57 .LASF1651
C:\Users\SOLDER~1\AppData\Local\Temp\ccUIzJuS.s:20036  .debug_str:00000000000033e1 .LASF1652
C:\Users\SOLDER~1\AppData\Local\Temp\ccUIzJuS.s:28052  .debug_str:0000000000023dc7 .LASF1653
C:\Users\SOLDER~1\AppData\Local\Temp\ccUIzJuS.s:30030  .debug_str:000000000002c043 .LASF1654
C:\Users\SOLDER~1\AppData\Local\Temp\ccUIzJuS.s:23902  .debug_str:0000000000012fc9 .LASF1655
C:\Users\SOLDER~1\AppData\Local\Temp\ccUIzJuS.s:21474  .debug_str:00000000000090ef .LASF1656
C:\Users\SOLDER~1\AppData\Local\Temp\ccUIzJuS.s:24202  .debug_str:0000000000014487 .LASF1657
C:\Users\SOLDER~1\AppData\Local\Temp\ccUIzJuS.s:29240  .debug_str:0000000000028d35 .LASF1658
C:\Users\SOLDER~1\AppData\Local\Temp\ccUIzJuS.s:26074  .debug_str:000000000001bcfd .LASF1659
C:\Users\SOLDER~1\AppData\Local\Temp\ccUIzJuS.s:25188  .debug_str:000000000001844f .LASF1660
C:\Users\SOLDER~1\AppData\Local\Temp\ccUIzJuS.s:20096  .debug_str:00000000000037a0 .LASF1661
C:\Users\SOLDER~1\AppData\Local\Temp\ccUIzJuS.s:21738  .debug_str:000000000000a25e .LASF1662
C:\Users\SOLDER~1\AppData\Local\Temp\ccUIzJuS.s:27078  .debug_str:000000000001ff57 .LASF1663
C:\Users\SOLDER~1\AppData\Local\Temp\ccUIzJuS.s:21576  .debug_str:00000000000097a7 .LASF1664
C:\Users\SOLDER~1\AppData\Local\Temp\ccUIzJuS.s:27660  .debug_str:00000000000223df .LASF1665
C:\Users\SOLDER~1\AppData\Local\Temp\ccUIzJuS.s:22444  .debug_str:000000000000d123 .LASF1666
C:\Users\SOLDER~1\AppData\Local\Temp\ccUIzJuS.s:22404  .debug_str:000000000000ce86 .LASF1667
C:\Users\SOLDER~1\AppData\Local\Temp\ccUIzJuS.s:23148  .debug_str:000000000000ff79 .LASF1668
GAS LISTING C:\Users\SOLDER~1\AppData\Local\Temp\ccUIzJuS.s 			page 58


C:\Users\SOLDER~1\AppData\Local\Temp\ccUIzJuS.s:30120  .debug_str:000000000002c64b .LASF1669
C:\Users\SOLDER~1\AppData\Local\Temp\ccUIzJuS.s:26700  .debug_str:000000000001e61d .LASF1670
C:\Users\SOLDER~1\AppData\Local\Temp\ccUIzJuS.s:25002  .debug_str:000000000001780c .LASF1671
C:\Users\SOLDER~1\AppData\Local\Temp\ccUIzJuS.s:27604  .debug_str:00000000000220a9 .LASF1672
C:\Users\SOLDER~1\AppData\Local\Temp\ccUIzJuS.s:22266  .debug_str:000000000000c50c .LASF1673
C:\Users\SOLDER~1\AppData\Local\Temp\ccUIzJuS.s:29934  .debug_str:000000000002ba40 .LASF1674
C:\Users\SOLDER~1\AppData\Local\Temp\ccUIzJuS.s:25752  .debug_str:000000000001a870 .LASF1675
C:\Users\SOLDER~1\AppData\Local\Temp\ccUIzJuS.s:21904  .debug_str:000000000000ad37 .LASF1676
C:\Users\SOLDER~1\AppData\Local\Temp\ccUIzJuS.s:19848  .debug_str:0000000000002798 .LASF1677
C:\Users\SOLDER~1\AppData\Local\Temp\ccUIzJuS.s:21362  .debug_str:0000000000008957 .LASF1678
C:\Users\SOLDER~1\AppData\Local\Temp\ccUIzJuS.s:28116  .debug_str:0000000000024219 .LASF1679
C:\Users\SOLDER~1\AppData\Local\Temp\ccUIzJuS.s:26172  .debug_str:000000000001c3b8 .LASF1680
C:\Users\SOLDER~1\AppData\Local\Temp\ccUIzJuS.s:30222  .debug_str:000000000002cca2 .LASF1681
C:\Users\SOLDER~1\AppData\Local\Temp\ccUIzJuS.s:25066  .debug_str:0000000000017c3a .LASF1682
C:\Users\SOLDER~1\AppData\Local\Temp\ccUIzJuS.s:26978  .debug_str:000000000001f8f2 .LASF1683
C:\Users\SOLDER~1\AppData\Local\Temp\ccUIzJuS.s:20372  .debug_str:0000000000004995 .LASF1684
C:\Users\SOLDER~1\AppData\Local\Temp\ccUIzJuS.s:24284  .debug_str:0000000000014a28 .LASF1685
C:\Users\SOLDER~1\AppData\Local\Temp\ccUIzJuS.s:26276  .debug_str:000000000001caa5 .LASF1686
C:\Users\SOLDER~1\AppData\Local\Temp\ccUIzJuS.s:20152  .debug_str:0000000000003b4e .LASF1687
C:\Users\SOLDER~1\AppData\Local\Temp\ccUIzJuS.s:29262  .debug_str:0000000000028e7f .LASF1688
C:\Users\SOLDER~1\AppData\Local\Temp\ccUIzJuS.s:30044  .debug_str:000000000002c150 .LASF1689
C:\Users\SOLDER~1\AppData\Local\Temp\ccUIzJuS.s:25538  .debug_str:0000000000019ab8 .LASF1690
C:\Users\SOLDER~1\AppData\Local\Temp\ccUIzJuS.s:22310  .debug_str:000000000000c815 .LASF1691
C:\Users\SOLDER~1\AppData\Local\Temp\ccUIzJuS.s:21422  .debug_str:0000000000008d64 .LASF1692
C:\Users\SOLDER~1\AppData\Local\Temp\ccUIzJuS.s:22806  .debug_str:000000000000e942 .LASF1693
C:\Users\SOLDER~1\AppData\Local\Temp\ccUIzJuS.s:29568  .debug_str:000000000002a25e .LASF1694
C:\Users\SOLDER~1\AppData\Local\Temp\ccUIzJuS.s:26126  .debug_str:000000000001c079 .LASF1695
C:\Users\SOLDER~1\AppData\Local\Temp\ccUIzJuS.s:25860  .debug_str:000000000001afbb .LASF1696
C:\Users\SOLDER~1\AppData\Local\Temp\ccUIzJuS.s:20412  .debug_str:0000000000004c2c .LASF1697
C:\Users\SOLDER~1\AppData\Local\Temp\ccUIzJuS.s:26732  .debug_str:000000000001e871 .LASF1698
C:\Users\SOLDER~1\AppData\Local\Temp\ccUIzJuS.s:26600  .debug_str:000000000001e002 .LASF1699
C:\Users\SOLDER~1\AppData\Local\Temp\ccUIzJuS.s:27306  .debug_str:0000000000020e14 .LASF1700
C:\Users\SOLDER~1\AppData\Local\Temp\ccUIzJuS.s:22816  .debug_str:000000000000e9eb .LASF1701
C:\Users\SOLDER~1\AppData\Local\Temp\ccUIzJuS.s:19460  .debug_str:0000000000000efe .LASF1702
C:\Users\SOLDER~1\AppData\Local\Temp\ccUIzJuS.s:29218  .debug_str:0000000000028bd3 .LASF1703
C:\Users\SOLDER~1\AppData\Local\Temp\ccUIzJuS.s:20356  .debug_str:00000000000048ac .LASF1704
C:\Users\SOLDER~1\AppData\Local\Temp\ccUIzJuS.s:30108  .debug_str:000000000002c589 .LASF1705
C:\Users\SOLDER~1\AppData\Local\Temp\ccUIzJuS.s:22936  .debug_str:000000000000f140 .LASF1706
C:\Users\SOLDER~1\AppData\Local\Temp\ccUIzJuS.s:21990  .debug_str:000000000000b2b9 .LASF1707
C:\Users\SOLDER~1\AppData\Local\Temp\ccUIzJuS.s:29718  .debug_str:000000000002abf3 .LASF1708
C:\Users\SOLDER~1\AppData\Local\Temp\ccUIzJuS.s:27614  .debug_str:000000000002214a .LASF1709
C:\Users\SOLDER~1\AppData\Local\Temp\ccUIzJuS.s:23980  .debug_str:00000000000134f9 .LASF1710
C:\Users\SOLDER~1\AppData\Local\Temp\ccUIzJuS.s:24424  .debug_str:0000000000015318 .LASF1711
C:\Users\SOLDER~1\AppData\Local\Temp\ccUIzJuS.s:30270  .debug_str:000000000002cfb2 .LASF1712
C:\Users\SOLDER~1\AppData\Local\Temp\ccUIzJuS.s:24022  .debug_str:00000000000137cf .LASF1713
C:\Users\SOLDER~1\AppData\Local\Temp\ccUIzJuS.s:21292  .debug_str:00000000000084f0 .LASF1714
C:\Users\SOLDER~1\AppData\Local\Temp\ccUIzJuS.s:23250  .debug_str:00000000000105ff .LASF1715
C:\Users\SOLDER~1\AppData\Local\Temp\ccUIzJuS.s:21046  .debug_str:0000000000007546 .LASF1716
C:\Users\SOLDER~1\AppData\Local\Temp\ccUIzJuS.s:19758  .debug_str:00000000000021ed .LASF1717
C:\Users\SOLDER~1\AppData\Local\Temp\ccUIzJuS.s:22524  .debug_str:000000000000d659 .LASF1718
C:\Users\SOLDER~1\AppData\Local\Temp\ccUIzJuS.s:27920  .debug_str:0000000000023563 .LASF1719
C:\Users\SOLDER~1\AppData\Local\Temp\ccUIzJuS.s:25558  .debug_str:0000000000019c05 .LASF1720
C:\Users\SOLDER~1\AppData\Local\Temp\ccUIzJuS.s:26288  .debug_str:000000000001cb89 .LASF1721
C:\Users\SOLDER~1\AppData\Local\Temp\ccUIzJuS.s:21762  .debug_str:000000000000a3ed .LASF1722
C:\Users\SOLDER~1\AppData\Local\Temp\ccUIzJuS.s:30152  .debug_str:000000000002c844 .LASF1723
C:\Users\SOLDER~1\AppData\Local\Temp\ccUIzJuS.s:29216  .debug_str:0000000000028bad .LASF1724
C:\Users\SOLDER~1\AppData\Local\Temp\ccUIzJuS.s:24184  .debug_str:0000000000014368 .LASF1725
GAS LISTING C:\Users\SOLDER~1\AppData\Local\Temp\ccUIzJuS.s 			page 59


C:\Users\SOLDER~1\AppData\Local\Temp\ccUIzJuS.s:25838  .debug_str:000000000001ae56 .LASF1726
C:\Users\SOLDER~1\AppData\Local\Temp\ccUIzJuS.s:22504  .debug_str:000000000000d52e .LASF1727
C:\Users\SOLDER~1\AppData\Local\Temp\ccUIzJuS.s:28514  .debug_str:0000000000025c73 .LASF1728
C:\Users\SOLDER~1\AppData\Local\Temp\ccUIzJuS.s:24490  .debug_str:0000000000015750 .LASF1729
C:\Users\SOLDER~1\AppData\Local\Temp\ccUIzJuS.s:29458  .debug_str:0000000000029afe .LASF1730
C:\Users\SOLDER~1\AppData\Local\Temp\ccUIzJuS.s:29412  .debug_str:0000000000029868 .LASF1731
C:\Users\SOLDER~1\AppData\Local\Temp\ccUIzJuS.s:30140  .debug_str:000000000002c779 .LASF1732
C:\Users\SOLDER~1\AppData\Local\Temp\ccUIzJuS.s:25646  .debug_str:000000000001a164 .LASF1733
C:\Users\SOLDER~1\AppData\Local\Temp\ccUIzJuS.s:22136  .debug_str:000000000000bc5f .LASF1734
C:\Users\SOLDER~1\AppData\Local\Temp\ccUIzJuS.s:20856  .debug_str:00000000000068f0 .LASF1735
C:\Users\SOLDER~1\AppData\Local\Temp\ccUIzJuS.s:23078  .debug_str:000000000000faa8 .LASF1736
C:\Users\SOLDER~1\AppData\Local\Temp\ccUIzJuS.s:24670  .debug_str:00000000000162f5 .LASF1737
C:\Users\SOLDER~1\AppData\Local\Temp\ccUIzJuS.s:20108  .debug_str:0000000000003861 .LASF1738
C:\Users\SOLDER~1\AppData\Local\Temp\ccUIzJuS.s:20664  .debug_str:0000000000005c0b .LASF1739
C:\Users\SOLDER~1\AppData\Local\Temp\ccUIzJuS.s:28348  .debug_str:000000000002518f .LASF1740
C:\Users\SOLDER~1\AppData\Local\Temp\ccUIzJuS.s:26232  .debug_str:000000000001c7c0 .LASF1741
C:\Users\SOLDER~1\AppData\Local\Temp\ccUIzJuS.s:30090  .debug_str:000000000002c475 .LASF1742
C:\Users\SOLDER~1\AppData\Local\Temp\ccUIzJuS.s:23084  .debug_str:000000000000fb08 .LASF1743
C:\Users\SOLDER~1\AppData\Local\Temp\ccUIzJuS.s:21026  .debug_str:0000000000007419 .LASF1744
C:\Users\SOLDER~1\AppData\Local\Temp\ccUIzJuS.s:22654  .debug_str:000000000000deec .LASF1745
C:\Users\SOLDER~1\AppData\Local\Temp\ccUIzJuS.s:27988  .debug_str:00000000000239cc .LASF1746
C:\Users\SOLDER~1\AppData\Local\Temp\ccUIzJuS.s:21812  .debug_str:000000000000a774 .LASF1747
C:\Users\SOLDER~1\AppData\Local\Temp\ccUIzJuS.s:26772  .debug_str:000000000001eb23 .LASF1748
C:\Users\SOLDER~1\AppData\Local\Temp\ccUIzJuS.s:30772  .debug_str:000000000002efdb .LASF1749
C:\Users\SOLDER~1\AppData\Local\Temp\ccUIzJuS.s:21134  .debug_str:0000000000007a82 .LASF1750
C:\Users\SOLDER~1\AppData\Local\Temp\ccUIzJuS.s:26626  .debug_str:000000000001e187 .LASF1751
C:\Users\SOLDER~1\AppData\Local\Temp\ccUIzJuS.s:24130  .debug_str:0000000000013f9e .LASF1752
C:\Users\SOLDER~1\AppData\Local\Temp\ccUIzJuS.s:24896  .debug_str:0000000000017101 .LASF1753
C:\Users\SOLDER~1\AppData\Local\Temp\ccUIzJuS.s:20342  .debug_str:00000000000047bd .LASF1754
C:\Users\SOLDER~1\AppData\Local\Temp\ccUIzJuS.s:28688  .debug_str:0000000000026890 .LASF1755
C:\Users\SOLDER~1\AppData\Local\Temp\ccUIzJuS.s:27766  .debug_str:0000000000022b33 .LASF1756
C:\Users\SOLDER~1\AppData\Local\Temp\ccUIzJuS.s:22830  .debug_str:000000000000eacb .LASF1757
C:\Users\SOLDER~1\AppData\Local\Temp\ccUIzJuS.s:24504  .debug_str:0000000000015841 .LASF1758
C:\Users\SOLDER~1\AppData\Local\Temp\ccUIzJuS.s:26802  .debug_str:000000000001ed04 .LASF1759
C:\Users\SOLDER~1\AppData\Local\Temp\ccUIzJuS.s:21286  .debug_str:0000000000008496 .LASF1760
C:\Users\SOLDER~1\AppData\Local\Temp\ccUIzJuS.s:27378  .debug_str:00000000000212d3 .LASF1761
C:\Users\SOLDER~1\AppData\Local\Temp\ccUIzJuS.s:22158  .debug_str:000000000000bdb0 .LASF1762
C:\Users\SOLDER~1\AppData\Local\Temp\ccUIzJuS.s:19786  .debug_str:00000000000023ce .LASF1763
C:\Users\SOLDER~1\AppData\Local\Temp\ccUIzJuS.s:22744  .debug_str:000000000000e51e .LASF1764
C:\Users\SOLDER~1\AppData\Local\Temp\ccUIzJuS.s:23616  .debug_str:0000000000011d69 .LASF1765
C:\Users\SOLDER~1\AppData\Local\Temp\ccUIzJuS.s:26408  .debug_str:000000000001d3ae .LASF1766
C:\Users\SOLDER~1\AppData\Local\Temp\ccUIzJuS.s:24690  .debug_str:0000000000016449 .LASF1767
C:\Users\SOLDER~1\AppData\Local\Temp\ccUIzJuS.s:27336  .debug_str:0000000000020fe7 .LASF1768
C:\Users\SOLDER~1\AppData\Local\Temp\ccUIzJuS.s:30674  .debug_str:000000000002e9a3 .LASF1769
C:\Users\SOLDER~1\AppData\Local\Temp\ccUIzJuS.s:29430  .debug_str:0000000000029972 .LASF1770
C:\Users\SOLDER~1\AppData\Local\Temp\ccUIzJuS.s:28450  .debug_str:0000000000025800 .LASF1771
C:\Users\SOLDER~1\AppData\Local\Temp\ccUIzJuS.s:24666  .debug_str:00000000000162b5 .LASF1772
C:\Users\SOLDER~1\AppData\Local\Temp\ccUIzJuS.s:22478  .debug_str:000000000000d36b .LASF1773
C:\Users\SOLDER~1\AppData\Local\Temp\ccUIzJuS.s:24016  .debug_str:0000000000013761 .LASF1774
C:\Users\SOLDER~1\AppData\Local\Temp\ccUIzJuS.s:19368  .debug_str:0000000000000895 .LASF1775
C:\Users\SOLDER~1\AppData\Local\Temp\ccUIzJuS.s:28802  .debug_str:000000000002701e .LASF1776
C:\Users\SOLDER~1\AppData\Local\Temp\ccUIzJuS.s:30498  .debug_str:000000000002de89 .LASF1777
C:\Users\SOLDER~1\AppData\Local\Temp\ccUIzJuS.s:27632  .debug_str:000000000002224e .LASF1778
C:\Users\SOLDER~1\AppData\Local\Temp\ccUIzJuS.s:27064  .debug_str:000000000001fe63 .LASF1779
C:\Users\SOLDER~1\AppData\Local\Temp\ccUIzJuS.s:23030  .debug_str:000000000000f73b .LASF1780
C:\Users\SOLDER~1\AppData\Local\Temp\ccUIzJuS.s:27004  .debug_str:000000000001fa91 .LASF1781
C:\Users\SOLDER~1\AppData\Local\Temp\ccUIzJuS.s:28912  .debug_str:00000000000277ae .LASF1782
GAS LISTING C:\Users\SOLDER~1\AppData\Local\Temp\ccUIzJuS.s 			page 60


C:\Users\SOLDER~1\AppData\Local\Temp\ccUIzJuS.s:22884  .debug_str:000000000000edfa .LASF1783
C:\Users\SOLDER~1\AppData\Local\Temp\ccUIzJuS.s:20360  .debug_str:00000000000048eb .LASF1784
C:\Users\SOLDER~1\AppData\Local\Temp\ccUIzJuS.s:21142  .debug_str:0000000000007b10 .LASF1785
C:\Users\SOLDER~1\AppData\Local\Temp\ccUIzJuS.s:28122  .debug_str:0000000000024280 .LASF1786
C:\Users\SOLDER~1\AppData\Local\Temp\ccUIzJuS.s:25024  .debug_str:0000000000017972 .LASF1787
C:\Users\SOLDER~1\AppData\Local\Temp\ccUIzJuS.s:24092  .debug_str:0000000000013d0a .LASF1788
C:\Users\SOLDER~1\AppData\Local\Temp\ccUIzJuS.s:30672  .debug_str:000000000002e97e .LASF1789
C:\Users\SOLDER~1\AppData\Local\Temp\ccUIzJuS.s:20660  .debug_str:0000000000005bc2 .LASF1790
C:\Users\SOLDER~1\AppData\Local\Temp\ccUIzJuS.s:19548  .debug_str:0000000000001497 .LASF1791
C:\Users\SOLDER~1\AppData\Local\Temp\ccUIzJuS.s:25580  .debug_str:0000000000019d64 .LASF1792
C:\Users\SOLDER~1\AppData\Local\Temp\ccUIzJuS.s:20134  .debug_str:0000000000003a1e .LASF1793
C:\Users\SOLDER~1\AppData\Local\Temp\ccUIzJuS.s:26352  .debug_str:000000000001cfe8 .LASF1794
C:\Users\SOLDER~1\AppData\Local\Temp\ccUIzJuS.s:26316  .debug_str:000000000001cd6c .LASF1795
C:\Users\SOLDER~1\AppData\Local\Temp\ccUIzJuS.s:27030  .debug_str:000000000001fc47 .LASF1796
C:\Users\SOLDER~1\AppData\Local\Temp\ccUIzJuS.s:23358  .debug_str:0000000000010cb7 .LASF1797
C:\Users\SOLDER~1\AppData\Local\Temp\ccUIzJuS.s:30712  .debug_str:000000000002ec3a .LASF1798
C:\Users\SOLDER~1\AppData\Local\Temp\ccUIzJuS.s:28926  .debug_str:000000000002789d .LASF1799
C:\Users\SOLDER~1\AppData\Local\Temp\ccUIzJuS.s:20080  .debug_str:0000000000003697 .LASF1800
C:\Users\SOLDER~1\AppData\Local\Temp\ccUIzJuS.s:21200  .debug_str:0000000000007f01 .LASF1801
C:\Users\SOLDER~1\AppData\Local\Temp\ccUIzJuS.s:26902  .debug_str:000000000001f3c5 .LASF1802
C:\Users\SOLDER~1\AppData\Local\Temp\ccUIzJuS.s:24768  .debug_str:00000000000168e5 .LASF1803
C:\Users\SOLDER~1\AppData\Local\Temp\ccUIzJuS.s:20810  .debug_str:00000000000065a0 .LASF1804
C:\Users\SOLDER~1\AppData\Local\Temp\ccUIzJuS.s:30320  .debug_str:000000000002d34c .LASF1805
C:\Users\SOLDER~1\AppData\Local\Temp\ccUIzJuS.s:20242  .debug_str:0000000000004131 .LASF1806
C:\Users\SOLDER~1\AppData\Local\Temp\ccUIzJuS.s:27144  .debug_str:0000000000020383 .LASF1807
C:\Users\SOLDER~1\AppData\Local\Temp\ccUIzJuS.s:24974  .debug_str:0000000000017624 .LASF1808
C:\Users\SOLDER~1\AppData\Local\Temp\ccUIzJuS.s:26644  .debug_str:000000000001e2b4 .LASF1809
C:\Users\SOLDER~1\AppData\Local\Temp\ccUIzJuS.s:23948  .debug_str:00000000000132d8 .LASF1810
C:\Users\SOLDER~1\AppData\Local\Temp\ccUIzJuS.s:25900  .debug_str:000000000001b203 .LASF1811
C:\Users\SOLDER~1\AppData\Local\Temp\ccUIzJuS.s:19318  .debug_str:00000000000004d3 .LASF1812
C:\Users\SOLDER~1\AppData\Local\Temp\ccUIzJuS.s:23280  .debug_str:00000000000107bc .LASF1813
C:\Users\SOLDER~1\AppData\Local\Temp\ccUIzJuS.s:25226  .debug_str:00000000000186af .LASF1814
C:\Users\SOLDER~1\AppData\Local\Temp\ccUIzJuS.s:30638  .debug_str:000000000002e752 .LASF1815
C:\Users\SOLDER~1\AppData\Local\Temp\ccUIzJuS.s:26592  .debug_str:000000000001df6f .LASF1816
C:\Users\SOLDER~1\AppData\Local\Temp\ccUIzJuS.s:29386  .debug_str:00000000000296a2 .LASF1817
C:\Users\SOLDER~1\AppData\Local\Temp\ccUIzJuS.s:24436  .debug_str:00000000000153c9 .LASF1818
C:\Users\SOLDER~1\AppData\Local\Temp\ccUIzJuS.s:21246  .debug_str:0000000000008214 .LASF1819
C:\Users\SOLDER~1\AppData\Local\Temp\ccUIzJuS.s:20312  .debug_str:000000000000457d .LASF1820
C:\Users\SOLDER~1\AppData\Local\Temp\ccUIzJuS.s:26816  .debug_str:000000000001edec .LASF1821
C:\Users\SOLDER~1\AppData\Local\Temp\ccUIzJuS.s:28446  .debug_str:00000000000257b9 .LASF1822
C:\Users\SOLDER~1\AppData\Local\Temp\ccUIzJuS.s:23798  .debug_str:00000000000128b2 .LASF1823
C:\Users\SOLDER~1\AppData\Local\Temp\ccUIzJuS.s:29748  .debug_str:000000000002ae16 .LASF1824
C:\Users\SOLDER~1\AppData\Local\Temp\ccUIzJuS.s:24336  .debug_str:0000000000014d96 .LASF1825
C:\Users\SOLDER~1\AppData\Local\Temp\ccUIzJuS.s:30658  .debug_str:000000000002e88a .LASF1826
C:\Users\SOLDER~1\AppData\Local\Temp\ccUIzJuS.s:29066  .debug_str:00000000000281c1 .LASF1827
C:\Users\SOLDER~1\AppData\Local\Temp\ccUIzJuS.s:19764  .debug_str:000000000000225b .LASF1828
C:\Users\SOLDER~1\AppData\Local\Temp\ccUIzJuS.s:26808  .debug_str:000000000001ed64 .LASF1829
C:\Users\SOLDER~1\AppData\Local\Temp\ccUIzJuS.s:21634  .debug_str:0000000000009b60 .LASF1830
C:\Users\SOLDER~1\AppData\Local\Temp\ccUIzJuS.s:21588  .debug_str:0000000000009872 .LASF1831
C:\Users\SOLDER~1\AppData\Local\Temp\ccUIzJuS.s:24286  .debug_str:0000000000014a4e .LASF1832
C:\Users\SOLDER~1\AppData\Local\Temp\ccUIzJuS.s:28982  .debug_str:0000000000027bf9 .LASF1833
C:\Users\SOLDER~1\AppData\Local\Temp\ccUIzJuS.s:21934  .debug_str:000000000000af59 .LASF1834
C:\Users\SOLDER~1\AppData\Local\Temp\ccUIzJuS.s:20904  .debug_str:0000000000006bdd .LASF1835
C:\Users\SOLDER~1\AppData\Local\Temp\ccUIzJuS.s:28590  .debug_str:00000000000261ca .LASF1836
C:\Users\SOLDER~1\AppData\Local\Temp\ccUIzJuS.s:26556  .debug_str:000000000001dcdd .LASF1837
C:\Users\SOLDER~1\AppData\Local\Temp\ccUIzJuS.s:27450  .debug_str:000000000002175b .LASF1838
C:\Users\SOLDER~1\AppData\Local\Temp\ccUIzJuS.s:23426  .debug_str:0000000000011120 .LASF1839
GAS LISTING C:\Users\SOLDER~1\AppData\Local\Temp\ccUIzJuS.s 			page 61


C:\Users\SOLDER~1\AppData\Local\Temp\ccUIzJuS.s:22210  .debug_str:000000000000c117 .LASF1840
C:\Users\SOLDER~1\AppData\Local\Temp\ccUIzJuS.s:22902  .debug_str:000000000000ef34 .LASF1841
C:\Users\SOLDER~1\AppData\Local\Temp\ccUIzJuS.s:20180  .debug_str:0000000000003d27 .LASF1842
C:\Users\SOLDER~1\AppData\Local\Temp\ccUIzJuS.s:22142  .debug_str:000000000000bcc6 .LASF1843
C:\Users\SOLDER~1\AppData\Local\Temp\ccUIzJuS.s:27098  .debug_str:0000000000020098 .LASF1844
C:\Users\SOLDER~1\AppData\Local\Temp\ccUIzJuS.s:19552  .debug_str:00000000000014db .LASF1845
C:\Users\SOLDER~1\AppData\Local\Temp\ccUIzJuS.s:21460  .debug_str:0000000000008ffb .LASF1846
C:\Users\SOLDER~1\AppData\Local\Temp\ccUIzJuS.s:26880  .debug_str:000000000001f243 .LASF1847
C:\Users\SOLDER~1\AppData\Local\Temp\ccUIzJuS.s:24450  .debug_str:00000000000154ca .LASF1848
C:\Users\SOLDER~1\AppData\Local\Temp\ccUIzJuS.s:25238  .debug_str:000000000001877b .LASF1849
C:\Users\SOLDER~1\AppData\Local\Temp\ccUIzJuS.s:20686  .debug_str:0000000000005d5a .LASF1850
C:\Users\SOLDER~1\AppData\Local\Temp\ccUIzJuS.s:29028  .debug_str:0000000000027f4d .LASF1851
C:\Users\SOLDER~1\AppData\Local\Temp\ccUIzJuS.s:28098  .debug_str:00000000000240ce .LASF1852
C:\Users\SOLDER~1\AppData\Local\Temp\ccUIzJuS.s:29318  .debug_str:00000000000291f6 .LASF1853
C:\Users\SOLDER~1\AppData\Local\Temp\ccUIzJuS.s:24762  .debug_str:0000000000016885 .LASF1854
C:\Users\SOLDER~1\AppData\Local\Temp\ccUIzJuS.s:27940  .debug_str:00000000000236b6 .LASF1855
C:\Users\SOLDER~1\AppData\Local\Temp\ccUIzJuS.s:25606  .debug_str:0000000000019ee1 .LASF1856
C:\Users\SOLDER~1\AppData\Local\Temp\ccUIzJuS.s:28566  .debug_str:000000000002602b .LASF1857
C:\Users\SOLDER~1\AppData\Local\Temp\ccUIzJuS.s:23374  .debug_str:0000000000010ddb .LASF1858
C:\Users\SOLDER~1\AppData\Local\Temp\ccUIzJuS.s:23342  .debug_str:0000000000010bc0 .LASF1859
C:\Users\SOLDER~1\AppData\Local\Temp\ccUIzJuS.s:30234  .debug_str:000000000002cd5d .LASF1860
C:\Users\SOLDER~1\AppData\Local\Temp\ccUIzJuS.s:21920  .debug_str:000000000000ae60 .LASF1861
C:\Users\SOLDER~1\AppData\Local\Temp\ccUIzJuS.s:27568  .debug_str:0000000000021e88 .LASF1862
C:\Users\SOLDER~1\AppData\Local\Temp\ccUIzJuS.s:25874  .debug_str:000000000001b0a2 .LASF1863
C:\Users\SOLDER~1\AppData\Local\Temp\ccUIzJuS.s:28508  .debug_str:0000000000025c27 .LASF1864
C:\Users\SOLDER~1\AppData\Local\Temp\ccUIzJuS.s:25294  .debug_str:0000000000018b26 .LASF1865
C:\Users\SOLDER~1\AppData\Local\Temp\ccUIzJuS.s:29756  .debug_str:000000000002ae9d .LASF1866
C:\Users\SOLDER~1\AppData\Local\Temp\ccUIzJuS.s:28694  .debug_str:0000000000026903 .LASF1867
C:\Users\SOLDER~1\AppData\Local\Temp\ccUIzJuS.s:24910  .debug_str:00000000000171e0 .LASF1868
C:\Users\SOLDER~1\AppData\Local\Temp\ccUIzJuS.s:22818  .debug_str:000000000000ea10 .LASF1869
C:\Users\SOLDER~1\AppData\Local\Temp\ccUIzJuS.s:24340  .debug_str:0000000000014ddf .LASF1870
C:\Users\SOLDER~1\AppData\Local\Temp\ccUIzJuS.s:19598  .debug_str:00000000000017e4 .LASF1871
C:\Users\SOLDER~1\AppData\Local\Temp\ccUIzJuS.s:29146  .debug_str:0000000000028700 .LASF1872
C:\Users\SOLDER~1\AppData\Local\Temp\ccUIzJuS.s:28102  .debug_str:0000000000024120 .LASF1873
C:\Users\SOLDER~1\AppData\Local\Temp\ccUIzJuS.s:27954  .debug_str:00000000000237ac .LASF1874
C:\Users\SOLDER~1\AppData\Local\Temp\ccUIzJuS.s:29972  .debug_str:000000000002bca3 .LASF1875
C:\Users\SOLDER~1\AppData\Local\Temp\ccUIzJuS.s:27504  .debug_str:0000000000021aaf .LASF1876
C:\Users\SOLDER~1\AppData\Local\Temp\ccUIzJuS.s:26256  .debug_str:000000000001c94d .LASF1877
C:\Users\SOLDER~1\AppData\Local\Temp\ccUIzJuS.s:29248  .debug_str:0000000000028db5 .LASF1878
C:\Users\SOLDER~1\AppData\Local\Temp\ccUIzJuS.s:27910  .debug_str:00000000000234bc .LASF1879
C:\Users\SOLDER~1\AppData\Local\Temp\ccUIzJuS.s:20704  .debug_str:0000000000005e71 .LASF1880
C:\Users\SOLDER~1\AppData\Local\Temp\ccUIzJuS.s:21470  .debug_str:00000000000090a8 .LASF1881
C:\Users\SOLDER~1\AppData\Local\Temp\ccUIzJuS.s:28462  .debug_str:00000000000258db .LASF1882
C:\Users\SOLDER~1\AppData\Local\Temp\ccUIzJuS.s:25336  .debug_str:0000000000018dd2 .LASF1883
C:\Users\SOLDER~1\AppData\Local\Temp\ccUIzJuS.s:19516  .debug_str:0000000000001287 .LASF1884
C:\Users\SOLDER~1\AppData\Local\Temp\ccUIzJuS.s:19362  .debug_str:0000000000000836 .LASF1885
C:\Users\SOLDER~1\AppData\Local\Temp\ccUIzJuS.s:21002  .debug_str:000000000000726b .LASF1886
C:\Users\SOLDER~1\AppData\Local\Temp\ccUIzJuS.s:20716  .debug_str:0000000000005f35 .LASF1887
C:\Users\SOLDER~1\AppData\Local\Temp\ccUIzJuS.s:26740  .debug_str:000000000001e900 .LASF1888
C:\Users\SOLDER~1\AppData\Local\Temp\ccUIzJuS.s:21338  .debug_str:00000000000087e2 .LASF1889
C:\Users\SOLDER~1\AppData\Local\Temp\ccUIzJuS.s:27598  .debug_str:000000000002204a .LASF1890
C:\Users\SOLDER~1\AppData\Local\Temp\ccUIzJuS.s:27562  .debug_str:0000000000021e17 .LASF1891
C:\Users\SOLDER~1\AppData\Local\Temp\ccUIzJuS.s:28184  .debug_str:000000000002469a .LASF1892
C:\Users\SOLDER~1\AppData\Local\Temp\ccUIzJuS.s:23724  .debug_str:000000000001241f .LASF1893
C:\Users\SOLDER~1\AppData\Local\Temp\ccUIzJuS.s:20322  .debug_str:0000000000004662 .LASF1894
C:\Users\SOLDER~1\AppData\Local\Temp\ccUIzJuS.s:30150  .debug_str:000000000002c820 .LASF1895
C:\Users\SOLDER~1\AppData\Local\Temp\ccUIzJuS.s:21278  .debug_str:0000000000008423 .LASF1896
GAS LISTING C:\Users\SOLDER~1\AppData\Local\Temp\ccUIzJuS.s 			page 62


C:\Users\SOLDER~1\AppData\Local\Temp\ccUIzJuS.s:21526  .debug_str:000000000000947b .LASF1897
C:\Users\SOLDER~1\AppData\Local\Temp\ccUIzJuS.s:25936  .debug_str:000000000001b450 .LASF1898
C:\Users\SOLDER~1\AppData\Local\Temp\ccUIzJuS.s:25026  .debug_str:0000000000017997 .LASF1899
C:\Users\SOLDER~1\AppData\Local\Temp\ccUIzJuS.s:21154  .debug_str:0000000000007be6 .LASF1900
C:\Users\SOLDER~1\AppData\Local\Temp\ccUIzJuS.s:30660  .debug_str:000000000002e8ae .LASF1901
C:\Users\SOLDER~1\AppData\Local\Temp\ccUIzJuS.s:20582  .debug_str:0000000000005670 .LASF1902
C:\Users\SOLDER~1\AppData\Local\Temp\ccUIzJuS.s:30256  .debug_str:000000000002cec0 .LASF1903
C:\Users\SOLDER~1\AppData\Local\Temp\ccUIzJuS.s:25442  .debug_str:00000000000194d2 .LASF1904
C:\Users\SOLDER~1\AppData\Local\Temp\ccUIzJuS.s:26984  .debug_str:000000000001f95f .LASF1905
C:\Users\SOLDER~1\AppData\Local\Temp\ccUIzJuS.s:24280  .debug_str:00000000000149cc .LASF1906
C:\Users\SOLDER~1\AppData\Local\Temp\ccUIzJuS.s:26212  .debug_str:000000000001c64a .LASF1907
C:\Users\SOLDER~1\AppData\Local\Temp\ccUIzJuS.s:19630  .debug_str:00000000000019b3 .LASF1908
C:\Users\SOLDER~1\AppData\Local\Temp\ccUIzJuS.s:29238  .debug_str:0000000000028d10 .LASF1909
C:\Users\SOLDER~1\AppData\Local\Temp\ccUIzJuS.s:25546  .debug_str:0000000000019b3a .LASF1910
C:\Users\SOLDER~1\AppData\Local\Temp\ccUIzJuS.s:19418  .debug_str:0000000000000c2e .LASF1911
C:\Users\SOLDER~1\AppData\Local\Temp\ccUIzJuS.s:28480  .debug_str:0000000000025a34 .LASF1912
C:\Users\SOLDER~1\AppData\Local\Temp\ccUIzJuS.s:29260  .debug_str:0000000000028e5a .LASF1913
C:\Users\SOLDER~1\AppData\Local\Temp\ccUIzJuS.s:24786  .debug_str:0000000000016a1f .LASF1914
C:\Users\SOLDER~1\AppData\Local\Temp\ccUIzJuS.s:30022  .debug_str:000000000002bfc7 .LASF1915
C:\Users\SOLDER~1\AppData\Local\Temp\ccUIzJuS.s:20654  .debug_str:0000000000005b6f .LASF1916
C:\Users\SOLDER~1\AppData\Local\Temp\ccUIzJuS.s:27140  .debug_str:000000000002034b .LASF1917
C:\Users\SOLDER~1\AppData\Local\Temp\ccUIzJuS.s:25720  .debug_str:000000000001a619 .LASF1918
C:\Users\SOLDER~1\AppData\Local\Temp\ccUIzJuS.s:25036  .debug_str:0000000000017a59 .LASF1919
C:\Users\SOLDER~1\AppData\Local\Temp\ccUIzJuS.s:19504  .debug_str:00000000000011c4 .LASF1920
C:\Users\SOLDER~1\AppData\Local\Temp\ccUIzJuS.s:25626  .debug_str:000000000001a024 .LASF1921
C:\Users\SOLDER~1\AppData\Local\Temp\ccUIzJuS.s:20260  .debug_str:000000000000425e .LASF1922
C:\Users\SOLDER~1\AppData\Local\Temp\ccUIzJuS.s:20226  .debug_str:0000000000004020 .LASF1923
C:\Users\SOLDER~1\AppData\Local\Temp\ccUIzJuS.s:27922  .debug_str:0000000000023589 .LASF1924
C:\Users\SOLDER~1\AppData\Local\Temp\ccUIzJuS.s:27952  .debug_str:0000000000023788 .LASF1925
C:\Users\SOLDER~1\AppData\Local\Temp\ccUIzJuS.s:24632  .debug_str:0000000000016099 .LASF1926
C:\Users\SOLDER~1\AppData\Local\Temp\ccUIzJuS.s:22854  .debug_str:000000000000ec11 .LASF1927
C:\Users\SOLDER~1\AppData\Local\Temp\ccUIzJuS.s:29036  .debug_str:0000000000027fd3 .LASF1928
C:\Users\SOLDER~1\AppData\Local\Temp\ccUIzJuS.s:29224  .debug_str:0000000000028c39 .LASF1929
C:\Users\SOLDER~1\AppData\Local\Temp\ccUIzJuS.s:22168  .debug_str:000000000000be3d .LASF1930
C:\Users\SOLDER~1\AppData\Local\Temp\ccUIzJuS.s:21250  .debug_str:0000000000008254 .LASF1931
C:\Users\SOLDER~1\AppData\Local\Temp\ccUIzJuS.s:29834  .debug_str:000000000002b3ce .LASF1932
C:\Users\SOLDER~1\AppData\Local\Temp\ccUIzJuS.s:22614  .debug_str:000000000000dc64 .LASF1933
C:\Users\SOLDER~1\AppData\Local\Temp\ccUIzJuS.s:28366  .debug_str:0000000000025291 .LASF1934
C:\Users\SOLDER~1\AppData\Local\Temp\ccUIzJuS.s:19246  .debug_str:0000000000000023 .LASF1935
C:\Users\SOLDER~1\AppData\Local\Temp\ccUIzJuS.s:21670  .debug_str:0000000000009db0 .LASF1936
C:\Users\SOLDER~1\AppData\Local\Temp\ccUIzJuS.s:23256  .debug_str:0000000000010657 .LASF1937
C:\Users\SOLDER~1\AppData\Local\Temp\ccUIzJuS.s:20510  .debug_str:000000000000522a .LASF1938
C:\Users\SOLDER~1\AppData\Local\Temp\ccUIzJuS.s:22460  .debug_str:000000000000d22e .LASF1939
C:\Users\SOLDER~1\AppData\Local\Temp\ccUIzJuS.s:27324  .debug_str:0000000000020f14 .LASF1940
C:\Users\SOLDER~1\AppData\Local\Temp\ccUIzJuS.s:19770  .debug_str:00000000000022b9 .LASF1941
C:\Users\SOLDER~1\AppData\Local\Temp\ccUIzJuS.s:25072  .debug_str:0000000000017ca0 .LASF1942
C:\Users\SOLDER~1\AppData\Local\Temp\ccUIzJuS.s:27186  .debug_str:000000000002065d .LASF1943
C:\Users\SOLDER~1\AppData\Local\Temp\ccUIzJuS.s:29212  .debug_str:0000000000028b6c .LASF1944
C:\Users\SOLDER~1\AppData\Local\Temp\ccUIzJuS.s:25466  .debug_str:000000000001967d .LASF1945
C:\Users\SOLDER~1\AppData\Local\Temp\ccUIzJuS.s:21028  .debug_str:000000000000743e .LASF1946
C:\Users\SOLDER~1\AppData\Local\Temp\ccUIzJuS.s:29380  .debug_str:0000000000029633 .LASF1947
C:\Users\SOLDER~1\AppData\Local\Temp\ccUIzJuS.s:28342  .debug_str:000000000002513e .LASF1948
C:\Users\SOLDER~1\AppData\Local\Temp\ccUIzJuS.s:26726  .debug_str:000000000001e808 .LASF1949
C:\Users\SOLDER~1\AppData\Local\Temp\ccUIzJuS.s:25106  .debug_str:0000000000017ee1 .LASF1950
C:\Users\SOLDER~1\AppData\Local\Temp\ccUIzJuS.s:22650  .debug_str:000000000000dea7 .LASF1951
C:\Users\SOLDER~1\AppData\Local\Temp\ccUIzJuS.s:23662  .debug_str:0000000000012049 .LASF1952
C:\Users\SOLDER~1\AppData\Local\Temp\ccUIzJuS.s:29796  .debug_str:000000000002b0f4 .LASF1953
GAS LISTING C:\Users\SOLDER~1\AppData\Local\Temp\ccUIzJuS.s 			page 63


C:\Users\SOLDER~1\AppData\Local\Temp\ccUIzJuS.s:24574  .debug_str:0000000000015cba .LASF1954
C:\Users\SOLDER~1\AppData\Local\Temp\ccUIzJuS.s:24530  .debug_str:00000000000159fb .LASF1955
C:\Users\SOLDER~1\AppData\Local\Temp\ccUIzJuS.s:25268  .debug_str:000000000001895a .LASF1956
C:\Users\SOLDER~1\AppData\Local\Temp\ccUIzJuS.s:28108  .debug_str:0000000000024182 .LASF1957
C:\Users\SOLDER~1\AppData\Local\Temp\ccUIzJuS.s:28866  .debug_str:000000000002746b .LASF1958
C:\Users\SOLDER~1\AppData\Local\Temp\ccUIzJuS.s:27038  .debug_str:000000000001fccb .LASF1959
C:\Users\SOLDER~1\AppData\Local\Temp\ccUIzJuS.s:29740  .debug_str:000000000002ad82 .LASF1960
C:\Users\SOLDER~1\AppData\Local\Temp\ccUIzJuS.s:25522  .debug_str:00000000000199af .LASF1961
C:\Users\SOLDER~1\AppData\Local\Temp\ccUIzJuS.s:28528  .debug_str:0000000000025d77 .LASF1962
C:\Users\SOLDER~1\AppData\Local\Temp\ccUIzJuS.s:29030  .debug_str:0000000000027f72 .LASF1963
C:\Users\SOLDER~1\AppData\Local\Temp\ccUIzJuS.s:25254  .debug_str:0000000000018873 .LASF1964
C:\Users\SOLDER~1\AppData\Local\Temp\ccUIzJuS.s:25648  .debug_str:000000000001a188 .LASF1965
C:\Users\SOLDER~1\AppData\Local\Temp\ccUIzJuS.s:24680  .debug_str:00000000000163a8 .LASF1966
C:\Users\SOLDER~1\AppData\Local\Temp\ccUIzJuS.s:19916  .debug_str:0000000000002bd6 .LASF1967
C:\Users\SOLDER~1\AppData\Local\Temp\ccUIzJuS.s:29498  .debug_str:0000000000029d8a .LASF1968
C:\Users\SOLDER~1\AppData\Local\Temp\ccUIzJuS.s:25574  .debug_str:0000000000019d00 .LASF1969
C:\Users\SOLDER~1\AppData\Local\Temp\ccUIzJuS.s:28298  .debug_str:0000000000024e57 .LASF1970
C:\Users\SOLDER~1\AppData\Local\Temp\ccUIzJuS.s:30298  .debug_str:000000000002d197 .LASF1971
C:\Users\SOLDER~1\AppData\Local\Temp\ccUIzJuS.s:23604  .debug_str:0000000000011c93 .LASF1972
C:\Users\SOLDER~1\AppData\Local\Temp\ccUIzJuS.s:27540  .debug_str:0000000000021cdb .LASF1973
C:\Users\SOLDER~1\AppData\Local\Temp\ccUIzJuS.s:29590  .debug_str:000000000002a3ee .LASF1974
C:\Users\SOLDER~1\AppData\Local\Temp\ccUIzJuS.s:23470  .debug_str:00000000000113dd .LASF1975
C:\Users\SOLDER~1\AppData\Local\Temp\ccUIzJuS.s:21050  .debug_str:0000000000007586 .LASF1976
C:\Users\SOLDER~1\AppData\Local\Temp\ccUIzJuS.s:21694  .debug_str:0000000000009f64 .LASF1977
C:\Users\SOLDER~1\AppData\Local\Temp\ccUIzJuS.s:19414  .debug_str:0000000000000be6 .LASF1978
C:\Users\SOLDER~1\AppData\Local\Temp\ccUIzJuS.s:25570  .debug_str:0000000000019cc9 .LASF1979
C:\Users\SOLDER~1\AppData\Local\Temp\ccUIzJuS.s:24660  .debug_str:0000000000016252 .LASF1980
C:\Users\SOLDER~1\AppData\Local\Temp\ccUIzJuS.s:19678  .debug_str:0000000000001d08 .LASF1981
C:\Users\SOLDER~1\AppData\Local\Temp\ccUIzJuS.s:21340  .debug_str:0000000000008806 .LASF1982
C:\Users\SOLDER~1\AppData\Local\Temp\ccUIzJuS.s:21906  .debug_str:000000000000ad5d .LASF1983
C:\Users\SOLDER~1\AppData\Local\Temp\ccUIzJuS.s:27898  .debug_str:00000000000233e5 .LASF1984
C:\Users\SOLDER~1\AppData\Local\Temp\ccUIzJuS.s:23590  .debug_str:0000000000011ba6 .LASF1985
C:\Users\SOLDER~1\AppData\Local\Temp\ccUIzJuS.s:28806  .debug_str:0000000000027069 .LASF1986
C:\Users\SOLDER~1\AppData\Local\Temp\ccUIzJuS.s:28764  .debug_str:0000000000026da5 .LASF1987
C:\Users\SOLDER~1\AppData\Local\Temp\ccUIzJuS.s:29522  .debug_str:0000000000029f54 .LASF1988
C:\Users\SOLDER~1\AppData\Local\Temp\ccUIzJuS.s:20800  .debug_str:00000000000064ee .LASF1989
C:\Users\SOLDER~1\AppData\Local\Temp\ccUIzJuS.s:22220  .debug_str:000000000000c1da .LASF1990
C:\Users\SOLDER~1\AppData\Local\Temp\ccUIzJuS.s:19776  .debug_str:000000000000231b .LASF1991
C:\Users\SOLDER~1\AppData\Local\Temp\ccUIzJuS.s:22446  .debug_str:000000000000d148 .LASF1992
C:\Users\SOLDER~1\AppData\Local\Temp\ccUIzJuS.s:27516  .debug_str:0000000000021b7b .LASF1993
C:\Users\SOLDER~1\AppData\Local\Temp\ccUIzJuS.s:26248  .debug_str:000000000001c8bb .LASF1994
C:\Users\SOLDER~1\AppData\Local\Temp\ccUIzJuS.s:25342  .debug_str:0000000000018e41 .LASF1995
C:\Users\SOLDER~1\AppData\Local\Temp\ccUIzJuS.s:21484  .debug_str:00000000000091b9 .LASF1996
C:\Users\SOLDER~1\AppData\Local\Temp\ccUIzJuS.s:19444  .debug_str:0000000000000e08 .LASF1997
C:\Users\SOLDER~1\AppData\Local\Temp\ccUIzJuS.s:20832  .debug_str:0000000000006736 .LASF1998
C:\Users\SOLDER~1\AppData\Local\Temp\ccUIzJuS.s:27688  .debug_str:00000000000225da .LASF1999
C:\Users\SOLDER~1\AppData\Local\Temp\ccUIzJuS.s:25766  .debug_str:000000000001a966 .LASF2000
C:\Users\SOLDER~1\AppData\Local\Temp\ccUIzJuS.s:27286  .debug_str:0000000000020cce .LASF2001
C:\Users\SOLDER~1\AppData\Local\Temp\ccUIzJuS.s:24522  .debug_str:000000000001596e .LASF2002
C:\Users\SOLDER~1\AppData\Local\Temp\ccUIzJuS.s:26442  .debug_str:000000000001d600 .LASF2003
C:\Users\SOLDER~1\AppData\Local\Temp\ccUIzJuS.s:19866  .debug_str:00000000000028f9 .LASF2004
C:\Users\SOLDER~1\AppData\Local\Temp\ccUIzJuS.s:23844  .debug_str:0000000000012be3 .LASF2005
C:\Users\SOLDER~1\AppData\Local\Temp\ccUIzJuS.s:19482  .debug_str:0000000000001060 .LASF2006
C:\Users\SOLDER~1\AppData\Local\Temp\ccUIzJuS.s:19724  .debug_str:0000000000001fe5 .LASF2007
C:\Users\SOLDER~1\AppData\Local\Temp\ccUIzJuS.s:28830  .debug_str:0000000000027204 .LASF2008
C:\Users\SOLDER~1\AppData\Local\Temp\ccUIzJuS.s:29528  .debug_str:0000000000029fbf .LASF2009
C:\Users\SOLDER~1\AppData\Local\Temp\ccUIzJuS.s:25132  .debug_str:00000000000180b6 .LASF2010
GAS LISTING C:\Users\SOLDER~1\AppData\Local\Temp\ccUIzJuS.s 			page 64


C:\Users\SOLDER~1\AppData\Local\Temp\ccUIzJuS.s:21802  .debug_str:000000000000a6bb .LASF2011
C:\Users\SOLDER~1\AppData\Local\Temp\ccUIzJuS.s:20896  .debug_str:0000000000006b60 .LASF2012
C:\Users\SOLDER~1\AppData\Local\Temp\ccUIzJuS.s:21166  .debug_str:0000000000007ca2 .LASF2013
C:\Users\SOLDER~1\AppData\Local\Temp\ccUIzJuS.s:29124  .debug_str:000000000002859b .LASF2014
C:\Users\SOLDER~1\AppData\Local\Temp\ccUIzJuS.s:26178  .debug_str:000000000001c3fe .LASF2015
C:\Users\SOLDER~1\AppData\Local\Temp\ccUIzJuS.s:20662  .debug_str:0000000000005be7 .LASF2016
C:\Users\SOLDER~1\AppData\Local\Temp\ccUIzJuS.s:26792  .debug_str:000000000001ec6a .LASF2017
C:\Users\SOLDER~1\AppData\Local\Temp\ccUIzJuS.s:21564  .debug_str:00000000000096e7 .LASF2018
C:\Users\SOLDER~1\AppData\Local\Temp\ccUIzJuS.s:21434  .debug_str:0000000000008e38 .LASF2019
C:\Users\SOLDER~1\AppData\Local\Temp\ccUIzJuS.s:22140  .debug_str:000000000000bca2 .LASF2020
C:\Users\SOLDER~1\AppData\Local\Temp\ccUIzJuS.s:29186  .debug_str:00000000000289b7 .LASF2021
C:\Users\SOLDER~1\AppData\Local\Temp\ccUIzJuS.s:25812  .debug_str:000000000001ac40 .LASF2022
C:\Users\SOLDER~1\AppData\Local\Temp\ccUIzJuS.s:24078  .debug_str:0000000000013c07 .LASF2023
C:\Users\SOLDER~1\AppData\Local\Temp\ccUIzJuS.s:30166  .debug_str:000000000002c921 .LASF2024
C:\Users\SOLDER~1\AppData\Local\Temp\ccUIzJuS.s:30568  .debug_str:000000000002e2db .LASF2025
C:\Users\SOLDER~1\AppData\Local\Temp\ccUIzJuS.s:22980  .debug_str:000000000000f3f5 .LASF2026
C:\Users\SOLDER~1\AppData\Local\Temp\ccUIzJuS.s:21578  .debug_str:00000000000097cc .LASF2027
C:\Users\SOLDER~1\AppData\Local\Temp\ccUIzJuS.s:29276  .debug_str:0000000000028f5f .LASF2028
C:\Users\SOLDER~1\AppData\Local\Temp\ccUIzJuS.s:27206  .debug_str:000000000002079d .LASF2029
C:\Users\SOLDER~1\AppData\Local\Temp\ccUIzJuS.s:28608  .debug_str:0000000000026321 .LASF2030
C:\Users\SOLDER~1\AppData\Local\Temp\ccUIzJuS.s:24006  .debug_str:00000000000136bf .LASF2031
C:\Users\SOLDER~1\AppData\Local\Temp\ccUIzJuS.s:21914  .debug_str:000000000000ae0a .LASF2032
C:\Users\SOLDER~1\AppData\Local\Temp\ccUIzJuS.s:23576  .debug_str:0000000000011ac5 .LASF2033
C:\Users\SOLDER~1\AppData\Local\Temp\ccUIzJuS.s:20764  .debug_str:000000000000629d .LASF2034
C:\Users\SOLDER~1\AppData\Local\Temp\ccUIzJuS.s:22704  .debug_str:000000000000e28e .LASF2035
C:\Users\SOLDER~1\AppData\Local\Temp\ccUIzJuS.s:30206  .debug_str:000000000002cba6 .LASF2036
C:\Users\SOLDER~1\AppData\Local\Temp\ccUIzJuS.s:20100  .debug_str:00000000000037d9 .LASF2037
C:\Users\SOLDER~1\AppData\Local\Temp\ccUIzJuS.s:21544  .debug_str:00000000000095ba .LASF2038
C:\Users\SOLDER~1\AppData\Local\Temp\ccUIzJuS.s:27502  .debug_str:0000000000021a8a .LASF2039
C:\Users\SOLDER~1\AppData\Local\Temp\ccUIzJuS.s:25060  .debug_str:0000000000017bbd .LASF2040
C:\Users\SOLDER~1\AppData\Local\Temp\ccUIzJuS.s:25790  .debug_str:000000000001aad2 .LASF2041
C:\Users\SOLDER~1\AppData\Local\Temp\ccUIzJuS.s:27624  .debug_str:00000000000221e9 .LASF2042
C:\Users\SOLDER~1\AppData\Local\Temp\ccUIzJuS.s:29616  .debug_str:000000000002a5bd .LASF2043
C:\Users\SOLDER~1\AppData\Local\Temp\ccUIzJuS.s:28684  .debug_str:000000000002683a .LASF2044
C:\Users\SOLDER~1\AppData\Local\Temp\ccUIzJuS.s:23742  .debug_str:0000000000012537 .LASF2045
C:\Users\SOLDER~1\AppData\Local\Temp\ccUIzJuS.s:25420  .debug_str:0000000000019348 .LASF2046
C:\Users\SOLDER~1\AppData\Local\Temp\ccUIzJuS.s:21514  .debug_str:00000000000093b5 .LASF2047
C:\Users\SOLDER~1\AppData\Local\Temp\ccUIzJuS.s:27508  .debug_str:0000000000021af6 .LASF2048
C:\Users\SOLDER~1\AppData\Local\Temp\ccUIzJuS.s:22110  .debug_str:000000000000ba91 .LASF2049
C:\Users\SOLDER~1\AppData\Local\Temp\ccUIzJuS.s:28400  .debug_str:00000000000254df .LASF2050
C:\Users\SOLDER~1\AppData\Local\Temp\ccUIzJuS.s:28362  .debug_str:0000000000025252 .LASF2051
C:\Users\SOLDER~1\AppData\Local\Temp\ccUIzJuS.s:29012  .debug_str:0000000000027e0c .LASF2052
C:\Users\SOLDER~1\AppData\Local\Temp\ccUIzJuS.s:24538  .debug_str:0000000000015a78 .LASF2053
C:\Users\SOLDER~1\AppData\Local\Temp\ccUIzJuS.s:30294  .debug_str:000000000002d150 .LASF2054
C:\Users\SOLDER~1\AppData\Local\Temp\ccUIzJuS.s:19400  .debug_str:0000000000000af2 .LASF2055
C:\Users\SOLDER~1\AppData\Local\Temp\ccUIzJuS.s:22060  .debug_str:000000000000b73b .LASF2056
C:\Users\SOLDER~1\AppData\Local\Temp\ccUIzJuS.s:28386  .debug_str:0000000000025407 .LASF2057
C:\Users\SOLDER~1\AppData\Local\Temp\ccUIzJuS.s:29460  .debug_str:0000000000029b22 .LASF2058
C:\Users\SOLDER~1\AppData\Local\Temp\ccUIzJuS.s:20406  .debug_str:0000000000004bc1 .LASF2059
C:\Users\SOLDER~1\AppData\Local\Temp\ccUIzJuS.s:28096  .debug_str:00000000000240a8 .LASF2060
C:\Users\SOLDER~1\AppData\Local\Temp\ccUIzJuS.s:30410  .debug_str:000000000002d8e5 .LASF2061
C:\Users\SOLDER~1\AppData\Local\Temp\ccUIzJuS.s:27458  .debug_str:00000000000217d2 .LASF2062
C:\Users\SOLDER~1\AppData\Local\Temp\ccUIzJuS.s:22828  .debug_str:000000000000eaa5 .LASF2063
C:\Users\SOLDER~1\AppData\Local\Temp\ccUIzJuS.s:30126  .debug_str:000000000002c6ac .LASF2064
C:\Users\SOLDER~1\AppData\Local\Temp\ccUIzJuS.s:22402  .debug_str:000000000000ce60 .LASF2065
C:\Users\SOLDER~1\AppData\Local\Temp\ccUIzJuS.s:26114  .debug_str:000000000001bfcb .LASF2066
C:\Users\SOLDER~1\AppData\Local\Temp\ccUIzJuS.s:21574  .debug_str:0000000000009781 .LASF2067
GAS LISTING C:\Users\SOLDER~1\AppData\Local\Temp\ccUIzJuS.s 			page 65


C:\Users\SOLDER~1\AppData\Local\Temp\ccUIzJuS.s:20880  .debug_str:0000000000006a66 .LASF2068
C:\Users\SOLDER~1\AppData\Local\Temp\ccUIzJuS.s:30522  .debug_str:000000000002e019 .LASF2069
C:\Users\SOLDER~1\AppData\Local\Temp\ccUIzJuS.s:20966  .debug_str:0000000000007028 .LASF2070
C:\Users\SOLDER~1\AppData\Local\Temp\ccUIzJuS.s:26370  .debug_str:000000000001d0ec .LASF2071
C:\Users\SOLDER~1\AppData\Local\Temp\ccUIzJuS.s:23872  .debug_str:0000000000012df5 .LASF2072
C:\Users\SOLDER~1\AppData\Local\Temp\ccUIzJuS.s:28674  .debug_str:0000000000026794 .LASF2073
C:\Users\SOLDER~1\AppData\Local\Temp\ccUIzJuS.s:20104  .debug_str:0000000000003820 .LASF2074
C:\Users\SOLDER~1\AppData\Local\Temp\ccUIzJuS.s:28438  .debug_str:000000000002572e .LASF2075
C:\Users\SOLDER~1\AppData\Local\Temp\ccUIzJuS.s:27520  .debug_str:0000000000021bc5 .LASF2076
C:\Users\SOLDER~1\AppData\Local\Temp\ccUIzJuS.s:22578  .debug_str:000000000000d9ce .LASF2077
C:\Users\SOLDER~1\AppData\Local\Temp\ccUIzJuS.s:24266  .debug_str:00000000000148c3 .LASF2078
C:\Users\SOLDER~1\AppData\Local\Temp\ccUIzJuS.s:25800  .debug_str:000000000001ab90 .LASF2079
C:\Users\SOLDER~1\AppData\Local\Temp\ccUIzJuS.s:20252  .debug_str:00000000000041de .LASF2080
C:\Users\SOLDER~1\AppData\Local\Temp\ccUIzJuS.s:26384  .debug_str:000000000001d1e0 .LASF2081
C:\Users\SOLDER~1\AppData\Local\Temp\ccUIzJuS.s:25250  .debug_str:000000000001883c .LASF2082
C:\Users\SOLDER~1\AppData\Local\Temp\ccUIzJuS.s:21044  .debug_str:0000000000007521 .LASF2083
C:\Users\SOLDER~1\AppData\Local\Temp\ccUIzJuS.s:21734  .debug_str:000000000000a217 .LASF2084
C:\Users\SOLDER~1\AppData\Local\Temp\ccUIzJuS.s:24472  .debug_str:000000000001562a .LASF2085
C:\Users\SOLDER~1\AppData\Local\Temp\ccUIzJuS.s:23834  .debug_str:0000000000012b4c .LASF2086
C:\Users\SOLDER~1\AppData\Local\Temp\ccUIzJuS.s:26564  .debug_str:000000000001dd68 .LASF2087
C:\Users\SOLDER~1\AppData\Local\Temp\ccUIzJuS.s:26330  .debug_str:000000000001ce76 .LASF2088
C:\Users\SOLDER~1\AppData\Local\Temp\ccUIzJuS.s:24706  .debug_str:000000000001653a .LASF2089
C:\Users\SOLDER~1\AppData\Local\Temp\ccUIzJuS.s:29166  .debug_str:000000000002882e .LASF2090
C:\Users\SOLDER~1\AppData\Local\Temp\ccUIzJuS.s:26192  .debug_str:000000000001c510 .LASF2091
C:\Users\SOLDER~1\AppData\Local\Temp\ccUIzJuS.s:24404  .debug_str:00000000000151a9 .LASF2092
C:\Users\SOLDER~1\AppData\Local\Temp\ccUIzJuS.s:22238  .debug_str:000000000000c313 .LASF2093
C:\Users\SOLDER~1\AppData\Local\Temp\ccUIzJuS.s:23748  .debug_str:00000000000125b0 .LASF2094
C:\Users\SOLDER~1\AppData\Local\Temp\ccUIzJuS.s:30670  .debug_str:000000000002e958 .LASF2095
C:\Users\SOLDER~1\AppData\Local\Temp\ccUIzJuS.s:28542  .debug_str:0000000000025e65 .LASF2096
C:\Users\SOLDER~1\AppData\Local\Temp\ccUIzJuS.s:25412  .debug_str:00000000000192c8 .LASF2097
C:\Users\SOLDER~1\AppData\Local\Temp\ccUIzJuS.s:27396  .debug_str:00000000000213ec .LASF2098
C:\Users\SOLDER~1\AppData\Local\Temp\ccUIzJuS.s:29382  .debug_str:0000000000029658 .LASF2099
C:\Users\SOLDER~1\AppData\Local\Temp\ccUIzJuS.s:23880  .debug_str:0000000000012e74 .LASF2100
C:\Users\SOLDER~1\AppData\Local\Temp\ccUIzJuS.s:26756  .debug_str:000000000001e9ff .LASF2101
C:\Users\SOLDER~1\AppData\Local\Temp\ccUIzJuS.s:28654  .debug_str:000000000002665d .LASF2102
C:\Users\SOLDER~1\AppData\Local\Temp\ccUIzJuS.s:22626  .debug_str:000000000000dd06 .LASF2103
C:\Users\SOLDER~1\AppData\Local\Temp\ccUIzJuS.s:20124  .debug_str:000000000000396d .LASF2104
C:\Users\SOLDER~1\AppData\Local\Temp\ccUIzJuS.s:20878  .debug_str:0000000000006a40 .LASF2105
C:\Users\SOLDER~1\AppData\Local\Temp\ccUIzJuS.s:27882  .debug_str:00000000000232ba .LASF2106
C:\Users\SOLDER~1\AppData\Local\Temp\ccUIzJuS.s:24756  .debug_str:0000000000016821 .LASF2107
C:\Users\SOLDER~1\AppData\Local\Temp\ccUIzJuS.s:23816  .debug_str:00000000000129ca .LASF2108
C:\Users\SOLDER~1\AppData\Local\Temp\ccUIzJuS.s:30416  .debug_str:000000000002d94e .LASF2109
C:\Users\SOLDER~1\AppData\Local\Temp\ccUIzJuS.s:29220  .debug_str:0000000000028bf8 .LASF2110
C:\Users\SOLDER~1\AppData\Local\Temp\ccUIzJuS.s:30076  .debug_str:000000000002c3b6 .LASF2111
C:\Users\SOLDER~1\AppData\Local\Temp\ccUIzJuS.s:24460  .debug_str:0000000000015574 .LASF2112
C:\Users\SOLDER~1\AppData\Local\Temp\ccUIzJuS.s:30606  .debug_str:000000000002e543 .LASF2113
C:\Users\SOLDER~1\AppData\Local\Temp\ccUIzJuS.s:28664  .debug_str:00000000000266e1 .LASF2114
C:\Users\SOLDER~1\AppData\Local\Temp\ccUIzJuS.s:25340  .debug_str:0000000000018e1c .LASF2115
C:\Users\SOLDER~1\AppData\Local\Temp\ccUIzJuS.s:26040  .debug_str:000000000001bac0 .LASF2116
C:\Users\SOLDER~1\AppData\Local\Temp\ccUIzJuS.s:21530  .debug_str:00000000000094cf .LASF2117
C:\Users\SOLDER~1\AppData\Local\Temp\ccUIzJuS.s:29696  .debug_str:000000000002aa98 .LASF2118
C:\Users\SOLDER~1\AppData\Local\Temp\ccUIzJuS.s:27806  .debug_str:0000000000022dd9 .LASF2119
C:\Users\SOLDER~1\AppData\Local\Temp\ccUIzJuS.s:30550  .debug_str:000000000002e1d2 .LASF2120
C:\Users\SOLDER~1\AppData\Local\Temp\ccUIzJuS.s:20940  .debug_str:0000000000006e43 .LASF2121
C:\Users\SOLDER~1\AppData\Local\Temp\ccUIzJuS.s:25458  .debug_str:0000000000019603 .LASF2122
C:\Users\SOLDER~1\AppData\Local\Temp\ccUIzJuS.s:24500  .debug_str:0000000000015801 .LASF2123
C:\Users\SOLDER~1\AppData\Local\Temp\ccUIzJuS.s:23182  .debug_str:0000000000010179 .LASF2124
GAS LISTING C:\Users\SOLDER~1\AppData\Local\Temp\ccUIzJuS.s 			page 66


C:\Users\SOLDER~1\AppData\Local\Temp\ccUIzJuS.s:30072  .debug_str:000000000002c358 .LASF2125
C:\Users\SOLDER~1\AppData\Local\Temp\ccUIzJuS.s:20012  .debug_str:0000000000003238 .LASF2126
C:\Users\SOLDER~1\AppData\Local\Temp\ccUIzJuS.s:26914  .debug_str:000000000001f490 .LASF2127
C:\Users\SOLDER~1\AppData\Local\Temp\ccUIzJuS.s:24868  .debug_str:0000000000016f22 .LASF2128
C:\Users\SOLDER~1\AppData\Local\Temp\ccUIzJuS.s:27428  .debug_str:00000000000215eb .LASF2129
C:\Users\SOLDER~1\AppData\Local\Temp\ccUIzJuS.s:23684  .debug_str:0000000000012199 .LASF2130
C:\Users\SOLDER~1\AppData\Local\Temp\ccUIzJuS.s:21964  .debug_str:000000000000b123 .LASF2131
C:\Users\SOLDER~1\AppData\Local\Temp\ccUIzJuS.s:30620  .debug_str:000000000002e61d .LASF2132
C:\Users\SOLDER~1\AppData\Local\Temp\ccUIzJuS.s:23016  .debug_str:000000000000f666 .LASF2133
C:\Users\SOLDER~1\AppData\Local\Temp\ccUIzJuS.s:24984  .debug_str:00000000000176cd .LASF2134
C:\Users\SOLDER~1\AppData\Local\Temp\ccUIzJuS.s:30470  .debug_str:000000000002dca8 .LASF2135
C:\Users\SOLDER~1\AppData\Local\Temp\ccUIzJuS.s:24320  .debug_str:0000000000014c8d .LASF2136
C:\Users\SOLDER~1\AppData\Local\Temp\ccUIzJuS.s:28666  .debug_str:0000000000026706 .LASF2137
C:\Users\SOLDER~1\AppData\Local\Temp\ccUIzJuS.s:24192  .debug_str:00000000000143ed .LASF2138
C:\Users\SOLDER~1\AppData\Local\Temp\ccUIzJuS.s:20996  .debug_str:000000000000721d .LASF2139
C:\Users\SOLDER~1\AppData\Local\Temp\ccUIzJuS.s:20074  .debug_str:0000000000003632 .LASF2140
C:\Users\SOLDER~1\AppData\Local\Temp\ccUIzJuS.s:26858  .debug_str:000000000001f0ad .LASF2141
C:\Users\SOLDER~1\AppData\Local\Temp\ccUIzJuS.s:28180  .debug_str:0000000000024661 .LASF2142
C:\Users\SOLDER~1\AppData\Local\Temp\ccUIzJuS.s:22678  .debug_str:000000000000e0a5 .LASF2143
C:\Users\SOLDER~1\AppData\Local\Temp\ccUIzJuS.s:28708  .debug_str:00000000000269f0 .LASF2144
C:\Users\SOLDER~1\AppData\Local\Temp\ccUIzJuS.s:23324  .debug_str:0000000000010abd .LASF2145
C:\Users\SOLDER~1\AppData\Local\Temp\ccUIzJuS.s:29624  .debug_str:000000000002a63f .LASF2146
C:\Users\SOLDER~1\AppData\Local\Temp\ccUIzJuS.s:29586  .debug_str:000000000002a3af .LASF2147
C:\Users\SOLDER~1\AppData\Local\Temp\ccUIzJuS.s:30316  .debug_str:000000000002d302 .LASF2148
C:\Users\SOLDER~1\AppData\Local\Temp\ccUIzJuS.s:26768  .debug_str:000000000001eada .LASF2149
C:\Users\SOLDER~1\AppData\Local\Temp\ccUIzJuS.s:22300  .debug_str:000000000000c770 .LASF2150
C:\Users\SOLDER~1\AppData\Local\Temp\ccUIzJuS.s:20558  .debug_str:0000000000005506 .LASF2151
C:\Users\SOLDER~1\AppData\Local\Temp\ccUIzJuS.s:24412  .debug_str:0000000000015233 .LASF2152
C:\Users\SOLDER~1\AppData\Local\Temp\ccUIzJuS.s:28726  .debug_str:0000000000026b23 .LASF2153
C:\Users\SOLDER~1\AppData\Local\Temp\ccUIzJuS.s:21684  .debug_str:0000000000009eac .LASF2154
C:\Users\SOLDER~1\AppData\Local\Temp\ccUIzJuS.s:20750  .debug_str:00000000000061b5 .LASF2155
C:\Users\SOLDER~1\AppData\Local\Temp\ccUIzJuS.s:28338  .debug_str:0000000000025100 .LASF2156
C:\Users\SOLDER~1\AppData\Local\Temp\ccUIzJuS.s:26314  .debug_str:000000000001cd46 .LASF2157
C:\Users\SOLDER~1\AppData\Local\Temp\ccUIzJuS.s:27784  .debug_str:0000000000022c5e .LASF2158
C:\Users\SOLDER~1\AppData\Local\Temp\ccUIzJuS.s:23180  .debug_str:0000000000010153 .LASF2159
C:\Users\SOLDER~1\AppData\Local\Temp\ccUIzJuS.s:21114  .debug_str:0000000000007922 .LASF2160
C:\Users\SOLDER~1\AppData\Local\Temp\ccUIzJuS.s:30462  .debug_str:000000000002dc2d .LASF2161
C:\Users\SOLDER~1\AppData\Local\Temp\ccUIzJuS.s:19942  .debug_str:0000000000002d9f .LASF2162
C:\Users\SOLDER~1\AppData\Local\Temp\ccUIzJuS.s:21900  .debug_str:000000000000acee .LASF2163
C:\Users\SOLDER~1\AppData\Local\Temp\ccUIzJuS.s:26860  .debug_str:000000000001f0d3 .LASF2164
C:\Users\SOLDER~1\AppData\Local\Temp\ccUIzJuS.s:19304  .debug_str:00000000000003ee .LASF2165
C:\Users\SOLDER~1\AppData\Local\Temp\ccUIzJuS.s:21214  .debug_str:0000000000007ff1 .LASF2166
C:\Users\SOLDER~1\AppData\Local\Temp\ccUIzJuS.s:26620  .debug_str:000000000001e12d .LASF2167
C:\Users\SOLDER~1\AppData\Local\Temp\ccUIzJuS.s:24212  .debug_str:0000000000014548 .LASF2168
C:\Users\SOLDER~1\AppData\Local\Temp\ccUIzJuS.s:24998  .debug_str:00000000000177c4 .LASF2169
C:\Users\SOLDER~1\AppData\Local\Temp\ccUIzJuS.s:20428  .debug_str:0000000000004d30 .LASF2170
C:\Users\SOLDER~1\AppData\Local\Temp\ccUIzJuS.s:28772  .debug_str:0000000000026e2a .LASF2171
C:\Users\SOLDER~1\AppData\Local\Temp\ccUIzJuS.s:27850  .debug_str:0000000000023098 .LASF2172
C:\Users\SOLDER~1\AppData\Local\Temp\ccUIzJuS.s:22822  .debug_str:000000000000ea46 .LASF2173
C:\Users\SOLDER~1\AppData\Local\Temp\ccUIzJuS.s:24494  .debug_str:000000000001578c .LASF2174
C:\Users\SOLDER~1\AppData\Local\Temp\ccUIzJuS.s:25888  .debug_str:000000000001b172 .LASF2175
C:\Users\SOLDER~1\AppData\Local\Temp\ccUIzJuS.s:25142  .debug_str:0000000000018170 .LASF2176
C:\Users\SOLDER~1\AppData\Local\Temp\ccUIzJuS.s:24492  .debug_str:0000000000015774 .LASF2177
C:\Users\SOLDER~1\AppData\Local\Temp\ccUIzJuS.s:26166  .debug_str:000000000001c34a .LASF2178
C:\Users\SOLDER~1\AppData\Local\Temp\ccUIzJuS.s:23166  .debug_str:0000000000010097 .LASF2179
C:\Users\SOLDER~1\AppData\Local\Temp\ccUIzJuS.s:25260  .debug_str:00000000000188cf .LASF2180
C:\Users\SOLDER~1\AppData\Local\Temp\ccUIzJuS.s:21596  .debug_str:00000000000098f6 .LASF2181
GAS LISTING C:\Users\SOLDER~1\AppData\Local\Temp\ccUIzJuS.s 			page 67


C:\Users\SOLDER~1\AppData\Local\Temp\ccUIzJuS.s:23418  .debug_str:000000000001109a .LASF2182
C:\Users\SOLDER~1\AppData\Local\Temp\ccUIzJuS.s:19820  .debug_str:0000000000002601 .LASF2183
C:\Users\SOLDER~1\AppData\Local\Temp\ccUIzJuS.s:28642  .debug_str:0000000000026594 .LASF2184
C:\Users\SOLDER~1\AppData\Local\Temp\ccUIzJuS.s:24114  .debug_str:0000000000013e97 .LASF2185
C:\Users\SOLDER~1\AppData\Local\Temp\ccUIzJuS.s:22226  .debug_str:000000000000c233 .LASF2186
C:\Users\SOLDER~1\AppData\Local\Temp\ccUIzJuS.s:21542  .debug_str:00000000000095a7 .LASF2187
C:\Users\SOLDER~1\AppData\Local\Temp\ccUIzJuS.s:27346  .debug_str:0000000000021086 .LASF2188
C:\Users\SOLDER~1\AppData\Local\Temp\ccUIzJuS.s:27124  .debug_str:0000000000020262 .LASF2189
C:\Users\SOLDER~1\AppData\Local\Temp\ccUIzJuS.s:24052  .debug_str:00000000000139f7 .LASF2190
C:\Users\SOLDER~1\AppData\Local\Temp\ccUIzJuS.s:22836  .debug_str:000000000000eb1e .LASF2191
C:\Users\SOLDER~1\AppData\Local\Temp\ccUIzJuS.s:23998  .debug_str:000000000001362f .LASF2192
C:\Users\SOLDER~1\AppData\Local\Temp\ccUIzJuS.s:28402  .debug_str:0000000000025504 .LASF2193
C:\Users\SOLDER~1\AppData\Local\Temp\ccUIzJuS.s:29730  .debug_str:000000000002acd9 .LASF2194
C:\Users\SOLDER~1\AppData\Local\Temp\ccUIzJuS.s:27062  .debug_str:000000000001fe50 .LASF2195
C:\Users\SOLDER~1\AppData\Local\Temp\ccUIzJuS.s:25914  .debug_str:000000000001b2f1 .LASF2196
C:\Users\SOLDER~1\AppData\Local\Temp\ccUIzJuS.s:22758  .debug_str:000000000000e5f3 .LASF2197
C:\Users\SOLDER~1\AppData\Local\Temp\ccUIzJuS.s:26260  .debug_str:000000000001c997 .LASF2198
C:\Users\SOLDER~1\AppData\Local\Temp\ccUIzJuS.s:28354  .debug_str:00000000000251ed .LASF2199
C:\Users\SOLDER~1\AppData\Local\Temp\ccUIzJuS.s:22296  .debug_str:000000000000c72f .LASF2200
C:\Users\SOLDER~1\AppData\Local\Temp\ccUIzJuS.s:20054  .debug_str:0000000000003504 .LASF2201
C:\Users\SOLDER~1\AppData\Local\Temp\ccUIzJuS.s:20442  .debug_str:0000000000004e02 .LASF2202
C:\Users\SOLDER~1\AppData\Local\Temp\ccUIzJuS.s:29316  .debug_str:00000000000291e2 .LASF2203
C:\Users\SOLDER~1\AppData\Local\Temp\ccUIzJuS.s:30414  .debug_str:000000000002d92d .LASF2204
C:\Users\SOLDER~1\AppData\Local\Temp\ccUIzJuS.s:24598  .debug_str:0000000000015e47 .LASF2205
C:\Users\SOLDER~1\AppData\Local\Temp\ccUIzJuS.s:19804  .debug_str:00000000000024fd .LASF2206
C:\Users\SOLDER~1\AppData\Local\Temp\ccUIzJuS.s:19766  .debug_str:000000000000227f .LASF2207
C:\Users\SOLDER~1\AppData\Local\Temp\ccUIzJuS.s:26748  .debug_str:000000000001e976 .LASF2208
C:\Users\SOLDER~1\AppData\Local\Temp\ccUIzJuS.s:25868  .debug_str:000000000001b050 .LASF2209
C:\Users\SOLDER~1\AppData\Local\Temp\ccUIzJuS.s:23320  .debug_str:0000000000010a78 .LASF2210
C:\Users\SOLDER~1\AppData\Local\Temp\ccUIzJuS.s:23574  .debug_str:0000000000011ab1 .LASF2211
C:\Users\SOLDER~1\AppData\Local\Temp\ccUIzJuS.s:24914  .debug_str:0000000000017223 .LASF2212
C:\Users\SOLDER~1\AppData\Local\Temp\ccUIzJuS.s:30054  .debug_str:000000000002c220 .LASF2213
C:\Users\SOLDER~1\AppData\Local\Temp\ccUIzJuS.s:27478  .debug_str:0000000000021914 .LASF2214
C:\Users\SOLDER~1\AppData\Local\Temp\ccUIzJuS.s:25590  .debug_str:0000000000019e0c .LASF2215
C:\Users\SOLDER~1\AppData\Local\Temp\ccUIzJuS.s:24792  .debug_str:0000000000016a8d .LASF2216
C:\Users\SOLDER~1\AppData\Local\Temp\ccUIzJuS.s:20016  .debug_str:0000000000003284 .LASF2217
C:\Users\SOLDER~1\AppData\Local\Temp\ccUIzJuS.s:24724  .debug_str:0000000000016656 .LASF2218
C:\Users\SOLDER~1\AppData\Local\Temp\ccUIzJuS.s:29272  .debug_str:0000000000028f35 .LASF2219
C:\Users\SOLDER~1\AppData\Local\Temp\ccUIzJuS.s:21870  .debug_str:000000000000ab2a .LASF2220
C:\Users\SOLDER~1\AppData\Local\Temp\ccUIzJuS.s:27036  .debug_str:000000000001fcb8 .LASF2221
C:\Users\SOLDER~1\AppData\Local\Temp\ccUIzJuS.s:28908  .debug_str:000000000002776b .LASF2222
C:\Users\SOLDER~1\AppData\Local\Temp\ccUIzJuS.s:20834  .debug_str:000000000000675b .LASF2223
C:\Users\SOLDER~1\AppData\Local\Temp\ccUIzJuS.s:21568  .debug_str:0000000000009723 .LASF2224
C:\Users\SOLDER~1\AppData\Local\Temp\ccUIzJuS.s:23732  .debug_str:0000000000012491 .LASF2225
C:\Users\SOLDER~1\AppData\Local\Temp\ccUIzJuS.s:24158  .debug_str:0000000000014166 .LASF2226
C:\Users\SOLDER~1\AppData\Local\Temp\ccUIzJuS.s:26284  .debug_str:000000000001cb3f .LASF2227
C:\Users\SOLDER~1\AppData\Local\Temp\ccUIzJuS.s:30204  .debug_str:000000000002cb85 .LASF2228
C:\Users\SOLDER~1\AppData\Local\Temp\ccUIzJuS.s:21300  .debug_str:000000000000858a .LASF2229
C:\Users\SOLDER~1\AppData\Local\Temp\ccUIzJuS.s:27358  .debug_str:0000000000021163 .LASF2230
C:\Users\SOLDER~1\AppData\Local\Temp\ccUIzJuS.s:28236  .debug_str:0000000000024a0f .LASF2231
C:\Users\SOLDER~1\AppData\Local\Temp\ccUIzJuS.s:24204  .debug_str:00000000000144ad .LASF2232
C:\Users\SOLDER~1\AppData\Local\Temp\ccUIzJuS.s:30560  .debug_str:000000000002e26a .LASF2233
C:\Users\SOLDER~1\AppData\Local\Temp\ccUIzJuS.s:23642  .debug_str:0000000000011edc .LASF2234
C:\Users\SOLDER~1\AppData\Local\Temp\ccUIzJuS.s:20524  .debug_str:0000000000005309 .LASF2235
C:\Users\SOLDER~1\AppData\Local\Temp\ccUIzJuS.s:30260  .debug_str:000000000002cf0f .LASF2236
C:\Users\SOLDER~1\AppData\Local\Temp\ccUIzJuS.s:27088  .debug_str:000000000001fffd .LASF2237
C:\Users\SOLDER~1\AppData\Local\Temp\ccUIzJuS.s:29678  .debug_str:000000000002a995 .LASF2238
GAS LISTING C:\Users\SOLDER~1\AppData\Local\Temp\ccUIzJuS.s 			page 68


C:\Users\SOLDER~1\AppData\Local\Temp\ccUIzJuS.s:22516  .debug_str:000000000000d5f0 .LASF2239
C:\Users\SOLDER~1\AppData\Local\Temp\ccUIzJuS.s:23964  .debug_str:00000000000133eb .LASF2240
C:\Users\SOLDER~1\AppData\Local\Temp\ccUIzJuS.s:19728  .debug_str:000000000000201c .LASF2241
C:\Users\SOLDER~1\AppData\Local\Temp\ccUIzJuS.s:28746  .debug_str:0000000000026c8e .LASF2242
C:\Users\SOLDER~1\AppData\Local\Temp\ccUIzJuS.s:28690  .debug_str:00000000000268b5 .LASF2243
C:\Users\SOLDER~1\AppData\Local\Temp\ccUIzJuS.s:23104  .debug_str:000000000000fc98 .LASF2244
C:\Users\SOLDER~1\AppData\Local\Temp\ccUIzJuS.s:19330  .debug_str:000000000000059d .LASF2245
C:\Users\SOLDER~1\AppData\Local\Temp\ccUIzJuS.s:19282  .debug_str:000000000000025d .LASF2246
C:\Users\SOLDER~1\AppData\Local\Temp\ccUIzJuS.s:25044  .debug_str:0000000000017adb .LASF2247
C:\Users\SOLDER~1\AppData\Local\Temp\ccUIzJuS.s:21186  .debug_str:0000000000007e0f .LASF2248
C:\Users\SOLDER~1\AppData\Local\Temp\ccUIzJuS.s:24230  .debug_str:0000000000014683 .LASF2249
C:\Users\SOLDER~1\AppData\Local\Temp\ccUIzJuS.s:22448  .debug_str:000000000000d16c .LASF2250
C:\Users\SOLDER~1\AppData\Local\Temp\ccUIzJuS.s:21936  .debug_str:000000000000af7e .LASF2251
C:\Users\SOLDER~1\AppData\Local\Temp\ccUIzJuS.s:30388  .debug_str:000000000002d780 .LASF2252
C:\Users\SOLDER~1\AppData\Local\Temp\ccUIzJuS.s:23628  .debug_str:0000000000011e1d .LASF2253
C:\Users\SOLDER~1\AppData\Local\Temp\ccUIzJuS.s:25386  .debug_str:0000000000019135 .LASF2254
C:\Users\SOLDER~1\AppData\Local\Temp\ccUIzJuS.s:24918  .debug_str:0000000000017266 .LASF2255
C:\Users\SOLDER~1\AppData\Local\Temp\ccUIzJuS.s:27370  .debug_str:000000000002124c .LASF2256
C:\Users\SOLDER~1\AppData\Local\Temp\ccUIzJuS.s:29450  .debug_str:0000000000029aae .LASF2257
C:\Users\SOLDER~1\AppData\Local\Temp\ccUIzJuS.s:22356  .debug_str:000000000000cb56 .LASF2258
C:\Users\SOLDER~1\AppData\Local\Temp\ccUIzJuS.s:19902  .debug_str:0000000000002b26 .LASF2259
C:\Users\SOLDER~1\AppData\Local\Temp\ccUIzJuS.s:27936  .debug_str:0000000000023667 .LASF2260
C:\Users\SOLDER~1\AppData\Local\Temp\ccUIzJuS.s:25506  .debug_str:00000000000198ba .LASF2261
C:\Users\SOLDER~1\AppData\Local\Temp\ccUIzJuS.s:21264  .debug_str:000000000000833c .LASF2262
C:\Users\SOLDER~1\AppData\Local\Temp\ccUIzJuS.s:20482  .debug_str:000000000000505f .LASF2263
C:\Users\SOLDER~1\AppData\Local\Temp\ccUIzJuS.s:27040  .debug_str:000000000001fcef .LASF2264
C:\Users\SOLDER~1\AppData\Local\Temp\ccUIzJuS.s:23440  .debug_str:000000000001121f .LASF2265
C:\Users\SOLDER~1\AppData\Local\Temp\ccUIzJuS.s:22982  .debug_str:000000000000f41a .LASF2266
C:\Users\SOLDER~1\AppData\Local\Temp\ccUIzJuS.s:25462  .debug_str:0000000000019652 .LASF2267
C:\Users\SOLDER~1\AppData\Local\Temp\ccUIzJuS.s:22780  .debug_str:000000000000e763 .LASF2268
C:\Users\SOLDER~1\AppData\Local\Temp\ccUIzJuS.s:19506  .debug_str:00000000000011e8 .LASF2269
C:\Users\SOLDER~1\AppData\Local\Temp\ccUIzJuS.s:28930  .debug_str:00000000000278de .LASF2270
C:\Users\SOLDER~1\AppData\Local\Temp\ccUIzJuS.s:29674  .debug_str:000000000002a96d .LASF2271
C:\Users\SOLDER~1\AppData\Local\Temp\ccUIzJuS.s:29872  .debug_str:000000000002b635 .LASF2272
C:\Users\SOLDER~1\AppData\Local\Temp\ccUIzJuS.s:28950  .debug_str:0000000000027a2b .LASF2273
C:\Users\SOLDER~1\AppData\Local\Temp\ccUIzJuS.s:19372  .debug_str:00000000000008db .LASF2274
C:\Users\SOLDER~1\AppData\Local\Temp\ccUIzJuS.s:19452  .debug_str:0000000000000e94 .LASF2275
C:\Users\SOLDER~1\AppData\Local\Temp\ccUIzJuS.s:21624  .debug_str:0000000000009aca .LASF2276
C:\Users\SOLDER~1\AppData\Local\Temp\ccUIzJuS.s:26854  .debug_str:000000000001f074 .LASF2277
C:\Users\SOLDER~1\AppData\Local\Temp\ccUIzJuS.s:21156  .debug_str:0000000000007c0b .LASF2278
C:\Users\SOLDER~1\AppData\Local\Temp\ccUIzJuS.s:30722  .debug_str:000000000002ece2 .LASF2279
C:\Users\SOLDER~1\AppData\Local\Temp\ccUIzJuS.s:23726  .debug_str:0000000000012443 .LASF2280
C:\Users\SOLDER~1\AppData\Local\Temp\ccUIzJuS.s:26922  .debug_str:000000000001f51c .LASF2281
C:\Users\SOLDER~1\AppData\Local\Temp\ccUIzJuS.s:30328  .debug_str:000000000002d3d3 .LASF2282
C:\Users\SOLDER~1\AppData\Local\Temp\ccUIzJuS.s:21096  .debug_str:0000000000007820 .LASF2283
C:\Users\SOLDER~1\AppData\Local\Temp\ccUIzJuS.s:19860  .debug_str:000000000000288f .LASF2284
C:\Users\SOLDER~1\AppData\Local\Temp\ccUIzJuS.s:27212  .debug_str:0000000000020806 .LASF2285
C:\Users\SOLDER~1\AppData\Local\Temp\ccUIzJuS.s:21056  .debug_str:00000000000075c9 .LASF2286
C:\Users\SOLDER~1\AppData\Local\Temp\ccUIzJuS.s:25004  .debug_str:0000000000017831 .LASF2287
C:\Users\SOLDER~1\AppData\Local\Temp\ccUIzJuS.s:23678  .debug_str:0000000000012135 .LASF2288
C:\Users\SOLDER~1\AppData\Local\Temp\ccUIzJuS.s:21180  .debug_str:0000000000007dbc .LASF2289
C:\Users\SOLDER~1\AppData\Local\Temp\ccUIzJuS.s:26456  .debug_str:000000000001d6ce .LASF2290
C:\Users\SOLDER~1\AppData\Local\Temp\ccUIzJuS.s:26958  .debug_str:000000000001f7b4 .LASF2291
C:\Users\SOLDER~1\AppData\Local\Temp\ccUIzJuS.s:24098  .debug_str:0000000000013d61 .LASF2292
C:\Users\SOLDER~1\AppData\Local\Temp\ccUIzJuS.s:20264  .debug_str:0000000000004296 .LASF2293
C:\Users\SOLDER~1\AppData\Local\Temp\ccUIzJuS.s:24346  .debug_str:0000000000014e3e .LASF2294
C:\Users\SOLDER~1\AppData\Local\Temp\ccUIzJuS.s:30690  .debug_str:000000000002ead9 .LASF2295
GAS LISTING C:\Users\SOLDER~1\AppData\Local\Temp\ccUIzJuS.s 			page 69


C:\Users\SOLDER~1\AppData\Local\Temp\ccUIzJuS.s:21110  .debug_str:00000000000078e7 .LASF2296
C:\Users\SOLDER~1\AppData\Local\Temp\ccUIzJuS.s:29636  .debug_str:000000000002a705 .LASF2297
C:\Users\SOLDER~1\AppData\Local\Temp\ccUIzJuS.s:27846  .debug_str:0000000000023057 .LASF2298
C:\Users\SOLDER~1\AppData\Local\Temp\ccUIzJuS.s:23968  .debug_str:000000000001342b .LASF2299
C:\Users\SOLDER~1\AppData\Local\Temp\ccUIzJuS.s:27156  .debug_str:0000000000020451 .LASF2300
C:\Users\SOLDER~1\AppData\Local\Temp\ccUIzJuS.s:29966  .debug_str:000000000002bc5f .LASF2301
C:\Users\SOLDER~1\AppData\Local\Temp\ccUIzJuS.s:23460  .debug_str:0000000000011348 .LASF2302
C:\Users\SOLDER~1\AppData\Local\Temp\ccUIzJuS.s:27630  .debug_str:0000000000022239 .LASF2303
C:\Users\SOLDER~1\AppData\Local\Temp\ccUIzJuS.s:24982  .debug_str:00000000000176ab .LASF2304
C:\Users\SOLDER~1\AppData\Local\Temp\ccUIzJuS.s:23894  .debug_str:0000000000012f58 .LASF2305
C:\Users\SOLDER~1\AppData\Local\Temp\ccUIzJuS.s:26332  .debug_str:000000000001ce9b .LASF2306
C:\Users\SOLDER~1\AppData\Local\Temp\ccUIzJuS.s:29680  .debug_str:000000000002a9b5 .LASF2307
C:\Users\SOLDER~1\AppData\Local\Temp\ccUIzJuS.s:23502  .debug_str:0000000000011630 .LASF2308
C:\Users\SOLDER~1\AppData\Local\Temp\ccUIzJuS.s:24218  .debug_str:00000000000145bf .LASF2309
C:\Users\SOLDER~1\AppData\Local\Temp\ccUIzJuS.s:22856  .debug_str:000000000000ec35 .LASF2310
C:\Users\SOLDER~1\AppData\Local\Temp\ccUIzJuS.s:21918  .debug_str:000000000000ae4b .LASF2311
C:\Users\SOLDER~1\AppData\Local\Temp\ccUIzJuS.s:29556  .debug_str:000000000002a197 .LASF2312
C:\Users\SOLDER~1\AppData\Local\Temp\ccUIzJuS.s:29700  .debug_str:000000000002aadf .LASF2313
C:\Users\SOLDER~1\AppData\Local\Temp\ccUIzJuS.s:22244  .debug_str:000000000000c381 .LASF2314
C:\Users\SOLDER~1\AppData\Local\Temp\ccUIzJuS.s:23928  .debug_str:000000000001317a .LASF2315
C:\Users\SOLDER~1\AppData\Local\Temp\ccUIzJuS.s:23632  .debug_str:0000000000011e51 .LASF2316
C:\Users\SOLDER~1\AppData\Local\Temp\ccUIzJuS.s:21130  .debug_str:0000000000007a53 .LASF2317
C:\Users\SOLDER~1\AppData\Local\Temp\ccUIzJuS.s:23434  .debug_str:00000000000111ab .LASF2318
C:\Users\SOLDER~1\AppData\Local\Temp\ccUIzJuS.s:30402  .debug_str:000000000002d867 .LASF2319
C:\Users\SOLDER~1\AppData\Local\Temp\ccUIzJuS.s:24570  .debug_str:0000000000015c86 .LASF2320
C:\Users\SOLDER~1\AppData\Local\Temp\ccUIzJuS.s:27644  .debug_str:00000000000222f6 .LASF2321
C:\Users\SOLDER~1\AppData\Local\Temp\ccUIzJuS.s:25022  .debug_str:0000000000017952 .LASF2322
C:\Users\SOLDER~1\AppData\Local\Temp\ccUIzJuS.s:28020  .debug_str:0000000000023ba9 .LASF2323
C:\Users\SOLDER~1\AppData\Local\Temp\ccUIzJuS.s:27486  .debug_str:0000000000021984 .LASF2324
C:\Users\SOLDER~1\AppData\Local\Temp\ccUIzJuS.s:26432  .debug_str:000000000001d557 .LASF2325
C:\Users\SOLDER~1\AppData\Local\Temp\ccUIzJuS.s:21066  .debug_str:0000000000007654 .LASF2326
C:\Users\SOLDER~1\AppData\Local\Temp\ccUIzJuS.s:26140  .debug_str:000000000001c167 .LASF2327
C:\Users\SOLDER~1\AppData\Local\Temp\ccUIzJuS.s:21850  .debug_str:000000000000a9d7 .LASF2328
C:\Users\SOLDER~1\AppData\Local\Temp\ccUIzJuS.s:21752  .debug_str:000000000000a334 .LASF2329
C:\Users\SOLDER~1\AppData\Local\Temp\ccUIzJuS.s:20564  .debug_str:000000000000554f .LASF2330
C:\Users\SOLDER~1\AppData\Local\Temp\ccUIzJuS.s:19604  .debug_str:0000000000001844 .LASF2331
C:\Users\SOLDER~1\AppData\Local\Temp\ccUIzJuS.s:29892  .debug_str:000000000002b76d .LASF2332
C:\Users\SOLDER~1\AppData\Local\Temp\ccUIzJuS.s:20514  .debug_str:0000000000005261 .LASF2333
C:\Users\SOLDER~1\AppData\Local\Temp\ccUIzJuS.s:29184  .debug_str:0000000000028995 .LASF2334
C:\Users\SOLDER~1\AppData\Local\Temp\ccUIzJuS.s:22134  .debug_str:000000000000bc47 .LASF2335
C:\Users\SOLDER~1\AppData\Local\Temp\ccUIzJuS.s:26918  .debug_str:000000000001f4d8 .LASF2336
C:\Users\SOLDER~1\AppData\Local\Temp\ccUIzJuS.s:22588  .debug_str:000000000000da73 .LASF2337
C:\Users\SOLDER~1\AppData\Local\Temp\ccUIzJuS.s:30386  .debug_str:000000000002d75d .LASF2338
C:\Users\SOLDER~1\AppData\Local\Temp\ccUIzJuS.s:22366  .debug_str:000000000000cc0e .LASF2339
C:\Users\SOLDER~1\AppData\Local\Temp\ccUIzJuS.s:27120  .debug_str:0000000000020216 .LASF2340
C:\Users\SOLDER~1\AppData\Local\Temp\ccUIzJuS.s:26996  .debug_str:000000000001fa11 .LASF2341
C:\Users\SOLDER~1\AppData\Local\Temp\ccUIzJuS.s:29980  .debug_str:000000000002bd2a .LASF2342
C:\Users\SOLDER~1\AppData\Local\Temp\ccUIzJuS.s:22234  .debug_str:000000000000c2c9 .LASF2343
C:\Users\SOLDER~1\AppData\Local\Temp\ccUIzJuS.s:28766  .debug_str:0000000000026dc9 .LASF2344
C:\Users\SOLDER~1\AppData\Local\Temp\ccUIzJuS.s:23356  .debug_str:0000000000010ca0 .LASF2345
C:\Users\SOLDER~1\AppData\Local\Temp\ccUIzJuS.s:22738  .debug_str:000000000000e4bc .LASF2346
C:\Users\SOLDER~1\AppData\Local\Temp\ccUIzJuS.s:29080  .debug_str:00000000000282d1 .LASF2347
C:\Users\SOLDER~1\AppData\Local\Temp\ccUIzJuS.s:27290  .debug_str:0000000000020d1d .LASF2348
C:\Users\SOLDER~1\AppData\Local\Temp\ccUIzJuS.s:21198  .debug_str:0000000000007ee5 .LASF2349
C:\Users\SOLDER~1\AppData\Local\Temp\ccUIzJuS.s:26112  .debug_str:000000000001bfa6 .LASF2350
C:\Users\SOLDER~1\AppData\Local\Temp\ccUIzJuS.s:29274  .debug_str:0000000000028f49 .LASF2351
C:\Users\SOLDER~1\AppData\Local\Temp\ccUIzJuS.s:27780  .debug_str:0000000000022c1c .LASF2352
GAS LISTING C:\Users\SOLDER~1\AppData\Local\Temp\ccUIzJuS.s 			page 70


C:\Users\SOLDER~1\AppData\Local\Temp\ccUIzJuS.s:21826  .debug_str:000000000000a854 .LASF2353
C:\Users\SOLDER~1\AppData\Local\Temp\ccUIzJuS.s:30296  .debug_str:000000000002d175 .LASF2354
C:\Users\SOLDER~1\AppData\Local\Temp\ccUIzJuS.s:22594  .debug_str:000000000000dac6 .LASF2355
C:\Users\SOLDER~1\AppData\Local\Temp\ccUIzJuS.s:25324  .debug_str:0000000000018d00 .LASF2356
C:\Users\SOLDER~1\AppData\Local\Temp\ccUIzJuS.s:22198  .debug_str:000000000000c03c .LASF2357
C:\Users\SOLDER~1\AppData\Local\Temp\ccUIzJuS.s:26090  .debug_str:000000000001be16 .LASF2358
C:\Users\SOLDER~1\AppData\Local\Temp\ccUIzJuS.s:23060  .debug_str:000000000000f97d .LASF2359
C:\Users\SOLDER~1\AppData\Local\Temp\ccUIzJuS.s:26492  .debug_str:000000000001d8fd .LASF2360
C:\Users\SOLDER~1\AppData\Local\Temp\ccUIzJuS.s:27190  .debug_str:00000000000206a0 .LASF2361
C:\Users\SOLDER~1\AppData\Local\Temp\ccUIzJuS.s:22634  .debug_str:000000000000dd8f .LASF2362
C:\Users\SOLDER~1\AppData\Local\Temp\ccUIzJuS.s:23900  .debug_str:0000000000012fb1 .LASF2363
C:\Users\SOLDER~1\AppData\Local\Temp\ccUIzJuS.s:21960  .debug_str:000000000000b0ec .LASF2364
C:\Users\SOLDER~1\AppData\Local\Temp\ccUIzJuS.s:29856  .debug_str:000000000002b54d .LASF2365
C:\Users\SOLDER~1\AppData\Local\Temp\ccUIzJuS.s:27110  .debug_str:0000000000020179 .LASF2366
C:\Users\SOLDER~1\AppData\Local\Temp\ccUIzJuS.s:25804  .debug_str:000000000001abcd .LASF2367
C:\Users\SOLDER~1\AppData\Local\Temp\ccUIzJuS.s:27204  .debug_str:000000000002077a .LASF2368
C:\Users\SOLDER~1\AppData\Local\Temp\ccUIzJuS.s:25298  .debug_str:0000000000018b6a .LASF2369
C:\Users\SOLDER~1\AppData\Local\Temp\ccUIzJuS.s:19856  .debug_str:0000000000002816 .LASF2370
C:\Users\SOLDER~1\AppData\Local\Temp\ccUIzJuS.s:20304  .debug_str:00000000000044fb .LASF2371
C:\Users\SOLDER~1\AppData\Local\Temp\ccUIzJuS.s:26724  .debug_str:000000000001e7e5 .LASF2372
C:\Users\SOLDER~1\AppData\Local\Temp\ccUIzJuS.s:20288  .debug_str:0000000000004405 .LASF2373
C:\Users\SOLDER~1\AppData\Local\Temp\ccUIzJuS.s:20126  .debug_str:0000000000003993 .LASF2374
C:\Users\SOLDER~1\AppData\Local\Temp\ccUIzJuS.s:20752  .debug_str:00000000000061db .LASF2375
C:\Users\SOLDER~1\AppData\Local\Temp\ccUIzJuS.s:21444  .debug_str:0000000000008ee8 .LASF2376
C:\Users\SOLDER~1\AppData\Local\Temp\ccUIzJuS.s:21770  .debug_str:000000000000a46e .LASF2377
C:\Users\SOLDER~1\AppData\Local\Temp\ccUIzJuS.s:20004  .debug_str:00000000000031bd .LASF2378
C:\Users\SOLDER~1\AppData\Local\Temp\ccUIzJuS.s:29574  .debug_str:000000000002a2c9 .LASF2379
C:\Users\SOLDER~1\AppData\Local\Temp\ccUIzJuS.s:28978  .debug_str:0000000000027bca .LASF2380
C:\Users\SOLDER~1\AppData\Local\Temp\ccUIzJuS.s:19360  .debug_str:0000000000000820 .LASF2381
C:\Users\SOLDER~1\AppData\Local\Temp\ccUIzJuS.s:30682  .debug_str:000000000002ea48 .LASF2382
C:\Users\SOLDER~1\AppData\Local\Temp\ccUIzJuS.s:26128  .debug_str:000000000001c09e .LASF2383
C:\Users\SOLDER~1\AppData\Local\Temp\ccUIzJuS.s:22248  .debug_str:000000000000c3d5 .LASF2384
C:\Users\SOLDER~1\AppData\Local\Temp\ccUIzJuS.s:30244  .debug_str:000000000002ce06 .LASF2385
C:\Users\SOLDER~1\AppData\Local\Temp\ccUIzJuS.s:29614  .debug_str:000000000002a59b .LASF2386
C:\Users\SOLDER~1\AppData\Local\Temp\ccUIzJuS.s:29944  .debug_str:000000000002baea .LASF2387
C:\Users\SOLDER~1\AppData\Local\Temp\ccUIzJuS.s:30424  .debug_str:000000000002d9db .LASF2388
C:\Users\SOLDER~1\AppData\Local\Temp\ccUIzJuS.s:24380  .debug_str:0000000000015050 .LASF2389
C:\Users\SOLDER~1\AppData\Local\Temp\ccUIzJuS.s:20894  .debug_str:0000000000006b3f .LASF2390
C:\Users\SOLDER~1\AppData\Local\Temp\ccUIzJuS.s:23382  .debug_str:0000000000010e4d .LASF2391
C:\Users\SOLDER~1\AppData\Local\Temp\ccUIzJuS.s:26894  .debug_str:000000000001f33c .LASF2392
C:\Users\SOLDER~1\AppData\Local\Temp\ccUIzJuS.s:20858  .debug_str:0000000000006914 .LASF2393
C:\Users\SOLDER~1\AppData\Local\Temp\ccUIzJuS.s:26196  .debug_str:000000000001c552 .LASF2394
C:\Users\SOLDER~1\AppData\Local\Temp\ccUIzJuS.s:25930  .debug_str:000000000001b3fa .LASF2395
C:\Users\SOLDER~1\AppData\Local\Temp\ccUIzJuS.s:19894  .debug_str:0000000000002ab7 .LASF2396
C:\Users\SOLDER~1\AppData\Local\Temp\ccUIzJuS.s:22666  .debug_str:000000000000dfbd .LASF2397
C:\Users\SOLDER~1\AppData\Local\Temp\ccUIzJuS.s:24010  .debug_str:00000000000136fa .LASF2398
C:\Users\SOLDER~1\AppData\Local\Temp\ccUIzJuS.s:28110  .debug_str:00000000000241a6 .LASF2399
C:\Users\SOLDER~1\AppData\Local\Temp\ccUIzJuS.s:21354  .debug_str:00000000000088d7 .LASF2400
C:\Users\SOLDER~1\AppData\Local\Temp\ccUIzJuS.s:22882  .debug_str:000000000000ede0 .LASF2401
C:\Users\SOLDER~1\AppData\Local\Temp\ccUIzJuS.s:23582  .debug_str:0000000000011b22 .LASF2402
C:\Users\SOLDER~1\AppData\Local\Temp\ccUIzJuS.s:27968  .debug_str:000000000002387c .LASF2403
C:\Users\SOLDER~1\AppData\Local\Temp\ccUIzJuS.s:23008  .debug_str:000000000000f5d5 .LASF2404
C:\Users\SOLDER~1\AppData\Local\Temp\ccUIzJuS.s:22046  .debug_str:000000000000b672 .LASF2405
C:\Users\SOLDER~1\AppData\Local\Temp\ccUIzJuS.s:28416  .debug_str:00000000000255e5 .LASF2406
C:\Users\SOLDER~1\AppData\Local\Temp\ccUIzJuS.s:26030  .debug_str:000000000001ba1e .LASF2407
C:\Users\SOLDER~1\AppData\Local\Temp\ccUIzJuS.s:24256  .debug_str:0000000000014833 .LASF2408
C:\Users\SOLDER~1\AppData\Local\Temp\ccUIzJuS.s:26402  .debug_str:000000000001d34f .LASF2409
GAS LISTING C:\Users\SOLDER~1\AppData\Local\Temp\ccUIzJuS.s 			page 71


C:\Users\SOLDER~1\AppData\Local\Temp\ccUIzJuS.s:20408  .debug_str:0000000000004be7 .LASF2410
C:\Users\SOLDER~1\AppData\Local\Temp\ccUIzJuS.s:20854  .debug_str:00000000000068da .LASF2411
C:\Users\SOLDER~1\AppData\Local\Temp\ccUIzJuS.s:21948  .debug_str:000000000000b031 .LASF2412
C:\Users\SOLDER~1\AppData\Local\Temp\ccUIzJuS.s:22274  .debug_str:000000000000c5b9 .LASF2413
C:\Users\SOLDER~1\AppData\Local\Temp\ccUIzJuS.s:27270  .debug_str:0000000000020bd5 .LASF2414
C:\Users\SOLDER~1\AppData\Local\Temp\ccUIzJuS.s:20998  .debug_str:0000000000007243 .LASF2415
C:\Users\SOLDER~1\AppData\Local\Temp\ccUIzJuS.s:20274  .debug_str:000000000000432b .LASF2416
C:\Users\SOLDER~1\AppData\Local\Temp\ccUIzJuS.s:26006  .debug_str:000000000001b8c4 .LASF2417
C:\Users\SOLDER~1\AppData\Local\Temp\ccUIzJuS.s:23096  .debug_str:000000000000fbf4 .LASF2418
C:\Users\SOLDER~1\AppData\Local\Temp\ccUIzJuS.s:25780  .debug_str:000000000001aa57 .LASF2419
C:\Users\SOLDER~1\AppData\Local\Temp\ccUIzJuS.s:26738  .debug_str:000000000001e8df .LASF2420
C:\Users\SOLDER~1\AppData\Local\Temp\ccUIzJuS.s:19470  .debug_str:0000000000000fac .LASF2421
C:\Users\SOLDER~1\AppData\Local\Temp\ccUIzJuS.s:19586  .debug_str:0000000000001716 .LASF2422
C:\Users\SOLDER~1\AppData\Local\Temp\ccUIzJuS.s:20458  .debug_str:0000000000004ef8 .LASF2423
C:\Users\SOLDER~1\AppData\Local\Temp\ccUIzJuS.s:30448  .debug_str:000000000002db56 .LASF2424
C:\Users\SOLDER~1\AppData\Local\Temp\ccUIzJuS.s:22070  .debug_str:000000000000b7e1 .LASF2425
C:\Users\SOLDER~1\AppData\Local\Temp\ccUIzJuS.s:24140  .debug_str:0000000000014059 .LASF2426
C:\Users\SOLDER~1\AppData\Local\Temp\ccUIzJuS.s:24960  .debug_str:0000000000017546 .LASF2427
C:\Users\SOLDER~1\AppData\Local\Temp\ccUIzJuS.s:20850  .debug_str:000000000000689a .LASF2428
C:\Users\SOLDER~1\AppData\Local\Temp\ccUIzJuS.s:19588  .debug_str:0000000000001738 .LASF2429
C:\Users\SOLDER~1\AppData\Local\Temp\ccUIzJuS.s:24334  .debug_str:0000000000014d71 .LASF2430
C:\Users\SOLDER~1\AppData\Local\Temp\ccUIzJuS.s:26418  .debug_str:000000000001d46b .LASF2431
C:\Users\SOLDER~1\AppData\Local\Temp\ccUIzJuS.s:19284  .debug_str:000000000000027e .LASF2432
C:\Users\SOLDER~1\AppData\Local\Temp\ccUIzJuS.s:19472  .debug_str:0000000000000fc4 .LASF2433
C:\Users\SOLDER~1\AppData\Local\Temp\ccUIzJuS.s:26004  .debug_str:000000000001b89f .LASF2434
C:\Users\SOLDER~1\AppData\Local\Temp\ccUIzJuS.s:30056  .debug_str:000000000002c233 .LASF2435
C:\Users\SOLDER~1\AppData\Local\Temp\ccUIzJuS.s:19740  .debug_str:00000000000020ab .LASF2436
C:\Users\SOLDER~1\AppData\Local\Temp\ccUIzJuS.s:30356  .debug_str:000000000002d59c .LASF2437
C:\Users\SOLDER~1\AppData\Local\Temp\ccUIzJuS.s:28524  .debug_str:0000000000025d39 .LASF2438
C:\Users\SOLDER~1\AppData\Local\Temp\ccUIzJuS.s:29684  .debug_str:000000000002a9ee .LASF2439
C:\Users\SOLDER~1\AppData\Local\Temp\ccUIzJuS.s:25158  .debug_str:0000000000018281 .LASF2440
C:\Users\SOLDER~1\AppData\Local\Temp\ccUIzJuS.s:22436  .debug_str:000000000000d0ab .LASF2441
C:\Users\SOLDER~1\AppData\Local\Temp\ccUIzJuS.s:24828  .debug_str:0000000000016cbf .LASF2442
C:\Users\SOLDER~1\AppData\Local\Temp\ccUIzJuS.s:30008  .debug_str:000000000002befe .LASF2443
C:\Users\SOLDER~1\AppData\Local\Temp\ccUIzJuS.s:19984  .debug_str:000000000000306d .LASF2444
C:\Users\SOLDER~1\AppData\Local\Temp\ccUIzJuS.s:22438  .debug_str:000000000000d0c1 .LASF2445
C:\Users\SOLDER~1\AppData\Local\Temp\ccUIzJuS.s:26520  .debug_str:000000000001da8a .LASF2446
C:\Users\SOLDER~1\AppData\Local\Temp\ccUIzJuS.s:22144  .debug_str:000000000000bceb .LASF2447
C:\Users\SOLDER~1\AppData\Local\Temp\ccUIzJuS.s:27308  .debug_str:0000000000020e39 .LASF2448
C:\Users\SOLDER~1\AppData\Local\Temp\ccUIzJuS.s:27052  .debug_str:000000000001fdb4 .LASF2449
C:\Users\SOLDER~1\AppData\Local\Temp\ccUIzJuS.s:24328  .debug_str:0000000000014d1c .LASF2450
C:\Users\SOLDER~1\AppData\Local\Temp\ccUIzJuS.s:24688  .debug_str:0000000000016431 .LASF2451
C:\Users\SOLDER~1\AppData\Local\Temp\ccUIzJuS.s:23904  .debug_str:0000000000012fef .LASF2452
C:\Users\SOLDER~1\AppData\Local\Temp\ccUIzJuS.s:28130  .debug_str:00000000000242fa .LASF2453
C:\Users\SOLDER~1\AppData\Local\Temp\ccUIzJuS.s:22526  .debug_str:000000000000d67f .LASF2454
C:\Users\SOLDER~1\AppData\Local\Temp\ccUIzJuS.s:29792  .debug_str:000000000002b0c2 .LASF2455
C:\Users\SOLDER~1\AppData\Local\Temp\ccUIzJuS.s:28318  .debug_str:0000000000024faa .LASF2456
C:\Users\SOLDER~1\AppData\Local\Temp\ccUIzJuS.s:22750  .debug_str:000000000000e591 .LASF2457
C:\Users\SOLDER~1\AppData\Local\Temp\ccUIzJuS.s:29154  .debug_str:0000000000028772 .LASF2458
C:\Users\SOLDER~1\AppData\Local\Temp\ccUIzJuS.s:22442  .debug_str:000000000000d0fe .LASF2459
C:\Users\SOLDER~1\AppData\Local\Temp\ccUIzJuS.s:27184  .debug_str:0000000000020638 .LASF2460
C:\Users\SOLDER~1\AppData\Local\Temp\ccUIzJuS.s:19690  .debug_str:0000000000001dbc .LASF2461
C:\Users\SOLDER~1\AppData\Local\Temp\ccUIzJuS.s:28638  .debug_str:0000000000026542 .LASF2462
C:\Users\SOLDER~1\AppData\Local\Temp\ccUIzJuS.s:22312  .debug_str:000000000000c83b .LASF2463
C:\Users\SOLDER~1\AppData\Local\Temp\ccUIzJuS.s:28854  .debug_str:0000000000027392 .LASF2464
C:\Users\SOLDER~1\AppData\Local\Temp\ccUIzJuS.s:21384  .debug_str:0000000000008ae4 .LASF2465
C:\Users\SOLDER~1\AppData\Local\Temp\ccUIzJuS.s:22570  .debug_str:000000000000d967 .LASF2466
GAS LISTING C:\Users\SOLDER~1\AppData\Local\Temp\ccUIzJuS.s 			page 72


C:\Users\SOLDER~1\AppData\Local\Temp\ccUIzJuS.s:23020  .debug_str:000000000000f6ae .LASF2467
C:\Users\SOLDER~1\AppData\Local\Temp\ccUIzJuS.s:21256  .debug_str:00000000000082a2 .LASF2468
C:\Users\SOLDER~1\AppData\Local\Temp\ccUIzJuS.s:20166  .debug_str:0000000000003c2d .LASF2469
C:\Users\SOLDER~1\AppData\Local\Temp\ccUIzJuS.s:26186  .debug_str:000000000001c4b5 .LASF2470
C:\Users\SOLDER~1\AppData\Local\Temp\ccUIzJuS.s:28574  .debug_str:00000000000260c9 .LASF2471
C:\Users\SOLDER~1\AppData\Local\Temp\ccUIzJuS.s:27602  .debug_str:0000000000022089 .LASF2472
C:\Users\SOLDER~1\AppData\Local\Temp\ccUIzJuS.s:26072  .debug_str:000000000001bce5 .LASF2473
C:\Users\SOLDER~1\AppData\Local\Temp\ccUIzJuS.s:24232  .debug_str:00000000000146a4 .LASF2474
C:\Users\SOLDER~1\AppData\Local\Temp\ccUIzJuS.s:30180  .debug_str:000000000002ca1a .LASF2475
C:\Users\SOLDER~1\AppData\Local\Temp\ccUIzJuS.s:30798  .debug_str:000000000002f1b3 .LASF2476
C:\Users\SOLDER~1\AppData\Local\Temp\ccUIzJuS.s:29870  .debug_str:000000000002b61d .LASF2477
C:\Users\SOLDER~1\AppData\Local\Temp\ccUIzJuS.s:20102  .debug_str:00000000000037fe .LASF2478
C:\Users\SOLDER~1\AppData\Local\Temp\ccUIzJuS.s:30440  .debug_str:000000000002dae7 .LASF2479
C:\Users\SOLDER~1\AppData\Local\Temp\ccUIzJuS.s:27060  .debug_str:000000000001fe2f .LASF2480
C:\Users\SOLDER~1\AppData\Local\Temp\ccUIzJuS.s:22520  .debug_str:000000000000d62b .LASF2481
C:\Users\SOLDER~1\AppData\Local\Temp\ccUIzJuS.s:28092  .debug_str:000000000002406a .LASF2482
C:\Users\SOLDER~1\AppData\Local\Temp\ccUIzJuS.s:24264  .debug_str:00000000000148ab .LASF2483
C:\Users\SOLDER~1\AppData\Local\Temp\ccUIzJuS.s:27414  .debug_str:00000000000214ff .LASF2484
C:\Users\SOLDER~1\AppData\Local\Temp\ccUIzJuS.s:25870  .debug_str:000000000001b064 .LASF2485
C:\Users\SOLDER~1\AppData\Local\Temp\ccUIzJuS.s:21144  .debug_str:0000000000007b35 .LASF2486
C:\Users\SOLDER~1\AppData\Local\Temp\ccUIzJuS.s:28598  .debug_str:0000000000026253 .LASF2487
C:\Users\SOLDER~1\AppData\Local\Temp\ccUIzJuS.s:25944  .debug_str:000000000001b4d3 .LASF2488
C:\Users\SOLDER~1\AppData\Local\Temp\ccUIzJuS.s:25378  .debug_str:00000000000190ba .LASF2489
C:\Users\SOLDER~1\AppData\Local\Temp\ccUIzJuS.s:30106  .debug_str:000000000002c564 .LASF2490
C:\Users\SOLDER~1\AppData\Local\Temp\ccUIzJuS.s:30098  .debug_str:000000000002c4f7 .LASF2491
C:\Users\SOLDER~1\AppData\Local\Temp\ccUIzJuS.s:25550  .debug_str:0000000000019b74 .LASF2492
C:\Users\SOLDER~1\AppData\Local\Temp\ccUIzJuS.s:30720  .debug_str:000000000002ecbd .LASF2493
C:\Users\SOLDER~1\AppData\Local\Temp\ccUIzJuS.s:20194  .debug_str:0000000000003e13 .LASF2494
C:\Users\SOLDER~1\AppData\Local\Temp\ccUIzJuS.s:26066  .debug_str:000000000001bc88 .LASF2495
C:\Users\SOLDER~1\AppData\Local\Temp\ccUIzJuS.s:25452  .debug_str:0000000000019593 .LASF2496
C:\Users\SOLDER~1\AppData\Local\Temp\ccUIzJuS.s:27232  .debug_str:000000000002094d .LASF2497
C:\Users\SOLDER~1\AppData\Local\Temp\ccUIzJuS.s:25498  .debug_str:0000000000019853 .LASF2498
C:\Users\SOLDER~1\AppData\Local\Temp\ccUIzJuS.s:28526  .debug_str:0000000000025d5b .LASF2499
C:\Users\SOLDER~1\AppData\Local\Temp\ccUIzJuS.s:29156  .debug_str:0000000000028795 .LASF2500
C:\Users\SOLDER~1\AppData\Local\Temp\ccUIzJuS.s:25594  .debug_str:0000000000019e3e .LASF2501
C:\Users\SOLDER~1\AppData\Local\Temp\ccUIzJuS.s:30122  .debug_str:000000000002c670 .LASF2502
C:\Users\SOLDER~1\AppData\Local\Temp\ccUIzJuS.s:22206  .debug_str:000000000000c0d7 .LASF2503
C:\Users\SOLDER~1\AppData\Local\Temp\ccUIzJuS.s:25136  .debug_str:0000000000018100 .LASF2504
C:\Users\SOLDER~1\AppData\Local\Temp\ccUIzJuS.s:26320  .debug_str:000000000001cdb1 .LASF2505
C:\Users\SOLDER~1\AppData\Local\Temp\ccUIzJuS.s:23544  .debug_str:00000000000118cd .LASF2506
C:\Users\SOLDER~1\AppData\Local\Temp\ccUIzJuS.s:25940  .debug_str:000000000001b498 .LASF2507
C:\Users\SOLDER~1\AppData\Local\Temp\ccUIzJuS.s:24350  .debug_str:0000000000014e7c .LASF2508
C:\Users\SOLDER~1\AppData\Local\Temp\ccUIzJuS.s:21746  .debug_str:000000000000a2e5 .LASF2509
C:\Users\SOLDER~1\AppData\Local\Temp\ccUIzJuS.s:21466  .debug_str:0000000000009060 .LASF2510
C:\Users\SOLDER~1\AppData\Local\Temp\ccUIzJuS.s:19398  .debug_str:0000000000000ada .LASF2511
C:\Users\SOLDER~1\AppData\Local\Temp\ccUIzJuS.s:20812  .debug_str:00000000000065c5 .LASF2512
C:\Users\SOLDER~1\AppData\Local\Temp\ccUIzJuS.s:20386  .debug_str:0000000000004a61 .LASF2513
C:\Users\SOLDER~1\AppData\Local\Temp\ccUIzJuS.s:20128  .debug_str:00000000000039b8 .LASF2514
C:\Users\SOLDER~1\AppData\Local\Temp\ccUIzJuS.s:22004  .debug_str:000000000000b3ad .LASF2515
C:\Users\SOLDER~1\AppData\Local\Temp\ccUIzJuS.s:25404  .debug_str:0000000000019248 .LASF2516
C:\Users\SOLDER~1\AppData\Local\Temp\ccUIzJuS.s:20566  .debug_str:0000000000005570 .LASF2517
C:\Users\SOLDER~1\AppData\Local\Temp\ccUIzJuS.s:22772  .debug_str:000000000000e6d2 .LASF2518
C:\Users\SOLDER~1\AppData\Local\Temp\ccUIzJuS.s:28276  .debug_str:0000000000024cb6 .LASF2519
C:\Users\SOLDER~1\AppData\Local\Temp\ccUIzJuS.s:21518  .debug_str:00000000000093ed .LASF2520
C:\Users\SOLDER~1\AppData\Local\Temp\ccUIzJuS.s:29794  .debug_str:000000000002b0da .LASF2521
C:\Users\SOLDER~1\AppData\Local\Temp\ccUIzJuS.s:22280  .debug_str:000000000000c60c .LASF2522
C:\Users\SOLDER~1\AppData\Local\Temp\ccUIzJuS.s:28050  .debug_str:0000000000023da2 .LASF2523
GAS LISTING C:\Users\SOLDER~1\AppData\Local\Temp\ccUIzJuS.s 			page 73


C:\Users\SOLDER~1\AppData\Local\Temp\ccUIzJuS.s:23094  .debug_str:000000000000fbcf .LASF2524
C:\Users\SOLDER~1\AppData\Local\Temp\ccUIzJuS.s:28706  .debug_str:00000000000269d9 .LASF2525
C:\Users\SOLDER~1\AppData\Local\Temp\ccUIzJuS.s:20410  .debug_str:0000000000004c0c .LASF2526
C:\Users\SOLDER~1\AppData\Local\Temp\ccUIzJuS.s:20034  .debug_str:00000000000033bf .LASF2527
C:\Users\SOLDER~1\AppData\Local\Temp\ccUIzJuS.s:27460  .debug_str:00000000000217f8 .LASF2528
C:\Users\SOLDER~1\AppData\Local\Temp\ccUIzJuS.s:25424  .debug_str:0000000000019395 .LASF2529
C:\Users\SOLDER~1\AppData\Local\Temp\ccUIzJuS.s:20488  .debug_str:00000000000050a5 .LASF2530
C:\Users\SOLDER~1\AppData\Local\Temp\ccUIzJuS.s:29236  .debug_str:0000000000028cf9 .LASF2531
C:\Users\SOLDER~1\AppData\Local\Temp\ccUIzJuS.s:20438  .debug_str:0000000000004dc5 .LASF2532
C:\Users\SOLDER~1\AppData\Local\Temp\ccUIzJuS.s:30580  .debug_str:000000000002e3b4 .LASF2533
C:\Users\SOLDER~1\AppData\Local\Temp\ccUIzJuS.s:19644  .debug_str:0000000000001a9f .LASF2534
C:\Users\SOLDER~1\AppData\Local\Temp\ccUIzJuS.s:20294  .debug_str:0000000000004463 .LASF2535
C:\Users\SOLDER~1\AppData\Local\Temp\ccUIzJuS.s:25600  .debug_str:0000000000019e8a .LASF2536
C:\Users\SOLDER~1\AppData\Local\Temp\ccUIzJuS.s:27166  .debug_str:0000000000020507 .LASF2537
C:\Users\SOLDER~1\AppData\Local\Temp\ccUIzJuS.s:19962  .debug_str:0000000000002f1e .LASF2538
C:\Users\SOLDER~1\AppData\Local\Temp\ccUIzJuS.s:22994  .debug_str:000000000000f503 .LASF2539
C:\Users\SOLDER~1\AppData\Local\Temp\ccUIzJuS.s:25916  .debug_str:000000000001b312 .LASF2540
C:\Users\SOLDER~1\AppData\Local\Temp\ccUIzJuS.s:29840  .debug_str:000000000002b44a .LASF2541
C:\Users\SOLDER~1\AppData\Local\Temp\ccUIzJuS.s:20186  .debug_str:0000000000003d8a .LASF2542
C:\Users\SOLDER~1\AppData\Local\Temp\ccUIzJuS.s:25636  .debug_str:000000000001a0d2 .LASF2543
C:\Users\SOLDER~1\AppData\Local\Temp\ccUIzJuS.s:23734  .debug_str:00000000000124a5 .LASF2544
C:\Users\SOLDER~1\AppData\Local\Temp\ccUIzJuS.s:19478  .debug_str:0000000000001024 .LASF2545
C:\Users\SOLDER~1\AppData\Local\Temp\ccUIzJuS.s:29958  .debug_str:000000000002bbd6 .LASF2546
C:\Users\SOLDER~1\AppData\Local\Temp\ccUIzJuS.s:21062  .debug_str:000000000000761c .LASF2547
C:\Users\SOLDER~1\AppData\Local\Temp\ccUIzJuS.s:29142  .debug_str:00000000000286be .LASF2548
C:\Users\SOLDER~1\AppData\Local\Temp\ccUIzJuS.s:22638  .debug_str:000000000000ddd5 .LASF2549
C:\Users\SOLDER~1\AppData\Local\Temp\ccUIzJuS.s:28494  .debug_str:0000000000025b3f .LASF2550
C:\Users\SOLDER~1\AppData\Local\Temp\ccUIzJuS.s:24182  .debug_str:0000000000014351 .LASF2551
C:\Users\SOLDER~1\AppData\Local\Temp\ccUIzJuS.s:21950  .debug_str:000000000000b051 .LASF2552
C:\Users\SOLDER~1\AppData\Local\Temp\ccUIzJuS.s:25788  .debug_str:000000000001aabb .LASF2553
C:\Users\SOLDER~1\AppData\Local\Temp\ccUIzJuS.s:21818  .debug_str:000000000000a7d8 .LASF2554
C:\Users\SOLDER~1\AppData\Local\Temp\ccUIzJuS.s:27258  .debug_str:0000000000020b0e .LASF2555
C:\Users\SOLDER~1\AppData\Local\Temp\ccUIzJuS.s:20530  .debug_str:000000000000536f .LASF2556
C:\Users\SOLDER~1\AppData\Local\Temp\ccUIzJuS.s:25508  .debug_str:00000000000198ce .LASF2557
C:\Users\SOLDER~1\AppData\Local\Temp\ccUIzJuS.s:25552  .debug_str:0000000000019b97 .LASF2558
C:\Users\SOLDER~1\AppData\Local\Temp\ccUIzJuS.s:25886  .debug_str:000000000001b15b .LASF2559
C:\Users\SOLDER~1\AppData\Local\Temp\ccUIzJuS.s:20030  .debug_str:0000000000003374 .LASF2560
C:\Users\SOLDER~1\AppData\Local\Temp\ccUIzJuS.s:27354  .debug_str:0000000000021128 .LASF2561
C:\Users\SOLDER~1\AppData\Local\Temp\ccUIzJuS.s:25140  .debug_str:000000000001814b .LASF2562
C:\Users\SOLDER~1\AppData\Local\Temp\ccUIzJuS.s:28968  .debug_str:0000000000027b39 .LASF2563
C:\Users\SOLDER~1\AppData\Local\Temp\ccUIzJuS.s:30186  .debug_str:000000000002ca5b .LASF2564
C:\Users\SOLDER~1\AppData\Local\Temp\ccUIzJuS.s:30614  .debug_str:000000000002e5c2 .LASF2565
C:\Users\SOLDER~1\AppData\Local\Temp\ccUIzJuS.s:23594  .debug_str:0000000000011beb .LASF2566
C:\Users\SOLDER~1\AppData\Local\Temp\ccUIzJuS.s:20536  .debug_str:00000000000053c8 .LASF2567
C:\Users\SOLDER~1\AppData\Local\Temp\ccUIzJuS.s:28636  .debug_str:000000000002651d .LASF2568
C:\Users\SOLDER~1\AppData\Local\Temp\ccUIzJuS.s:22148  .debug_str:000000000000bd28 .LASF2569
C:\Users\SOLDER~1\AppData\Local\Temp\ccUIzJuS.s:22174  .debug_str:000000000000beaa .LASF2570
C:\Users\SOLDER~1\AppData\Local\Temp\ccUIzJuS.s:23756  .debug_str:0000000000012661 .LASF2571
C:\Users\SOLDER~1\AppData\Local\Temp\ccUIzJuS.s:27152  .debug_str:0000000000020408 .LASF2572
C:\Users\SOLDER~1\AppData\Local\Temp\ccUIzJuS.s:26604  .debug_str:000000000001e049 .LASF2573
C:\Users\SOLDER~1\AppData\Local\Temp\ccUIzJuS.s:19920  .debug_str:0000000000002c26 .LASF2574
C:\Users\SOLDER~1\AppData\Local\Temp\ccUIzJuS.s:24742  .debug_str:0000000000016755 .LASF2575
C:\Users\SOLDER~1\AppData\Local\Temp\ccUIzJuS.s:25966  .debug_str:000000000001b640 .LASF2576
C:\Users\SOLDER~1\AppData\Local\Temp\ccUIzJuS.s:22802  .debug_str:000000000000e902 .LASF2577
C:\Users\SOLDER~1\AppData\Local\Temp\ccUIzJuS.s:26610  .debug_str:000000000001e099 .LASF2578
C:\Users\SOLDER~1\AppData\Local\Temp\ccUIzJuS.s:20914  .debug_str:0000000000006c7e .LASF2579
C:\Users\SOLDER~1\AppData\Local\Temp\ccUIzJuS.s:22284  .debug_str:000000000000c64c .LASF2580
GAS LISTING C:\Users\SOLDER~1\AppData\Local\Temp\ccUIzJuS.s 			page 74


C:\Users\SOLDER~1\AppData\Local\Temp\ccUIzJuS.s:30590  .debug_str:000000000002e442 .LASF2581
C:\Users\SOLDER~1\AppData\Local\Temp\ccUIzJuS.s:28334  .debug_str:00000000000250bc .LASF2582
C:\Users\SOLDER~1\AppData\Local\Temp\ccUIzJuS.s:23596  .debug_str:0000000000011c10 .LASF2583
C:\Users\SOLDER~1\AppData\Local\Temp\ccUIzJuS.s:27406  .debug_str:000000000002148b .LASF2584
C:\Users\SOLDER~1\AppData\Local\Temp\ccUIzJuS.s:26766  .debug_str:000000000001eac1 .LASF2585
C:\Users\SOLDER~1\AppData\Local\Temp\ccUIzJuS.s:22928  .debug_str:000000000000f0c3 .LASF2586
C:\Users\SOLDER~1\AppData\Local\Temp\ccUIzJuS.s:24894  .debug_str:00000000000170e8 .LASF2587
C:\Users\SOLDER~1\AppData\Local\Temp\ccUIzJuS.s:19558  .debug_str:000000000000154b .LASF2588
C:\Users\SOLDER~1\AppData\Local\Temp\ccUIzJuS.s:22962  .debug_str:000000000000f2f5 .LASF2589
C:\Users\SOLDER~1\AppData\Local\Temp\ccUIzJuS.s:22740  .debug_str:000000000000e4dc .LASF2590
C:\Users\SOLDER~1\AppData\Local\Temp\ccUIzJuS.s:25750  .debug_str:000000000001a857 .LASF2591
C:\Users\SOLDER~1\AppData\Local\Temp\ccUIzJuS.s:20470  .debug_str:0000000000004fa0 .LASF2592
C:\Users\SOLDER~1\AppData\Local\Temp\ccUIzJuS.s:27002  .debug_str:000000000001fa76 .LASF2593
C:\Users\SOLDER~1\AppData\Local\Temp\ccUIzJuS.s:26704  .debug_str:000000000001e65d .LASF2594
C:\Users\SOLDER~1\AppData\Local\Temp\ccUIzJuS.s:25310  .debug_str:0000000000018c29 .LASF2595
C:\Users\SOLDER~1\AppData\Local\Temp\ccUIzJuS.s:19662  .debug_str:0000000000001bde .LASF2596
C:\Users\SOLDER~1\AppData\Local\Temp\ccUIzJuS.s:23638  .debug_str:0000000000011ead .LASF2597
C:\Users\SOLDER~1\AppData\Local\Temp\ccUIzJuS.s:30188  .debug_str:000000000002ca80 .LASF2598
C:\Users\SOLDER~1\AppData\Local\Temp\ccUIzJuS.s:21992  .debug_str:000000000000b2df .LASF2599
C:\Users\SOLDER~1\AppData\Local\Temp\ccUIzJuS.s:26326  .debug_str:000000000001ce16 .LASF2600
C:\Users\SOLDER~1\AppData\Local\Temp\ccUIzJuS.s:20254  .debug_str:0000000000004203 .LASF2601
C:\Users\SOLDER~1\AppData\Local\Temp\ccUIzJuS.s:22476  .debug_str:000000000000d343 .LASF2602
C:\Users\SOLDER~1\AppData\Local\Temp\ccUIzJuS.s:30202  .debug_str:000000000002cb6a .LASF2603
C:\Users\SOLDER~1\AppData\Local\Temp\ccUIzJuS.s:25796  .debug_str:000000000001ab43 .LASF2604
C:\Users\SOLDER~1\AppData\Local\Temp\ccUIzJuS.s:25032  .debug_str:0000000000017a19 .LASF2605
C:\Users\SOLDER~1\AppData\Local\Temp\ccUIzJuS.s:21138  .debug_str:0000000000007abe .LASF2606
C:\Users\SOLDER~1\AppData\Local\Temp\ccUIzJuS.s:26810  .debug_str:000000000001ed88 .LASF2607
C:\Users\SOLDER~1\AppData\Local\Temp\ccUIzJuS.s:30636  .debug_str:000000000002e72a .LASF2608
C:\Users\SOLDER~1\AppData\Local\Temp\ccUIzJuS.s:25212  .debug_str:00000000000185c3 .LASF2609
C:\Users\SOLDER~1\AppData\Local\Temp\ccUIzJuS.s:24240  .debug_str:0000000000014741 .LASF2610
C:\Users\SOLDER~1\AppData\Local\Temp\ccUIzJuS.s:23536  .debug_str:0000000000011839 .LASF2611
C:\Users\SOLDER~1\AppData\Local\Temp\ccUIzJuS.s:29474  .debug_str:0000000000029bf7 .LASF2612
C:\Users\SOLDER~1\AppData\Local\Temp\ccUIzJuS.s:23056  .debug_str:000000000000f942 .LASF2613
C:\Users\SOLDER~1\AppData\Local\Temp\ccUIzJuS.s:20258  .debug_str:0000000000004238 .LASF2614
C:\Users\SOLDER~1\AppData\Local\Temp\ccUIzJuS.s:19334  .debug_str:00000000000005e6 .LASF2615
C:\Users\SOLDER~1\AppData\Local\Temp\ccUIzJuS.s:26208  .debug_str:000000000001c604 .LASF2616
C:\Users\SOLDER~1\AppData\Local\Temp\ccUIzJuS.s:28946  .debug_str:00000000000279e2 .LASF2617
C:\Users\SOLDER~1\AppData\Local\Temp\ccUIzJuS.s:20788  .debug_str:000000000000642f .LASF2618
C:\Users\SOLDER~1\AppData\Local\Temp\ccUIzJuS.s:27048  .debug_str:000000000001fd6f .LASF2619
C:\Users\SOLDER~1\AppData\Local\Temp\ccUIzJuS.s:27104  .debug_str:0000000000020118 .LASF2620
C:\Users\SOLDER~1\AppData\Local\Temp\ccUIzJuS.s:25236  .debug_str:0000000000018763 .LASF2621
C:\Users\SOLDER~1\AppData\Local\Temp\ccUIzJuS.s:27058  .debug_str:000000000001fe09 .LASF2622
C:\Users\SOLDER~1\AppData\Local\Temp\ccUIzJuS.s:22406  .debug_str:000000000000ceab .LASF2623
C:\Users\SOLDER~1\AppData\Local\Temp\ccUIzJuS.s:27752  .debug_str:0000000000022a30 .LASF2624
C:\Users\SOLDER~1\AppData\Local\Temp\ccUIzJuS.s:21374  .debug_str:0000000000008a48 .LASF2625
C:\Users\SOLDER~1\AppData\Local\Temp\ccUIzJuS.s:23298  .debug_str:0000000000010905 .LASF2626
C:\Users\SOLDER~1\AppData\Local\Temp\ccUIzJuS.s:19494  .debug_str:0000000000001110 .LASF2627
C:\Users\SOLDER~1\AppData\Local\Temp\ccUIzJuS.s:19896  .debug_str:0000000000002ad9 .LASF2628
C:\Users\SOLDER~1\AppData\Local\Temp\ccUIzJuS.s:29102  .debug_str:000000000002843b .LASF2629
C:\Users\SOLDER~1\AppData\Local\Temp\ccUIzJuS.s:29598  .debug_str:000000000002a488 .LASF2630
C:\Users\SOLDER~1\AppData\Local\Temp\ccUIzJuS.s:27280  .debug_str:0000000000020c8d .LASF2631
C:\Users\SOLDER~1\AppData\Local\Temp\ccUIzJuS.s:20744  .debug_str:0000000000006147 .LASF2632
C:\Users\SOLDER~1\AppData\Local\Temp\ccUIzJuS.s:30760  .debug_str:000000000002ef1b .LASF2633
C:\Users\SOLDER~1\AppData\Local\Temp\ccUIzJuS.s:23452  .debug_str:00000000000112bb .LASF2634
C:\Users\SOLDER~1\AppData\Local\Temp\ccUIzJuS.s:22844  .debug_str:000000000000eb6f .LASF2635
C:\Users\SOLDER~1\AppData\Local\Temp\ccUIzJuS.s:27896  .debug_str:00000000000233be .LASF2636
C:\Users\SOLDER~1\AppData\Local\Temp\ccUIzJuS.s:29034  .debug_str:0000000000027fb9 .LASF2637
GAS LISTING C:\Users\SOLDER~1\AppData\Local\Temp\ccUIzJuS.s 			page 75


C:\Users\SOLDER~1\AppData\Local\Temp\ccUIzJuS.s:26986  .debug_str:000000000001f984 .LASF2638
C:\Users\SOLDER~1\AppData\Local\Temp\ccUIzJuS.s:19590  .debug_str:000000000000175d .LASF2639
C:\Users\SOLDER~1\AppData\Local\Temp\ccUIzJuS.s:24988  .debug_str:0000000000017718 .LASF2640
C:\Users\SOLDER~1\AppData\Local\Temp\ccUIzJuS.s:29496  .debug_str:0000000000029d70 .LASF2641
C:\Users\SOLDER~1\AppData\Local\Temp\ccUIzJuS.s:21018  .debug_str:000000000000738d .LASF2642
C:\Users\SOLDER~1\AppData\Local\Temp\ccUIzJuS.s:27718  .debug_str:00000000000227de .LASF2643
C:\Users\SOLDER~1\AppData\Local\Temp\ccUIzJuS.s:22490  .debug_str:000000000000d442 .LASF2644
C:\Users\SOLDER~1\AppData\Local\Temp\ccUIzJuS.s:26122  .debug_str:000000000001c047 .LASF2645
C:\Users\SOLDER~1\AppData\Local\Temp\ccUIzJuS.s:24452  .debug_str:00000000000154ef .LASF2646
C:\Users\SOLDER~1\AppData\Local\Temp\ccUIzJuS.s:24488  .debug_str:0000000000015736 .LASF2647
C:\Users\SOLDER~1\AppData\Local\Temp\ccUIzJuS.s:25428  .debug_str:00000000000193d0 .LASF2648
C:\Users\SOLDER~1\AppData\Local\Temp\ccUIzJuS.s:22730  .debug_str:000000000000e44b .LASF2649
C:\Users\SOLDER~1\AppData\Local\Temp\ccUIzJuS.s:28976  .debug_str:0000000000027ba3 .LASF2650
C:\Users\SOLDER~1\AppData\Local\Temp\ccUIzJuS.s:21128  .debug_str:0000000000007a39 .LASF2651
C:\Users\SOLDER~1\AppData\Local\Temp\ccUIzJuS.s:26182  .debug_str:000000000001c445 .LASF2652
C:\Users\SOLDER~1\AppData\Local\Temp\ccUIzJuS.s:21728  .debug_str:000000000000a1b5 .LASF2653
C:\Users\SOLDER~1\AppData\Local\Temp\ccUIzJuS.s:19864  .debug_str:00000000000028d3 .LASF2654
C:\Users\SOLDER~1\AppData\Local\Temp\ccUIzJuS.s:19844  .debug_str:0000000000002762 .LASF2655
C:\Users\SOLDER~1\AppData\Local\Temp\ccUIzJuS.s:25910  .debug_str:000000000001b2ad .LASF2656
C:\Users\SOLDER~1\AppData\Local\Temp\ccUIzJuS.s:27820  .debug_str:0000000000022ebe .LASF2657
C:\Users\SOLDER~1\AppData\Local\Temp\ccUIzJuS.s:20580  .debug_str:000000000000564a .LASF2658
C:\Users\SOLDER~1\AppData\Local\Temp\ccUIzJuS.s:27558  .debug_str:0000000000021dea .LASF2659
C:\Users\SOLDER~1\AppData\Local\Temp\ccUIzJuS.s:26692  .debug_str:000000000001e593 .LASF2660
C:\Users\SOLDER~1\AppData\Local\Temp\ccUIzJuS.s:25712  .debug_str:000000000001a5a8 .LASF2661
C:\Users\SOLDER~1\AppData\Local\Temp\ccUIzJuS.s:26656  .debug_str:000000000001e365 .LASF2662
C:\Users\SOLDER~1\AppData\Local\Temp\ccUIzJuS.s:23792  .debug_str:0000000000012864 .LASF2663
C:\Users\SOLDER~1\AppData\Local\Temp\ccUIzJuS.s:27350  .debug_str:00000000000210c8 .LASF2664
C:\Users\SOLDER~1\AppData\Local\Temp\ccUIzJuS.s:21898  .debug_str:000000000000acd6 .LASF2665
C:\Users\SOLDER~1\AppData\Local\Temp\ccUIzJuS.s:22870  .debug_str:000000000000ed18 .LASF2666
C:\Users\SOLDER~1\AppData\Local\Temp\ccUIzJuS.s:20000  .debug_str:0000000000003192 .LASF2667
C:\Users\SOLDER~1\AppData\Local\Temp\ccUIzJuS.s:19514  .debug_str:0000000000001261 .LASF2668
C:\Users\SOLDER~1\AppData\Local\Temp\ccUIzJuS.s:29658  .debug_str:000000000002a87b .LASF2669
C:\Users\SOLDER~1\AppData\Local\Temp\ccUIzJuS.s:28232  .debug_str:00000000000249db .LASF2670
C:\Users\SOLDER~1\AppData\Local\Temp\ccUIzJuS.s:27708  .debug_str:0000000000022748 .LASF2671
C:\Users\SOLDER~1\AppData\Local\Temp\ccUIzJuS.s:28316  .debug_str:0000000000024f84 .LASF2672
C:\Users\SOLDER~1\AppData\Local\Temp\ccUIzJuS.s:28392  .debug_str:0000000000025463 .LASF2673
C:\Users\SOLDER~1\AppData\Local\Temp\ccUIzJuS.s:27434  .debug_str:0000000000021650 .LASF2674
C:\Users\SOLDER~1\AppData\Local\Temp\ccUIzJuS.s:26790  .debug_str:000000000001ec50 .LASF2675
C:\Users\SOLDER~1\AppData\Local\Temp\ccUIzJuS.s:25554  .debug_str:0000000000019bbc .LASF2676
C:\Users\SOLDER~1\AppData\Local\Temp\ccUIzJuS.s:25186  .debug_str:0000000000018435 .LASF2677
C:\Users\SOLDER~1\AppData\Local\Temp\ccUIzJuS.s:24608  .debug_str:0000000000015ee3 .LASF2678
C:\Users\SOLDER~1\AppData\Local\Temp\ccUIzJuS.s:23514  .debug_str:00000000000116e5 .LASF2679
C:\Users\SOLDER~1\AppData\Local\Temp\ccUIzJuS.s:20754  .debug_str:00000000000061f2 .LASF2680
C:\Users\SOLDER~1\AppData\Local\Temp\ccUIzJuS.s:21774  .debug_str:000000000000a4b4 .LASF2681
C:\Users\SOLDER~1\AppData\Local\Temp\ccUIzJuS.s:30268  .debug_str:000000000002cf8b .LASF2682
C:\Users\SOLDER~1\AppData\Local\Temp\ccUIzJuS.s:20146  .debug_str:0000000000003af7 .LASF2683
C:\Users\SOLDER~1\AppData\Local\Temp\ccUIzJuS.s:20184  .debug_str:0000000000003d63 .LASF2684
C:\Users\SOLDER~1\AppData\Local\Temp\ccUIzJuS.s:26730  .debug_str:000000000001e857 .LASF2685
C:\Users\SOLDER~1\AppData\Local\Temp\ccUIzJuS.s:27000  .debug_str:000000000001fa4f .LASF2686
C:\Users\SOLDER~1\AppData\Local\Temp\ccUIzJuS.s:28286  .debug_str:0000000000024d63 .LASF2687
C:\Users\SOLDER~1\AppData\Local\Temp\ccUIzJuS.s:25068  .debug_str:0000000000017c60 .LASF2688
C:\Users\SOLDER~1\AppData\Local\Temp\ccUIzJuS.s:26682  .debug_str:000000000001e50a .LASF2689
C:\Users\SOLDER~1\AppData\Local\Temp\ccUIzJuS.s:26580  .debug_str:000000000001de91 .LASF2690
C:\Users\SOLDER~1\AppData\Local\Temp\ccUIzJuS.s:25094  .debug_str:0000000000017e09 .LASF2691
C:\Users\SOLDER~1\AppData\Local\Temp\ccUIzJuS.s:27808  .debug_str:0000000000022dfe .LASF2692
C:\Users\SOLDER~1\AppData\Local\Temp\ccUIzJuS.s:20550  .debug_str:000000000000548c .LASF2693
C:\Users\SOLDER~1\AppData\Local\Temp\ccUIzJuS.s:19756  .debug_str:00000000000021c7 .LASF2694
GAS LISTING C:\Users\SOLDER~1\AppData\Local\Temp\ccUIzJuS.s 			page 76


C:\Users\SOLDER~1\AppData\Local\Temp\ccUIzJuS.s:30230  .debug_str:000000000002cd2a .LASF2695
C:\Users\SOLDER~1\AppData\Local\Temp\ccUIzJuS.s:24002  .debug_str:000000000001367b .LASF2696
C:\Users\SOLDER~1\AppData\Local\Temp\ccUIzJuS.s:23920  .debug_str:0000000000013103 .LASF2697
C:\Users\SOLDER~1\AppData\Local\Temp\ccUIzJuS.s:20352  .debug_str:0000000000004864 .LASF2698
C:\Users\SOLDER~1\AppData\Local\Temp\ccUIzJuS.s:26404  .debug_str:000000000001d36b .LASF2699
C:\Users\SOLDER~1\AppData\Local\Temp\ccUIzJuS.s:26678  .debug_str:000000000001e4c1 .LASF2700
C:\Users\SOLDER~1\AppData\Local\Temp\ccUIzJuS.s:30780  .debug_str:000000000002f05f .LASF2701
C:\Users\SOLDER~1\AppData\Local\Temp\ccUIzJuS.s:26638  .debug_str:000000000001e25a .LASF2702
C:\Users\SOLDER~1\AppData\Local\Temp\ccUIzJuS.s:22600  .debug_str:000000000000db22 .LASF2703
C:\Users\SOLDER~1\AppData\Local\Temp\ccUIzJuS.s:27246  .debug_str:0000000000020a36 .LASF2704
C:\Users\SOLDER~1\AppData\Local\Temp\ccUIzJuS.s:20718  .debug_str:0000000000005f59 .LASF2705
C:\Users\SOLDER~1\AppData\Local\Temp\ccUIzJuS.s:22754  .debug_str:000000000000e5b4 .LASF2706
C:\Users\SOLDER~1\AppData\Local\Temp\ccUIzJuS.s:30380  .debug_str:000000000002d705 .LASF2707
C:\Users\SOLDER~1\AppData\Local\Temp\ccUIzJuS.s:24260  .debug_str:0000000000014867 .LASF2708
C:\Users\SOLDER~1\AppData\Local\Temp\ccUIzJuS.s:28520  .debug_str:0000000000025cfc .LASF2709
C:\Users\SOLDER~1\AppData\Local\Temp\ccUIzJuS.s:29168  .debug_str:0000000000028854 .LASF2710
C:\Users\SOLDER~1\AppData\Local\Temp\ccUIzJuS.s:26652  .debug_str:000000000001e322 .LASF2711
C:\Users\SOLDER~1\AppData\Local\Temp\ccUIzJuS.s:27046  .debug_str:000000000001fd49 .LASF2712
C:\Users\SOLDER~1\AppData\Local\Temp\ccUIzJuS.s:25052  .debug_str:0000000000017b5a .LASF2713
C:\Users\SOLDER~1\AppData\Local\Temp\ccUIzJuS.s:27372  .debug_str:000000000002126e .LASF2714
C:\Users\SOLDER~1\AppData\Local\Temp\ccUIzJuS.s:21438  .debug_str:0000000000008e84 .LASF2715
C:\Users\SOLDER~1\AppData\Local\Temp\ccUIzJuS.s:20224  .debug_str:0000000000003ff9 .LASF2716
C:\Users\SOLDER~1\AppData\Local\Temp\ccUIzJuS.s:21642  .debug_str:0000000000009bed .LASF2717
C:\Users\SOLDER~1\AppData\Local\Temp\ccUIzJuS.s:19420  .debug_str:0000000000000c53 .LASF2718
C:\Users\SOLDER~1\AppData\Local\Temp\ccUIzJuS.s:19252  .debug_str:00000000000000a4 .LASF2719
C:\Users\SOLDER~1\AppData\Local\Temp\ccUIzJuS.s:27108  .debug_str:0000000000020152 .LASF2720
C:\Users\SOLDER~1\AppData\Local\Temp\ccUIzJuS.s:25166  .debug_str:00000000000182f7 .LASF2721
C:\Users\SOLDER~1\AppData\Local\Temp\ccUIzJuS.s:27902  .debug_str:000000000002342e .LASF2722
C:\Users\SOLDER~1\AppData\Local\Temp\ccUIzJuS.s:28138  .debug_str:0000000000024383 .LASF2723
C:\Users\SOLDER~1\AppData\Local\Temp\ccUIzJuS.s:26452  .debug_str:000000000001d694 .LASF2724
C:\Users\SOLDER~1\AppData\Local\Temp\ccUIzJuS.s:26532  .debug_str:000000000001db59 .LASF2725
C:\Users\SOLDER~1\AppData\Local\Temp\ccUIzJuS.s:21808  .debug_str:000000000000a727 .LASF2726
C:\Users\SOLDER~1\AppData\Local\Temp\ccUIzJuS.s:24944  .debug_str:0000000000017416 .LASF2727
C:\Users\SOLDER~1\AppData\Local\Temp\ccUIzJuS.s:19742  .debug_str:00000000000020cb .LASF2728
C:\Users\SOLDER~1\AppData\Local\Temp\ccUIzJuS.s:23192  .debug_str:000000000001021f .LASF2729
C:\Users\SOLDER~1\AppData\Local\Temp\ccUIzJuS.s:21410  .debug_str:0000000000008c7c .LASF2730
C:\Users\SOLDER~1\AppData\Local\Temp\ccUIzJuS.s:21554  .debug_str:0000000000009665 .LASF2731
C:\Users\SOLDER~1\AppData\Local\Temp\ccUIzJuS.s:30158  .debug_str:000000000002c89b .LASF2732
C:\Users\SOLDER~1\AppData\Local\Temp\ccUIzJuS.s:30290  .debug_str:000000000002d10e .LASF2733
C:\Users\SOLDER~1\AppData\Local\Temp\ccUIzJuS.s:28498  .debug_str:0000000000025b7f .LASF2734
C:\Users\SOLDER~1\AppData\Local\Temp\ccUIzJuS.s:28336  .debug_str:00000000000250e3 .LASF2735
C:\Users\SOLDER~1\AppData\Local\Temp\ccUIzJuS.s:23012  .debug_str:000000000000f614 .LASF2736
C:\Users\SOLDER~1\AppData\Local\Temp\ccUIzJuS.s:26462  .debug_str:000000000001d732 .LASF2737
C:\Users\SOLDER~1\AppData\Local\Temp\ccUIzJuS.s:29132  .debug_str:0000000000028620 .LASF2738
C:\Users\SOLDER~1\AppData\Local\Temp\ccUIzJuS.s:24594  .debug_str:0000000000015e13 .LASF2739
C:\Users\SOLDER~1\AppData\Local\Temp\ccUIzJuS.s:23916  .debug_str:00000000000130b1 .LASF2740
C:\Users\SOLDER~1\AppData\Local\Temp\ccUIzJuS.s:21306  .debug_str:00000000000085d6 .LASF2741
C:\Users\SOLDER~1\AppData\Local\Temp\ccUIzJuS.s:20142  .debug_str:0000000000003aa4 .LASF2742
C:\Users\SOLDER~1\AppData\Local\Temp\ccUIzJuS.s:25434  .debug_str:0000000000019436 .LASF2743
C:\Users\SOLDER~1\AppData\Local\Temp\ccUIzJuS.s:24510  .debug_str:000000000001589d .LASF2744
C:\Users\SOLDER~1\AppData\Local\Temp\ccUIzJuS.s:30442  .debug_str:000000000002dafe .LASF2745
C:\Users\SOLDER~1\AppData\Local\Temp\ccUIzJuS.s:19998  .debug_str:0000000000003167 .LASF2746
C:\Users\SOLDER~1\AppData\Local\Temp\ccUIzJuS.s:28492  .debug_str:0000000000025b22 .LASF2747
C:\Users\SOLDER~1\AppData\Local\Temp\ccUIzJuS.s:28114  .debug_str:00000000000241ee .LASF2748
C:\Users\SOLDER~1\AppData\Local\Temp\ccUIzJuS.s:26624  .debug_str:000000000001e16a .LASF2749
C:\Users\SOLDER~1\AppData\Local\Temp\ccUIzJuS.s:26396  .debug_str:000000000001d2df .LASF2750
C:\Users\SOLDER~1\AppData\Local\Temp\ccUIzJuS.s:24844  .debug_str:0000000000016d9e .LASF2751
GAS LISTING C:\Users\SOLDER~1\AppData\Local\Temp\ccUIzJuS.s 			page 77


C:\Users\SOLDER~1\AppData\Local\Temp\ccUIzJuS.s:29076  .debug_str:0000000000028281 .LASF2752
C:\Users\SOLDER~1\AppData\Local\Temp\ccUIzJuS.s:20344  .debug_str:00000000000047e2 .LASF2753
C:\Users\SOLDER~1\AppData\Local\Temp\ccUIzJuS.s:23406  .debug_str:0000000000010fd2 .LASF2754
C:\Users\SOLDER~1\AppData\Local\Temp\ccUIzJuS.s:30280  .debug_str:000000000002d057 .LASF2755
C:\Users\SOLDER~1\AppData\Local\Temp\ccUIzJuS.s:27368  .debug_str:0000000000021220 .LASF2756
C:\Users\SOLDER~1\AppData\Local\Temp\ccUIzJuS.s:28596  .debug_str:0000000000026234 .LASF2757
C:\Users\SOLDER~1\AppData\Local\Temp\ccUIzJuS.s:29642  .debug_str:000000000002a750 .LASF2758
C:\Users\SOLDER~1\AppData\Local\Temp\ccUIzJuS.s:26908  .debug_str:000000000001f42d .LASF2759
C:\Users\SOLDER~1\AppData\Local\Temp\ccUIzJuS.s:25816  .debug_str:000000000001ac89 .LASF2760
C:\Users\SOLDER~1\AppData\Local\Temp\ccUIzJuS.s:25296  .debug_str:0000000000018b4b .LASF2761
C:\Users\SOLDER~1\AppData\Local\Temp\ccUIzJuS.s:23746  .debug_str:0000000000012584 .LASF2762
C:\Users\SOLDER~1\AppData\Local\Temp\ccUIzJuS.s:23626  .debug_str:0000000000011dfe .LASF2763
C:\Users\SOLDER~1\AppData\Local\Temp\ccUIzJuS.s:25282  .debug_str:0000000000018a33 .LASF2764
C:\Users\SOLDER~1\AppData\Local\Temp\ccUIzJuS.s:21894  .debug_str:000000000000ac97 .LASF2765
C:\Users\SOLDER~1\AppData\Local\Temp\ccUIzJuS.s:20494  .debug_str:00000000000050ff .LASF2766
C:\Users\SOLDER~1\AppData\Local\Temp\ccUIzJuS.s:22628  .debug_str:000000000000dd2c .LASF2767
C:\Users\SOLDER~1\AppData\Local\Temp\ccUIzJuS.s:30092  .debug_str:000000000002c49a .LASF2768
C:\Users\SOLDER~1\AppData\Local\Temp\ccUIzJuS.s:26836  .debug_str:000000000001ef40 .LASF2769
C:\Users\SOLDER~1\AppData\Local\Temp\ccUIzJuS.s:20086  .debug_str:00000000000036e7 .LASF2770
C:\Users\SOLDER~1\AppData\Local\Temp\ccUIzJuS.s:20666  .debug_str:0000000000005c30 .LASF2771
C:\Users\SOLDER~1\AppData\Local\Temp\ccUIzJuS.s:28812  .debug_str:00000000000270e9 .LASF2772
C:\Users\SOLDER~1\AppData\Local\Temp\ccUIzJuS.s:27196  .debug_str:0000000000020703 .LASF2773
C:\Users\SOLDER~1\AppData\Local\Temp\ccUIzJuS.s:24302  .debug_str:0000000000014b60 .LASF2774
C:\Users\SOLDER~1\AppData\Local\Temp\ccUIzJuS.s:20490  .debug_str:00000000000050ca .LASF2775
C:\Users\SOLDER~1\AppData\Local\Temp\ccUIzJuS.s:30250  .debug_str:000000000002ce67 .LASF2776
C:\Users\SOLDER~1\AppData\Local\Temp\ccUIzJuS.s:23510  .debug_str:00000000000116bd .LASF2777
C:\Users\SOLDER~1\AppData\Local\Temp\ccUIzJuS.s:24836  .debug_str:0000000000016d24 .LASF2778
C:\Users\SOLDER~1\AppData\Local\Temp\ccUIzJuS.s:21612  .debug_str:0000000000009a18 .LASF2779
C:\Users\SOLDER~1\AppData\Local\Temp\ccUIzJuS.s:22038  .debug_str:000000000000b5f6 .LASF2780
C:\Users\SOLDER~1\AppData\Local\Temp\ccUIzJuS.s:19710  .debug_str:0000000000001ef9 .LASF2781
C:\Users\SOLDER~1\AppData\Local\Temp\ccUIzJuS.s:19556  .debug_str:0000000000001524 .LASF2782
C:\Users\SOLDER~1\AppData\Local\Temp\ccUIzJuS.s:29362  .debug_str:00000000000294f5 .LASF2783
C:\Users\SOLDER~1\AppData\Local\Temp\ccUIzJuS.s:20240  .debug_str:000000000000410a .LASF2784
C:\Users\SOLDER~1\AppData\Local\Temp\ccUIzJuS.s:20268  .debug_str:00000000000042c9 .LASF2785
C:\Users\SOLDER~1\AppData\Local\Temp\ccUIzJuS.s:27278  .debug_str:0000000000020c66 .LASF2786
C:\Users\SOLDER~1\AppData\Local\Temp\ccUIzJuS.s:25586  .debug_str:0000000000019dcd .LASF2787
C:\Users\SOLDER~1\AppData\Local\Temp\ccUIzJuS.s:23918  .debug_str:00000000000130dc .LASF2788
C:\Users\SOLDER~1\AppData\Local\Temp\ccUIzJuS.s:23664  .debug_str:000000000001206d .LASF2789
C:\Users\SOLDER~1\AppData\Local\Temp\ccUIzJuS.s:22064  .debug_str:000000000000b783 .LASF2790
C:\Users\SOLDER~1\AppData\Local\Temp\ccUIzJuS.s:24802  .debug_str:0000000000016b47 .LASF2791
C:\Users\SOLDER~1\AppData\Local\Temp\ccUIzJuS.s:24790  .debug_str:0000000000016a66 .LASF2792
C:\Users\SOLDER~1\AppData\Local\Temp\ccUIzJuS.s:21184  .debug_str:0000000000007df4 .LASF2793
C:\Users\SOLDER~1\AppData\Local\Temp\ccUIzJuS.s:27374  .debug_str:0000000000021295 .LASF2794
C:\Users\SOLDER~1\AppData\Local\Temp\ccUIzJuS.s:26660  .debug_str:000000000001e3ae .LASF2795
C:\Users\SOLDER~1\AppData\Local\Temp\ccUIzJuS.s:24060  .debug_str:0000000000013a87 .LASF2796
C:\Users\SOLDER~1\AppData\Local\Temp\ccUIzJuS.s:20486  .debug_str:000000000000508a .LASF2797
C:\Users\SOLDER~1\AppData\Local\Temp\ccUIzJuS.s:19338  .debug_str:0000000000000624 .LASF2798
C:\Users\SOLDER~1\AppData\Local\Temp\ccUIzJuS.s:27680  .debug_str:0000000000022558 .LASF2799
C:\Users\SOLDER~1\AppData\Local\Temp\ccUIzJuS.s:27024  .debug_str:000000000001fbe4 .LASF2800
C:\Users\SOLDER~1\AppData\Local\Temp\ccUIzJuS.s:26086  .debug_str:000000000001bdd9 .LASF2801
C:\Users\SOLDER~1\AppData\Local\Temp\ccUIzJuS.s:25020  .debug_str:000000000001792a .LASF2802
C:\Users\SOLDER~1\AppData\Local\Temp\ccUIzJuS.s:24444  .debug_str:0000000000015465 .LASF2803
C:\Users\SOLDER~1\AppData\Local\Temp\ccUIzJuS.s:26458  .debug_str:000000000001d6ef .LASF2804
C:\Users\SOLDER~1\AppData\Local\Temp\ccUIzJuS.s:22786  .debug_str:000000000000e7ca .LASF2805
C:\Users\SOLDER~1\AppData\Local\Temp\ccUIzJuS.s:21716  .debug_str:000000000000a0c9 .LASF2806
C:\Users\SOLDER~1\AppData\Local\Temp\ccUIzJuS.s:21084  .debug_str:000000000000777c .LASF2807
C:\Users\SOLDER~1\AppData\Local\Temp\ccUIzJuS.s:19748  .debug_str:000000000000213f .LASF2808
GAS LISTING C:\Users\SOLDER~1\AppData\Local\Temp\ccUIzJuS.s 			page 78


C:\Users\SOLDER~1\AppData\Local\Temp\ccUIzJuS.s:19462  .debug_str:0000000000000f23 .LASF2809
C:\Users\SOLDER~1\AppData\Local\Temp\ccUIzJuS.s:21326  .debug_str:0000000000008731 .LASF2810
C:\Users\SOLDER~1\AppData\Local\Temp\ccUIzJuS.s:29344  .debug_str:00000000000293c9 .LASF2811
C:\Users\SOLDER~1\AppData\Local\Temp\ccUIzJuS.s:30162  .debug_str:000000000002c8e7 .LASF2812
C:\Users\SOLDER~1\AppData\Local\Temp\ccUIzJuS.s:19716  .debug_str:0000000000001f5f .LASF2813
C:\Users\SOLDER~1\AppData\Local\Temp\ccUIzJuS.s:26322  .debug_str:000000000001cdc9 .LASF2814
C:\Users\SOLDER~1\AppData\Local\Temp\ccUIzJuS.s:27216  .debug_str:0000000000020854 .LASF2815
C:\Users\SOLDER~1\AppData\Local\Temp\ccUIzJuS.s:19646  .debug_str:0000000000001ac0 .LASF2816
C:\Users\SOLDER~1\AppData\Local\Temp\ccUIzJuS.s:26890  .debug_str:000000000001f2f4 .LASF2817
C:\Users\SOLDER~1\AppData\Local\Temp\ccUIzJuS.s:24916  .debug_str:0000000000017244 .LASF2818
C:\Users\SOLDER~1\AppData\Local\Temp\ccUIzJuS.s:27150  .debug_str:00000000000203e3 .LASF2819
C:\Users\SOLDER~1\AppData\Local\Temp\ccUIzJuS.s:20992  .debug_str:00000000000071d5 .LASF2820
C:\Users\SOLDER~1\AppData\Local\Temp\ccUIzJuS.s:27532  .debug_str:0000000000021c6b .LASF2821
C:\Users\SOLDER~1\AppData\Local\Temp\ccUIzJuS.s:21196  .debug_str:0000000000007ec0 .LASF2822
C:\Users\SOLDER~1\AppData\Local\Temp\ccUIzJuS.s:20076  .debug_str:0000000000003658 .LASF2823
C:\Users\SOLDER~1\AppData\Local\Temp\ccUIzJuS.s:25376  .debug_str:0000000000019094 .LASF2824
C:\Users\SOLDER~1\AppData\Local\Temp\ccUIzJuS.s:28150  .debug_str:0000000000024454 .LASF2825
C:\Users\SOLDER~1\AppData\Local\Temp\ccUIzJuS.s:23588  .debug_str:0000000000011b80 .LASF2826
C:\Users\SOLDER~1\AppData\Local\Temp\ccUIzJuS.s:20368  .debug_str:000000000000496b .LASF2827
C:\Users\SOLDER~1\AppData\Local\Temp\ccUIzJuS.s:27722  .debug_str:0000000000022814 .LASF2828
C:\Users\SOLDER~1\AppData\Local\Temp\ccUIzJuS.s:24502  .debug_str:0000000000015827 .LASF2829
C:\Users\SOLDER~1\AppData\Local\Temp\ccUIzJuS.s:29266  .debug_str:0000000000028ecc .LASF2830
C:\Users\SOLDER~1\AppData\Local\Temp\ccUIzJuS.s:26672  .debug_str:000000000001e45b .LASF2831
C:\Users\SOLDER~1\AppData\Local\Temp\ccUIzJuS.s:30802  .debug_str:000000000002f1f4 .LASF2832
C:\Users\SOLDER~1\AppData\Local\Temp\ccUIzJuS.s:25562  .debug_str:0000000000019c51 .LASF2833
C:\Users\SOLDER~1\AppData\Local\Temp\ccUIzJuS.s:23506  .debug_str:0000000000011676 .LASF2834
C:\Users\SOLDER~1\AppData\Local\Temp\ccUIzJuS.s:24782  .debug_str:00000000000169d9 .LASF2835
C:\Users\SOLDER~1\AppData\Local\Temp\ccUIzJuS.s:20740  .debug_str:00000000000060df .LASF2836
C:\Users\SOLDER~1\AppData\Local\Temp\ccUIzJuS.s:26250  .debug_str:000000000001c8e0 .LASF2837
C:\Users\SOLDER~1\AppData\Local\Temp\ccUIzJuS.s:23448  .debug_str:0000000000011275 .LASF2838
C:\Users\SOLDER~1\AppData\Local\Temp\ccUIzJuS.s:20328  .debug_str:00000000000046d0 .LASF2839
C:\Users\SOLDER~1\AppData\Local\Temp\ccUIzJuS.s:29482  .debug_str:0000000000029c8f .LASF2840
C:\Users\SOLDER~1\AppData\Local\Temp\ccUIzJuS.s:28940  .debug_str:0000000000027972 .LASF2841
C:\Users\SOLDER~1\AppData\Local\Temp\ccUIzJuS.s:26280  .debug_str:000000000001caee .LASF2842
C:\Users\SOLDER~1\AppData\Local\Temp\ccUIzJuS.s:27066  .debug_str:000000000001fe88 .LASF2843
C:\Users\SOLDER~1\AppData\Local\Temp\ccUIzJuS.s:28856  .debug_str:00000000000273b7 .LASF2844
C:\Users\SOLDER~1\AppData\Local\Temp\ccUIzJuS.s:29190  .debug_str:0000000000028a04 .LASF2845
C:\Users\SOLDER~1\AppData\Local\Temp\ccUIzJuS.s:22674  .debug_str:000000000000e03c .LASF2846
C:\Users\SOLDER~1\AppData\Local\Temp\ccUIzJuS.s:26156  .debug_str:000000000001c28f .LASF2847
C:\Users\SOLDER~1\AppData\Local\Temp\ccUIzJuS.s:30762  .debug_str:000000000002ef35 .LASF2848
C:\Users\SOLDER~1\AppData\Local\Temp\ccUIzJuS.s:26210  .debug_str:000000000001c62a .LASF2849
C:\Users\SOLDER~1\AppData\Local\Temp\ccUIzJuS.s:23656  .debug_str:0000000000011fd9 .LASF2850
C:\Users\SOLDER~1\AppData\Local\Temp\ccUIzJuS.s:30324  .debug_str:000000000002d396 .LASF2851
C:\Users\SOLDER~1\AppData\Local\Temp\ccUIzJuS.s:22496  .debug_str:000000000000d4aa .LASF2852
C:\Users\SOLDER~1\AppData\Local\Temp\ccUIzJuS.s:22116  .debug_str:000000000000baf7 .LASF2853
C:\Users\SOLDER~1\AppData\Local\Temp\ccUIzJuS.s:29622  .debug_str:000000000002a619 .LASF2854
C:\Users\SOLDER~1\AppData\Local\Temp\ccUIzJuS.s:25850  .debug_str:000000000001af17 .LASF2855
C:\Users\SOLDER~1\AppData\Local\Temp\ccUIzJuS.s:30006  .debug_str:000000000002bedb .LASF2856
C:\Users\SOLDER~1\AppData\Local\Temp\ccUIzJuS.s:22324  .debug_str:000000000000c912 .LASF2857
C:\Users\SOLDER~1\AppData\Local\Temp\ccUIzJuS.s:26770  .debug_str:000000000001eaff .LASF2858
C:\Users\SOLDER~1\AppData\Local\Temp\ccUIzJuS.s:20568  .debug_str:0000000000005589 .LASF2859
C:\Users\SOLDER~1\AppData\Local\Temp\ccUIzJuS.s:25346  .debug_str:0000000000018e8f .LASF2860
C:\Users\SOLDER~1\AppData\Local\Temp\ccUIzJuS.s:28838  .debug_str:000000000002728c .LASF2861
C:\Users\SOLDER~1\AppData\Local\Temp\ccUIzJuS.s:21178  .debug_str:0000000000007d97 .LASF2862
C:\Users\SOLDER~1\AppData\Local\Temp\ccUIzJuS.s:27366  .debug_str:00000000000211f9 .LASF2863
C:\Users\SOLDER~1\AppData\Local\Temp\ccUIzJuS.s:26892  .debug_str:000000000001f314 .LASF2864
C:\Users\SOLDER~1\AppData\Local\Temp\ccUIzJuS.s:23692  .debug_str:000000000001221e .LASF2865
GAS LISTING C:\Users\SOLDER~1\AppData\Local\Temp\ccUIzJuS.s 			page 79


C:\Users\SOLDER~1\AppData\Local\Temp\ccUIzJuS.s:22208  .debug_str:000000000000c0ef .LASF2866
C:\Users\SOLDER~1\AppData\Local\Temp\ccUIzJuS.s:23386  .debug_str:0000000000010e8c .LASF2867
C:\Users\SOLDER~1\AppData\Local\Temp\ccUIzJuS.s:23972  .debug_str:0000000000013469 .LASF2868
C:\Users\SOLDER~1\AppData\Local\Temp\ccUIzJuS.s:30668  .debug_str:000000000002e92f .LASF2869
C:\Users\SOLDER~1\AppData\Local\Temp\ccUIzJuS.s:23984  .debug_str:0000000000013541 .LASF2870
C:\Users\SOLDER~1\AppData\Local\Temp\ccUIzJuS.s:30144  .debug_str:000000000002c7be .LASF2871
C:\Users\SOLDER~1\AppData\Local\Temp\ccUIzJuS.s:30258  .debug_str:000000000002cee5 .LASF2872
C:\Users\SOLDER~1\AppData\Local\Temp\ccUIzJuS.s:25862  .debug_str:000000000001afe0 .LASF2873
C:\Users\SOLDER~1\AppData\Local\Temp\ccUIzJuS.s:30174  .debug_str:000000000002c9b9 .LASF2874
C:\Users\SOLDER~1\AppData\Local\Temp\ccUIzJuS.s:27344  .debug_str:000000000002105d .LASF2875
C:\Users\SOLDER~1\AppData\Local\Temp\ccUIzJuS.s:22986  .debug_str:000000000000f464 .LASF2876
C:\Users\SOLDER~1\AppData\Local\Temp\ccUIzJuS.s:23088  .debug_str:000000000000fb53 .LASF2877
C:\Users\SOLDER~1\AppData\Local\Temp\ccUIzJuS.s:22998  .debug_str:000000000000f530 .LASF2878
C:\Users\SOLDER~1\AppData\Local\Temp\ccUIzJuS.s:25014  .debug_str:00000000000178e8 .LASF2879
C:\Users\SOLDER~1\AppData\Local\Temp\ccUIzJuS.s:30628  .debug_str:000000000002e6a2 .LASF2880
C:\Users\SOLDER~1\AppData\Local\Temp\ccUIzJuS.s:22512  .debug_str:000000000000d5b4 .LASF2881
C:\Users\SOLDER~1\AppData\Local\Temp\ccUIzJuS.s:30708  .debug_str:000000000002ebeb .LASF2882
C:\Users\SOLDER~1\AppData\Local\Temp\ccUIzJuS.s:29846  .debug_str:000000000002b4a2 .LASF2883
C:\Users\SOLDER~1\AppData\Local\Temp\ccUIzJuS.s:21006  .debug_str:00000000000072b6 .LASF2884
C:\Users\SOLDER~1\AppData\Local\Temp\ccUIzJuS.s:28016  .debug_str:0000000000023b63 .LASF2885
C:\Users\SOLDER~1\AppData\Local\Temp\ccUIzJuS.s:20684  .debug_str:0000000000005d32 .LASF2886
C:\Users\SOLDER~1\AppData\Local\Temp\ccUIzJuS.s:21296  .debug_str:000000000000853a .LASF2887
C:\Users\SOLDER~1\AppData\Local\Temp\ccUIzJuS.s:22000  .debug_str:000000000000b357 .LASF2888
C:\Users\SOLDER~1\AppData\Local\Temp\ccUIzJuS.s:22050  .debug_str:000000000000b6a6 .LASF2889
C:\Users\SOLDER~1\AppData\Local\Temp\ccUIzJuS.s:20994  .debug_str:00000000000071f5 .LASF2890
C:\Users\SOLDER~1\AppData\Local\Temp\ccUIzJuS.s:20028  .debug_str:000000000000334a .LASF2891
C:\Users\SOLDER~1\AppData\Local\Temp\ccUIzJuS.s:22702  .debug_str:000000000000e264 .LASF2892
C:\Users\SOLDER~1\AppData\Local\Temp\ccUIzJuS.s:24750  .debug_str:00000000000167c2 .LASF2893
C:\Users\SOLDER~1\AppData\Local\Temp\ccUIzJuS.s:30468  .debug_str:000000000002dc80 .LASF2894
C:\Users\SOLDER~1\AppData\Local\Temp\ccUIzJuS.s:21910  .debug_str:000000000000ada6 .LASF2895
C:\Users\SOLDER~1\AppData\Local\Temp\ccUIzJuS.s:29540  .debug_str:000000000002a084 .LASF2896
C:\Users\SOLDER~1\AppData\Local\Temp\ccUIzJuS.s:30546  .debug_str:000000000002e19f .LASF2897
C:\Users\SOLDER~1\AppData\Local\Temp\ccUIzJuS.s:30332  .debug_str:000000000002d415 .LASF2898
C:\Users\SOLDER~1\AppData\Local\Temp\ccUIzJuS.s:20516  .debug_str:0000000000005279 .LASF2899
C:\Users\SOLDER~1\AppData\Local\Temp\ccUIzJuS.s:21496  .debug_str:0000000000009294 .LASF2900
C:\Users\SOLDER~1\AppData\Local\Temp\ccUIzJuS.s:26460  .debug_str:000000000001d717 .LASF2901
C:\Users\SOLDER~1\AppData\Local\Temp\ccUIzJuS.s:22392  .debug_str:000000000000cdbb .LASF2902
C:\Users\SOLDER~1\AppData\Local\Temp\ccUIzJuS.s:24248  .debug_str:00000000000147bc .LASF2903
C:\Users\SOLDER~1\AppData\Local\Temp\ccUIzJuS.s:29176  .debug_str:000000000002890b .LASF2904
C:\Users\SOLDER~1\AppData\Local\Temp\ccUIzJuS.s:21678  .debug_str:0000000000009e59 .LASF2905
C:\Users\SOLDER~1\AppData\Local\Temp\ccUIzJuS.s:29284  .debug_str:0000000000028ff9 .LASF2906
C:\Users\SOLDER~1\AppData\Local\Temp\ccUIzJuS.s:25286  .debug_str:0000000000018a77 .LASF2907
C:\Users\SOLDER~1\AppData\Local\Temp\ccUIzJuS.s:22716  .debug_str:000000000000e35f .LASF2908
C:\Users\SOLDER~1\AppData\Local\Temp\ccUIzJuS.s:27456  .debug_str:00000000000217b7 .LASF2909
C:\Users\SOLDER~1\AppData\Local\Temp\ccUIzJuS.s:28200  .debug_str:00000000000247aa .LASF2910
C:\Users\SOLDER~1\AppData\Local\Temp\ccUIzJuS.s:23534  .debug_str:000000000001180f .LASF2911
C:\Users\SOLDER~1\AppData\Local\Temp\ccUIzJuS.s:22608  .debug_str:000000000000dbad .LASF2912
C:\Users\SOLDER~1\AppData\Local\Temp\ccUIzJuS.s:22952  .debug_str:000000000000f23c .LASF2913
C:\Users\SOLDER~1\AppData\Local\Temp\ccUIzJuS.s:19912  .debug_str:0000000000002b98 .LASF2914
C:\Users\SOLDER~1\AppData\Local\Temp\ccUIzJuS.s:25276  .debug_str:00000000000189e8 .LASF2915
C:\Users\SOLDER~1\AppData\Local\Temp\ccUIzJuS.s:19328  .debug_str:0000000000000576 .LASF2916
C:\Users\SOLDER~1\AppData\Local\Temp\ccUIzJuS.s:27932  .debug_str:000000000002361c .LASF2917
C:\Users\SOLDER~1\AppData\Local\Temp\ccUIzJuS.s:22724  .debug_str:000000000000e3e6 .LASF2918
C:\Users\SOLDER~1\AppData\Local\Temp\ccUIzJuS.s:26886  .debug_str:000000000001f2ba .LASF2919
C:\Users\SOLDER~1\AppData\Local\Temp\ccUIzJuS.s:28168  .debug_str:0000000000024579 .LASF2920
C:\Users\SOLDER~1\AppData\Local\Temp\ccUIzJuS.s:26574  .debug_str:000000000001de22 .LASF2921
C:\Users\SOLDER~1\AppData\Local\Temp\ccUIzJuS.s:23204  .debug_str:00000000000102e0 .LASF2922
GAS LISTING C:\Users\SOLDER~1\AppData\Local\Temp\ccUIzJuS.s 			page 80


C:\Users\SOLDER~1\AppData\Local\Temp\ccUIzJuS.s:28226  .debug_str:000000000002497a .LASF2923
C:\Users\SOLDER~1\AppData\Local\Temp\ccUIzJuS.s:25348  .debug_str:0000000000018eb7 .LASF2924
C:\Users\SOLDER~1\AppData\Local\Temp\ccUIzJuS.s:24902  .debug_str:000000000001716b .LASF2925
C:\Users\SOLDER~1\AppData\Local\Temp\ccUIzJuS.s:24194  .debug_str:0000000000014413 .LASF2926
C:\Users\SOLDER~1\AppData\Local\Temp\ccUIzJuS.s:22506  .debug_str:000000000000d552 .LASF2927
C:\Users\SOLDER~1\AppData\Local\Temp\ccUIzJuS.s:22804  .debug_str:000000000000e91b .LASF2928
C:\Users\SOLDER~1\AppData\Local\Temp\ccUIzJuS.s:25138  .debug_str:0000000000018122 .LASF2929
C:\Users\SOLDER~1\AppData\Local\Temp\ccUIzJuS.s:26588  .debug_str:000000000001df1f .LASF2930
C:\Users\SOLDER~1\AppData\Local\Temp\ccUIzJuS.s:28282  .debug_str:0000000000024d26 .LASF2931
C:\Users\SOLDER~1\AppData\Local\Temp\ccUIzJuS.s:28798  .debug_str:0000000000026fe2 .LASF2932
C:\Users\SOLDER~1\AppData\Local\Temp\ccUIzJuS.s:29188  .debug_str:00000000000289db .LASF2933
C:\Users\SOLDER~1\AppData\Local\Temp\ccUIzJuS.s:26468  .debug_str:000000000001d77f .LASF2934
C:\Users\SOLDER~1\AppData\Local\Temp\ccUIzJuS.s:25274  .debug_str:00000000000189ce .LASF2935
C:\Users\SOLDER~1\AppData\Local\Temp\ccUIzJuS.s:22374  .debug_str:000000000000cc8b .LASF2936
C:\Users\SOLDER~1\AppData\Local\Temp\ccUIzJuS.s:19254  .debug_str:00000000000000be .LASF2937
C:\Users\SOLDER~1\AppData\Local\Temp\ccUIzJuS.s:28588  .debug_str:00000000000261a1 .LASF2938
C:\Users\SOLDER~1\AppData\Local\Temp\ccUIzJuS.s:19520  .debug_str:00000000000012c8 .LASF2939
C:\Users\SOLDER~1\AppData\Local\Temp\ccUIzJuS.s:20398  .debug_str:0000000000004b3a .LASF2940
C:\Users\SOLDER~1\AppData\Local\Temp\ccUIzJuS.s:21122  .debug_str:00000000000079d0 .LASF2941
C:\Users\SOLDER~1\AppData\Local\Temp\ccUIzJuS.s:28104  .debug_str:0000000000024145 .LASF2942
C:\Users\SOLDER~1\AppData\Local\Temp\ccUIzJuS.s:27996  .debug_str:0000000000023a26 .LASF2943
C:\Users\SOLDER~1\AppData\Local\Temp\ccUIzJuS.s:21320  .debug_str:00000000000086b2 .LASF2944
C:\Users\SOLDER~1\AppData\Local\Temp\ccUIzJuS.s:24068  .debug_str:0000000000013b48 .LASF2945
C:\Users\SOLDER~1\AppData\Local\Temp\ccUIzJuS.s:25634  .debug_str:000000000001a0a9 .LASF2946
C:\Users\SOLDER~1\AppData\Local\Temp\ccUIzJuS.s:24714  .debug_str:00000000000165e2 .LASF2947
C:\Users\SOLDER~1\AppData\Local\Temp\ccUIzJuS.s:25170  .debug_str:000000000001832e .LASF2948
C:\Users\SOLDER~1\AppData\Local\Temp\ccUIzJuS.s:25430  .debug_str:00000000000193f7 .LASF2949
C:\Users\SOLDER~1\AppData\Local\Temp\ccUIzJuS.s:23854  .debug_str:0000000000012cb8 .LASF2950
C:\Users\SOLDER~1\AppData\Local\Temp\ccUIzJuS.s:25534  .debug_str:0000000000019a69 .LASF2951
C:\Users\SOLDER~1\AppData\Local\Temp\ccUIzJuS.s:19996  .debug_str:000000000000313d .LASF2952
C:\Users\SOLDER~1\AppData\Local\Temp\ccUIzJuS.s:19458  .debug_str:0000000000000ee4 .LASF2953
C:\Users\SOLDER~1\AppData\Local\Temp\ccUIzJuS.s:25334  .debug_str:0000000000018daa .LASF2954
C:\Users\SOLDER~1\AppData\Local\Temp\ccUIzJuS.s:28572  .debug_str:000000000002609f .LASF2955
C:\Users\SOLDER~1\AppData\Local\Temp\ccUIzJuS.s:29314  .debug_str:00000000000291b8 .LASF2956
C:\Users\SOLDER~1\AppData\Local\Temp\ccUIzJuS.s:19816  .debug_str:00000000000025c6 .LASF2957
C:\Users\SOLDER~1\AppData\Local\Temp\ccUIzJuS.s:22940  .debug_str:000000000000f179 .LASF2958
C:\Users\SOLDER~1\AppData\Local\Temp\ccUIzJuS.s:30300  .debug_str:000000000002d1bc .LASF2959
C:\Users\SOLDER~1\AppData\Local\Temp\ccUIzJuS.s:23482  .debug_str:00000000000114ca .LASF2960
C:\Users\SOLDER~1\AppData\Local\Temp\ccUIzJuS.s:24952  .debug_str:00000000000174ab .LASF2961
C:\Users\SOLDER~1\AppData\Local\Temp\ccUIzJuS.s:20864  .debug_str:000000000000696b .LASF2962
C:\Users\SOLDER~1\AppData\Local\Temp\ccUIzJuS.s:20612  .debug_str:0000000000005894 .LASF2963
C:\Users\SOLDER~1\AppData\Local\Temp\ccUIzJuS.s:28300  .debug_str:0000000000024e7c .LASF2964
C:\Users\SOLDER~1\AppData\Local\Temp\ccUIzJuS.s:30732  .debug_str:000000000002ed7d .LASF2965
C:\Users\SOLDER~1\AppData\Local\Temp\ccUIzJuS.s:20732  .debug_str:000000000000604d .LASF2966
C:\Users\SOLDER~1\AppData\Local\Temp\ccUIzJuS.s:19268  .debug_str:000000000000017d .LASF2967
C:\Users\SOLDER~1\AppData\Local\Temp\ccUIzJuS.s:28702  .debug_str:000000000002698b .LASF2968
C:\Users\SOLDER~1\AppData\Local\Temp\ccUIzJuS.s:27588  .debug_str:0000000000021fbc .LASF2969
C:\Users\SOLDER~1\AppData\Local\Temp\ccUIzJuS.s:24468  .debug_str:00000000000155f8 .LASF2970
C:\Users\SOLDER~1\AppData\Local\Temp\ccUIzJuS.s:23032  .debug_str:000000000000f760 .LASF2971
C:\Users\SOLDER~1\AppData\Local\Temp\ccUIzJuS.s:27862  .debug_str:0000000000023165 .LASF2972
C:\Users\SOLDER~1\AppData\Local\Temp\ccUIzJuS.s:21882  .debug_str:000000000000abf5 .LASF2973
C:\Users\SOLDER~1\AppData\Local\Temp\ccUIzJuS.s:19706  .debug_str:0000000000001eb3 .LASF2974
C:\Users\SOLDER~1\AppData\Local\Temp\ccUIzJuS.s:23978  .debug_str:00000000000134ce .LASF2975
C:\Users\SOLDER~1\AppData\Local\Temp\ccUIzJuS.s:21548  .debug_str:00000000000095fa .LASF2976
C:\Users\SOLDER~1\AppData\Local\Temp\ccUIzJuS.s:27646  .debug_str:000000000002230c .LASF2977
C:\Users\SOLDER~1\AppData\Local\Temp\ccUIzJuS.s:30304  .debug_str:000000000002d20c .LASF2978
C:\Users\SOLDER~1\AppData\Local\Temp\ccUIzJuS.s:22240  .debug_str:000000000000c339 .LASF2979
GAS LISTING C:\Users\SOLDER~1\AppData\Local\Temp\ccUIzJuS.s 			page 81


C:\Users\SOLDER~1\AppData\Local\Temp\ccUIzJuS.s:27874  .debug_str:0000000000023221 .LASF2980
C:\Users\SOLDER~1\AppData\Local\Temp\ccUIzJuS.s:21834  .debug_str:000000000000a8ca .LASF2981
C:\Users\SOLDER~1\AppData\Local\Temp\ccUIzJuS.s:30286  .debug_str:000000000002d0c4 .LASF2982
C:\Users\SOLDER~1\AppData\Local\Temp\ccUIzJuS.s:24658  .debug_str:0000000000016239 .LASF2983
C:\Users\SOLDER~1\AppData\Local\Temp\ccUIzJuS.s:26590  .debug_str:000000000001df48 .LASF2984
C:\Users\SOLDER~1\AppData\Local\Temp\ccUIzJuS.s:25460  .debug_str:0000000000019629 .LASF2985
C:\Users\SOLDER~1\AppData\Local\Temp\ccUIzJuS.s:20190  .debug_str:0000000000003dc5 .LASF2986
C:\Users\SOLDER~1\AppData\Local\Temp\ccUIzJuS.s:30198  .debug_str:000000000002cb27 .LASF2987
C:\Users\SOLDER~1\AppData\Local\Temp\ccUIzJuS.s:23878  .debug_str:0000000000012e4d .LASF2988
C:\Users\SOLDER~1\AppData\Local\Temp\ccUIzJuS.s:24066  .debug_str:0000000000013b1f .LASF2989
C:\Users\SOLDER~1\AppData\Local\Temp\ccUIzJuS.s:20644  .debug_str:0000000000005ab7 .LASF2990
C:\Users\SOLDER~1\AppData\Local\Temp\ccUIzJuS.s:30698  .debug_str:000000000002eb5f .LASF2991
C:\Users\SOLDER~1\AppData\Local\Temp\ccUIzJuS.s:19746  .debug_str:0000000000002117 .LASF2992
C:\Users\SOLDER~1\AppData\Local\Temp\ccUIzJuS.s:28828  .debug_str:00000000000271da .LASF2993
C:\Users\SOLDER~1\AppData\Local\Temp\ccUIzJuS.s:21780  .debug_str:000000000000a516 .LASF2994
C:\Users\SOLDER~1\AppData\Local\Temp\ccUIzJuS.s:24966  .debug_str:00000000000175ad .LASF2995
C:\Users\SOLDER~1\AppData\Local\Temp\ccUIzJuS.s:28646  .debug_str:00000000000265ef .LASF2996
C:\Users\SOLDER~1\AppData\Local\Temp\ccUIzJuS.s:22602  .debug_str:000000000000db3a .LASF2997
C:\Users\SOLDER~1\AppData\Local\Temp\ccUIzJuS.s:24138  .debug_str:000000000001402f .LASF2998
C:\Users\SOLDER~1\AppData\Local\Temp\ccUIzJuS.s:30746  .debug_str:000000000002ee56 .LASF2999
C:\Users\SOLDER~1\AppData\Local\Temp\ccUIzJuS.s:23134  .debug_str:000000000000fe9a .LASF3000
C:\Users\SOLDER~1\AppData\Local\Temp\ccUIzJuS.s:26806  .debug_str:000000000001ed3a .LASF3001
C:\Users\SOLDER~1\AppData\Local\Temp\ccUIzJuS.s:24020  .debug_str:00000000000137a5 .LASF3002
C:\Users\SOLDER~1\AppData\Local\Temp\ccUIzJuS.s:27600  .debug_str:000000000002206e .LASF3003
C:\Users\SOLDER~1\AppData\Local\Temp\ccUIzJuS.s:24564  .debug_str:0000000000015c19 .LASF3004
C:\Users\SOLDER~1\AppData\Local\Temp\ccUIzJuS.s:28254  .debug_str:0000000000024b5a .LASF3005
C:\Users\SOLDER~1\AppData\Local\Temp\ccUIzJuS.s:26092  .debug_str:000000000001be38 .LASF3006
C:\Users\SOLDER~1\AppData\Local\Temp\ccUIzJuS.s:27654  .debug_str:0000000000022391 .LASF3007
C:\Users\SOLDER~1\AppData\Local\Temp\ccUIzJuS.s:26722  .debug_str:000000000001e7bd .LASF3008
C:\Users\SOLDER~1\AppData\Local\Temp\ccUIzJuS.s:30200  .debug_str:000000000002cb40 .LASF3009
C:\Users\SOLDER~1\AppData\Local\Temp\ccUIzJuS.s:25770  .debug_str:000000000001a9b0 .LASF3010
C:\Users\SOLDER~1\AppData\Local\Temp\ccUIzJuS.s:30428  .debug_str:000000000002da23 .LASF3011
C:\Users\SOLDER~1\AppData\Local\Temp\ccUIzJuS.s:27072  .debug_str:000000000001fee7 .LASF3012
C:\Users\SOLDER~1\AppData\Local\Temp\ccUIzJuS.s:21570  .debug_str:0000000000009744 .LASF3013
C:\Users\SOLDER~1\AppData\Local\Temp\ccUIzJuS.s:23232  .debug_str:00000000000104eb .LASF3014
C:\Users\SOLDER~1\AppData\Local\Temp\ccUIzJuS.s:24122  .debug_str:0000000000013f19 .LASF3015
C:\Users\SOLDER~1\AppData\Local\Temp\ccUIzJuS.s:25098  .debug_str:0000000000017e47 .LASF3016
C:\Users\SOLDER~1\AppData\Local\Temp\ccUIzJuS.s:22188  .debug_str:000000000000bfa1 .LASF3017
C:\Users\SOLDER~1\AppData\Local\Temp\ccUIzJuS.s:21600  .debug_str:0000000000009944 .LASF3018
C:\Users\SOLDER~1\AppData\Local\Temp\ccUIzJuS.s:20292  .debug_str:000000000000444b .LASF3019
C:\Users\SOLDER~1\AppData\Local\Temp\ccUIzJuS.s:30644  .debug_str:000000000002e7b3 .LASF3020
C:\Users\SOLDER~1\AppData\Local\Temp\ccUIzJuS.s:29968  .debug_str:000000000002bc74 .LASF3021
C:\Users\SOLDER~1\AppData\Local\Temp\ccUIzJuS.s:26582  .debug_str:000000000001deb8 .LASF3022
C:\Users\SOLDER~1\AppData\Local\Temp\ccUIzJuS.s:28536  .debug_str:0000000000025e0b .LASF3023
C:\Users\SOLDER~1\AppData\Local\Temp\ccUIzJuS.s:25906  .debug_str:000000000001b26a .LASF3024
C:\Users\SOLDER~1\AppData\Local\Temp\ccUIzJuS.s:26244  .debug_str:000000000001c887 .LASF3025
C:\Users\SOLDER~1\AppData\Local\Temp\ccUIzJuS.s:19832  .debug_str:00000000000026b6 .LASF3026
C:\Users\SOLDER~1\AppData\Local\Temp\ccUIzJuS.s:24358  .debug_str:0000000000014eff .LASF3027
C:\Users\SOLDER~1\AppData\Local\Temp\ccUIzJuS.s:28916  .debug_str:00000000000277e6 .LASF3028
C:\Users\SOLDER~1\AppData\Local\Temp\ccUIzJuS.s:22432  .debug_str:000000000000d075 .LASF3029
C:\Users\SOLDER~1\AppData\Local\Temp\ccUIzJuS.s:24314  .debug_str:0000000000014c27 .LASF3030
C:\Users\SOLDER~1\AppData\Local\Temp\ccUIzJuS.s:30626  .debug_str:000000000002e68a .LASF3031
C:\Users\SOLDER~1\AppData\Local\Temp\ccUIzJuS.s:21494  .debug_str:0000000000009272 .LASF3032
C:\Users\SOLDER~1\AppData\Local\Temp\ccUIzJuS.s:30220  .debug_str:000000000002cc8a .LASF3033
C:\Users\SOLDER~1\AppData\Local\Temp\ccUIzJuS.s:23752  .debug_str:0000000000012600 .LASF3034
C:\Users\SOLDER~1\AppData\Local\Temp\ccUIzJuS.s:29588  .debug_str:000000000002a3d4 .LASF3035
C:\Users\SOLDER~1\AppData\Local\Temp\ccUIzJuS.s:21732  .debug_str:000000000000a1f4 .LASF3036
GAS LISTING C:\Users\SOLDER~1\AppData\Local\Temp\ccUIzJuS.s 			page 82


C:\Users\SOLDER~1\AppData\Local\Temp\ccUIzJuS.s:27828  .debug_str:0000000000022f37 .LASF3037
C:\Users\SOLDER~1\AppData\Local\Temp\ccUIzJuS.s:19648  .debug_str:0000000000001aeb .LASF3038
C:\Users\SOLDER~1\AppData\Local\Temp\ccUIzJuS.s:19702  .debug_str:0000000000001e6d .LASF3039
C:\Users\SOLDER~1\AppData\Local\Temp\ccUIzJuS.s:19870  .debug_str:000000000000293f .LASF3040
C:\Users\SOLDER~1\AppData\Local\Temp\ccUIzJuS.s:24604  .debug_str:0000000000015ead .LASF3041
C:\Users\SOLDER~1\AppData\Local\Temp\ccUIzJuS.s:23304  .debug_str:000000000001097d .LASF3042
C:\Users\SOLDER~1\AppData\Local\Temp\ccUIzJuS.s:22848  .debug_str:000000000000ebac .LASF3043
C:\Users\SOLDER~1\AppData\Local\Temp\ccUIzJuS.s:25414  .debug_str:00000000000192ee .LASF3044
C:\Users\SOLDER~1\AppData\Local\Temp\ccUIzJuS.s:21224  .debug_str:0000000000008098 .LASF3045
C:\Users\SOLDER~1\AppData\Local\Temp\ccUIzJuS.s:22508  .debug_str:000000000000d56c .LASF3046
C:\Users\SOLDER~1\AppData\Local\Temp\ccUIzJuS.s:25160  .debug_str:00000000000182a6 .LASF3047
C:\Users\SOLDER~1\AppData\Local\Temp\ccUIzJuS.s:27804  .debug_str:0000000000022db6 .LASF3048
C:\Users\SOLDER~1\AppData\Local\Temp\ccUIzJuS.s:23680  .debug_str:0000000000012157 .LASF3049
C:\Users\SOLDER~1\AppData\Local\Temp\ccUIzJuS.s:26974  .debug_str:000000000001f8ac .LASF3050
C:\Users\SOLDER~1\AppData\Local\Temp\ccUIzJuS.s:21344  .debug_str:0000000000008850 .LASF3051
C:\Users\SOLDER~1\AppData\Local\Temp\ccUIzJuS.s:22178  .debug_str:000000000000bef4 .LASF3052
C:\Users\SOLDER~1\AppData\Local\Temp\ccUIzJuS.s:19542  .debug_str:0000000000001431 .LASF3053
C:\Users\SOLDER~1\AppData\Local\Temp\ccUIzJuS.s:30586  .debug_str:000000000002e40d .LASF3054
C:\Users\SOLDER~1\AppData\Local\Temp\ccUIzJuS.s:29160  .debug_str:00000000000287db .LASF3055
C:\Users\SOLDER~1\AppData\Local\Temp\ccUIzJuS.s:24486  .debug_str:0000000000015713 .LASF3056
C:\Users\SOLDER~1\AppData\Local\Temp\ccUIzJuS.s:27244  .debug_str:0000000000020a1d .LASF3057
C:\Users\SOLDER~1\AppData\Local\Temp\ccUIzJuS.s:22196  .debug_str:000000000000c019 .LASF3058
C:\Users\SOLDER~1\AppData\Local\Temp\ccUIzJuS.s:24378  .debug_str:0000000000015037 .LASF3059
C:\Users\SOLDER~1\AppData\Local\Temp\ccUIzJuS.s:21364  .debug_str:000000000000897d .LASF3060
C:\Users\SOLDER~1\AppData\Local\Temp\ccUIzJuS.s:23474  .debug_str:0000000000011427 .LASF3061
C:\Users\SOLDER~1\AppData\Local\Temp\ccUIzJuS.s:25604  .debug_str:0000000000019ebe .LASF3062
C:\Users\SOLDER~1\AppData\Local\Temp\ccUIzJuS.s:19668  .debug_str:0000000000001c3f .LASF3063
C:\Users\SOLDER~1\AppData\Local\Temp\ccUIzJuS.s:20178  .debug_str:0000000000003d04 .LASF3064
C:\Users\SOLDER~1\AppData\Local\Temp\ccUIzJuS.s:28836  .debug_str:0000000000027273 .LASF3065
C:\Users\SOLDER~1\AppData\Local\Temp\ccUIzJuS.s:25102  .debug_str:0000000000017e95 .LASF3066
C:\Users\SOLDER~1\AppData\Local\Temp\ccUIzJuS.s:25986  .debug_str:000000000001b78d .LASF3067
C:\Users\SOLDER~1\AppData\Local\Temp\ccUIzJuS.s:23326  .debug_str:0000000000010ae2 .LASF3068
C:\Users\SOLDER~1\AppData\Local\Temp\ccUIzJuS.s:25210  .debug_str:00000000000185a8 .LASF3069
C:\Users\SOLDER~1\AppData\Local\Temp\ccUIzJuS.s:29868  .debug_str:000000000002b5f9 .LASF3070
C:\Users\SOLDER~1\AppData\Local\Temp\ccUIzJuS.s:26000  .debug_str:000000000001b85f .LASF3071
C:\Users\SOLDER~1\AppData\Local\Temp\ccUIzJuS.s:21592  .debug_str:00000000000098b3 .LASF3072
C:\Users\SOLDER~1\AppData\Local\Temp\ccUIzJuS.s:29690  .debug_str:000000000002aa4c .LASF3073
C:\Users\SOLDER~1\AppData\Local\Temp\ccUIzJuS.s:29178  .debug_str:0000000000028935 .LASF3074
C:\Users\SOLDER~1\AppData\Local\Temp\ccUIzJuS.s:30210  .debug_str:000000000002cbef .LASF3075
C:\Users\SOLDER~1\AppData\Local\Temp\ccUIzJuS.s:26664  .debug_str:000000000001e3e2 .LASF3076
C:\Users\SOLDER~1\AppData\Local\Temp\ccUIzJuS.s:30096  .debug_str:000000000002c4dc .LASF3077
C:\Users\SOLDER~1\AppData\Local\Temp\ccUIzJuS.s:21204  .debug_str:0000000000007f43 .LASF3078
C:\Users\SOLDER~1\AppData\Local\Temp\ccUIzJuS.s:26476  .debug_str:000000000001d803 .LASF3079
C:\Users\SOLDER~1\AppData\Local\Temp\ccUIzJuS.s:29140  .debug_str:0000000000028699 .LASF3080
C:\Users\SOLDER~1\AppData\Local\Temp\ccUIzJuS.s:22092  .debug_str:000000000000b958 .LASF3081
C:\Users\SOLDER~1\AppData\Local\Temp\ccUIzJuS.s:29426  .debug_str:0000000000029948 .LASF3082
C:\Users\SOLDER~1\AppData\Local\Temp\ccUIzJuS.s:20182  .debug_str:0000000000003d4c .LASF3083
C:\Users\SOLDER~1\AppData\Local\Temp\ccUIzJuS.s:20758  .debug_str:0000000000006236 .LASF3084
C:\Users\SOLDER~1\AppData\Local\Temp\ccUIzJuS.s:29854  .debug_str:000000000002b536 .LASF3085
C:\Users\SOLDER~1\AppData\Local\Temp\ccUIzJuS.s:24442  .debug_str:0000000000015440 .LASF3086
C:\Users\SOLDER~1\AppData\Local\Temp\ccUIzJuS.s:27906  .debug_str:0000000000023477 .LASF3087
C:\Users\SOLDER~1\AppData\Local\Temp\ccUIzJuS.s:24408  .debug_str:00000000000151f0 .LASF3088
C:\Users\SOLDER~1\AppData\Local\Temp\ccUIzJuS.s:26062  .debug_str:000000000001bc5d .LASF3089
C:\Users\SOLDER~1\AppData\Local\Temp\ccUIzJuS.s:25152  .debug_str:0000000000018217 .LASF3090
C:\Users\SOLDER~1\AppData\Local\Temp\ccUIzJuS.s:29348  .debug_str:000000000002940b .LASF3091
C:\Users\SOLDER~1\AppData\Local\Temp\ccUIzJuS.s:20604  .debug_str:00000000000057f6 .LASF3092
C:\Users\SOLDER~1\AppData\Local\Temp\ccUIzJuS.s:22322  .debug_str:000000000000c8fb .LASF3093
GAS LISTING C:\Users\SOLDER~1\AppData\Local\Temp\ccUIzJuS.s 			page 83


C:\Users\SOLDER~1\AppData\Local\Temp\ccUIzJuS.s:24610  .debug_str:0000000000015f0a .LASF3094
C:\Users\SOLDER~1\AppData\Local\Temp\ccUIzJuS.s:24664  .debug_str:000000000001629e .LASF3095
C:\Users\SOLDER~1\AppData\Local\Temp\ccUIzJuS.s:27018  .debug_str:000000000001fb8d .LASF3096
C:\Users\SOLDER~1\AppData\Local\Temp\ccUIzJuS.s:30110  .debug_str:000000000002c5af .LASF3097
C:\Users\SOLDER~1\AppData\Local\Temp\ccUIzJuS.s:22914  .debug_str:000000000000eff0 .LASF3098
C:\Users\SOLDER~1\AppData\Local\Temp\ccUIzJuS.s:24698  .debug_str:00000000000164c3 .LASF3099
C:\Users\SOLDER~1\AppData\Local\Temp\ccUIzJuS.s:29952  .debug_str:000000000002bb6b .LASF3100
C:\Users\SOLDER~1\AppData\Local\Temp\ccUIzJuS.s:23554  .debug_str:0000000000011983 .LASF3101
C:\Users\SOLDER~1\AppData\Local\Temp\ccUIzJuS.s:22872  .debug_str:000000000000ed3e .LASF3102
C:\Users\SOLDER~1\AppData\Local\Temp\ccUIzJuS.s:24464  .debug_str:00000000000155bf .LASF3103
C:\Users\SOLDER~1\AppData\Local\Temp\ccUIzJuS.s:21928  .debug_str:000000000000aede .LASF3104
C:\Users\SOLDER~1\AppData\Local\Temp\ccUIzJuS.s:22756  .debug_str:000000000000e5da .LASF3105
C:\Users\SOLDER~1\AppData\Local\Temp\ccUIzJuS.s:29660  .debug_str:000000000002a893 .LASF3106
C:\Users\SOLDER~1\AppData\Local\Temp\ccUIzJuS.s:21108  .debug_str:00000000000078ce .LASF3107
C:\Users\SOLDER~1\AppData\Local\Temp\ccUIzJuS.s:27474  .debug_str:00000000000218d2 .LASF3108
C:\Users\SOLDER~1\AppData\Local\Temp\ccUIzJuS.s:19484  .debug_str:0000000000001085 .LASF3109
C:\Users\SOLDER~1\AppData\Local\Temp\ccUIzJuS.s:24524  .debug_str:0000000000015993 .LASF3110
C:\Users\SOLDER~1\AppData\Local\Temp\ccUIzJuS.s:20204  .debug_str:0000000000003ed1 .LASF3111
C:\Users\SOLDER~1\AppData\Local\Temp\ccUIzJuS.s:28326  .debug_str:0000000000025038 .LASF3112
C:\Users\SOLDER~1\AppData\Local\Temp\ccUIzJuS.s:28000  .debug_str:0000000000023a65 .LASF3113
C:\Users\SOLDER~1\AppData\Local\Temp\ccUIzJuS.s:26376  .debug_str:000000000001d148 .LASF3114
C:\Users\SOLDER~1\AppData\Local\Temp\ccUIzJuS.s:26312  .debug_str:000000000001cd2e .LASF3115
C:\Users\SOLDER~1\AppData\Local\Temp\ccUIzJuS.s:27912  .debug_str:00000000000234e1 .LASF3116
C:\Users\SOLDER~1\AppData\Local\Temp\ccUIzJuS.s:23156  .debug_str:000000000001000c .LASF3117
C:\Users\SOLDER~1\AppData\Local\Temp\ccUIzJuS.s:26596  .debug_str:000000000001dfb5 .LASF3118
C:\Users\SOLDER~1\AppData\Local\Temp\ccUIzJuS.s:25808  .debug_str:000000000001abf9 .LASF3119
C:\Users\SOLDER~1\AppData\Local\Temp\ccUIzJuS.s:26536  .debug_str:000000000001db86 .LASF3120
C:\Users\SOLDER~1\AppData\Local\Temp\ccUIzJuS.s:24090  .debug_str:0000000000013cf2 .LASF3121
C:\Users\SOLDER~1\AppData\Local\Temp\ccUIzJuS.s:29602  .debug_str:000000000002a4d5 .LASF3122
C:\Users\SOLDER~1\AppData\Local\Temp\ccUIzJuS.s:20884  .debug_str:0000000000006ab1 .LASF3123
C:\Users\SOLDER~1\AppData\Local\Temp\ccUIzJuS.s:21686  .debug_str:0000000000009ed2 .LASF3124
C:\Users\SOLDER~1\AppData\Local\Temp\ccUIzJuS.s:20784  .debug_str:00000000000063f2 .LASF3125
C:\Users\SOLDER~1\AppData\Local\Temp\ccUIzJuS.s:23706  .debug_str:0000000000012302 .LASF3126
C:\Users\SOLDER~1\AppData\Local\Temp\ccUIzJuS.s:19978  .debug_str:0000000000003008 .LASF3127
C:\Users\SOLDER~1\AppData\Local\Temp\ccUIzJuS.s:29118  .debug_str:000000000002853c .LASF3128
C:\Users\SOLDER~1\AppData\Local\Temp\ccUIzJuS.s:28952  .debug_str:0000000000027a3e .LASF3129
C:\Users\SOLDER~1\AppData\Local\Temp\ccUIzJuS.s:23092  .debug_str:000000000000fbaa .LASF3130
C:\Users\SOLDER~1\AppData\Local\Temp\ccUIzJuS.s:29422  .debug_str:0000000000029905 .LASF3131
C:\Users\SOLDER~1\AppData\Local\Temp\ccUIzJuS.s:24176  .debug_str:00000000000142cd .LASF3132
C:\Users\SOLDER~1\AppData\Local\Temp\ccUIzJuS.s:21536  .debug_str:0000000000009553 .LASF3133
C:\Users\SOLDER~1\AppData\Local\Temp\ccUIzJuS.s:30662  .debug_str:000000000002e8d3 .LASF3134
C:\Users\SOLDER~1\AppData\Local\Temp\ccUIzJuS.s:22932  .debug_str:000000000000f106 .LASF3135
C:\Users\SOLDER~1\AppData\Local\Temp\ccUIzJuS.s:24978  .debug_str:000000000001766c .LASF3136
C:\Users\SOLDER~1\AppData\Local\Temp\ccUIzJuS.s:21304  .debug_str:00000000000085bd .LASF3137
C:\Users\SOLDER~1\AppData\Local\Temp\ccUIzJuS.s:27090  .debug_str:0000000000020010 .LASF3138
C:\Users\SOLDER~1\AppData\Local\Temp\ccUIzJuS.s:27962  .debug_str:000000000002382f .LASF3139
C:\Users\SOLDER~1\AppData\Local\Temp\ccUIzJuS.s:19366  .debug_str:000000000000086f .LASF3140
C:\Users\SOLDER~1\AppData\Local\Temp\ccUIzJuS.s:29702  .debug_str:000000000002aaf3 .LASF3141
C:\Users\SOLDER~1\AppData\Local\Temp\ccUIzJuS.s:21004  .debug_str:0000000000007290 .LASF3142
C:\Users\SOLDER~1\AppData\Local\Temp\ccUIzJuS.s:20576  .debug_str:0000000000005617 .LASF3143
C:\Users\SOLDER~1\AppData\Local\Temp\ccUIzJuS.s:25082  .debug_str:0000000000017d34 .LASF3144
C:\Users\SOLDER~1\AppData\Local\Temp\ccUIzJuS.s:29788  .debug_str:000000000002b088 .LASF3145
C:\Users\SOLDER~1\AppData\Local\Temp\ccUIzJuS.s:21582  .debug_str:000000000000981a .LASF3146
C:\Users\SOLDER~1\AppData\Local\Temp\ccUIzJuS.s:27398  .debug_str:0000000000021412 .LASF3147
C:\Users\SOLDER~1\AppData\Local\Temp\ccUIzJuS.s:20658  .debug_str:0000000000005ba2 .LASF3148
C:\Users\SOLDER~1\AppData\Local\Temp\ccUIzJuS.s:25114  .debug_str:0000000000017f72 .LASF3149
C:\Users\SOLDER~1\AppData\Local\Temp\ccUIzJuS.s:29228  .debug_str:0000000000028c74 .LASF3150
GAS LISTING C:\Users\SOLDER~1\AppData\Local\Temp\ccUIzJuS.s 			page 84


C:\Users\SOLDER~1\AppData\Local\Temp\ccUIzJuS.s:27376  .debug_str:00000000000212bd .LASF3151
C:\Users\SOLDER~1\AppData\Local\Temp\ccUIzJuS.s:28560  .debug_str:0000000000025fae .LASF3152
C:\Users\SOLDER~1\AppData\Local\Temp\ccUIzJuS.s:25528  .debug_str:0000000000019a0a .LASF3153
C:\Users\SOLDER~1\AppData\Local\Temp\ccUIzJuS.s:19818  .debug_str:00000000000025e1 .LASF3154
C:\Users\SOLDER~1\AppData\Local\Temp\ccUIzJuS.s:23606  .debug_str:0000000000011cb8 .LASF3155
C:\Users\SOLDER~1\AppData\Local\Temp\ccUIzJuS.s:28902  .debug_str:00000000000276d5 .LASF3156
C:\Users\SOLDER~1\AppData\Local\Temp\ccUIzJuS.s:21698  .debug_str:0000000000009fad .LASF3157
C:\Users\SOLDER~1\AppData\Local\Temp\ccUIzJuS.s:27538  .debug_str:0000000000021cbb .LASF3158
C:\Users\SOLDER~1\AppData\Local\Temp\ccUIzJuS.s:19904  .debug_str:0000000000002b3a .LASF3159
C:\Users\SOLDER~1\AppData\Local\Temp\ccUIzJuS.s:27848  .debug_str:0000000000023078 .LASF3160
C:\Users\SOLDER~1\AppData\Local\Temp\ccUIzJuS.s:29552  .debug_str:000000000002a14e .LASF3161
C:\Users\SOLDER~1\AppData\Local\Temp\ccUIzJuS.s:30228  .debug_str:000000000002cd0a .LASF3162
C:\Users\SOLDER~1\AppData\Local\Temp\ccUIzJuS.s:29858  .debug_str:000000000002b565 .LASF3163
C:\Users\SOLDER~1\AppData\Local\Temp\ccUIzJuS.s:27222  .debug_str:00000000000208ac .LASF3164
C:\Users\SOLDER~1\AppData\Local\Temp\ccUIzJuS.s:22764  .debug_str:000000000000e650 .LASF3165
C:\Users\SOLDER~1\AppData\Local\Temp\ccUIzJuS.s:27814  .debug_str:0000000000022e55 .LASF3166
C:\Users\SOLDER~1\AppData\Local\Temp\ccUIzJuS.s:23612  .debug_str:0000000000011d2b .LASF3167
C:\Users\SOLDER~1\AppData\Local\Temp\ccUIzJuS.s:30370  .debug_str:000000000002d680 .LASF3168
C:\Users\SOLDER~1\AppData\Local\Temp\ccUIzJuS.s:21968  .debug_str:000000000000b156 .LASF3169
C:\Users\SOLDER~1\AppData\Local\Temp\ccUIzJuS.s:28540  .debug_str:0000000000025e44 .LASF3170
C:\Users\SOLDER~1\AppData\Local\Temp\ccUIzJuS.s:20230  .debug_str:0000000000004061 .LASF3171
C:\Users\SOLDER~1\AppData\Local\Temp\ccUIzJuS.s:28538  .debug_str:0000000000025e23 .LASF3172
C:\Users\SOLDER~1\AppData\Local\Temp\ccUIzJuS.s:20302  .debug_str:00000000000044e3 .LASF3173
C:\Users\SOLDER~1\AppData\Local\Temp\ccUIzJuS.s:21064  .debug_str:0000000000007633 .LASF3174
C:\Users\SOLDER~1\AppData\Local\Temp\ccUIzJuS.s:25602  .debug_str:0000000000019eab .LASF3175
C:\Users\SOLDER~1\AppData\Local\Temp\ccUIzJuS.s:26398  .debug_str:000000000001d30a .LASF3176
C:\Users\SOLDER~1\AppData\Local\Temp\ccUIzJuS.s:23676  .debug_str:0000000000012122 .LASF3177
C:\Users\SOLDER~1\AppData\Local\Temp\ccUIzJuS.s:25908  .debug_str:000000000001b28c .LASF3178
C:\Users\SOLDER~1\AppData\Local\Temp\ccUIzJuS.s:21766  .debug_str:000000000000a428 .LASF3179
C:\Users\SOLDER~1\AppData\Local\Temp\ccUIzJuS.s:28330  .debug_str:0000000000025081 .LASF3180
C:\Users\SOLDER~1\AppData\Local\Temp\ccUIzJuS.s:22118  .debug_str:000000000000bb0f .LASF3181
C:\Users\SOLDER~1\AppData\Local\Temp\ccUIzJuS.s:26786  .debug_str:000000000001ec09 .LASF3182
C:\Users\SOLDER~1\AppData\Local\Temp\ccUIzJuS.s:29618  .debug_str:000000000002a5e2 .LASF3183
C:\Users\SOLDER~1\AppData\Local\Temp\ccUIzJuS.s:29210  .debug_str:0000000000028b4b .LASF3184
C:\Users\SOLDER~1\AppData\Local\Temp\ccUIzJuS.s:27682  .debug_str:0000000000022573 .LASF3185
C:\Users\SOLDER~1\AppData\Local\Temp\ccUIzJuS.s:27348  .debug_str:00000000000210a7 .LASF3186
C:\Users\SOLDER~1\AppData\Local\Temp\ccUIzJuS.s:25834  .debug_str:000000000001ae19 .LASF3187
C:\Users\SOLDER~1\AppData\Local\Temp\ccUIzJuS.s:22868  .debug_str:000000000000ecf7 .LASF3188
C:\Users\SOLDER~1\AppData\Local\Temp\ccUIzJuS.s:24276  .debug_str:000000000001498e .LASF3189
C:\Users\SOLDER~1\AppData\Local\Temp\ccUIzJuS.s:19510  .debug_str:000000000000122d .LASF3190
C:\Users\SOLDER~1\AppData\Local\Temp\ccUIzJuS.s:21776  .debug_str:000000000000a4ce .LASF3191
C:\Users\SOLDER~1\AppData\Local\Temp\ccUIzJuS.s:29270  .debug_str:0000000000028f14 .LASF3192
C:\Users\SOLDER~1\AppData\Local\Temp\ccUIzJuS.s:20118  .debug_str:000000000000390d .LASF3193
C:\Users\SOLDER~1\AppData\Local\Temp\ccUIzJuS.s:24614  .debug_str:0000000000015f52 .LASF3194
C:\Users\SOLDER~1\AppData\Local\Temp\ccUIzJuS.s:29692  .debug_str:000000000002aa67 .LASF3195
C:\Users\SOLDER~1\AppData\Local\Temp\ccUIzJuS.s:21736  .debug_str:000000000000a23c .LASF3196
C:\Users\SOLDER~1\AppData\Local\Temp\ccUIzJuS.s:27990  .debug_str:00000000000239f1 .LASF3197
C:\Users\SOLDER~1\AppData\Local\Temp\ccUIzJuS.s:26242  .debug_str:000000000001c865 .LASF3198
C:\Users\SOLDER~1\AppData\Local\Temp\ccUIzJuS.s:27560  .debug_str:0000000000021e02 .LASF3199
C:\Users\SOLDER~1\AppData\Local\Temp\ccUIzJuS.s:25332  .debug_str:0000000000018d88 .LASF3200
C:\Users\SOLDER~1\AppData\Local\Temp\ccUIzJuS.s:24694  .debug_str:000000000001648f .LASF3201
C:\Users\SOLDER~1\AppData\Local\Temp\ccUIzJuS.s:21476  .debug_str:0000000000009115 .LASF3202
C:\Users\SOLDER~1\AppData\Local\Temp\ccUIzJuS.s:28046  .debug_str:0000000000023d66 .LASF3203
C:\Users\SOLDER~1\AppData\Local\Temp\ccUIzJuS.s:22798  .debug_str:000000000000e8bb .LASF3204
C:\Users\SOLDER~1\AppData\Local\Temp\ccUIzJuS.s:21310  .debug_str:0000000000008613 .LASF3205
C:\Users\SOLDER~1\AppData\Local\Temp\ccUIzJuS.s:20818  .debug_str:0000000000006627 .LASF3206
C:\Users\SOLDER~1\AppData\Local\Temp\ccUIzJuS.s:28576  .debug_str:00000000000260df .LASF3207
GAS LISTING C:\Users\SOLDER~1\AppData\Local\Temp\ccUIzJuS.s 			page 85


C:\Users\SOLDER~1\AppData\Local\Temp\ccUIzJuS.s:21658  .debug_str:0000000000009cd3 .LASF3208
C:\Users\SOLDER~1\AppData\Local\Temp\ccUIzJuS.s:23712  .debug_str:0000000000012360 .LASF3209
C:\Users\SOLDER~1\AppData\Local\Temp\ccUIzJuS.s:23708  .debug_str:0000000000012327 .LASF3210
C:\Users\SOLDER~1\AppData\Local\Temp\ccUIzJuS.s:24772  .debug_str:000000000001692d .LASF3211
C:\Users\SOLDER~1\AppData\Local\Temp\ccUIzJuS.s:29090  .debug_str:000000000002838a .LASF3212
C:\Users\SOLDER~1\AppData\Local\Temp\ccUIzJuS.s:28716  .debug_str:0000000000026a6e .LASF3213
C:\Users\SOLDER~1\AppData\Local\Temp\ccUIzJuS.s:26428  .debug_str:000000000001d513 .LASF3214
C:\Users\SOLDER~1\AppData\Local\Temp\ccUIzJuS.s:20690  .debug_str:0000000000005da0 .LASF3215
C:\Users\SOLDER~1\AppData\Local\Temp\ccUIzJuS.s:28148  .debug_str:0000000000024433 .LASF3216
C:\Users\SOLDER~1\AppData\Local\Temp\ccUIzJuS.s:29418  .debug_str:00000000000298c8 .LASF3217
C:\Users\SOLDER~1\AppData\Local\Temp\ccUIzJuS.s:22948  .debug_str:000000000000f203 .LASF3218
C:\Users\SOLDER~1\AppData\Local\Temp\ccUIzJuS.s:26572  .debug_str:000000000001de01 .LASF3219
C:\Users\SOLDER~1\AppData\Local\Temp\ccUIzJuS.s:24746  .debug_str:0000000000016793 .LASF3220
C:\Users\SOLDER~1\AppData\Local\Temp\ccUIzJuS.s:26578  .debug_str:000000000001de70 .LASF3221
C:\Users\SOLDER~1\AppData\Local\Temp\ccUIzJuS.s:21890  .debug_str:000000000000ac54 .LASF3222
C:\Users\SOLDER~1\AppData\Local\Temp\ccUIzJuS.s:21356  .debug_str:00000000000088fc .LASF3223
C:\Users\SOLDER~1\AppData\Local\Temp\ccUIzJuS.s:20212  .debug_str:0000000000003f2f .LASF3224
C:\Users\SOLDER~1\AppData\Local\Temp\ccUIzJuS.s:21042  .debug_str:00000000000074ff .LASF3225
C:\Users\SOLDER~1\AppData\Local\Temp\ccUIzJuS.s:29308  .debug_str:000000000002915f .LASF3226
C:\Users\SOLDER~1\AppData\Local\Temp\ccUIzJuS.s:27312  .debug_str:0000000000020e78 .LASF3227
C:\Users\SOLDER~1\AppData\Local\Temp\ccUIzJuS.s:24788  .debug_str:0000000000016a44 .LASF3228
C:\Users\SOLDER~1\AppData\Local\Temp\ccUIzJuS.s:22084  .debug_str:000000000000b8d9 .LASF3229
C:\Users\SOLDER~1\AppData\Local\Temp\ccUIzJuS.s:19446  .debug_str:0000000000000e2d .LASF3230
C:\Users\SOLDER~1\AppData\Local\Temp\ccUIzJuS.s:28430  .debug_str:00000000000256bf .LASF3231
C:\Users\SOLDER~1\AppData\Local\Temp\ccUIzJuS.s:29582  .debug_str:000000000002a36c .LASF3232
C:\Users\SOLDER~1\AppData\Local\Temp\ccUIzJuS.s:19698  .debug_str:0000000000001e33 .LASF3233
C:\Users\SOLDER~1\AppData\Local\Temp\ccUIzJuS.s:23772  .debug_str:000000000001275c .LASF3234
C:\Users\SOLDER~1\AppData\Local\Temp\ccUIzJuS.s:30488  .debug_str:000000000002ddca .LASF3235
C:\Users\SOLDER~1\AppData\Local\Temp\ccUIzJuS.s:28262  .debug_str:0000000000024be8 .LASF3236
C:\Users\SOLDER~1\AppData\Local\Temp\ccUIzJuS.s:22892  .debug_str:000000000000ee83 .LASF3237
C:\Users\SOLDER~1\AppData\Local\Temp\ccUIzJuS.s:26544  .debug_str:000000000001dc1f .LASF3238
C:\Users\SOLDER~1\AppData\Local\Temp\ccUIzJuS.s:30142  .debug_str:000000000002c79d .LASF3239
C:\Users\SOLDER~1\AppData\Local\Temp\ccUIzJuS.s:22224  .debug_str:000000000000c212 .LASF3240
C:\Users\SOLDER~1\AppData\Local\Temp\ccUIzJuS.s:28312  .debug_str:0000000000024f53 .LASF3241
C:\Users\SOLDER~1\AppData\Local\Temp\ccUIzJuS.s:30036  .debug_str:000000000002c0bf .LASF3242
C:\Users\SOLDER~1\AppData\Local\Temp\ccUIzJuS.s:23966  .debug_str:000000000001340c .LASF3243
C:\Users\SOLDER~1\AppData\Local\Temp\ccUIzJuS.s:23136  .debug_str:000000000000fec2 .LASF3244
C:\Users\SOLDER~1\AppData\Local\Temp\ccUIzJuS.s:29038  .debug_str:0000000000027ff7 .LASF3245
C:\Users\SOLDER~1\AppData\Local\Temp\ccUIzJuS.s:26718  .debug_str:000000000001e76d .LASF3246
C:\Users\SOLDER~1\AppData\Local\Temp\ccUIzJuS.s:29198  .debug_str:0000000000028aa2 .LASF3247
C:\Users\SOLDER~1\AppData\Local\Temp\ccUIzJuS.s:22988  .debug_str:000000000000f48e .LASF3248
C:\Users\SOLDER~1\AppData\Local\Temp\ccUIzJuS.s:29938  .debug_str:000000000002ba8a .LASF3249
C:\Users\SOLDER~1\AppData\Local\Temp\ccUIzJuS.s:23198  .debug_str:000000000001026e .LASF3250
C:\Users\SOLDER~1\AppData\Local\Temp\ccUIzJuS.s:30582  .debug_str:000000000002e3cb .LASF3251
C:\Users\SOLDER~1\AppData\Local\Temp\ccUIzJuS.s:29654  .debug_str:000000000002a827 .LASF3252
C:\Users\SOLDER~1\AppData\Local\Temp\ccUIzJuS.s:28620  .debug_str:0000000000026410 .LASF3253
C:\Users\SOLDER~1\AppData\Local\Temp\ccUIzJuS.s:29374  .debug_str:00000000000295bc .LASF3254
C:\Users\SOLDER~1\AppData\Local\Temp\ccUIzJuS.s:26226  .debug_str:000000000001c750 .LASF3255
C:\Users\SOLDER~1\AppData\Local\Temp\ccUIzJuS.s:23490  .debug_str:0000000000011551 .LASF3256
C:\Users\SOLDER~1\AppData\Local\Temp\ccUIzJuS.s:21168  .debug_str:0000000000007cc7 .LASF3257
C:\Users\SOLDER~1\AppData\Local\Temp\ccUIzJuS.s:22132  .debug_str:000000000000bc28 .LASF3258
C:\Users\SOLDER~1\AppData\Local\Temp\ccUIzJuS.s:26056  .debug_str:000000000001bbf8 .LASF3259
C:\Users\SOLDER~1\AppData\Local\Temp\ccUIzJuS.s:23296  .debug_str:00000000000108d6 .LASF3260
C:\Users\SOLDER~1\AppData\Local\Temp\ccUIzJuS.s:25956  .debug_str:000000000001b59c .LASF3261
C:\Users\SOLDER~1\AppData\Local\Temp\ccUIzJuS.s:27576  .debug_str:0000000000021f07 .LASF3262
C:\Users\SOLDER~1\AppData\Local\Temp\ccUIzJuS.s:28134  .debug_str:000000000002432f .LASF3263
C:\Users\SOLDER~1\AppData\Local\Temp\ccUIzJuS.s:21314  .debug_str:0000000000008646 .LASF3264
GAS LISTING C:\Users\SOLDER~1\AppData\Local\Temp\ccUIzJuS.s 			page 86


C:\Users\SOLDER~1\AppData\Local\Temp\ccUIzJuS.s:29096  .debug_str:00000000000283e5 .LASF3265
C:\Users\SOLDER~1\AppData\Local\Temp\ccUIzJuS.s:25518  .debug_str:000000000001995a .LASF3266
C:\Users\SOLDER~1\AppData\Local\Temp\ccUIzJuS.s:22286  .debug_str:000000000000c673 .LASF3267
C:\Users\SOLDER~1\AppData\Local\Temp\ccUIzJuS.s:21528  .debug_str:00000000000094a0 .LASF3268
C:\Users\SOLDER~1\AppData\Local\Temp\ccUIzJuS.s:21234  .debug_str:0000000000008157 .LASF3269
C:\Users\SOLDER~1\AppData\Local\Temp\ccUIzJuS.s:23048  .debug_str:000000000000f891 .LASF3270
C:\Users\SOLDER~1\AppData\Local\Temp\ccUIzJuS.s:25262  .debug_str:00000000000188ee .LASF3271
C:\Users\SOLDER~1\AppData\Local\Temp\ccUIzJuS.s:24282  .debug_str:00000000000149f1 .LASF3272
C:\Users\SOLDER~1\AppData\Local\Temp\ccUIzJuS.s:26548  .debug_str:000000000001dc63 .LASF3273
C:\Users\SOLDER~1\AppData\Local\Temp\ccUIzJuS.s:19790  .debug_str:0000000000002417 .LASF3274
C:\Users\SOLDER~1\AppData\Local\Temp\ccUIzJuS.s:22792  .debug_str:000000000000e82d .LASF3275
C:\Users\SOLDER~1\AppData\Local\Temp\ccUIzJuS.s:24458  .debug_str:0000000000015545 .LASF3276
C:\Users\SOLDER~1\AppData\Local\Temp\ccUIzJuS.s:26872  .debug_str:000000000001f1b7 .LASF3277
C:\Users\SOLDER~1\AppData\Local\Temp\ccUIzJuS.s:27762  .debug_str:0000000000022acc .LASF3278
C:\Users\SOLDER~1\AppData\Local\Temp\ccUIzJuS.s:30686  .debug_str:000000000002ea84 .LASF3279
C:\Users\SOLDER~1\AppData\Local\Temp\ccUIzJuS.s:29562  .debug_str:000000000002a1fe .LASF3280
C:\Users\SOLDER~1\AppData\Local\Temp\ccUIzJuS.s:29836  .debug_str:000000000002b3f3 .LASF3281
C:\Users\SOLDER~1\AppData\Local\Temp\ccUIzJuS.s:21400  .debug_str:0000000000008bfc .LASF3282
C:\Users\SOLDER~1\AppData\Local\Temp\ccUIzJuS.s:25100  .debug_str:0000000000017e69 .LASF3283
C:\Users\SOLDER~1\AppData\Local\Temp\ccUIzJuS.s:30346  .debug_str:000000000002d4e9 .LASF3284
C:\Users\SOLDER~1\AppData\Local\Temp\ccUIzJuS.s:28230  .debug_str:00000000000249ad .LASF3285
C:\Users\SOLDER~1\AppData\Local\Temp\ccUIzJuS.s:22796  .debug_str:000000000000e888 .LASF3286
C:\Users\SOLDER~1\AppData\Local\Temp\ccUIzJuS.s:24324  .debug_str:0000000000014cd3 .LASF3287
C:\Users\SOLDER~1\AppData\Local\Temp\ccUIzJuS.s:22246  .debug_str:000000000000c3a2 .LASF3288
C:\Users\SOLDER~1\AppData\Local\Temp\ccUIzJuS.s:23508  .debug_str:000000000001169d .LASF3289
C:\Users\SOLDER~1\AppData\Local\Temp\ccUIzJuS.s:24126  .debug_str:0000000000013f50 .LASF3290
C:\Users\SOLDER~1\AppData\Local\Temp\ccUIzJuS.s:23504  .debug_str:0000000000011652 .LASF3291
C:\Users\SOLDER~1\AppData\Local\Temp\ccUIzJuS.s:26746  .debug_str:000000000001e945 .LASF3292
C:\Users\SOLDER~1\AppData\Local\Temp\ccUIzJuS.s:23898  .debug_str:0000000000012f89 .LASF3293
C:\Users\SOLDER~1\AppData\Local\Temp\ccUIzJuS.s:29018  .debug_str:0000000000027e79 .LASF3294
C:\Users\SOLDER~1\AppData\Local\Temp\ccUIzJuS.s:26420  .debug_str:000000000001d485 .LASF3295
C:\Users\SOLDER~1\AppData\Local\Temp\ccUIzJuS.s:27544  .debug_str:0000000000021d07 .LASF3296
C:\Users\SOLDER~1\AppData\Local\Temp\ccUIzJuS.s:25084  .debug_str:0000000000017d54 .LASF3297
C:\Users\SOLDER~1\AppData\Local\Temp\ccUIzJuS.s:20608  .debug_str:0000000000005842 .LASF3298
C:\Users\SOLDER~1\AppData\Local\Temp\ccUIzJuS.s:23066  .debug_str:000000000000f9ca .LASF3299
C:\Users\SOLDER~1\AppData\Local\Temp\ccUIzJuS.s:24654  .debug_str:00000000000161ed .LASF3300
C:\Users\SOLDER~1\AppData\Local\Temp\ccUIzJuS.s:26522  .debug_str:000000000001daac .LASF3301
C:\Users\SOLDER~1\AppData\Local\Temp\ccUIzJuS.s:26094  .debug_str:000000000001be62 .LASF3302
C:\Users\SOLDER~1\AppData\Local\Temp\ccUIzJuS.s:22416  .debug_str:000000000000cf32 .LASF3303
C:\Users\SOLDER~1\AppData\Local\Temp\ccUIzJuS.s:20008  .debug_str:00000000000031f1 .LASF3304
C:\Users\SOLDER~1\AppData\Local\Temp\ccUIzJuS.s:26084  .debug_str:000000000001bdad .LASF3305
C:\Users\SOLDER~1\AppData\Local\Temp\ccUIzJuS.s:21426  .debug_str:0000000000008d9a .LASF3306
C:\Users\SOLDER~1\AppData\Local\Temp\ccUIzJuS.s:22866  .debug_str:000000000000ecc4 .LASF3307
C:\Users\SOLDER~1\AppData\Local\Temp\ccUIzJuS.s:20310  .debug_str:0000000000004547 .LASF3308
C:\Users\SOLDER~1\AppData\Local\Temp\ccUIzJuS.s:23206  .debug_str:0000000000010309 .LASF3309
C:\Users\SOLDER~1\AppData\Local\Temp\ccUIzJuS.s:20492  .debug_str:00000000000050e3 .LASF3310
C:\Users\SOLDER~1\AppData\Local\Temp\ccUIzJuS.s:19298  .debug_str:000000000000037f .LASF3311
C:\Users\SOLDER~1\AppData\Local\Temp\ccUIzJuS.s:21702  .debug_str:0000000000009fec .LASF3312
C:\Users\SOLDER~1\AppData\Local\Temp\ccUIzJuS.s:26814  .debug_str:000000000001edc6 .LASF3313
C:\Users\SOLDER~1\AppData\Local\Temp\ccUIzJuS.s:30652  .debug_str:000000000002e831 .LASF3314
C:\Users\SOLDER~1\AppData\Local\Temp\ccUIzJuS.s:19490  .debug_str:00000000000010d8 .LASF3315
C:\Users\SOLDER~1\AppData\Local\Temp\ccUIzJuS.s:20158  .debug_str:0000000000003bac .LASF3316
C:\Users\SOLDER~1\AppData\Local\Temp\ccUIzJuS.s:24710  .debug_str:000000000001659b .LASF3317
C:\Users\SOLDER~1\AppData\Local\Temp\ccUIzJuS.s:25718  .debug_str:000000000001a5f0 .LASF3318
C:\Users\SOLDER~1\AppData\Local\Temp\ccUIzJuS.s:25270  .debug_str:000000000001897e .LASF3319
C:\Users\SOLDER~1\AppData\Local\Temp\ccUIzJuS.s:30340  .debug_str:000000000002d484 .LASF3320
C:\Users\SOLDER~1\AppData\Local\Temp\ccUIzJuS.s:26870  .debug_str:000000000001f18e .LASF3321
GAS LISTING C:\Users\SOLDER~1\AppData\Local\Temp\ccUIzJuS.s 			page 87


C:\Users\SOLDER~1\AppData\Local\Temp\ccUIzJuS.s:23410  .debug_str:0000000000011017 .LASF3322
C:\Users\SOLDER~1\AppData\Local\Temp\ccUIzJuS.s:19934  .debug_str:0000000000002d19 .LASF3323
C:\Users\SOLDER~1\AppData\Local\Temp\ccUIzJuS.s:27974  .debug_str:00000000000238d8 .LASF3324
C:\Users\SOLDER~1\AppData\Local\Temp\ccUIzJuS.s:24102  .debug_str:0000000000013da0 .LASF3325
C:\Users\SOLDER~1\AppData\Local\Temp\ccUIzJuS.s:23538  .debug_str:0000000000011854 .LASF3326
C:\Users\SOLDER~1\AppData\Local\Temp\ccUIzJuS.s:22990  .debug_str:000000000000f4bd .LASF3327
C:\Users\SOLDER~1\AppData\Local\Temp\ccUIzJuS.s:25344  .debug_str:0000000000018e66 .LASF3328
C:\Users\SOLDER~1\AppData\Local\Temp\ccUIzJuS.s:28036  .debug_str:0000000000023cb6 .LASF3329
C:\Users\SOLDER~1\AppData\Local\Temp\ccUIzJuS.s:19332  .debug_str:00000000000005bd .LASF3330
C:\Users\SOLDER~1\AppData\Local\Temp\ccUIzJuS.s:20842  .debug_str:00000000000067e4 .LASF3331
C:\Users\SOLDER~1\AppData\Local\Temp\ccUIzJuS.s:27068  .debug_str:000000000001fea5 .LASF3332
C:\Users\SOLDER~1\AppData\Local\Temp\ccUIzJuS.s:26968  .debug_str:000000000001f83c .LASF3333
C:\Users\SOLDER~1\AppData\Local\Temp\ccUIzJuS.s:29322  .debug_str:0000000000029241 .LASF3334
C:\Users\SOLDER~1\AppData\Local\Temp\ccUIzJuS.s:22212  .debug_str:000000000000c13c .LASF3335
C:\Users\SOLDER~1\AppData\Local\Temp\ccUIzJuS.s:27240  .debug_str:00000000000209cd .LASF3336
C:\Users\SOLDER~1\AppData\Local\Temp\ccUIzJuS.s:20454  .debug_str:0000000000004eae .LASF3337
C:\Users\SOLDER~1\AppData\Local\Temp\ccUIzJuS.s:21394  .debug_str:0000000000008b8a .LASF3338
C:\Users\SOLDER~1\AppData\Local\Temp\ccUIzJuS.s:22984  .debug_str:000000000000f43b .LASF3339
C:\Users\SOLDER~1\AppData\Local\Temp\ccUIzJuS.s:20902  .debug_str:0000000000006bb4 .LASF3340
C:\Users\SOLDER~1\AppData\Local\Temp\ccUIzJuS.s:30696  .debug_str:000000000002eb36 .LASF3341
C:\Users\SOLDER~1\AppData\Local\Temp\ccUIzJuS.s:26268  .debug_str:000000000001ca1a .LASF3342
C:\Users\SOLDER~1\AppData\Local\Temp\ccUIzJuS.s:27112  .debug_str:000000000002019b .LASF3343
C:\Users\SOLDER~1\AppData\Local\Temp\ccUIzJuS.s:25370  .debug_str:0000000000019032 .LASF3344
C:\Users\SOLDER~1\AppData\Local\Temp\ccUIzJuS.s:23558  .debug_str:00000000000119c3 .LASF3345
C:\Users\SOLDER~1\AppData\Local\Temp\ccUIzJuS.s:21070  .debug_str:0000000000007697 .LASF3346
C:\Users\SOLDER~1\AppData\Local\Temp\ccUIzJuS.s:29750  .debug_str:000000000002ae3a .LASF3347
C:\Users\SOLDER~1\AppData\Local\Temp\ccUIzJuS.s:22082  .debug_str:000000000000b8bd .LASF3348
C:\Users\SOLDER~1\AppData\Local\Temp\ccUIzJuS.s:24446  .debug_str:0000000000015480 .LASF3349
C:\Users\SOLDER~1\AppData\Local\Temp\ccUIzJuS.s:27586  .debug_str:0000000000021fa0 .LASF3350
C:\Users\SOLDER~1\AppData\Local\Temp\ccUIzJuS.s:26898  .debug_str:000000000001f37a .LASF3351
C:\Users\SOLDER~1\AppData\Local\Temp\ccUIzJuS.s:24196  .debug_str:000000000001443c .LASF3352
C:\Users\SOLDER~1\AppData\Local\Temp\ccUIzJuS.s:24474  .debug_str:000000000001564f .LASF3353
C:\Users\SOLDER~1\AppData\Local\Temp\ccUIzJuS.s:24206  .debug_str:00000000000144ce .LASF3354
C:\Users\SOLDER~1\AppData\Local\Temp\ccUIzJuS.s:20728  .debug_str:0000000000005ffe .LASF3355
C:\Users\SOLDER~1\AppData\Local\Temp\ccUIzJuS.s:28788  .debug_str:0000000000026f19 .LASF3356
C:\Users\SOLDER~1\AppData\Local\Temp\ccUIzJuS.s:25388  .debug_str:0000000000019157 .LASF3357
C:\Users\SOLDER~1\AppData\Local\Temp\ccUIzJuS.s:25220  .debug_str:0000000000018653 .LASF3358
C:\Users\SOLDER~1\AppData\Local\Temp\ccUIzJuS.s:29988  .debug_str:000000000002bd9e .LASF3359
C:\Users\SOLDER~1\AppData\Local\Temp\ccUIzJuS.s:22252  .debug_str:000000000000c419 .LASF3360
C:\Users\SOLDER~1\AppData\Local\Temp\ccUIzJuS.s:27028  .debug_str:000000000001fc1e .LASF3361
C:\Users\SOLDER~1\AppData\Local\Temp\ccUIzJuS.s:29818  .debug_str:000000000002b294 .LASF3362
C:\Users\SOLDER~1\AppData\Local\Temp\ccUIzJuS.s:29326  .debug_str:000000000002928e .LASF3363
C:\Users\SOLDER~1\AppData\Local\Temp\ccUIzJuS.s:27200  .debug_str:000000000002072c .LASF3364
C:\Users\SOLDER~1\AppData\Local\Temp\ccUIzJuS.s:26562  .debug_str:000000000001dd3f .LASF3365
C:\Users\SOLDER~1\AppData\Local\Temp\ccUIzJuS.s:27674  .debug_str:00000000000224e0 .LASF3366
C:\Users\SOLDER~1\AppData\Local\Temp\ccUIzJuS.s:28810  .debug_str:00000000000270c0 .LASF3367
C:\Users\SOLDER~1\AppData\Local\Temp\ccUIzJuS.s:29894  .debug_str:000000000002b78f .LASF3368
C:\Users\SOLDER~1\AppData\Local\Temp\ccUIzJuS.s:23068  .debug_str:000000000000f9f2 .LASF3369
C:\Users\SOLDER~1\AppData\Local\Temp\ccUIzJuS.s:27778  .debug_str:0000000000022bf3 .LASF3370
C:\Users\SOLDER~1\AppData\Local\Temp\ccUIzJuS.s:28730  .debug_str:0000000000026b6d .LASF3371
C:\Users\SOLDER~1\AppData\Local\Temp\ccUIzJuS.s:20710  .debug_str:0000000000005ec5 .LASF3372
C:\Users\SOLDER~1\AppData\Local\Temp\ccUIzJuS.s:30520  .debug_str:000000000002dff0 .LASF3373
C:\Users\SOLDER~1\AppData\Local\Temp\ccUIzJuS.s:27684  .debug_str:0000000000022586 .LASF3374
C:\Users\SOLDER~1\AppData\Local\Temp\ccUIzJuS.s:29162  .debug_str:00000000000287f4 .LASF3375
C:\Users\SOLDER~1\AppData\Local\Temp\ccUIzJuS.s:21982  .debug_str:000000000000b235 .LASF3376
C:\Users\SOLDER~1\AppData\Local\Temp\ccUIzJuS.s:23760  .debug_str:0000000000012695 .LASF3377
C:\Users\SOLDER~1\AppData\Local\Temp\ccUIzJuS.s:26272  .debug_str:000000000001ca5c .LASF3378
GAS LISTING C:\Users\SOLDER~1\AppData\Local\Temp\ccUIzJuS.s 			page 88


C:\Users\SOLDER~1\AppData\Local\Temp\ccUIzJuS.s:25632  .debug_str:000000000001a080 .LASF3379
C:\Users\SOLDER~1\AppData\Local\Temp\ccUIzJuS.s:23826  .debug_str:0000000000012aba .LASF3380
C:\Users\SOLDER~1\AppData\Local\Temp\ccUIzJuS.s:26942  .debug_str:000000000001f668 .LASF3381
C:\Users\SOLDER~1\AppData\Local\Temp\ccUIzJuS.s:25042  .debug_str:0000000000017abf .LASF3382
C:\Users\SOLDER~1\AppData\Local\Temp\ccUIzJuS.s:30570  .debug_str:000000000002e300 .LASF3383
C:\Users\SOLDER~1\AppData\Local\Temp\ccUIzJuS.s:25992  .debug_str:000000000001b7e3 .LASF3384
C:\Users\SOLDER~1\AppData\Local\Temp\ccUIzJuS.s:25588  .debug_str:0000000000019de6 .LASF3385
C:\Users\SOLDER~1\AppData\Local\Temp\ccUIzJuS.s:29480  .debug_str:0000000000029c72 .LASF3386
C:\Users\SOLDER~1\AppData\Local\Temp\ccUIzJuS.s:24268  .debug_str:00000000000148e9 .LASF3387
C:\Users\SOLDER~1\AppData\Local\Temp\ccUIzJuS.s:30254  .debug_str:000000000002cea2 .LASF3388
C:\Users\SOLDER~1\AppData\Local\Temp\ccUIzJuS.s:24352  .debug_str:0000000000014e9e .LASF3389
C:\Users\SOLDER~1\AppData\Local\Temp\ccUIzJuS.s:26708  .debug_str:000000000001e6af .LASF3390
C:\Users\SOLDER~1\AppData\Local\Temp\ccUIzJuS.s:30794  .debug_str:000000000002f174 .LASF3391
C:\Users\SOLDER~1\AppData\Local\Temp\ccUIzJuS.s:22880  .debug_str:000000000000edb7 .LASF3392
C:\Users\SOLDER~1\AppData\Local\Temp\ccUIzJuS.s:21432  .debug_str:0000000000008e0f .LASF3393
C:\Users\SOLDER~1\AppData\Local\Temp\ccUIzJuS.s:19570  .debug_str:000000000000160f .LASF3394
C:\Users\SOLDER~1\AppData\Local\Temp\ccUIzJuS.s:28434  .debug_str:00000000000256ea .LASF3395
C:\Users\SOLDER~1\AppData\Local\Temp\ccUIzJuS.s:28558  .debug_str:0000000000025f85 .LASF3396
C:\Users\SOLDER~1\AppData\Local\Temp\ccUIzJuS.s:25640  .debug_str:000000000001a10b .LASF3397
C:\Users\SOLDER~1\AppData\Local\Temp\ccUIzJuS.s:22706  .debug_str:000000000000e2b3 .LASF3398
C:\Users\SOLDER~1\AppData\Local\Temp\ccUIzJuS.s:21740  .debug_str:000000000000a284 .LASF3399
C:\Users\SOLDER~1\AppData\Local\Temp\ccUIzJuS.s:24884  .debug_str:000000000001702a .LASF3400
C:\Users\SOLDER~1\AppData\Local\Temp\ccUIzJuS.s:25104  .debug_str:0000000000017eb8 .LASF3401
C:\Users\SOLDER~1\AppData\Local\Temp\ccUIzJuS.s:29576  .debug_str:000000000002a2e5 .LASF3402
C:\Users\SOLDER~1\AppData\Local\Temp\ccUIzJuS.s:30632  .debug_str:000000000002e6ed .LASF3403
C:\Users\SOLDER~1\AppData\Local\Temp\ccUIzJuS.s:28774  .debug_str:0000000000026e50 .LASF3404
C:\Users\SOLDER~1\AppData\Local\Temp\ccUIzJuS.s:21986  .debug_str:000000000000b26f .LASF3405
C:\Users\SOLDER~1\AppData\Local\Temp\ccUIzJuS.s:26728  .debug_str:000000000001e82d .LASF3406
C:\Users\SOLDER~1\AppData\Local\Temp\ccUIzJuS.s:19926  .debug_str:0000000000002c86 .LASF3407
C:\Users\SOLDER~1\AppData\Local\Temp\ccUIzJuS.s:21620  .debug_str:0000000000009a85 .LASF3408
C:\Users\SOLDER~1\AppData\Local\Temp\ccUIzJuS.s:29424  .debug_str:000000000002991e .LASF3409
C:\Users\SOLDER~1\AppData\Local\Temp\ccUIzJuS.s:30172  .debug_str:000000000002c98f .LASF3410
C:\Users\SOLDER~1\AppData\Local\Temp\ccUIzJuS.s:20088  .debug_str:0000000000003713 .LASF3411
C:\Users\SOLDER~1\AppData\Local\Temp\ccUIzJuS.s:29878  .debug_str:000000000002b693 .LASF3412
C:\Users\SOLDER~1\AppData\Local\Temp\ccUIzJuS.s:28034  .debug_str:0000000000023c8c .LASF3413
C:\Users\SOLDER~1\AppData\Local\Temp\ccUIzJuS.s:26298  .debug_str:000000000001cc3d .LASF3414
C:\Users\SOLDER~1\AppData\Local\Temp\ccUIzJuS.s:24542  .debug_str:0000000000015ac1 .LASF3415
C:\Users\SOLDER~1\AppData\Local\Temp\ccUIzJuS.s:29634  .debug_str:000000000002a6db .LASF3416
C:\Users\SOLDER~1\AppData\Local\Temp\ccUIzJuS.s:20972  .debug_str:000000000000708b .LASF3417
C:\Users\SOLDER~1\AppData\Local\Temp\ccUIzJuS.s:24364  .debug_str:0000000000014f4f .LASF3418
C:\Users\SOLDER~1\AppData\Local\Temp\ccUIzJuS.s:23384  .debug_str:0000000000010e65 .LASF3419
C:\Users\SOLDER~1\AppData\Local\Temp\ccUIzJuS.s:22888  .debug_str:000000000000ee41 .LASF3420
C:\Users\SOLDER~1\AppData\Local\Temp\ccUIzJuS.s:28186  .debug_str:00000000000246be .LASF3421
C:\Users\SOLDER~1\AppData\Local\Temp\ccUIzJuS.s:28404  .debug_str:0000000000025517 .LASF3422
C:\Users\SOLDER~1\AppData\Local\Temp\ccUIzJuS.s:23556  .debug_str:000000000001199c .LASF3423
C:\Users\SOLDER~1\AppData\Local\Temp\ccUIzJuS.s:29282  .debug_str:0000000000028fdb .LASF3424
C:\Users\SOLDER~1\AppData\Local\Temp\ccUIzJuS.s:26632  .debug_str:000000000001e1f4 .LASF3425
C:\Users\SOLDER~1\AppData\Local\Temp\ccUIzJuS.s:27192  .debug_str:00000000000206b8 .LASF3426
C:\Users\SOLDER~1\AppData\Local\Temp\ccUIzJuS.s:23750  .debug_str:00000000000125d6 .LASF3427
C:\Users\SOLDER~1\AppData\Local\Temp\ccUIzJuS.s:25618  .debug_str:0000000000019f96 .LASF3428
C:\Users\SOLDER~1\AppData\Local\Temp\ccUIzJuS.s:20150  .debug_str:0000000000003b24 .LASF3429
C:\Users\SOLDER~1\AppData\Local\Temp\ccUIzJuS.s:24946  .debug_str:0000000000017430 .LASF3430
C:\Users\SOLDER~1\AppData\Local\Temp\ccUIzJuS.s:21458  .debug_str:0000000000008fd1 .LASF3431
C:\Users\SOLDER~1\AppData\Local\Temp\ccUIzJuS.s:27288  .debug_str:0000000000020cf3 .LASF3432
C:\Users\SOLDER~1\AppData\Local\Temp\ccUIzJuS.s:30070  .debug_str:000000000002c32e .LASF3433
C:\Users\SOLDER~1\AppData\Local\Temp\ccUIzJuS.s:23390  .debug_str:0000000000010ed2 .LASF3434
C:\Users\SOLDER~1\AppData\Local\Temp\ccUIzJuS.s:24080  .debug_str:0000000000013c2b .LASF3435
GAS LISTING C:\Users\SOLDER~1\AppData\Local\Temp\ccUIzJuS.s 			page 89


C:\Users\SOLDER~1\AppData\Local\Temp\ccUIzJuS.s:26824  .debug_str:000000000001ee7a .LASF3436
C:\Users\SOLDER~1\AppData\Local\Temp\ccUIzJuS.s:29594  .debug_str:000000000002a43f .LASF3437
C:\Users\SOLDER~1\AppData\Local\Temp\ccUIzJuS.s:20816  .debug_str:00000000000065fd .LASF3438
C:\Users\SOLDER~1\AppData\Local\Temp\ccUIzJuS.s:23584  .debug_str:0000000000011b45 .LASF3439
C:\Users\SOLDER~1\AppData\Local\Temp\ccUIzJuS.s:21366  .debug_str:00000000000089a0 .LASF3440
C:\Users\SOLDER~1\AppData\Local\Temp\ccUIzJuS.s:26098  .debug_str:000000000001beb1 .LASF3441
C:\Users\SOLDER~1\AppData\Local\Temp\ccUIzJuS.s:19314  .debug_str:0000000000000484 .LASF3442
C:\Users\SOLDER~1\AppData\Local\Temp\ccUIzJuS.s:22256  .debug_str:000000000000c45c .LASF3443
C:\Users\SOLDER~1\AppData\Local\Temp\ccUIzJuS.s:28750  .debug_str:0000000000026ccd .LASF3444
C:\Users\SOLDER~1\AppData\Local\Temp\ccUIzJuS.s:20776  .debug_str:000000000000635a .LASF3445
C:\Users\SOLDER~1\AppData\Local\Temp\ccUIzJuS.s:26706  .debug_str:000000000001e685 .LASF3446
C:\Users\SOLDER~1\AppData\Local\Temp\ccUIzJuS.s:24210  .debug_str:000000000001451e .LASF3447
C:\Users\SOLDER~1\AppData\Local\Temp\ccUIzJuS.s:22396  .debug_str:000000000000cdfa .LASF3448
C:\Users\SOLDER~1\AppData\Local\Temp\ccUIzJuS.s:28792  .debug_str:0000000000026f6b .LASF3449
C:\Users\SOLDER~1\AppData\Local\Temp\ccUIzJuS.s:30422  .debug_str:000000000002d9b1 .LASF3450
C:\Users\SOLDER~1\AppData\Local\Temp\ccUIzJuS.s:24534  .debug_str:0000000000015a44 .LASF3451
C:\Users\SOLDER~1\AppData\Local\Temp\ccUIzJuS.s:26852  .debug_str:000000000001f04a .LASF3452
C:\Users\SOLDER~1\AppData\Local\Temp\ccUIzJuS.s:25110  .debug_str:0000000000017f22 .LASF3453
C:\Users\SOLDER~1\AppData\Local\Temp\ccUIzJuS.s:20332  .debug_str:000000000000470c .LASF3454
C:\Users\SOLDER~1\AppData\Local\Temp\ccUIzJuS.s:25374  .debug_str:000000000001907c .LASF3455
C:\Users\SOLDER~1\AppData\Local\Temp\ccUIzJuS.s:19888  .debug_str:0000000000002a55 .LASF3456
C:\Users\SOLDER~1\AppData\Local\Temp\ccUIzJuS.s:29864  .debug_str:000000000002b5ba .LASF3457
C:\Users\SOLDER~1\AppData\Local\Temp\ccUIzJuS.s:29064  .debug_str:00000000000281a7 .LASF3458
C:\Users\SOLDER~1\AppData\Local\Temp\ccUIzJuS.s:30656  .debug_str:000000000002e86f .LASF3459
C:\Users\SOLDER~1\AppData\Local\Temp\ccUIzJuS.s:23568  .debug_str:0000000000011a72 .LASF3460
C:\Users\SOLDER~1\AppData\Local\Temp\ccUIzJuS.s:28274  .debug_str:0000000000024c9d .LASF3461
C:\Users\SOLDER~1\AppData\Local\Temp\ccUIzJuS.s:23666  .debug_str:0000000000012086 .LASF3462
C:\Users\SOLDER~1\AppData\Local\Temp\ccUIzJuS.s:29098  .debug_str:0000000000028404 .LASF3463
C:\Users\SOLDER~1\AppData\Local\Temp\ccUIzJuS.s:27592  .debug_str:0000000000021ffe .LASF3464
C:\Users\SOLDER~1\AppData\Local\Temp\ccUIzJuS.s:20588  .debug_str:00000000000056d2 .LASF3465
C:\Users\SOLDER~1\AppData\Local\Temp\ccUIzJuS.s:23024  .debug_str:000000000000f6e3 .LASF3466
C:\Users\SOLDER~1\AppData\Local\Temp\ccUIzJuS.s:24900  .debug_str:0000000000017146 .LASF3467
C:\Users\SOLDER~1\AppData\Local\Temp\ccUIzJuS.s:30062  .debug_str:000000000002c2a9 .LASF3468
C:\Users\SOLDER~1\AppData\Local\Temp\ccUIzJuS.s:19872  .debug_str:0000000000002962 .LASF3469
C:\Users\SOLDER~1\AppData\Local\Temp\ccUIzJuS.s:25208  .debug_str:000000000001858f .LASF3470
C:\Users\SOLDER~1\AppData\Local\Temp\ccUIzJuS.s:29948  .debug_str:000000000002bb1d .LASF3471
C:\Users\SOLDER~1\AppData\Local\Temp\ccUIzJuS.s:26778  .debug_str:000000000001eb8d .LASF3472
C:\Users\SOLDER~1\AppData\Local\Temp\ccUIzJuS.s:20136  .debug_str:0000000000003a42 .LASF3473
C:\Users\SOLDER~1\AppData\Local\Temp\ccUIzJuS.s:20820  .debug_str:0000000000006649 .LASF3474
C:\Users\SOLDER~1\AppData\Local\Temp\ccUIzJuS.s:24058  .debug_str:0000000000013a60 .LASF3475
C:\Users\SOLDER~1\AppData\Local\Temp\ccUIzJuS.s:22368  .debug_str:000000000000cc33 .LASF3476
C:\Users\SOLDER~1\AppData\Local\Temp\ccUIzJuS.s:24162  .debug_str:00000000000141ad .LASF3477
C:\Users\SOLDER~1\AppData\Local\Temp\ccUIzJuS.s:21088  .debug_str:00000000000077b5 .LASF3478
C:\Users\SOLDER~1\AppData\Local\Temp\ccUIzJuS.s:21428  .debug_str:0000000000008dca .LASF3479
C:\Users\SOLDER~1\AppData\Local\Temp\ccUIzJuS.s:21034  .debug_str:0000000000007488 .LASF3480
C:\Users\SOLDER~1\AppData\Local\Temp\ccUIzJuS.s:26834  .debug_str:000000000001ef1f .LASF3481
C:\Users\SOLDER~1\AppData\Local\Temp\ccUIzJuS.s:29860  .debug_str:000000000002b57d .LASF3482
C:\Users\SOLDER~1\AppData\Local\Temp\ccUIzJuS.s:19988  .debug_str:00000000000030af .LASF3483
C:\Users\SOLDER~1\AppData\Local\Temp\ccUIzJuS.s:27612  .debug_str:0000000000022132 .LASF3484
C:\Users\SOLDER~1\AppData\Local\Temp\ccUIzJuS.s:20594  .debug_str:000000000000572b .LASF3485
C:\Users\SOLDER~1\AppData\Local\Temp\ccUIzJuS.s:21208  .debug_str:0000000000007f8f .LASF3486
C:\Users\SOLDER~1\AppData\Local\Temp\ccUIzJuS.s:19968  .debug_str:0000000000002f78 .LASF3487
C:\Users\SOLDER~1\AppData\Local\Temp\ccUIzJuS.s:29152  .debug_str:0000000000028758 .LASF3488
C:\Users\SOLDER~1\AppData\Local\Temp\ccUIzJuS.s:25300  .debug_str:0000000000018b8f .LASF3489
C:\Users\SOLDER~1\AppData\Local\Temp\ccUIzJuS.s:26668  .debug_str:000000000001e429 .LASF3490
C:\Users\SOLDER~1\AppData\Local\Temp\ccUIzJuS.s:23960  .debug_str:00000000000133b0 .LASF3491
C:\Users\SOLDER~1\AppData\Local\Temp\ccUIzJuS.s:26202  .debug_str:000000000001c5bc .LASF3492
GAS LISTING C:\Users\SOLDER~1\AppData\Local\Temp\ccUIzJuS.s 			page 90


C:\Users\SOLDER~1\AppData\Local\Temp\ccUIzJuS.s:22728  .debug_str:000000000000e427 .LASF3493
C:\Users\SOLDER~1\AppData\Local\Temp\ccUIzJuS.s:22186  .debug_str:000000000000bf7d .LASF3494
C:\Users\SOLDER~1\AppData\Local\Temp\ccUIzJuS.s:27254  .debug_str:0000000000020ac3 .LASF3495
C:\Users\SOLDER~1\AppData\Local\Temp\ccUIzJuS.s:29768  .debug_str:000000000002af55 .LASF3496
C:\Users\SOLDER~1\AppData\Local\Temp\ccUIzJuS.s:28832  .debug_str:0000000000027229 .LASF3497
C:\Users\SOLDER~1\AppData\Local\Temp\ccUIzJuS.s:20946  .debug_str:0000000000006ea9 .LASF3498
C:\Users\SOLDER~1\AppData\Local\Temp\ccUIzJuS.s:25292  .debug_str:0000000000018b01 .LASF3499
C:\Users\SOLDER~1\AppData\Local\Temp\ccUIzJuS.s:24668  .debug_str:00000000000162da .LASF3500
C:\Users\SOLDER~1\AppData\Local\Temp\ccUIzJuS.s:20552  .debug_str:00000000000054a4 .LASF3501
C:\Users\SOLDER~1\AppData\Local\Temp\ccUIzJuS.s:19908  .debug_str:0000000000002b69 .LASF3502
C:\Users\SOLDER~1\AppData\Local\Temp\ccUIzJuS.s:21886  .debug_str:000000000000ac1c .LASF3503
C:\Users\SOLDER~1\AppData\Local\Temp\ccUIzJuS.s:28012  .debug_str:0000000000023b32 .LASF3504
C:\Users\SOLDER~1\AppData\Local\Temp\ccUIzJuS.s:30704  .debug_str:000000000002ebb5 .LASF3505
C:\Users\SOLDER~1\AppData\Local\Temp\ccUIzJuS.s:28302  .debug_str:0000000000024ea7 .LASF3506
C:\Users\SOLDER~1\AppData\Local\Temp\ccUIzJuS.s:29402  .debug_str:00000000000297c8 .LASF3507
C:\Users\SOLDER~1\AppData\Local\Temp\ccUIzJuS.s:29130  .debug_str:00000000000285fb .LASF3508
C:\Users\SOLDER~1\AppData\Local\Temp\ccUIzJuS.s:21270  .debug_str:000000000000838b .LASF3509
C:\Users\SOLDER~1\AppData\Local\Temp\ccUIzJuS.s:26270  .debug_str:000000000001ca43 .LASF3510
C:\Users\SOLDER~1\AppData\Local\Temp\ccUIzJuS.s:28868  .debug_str:000000000002748f .LASF3511
C:\Users\SOLDER~1\AppData\Local\Temp\ccUIzJuS.s:30104  .debug_str:000000000002c54b .LASF3512
C:\Users\SOLDER~1\AppData\Local\Temp\ccUIzJuS.s:22860  .debug_str:000000000000ec62 .LASF3513
C:\Users\SOLDER~1\AppData\Local\Temp\ccUIzJuS.s:30510  .debug_str:000000000002df5d .LASF3514
C:\Users\SOLDER~1\AppData\Local\Temp\ccUIzJuS.s:26764  .debug_str:000000000001ea9e .LASF3515
C:\Users\SOLDER~1\AppData\Local\Temp\ccUIzJuS.s:28652  .debug_str:0000000000026644 .LASF3516
C:\Users\SOLDER~1\AppData\Local\Temp\ccUIzJuS.s:20698  .debug_str:0000000000005e0e .LASF3517
C:\Users\SOLDER~1\AppData\Local\Temp\ccUIzJuS.s:29304  .debug_str:0000000000029129 .LASF3518
C:\Users\SOLDER~1\AppData\Local\Temp\ccUIzJuS.s:25630  .debug_str:000000000001a05d .LASF3519
C:\Users\SOLDER~1\AppData\Local\Temp\ccUIzJuS.s:24908  .debug_str:00000000000171c7 .LASF3520
C:\Users\SOLDER~1\AppData\Local\Temp\ccUIzJuS.s:29670  .debug_str:000000000002a936 .LASF3521
C:\Users\SOLDER~1\AppData\Local\Temp\ccUIzJuS.s:22974  .debug_str:000000000000f3a0 .LASF3522
C:\Users\SOLDER~1\AppData\Local\Temp\ccUIzJuS.s:25942  .debug_str:000000000001b4b0 .LASF3523
C:\Users\SOLDER~1\AppData\Local\Temp\ccUIzJuS.s:21098  .debug_str:0000000000007835 .LASF3524
C:\Users\SOLDER~1\AppData\Local\Temp\ccUIzJuS.s:24612  .debug_str:0000000000015f2f .LASF3525
C:\Users\SOLDER~1\AppData\Local\Temp\ccUIzJuS.s:19906  .debug_str:0000000000002b50 .LASF3526
C:\Users\SOLDER~1\AppData\Local\Temp\ccUIzJuS.s:24924  .debug_str:00000000000172e2 .LASF3527
C:\Users\SOLDER~1\AppData\Local\Temp\ccUIzJuS.s:29358  .debug_str:00000000000294bb .LASF3528
C:\Users\SOLDER~1\AppData\Local\Temp\ccUIzJuS.s:19606  .debug_str:000000000000185c .LASF3529
C:\Users\SOLDER~1\AppData\Local\Temp\ccUIzJuS.s:30138  .debug_str:000000000002c75c .LASF3530
C:\Users\SOLDER~1\AppData\Local\Temp\ccUIzJuS.s:24950  .debug_str:0000000000017485 .LASF3531
C:\Users\SOLDER~1\AppData\Local\Temp\ccUIzJuS.s:26606  .debug_str:000000000001e062 .LASF3532
C:\Users\SOLDER~1\AppData\Local\Temp\ccUIzJuS.s:22642  .debug_str:000000000000de1a .LASF3533
C:\Users\SOLDER~1\AppData\Local\Temp\ccUIzJuS.s:29890  .debug_str:000000000002b754 .LASF3534
C:\Users\SOLDER~1\AppData\Local\Temp\ccUIzJuS.s:23070  .debug_str:000000000000fa1b .LASF3535
C:\Users\SOLDER~1\AppData\Local\Temp\ccUIzJuS.s:27390  .debug_str:000000000002138c .LASF3536
C:\Users\SOLDER~1\AppData\Local\Temp\ccUIzJuS.s:20296  .debug_str:000000000000447a .LASF3537
C:\Users\SOLDER~1\AppData\Local\Temp\ccUIzJuS.s:23334  .debug_str:0000000000010b52 .LASF3538
C:\Users\SOLDER~1\AppData\Local\Temp\ccUIzJuS.s:19900  .debug_str:0000000000002b06 .LASF3539
C:\Users\SOLDER~1\AppData\Local\Temp\ccUIzJuS.s:24576  .debug_str:0000000000015cde .LASF3540
C:\Users\SOLDER~1\AppData\Local\Temp\ccUIzJuS.s:26190  .debug_str:000000000001c4ee .LASF3541
C:\Users\SOLDER~1\AppData\Local\Temp\ccUIzJuS.s:19292  .debug_str:0000000000000327 .LASF3542
C:\Users\SOLDER~1\AppData\Local\Temp\ccUIzJuS.s:22934  .debug_str:000000000000f11f .LASF3543
C:\Users\SOLDER~1\AppData\Local\Temp\ccUIzJuS.s:27666  .debug_str:0000000000022459 .LASF3544
C:\Users\SOLDER~1\AppData\Local\Temp\ccUIzJuS.s:30452  .debug_str:000000000002db99 .LASF3545
C:\Users\SOLDER~1\AppData\Local\Temp\ccUIzJuS.s:27464  .debug_str:0000000000021842 .LASF3546
C:\Users\SOLDER~1\AppData\Local\Temp\ccUIzJuS.s:20804  .debug_str:0000000000006537 .LASF3547
C:\Users\SOLDER~1\AppData\Local\Temp\ccUIzJuS.s:20672  .debug_str:0000000000005c71 .LASF3548
C:\Users\SOLDER~1\AppData\Local\Temp\ccUIzJuS.s:22344  .debug_str:000000000000ca95 .LASF3549
GAS LISTING C:\Users\SOLDER~1\AppData\Local\Temp\ccUIzJuS.s 			page 91


C:\Users\SOLDER~1\AppData\Local\Temp\ccUIzJuS.s:19464  .debug_str:0000000000000f3e .LASF3550
C:\Users\SOLDER~1\AppData\Local\Temp\ccUIzJuS.s:23160  .debug_str:0000000000010048 .LASF3551
C:\Users\SOLDER~1\AppData\Local\Temp\ccUIzJuS.s:20898  .debug_str:0000000000006b85 .LASF3552
C:\Users\SOLDER~1\AppData\Local\Temp\ccUIzJuS.s:20478  .debug_str:0000000000005020 .LASF3553
C:\Users\SOLDER~1\AppData\Local\Temp\ccUIzJuS.s:19664  .debug_str:0000000000001c06 .LASF3554
C:\Users\SOLDER~1\AppData\Local\Temp\ccUIzJuS.s:28376  .debug_str:0000000000025351 .LASF3555
C:\Users\SOLDER~1\AppData\Local\Temp\ccUIzJuS.s:19450  .debug_str:0000000000000e7d .LASF3556
C:\Users\SOLDER~1\AppData\Local\Temp\ccUIzJuS.s:25762  .debug_str:000000000001a92c .LASF3557
C:\Users\SOLDER~1\AppData\Local\Temp\ccUIzJuS.s:22950  .debug_str:000000000000f224 .LASF3558
C:\Users\SOLDER~1\AppData\Local\Temp\ccUIzJuS.s:19772  .debug_str:00000000000022de .LASF3559
C:\Users\SOLDER~1\AppData\Local\Temp\ccUIzJuS.s:20534  .debug_str:00000000000053ad .LASF3560
C:\Users\SOLDER~1\AppData\Local\Temp\ccUIzJuS.s:22838  .debug_str:000000000000eb31 .LASF3561
C:\Users\SOLDER~1\AppData\Local\Temp\ccUIzJuS.s:23710  .debug_str:0000000000012344 .LASF3562
C:\Users\SOLDER~1\AppData\Local\Temp\ccUIzJuS.s:30236  .debug_str:000000000002cd81 .LASF3563
C:\Users\SOLDER~1\AppData\Local\Temp\ccUIzJuS.s:24624  .debug_str:0000000000015ff7 .LASF3564
C:\Users\SOLDER~1\AppData\Local\Temp\ccUIzJuS.s:26060  .debug_str:000000000001bc37 .LASF3565
C:\Users\SOLDER~1\AppData\Local\Temp\ccUIzJuS.s:26800  .debug_str:000000000001eced .LASF3566
C:\Users\SOLDER~1\AppData\Local\Temp\ccUIzJuS.s:19868  .debug_str:000000000000291e .LASF3567
C:\Users\SOLDER~1\AppData\Local\Temp\ccUIzJuS.s:24834  .debug_str:0000000000016d0c .LASF3568
C:\Users\SOLDER~1\AppData\Local\Temp\ccUIzJuS.s:23660  .debug_str:0000000000012027 .LASF3569
C:\Users\SOLDER~1\AppData\Local\Temp\ccUIzJuS.s:29910  .debug_str:000000000002b8bd .LASF3570
C:\Users\SOLDER~1\AppData\Local\Temp\ccUIzJuS.s:27194  .debug_str:00000000000206e2 .LASF3571
C:\Users\SOLDER~1\AppData\Local\Temp\ccUIzJuS.s:19824  .debug_str:000000000000262a .LASF3572
C:\Users\SOLDER~1\AppData\Local\Temp\ccUIzJuS.s:25360  .debug_str:0000000000018f82 .LASF3573
C:\Users\SOLDER~1\AppData\Local\Temp\ccUIzJuS.s:23254  .debug_str:0000000000010639 .LASF3574
C:\Users\SOLDER~1\AppData\Local\Temp\ccUIzJuS.s:22528  .debug_str:000000000000d6a1 .LASF3575
C:\Users\SOLDER~1\AppData\Local\Temp\ccUIzJuS.s:28676  .debug_str:00000000000267ba .LASF3576
C:\Users\SOLDER~1\AppData\Local\Temp\ccUIzJuS.s:30160  .debug_str:000000000002c8c2 .LASF3577
C:\Users\SOLDER~1\AppData\Local\Temp\ccUIzJuS.s:22922  .debug_str:000000000000f067 .LASF3578
C:\Users\SOLDER~1\AppData\Local\Temp\ccUIzJuS.s:27972  .debug_str:00000000000238b5 .LASF3579
C:\Users\SOLDER~1\AppData\Local\Temp\ccUIzJuS.s:30558  .debug_str:000000000002e253 .LASF3580
C:\Users\SOLDER~1\AppData\Local\Temp\ccUIzJuS.s:20330  .debug_str:00000000000046eb .LASF3581
C:\Users\SOLDER~1\AppData\Local\Temp\ccUIzJuS.s:24702  .debug_str:00000000000164ff .LASF3582
C:\Users\SOLDER~1\AppData\Local\Temp\ccUIzJuS.s:25050  .debug_str:0000000000017b38 .LASF3583
C:\Users\SOLDER~1\AppData\Local\Temp\ccUIzJuS.s:19876  .debug_str:000000000000299e .LASF3584
C:\Users\SOLDER~1\AppData\Local\Temp\ccUIzJuS.s:21190  .debug_str:0000000000007e4e .LASF3585
C:\Users\SOLDER~1\AppData\Local\Temp\ccUIzJuS.s:19320  .debug_str:00000000000004f8 .LASF3586
C:\Users\SOLDER~1\AppData\Local\Temp\ccUIzJuS.s:27642  .debug_str:00000000000222d5 .LASF3587
C:\Users\SOLDER~1\AppData\Local\Temp\ccUIzJuS.s:23082  .debug_str:000000000000faf1 .LASF3588
C:\Users\SOLDER~1\AppData\Local\Temp\ccUIzJuS.s:28470  .debug_str:0000000000025984 .LASF3589
C:\Users\SOLDER~1\AppData\Local\Temp\ccUIzJuS.s:28030  .debug_str:0000000000023c4c .LASF3590
C:\Users\SOLDER~1\AppData\Local\Temp\ccUIzJuS.s:30612  .debug_str:000000000002e5a1 .LASF3591
C:\Users\SOLDER~1\AppData\Local\Temp\ccUIzJuS.s:21836  .debug_str:000000000000a8e2 .LASF3592
C:\Users\SOLDER~1\AppData\Local\Temp\ccUIzJuS.s:22850  .debug_str:000000000000ebc6 .LASF3593
C:\Users\SOLDER~1\AppData\Local\Temp\ccUIzJuS.s:23530  .debug_str:00000000000117ca .LASF3594
C:\Users\SOLDER~1\AppData\Local\Temp\ccUIzJuS.s:20052  .debug_str:00000000000034e4 .LASF3595
C:\Users\SOLDER~1\AppData\Local\Temp\ccUIzJuS.s:28448  .debug_str:00000000000257de .LASF3596
C:\Users\SOLDER~1\AppData\Local\Temp\ccUIzJuS.s:26042  .debug_str:000000000001bae5 .LASF3597
C:\Users\SOLDER~1\AppData\Local\Temp\ccUIzJuS.s:29884  .debug_str:000000000002b6f0 .LASF3598
C:\Users\SOLDER~1\AppData\Local\Temp\ccUIzJuS.s:22376  .debug_str:000000000000ccb2 .LASF3599
C:\Users\SOLDER~1\AppData\Local\Temp\ccUIzJuS.s:19352  .debug_str:0000000000000798 .LASF3600
C:\Users\SOLDER~1\AppData\Local\Temp\ccUIzJuS.s:29580  .debug_str:000000000002a348 .LASF3601
C:\Users\SOLDER~1\AppData\Local\Temp\ccUIzJuS.s:25998  .debug_str:000000000001b83b .LASF3602
C:\Users\SOLDER~1\AppData\Local\Temp\ccUIzJuS.s:23532  .debug_str:00000000000117eb .LASF3603
C:\Users\SOLDER~1\AppData\Local\Temp\ccUIzJuS.s:26954  .debug_str:000000000001f763 .LASF3604
C:\Users\SOLDER~1\AppData\Local\Temp\ccUIzJuS.s:28250  .debug_str:0000000000024afb .LASF3605
C:\Users\SOLDER~1\AppData\Local\Temp\ccUIzJuS.s:25866  .debug_str:000000000001b02c .LASF3606
GAS LISTING C:\Users\SOLDER~1\AppData\Local\Temp\ccUIzJuS.s 			page 92


C:\Users\SOLDER~1\AppData\Local\Temp\ccUIzJuS.s:22298  .debug_str:000000000000c750 .LASF3607
C:\Users\SOLDER~1\AppData\Local\Temp\ccUIzJuS.s:26014  .debug_str:000000000001b92f .LASF3608
C:\Users\SOLDER~1\AppData\Local\Temp\ccUIzJuS.s:30156  .debug_str:000000000002c87c .LASF3609
C:\Users\SOLDER~1\AppData\Local\Temp\ccUIzJuS.s:23114  .debug_str:000000000000fd49 .LASF3610
C:\Users\SOLDER~1\AppData\Local\Temp\ccUIzJuS.s:29476  .debug_str:0000000000029c1f .LASF3611
C:\Users\SOLDER~1\AppData\Local\Temp\ccUIzJuS.s:19602  .debug_str:0000000000001831 .LASF3612
C:\Users\SOLDER~1\AppData\Local\Temp\ccUIzJuS.s:21380  .debug_str:0000000000008aa1 .LASF3613
C:\Users\SOLDER~1\AppData\Local\Temp\ccUIzJuS.s:28060  .debug_str:0000000000023e58 .LASF3614
C:\Users\SOLDER~1\AppData\Local\Temp\ccUIzJuS.s:27444  .debug_str:00000000000216fa .LASF3615
C:\Users\SOLDER~1\AppData\Local\Temp\ccUIzJuS.s:27964  .debug_str:0000000000023848 .LASF3616
C:\Users\SOLDER~1\AppData\Local\Temp\ccUIzJuS.s:29244  .debug_str:0000000000028d73 .LASF3617
C:\Users\SOLDER~1\AppData\Local\Temp\ccUIzJuS.s:25418  .debug_str:0000000000019334 .LASF3618
C:\Users\SOLDER~1\AppData\Local\Temp\ccUIzJuS.s:22480  .debug_str:000000000000d390 .LASF3619
C:\Users\SOLDER~1\AppData\Local\Temp\ccUIzJuS.s:24888  .debug_str:0000000000017078 .LASF3620
C:\Users\SOLDER~1\AppData\Local\Temp\ccUIzJuS.s:29352  .debug_str:000000000002944d .LASF3621
C:\Users\SOLDER~1\AppData\Local\Temp\ccUIzJuS.s:26038  .debug_str:000000000001baab .LASF3622
C:\Users\SOLDER~1\AppData\Local\Temp\ccUIzJuS.s:25934  .debug_str:000000000001b42e .LASF3623
C:\Users\SOLDER~1\AppData\Local\Temp\ccUIzJuS.s:20210  .debug_str:0000000000003f1a .LASF3624
C:\Users\SOLDER~1\AppData\Local\Temp\ccUIzJuS.s:28076  .debug_str:0000000000023f6e .LASF3625
C:\Users\SOLDER~1\AppData\Local\Temp\ccUIzJuS.s:27452  .debug_str:0000000000021780 .LASF3626
C:\Users\SOLDER~1\AppData\Local\Temp\ccUIzJuS.s:29830  .debug_str:000000000002b389 .LASF3627
C:\Users\SOLDER~1\AppData\Local\Temp\ccUIzJuS.s:25822  .debug_str:000000000001ad0d .LASF3628
C:\Users\SOLDER~1\AppData\Local\Temp\ccUIzJuS.s:29126  .debug_str:00000000000285c0 .LASF3629
C:\Users\SOLDER~1\AppData\Local\Temp\ccUIzJuS.s:23806  .debug_str:0000000000012936 .LASF3630
C:\Users\SOLDER~1\AppData\Local\Temp\ccUIzJuS.s:29432  .debug_str:0000000000029997 .LASF3631
C:\Users\SOLDER~1\AppData\Local\Temp\ccUIzJuS.s:27498  .debug_str:0000000000021a58 .LASF3632
C:\Users\SOLDER~1\AppData\Local\Temp\ccUIzJuS.s:24912  .debug_str:0000000000017205 .LASF3633
C:\Users\SOLDER~1\AppData\Local\Temp\ccUIzJuS.s:27730  .debug_str:00000000000228a6 .LASF3634
C:\Users\SOLDER~1\AppData\Local\Temp\ccUIzJuS.s:25048  .debug_str:0000000000017b18 .LASF3635
C:\Users\SOLDER~1\AppData\Local\Temp\ccUIzJuS.s:27782  .debug_str:0000000000022c3c .LASF3636
C:\Users\SOLDER~1\AppData\Local\Temp\ccUIzJuS.s:23036  .debug_str:000000000000f79f .LASF3637
C:\Users\SOLDER~1\AppData\Local\Temp\ccUIzJuS.s:27116  .debug_str:00000000000201e1 .LASF3638
C:\Users\SOLDER~1\AppData\Local\Temp\ccUIzJuS.s:23546  .debug_str:00000000000118ef .LASF3639
C:\Users\SOLDER~1\AppData\Local\Temp\ccUIzJuS.s:29464  .debug_str:0000000000029b6a .LASF3640
C:\Users\SOLDER~1\AppData\Local\Temp\ccUIzJuS.s:27796  .debug_str:0000000000022d3b .LASF3641
C:\Users\SOLDER~1\AppData\Local\Temp\ccUIzJuS.s:22586  .debug_str:000000000000da52 .LASF3642
C:\Users\SOLDER~1\AppData\Local\Temp\ccUIzJuS.s:29494  .debug_str:0000000000029d4d .LASF3643
C:\Users\SOLDER~1\AppData\Local\Temp\ccUIzJuS.s:28308  .debug_str:0000000000024f0f .LASF3644
C:\Users\SOLDER~1\AppData\Local\Temp\ccUIzJuS.s:29668  .debug_str:000000000002a913 .LASF3645
C:\Users\SOLDER~1\AppData\Local\Temp\ccUIzJuS.s:30164  .debug_str:000000000002c90f .LASF3646
C:\Users\SOLDER~1\AppData\Local\Temp\ccUIzJuS.s:20868  .debug_str:00000000000069b6 .LASF3647
C:\Users\SOLDER~1\AppData\Local\Temp\ccUIzJuS.s:19300  .debug_str:00000000000003a5 .LASF3648
C:\Users\SOLDER~1\AppData\Local\Temp\ccUIzJuS.s:26868  .debug_str:000000000001f16c .LASF3649
C:\Users\SOLDER~1\AppData\Local\Temp\ccUIzJuS.s:21550  .debug_str:0000000000009625 .LASF3650
C:\Users\SOLDER~1\AppData\Local\Temp\ccUIzJuS.s:24584  .debug_str:0000000000015d55 .LASF3651
C:\Users\SOLDER~1\AppData\Local\Temp\ccUIzJuS.s:19430  .debug_str:0000000000000cfe .LASF3652
C:\Users\SOLDER~1\AppData\Local\Temp\ccUIzJuS.s:30322  .debug_str:000000000002d371 .LASF3653
C:\Users\SOLDER~1\AppData\Local\Temp\ccUIzJuS.s:25440  .debug_str:00000000000194ad .LASF3654
C:\Users\SOLDER~1\AppData\Local\Temp\ccUIzJuS.s:30432  .debug_str:000000000002da63 .LASF3655
C:\Users\SOLDER~1\AppData\Local\Temp\ccUIzJuS.s:28874  .debug_str:00000000000274ff .LASF3656
C:\Users\SOLDER~1\AppData\Local\Temp\ccUIzJuS.s:21606  .debug_str:00000000000099bb .LASF3657
C:\Users\SOLDER~1\AppData\Local\Temp\ccUIzJuS.s:28054  .debug_str:0000000000023ded .LASF3658
C:\Users\SOLDER~1\AppData\Local\Temp\ccUIzJuS.s:30214  .debug_str:000000000002cc38 .LASF3659
C:\Users\SOLDER~1\AppData\Local\Temp\ccUIzJuS.s:20778  .debug_str:0000000000006384 .LASF3660
C:\Users\SOLDER~1\AppData\Local\Temp\ccUIzJuS.s:19410  .debug_str:0000000000000bb1 .LASF3661
C:\Users\SOLDER~1\AppData\Local\Temp\ccUIzJuS.s:20720  .debug_str:0000000000005f71 .LASF3662
C:\Users\SOLDER~1\AppData\Local\Temp\ccUIzJuS.s:29392  .debug_str:0000000000029713 .LASF3663
GAS LISTING C:\Users\SOLDER~1\AppData\Local\Temp\ccUIzJuS.s 			page 93


C:\Users\SOLDER~1\AppData\Local\Temp\ccUIzJuS.s:20418  .debug_str:0000000000004c93 .LASF3664
C:\Users\SOLDER~1\AppData\Local\Temp\ccUIzJuS.s:19966  .debug_str:0000000000002f55 .LASF3665
C:\Users\SOLDER~1\AppData\Local\Temp\ccUIzJuS.s:28738  .debug_str:0000000000026bfd .LASF3666
C:\Users\SOLDER~1\AppData\Local\Temp\ccUIzJuS.s:23986  .debug_str:000000000001356b .LASF3667
C:\Users\SOLDER~1\AppData\Local\Temp\ccUIzJuS.s:25196  .debug_str:00000000000184c8 .LASF3668
C:\Users\SOLDER~1\AppData\Local\Temp\ccUIzJuS.s:22812  .debug_str:000000000000e9ad .LASF3669
C:\Users\SOLDER~1\AppData\Local\Temp\ccUIzJuS.s:23072  .debug_str:000000000000fa3b .LASF3670
C:\Users\SOLDER~1\AppData\Local\Temp\ccUIzJuS.s:27634  .debug_str:0000000000022273 .LASF3671
C:\Users\SOLDER~1\AppData\Local\Temp\ccUIzJuS.s:28718  .debug_str:0000000000026a8d .LASF3672
C:\Users\SOLDER~1\AppData\Local\Temp\ccUIzJuS.s:25662  .debug_str:000000000001a258 .LASF3673
C:\Users\SOLDER~1\AppData\Local\Temp\ccUIzJuS.s:25682  .debug_str:000000000001a394 .LASF3674
C:\Users\SOLDER~1\AppData\Local\Temp\ccUIzJuS.s:21722  .debug_str:000000000000a142 .LASF3675
C:\Users\SOLDER~1\AppData\Local\Temp\ccUIzJuS.s:23436  .debug_str:00000000000111cd .LASF3676
C:\Users\SOLDER~1\AppData\Local\Temp\ccUIzJuS.s:27754  .debug_str:0000000000022a56 .LASF3677
C:\Users\SOLDER~1\AppData\Local\Temp\ccUIzJuS.s:25696  .debug_str:000000000001a49f .LASF3678
C:\Users\SOLDER~1\AppData\Local\Temp\ccUIzJuS.s:27982  .debug_str:0000000000023967 .LASF3679
C:\Users\SOLDER~1\AppData\Local\Temp\ccUIzJuS.s:29346  .debug_str:00000000000293e4 .LASF3680
C:\Users\SOLDER~1\AppData\Local\Temp\ccUIzJuS.s:30148  .debug_str:000000000002c80b .LASF3681
C:\Users\SOLDER~1\AppData\Local\Temp\ccUIzJuS.s:24804  .debug_str:0000000000016b60 .LASF3682
C:\Users\SOLDER~1\AppData\Local\Temp\ccUIzJuS.s:29832  .debug_str:000000000002b3aa .LASF3683
C:\Users\SOLDER~1\AppData\Local\Temp\ccUIzJuS.s:23564  .debug_str:0000000000011a1b .LASF3684
C:\Users\SOLDER~1\AppData\Local\Temp\ccUIzJuS.s:27424  .debug_str:000000000002159f .LASF3685
C:\Users\SOLDER~1\AppData\Local\Temp\ccUIzJuS.s:23362  .debug_str:0000000000010cfd .LASF3686
C:\Users\SOLDER~1\AppData\Local\Temp\ccUIzJuS.s:30710  .debug_str:000000000002ec13 .LASF3687
C:\Users\SOLDER~1\AppData\Local\Temp\ccUIzJuS.s:27442  .debug_str:00000000000216d3 .LASF3688
C:\Users\SOLDER~1\AppData\Local\Temp\ccUIzJuS.s:21388  .debug_str:0000000000008b24 .LASF3689
C:\Users\SOLDER~1\AppData\Local\Temp\ccUIzJuS.s:27432  .debug_str:000000000002162e .LASF3690
C:\Users\SOLDER~1\AppData\Local\Temp\ccUIzJuS.s:24398  .debug_str:0000000000015155 .LASF3691
C:\Users\SOLDER~1\AppData\Local\Temp\ccUIzJuS.s:20652  .debug_str:0000000000005b4b .LASF3692
C:\Users\SOLDER~1\AppData\Local\Temp\ccUIzJuS.s:22278  .debug_str:000000000000c5f6 .LASF3693
C:\Users\SOLDER~1\AppData\Local\Temp\ccUIzJuS.s:29286  .debug_str:0000000000029021 .LASF3694
C:\Users\SOLDER~1\AppData\Local\Temp\ccUIzJuS.s:24306  .debug_str:0000000000014b91 .LASF3695
C:\Users\SOLDER~1\AppData\Local\Temp\ccUIzJuS.s:21584  .debug_str:000000000000983a .LASF3696
C:\Users\SOLDER~1\AppData\Local\Temp\ccUIzJuS.s:22160  .debug_str:000000000000bdd4 .LASF3697
C:\Users\SOLDER~1\AppData\Local\Temp\ccUIzJuS.s:25716  .debug_str:000000000001a5cb .LASF3698
C:\Users\SOLDER~1\AppData\Local\Temp\ccUIzJuS.s:23054  .debug_str:000000000000f917 .LASF3699
C:\Users\SOLDER~1\AppData\Local\Temp\ccUIzJuS.s:26628  .debug_str:000000000001e1ac .LASF3700
C:\Users\SOLDER~1\AppData\Local\Temp\ccUIzJuS.s:19718  .debug_str:0000000000001f79 .LASF3701
C:\Users\SOLDER~1\AppData\Local\Temp\ccUIzJuS.s:23302  .debug_str:0000000000010950 .LASF3702
C:\Users\SOLDER~1\AppData\Local\Temp\ccUIzJuS.s:22760  .debug_str:000000000000e605 .LASF3703
C:\Users\SOLDER~1\AppData\Local\Temp\ccUIzJuS.s:20060  .debug_str:0000000000003547 .LASF3704
C:\Users\SOLDER~1\AppData\Local\Temp\ccUIzJuS.s:28870  .debug_str:00000000000274b2 .LASF3705
C:\Users\SOLDER~1\AppData\Local\Temp\ccUIzJuS.s:28194  .debug_str:0000000000024745 .LASF3706
C:\Users\SOLDER~1\AppData\Local\Temp\ccUIzJuS.s:22430  .debug_str:000000000000d051 .LASF3707
C:\Users\SOLDER~1\AppData\Local\Temp\ccUIzJuS.s:19798  .debug_str:0000000000002496 .LASF3708
C:\Users\SOLDER~1\AppData\Local\Temp\ccUIzJuS.s:28444  .debug_str:0000000000025795 .LASF3709
C:\Users\SOLDER~1\AppData\Local\Temp\ccUIzJuS.s:19992  .debug_str:00000000000030f5 .LASF3710
C:\Users\SOLDER~1\AppData\Local\Temp\ccUIzJuS.s:19734  .debug_str:000000000000204d .LASF3711
C:\Users\SOLDER~1\AppData\Local\Temp\ccUIzJuS.s:28534  .debug_str:0000000000025de6 .LASF3712
C:\Users\SOLDER~1\AppData\Local\Temp\ccUIzJuS.s:28920  .debug_str:0000000000027828 .LASF3713
C:\Users\SOLDER~1\AppData\Local\Temp\ccUIzJuS.s:29390  .debug_str:00000000000296ee .LASF3714
C:\Users\SOLDER~1\AppData\Local\Temp\ccUIzJuS.s:20394  .debug_str:0000000000004aeb .LASF3715
C:\Users\SOLDER~1\AppData\Local\Temp\ccUIzJuS.s:29404  .debug_str:00000000000297ea .LASF3716
C:\Users\SOLDER~1\AppData\Local\Temp\ccUIzJuS.s:25456  .debug_str:00000000000195de .LASF3717
C:\Users\SOLDER~1\AppData\Local\Temp\ccUIzJuS.s:22192  .debug_str:000000000000bfce .LASF3718
C:\Users\SOLDER~1\AppData\Local\Temp\ccUIzJuS.s:28800  .debug_str:0000000000027009 .LASF3719
C:\Users\SOLDER~1\AppData\Local\Temp\ccUIzJuS.s:22492  .debug_str:000000000000d469 .LASF3720
GAS LISTING C:\Users\SOLDER~1\AppData\Local\Temp\ccUIzJuS.s 			page 94


C:\Users\SOLDER~1\AppData\Local\Temp\ccUIzJuS.s:30604  .debug_str:000000000002e52b .LASF3721
C:\Users\SOLDER~1\AppData\Local\Temp\ccUIzJuS.s:29862  .debug_str:000000000002b595 .LASF3722
C:\Users\SOLDER~1\AppData\Local\Temp\ccUIzJuS.s:28272  .debug_str:0000000000024c7c .LASF3723
C:\Users\SOLDER~1\AppData\Local\Temp\ccUIzJuS.s:30330  .debug_str:000000000002d3f4 .LASF3724
C:\Users\SOLDER~1\AppData\Local\Temp\ccUIzJuS.s:27320  .debug_str:0000000000020ed7 .LASF3725
C:\Users\SOLDER~1\AppData\Local\Temp\ccUIzJuS.s:24222  .debug_str:00000000000145f5 .LASF3726
C:\Users\SOLDER~1\AppData\Local\Temp\ccUIzJuS.s:29592  .debug_str:000000000002a413 .LASF3727
C:\Users\SOLDER~1\AppData\Local\Temp\ccUIzJuS.s:21878  .debug_str:000000000000aba3 .LASF3728
C:\Users\SOLDER~1\AppData\Local\Temp\ccUIzJuS.s:24516  .debug_str:000000000001590d .LASF3729
C:\Users\SOLDER~1\AppData\Local\Temp\ccUIzJuS.s:20200  .debug_str:0000000000003e87 .LASF3730
C:\Users\SOLDER~1\AppData\Local\Temp\ccUIzJuS.s:21160  .debug_str:0000000000007c54 .LASF3731
C:\Users\SOLDER~1\AppData\Local\Temp\ccUIzJuS.s:25844  .debug_str:000000000001aeaf .LASF3732
C:\Users\SOLDER~1\AppData\Local\Temp\ccUIzJuS.s:22162  .debug_str:000000000000bdf9 .LASF3733
C:\Users\SOLDER~1\AppData\Local\Temp\ccUIzJuS.s:25614  .debug_str:0000000000019f5c .LASF3734
C:\Users\SOLDER~1\AppData\Local\Temp\ccUIzJuS.s:22090  .debug_str:000000000000b943 .LASF3735
C:\Users\SOLDER~1\AppData\Local\Temp\ccUIzJuS.s:20640  .debug_str:0000000000005a73 .LASF3736
C:\Users\SOLDER~1\AppData\Local\Temp\ccUIzJuS.s:23122  .debug_str:000000000000fdd0 .LASF3737
C:\Users\SOLDER~1\AppData\Local\Temp\ccUIzJuS.s:20942  .debug_str:0000000000006e69 .LASF3738
C:\Users\SOLDER~1\AppData\Local\Temp\ccUIzJuS.s:20046  .debug_str:000000000000348b .LASF3739
C:\Users\SOLDER~1\AppData\Local\Temp\ccUIzJuS.s:26934  .debug_str:000000000001f5fb .LASF3740
C:\Users\SOLDER~1\AppData\Local\Temp\ccUIzJuS.s:27026  .debug_str:000000000001fc0c .LASF3741
C:\Users\SOLDER~1\AppData\Local\Temp\ccUIzJuS.s:22590  .debug_str:000000000000da8c .LASF3742
C:\Users\SOLDER~1\AppData\Local\Temp\ccUIzJuS.s:30554  .debug_str:000000000002e218 .LASF3743
C:\Users\SOLDER~1\AppData\Local\Temp\ccUIzJuS.s:20634  .debug_str:0000000000005a11 .LASF3744
C:\Users\SOLDER~1\AppData\Local\Temp\ccUIzJuS.s:29526  .debug_str:0000000000029fa9 .LASF3745
C:\Users\SOLDER~1\AppData\Local\Temp\ccUIzJuS.s:22636  .debug_str:000000000000ddb1 .LASF3746
C:\Users\SOLDER~1\AppData\Local\Temp\ccUIzJuS.s:27760  .debug_str:0000000000022ab5 .LASF3747
C:\Users\SOLDER~1\AppData\Local\Temp\ccUIzJuS.s:23934  .debug_str:00000000000131bf .LASF3748
C:\Users\SOLDER~1\AppData\Local\Temp\ccUIzJuS.s:22394  .debug_str:000000000000cde3 .LASF3749
C:\Users\SOLDER~1\AppData\Local\Temp\ccUIzJuS.s:29682  .debug_str:000000000002a9ca .LASF3750
C:\Users\SOLDER~1\AppData\Local\Temp\ccUIzJuS.s:26022  .debug_str:000000000001b999 .LASF3751
C:\Users\SOLDER~1\AppData\Local\Temp\ccUIzJuS.s:23142  .debug_str:000000000000ff25 .LASF3752
C:\Users\SOLDER~1\AppData\Local\Temp\ccUIzJuS.s:26612  .debug_str:000000000001e0c0 .LASF3753
C:\Users\SOLDER~1\AppData\Local\Temp\ccUIzJuS.s:23106  .debug_str:000000000000fcb9 .LASF3754
C:\Users\SOLDER~1\AppData\Local\Temp\ccUIzJuS.s:25624  .debug_str:000000000001a00e .LASF3755
C:\Users\SOLDER~1\AppData\Local\Temp\ccUIzJuS.s:25864  .debug_str:000000000001b009 .LASF3756
C:\Users\SOLDER~1\AppData\Local\Temp\ccUIzJuS.s:23704  .debug_str:00000000000122ec .LASF3757
C:\Users\SOLDER~1\AppData\Local\Temp\ccUIzJuS.s:25200  .debug_str:0000000000018516 .LASF3758
C:\Users\SOLDER~1\AppData\Local\Temp\ccUIzJuS.s:19822  .debug_str:0000000000002614 .LASF3759
C:\Users\SOLDER~1\AppData\Local\Temp\ccUIzJuS.s:20540  .debug_str:00000000000053f1 .LASF3760
C:\Users\SOLDER~1\AppData\Local\Temp\ccUIzJuS.s:30132  .debug_str:000000000002c705 .LASF3761
C:\Users\SOLDER~1\AppData\Local\Temp\ccUIzJuS.s:30354  .debug_str:000000000002d579 .LASF3762
C:\Users\SOLDER~1\AppData\Local\Temp\ccUIzJuS.s:19526  .debug_str:0000000000001333 .LASF3763
C:\Users\SOLDER~1\AppData\Local\Temp\ccUIzJuS.s:25258  .debug_str:00000000000188af .LASF3764
C:\Users\SOLDER~1\AppData\Local\Temp\ccUIzJuS.s:23414  .debug_str:0000000000011065 .LASF3765
C:\Users\SOLDER~1\AppData\Local\Temp\ccUIzJuS.s:28196  .debug_str:0000000000024769 .LASF3766
C:\Users\SOLDER~1\AppData\Local\Temp\ccUIzJuS.s:21962  .debug_str:000000000000b10e .LASF3767
C:\Users\SOLDER~1\AppData\Local\Temp\ccUIzJuS.s:27496  .debug_str:0000000000021a35 .LASF3768
C:\Users\SOLDER~1\AppData\Local\Temp\ccUIzJuS.s:19802  .debug_str:00000000000024e8 .LASF3769
C:\Users\SOLDER~1\AppData\Local\Temp\ccUIzJuS.s:28992  .debug_str:0000000000027cb9 .LASF3770
C:\Users\SOLDER~1\AppData\Local\Temp\ccUIzJuS.s:19476  .debug_str:000000000000100f .LASF3771
C:\Users\SOLDER~1\AppData\Local\Temp\ccUIzJuS.s:28056  .debug_str:0000000000023e14 .LASF3772
C:\Users\SOLDER~1\AppData\Local\Temp\ccUIzJuS.s:24050  .debug_str:00000000000139e2 .LASF3773
C:\Users\SOLDER~1\AppData\Local\Temp\ccUIzJuS.s:29398  .debug_str:0000000000029778 .LASF3774
C:\Users\SOLDER~1\AppData\Local\Temp\ccUIzJuS.s:26844  .debug_str:000000000001efc3 .LASF3775
C:\Users\SOLDER~1\AppData\Local\Temp\ccUIzJuS.s:22472  .debug_str:000000000000d304 .LASF3776
C:\Users\SOLDER~1\AppData\Local\Temp\ccUIzJuS.s:21058  .debug_str:00000000000075eb .LASF3777
GAS LISTING C:\Users\SOLDER~1\AppData\Local\Temp\ccUIzJuS.s 			page 95


C:\Users\SOLDER~1\AppData\Local\Temp\ccUIzJuS.s:28704  .debug_str:00000000000269b6 .LASF3778
C:\Users\SOLDER~1\AppData\Local\Temp\ccUIzJuS.s:27020  .debug_str:000000000001fbb2 .LASF3779
C:\Users\SOLDER~1\AppData\Local\Temp\ccUIzJuS.s:27274  .debug_str:0000000000020c1d .LASF3780
C:\Users\SOLDER~1\AppData\Local\Temp\ccUIzJuS.s:28166  .debug_str:0000000000024563 .LASF3781
C:\Users\SOLDER~1\AppData\Local\Temp\ccUIzJuS.s:20238  .debug_str:00000000000040e7 .LASF3782
C:\Users\SOLDER~1\AppData\Local\Temp\ccUIzJuS.s:24326  .debug_str:0000000000014d06 .LASF3783
C:\Users\SOLDER~1\AppData\Local\Temp\ccUIzJuS.s:22924  .debug_str:000000000000f080 .LASF3784
C:\Users\SOLDER~1\AppData\Local\Temp\ccUIzJuS.s:20910  .debug_str:0000000000006c47 .LASF3785
C:\Users\SOLDER~1\AppData\Local\Temp\ccUIzJuS.s:25134  .debug_str:00000000000180db .LASF3786
C:\Users\SOLDER~1\AppData\Local\Temp\ccUIzJuS.s:30334  .debug_str:000000000002d43d .LASF3787
C:\Users\SOLDER~1\AppData\Local\Temp\ccUIzJuS.s:28170  .debug_str:00000000000245a0 .LASF3788
C:\Users\SOLDER~1\AppData\Local\Temp\ccUIzJuS.s:20692  .debug_str:0000000000005dc1 .LASF3789
C:\Users\SOLDER~1\AppData\Local\Temp\ccUIzJuS.s:21830  .debug_str:000000000000a896 .LASF3790
C:\Users\SOLDER~1\AppData\Local\Temp\ccUIzJuS.s:29226  .debug_str:0000000000028c5e .LASF3791
C:\Users\SOLDER~1\AppData\Local\Temp\ccUIzJuS.s:28824  .debug_str:000000000002719e .LASF3792
C:\Users\SOLDER~1\AppData\Local\Temp\ccUIzJuS.s:26444  .debug_str:000000000001d625 .LASF3793
C:\Users\SOLDER~1\AppData\Local\Temp\ccUIzJuS.s:30238  .debug_str:000000000002cda6 .LASF3794
C:\Users\SOLDER~1\AppData\Local\Temp\ccUIzJuS.s:23242  .debug_str:0000000000010586 .LASF3795
C:\Users\SOLDER~1\AppData\Local\Temp\ccUIzJuS.s:21712  .debug_str:000000000000a082 .LASF3796
C:\Users\SOLDER~1\AppData\Local\Temp\ccUIzJuS.s:23144  .debug_str:000000000000ff49 .LASF3797
C:\Users\SOLDER~1\AppData\Local\Temp\ccUIzJuS.s:29016  .debug_str:0000000000027e56 .LASF3798
C:\Users\SOLDER~1\AppData\Local\Temp\ccUIzJuS.s:29626  .debug_str:000000000002a664 .LASF3799
C:\Users\SOLDER~1\AppData\Local\Temp\ccUIzJuS.s:26088  .debug_str:000000000001bdf4 .LASF3800
C:\Users\SOLDER~1\AppData\Local\Temp\ccUIzJuS.s:27318  .debug_str:0000000000020ec2 .LASF3801
C:\Users\SOLDER~1\AppData\Local\Temp\ccUIzJuS.s:25000  .debug_str:00000000000177ea .LASF3802
C:\Users\SOLDER~1\AppData\Local\Temp\ccUIzJuS.s:29338  .debug_str:0000000000029372 .LASF3803
C:\Users\SOLDER~1\AppData\Local\Temp\ccUIzJuS.s:27082  .debug_str:000000000001ff97 .LASF3804
C:\Users\SOLDER~1\AppData\Local\Temp\ccUIzJuS.s:26206  .debug_str:000000000001c5ee .LASF3805
C:\Users\SOLDER~1\AppData\Local\Temp\ccUIzJuS.s:19326  .debug_str:0000000000000553 .LASF3806
C:\Users\SOLDER~1\AppData\Local\Temp\ccUIzJuS.s:29976  .debug_str:000000000002bced .LASF3807
C:\Users\SOLDER~1\AppData\Local\Temp\ccUIzJuS.s:19394  .debug_str:0000000000000a8c .LASF3808
C:\Users\SOLDER~1\AppData\Local\Temp\ccUIzJuS.s:24456  .debug_str:000000000001552f .LASF3809
C:\Users\SOLDER~1\AppData\Local\Temp\ccUIzJuS.s:24770  .debug_str:000000000001690a .LASF3810
C:\Users\SOLDER~1\AppData\Local\Temp\ccUIzJuS.s:27044  .debug_str:000000000001fd34 .LASF3811
C:\Users\SOLDER~1\AppData\Local\Temp\ccUIzJuS.s:24580  .debug_str:0000000000015d14 .LASF3812
C:\Users\SOLDER~1\AppData\Local\Temp\ccUIzJuS.s:21316  .debug_str:000000000000867d .LASF3813
C:\Users\SOLDER~1\AppData\Local\Temp\ccUIzJuS.s:20266  .debug_str:00000000000042ab .LASF3814
C:\Users\SOLDER~1\AppData\Local\Temp\ccUIzJuS.s:21502  .debug_str:00000000000092e0 .LASF3815
C:\Users\SOLDER~1\AppData\Local\Temp\ccUIzJuS.s:24558  .debug_str:0000000000015bbe .LASF3816
C:\Users\SOLDER~1\AppData\Local\Temp\ccUIzJuS.s:21336  .debug_str:00000000000087c5 .LASF3817
C:\Users\SOLDER~1\AppData\Local\Temp\ccUIzJuS.s:22530  .debug_str:000000000000d6c9 .LASF3818
C:\Users\SOLDER~1\AppData\Local\Temp\ccUIzJuS.s:20444  .debug_str:0000000000004e23 .LASF3819
C:\Users\SOLDER~1\AppData\Local\Temp\ccUIzJuS.s:28238  .debug_str:0000000000024a23 .LASF3820
C:\Users\SOLDER~1\AppData\Local\Temp\ccUIzJuS.s:23790  .debug_str:0000000000012842 .LASF3821
C:\Users\SOLDER~1\AppData\Local\Temp\ccUIzJuS.s:23118  .debug_str:000000000000fd89 .LASF3822
C:\Users\SOLDER~1\AppData\Local\Temp\ccUIzJuS.s:26346  .debug_str:000000000001cf75 .LASF3823
C:\Users\SOLDER~1\AppData\Local\Temp\ccUIzJuS.s:29564  .debug_str:000000000002a21e .LASF3824
C:\Users\SOLDER~1\AppData\Local\Temp\ccUIzJuS.s:21472  .debug_str:00000000000090cd .LASF3825
C:\Users\SOLDER~1\AppData\Local\Temp\ccUIzJuS.s:27500  .debug_str:0000000000021a68 .LASF3826
C:\Users\SOLDER~1\AppData\Local\Temp\ccUIzJuS.s:21696  .debug_str:0000000000009f89 .LASF3827
C:\Users\SOLDER~1\AppData\Local\Temp\ccUIzJuS.s:21106  .debug_str:00000000000078ac .LASF3828
C:\Users\SOLDER~1\AppData\Local\Temp\ccUIzJuS.s:22302  .debug_str:000000000000c795 .LASF3829
C:\Users\SOLDER~1\AppData\Local\Temp\ccUIzJuS.s:22290  .debug_str:000000000000c6b9 .LASF3830
C:\Users\SOLDER~1\AppData\Local\Temp\ccUIzJuS.s:19954  .debug_str:0000000000002e5f .LASF3831
C:\Users\SOLDER~1\AppData\Local\Temp\ccUIzJuS.s:22096  .debug_str:000000000000b9a1 .LASF3832
C:\Users\SOLDER~1\AppData\Local\Temp\ccUIzJuS.s:27986  .debug_str:00000000000239ab .LASF3833
C:\Users\SOLDER~1\AppData\Local\Temp\ccUIzJuS.s:26118  .debug_str:000000000001c016 .LASF3834
GAS LISTING C:\Users\SOLDER~1\AppData\Local\Temp\ccUIzJuS.s 			page 96


C:\Users\SOLDER~1\AppData\Local\Temp\ccUIzJuS.s:22622  .debug_str:000000000000dccc .LASF3835
C:\Users\SOLDER~1\AppData\Local\Temp\ccUIzJuS.s:29848  .debug_str:000000000002b4cc .LASF3836
C:\Users\SOLDER~1\AppData\Local\Temp\ccUIzJuS.s:27904  .debug_str:0000000000023455 .LASF3837
C:\Users\SOLDER~1\AppData\Local\Temp\ccUIzJuS.s:20326  .debug_str:00000000000046ae .LASF3838
C:\Users\SOLDER~1\AppData\Local\Temp\ccUIzJuS.s:28162  .debug_str:000000000002451c .LASF3839
C:\Users\SOLDER~1\AppData\Local\Temp\ccUIzJuS.s:27700  .debug_str:00000000000226a5 .LASF3840
C:\Users\SOLDER~1\AppData\Local\Temp\ccUIzJuS.s:20282  .debug_str:000000000000439d .LASF3841
C:\Users\SOLDER~1\AppData\Local\Temp\ccUIzJuS.s:22354  .debug_str:000000000000cb2c .LASF3842
C:\Users\SOLDER~1\AppData\Local\Temp\ccUIzJuS.s:29406  .debug_str:000000000002980f .LASF3843
C:\Users\SOLDER~1\AppData\Local\Temp\ccUIzJuS.s:21810  .debug_str:000000000000a74e .LASF3844
C:\Users\SOLDER~1\AppData\Local\Temp\ccUIzJuS.s:27736  .debug_str:0000000000022908 .LASF3845
C:\Users\SOLDER~1\AppData\Local\Temp\ccUIzJuS.s:26336  .debug_str:000000000001cee8 .LASF3846
C:\Users\SOLDER~1\AppData\Local\Temp\ccUIzJuS.s:28040  .debug_str:0000000000023d02 .LASF3847
C:\Users\SOLDER~1\AppData\Local\Temp\ccUIzJuS.s:23328  .debug_str:0000000000010b06 .LASF3848
C:\Users\SOLDER~1\AppData\Local\Temp\ccUIzJuS.s:24712  .debug_str:00000000000165c1 .LASF3849
C:\Users\SOLDER~1\AppData\Local\Temp\ccUIzJuS.s:20708  .debug_str:0000000000005eb1 .LASF3850
C:\Users\SOLDER~1\AppData\Local\Temp\ccUIzJuS.s:22202  .debug_str:000000000000c093 .LASF3851
C:\Users\SOLDER~1\AppData\Local\Temp\ccUIzJuS.s:21958  .debug_str:000000000000b0d9 .LASF3852
C:\Users\SOLDER~1\AppData\Local\Temp\ccUIzJuS.s:21988  .debug_str:000000000000b299 .LASF3853
C:\Users\SOLDER~1\AppData\Local\Temp\ccUIzJuS.s:19964  .debug_str:0000000000002f3f .LASF3854
C:\Users\SOLDER~1\AppData\Local\Temp\ccUIzJuS.s:25446  .debug_str:000000000001951c .LASF3855
C:\Users\SOLDER~1\AppData\Local\Temp\ccUIzJuS.s:22618  .debug_str:000000000000dc91 .LASF3856
C:\Users\SOLDER~1\AppData\Local\Temp\ccUIzJuS.s:30310  .debug_str:000000000002d287 .LASF3857
C:\Users\SOLDER~1\AppData\Local\Temp\ccUIzJuS.s:30010  .debug_str:000000000002bf16 .LASF3858
C:\Users\SOLDER~1\AppData\Local\Temp\ccUIzJuS.s:28414  .debug_str:00000000000255c2 .LASF3859
C:\Users\SOLDER~1\AppData\Local\Temp\ccUIzJuS.s:26684  .debug_str:000000000001e524 .LASF3860
C:\Users\SOLDER~1\AppData\Local\Temp\ccUIzJuS.s:19424  .debug_str:0000000000000c92 .LASF3861
C:\Users\SOLDER~1\AppData\Local\Temp\ccUIzJuS.s:29468  .debug_str:0000000000029bbc .LASF3862
C:\Users\SOLDER~1\AppData\Local\Temp\ccUIzJuS.s:20122  .debug_str:0000000000003949 .LASF3863
C:\Users\SOLDER~1\AppData\Local\Temp\ccUIzJuS.s:30378  .debug_str:000000000002d6ee .LASF3864
C:\Users\SOLDER~1\AppData\Local\Temp\ccUIzJuS.s:22778  .debug_str:000000000000e73f .LASF3865
C:\Users\SOLDER~1\AppData\Local\Temp\ccUIzJuS.s:21956  .debug_str:000000000000b0b9 .LASF3866
C:\Users\SOLDER~1\AppData\Local\Temp\ccUIzJuS.s:23116  .debug_str:000000000000fd69 .LASF3867
C:\Users\SOLDER~1\AppData\Local\Temp\ccUIzJuS.s:25190  .debug_str:0000000000018475 .LASF3868
C:\Users\SOLDER~1\AppData\Local\Temp\ccUIzJuS.s:26228  .debug_str:000000000001c787 .LASF3869
C:\Users\SOLDER~1\AppData\Local\Temp\ccUIzJuS.s:22770  .debug_str:000000000000e6b3 .LASF3870
C:\Users\SOLDER~1\AppData\Local\Temp\ccUIzJuS.s:21976  .debug_str:000000000000b1ce .LASF3871
C:\Users\SOLDER~1\AppData\Local\Temp\ccUIzJuS.s:30478  .debug_str:000000000002dd3d .LASF3872
C:\Users\SOLDER~1\AppData\Local\Temp\ccUIzJuS.s:25288  .debug_str:0000000000018aa1 .LASF3873
C:\Users\SOLDER~1\AppData\Local\Temp\ccUIzJuS.s:20218  .debug_str:0000000000003f91 .LASF3874
C:\Users\SOLDER~1\AppData\Local\Temp\ccUIzJuS.s:29296  .debug_str:00000000000290b9 .LASF3875
C:\Users\SOLDER~1\AppData\Local\Temp\ccUIzJuS.s:21152  .debug_str:0000000000007bc6 .LASF3876
C:\Users\SOLDER~1\AppData\Local\Temp\ccUIzJuS.s:20216  .debug_str:0000000000003f6d .LASF3877
C:\Users\SOLDER~1\AppData\Local\Temp\ccUIzJuS.s:25410  .debug_str:00000000000192a4 .LASF3878
C:\Users\SOLDER~1\AppData\Local\Temp\ccUIzJuS.s:22214  .debug_str:000000000000c165 .LASF3879
C:\Users\SOLDER~1\AppData\Local\Temp\ccUIzJuS.s:22292  .debug_str:000000000000c6db .LASF3880
C:\Users\SOLDER~1\AppData\Local\Temp\ccUIzJuS.s:28246  .debug_str:0000000000024a9d .LASF3881
C:\Users\SOLDER~1\AppData\Local\Temp\ccUIzJuS.s:23026  .debug_str:000000000000f6fe .LASF3882
C:\Users\SOLDER~1\AppData\Local\Temp\ccUIzJuS.s:19266  .debug_str:0000000000000165 .LASF3883
C:\Users\SOLDER~1\AppData\Local\Temp\ccUIzJuS.s:29922  .debug_str:000000000002b98f .LASF3884
C:\Users\SOLDER~1\AppData\Local\Temp\ccUIzJuS.s:29328  .debug_str:00000000000292b7 .LASF3885
C:\Users\SOLDER~1\AppData\Local\Temp\ccUIzJuS.s:22656  .debug_str:000000000000df11 .LASF3886
C:\Users\SOLDER~1\AppData\Local\Temp\ccUIzJuS.s:27236  .debug_str:0000000000020994 .LASF3887
C:\Users\SOLDER~1\AppData\Local\Temp\ccUIzJuS.s:19404  .debug_str:0000000000000b33 .LASF3888
C:\Users\SOLDER~1\AppData\Local\Temp\ccUIzJuS.s:30564  .debug_str:000000000002e29e .LASF3889
C:\Users\SOLDER~1\AppData\Local\Temp\ccUIzJuS.s:21946  .debug_str:000000000000b011 .LASF3890
C:\Users\SOLDER~1\AppData\Local\Temp\ccUIzJuS.s:23190  .debug_str:00000000000101fd .LASF3891
GAS LISTING C:\Users\SOLDER~1\AppData\Local\Temp\ccUIzJuS.s 			page 97


C:\Users\SOLDER~1\AppData\Local\Temp\ccUIzJuS.s:30066  .debug_str:000000000002c2e7 .LASF3892
C:\Users\SOLDER~1\AppData\Local\Temp\ccUIzJuS.s:21280  .debug_str:0000000000008447 .LASF3893
C:\Users\SOLDER~1\AppData\Local\Temp\ccUIzJuS.s:26364  .debug_str:000000000001d095 .LASF3894
C:\Users\SOLDER~1\AppData\Local\Temp\ccUIzJuS.s:25372  .debug_str:000000000001905b .LASF3895
C:\Users\SOLDER~1\AppData\Local\Temp\ccUIzJuS.s:27322  .debug_str:0000000000020ef8 .LASF3896
C:\Users\SOLDER~1\AppData\Local\Temp\ccUIzJuS.s:21614  .debug_str:0000000000009a31 .LASF3897
C:\Users\SOLDER~1\AppData\Local\Temp\ccUIzJuS.s:29042  .debug_str:0000000000028040 .LASF3898
C:\Users\SOLDER~1\AppData\Local\Temp\ccUIzJuS.s:19666  .debug_str:0000000000001c1e .LASF3899
C:\Users\SOLDER~1\AppData\Local\Temp\ccUIzJuS.s:24970  .debug_str:00000000000175e2 .LASF3900
C:\Users\SOLDER~1\AppData\Local\Temp\ccUIzJuS.s:29764  .debug_str:000000000002af1b .LASF3901
C:\Users\SOLDER~1\AppData\Local\Temp\ccUIzJuS.s:30578  .debug_str:000000000002e399 .LASF3902
C:\Users\SOLDER~1\AppData\Local\Temp\ccUIzJuS.s:22916  .debug_str:000000000000f015 .LASF3903
C:\Users\SOLDER~1\AppData\Local\Temp\ccUIzJuS.s:24246  .debug_str:00000000000147a4 .LASF3904
C:\Users\SOLDER~1\AppData\Local\Temp\ccUIzJuS.s:30552  .debug_str:000000000002e1f7 .LASF3905
C:\Users\SOLDER~1\AppData\Local\Temp\ccUIzJuS.s:28176  .debug_str:0000000000024621 .LASF3906
C:\Users\SOLDER~1\AppData\Local\Temp\ccUIzJuS.s:29256  .debug_str:0000000000028e19 .LASF3907
C:\Users\SOLDER~1\AppData\Local\Temp\ccUIzJuS.s:26634  .debug_str:000000000001e21b .LASF3908
C:\Users\SOLDER~1\AppData\Local\Temp\ccUIzJuS.s:30576  .debug_str:000000000002e376 .LASF3909
C:\Users\SOLDER~1\AppData\Local\Temp\ccUIzJuS.s:24626  .debug_str:0000000000016014 .LASF3910
C:\Users\SOLDER~1\AppData\Local\Temp\ccUIzJuS.s:30436  .debug_str:000000000002da9c .LASF3911
C:\Users\SOLDER~1\AppData\Local\Temp\ccUIzJuS.s:25168  .debug_str:0000000000018311 .LASF3912
C:\Users\SOLDER~1\AppData\Local\Temp\ccUIzJuS.s:29088  .debug_str:0000000000028364 .LASF3913
C:\Users\SOLDER~1\AppData\Local\Temp\ccUIzJuS.s:20348  .debug_str:0000000000004824 .LASF3914
C:\Users\SOLDER~1\AppData\Local\Temp\ccUIzJuS.s:25678  .debug_str:000000000001a35f .LASF3915
C:\Users\SOLDER~1\AppData\Local\Temp\ccUIzJuS.s:26874  .debug_str:000000000001f1ec .LASF3916
C:\Users\SOLDER~1\AppData\Local\Temp\ccUIzJuS.s:27334  .debug_str:0000000000020fc5 .LASF3917
C:\Users\SOLDER~1\AppData\Local\Temp\ccUIzJuS.s:24508  .debug_str:0000000000015885 .LASF3918
C:\Users\SOLDER~1\AppData\Local\Temp\ccUIzJuS.s:28612  .debug_str:000000000002637b .LASF3919
C:\Users\SOLDER~1\AppData\Local\Temp\ccUIzJuS.s:29538  .debug_str:000000000002a06b .LASF3920
C:\Users\SOLDER~1\AppData\Local\Temp\ccUIzJuS.s:28486  .debug_str:0000000000025a99 .LASF3921
C:\Users\SOLDER~1\AppData\Local\Temp\ccUIzJuS.s:21022  .debug_str:00000000000073d1 .LASF3922
C:\Users\SOLDER~1\AppData\Local\Temp\ccUIzJuS.s:27422  .debug_str:000000000002157e .LASF3923
C:\Users\SOLDER~1\AppData\Local\Temp\ccUIzJuS.s:23420  .debug_str:00000000000110ba .LASF3924
C:\Users\SOLDER~1\AppData\Local\Temp\ccUIzJuS.s:27266  .debug_str:0000000000020b8f .LASF3925
C:\Users\SOLDER~1\AppData\Local\Temp\ccUIzJuS.s:20500  .debug_str:000000000000516d .LASF3926
C:\Users\SOLDER~1\AppData\Local\Temp\ccUIzJuS.s:23974  .debug_str:0000000000013493 .LASF3927
C:\Users\SOLDER~1\AppData\Local\Temp\ccUIzJuS.s:21632  .debug_str:0000000000009b49 .LASF3928
C:\Users\SOLDER~1\AppData\Local\Temp\ccUIzJuS.s:20090  .debug_str:000000000000373d .LASF3929
C:\Users\SOLDER~1\AppData\Local\Temp\ccUIzJuS.s:21132  .debug_str:0000000000007a68 .LASF3930
C:\Users\SOLDER~1\AppData\Local\Temp\ccUIzJuS.s:26888  .debug_str:000000000001f2d3 .LASF3931
C:\Users\SOLDER~1\AppData\Local\Temp\ccUIzJuS.s:26366  .debug_str:000000000001d0ac .LASF3932
C:\Users\SOLDER~1\AppData\Local\Temp\ccUIzJuS.s:29104  .debug_str:0000000000028453 .LASF3933
C:\Users\SOLDER~1\AppData\Local\Temp\ccUIzJuS.s:28668  .debug_str:000000000002672c .LASF3934
C:\Users\SOLDER~1\AppData\Local\Temp\ccUIzJuS.s:21626  .debug_str:0000000000009aec .LASF3935
C:\Users\SOLDER~1\AppData\Local\Temp\ccUIzJuS.s:22814  .debug_str:000000000000e9d3 .LASF3936
C:\Users\SOLDER~1\AppData\Local\Temp\ccUIzJuS.s:24582  .debug_str:0000000000015d36 .LASF3937
C:\Users\SOLDER~1\AppData\Local\Temp\ccUIzJuS.s:20562  .debug_str:0000000000005538 .LASF3938
C:\Users\SOLDER~1\AppData\Local\Temp\ccUIzJuS.s:21312  .debug_str:0000000000008628 .LASF3939
C:\Users\SOLDER~1\AppData\Local\Temp\ccUIzJuS.s:29610  .debug_str:000000000002a563 .LASF3940
C:\Users\SOLDER~1\AppData\Local\Temp\ccUIzJuS.s:25116  .debug_str:0000000000017f88 .LASF3941
C:\Users\SOLDER~1\AppData\Local\Temp\ccUIzJuS.s:22736  .debug_str:000000000000e4a6 .LASF3942
C:\Users\SOLDER~1\AppData\Local\Temp\ccUIzJuS.s:27338  .debug_str:000000000002100b .LASF3943
C:\Users\SOLDER~1\AppData\Local\Temp\ccUIzJuS.s:19854  .debug_str:00000000000027fc .LASF3944
C:\Users\SOLDER~1\AppData\Local\Temp\ccUIzJuS.s:26130  .debug_str:000000000001c0b6 .LASF3945
C:\Users\SOLDER~1\AppData\Local\Temp\ccUIzJuS.s:21268  .debug_str:0000000000008372 .LASF3946
C:\Users\SOLDER~1\AppData\Local\Temp\ccUIzJuS.s:27210  .debug_str:00000000000207e3 .LASF3947
C:\Users\SOLDER~1\AppData\Local\Temp\ccUIzJuS.s:28358  .debug_str:000000000002521d .LASF3948
GAS LISTING C:\Users\SOLDER~1\AppData\Local\Temp\ccUIzJuS.s 			page 98


C:\Users\SOLDER~1\AppData\Local\Temp\ccUIzJuS.s:24482  .debug_str:00000000000156d4 .LASF3949
C:\Users\SOLDER~1\AppData\Local\Temp\ccUIzJuS.s:19528  .debug_str:0000000000001346 .LASF3950
C:\Users\SOLDER~1\AppData\Local\Temp\ccUIzJuS.s:27948  .debug_str:0000000000023732 .LASF3951
C:\Users\SOLDER~1\AppData\Local\Temp\ccUIzJuS.s:20222  .debug_str:0000000000003fdd .LASF3952
C:\Users\SOLDER~1\AppData\Local\Temp\ccUIzJuS.s:23154  .debug_str:000000000000ffe6 .LASF3953
C:\Users\SOLDER~1\AppData\Local\Temp\ccUIzJuS.s:24586  .debug_str:0000000000015d77 .LASF3954
C:\Users\SOLDER~1\AppData\Local\Temp\ccUIzJuS.s:21206  .debug_str:0000000000007f67 .LASF3955
C:\Users\SOLDER~1\AppData\Local\Temp\ccUIzJuS.s:19574  .debug_str:0000000000001653 .LASF3956
C:\Users\SOLDER~1\AppData\Local\Temp\ccUIzJuS.s:30784  .debug_str:000000000002f091 .LASF3957
C:\Users\SOLDER~1\AppData\Local\Temp\ccUIzJuS.s:23720  .debug_str:00000000000123de .LASF3958
C:\Users\SOLDER~1\AppData\Local\Temp\ccUIzJuS.s:24932  .debug_str:000000000001736b .LASF3959
C:\Users\SOLDER~1\AppData\Local\Temp\ccUIzJuS.s:22690  .debug_str:000000000000e18b .LASF3960
C:\Users\SOLDER~1\AppData\Local\Temp\ccUIzJuS.s:25198  .debug_str:00000000000184ee .LASF3961
C:\Users\SOLDER~1\AppData\Local\Temp\ccUIzJuS.s:28372  .debug_str:0000000000025314 .LASF3962
C:\Users\SOLDER~1\AppData\Local\Temp\ccUIzJuS.s:22688  .debug_str:000000000000e164 .LASF3963
C:\Users\SOLDER~1\AppData\Local\Temp\ccUIzJuS.s:22826  .debug_str:000000000000ea89 .LASF3964
C:\Users\SOLDER~1\AppData\Local\Temp\ccUIzJuS.s:27268  .debug_str:0000000000020baf .LASF3965
C:\Users\SOLDER~1\AppData\Local\Temp\ccUIzJuS.s:27332  .debug_str:0000000000020f9d .LASF3966
C:\Users\SOLDER~1\AppData\Local\Temp\ccUIzJuS.s:26308  .debug_str:000000000001ccf5 .LASF3967
C:\Users\SOLDER~1\AppData\Local\Temp\ccUIzJuS.s:28086  .debug_str:0000000000024013 .LASF3968
C:\Users\SOLDER~1\AppData\Local\Temp\ccUIzJuS.s:25078  .debug_str:0000000000017d07 .LASF3969
C:\Users\SOLDER~1\AppData\Local\Temp\ccUIzJuS.s:22282  .debug_str:000000000000c62f .LASF3970
C:\Users\SOLDER~1\AppData\Local\Temp\ccUIzJuS.s:21854  .debug_str:000000000000aa1d .LASF3971
C:\Users\SOLDER~1\AppData\Local\Temp\ccUIzJuS.s:20358  .debug_str:00000000000048d1 .LASF3972
C:\Users\SOLDER~1\AppData\Local\Temp\ccUIzJuS.s:28622  .debug_str:0000000000026441 .LASF3973
C:\Users\SOLDER~1\AppData\Local\Temp\ccUIzJuS.s:23076  .debug_str:000000000000fa91 .LASF3974
C:\Users\SOLDER~1\AppData\Local\Temp\ccUIzJuS.s:23276  .debug_str:0000000000010775 .LASF3975
C:\Users\SOLDER~1\AppData\Local\Temp\ccUIzJuS.s:19384  .debug_str:00000000000009e0 .LASF3976
C:\Users\SOLDER~1\AppData\Local\Temp\ccUIzJuS.s:20924  .debug_str:0000000000006d25 .LASF3977
C:\Users\SOLDER~1\AppData\Local\Temp\ccUIzJuS.s:30666  .debug_str:000000000002e91e .LASF3978
C:\Users\SOLDER~1\AppData\Local\Temp\ccUIzJuS.s:21790  .debug_str:000000000000a5b8 .LASF3979
C:\Users\SOLDER~1\AppData\Local\Temp\ccUIzJuS.s:24846  .debug_str:0000000000016dbb .LASF3980
C:\Users\SOLDER~1\AppData\Local\Temp\ccUIzJuS.s:28786  .debug_str:0000000000026efd .LASF3981
C:\Users\SOLDER~1\AppData\Local\Temp\ccUIzJuS.s:25896  .debug_str:000000000001b1cc .LASF3982
C:\Users\SOLDER~1\AppData\Local\Temp\ccUIzJuS.s:29222  .debug_str:0000000000028c1e .LASF3983
C:\Users\SOLDER~1\AppData\Local\Temp\ccUIzJuS.s:25016  .debug_str:0000000000017901 .LASF3984
C:\Users\SOLDER~1\AppData\Local\Temp\ccUIzJuS.s:28780  .debug_str:0000000000026e92 .LASF3985
C:\Users\SOLDER~1\AppData\Local\Temp\ccUIzJuS.s:21358  .debug_str:000000000000891d .LASF3986
C:\Users\SOLDER~1\AppData\Local\Temp\ccUIzJuS.s:20874  .debug_str:0000000000006a09 .LASF3987
C:\Users\SOLDER~1\AppData\Local\Temp\ccUIzJuS.s:26502  .debug_str:000000000001d99f .LASF3988
C:\Users\SOLDER~1\AppData\Local\Temp\ccUIzJuS.s:23996  .debug_str:0000000000013614 .LASF3989
C:\Users\SOLDER~1\AppData\Local\Temp\ccUIzJuS.s:28650  .debug_str:0000000000026627 .LASF3990
C:\Users\SOLDER~1\AppData\Local\Temp\ccUIzJuS.s:20214  .debug_str:0000000000003f50 .LASF3991
C:\Users\SOLDER~1\AppData\Local\Temp\ccUIzJuS.s:28078  .debug_str:0000000000023f90 .LASF3992
C:\Users\SOLDER~1\AppData\Local\Temp\ccUIzJuS.s:21454  .debug_str:0000000000008f93 .LASF3993
C:\Users\SOLDER~1\AppData\Local\Temp\ccUIzJuS.s:22028  .debug_str:000000000000b558 .LASF3994
C:\Users\SOLDER~1\AppData\Local\Temp\ccUIzJuS.s:22306  .debug_str:000000000000c7db .LASF3995
C:\Users\SOLDER~1\AppData\Local\Temp\ccUIzJuS.s:28156  .debug_str:00000000000244ad .LASF3996
C:\Users\SOLDER~1\AppData\Local\Temp\ccUIzJuS.s:29774  .debug_str:000000000002afbc .LASF3997
C:\Users\SOLDER~1\AppData\Local\Temp\ccUIzJuS.s:21498  .debug_str:00000000000092be .LASF3998
C:\Users\SOLDER~1\AppData\Local\Temp\ccUIzJuS.s:23778  .debug_str:00000000000127bc .LASF3999
C:\Users\SOLDER~1\AppData\Local\Temp\ccUIzJuS.s:24258  .debug_str:0000000000014855 .LASF4000
C:\Users\SOLDER~1\AppData\Local\Temp\ccUIzJuS.s:28998  .debug_str:0000000000027d14 .LASF4001
C:\Users\SOLDER~1\AppData\Local\Temp\ccUIzJuS.s:30588  .debug_str:000000000002e430 .LASF4002
C:\Users\SOLDER~1\AppData\Local\Temp\ccUIzJuS.s:19792  .debug_str:0000000000002444 .LASF4003
C:\Users\SOLDER~1\AppData\Local\Temp\ccUIzJuS.s:24718  .debug_str:000000000001660c .LASF4004
C:\Users\SOLDER~1\AppData\Local\Temp\ccUIzJuS.s:26482  .debug_str:000000000001d84f .LASF4005
GAS LISTING C:\Users\SOLDER~1\AppData\Local\Temp\ccUIzJuS.s 			page 99


C:\Users\SOLDER~1\AppData\Local\Temp\ccUIzJuS.s:29342  .debug_str:00000000000293ac .LASF4006
C:\Users\SOLDER~1\AppData\Local\Temp\ccUIzJuS.s:20556  .debug_str:00000000000054e9 .LASF4007
C:\Users\SOLDER~1\AppData\Local\Temp\ccUIzJuS.s:27430  .debug_str:0000000000021611 .LASF4008
C:\Users\SOLDER~1\AppData\Local\Temp\ccUIzJuS.s:19492  .debug_str:00000000000010fe .LASF4009
C:\Users\SOLDER~1\AppData\Local\Temp\ccUIzJuS.s:29194  .debug_str:0000000000028a59 .LASF4010
C:\Users\SOLDER~1\AppData\Local\Temp\ccUIzJuS.s:19456  .debug_str:0000000000000ec8 .LASF4011
C:\Users\SOLDER~1\AppData\Local\Temp\ccUIzJuS.s:29688  .debug_str:000000000002aa2f .LASF4012
C:\Users\SOLDER~1\AppData\Local\Temp\ccUIzJuS.s:29214  .debug_str:0000000000028b91 .LASF4013
C:\Users\SOLDER~1\AppData\Local\Temp\ccUIzJuS.s:25670  .debug_str:000000000001a2e1 .LASF4014
C:\Users\SOLDER~1\AppData\Local\Temp\ccUIzJuS.s:21842  .debug_str:000000000000a94d .LASF4015
C:\Users\SOLDER~1\AppData\Local\Temp\ccUIzJuS.s:19708  .debug_str:0000000000001edc .LASF4016
C:\Users\SOLDER~1\AppData\Local\Temp\ccUIzJuS.s:30272  .debug_str:000000000002cfd8 .LASF4017
C:\Users\SOLDER~1\AppData\Local\Temp\ccUIzJuS.s:27512  .debug_str:0000000000021b41 .LASF4018
C:\Users\SOLDER~1\AppData\Local\Temp\ccUIzJuS.s:19308  .debug_str:0000000000000435 .LASF4019
C:\Users\SOLDER~1\AppData\Local\Temp\ccUIzJuS.s:22270  .debug_str:000000000000c578 .LASF4020
C:\Users\SOLDER~1\AppData\Local\Temp\ccUIzJuS.s:22106  .debug_str:000000000000ba57 .LASF4021
C:\Users\SOLDER~1\AppData\Local\Temp\ccUIzJuS.s:28132  .debug_str:0000000000024312 .LASF4022
C:\Users\SOLDER~1\AppData\Local\Temp\ccUIzJuS.s:28500  .debug_str:0000000000025baa .LASF4023
C:\Users\SOLDER~1\AppData\Local\Temp\ccUIzJuS.s:29128  .debug_str:00000000000285e1 .LASF4024
C:\Users\SOLDER~1\AppData\Local\Temp\ccUIzJuS.s:20250  .debug_str:00000000000041c2 .LASF4025
C:\Users\SOLDER~1\AppData\Local\Temp\ccUIzJuS.s:26794  .debug_str:000000000001ec8e .LASF4026
C:\Users\SOLDER~1\AppData\Local\Temp\ccUIzJuS.s:24354  .debug_str:0000000000014ec5 .LASF4027
C:\Users\SOLDER~1\AppData\Local\Temp\ccUIzJuS.s:30646  .debug_str:000000000002e7d5 .LASF4028
C:\Users\SOLDER~1\AppData\Local\Temp\ccUIzJuS.s:20106  .debug_str:0000000000003846 .LASF4029
C:\Users\SOLDER~1\AppData\Local\Temp\ccUIzJuS.s:26012  .debug_str:000000000001b91e .LASF4030
C:\Users\SOLDER~1\AppData\Local\Temp\ccUIzJuS.s:28672  .debug_str:0000000000026779 .LASF4031
C:\Users\SOLDER~1\AppData\Local\Temp\ccUIzJuS.s:23184  .debug_str:000000000001019f .LASF4032
C:\Users\SOLDER~1\AppData\Local\Temp\ccUIzJuS.s:27878  .debug_str:0000000000023273 .LASF4033
C:\Users\SOLDER~1\AppData\Local\Temp\ccUIzJuS.s:22108  .debug_str:000000000000ba74 .LASF4034
C:\Users\SOLDER~1\AppData\Local\Temp\ccUIzJuS.s:29542  .debug_str:000000000002a0ae .LASF4035
C:\Users\SOLDER~1\AppData\Local\Temp\ccUIzJuS.s:21586  .debug_str:000000000000985f .LASF4036
C:\Users\SOLDER~1\AppData\Local\Temp\ccUIzJuS.s:20422  .debug_str:0000000000004cdb .LASF4037
C:\Users\SOLDER~1\AppData\Local\Temp\ccUIzJuS.s:25176  .debug_str:000000000001839d .LASF4038
C:\Users\SOLDER~1\AppData\Local\Temp\ccUIzJuS.s:21328  .debug_str:0000000000008759 .LASF4039
C:\Users\SOLDER~1\AppData\Local\Temp\ccUIzJuS.s:27298  .debug_str:0000000000020d8d .LASF4040
C:\Users\SOLDER~1\AppData\Local\Temp\ccUIzJuS.s:30398  .debug_str:000000000002d82b .LASF4041
C:\Users\SOLDER~1\AppData\Local\Temp\ccUIzJuS.s:22910  .debug_str:000000000000efc0 .LASF4042
C:\Users\SOLDER~1\AppData\Local\Temp\ccUIzJuS.s:30502  .debug_str:000000000002ded3 .LASF4043
C:\Users\SOLDER~1\AppData\Local\Temp\ccUIzJuS.s:20590  .debug_str:00000000000056f5 .LASF4044
C:\Users\SOLDER~1\AppData\Local\Temp\ccUIzJuS.s:20618  .debug_str:000000000000590b .LASF4045
C:\Users\SOLDER~1\AppData\Local\Temp\ccUIzJuS.s:26510  .debug_str:000000000001d9e1 .LASF4046
C:\Users\SOLDER~1\AppData\Local\Temp\ccUIzJuS.s:20610  .debug_str:0000000000005877 .LASF4047
C:\Users\SOLDER~1\AppData\Local\Temp\ccUIzJuS.s:28344  .debug_str:0000000000025163 .LASF4048
C:\Users\SOLDER~1\AppData\Local\Temp\ccUIzJuS.s:23456  .debug_str:0000000000011308 .LASF4049
C:\Users\SOLDER~1\AppData\Local\Temp\ccUIzJuS.s:24030  .debug_str:0000000000013850 .LASF4050
C:\Users\SOLDER~1\AppData\Local\Temp\ccUIzJuS.s:19922  .debug_str:0000000000002c4d .LASF4051
C:\Users\SOLDER~1\AppData\Local\Temp\ccUIzJuS.s:24142  .debug_str:000000000001407b .LASF4052
C:\Users\SOLDER~1\AppData\Local\Temp\ccUIzJuS.s:23244  .debug_str:000000000001059c .LASF4053
C:\Users\SOLDER~1\AppData\Local\Temp\ccUIzJuS.s:23430  .debug_str:0000000000011173 .LASF4054
C:\Users\SOLDER~1\AppData\Local\Temp\ccUIzJuS.s:27748  .debug_str:00000000000229eb .LASF4055
C:\Users\SOLDER~1\AppData\Local\Temp\ccUIzJuS.s:23348  .debug_str:0000000000010c2b .LASF4056
C:\Users\SOLDER~1\AppData\Local\Temp\ccUIzJuS.s:20010  .debug_str:000000000000321d .LASF4057
C:\Users\SOLDER~1\AppData\Local\Temp\ccUIzJuS.s:23892  .debug_str:0000000000012f47 .LASF4058
C:\Users\SOLDER~1\AppData\Local\Temp\ccUIzJuS.s:23804  .debug_str:000000000001291b .LASF4059
C:\Users\SOLDER~1\AppData\Local\Temp\ccUIzJuS.s:21490  .debug_str:0000000000009239 .LASF4060
C:\Users\SOLDER~1\AppData\Local\Temp\ccUIzJuS.s:20706  .debug_str:0000000000005e96 .LASF4061
C:\Users\SOLDER~1\AppData\Local\Temp\ccUIzJuS.s:27294  .debug_str:0000000000020d63 .LASF4062
GAS LISTING C:\Users\SOLDER~1\AppData\Local\Temp\ccUIzJuS.s 			page 100


C:\Users\SOLDER~1\AppData\Local\Temp\ccUIzJuS.s:24958  .debug_str:0000000000017529 .LASF4063
C:\Users\SOLDER~1\AppData\Local\Temp\ccUIzJuS.s:27174  .debug_str:0000000000020584 .LASF4064
C:\Users\SOLDER~1\AppData\Local\Temp\ccUIzJuS.s:27550  .debug_str:0000000000021d74 .LASF4065
C:\Users\SOLDER~1\AppData\Local\Temp\ccUIzJuS.s:27756  .debug_str:0000000000022a7c .LASF4066
C:\Users\SOLDER~1\AppData\Local\Temp\ccUIzJuS.s:23758  .debug_str:0000000000012678 .LASF4067
C:\Users\SOLDER~1\AppData\Local\Temp\ccUIzJuS.s:27888  .debug_str:0000000000023322 .LASF4068
C:\Users\SOLDER~1\AppData\Local\Temp\ccUIzJuS.s:20756  .debug_str:0000000000006219 .LASF4069
C:\Users\SOLDER~1\AppData\Local\Temp\ccUIzJuS.s:28028  .debug_str:0000000000023c38 .LASF4070
C:\Users\SOLDER~1\AppData\Local\Temp\ccUIzJuS.s:25248  .debug_str:000000000001881f .LASF4071
C:\Users\SOLDER~1\AppData\Local\Temp\ccUIzJuS.s:27528  .debug_str:0000000000021c3e .LASF4072
C:\Users\SOLDER~1\AppData\Local\Temp\ccUIzJuS.s:19752  .debug_str:000000000000218c .LASF4073
C:\Users\SOLDER~1\AppData\Local\Temp\ccUIzJuS.s:28660  .debug_str:00000000000266bd .LASF4074
C:\Users\SOLDER~1\AppData\Local\Temp\ccUIzJuS.s:27638  .debug_str:000000000002229e .LASF4075
C:\Users\SOLDER~1\AppData\Local\Temp\ccUIzJuS.s:23884  .debug_str:0000000000012ebb .LASF4076
C:\Users\SOLDER~1\AppData\Local\Temp\ccUIzJuS.s:28454  .debug_str:000000000002584a .LASF4077
C:\Users\SOLDER~1\AppData\Local\Temp\ccUIzJuS.s:20148  .debug_str:0000000000003b11 .LASF4078
C:\Users\SOLDER~1\AppData\Local\Temp\ccUIzJuS.s:23062  .debug_str:000000000000f994 .LASF4079
C:\Users\SOLDER~1\AppData\Local\Temp\ccUIzJuS.s:21996  .debug_str:000000000000b31f .LASF4080
C:\Users\SOLDER~1\AppData\Local\Temp\ccUIzJuS.s:20414  .debug_str:0000000000004c51 .LASF4081
C:\Users\SOLDER~1\AppData\Local\Temp\ccUIzJuS.s:28994  .debug_str:0000000000027cdc .LASF4082
C:\Users\SOLDER~1\AppData\Local\Temp\ccUIzJuS.s:21590  .debug_str:0000000000009896 .LASF4083
C:\Users\SOLDER~1\AppData\Local\Temp\ccUIzJuS.s:30004  .debug_str:000000000002bec8 .LASF4084
C:\Users\SOLDER~1\AppData\Local\Temp\ccUIzJuS.s:27886  .debug_str:0000000000023305 .LASF4085
C:\Users\SOLDER~1\AppData\Local\Temp\ccUIzJuS.s:29164  .debug_str:000000000002881d .LASF4086
C:\Users\SOLDER~1\AppData\Local\Temp\ccUIzJuS.s:26174  .debug_str:000000000001c3de .LASF4087
C:\Users\SOLDER~1\AppData\Local\Temp\ccUIzJuS.s:24296  .debug_str:0000000000014afd .LASF4088
C:\Users\SOLDER~1\AppData\Local\Temp\ccUIzJuS.s:20234  .debug_str:000000000000409d .LASF4089
C:\Users\SOLDER~1\AppData\Local\Temp\ccUIzJuS.s:25964  .debug_str:000000000001b62d .LASF4090
C:\Users\SOLDER~1\AppData\Local\Temp\ccUIzJuS.s:29912  .debug_str:000000000002b8d4 .LASF4091
C:\Users\SOLDER~1\AppData\Local\Temp\ccUIzJuS.s:30750  .debug_str:000000000002ee94 .LASF4092
C:\Users\SOLDER~1\AppData\Local\Temp\ccUIzJuS.s:21020  .debug_str:00000000000073b4 .LASF4093
C:\Users\SOLDER~1\AppData\Local\Temp\ccUIzJuS.s:30218  .debug_str:000000000002cc76 .LASF4094
C:\Users\SOLDER~1\AppData\Local\Temp\ccUIzJuS.s:30466  .debug_str:000000000002dc63 .LASF4095
C:\Users\SOLDER~1\AppData\Local\Temp\ccUIzJuS.s:25164  .debug_str:00000000000182e3 .LASF4096
C:\Users\SOLDER~1\AppData\Local\Temp\ccUIzJuS.s:19576  .debug_str:000000000000166e .LASF4097
C:\Users\SOLDER~1\AppData\Local\Temp\ccUIzJuS.s:20370  .debug_str:0000000000004985 .LASF4098
C:\Users\SOLDER~1\AppData\Local\Temp\ccUIzJuS.s:30640  .debug_str:000000000002e777 .LASF4099
C:\Users\SOLDER~1\AppData\Local\Temp\ccUIzJuS.s:25968  .debug_str:000000000001b667 .LASF4100
C:\Users\SOLDER~1\AppData\Local\Temp\ccUIzJuS.s:29766  .debug_str:000000000002af3c .LASF4101
C:\Users\SOLDER~1\AppData\Local\Temp\ccUIzJuS.s:24332  .debug_str:0000000000014d5f .LASF4102
C:\Users\SOLDER~1\AppData\Local\Temp\ccUIzJuS.s:20366  .debug_str:0000000000004952 .LASF4103
C:\Users\SOLDER~1\AppData\Local\Temp\ccUIzJuS.s:22574  .debug_str:000000000000d9ad .LASF4104
C:\Users\SOLDER~1\AppData\Local\Temp\ccUIzJuS.s:21784  .debug_str:000000000000a566 .LASF4105
C:\Users\SOLDER~1\AppData\Local\Temp\ccUIzJuS.s:21704  .debug_str:000000000000a008 .LASF4106
C:\Users\SOLDER~1\AppData\Local\Temp\ccUIzJuS.s:30392  .debug_str:000000000002d7b8 .LASF4107
C:\Users\SOLDER~1\AppData\Local\Temp\ccUIzJuS.s:25304  .debug_str:0000000000018bd6 .LASF4108
C:\Users\SOLDER~1\AppData\Local\Temp\ccUIzJuS.s:23408  .debug_str:0000000000010ffe .LASF4109
C:\Users\SOLDER~1\AppData\Local\Temp\ccUIzJuS.s:20208  .debug_str:0000000000003f0a .LASF4110
C:\Users\SOLDER~1\AppData\Local\Temp\ccUIzJuS.s:27696  .debug_str:000000000002266b .LASF4111
C:\Users\SOLDER~1\AppData\Local\Temp\ccUIzJuS.s:23262  .debug_str:00000000000106b2 .LASF4112
C:\Users\SOLDER~1\AppData\Local\Temp\ccUIzJuS.s:25256  .debug_str:0000000000018898 .LASF4113
C:\Users\SOLDER~1\AppData\Local\Temp\ccUIzJuS.s:27440  .debug_str:00000000000216c1 .LASF4114
C:\Users\SOLDER~1\AppData\Local\Temp\ccUIzJuS.s:25496  .debug_str:0000000000019837 .LASF4115
C:\Users\SOLDER~1\AppData\Local\Temp\ccUIzJuS.s:22734  .debug_str:000000000000e488 .LASF4116
C:\Users\SOLDER~1\AppData\Local\Temp\ccUIzJuS.s:30420  .debug_str:000000000002d993 .LASF4117
C:\Users\SOLDER~1\AppData\Local\Temp\ccUIzJuS.s:21644  .debug_str:0000000000009c07 .LASF4118
C:\Users\SOLDER~1\AppData\Local\Temp\ccUIzJuS.s:20944  .debug_str:0000000000006e8c .LASF4119
GAS LISTING C:\Users\SOLDER~1\AppData\Local\Temp\ccUIzJuS.s 			page 101


C:\Users\SOLDER~1\AppData\Local\Temp\ccUIzJuS.s:28914  .debug_str:00000000000277d3 .LASF4120
C:\Users\SOLDER~1\AppData\Local\Temp\ccUIzJuS.s:23396  .debug_str:0000000000010f39 .LASF4121
C:\Users\SOLDER~1\AppData\Local\Temp\ccUIzJuS.s:20538  .debug_str:00000000000053df .LASF4122
C:\Users\SOLDER~1\AppData\Local\Temp\ccUIzJuS.s:20876  .debug_str:0000000000006a24 .LASF4123
C:\Users\SOLDER~1\AppData\Local\Temp\ccUIzJuS.s:24578  .debug_str:0000000000015cf6 .LASF4124
C:\Users\SOLDER~1\AppData\Local\Temp\ccUIzJuS.s:22012  .debug_str:000000000000b43a .LASF4125
C:\Users\SOLDER~1\AppData\Local\Temp\ccUIzJuS.s:19684  .debug_str:0000000000001d54 .LASF4126
C:\Users\SOLDER~1\AppData\Local\Temp\ccUIzJuS.s:24374  .debug_str:0000000000014fff .LASF4127
C:\Users\SOLDER~1\AppData\Local\Temp\ccUIzJuS.s:22154  .debug_str:000000000000bd73 .LASF4128
C:\Users\SOLDER~1\AppData\Local\Temp\ccUIzJuS.s:29536  .debug_str:000000000002a059 .LASF4129
C:\Users\SOLDER~1\AppData\Local\Temp\ccUIzJuS.s:19850  .debug_str:00000000000027be .LASF4130
C:\Users\SOLDER~1\AppData\Local\Temp\ccUIzJuS.s:21816  .debug_str:000000000000a7ba .LASF4131
C:\Users\SOLDER~1\AppData\Local\Temp\ccUIzJuS.s:26550  .debug_str:000000000001dc83 .LASF4132
C:\Users\SOLDER~1\AppData\Local\Temp\ccUIzJuS.s:22426  .debug_str:000000000000d00f .LASF4133
C:\Users\SOLDER~1\AppData\Local\Temp\ccUIzJuS.s:20578  .debug_str:000000000000562d .LASF4134
C:\Users\SOLDER~1\AppData\Local\Temp\ccUIzJuS.s:23194  .debug_str:0000000000010239 .LASF4135
C:\Users\SOLDER~1\AppData\Local\Temp\ccUIzJuS.s:28886  .debug_str:00000000000275c9 .LASF4136
C:\Users\SOLDER~1\AppData\Local\Temp\ccUIzJuS.s:27916  .debug_str:000000000002353e .LASF4137
C:\Users\SOLDER~1\AppData\Local\Temp\ccUIzJuS.s:30692  .debug_str:000000000002eaee .LASF4138
C:\Users\SOLDER~1\AppData\Local\Temp\ccUIzJuS.s:24262  .debug_str:000000000001488d .LASF4139
C:\Users\SOLDER~1\AppData\Local\Temp\ccUIzJuS.s:21080  .debug_str:0000000000007745 .LASF4140
C:\Users\SOLDER~1\AppData\Local\Temp\ccUIzJuS.s:27984  .debug_str:000000000002398d .LASF4141
C:\Users\SOLDER~1\AppData\Local\Temp\ccUIzJuS.s:21240  .debug_str:00000000000081db .LASF4142
C:\Users\SOLDER~1\AppData\Local\Temp\ccUIzJuS.s:29570  .debug_str:000000000002a284 .LASF4143
C:\Users\SOLDER~1\AppData\Local\Temp\ccUIzJuS.s:28128  .debug_str:00000000000242e6 .LASF4144
C:\Users\SOLDER~1\AppData\Local\Temp\ccUIzJuS.s:24410  .debug_str:0000000000015215 .LASF4145
C:\Users\SOLDER~1\AppData\Local\Temp\ccUIzJuS.s:22720  .debug_str:000000000000e39e .LASF4146
C:\Users\SOLDER~1\AppData\Local\Temp\ccUIzJuS.s:27726  .debug_str:000000000002286a .LASF4147
C:\Users\SOLDER~1\AppData\Local\Temp\ccUIzJuS.s:27918  .debug_str:0000000000023551 .LASF4148
C:\Users\SOLDER~1\AppData\Local\Temp\ccUIzJuS.s:19948  .debug_str:0000000000002e0b .LASF4149
C:\Users\SOLDER~1\AppData\Local\Temp\ccUIzJuS.s:27188  .debug_str:0000000000020682 .LASF4150
C:\Users\SOLDER~1\AppData\Local\Temp\ccUIzJuS.s:29996  .debug_str:000000000002be36 .LASF4151
C:\Users\SOLDER~1\AppData\Local\Temp\ccUIzJuS.s:27412  .debug_str:00000000000214e1 .LASF4152
C:\Users\SOLDER~1\AppData\Local\Temp\ccUIzJuS.s:26110  .debug_str:000000000001bf88 .LASF4153
C:\Users\SOLDER~1\AppData\Local\Temp\ccUIzJuS.s:20384  .debug_str:0000000000004a4c .LASF4154
C:\Users\SOLDER~1\AppData\Local\Temp\ccUIzJuS.s:19810  .debug_str:0000000000002575 .LASF4155
C:\Users\SOLDER~1\AppData\Local\Temp\ccUIzJuS.s:21896  .debug_str:000000000000acb6 .LASF4156
C:\Users\SOLDER~1\AppData\Local\Temp\ccUIzJuS.s:25240  .debug_str:00000000000187a0 .LASF4157
C:\Users\SOLDER~1\AppData\Local\Temp\ccUIzJuS.s:29640  .debug_str:000000000002a73d .LASF4158
C:\Users\SOLDER~1\AppData\Local\Temp\ccUIzJuS.s:27640  .debug_str:00000000000222b9 .LASF4159
C:\Users\SOLDER~1\AppData\Local\Temp\ccUIzJuS.s:25524  .debug_str:00000000000199d4 .LASF4160
C:\Users\SOLDER~1\AppData\Local\Temp\ccUIzJuS.s:19846  .debug_str:000000000000277a .LASF4161
C:\Users\SOLDER~1\AppData\Local\Temp\ccUIzJuS.s:23718  .debug_str:00000000000123c0 .LASF4162
C:\Users\SOLDER~1\AppData\Local\Temp\ccUIzJuS.s:27170  .debug_str:0000000000020544 .LASF4163
C:\Users\SOLDER~1\AppData\Local\Temp\ccUIzJuS.s:24734  .debug_str:00000000000166eb .LASF4164
C:\Users\SOLDER~1\AppData\Local\Temp\ccUIzJuS.s:21846  .debug_str:000000000000a997 .LASF4165
C:\Users\SOLDER~1\AppData\Local\Temp\ccUIzJuS.s:27958  .debug_str:00000000000237f1 .LASF4166
C:\Users\SOLDER~1\AppData\Local\Temp\ccUIzJuS.s:28478  .debug_str:0000000000025a16 .LASF4167
C:\Users\SOLDER~1\AppData\Local\Temp\ccUIzJuS.s:29048  .debug_str:0000000000028099 .LASF4168
C:\Users\SOLDER~1\AppData\Local\Temp\ccUIzJuS.s:26830  .debug_str:000000000001eee6 .LASF4169
C:\Users\SOLDER~1\AppData\Local\Temp\ccUIzJuS.s:29962  .debug_str:000000000002bc1f .LASF4170
C:\Users\SOLDER~1\AppData\Local\Temp\ccUIzJuS.s:26058  .debug_str:000000000001bc25 .LASF4171
C:\Users\SOLDER~1\AppData\Local\Temp\ccUIzJuS.s:29258  .debug_str:0000000000028e3e .LASF4172
C:\Users\SOLDER~1\AppData\Local\Temp\ccUIzJuS.s:30350  .debug_str:000000000002d536 .LASF4173
C:\Users\SOLDER~1\AppData\Local\Temp\ccUIzJuS.s:20460  .debug_str:0000000000004f10 .LASF4174
C:\Users\SOLDER~1\AppData\Local\Temp\ccUIzJuS.s:30592  .debug_str:000000000002e45b .LASF4175
C:\Users\SOLDER~1\AppData\Local\Temp\ccUIzJuS.s:26964  .debug_str:000000000001f80d .LASF4176
GAS LISTING C:\Users\SOLDER~1\AppData\Local\Temp\ccUIzJuS.s 			page 102


C:\Users\SOLDER~1\AppData\Local\Temp\ccUIzJuS.s:28928  .debug_str:00000000000278c1 .LASF4177
C:\Users\SOLDER~1\AppData\Local\Temp\ccUIzJuS.s:28428  .debug_str:00000000000256ad .LASF4178
C:\Users\SOLDER~1\AppData\Local\Temp\ccUIzJuS.s:22976  .debug_str:000000000000f3b9 .LASF4179
C:\Users\SOLDER~1\AppData\Local\Temp\ccUIzJuS.s:25592  .debug_str:0000000000019e20 .LASF4180
C:\Users\SOLDER~1\AppData\Local\Temp\ccUIzJuS.s:20702  .debug_str:0000000000005e53 .LASF4181
C:\Users\SOLDER~1\AppData\Local\Temp\ccUIzJuS.s:20308  .debug_str:0000000000004533 .LASF4182
C:\Users\SOLDER~1\AppData\Local\Temp\ccUIzJuS.s:20976  .debug_str:00000000000070dd .LASF4183
C:\Users\SOLDER~1\AppData\Local\Temp\ccUIzJuS.s:19364  .debug_str:000000000000085b .LASF4184
C:\Users\SOLDER~1\AppData\Local\Temp\ccUIzJuS.s:24150  .debug_str:00000000000140e3 .LASF4185
C:\Users\SOLDER~1\AppData\Local\Temp\ccUIzJuS.s:30486  .debug_str:000000000002ddb7 .LASF4186
C:\Users\SOLDER~1\AppData\Local\Temp\ccUIzJuS.s:27526  .debug_str:0000000000021c22 .LASF4187
C:\Users\SOLDER~1\AppData\Local\Temp\ccUIzJuS.s:21188  .debug_str:0000000000007e30 .LASF4188
C:\Users\SOLDER~1\AppData\Local\Temp\ccUIzJuS.s:26752  .debug_str:000000000001e9bc .LASF4189
C:\Users\SOLDER~1\AppData\Local\Temp\ccUIzJuS.s:21086  .debug_str:0000000000007797 .LASF4190
C:\Users\SOLDER~1\AppData\Local\Temp\ccUIzJuS.s:20872  .debug_str:00000000000069f5 .LASF4191
C:\Users\SOLDER~1\AppData\Local\Temp\ccUIzJuS.s:29306  .debug_str:0000000000029142 .LASF4192
C:\Users\SOLDER~1\AppData\Local\Temp\ccUIzJuS.s:19736  .debug_str:0000000000002072 .LASF4193
C:\Users\SOLDER~1\AppData\Local\Temp\ccUIzJuS.s:28390  .debug_str:0000000000025445 .LASF4194
C:\Users\SOLDER~1\AppData\Local\Temp\ccUIzJuS.s:22328  .debug_str:000000000000c96e .LASF4195
C:\Users\SOLDER~1\AppData\Local\Temp\ccUIzJuS.s:26032  .debug_str:000000000001ba40 .LASF4196
C:\Users\SOLDER~1\AppData\Local\Temp\ccUIzJuS.s:19376  .debug_str:0000000000000961 .LASF4197
C:\Users\SOLDER~1\AppData\Local\Temp\ccUIzJuS.s:24134  .debug_str:0000000000013fe4 .LASF4198
C:\Users\SOLDER~1\AppData\Local\Temp\ccUIzJuS.s:24116  .debug_str:0000000000013eaa .LASF4199
C:\Users\SOLDER~1\AppData\Local\Temp\ccUIzJuS.s:21860  .debug_str:000000000000aa9b .LASF4200
C:\Users\SOLDER~1\AppData\Local\Temp\ccUIzJuS.s:21666  .debug_str:0000000000009d80 .LASF4201
C:\Users\SOLDER~1\AppData\Local\Temp\ccUIzJuS.s:21954  .debug_str:000000000000b09b .LASF4202
C:\Users\SOLDER~1\AppData\Local\Temp\ccUIzJuS.s:23294  .debug_str:00000000000108c1 .LASF4203
C:\Users\SOLDER~1\AppData\Local\Temp\ccUIzJuS.s:21864  .debug_str:000000000000aadd .LASF4204
C:\Users\SOLDER~1\AppData\Local\Temp\ccUIzJuS.s:24096  .debug_str:0000000000013d41 .LASF4205
C:\Users\SOLDER~1\AppData\Local\Temp\ccUIzJuS.s:25400  .debug_str:0000000000019203 .LASF4206
C:\Users\SOLDER~1\AppData\Local\Temp\ccUIzJuS.s:20768  .debug_str:00000000000062da .LASF4207
C:\Users\SOLDER~1\AppData\Local\Temp\ccUIzJuS.s:23976  .debug_str:00000000000134b2 .LASF4208
C:\Users\SOLDER~1\AppData\Local\Temp\ccUIzJuS.s:21322  .debug_str:00000000000086d9 .LASF4209
C:\Users\SOLDER~1\AppData\Local\Temp\ccUIzJuS.s:29416  .debug_str:00000000000298aa .LASF4210
C:\Users\SOLDER~1\AppData\Local\Temp\ccUIzJuS.s:29414  .debug_str:000000000002988c .LASF4211
C:\Users\SOLDER~1\AppData\Local\Temp\ccUIzJuS.s:19634  .debug_str:00000000000019f9 .LASF4212
C:\Users\SOLDER~1\AppData\Local\Temp\ccUIzJuS.s:27364  .debug_str:00000000000211e7 .LASF4213
C:\Users\SOLDER~1\AppData\Local\Temp\ccUIzJuS.s:28964  .debug_str:0000000000027afd .LASF4214
C:\Users\SOLDER~1\AppData\Local\Temp\ccUIzJuS.s:21288  .debug_str:00000000000084ba .LASF4215
C:\Users\SOLDER~1\AppData\Local\Temp\ccUIzJuS.s:24514  .debug_str:00000000000158f1 .LASF4216
C:\Users\SOLDER~1\AppData\Local\Temp\ccUIzJuS.s:24942  .debug_str:0000000000017403 .LASF4217
C:\Users\SOLDER~1\AppData\Local\Temp\ccUIzJuS.s:19296  .debug_str:0000000000000362 .LASF4218
C:\Users\SOLDER~1\AppData\Local\Temp\ccUIzJuS.s:24252  .debug_str:00000000000147fe .LASF4219
C:\Users\SOLDER~1\AppData\Local\Temp\ccUIzJuS.s:29182  .debug_str:0000000000028978 .LASF4220
C:\Users\SOLDER~1\AppData\Local\Temp\ccUIzJuS.s:30264  .debug_str:000000000002cf55 .LASF4221
C:\Users\SOLDER~1\AppData\Local\Temp\ccUIzJuS.s:29516  .debug_str:0000000000029ee1 .LASF4222
C:\Users\SOLDER~1\AppData\Local\Temp\ccUIzJuS.s:26990  .debug_str:000000000001f9d2 .LASF4223
C:\Users\SOLDER~1\AppData\Local\Temp\ccUIzJuS.s:29438  .debug_str:00000000000299e4 .LASF4224
C:\Users\SOLDER~1\AppData\Local\Temp\ccUIzJuS.s:25266  .debug_str:0000000000018947 .LASF4225
C:\Users\SOLDER~1\AppData\Local\Temp\ccUIzJuS.s:23286  .debug_str:000000000001082a .LASF4226
C:\Users\SOLDER~1\AppData\Local\Temp\ccUIzJuS.s:21970  .debug_str:000000000000b16e .LASF4227
C:\Users\SOLDER~1\AppData\Local\Temp\ccUIzJuS.s:22042  .debug_str:000000000000b639 .LASF4228
C:\Users\SOLDER~1\AppData\Local\Temp\ccUIzJuS.s:24384  .debug_str:0000000000015088 .LASF4229
C:\Users\SOLDER~1\AppData\Local\Temp\ccUIzJuS.s:21916  .debug_str:000000000000ae2f .LASF4230
C:\Users\SOLDER~1\AppData\Local\Temp\ccUIzJuS.s:21254  .debug_str:0000000000008290 .LASF4231
C:\Users\SOLDER~1\AppData\Local\Temp\ccUIzJuS.s:25754  .debug_str:000000000001a896 .LASF4232
C:\Users\SOLDER~1\AppData\Local\Temp\ccUIzJuS.s:23330  .debug_str:0000000000010b19 .LASF4233
GAS LISTING C:\Users\SOLDER~1\AppData\Local\Temp\ccUIzJuS.s 			page 103


C:\Users\SOLDER~1\AppData\Local\Temp\ccUIzJuS.s:29828  .debug_str:000000000002b36c .LASF4234
C:\Users\SOLDER~1\AppData\Local\Temp\ccUIzJuS.s:21266  .debug_str:000000000000835e .LASF4235
C:\Users\SOLDER~1\AppData\Local\Temp\ccUIzJuS.s:23896  .debug_str:0000000000012f6c .LASF4236
C:\Users\SOLDER~1\AppData\Local\Temp\ccUIzJuS.s:20836  .debug_str:000000000000676f .LASF4237
C:\Users\SOLDER~1\AppData\Local\Temp\ccUIzJuS.s:19342  .debug_str:000000000000066d .LASF4238
C:\Users\SOLDER~1\AppData\Local\Temp\ccUIzJuS.s:20002  .debug_str:00000000000031aa .LASF4239
C:\Users\SOLDER~1\AppData\Local\Temp\ccUIzJuS.s:28120  .debug_str:0000000000024264 .LASF4240
C:\Users\SOLDER~1\AppData\Local\Temp\ccUIzJuS.s:19974  .debug_str:0000000000002fd5 .LASF4241
C:\Users\SOLDER~1\AppData\Local\Temp\ccUIzJuS.s:27056  .debug_str:000000000001fdec .LASF4242
C:\Users\SOLDER~1\AppData\Local\Temp\ccUIzJuS.s:22878  .debug_str:000000000000ed9c .LASF4243
C:\Users\SOLDER~1\AppData\Local\Temp\ccUIzJuS.s:21036  .debug_str:00000000000074a0 .LASF4244
C:\Users\SOLDER~1\AppData\Local\Temp\ccUIzJuS.s:27314  .debug_str:0000000000020e9a .LASF4245
C:\Users\SOLDER~1\AppData\Local\Temp\ccUIzJuS.s:19914  .debug_str:0000000000002bbe .LASF4246
C:\Users\SOLDER~1\AppData\Local\Temp\ccUIzJuS.s:26896  .debug_str:000000000001f35e .LASF4247
C:\Users\SOLDER~1\AppData\Local\Temp\ccUIzJuS.s:23346  .debug_str:0000000000010c0f .LASF4248
C:\Users\SOLDER~1\AppData\Local\Temp\ccUIzJuS.s:19774  .debug_str:00000000000022ff .LASF4249
C:\Users\SOLDER~1\AppData\Local\Temp\ccUIzJuS.s:24484  .debug_str:00000000000156f7 .LASF4250
C:\Users\SOLDER~1\AppData\Local\Temp\ccUIzJuS.s:27250  .debug_str:0000000000020a80 .LASF4251
C:\Users\SOLDER~1\AppData\Local\Temp\ccUIzJuS.s:29744  .debug_str:000000000002adcb .LASF4252
C:\Users\SOLDER~1\AppData\Local\Temp\ccUIzJuS.s:25040  .debug_str:0000000000017aa2 .LASF4253
C:\Users\SOLDER~1\AppData\Local\Temp\ccUIzJuS.s:24566  .debug_str:0000000000015c41 .LASF4254
C:\Users\SOLDER~1\AppData\Local\Temp\ccUIzJuS.s:22824  .debug_str:000000000000ea6c .LASF4255
C:\Users\SOLDER~1\AppData\Local\Temp\ccUIzJuS.s:29442  .debug_str:0000000000029a20 .LASF4256
C:\Users\SOLDER~1\AppData\Local\Temp\ccUIzJuS.s:20228  .debug_str:0000000000004044 .LASF4257
C:\Users\SOLDER~1\AppData\Local\Temp\ccUIzJuS.s:27310  .debug_str:0000000000020e5b .LASF4258
C:\Users\SOLDER~1\AppData\Local\Temp\ccUIzJuS.s:20734  .debug_str:0000000000006076 .LASF4259
C:\Users\SOLDER~1\AppData\Local\Temp\ccUIzJuS.s:23572  .debug_str:0000000000011a95 .LASF4260
C:\Users\SOLDER~1\AppData\Local\Temp\ccUIzJuS.s:25398  .debug_str:00000000000191e5 .LASF4261
C:\Users\SOLDER~1\AppData\Local\Temp\ccUIzJuS.s:28204  .debug_str:00000000000247ee .LASF4262
C:\Users\SOLDER~1\AppData\Local\Temp\ccUIzJuS.s:27476  .debug_str:00000000000218f8 .LASF4263
C:\Users\SOLDER~1\AppData\Local\Temp\ccUIzJuS.s:25704  .debug_str:000000000001a52d .LASF4264
C:\Users\SOLDER~1\AppData\Local\Temp\ccUIzJuS.s:28962  .debug_str:0000000000027ae2 .LASF4265
C:\Users\SOLDER~1\AppData\Local\Temp\ccUIzJuS.s:29784  .debug_str:000000000002b059 .LASF4266
C:\Users\SOLDER~1\AppData\Local\Temp\ccUIzJuS.s:29252  .debug_str:0000000000028ded .LASF4267
C:\Users\SOLDER~1\AppData\Local\Temp\ccUIzJuS.s:26474  .debug_str:000000000001d7e8 .LASF4268
C:\Users\SOLDER~1\AppData\Local\Temp\ccUIzJuS.s:19486  .debug_str:000000000000109e .LASF4269
C:\Users\SOLDER~1\AppData\Local\Temp\ccUIzJuS.s:27386  .debug_str:000000000002135c .LASF4270
C:\Users\SOLDER~1\AppData\Local\Temp\ccUIzJuS.s:21242  .debug_str:00000000000081ef .LASF4271
C:\Users\SOLDER~1\AppData\Local\Temp\ccUIzJuS.s:20480  .debug_str:0000000000005042 .LASF4272
C:\Users\SOLDER~1\AppData\Local\Temp\ccUIzJuS.s:28842  .debug_str:00000000000272d2 .LASF4273
C:\Users\SOLDER~1\AppData\Local\Temp\ccUIzJuS.s:19350  .debug_str:000000000000077b .LASF4274
C:\Users\SOLDER~1\AppData\Local\Temp\ccUIzJuS.s:28436  .debug_str:0000000000025713 .LASF4275
C:\Users\SOLDER~1\AppData\Local\Temp\ccUIzJuS.s:20276  .debug_str:000000000000434d .LASF4276
C:\Users\SOLDER~1\AppData\Local\Temp\ccUIzJuS.s:22542  .debug_str:000000000000d7b0 .LASF4277
C:\Users\SOLDER~1\AppData\Local\Temp\ccUIzJuS.s:21284  .debug_str:0000000000008479 .LASF4278
C:\Users\SOLDER~1\AppData\Local\Temp\ccUIzJuS.s:30034  .debug_str:000000000002c0a2 .LASF4279
C:\Users\SOLDER~1\AppData\Local\Temp\ccUIzJuS.s:23388  .debug_str:0000000000010eb5 .LASF4280
C:\Users\SOLDER~1\AppData\Local\Temp\ccUIzJuS.s:19306  .debug_str:0000000000000414 .LASF4281
C:\Users\SOLDER~1\AppData\Local\Temp\ccUIzJuS.s:21566  .debug_str:000000000000970b .LASF4282
C:\Users\SOLDER~1\AppData\Local\Temp\ccUIzJuS.s:24254  .debug_str:0000000000014811 .LASF4283
C:\Users\SOLDER~1\AppData\Local\Temp\ccUIzJuS.s:21030  .debug_str:0000000000007463 .LASF4284
C:\Users\SOLDER~1\AppData\Local\Temp\ccUIzJuS.s:22260  .debug_str:000000000000c4ab .LASF4285
C:\Users\SOLDER~1\AppData\Local\Temp\ccUIzJuS.s:28340  .debug_str:0000000000025126 .LASF4286
C:\Users\SOLDER~1\AppData\Local\Temp\ccUIzJuS.s:24164  .debug_str:00000000000141d0 .LASF4287
C:\Users\SOLDER~1\AppData\Local\Temp\ccUIzJuS.s:27572  .debug_str:0000000000021ece .LASF4288
C:\Users\SOLDER~1\AppData\Local\Temp\ccUIzJuS.s:26666  .debug_str:000000000001e406 .LASF4289
C:\Users\SOLDER~1\AppData\Local\Temp\ccUIzJuS.s:23392  .debug_str:0000000000010efc .LASF4290
GAS LISTING C:\Users\SOLDER~1\AppData\Local\Temp\ccUIzJuS.s 			page 104


C:\Users\SOLDER~1\AppData\Local\Temp\ccUIzJuS.s:24448  .debug_str:00000000000154a6 .LASF4291
C:\Users\SOLDER~1\AppData\Local\Temp\ccUIzJuS.s:19540  .debug_str:0000000000001417 .LASF4292
C:\Users\SOLDER~1\AppData\Local\Temp\ccUIzJuS.s:25532  .debug_str:0000000000019a45 .LASF4293
C:\Users\SOLDER~1\AppData\Local\Temp\ccUIzJuS.s:26124  .debug_str:000000000001c061 .LASF4294
C:\Users\SOLDER~1\AppData\Local\Temp\ccUIzJuS.s:27300  .debug_str:0000000000020d9f .LASF4295
C:\Users\SOLDER~1\AppData\Local\Temp\ccUIzJuS.s:28826  .debug_str:00000000000271c1 .LASF4296
C:\Users\SOLDER~1\AppData\Local\Temp\ccUIzJuS.s:22846  .debug_str:000000000000eb89 .LASF4297
C:\Users\SOLDER~1\AppData\Local\Temp\ccUIzJuS.s:23992  .debug_str:00000000000135ca .LASF4298
C:\Users\SOLDER~1\AppData\Local\Temp\ccUIzJuS.s:20546  .debug_str:0000000000005459 .LASF4299
C:\Users\SOLDER~1\AppData\Local\Temp\ccUIzJuS.s:19274  .debug_str:00000000000001da .LASF4300
C:\Users\SOLDER~1\AppData\Local\Temp\ccUIzJuS.s:21370  .debug_str:00000000000089fe .LASF4301
C:\Users\SOLDER~1\AppData\Local\Temp\ccUIzJuS.s:25148  .debug_str:00000000000181d6 .LASF4302
C:\Users\SOLDER~1\AppData\Local\Temp\ccUIzJuS.s:30492  .debug_str:000000000002de0c .LASF4303
C:\Users\SOLDER~1\AppData\Local\Temp\ccUIzJuS.s:19754  .debug_str:00000000000021a7 .LASF4304
C:\Users\SOLDER~1\AppData\Local\Temp\ccUIzJuS.s:24562  .debug_str:0000000000015bef .LASF4305
C:\Users\SOLDER~1\AppData\Local\Temp\ccUIzJuS.s:28630  .debug_str:00000000000264c4 .LASF4306
C:\Users\SOLDER~1\AppData\Local\Temp\ccUIzJuS.s:28324  .debug_str:000000000002500e .LASF4307
C:\Users\SOLDER~1\AppData\Local\Temp\ccUIzJuS.s:26838  .debug_str:000000000001ef5f .LASF4308
C:\Users\SOLDER~1\AppData\Local\Temp\ccUIzJuS.s:30610  .debug_str:000000000002e57e .LASF4309
C:\Users\SOLDER~1\AppData\Local\Temp\ccUIzJuS.s:22150  .debug_str:000000000000bd3f .LASF4310
C:\Users\SOLDER~1\AppData\Local\Temp\ccUIzJuS.s:23150  .debug_str:000000000000ff9e .LASF4311
C:\Users\SOLDER~1\AppData\Local\Temp\ccUIzJuS.s:25922  .debug_str:000000000001b36b .LASF4312
C:\Users\SOLDER~1\AppData\Local\Temp\ccUIzJuS.s:26018  .debug_str:000000000001b965 .LASF4313
C:\Users\SOLDER~1\AppData\Local\Temp\ccUIzJuS.s:19608  .debug_str:000000000000187f .LASF4314
C:\Users\SOLDER~1\AppData\Local\Temp\ccUIzJuS.s:24728  .debug_str:0000000000016698 .LASF4315
C:\Users\SOLDER~1\AppData\Local\Temp\ccUIzJuS.s:24348  .debug_str:0000000000014e60 .LASF4316
C:\Users\SOLDER~1\AppData\Local\Temp\ccUIzJuS.s:21148  .debug_str:0000000000007b7f .LASF4317
C:\Users\SOLDER~1\AppData\Local\Temp\ccUIzJuS.s:24616  .debug_str:0000000000015f73 .LASF4318
C:\Users\SOLDER~1\AppData\Local\Temp\ccUIzJuS.s:20724  .debug_str:0000000000005fb2 .LASF4319
C:\Users\SOLDER~1\AppData\Local\Temp\ccUIzJuS.s:29982  .debug_str:000000000002bd4d .LASF4320
C:\Users\SOLDER~1\AppData\Local\Temp\ccUIzJuS.s:29044  .debug_str:0000000000028057 .LASF4321
C:\Users\SOLDER~1\AppData\Local\Temp\ccUIzJuS.s:27530  .debug_str:0000000000021c50 .LASF4322
C:\Users\SOLDER~1\AppData\Local\Temp\ccUIzJuS.s:30196  .debug_str:000000000002cb02 .LASF4323
C:\Users\SOLDER~1\AppData\Local\Temp\ccUIzJuS.s:19700  .debug_str:0000000000001e53 .LASF4324
C:\Users\SOLDER~1\AppData\Local\Temp\ccUIzJuS.s:30574  .debug_str:000000000002e352 .LASF4325
C:\Users\SOLDER~1\AppData\Local\Temp\ccUIzJuS.s:23488  .debug_str:0000000000011539 .LASF4326
C:\Users\SOLDER~1\AppData\Local\Temp\ccUIzJuS.s:21194  .debug_str:0000000000007e9e .LASF4327
C:\Users\SOLDER~1\AppData\Local\Temp\ccUIzJuS.s:30472  .debug_str:000000000002dcce .LASF4328
C:\Users\SOLDER~1\AppData\Local\Temp\ccUIzJuS.s:27738  .debug_str:000000000002292e .LASF4329
C:\Users\SOLDER~1\AppData\Local\Temp\ccUIzJuS.s:26962  .debug_str:000000000001f7f2 .LASF4330
C:\Users\SOLDER~1\AppData\Local\Temp\ccUIzJuS.s:19892  .debug_str:0000000000002a93 .LASF4331
C:\Users\SOLDER~1\AppData\Local\Temp\ccUIzJuS.s:23940  .debug_str:0000000000013229 .LASF4332
C:\Users\SOLDER~1\AppData\Local\Temp\ccUIzJuS.s:26972  .debug_str:000000000001f88b .LASF4333
C:\Users\SOLDER~1\AppData\Local\Temp\ccUIzJuS.s:23738  .debug_str:00000000000124f5 .LASF4334
C:\Users\SOLDER~1\AppData\Local\Temp\ccUIzJuS.s:26294  .debug_str:000000000001cbfc .LASF4335
C:\Users\SOLDER~1\AppData\Local\Temp\ccUIzJuS.s:25854  .debug_str:000000000001af5f .LASF4336
C:\Users\SOLDER~1\AppData\Local\Temp\ccUIzJuS.s:20796  .debug_str:00000000000064b8 .LASF4337
C:\Users\SOLDER~1\AppData\Local\Temp\ccUIzJuS.s:26662  .debug_str:000000000001e3c9 .LASF4338
C:\Users\SOLDER~1\AppData\Local\Temp\ccUIzJuS.s:25542  .debug_str:0000000000019af2 .LASF4339
C:\Users\SOLDER~1\AppData\Local\Temp\ccUIzJuS.s:26230  .debug_str:000000000001c7a6 .LASF4340
C:\Users\SOLDER~1\AppData\Local\Temp\ccUIzJuS.s:25030  .debug_str:00000000000179f5 .LASF4341
C:\Users\SOLDER~1\AppData\Local\Temp\ccUIzJuS.s:26470  .debug_str:000000000001d7a8 .LASF4342
C:\Users\SOLDER~1\AppData\Local\Temp\ccUIzJuS.s:24840  .debug_str:0000000000016d61 .LASF4343
C:\Users\SOLDER~1\AppData\Local\Temp\ccUIzJuS.s:24934  .debug_str:0000000000017391 .LASF4344
C:\Users\SOLDER~1\AppData\Local\Temp\ccUIzJuS.s:28220  .debug_str:000000000002490b .LASF4345
C:\Users\SOLDER~1\AppData\Local\Temp\ccUIzJuS.s:23768  .debug_str:0000000000012720 .LASF4346
C:\Users\SOLDER~1\AppData\Local\Temp\ccUIzJuS.s:19994  .debug_str:0000000000003119 .LASF4347
GAS LISTING C:\Users\SOLDER~1\AppData\Local\Temp\ccUIzJuS.s 			page 105


C:\Users\SOLDER~1\AppData\Local\Temp\ccUIzJuS.s:28124  .debug_str:00000000000242a5 .LASF4348
C:\Users\SOLDER~1\AppData\Local\Temp\ccUIzJuS.s:29936  .debug_str:000000000002ba66 .LASF4349
C:\Users\SOLDER~1\AppData\Local\Temp\ccUIzJuS.s:27776  .debug_str:0000000000022bd7 .LASF4350
C:\Users\SOLDER~1\AppData\Local\Temp\ccUIzJuS.s:22896  .debug_str:000000000000eeca .LASF4351
C:\Users\SOLDER~1\AppData\Local\Temp\ccUIzJuS.s:24682  .debug_str:00000000000163cd .LASF4352
C:\Users\SOLDER~1\AppData\Local\Temp\ccUIzJuS.s:19940  .debug_str:0000000000002d7b .LASF4353
C:\Users\SOLDER~1\AppData\Local\Temp\ccUIzJuS.s:25560  .debug_str:0000000000019c2b .LASF4354
C:\Users\SOLDER~1\AppData\Local\Temp\ccUIzJuS.s:23938  .debug_str:0000000000013203 .LASF4355
C:\Users\SOLDER~1\AppData\Local\Temp\ccUIzJuS.s:25932  .debug_str:000000000001b412 .LASF4356
C:\Users\SOLDER~1\AppData\Local\Temp\ccUIzJuS.s:27884  .debug_str:00000000000232e0 .LASF4357
C:\Users\SOLDER~1\AppData\Local\Temp\ccUIzJuS.s:22624  .debug_str:000000000000dced .LASF4358
C:\Users\SOLDER~1\AppData\Local\Temp\ccUIzJuS.s:23002  .debug_str:000000000000f57d .LASF4359
C:\Users\SOLDER~1\AppData\Local\Temp\ccUIzJuS.s:29900  .debug_str:000000000002b801 .LASF4360
C:\Users\SOLDER~1\AppData\Local\Temp\ccUIzJuS.s:20020  .debug_str:00000000000032ba .LASF4361
C:\Users\SOLDER~1\AppData\Local\Temp\ccUIzJuS.s:21556  .debug_str:000000000000967f .LASF4362
C:\Users\SOLDER~1\AppData\Local\Temp\ccUIzJuS.s:20298  .debug_str:0000000000004497 .LASF4363
C:\Users\SOLDER~1\AppData\Local\Temp\ccUIzJuS.s:22152  .debug_str:000000000000bd58 .LASF4364
C:\Users\SOLDER~1\AppData\Local\Temp\ccUIzJuS.s:29852  .debug_str:000000000002b511 .LASF4365
C:\Users\SOLDER~1\AppData\Local\Temp\ccUIzJuS.s:24968  .debug_str:00000000000175c8 .LASF4366
C:\Users\SOLDER~1\AppData\Local\Temp\ccUIzJuS.s:30630  .debug_str:000000000002e6c9 .LASF4367
C:\Users\SOLDER~1\AppData\Local\Temp\ccUIzJuS.s:22254  .debug_str:000000000000c442 .LASF4368
C:\Users\SOLDER~1\AppData\Local\Temp\ccUIzJuS.s:27566  .debug_str:0000000000021e64 .LASF4369
C:\Users\SOLDER~1\AppData\Local\Temp\ccUIzJuS.s:28818  .debug_str:000000000002714a .LASF4370
C:\Users\SOLDER~1\AppData\Local\Temp\ccUIzJuS.s:21290  .debug_str:00000000000084cc .LASF4371
C:\Users\SOLDER~1\AppData\Local\Temp\ccUIzJuS.s:30366  .debug_str:000000000002d645 .LASF4372
C:\Users\SOLDER~1\AppData\Local\Temp\ccUIzJuS.s:24308  .debug_str:0000000000014bb6 .LASF4373
C:\Users\SOLDER~1\AppData\Local\Temp\ccUIzJuS.s:22592  .debug_str:000000000000daac .LASF4374
C:\Users\SOLDER~1\AppData\Local\Temp\ccUIzJuS.s:25408  .debug_str:0000000000019280 .LASF4375
C:\Users\SOLDER~1\AppData\Local\Temp\ccUIzJuS.s:24288  .debug_str:0000000000014a72 .LASF4376
C:\Users\SOLDER~1\AppData\Local\Temp\ccUIzJuS.s:25686  .debug_str:000000000001a3ce .LASF4377
C:\Users\SOLDER~1\AppData\Local\Temp\ccUIzJuS.s:22474  .debug_str:000000000000d327 .LASF4378
C:\Users\SOLDER~1\AppData\Local\Temp\ccUIzJuS.s:26448  .debug_str:000000000001d65f .LASF4379
C:\Users\SOLDER~1\AppData\Local\Temp\ccUIzJuS.s:28244  .debug_str:0000000000024a80 .LASF4380
C:\Users\SOLDER~1\AppData\Local\Temp\ccUIzJuS.s:21440  .debug_str:0000000000008e9e .LASF4381
C:\Users\SOLDER~1\AppData\Local\Temp\ccUIzJuS.s:21822  .debug_str:000000000000a81d .LASF4382
C:\Users\SOLDER~1\AppData\Local\Temp\ccUIzJuS.s:22370  .debug_str:000000000000cc4c .LASF4383
C:\Users\SOLDER~1\AppData\Local\Temp\ccUIzJuS.s:29396  .debug_str:0000000000029755 .LASF4384
C:\Users\SOLDER~1\AppData\Local\Temp\ccUIzJuS.s:25946  .debug_str:000000000001b4f6 .LASF4385
C:\Users\SOLDER~1\AppData\Local\Temp\ccUIzJuS.s:22544  .debug_str:000000000000d7cd .LASF4386
C:\Users\SOLDER~1\AppData\Local\Temp\ccUIzJuS.s:19406  .debug_str:0000000000000b55 .LASF4387
C:\Users\SOLDER~1\AppData\Local\Temp\ccUIzJuS.s:21408  .debug_str:0000000000008c59 .LASF4388
C:\Users\SOLDER~1\AppData\Local\Temp\ccUIzJuS.s:24186  .debug_str:000000000001438e .LASF4389
C:\Users\SOLDER~1\AppData\Local\Temp\ccUIzJuS.s:20318  .debug_str:0000000000004613 .LASF4390
C:\Users\SOLDER~1\AppData\Local\Temp\ccUIzJuS.s:20374  .debug_str:00000000000049bb .LASF4391
C:\Users\SOLDER~1\AppData\Local\Temp\ccUIzJuS.s:30390  .debug_str:000000000002d7a2 .LASF4392
C:\Users\SOLDER~1\AppData\Local\Temp\ccUIzJuS.s:25278  .debug_str:0000000000018a01 .LASF4393
C:\Users\SOLDER~1\AppData\Local\Temp\ccUIzJuS.s:30512  .debug_str:000000000002df76 .LASF4394
C:\Users\SOLDER~1\AppData\Local\Temp\ccUIzJuS.s:24720  .debug_str:000000000001661d .LASF4395
C:\Users\SOLDER~1\AppData\Local\Temp\ccUIzJuS.s:22456  .debug_str:000000000000d1ec .LASF4396
C:\Users\SOLDER~1\AppData\Local\Temp\ccUIzJuS.s:22048  .debug_str:000000000000b689 .LASF4397
C:\Users\SOLDER~1\AppData\Local\Temp\ccUIzJuS.s:29144  .debug_str:00000000000286e3 .LASF4398
C:\Users\SOLDER~1\AppData\Local\Temp\ccUIzJuS.s:20496  .debug_str:000000000000512b .LASF4399
C:\Users\SOLDER~1\AppData\Local\Temp\ccUIzJuS.s:24100  .debug_str:0000000000013d83 .LASF4400
C:\Users\SOLDER~1\AppData\Local\Temp\ccUIzJuS.s:25578  .debug_str:0000000000019d47 .LASF4401
C:\Users\SOLDER~1\AppData\Local\Temp\ccUIzJuS.s:25500  .debug_str:0000000000019875 .LASF4402
C:\Users\SOLDER~1\AppData\Local\Temp\ccUIzJuS.s:26358  .debug_str:000000000001d044 .LASF4403
C:\Users\SOLDER~1\AppData\Local\Temp\ccUIzJuS.s:24154  .debug_str:0000000000014121 .LASF4404
GAS LISTING C:\Users\SOLDER~1\AppData\Local\Temp\ccUIzJuS.s 			page 106


C:\Users\SOLDER~1\AppData\Local\Temp\ccUIzJuS.s:27606  .debug_str:00000000000220ce .LASF4405
C:\Users\SOLDER~1\AppData\Local\Temp\ccUIzJuS.s:28442  .debug_str:0000000000025775 .LASF4406
C:\Users\SOLDER~1\AppData\Local\Temp\ccUIzJuS.s:23270  .debug_str:0000000000010717 .LASF4407
C:\Users\SOLDER~1\AppData\Local\Temp\ccUIzJuS.s:24754  .debug_str:0000000000016801 .LASF4408
C:\Users\SOLDER~1\AppData\Local\Temp\ccUIzJuS.s:27468  .debug_str:0000000000021867 .LASF4409
C:\Users\SOLDER~1\AppData\Local\Temp\ccUIzJuS.s:25090  .debug_str:0000000000017dc1 .LASF4410
C:\Users\SOLDER~1\AppData\Local\Temp\ccUIzJuS.s:28188  .debug_str:00000000000246e5 .LASF4411
C:\Users\SOLDER~1\AppData\Local\Temp\ccUIzJuS.s:28024  .debug_str:0000000000023bf5 .LASF4412
C:\Users\SOLDER~1\AppData\Local\Temp\ccUIzJuS.s:28564  .debug_str:0000000000026007 .LASF4413
C:\Users\SOLDER~1\AppData\Local\Temp\ccUIzJuS.s:23264  .debug_str:00000000000106c2 .LASF4414
C:\Users\SOLDER~1\AppData\Local\Temp\ccUIzJuS.s:23312  .debug_str:0000000000010a07 .LASF4415
C:\Users\SOLDER~1\AppData\Local\Temp\ccUIzJuS.s:19830  .debug_str:0000000000002691 .LASF4416
C:\Users\SOLDER~1\AppData\Local\Temp\ccUIzJuS.s:24874  .debug_str:0000000000016f89 .LASF4417
C:\Users\SOLDER~1\AppData\Local\Temp\ccUIzJuS.s:20196  .debug_str:0000000000003e38 .LASF4418
C:\Users\SOLDER~1\AppData\Local\Temp\ccUIzJuS.s:19834  .debug_str:00000000000026d8 .LASF4419
C:\Users\SOLDER~1\AppData\Local\Temp\ccUIzJuS.s:21758  .debug_str:000000000000a3a1 .LASF4420
C:\Users\SOLDER~1\AppData\Local\Temp\ccUIzJuS.s:26378  .debug_str:000000000001d16d .LASF4421
C:\Users\SOLDER~1\AppData\Local\Temp\ccUIzJuS.s:25520  .debug_str:0000000000019987 .LASF4422
C:\Users\SOLDER~1\AppData\Local\Temp\ccUIzJuS.s:23646  .debug_str:0000000000011f2c .LASF4423
C:\Users\SOLDER~1\AppData\Local\Temp\ccUIzJuS.s:26530  .debug_str:000000000001db30 .LASF4424
C:\Users\SOLDER~1\AppData\Local\Temp\ccUIzJuS.s:20714  .debug_str:0000000000005f0f .LASF4425
C:\Users\SOLDER~1\AppData\Local\Temp\ccUIzJuS.s:24274  .debug_str:0000000000014967 .LASF4426
C:\Users\SOLDER~1\AppData\Local\Temp\ccUIzJuS.s:27242  .debug_str:00000000000209f6 .LASF4427
C:\Users\SOLDER~1\AppData\Local\Temp\ccUIzJuS.s:30706  .debug_str:000000000002ebd8 .LASF4428
C:\Users\SOLDER~1\AppData\Local\Temp\ccUIzJuS.s:25776  .debug_str:000000000001aa1d .LASF4429
C:\Users\SOLDER~1\AppData\Local\Temp\ccUIzJuS.s:30434  .debug_str:000000000002da88 .LASF4430
C:\Users\SOLDER~1\AppData\Local\Temp\ccUIzJuS.s:29452  .debug_str:0000000000029ac1 .LASF4431
C:\Users\SOLDER~1\AppData\Local\Temp\ccUIzJuS.s:25526  .debug_str:00000000000199f2 .LASF4432
C:\Users\SOLDER~1\AppData\Local\Temp\ccUIzJuS.s:25786  .debug_str:000000000001aaa8 .LASF4433
C:\Users\SOLDER~1\AppData\Local\Temp\ccUIzJuS.s:23500  .debug_str:000000000001161c .LASF4434
C:\Users\SOLDER~1\AppData\Local\Temp\ccUIzJuS.s:30252  .debug_str:000000000002ce8e .LASF4435
C:\Users\SOLDER~1\AppData\Local\Temp\ccUIzJuS.s:25494  .debug_str:0000000000019826 .LASF4436
C:\Users\SOLDER~1\AppData\Local\Temp\ccUIzJuS.s:29120  .debug_str:0000000000028561 .LASF4437
C:\Users\SOLDER~1\AppData\Local\Temp\ccUIzJuS.s:27774  .debug_str:0000000000022bc3 .LASF4438
C:\Users\SOLDER~1\AppData\Local\Temp\ccUIzJuS.s:23034  .debug_str:000000000000f78b .LASF4439
C:\Users\SOLDER~1\AppData\Local\Temp\ccUIzJuS.s:28398  .debug_str:00000000000254cb .LASF4440
C:\Users\SOLDER~1\AppData\Local\Temp\ccUIzJuS.s:24822  .debug_str:0000000000016c7a .LASF4441
C:\Users\SOLDER~1\AppData\Local\Temp\ccUIzJuS.s:29200  .debug_str:0000000000028ac3 .LASF4442
C:\Users\SOLDER~1\AppData\Local\Temp\ccUIzJuS.s:24730  .debug_str:00000000000166ba .LASF4443
C:\Users\SOLDER~1\AppData\Local\Temp\ccUIzJuS.s:22164  .debug_str:000000000000be0e .LASF4444
C:\Users\SOLDER~1\AppData\Local\Temp\ccUIzJuS.s:24518  .debug_str:0000000000015936 .LASF4445
C:\Users\SOLDER~1\AppData\Local\Temp\ccUIzJuS.s:25280  .debug_str:0000000000018a21 .LASF4446
C:\Users\SOLDER~1\AppData\Local\Temp\ccUIzJuS.s:22350  .debug_str:000000000000caf3 .LASF4447
C:\Users\SOLDER~1\AppData\Local\Temp\ccUIzJuS.s:26104  .debug_str:000000000001bf1c .LASF4448
C:\Users\SOLDER~1\AppData\Local\Temp\ccUIzJuS.s:27596  .debug_str:0000000000022032 .LASF4449
C:\Users\SOLDER~1\AppData\Local\Temp\ccUIzJuS.s:29300  .debug_str:00000000000290f7 .LASF4450
C:\Users\SOLDER~1\AppData\Local\Temp\ccUIzJuS.s:27342  .debug_str:0000000000021046 .LASF4451
C:\Users\SOLDER~1\AppData\Local\Temp\ccUIzJuS.s:25880  .debug_str:000000000001b0fd .LASF4452
C:\Users\SOLDER~1\AppData\Local\Temp\ccUIzJuS.s:24034  .debug_str:0000000000013885 .LASF4453
C:\Users\SOLDER~1\AppData\Local\Temp\ccUIzJuS.s:26342  .debug_str:000000000001cf46 .LASF4454
C:\Users\SOLDER~1\AppData\Local\Temp\ccUIzJuS.s:23672  .debug_str:00000000000120ea .LASF4455
C:\Users\SOLDER~1\AppData\Local\Temp\ccUIzJuS.s:28736  .debug_str:0000000000026be6 .LASF4456
C:\Users\SOLDER~1\AppData\Local\Temp\ccUIzJuS.s:23130  .debug_str:000000000000fe61 .LASF4457
C:\Users\SOLDER~1\AppData\Local\Temp\ccUIzJuS.s:29560  .debug_str:000000000002a1e8 .LASF4458
C:\Users\SOLDER~1\AppData\Local\Temp\ccUIzJuS.s:28432  .debug_str:00000000000256d6 .LASF4459
C:\Users\SOLDER~1\AppData\Local\Temp\ccUIzJuS.s:29486  .debug_str:0000000000029cd8 .LASF4460
C:\Users\SOLDER~1\AppData\Local\Temp\ccUIzJuS.s:23566  .debug_str:0000000000011a3f .LASF4461
GAS LISTING C:\Users\SOLDER~1\AppData\Local\Temp\ccUIzJuS.s 			page 107


C:\Users\SOLDER~1\AppData\Local\Temp\ccUIzJuS.s:24880  .debug_str:0000000000016ff3 .LASF4462
C:\Users\SOLDER~1\AppData\Local\Temp\ccUIzJuS.s:25710  .debug_str:000000000001a593 .LASF4463
C:\Users\SOLDER~1\AppData\Local\Temp\ccUIzJuS.s:28014  .debug_str:0000000000023b4c .LASF4464
C:\Users\SOLDER~1\AppData\Local\Temp\ccUIzJuS.s:26078  .debug_str:000000000001bd44 .LASF4465
C:\Users\SOLDER~1\AppData\Local\Temp\ccUIzJuS.s:25684  .debug_str:000000000001a3b7 .LASF4466
C:\Users\SOLDER~1\AppData\Local\Temp\ccUIzJuS.s:25380  .debug_str:00000000000190df .LASF4467
C:\Users\SOLDER~1\AppData\Local\Temp\ccUIzJuS.s:26254  .debug_str:000000000001c936 .LASF4468
C:\Users\SOLDER~1\AppData\Local\Temp\ccUIzJuS.s:24800  .debug_str:0000000000016b14 .LASF4469
C:\Users\SOLDER~1\AppData\Local\Temp\ccUIzJuS.s:29202  .debug_str:0000000000028ad4 .LASF4470
C:\Users\SOLDER~1\AppData\Local\Temp\ccUIzJuS.s:29970  .debug_str:000000000002bc8c .LASF4471
C:\Users\SOLDER~1\AppData\Local\Temp\ccUIzJuS.s:20432  .debug_str:0000000000004d69 .LASF4472
C:\Users\SOLDER~1\AppData\Local\Temp\ccUIzJuS.s:30364  .debug_str:000000000002d62e .LASF4473
C:\Users\SOLDER~1\AppData\Local\Temp\ccUIzJuS.s:28350  .debug_str:00000000000251b4 .LASF4474
C:\Users\SOLDER~1\AppData\Local\Temp\ccUIzJuS.s:29646  .debug_str:000000000002a793 .LASF4475
C:\Users\SOLDER~1\AppData\Local\Temp\ccUIzJuS.s:24964  .debug_str:0000000000017597 .LASF4476
C:\Users\SOLDER~1\AppData\Local\Temp\ccUIzJuS.s:26540  .debug_str:000000000001dbd0 .LASF4477
C:\Users\SOLDER~1\AppData\Local\Temp\ccUIzJuS.s:28846  .debug_str:000000000002730c .LASF4478
C:\Users\SOLDER~1\AppData\Local\Temp\ccUIzJuS.s:27552  .debug_str:0000000000021d91 .LASF4479
C:\Users\SOLDER~1\AppData\Local\Temp\ccUIzJuS.s:27484  .debug_str:000000000002196b .LASF4480
C:\Users\SOLDER~1\AppData\Local\Temp\ccUIzJuS.s:23522  .debug_str:0000000000011750 .LASF4481
C:\Users\SOLDER~1\AppData\Local\Temp\ccUIzJuS.s:30530  .debug_str:000000000002e0ae .LASF4482
C:\Users\SOLDER~1\AppData\Local\Temp\ccUIzJuS.s:21778  .debug_str:000000000000a4e1 .LASF4483
C:\Users\SOLDER~1\AppData\Local\Temp\ccUIzJuS.s:29544  .debug_str:000000000002a0cb .LASF4484
C:\Users\SOLDER~1\AppData\Local\Temp\ccUIzJuS.s:20916  .debug_str:0000000000006c97 .LASF4485
C:\Users\SOLDER~1\AppData\Local\Temp\ccUIzJuS.s:25996  .debug_str:000000000001b824 .LASF4486
C:\Users\SOLDER~1\AppData\Local\Temp\ccUIzJuS.s:30312  .debug_str:000000000002d2aa .LASF4487
C:\Users\SOLDER~1\AppData\Local\Temp\ccUIzJuS.s:29876  .debug_str:000000000002b67b .LASF4488
C:\Users\SOLDER~1\AppData\Local\Temp\ccUIzJuS.s:25894  .debug_str:000000000001b1b4 .LASF4489
C:\Users\SOLDER~1\AppData\Local\Temp\ccUIzJuS.s:24024  .debug_str:00000000000137f5 .LASF4490
C:\Users\SOLDER~1\AppData\Local\Temp\ccUIzJuS.s:24596  .debug_str:0000000000015e30 .LASF4491
C:\Users\SOLDER~1\AppData\Local\Temp\ccUIzJuS.s:23780  .debug_str:00000000000127d8 .LASF4492
C:\Users\SOLDER~1\AppData\Local\Temp\ccUIzJuS.s:29726  .debug_str:000000000002ac7d .LASF4493
C:\Users\SOLDER~1\AppData\Local\Temp\ccUIzJuS.s:24892  .debug_str:00000000000170af .LASF4494
C:\Users\SOLDER~1\AppData\Local\Temp\ccUIzJuS.s:28458  .debug_str:000000000002588f .LASF4495
C:\Users\SOLDER~1\AppData\Local\Temp\ccUIzJuS.s:25028  .debug_str:00000000000179bc .LASF4496
C:\Users\SOLDER~1\AppData\Local\Temp\ccUIzJuS.s:27214  .debug_str:000000000002081b .LASF4497
C:\Users\SOLDER~1\AppData\Local\Temp\ccUIzJuS.s:30394  .debug_str:000000000002d7d1 .LASF4498
C:\Users\SOLDER~1\AppData\Local\Temp\ccUIzJuS.s:24298  .debug_str:0000000000014b0e .LASF4499
C:\Users\SOLDER~1\AppData\Local\Temp\ccUIzJuS.s:25436  .debug_str:0000000000019453 .LASF4500
C:\Users\SOLDER~1\AppData\Local\Temp\ccUIzJuS.s:26616  .debug_str:000000000001e0e4 .LASF4501
C:\Users\SOLDER~1\AppData\Local\Temp\ccUIzJuS.s:27702  .debug_str:00000000000226c9 .LASF4502
C:\Users\SOLDER~1\AppData\Local\Temp\ccUIzJuS.s:26150  .debug_str:000000000001c211 .LASF4503
C:\Users\SOLDER~1\AppData\Local\Temp\ccUIzJuS.s:28944  .debug_str:00000000000279ab .LASF4504
C:\Users\SOLDER~1\AppData\Local\Temp\ccUIzJuS.s:27744  .debug_str:0000000000022993 .LASF4505
C:\Users\SOLDER~1\AppData\Local\Temp\ccUIzJuS.s:19660  .debug_str:0000000000001ba7 .LASF4506
C:\Users\SOLDER~1\AppData\Local\Temp\ccUIzJuS.s:28490  .debug_str:0000000000025aeb .LASF4507
C:\Users\SOLDER~1\AppData\Local\Temp\ccUIzJuS.s:20824  .debug_str:000000000000667d .LASF4508
C:\Users\SOLDER~1\AppData\Local\Temp\ccUIzJuS.s:23478  .debug_str:000000000001146c .LASF4509
C:\Users\SOLDER~1\AppData\Local\Temp\ccUIzJuS.s:25962  .debug_str:000000000001b614 .LASF4510
C:\Users\SOLDER~1\AppData\Local\Temp\ccUIzJuS.s:20188  .debug_str:0000000000003dab .LASF4511
C:\Users\SOLDER~1\AppData\Local\Temp\ccUIzJuS.s:27480  .debug_str:0000000000021934 .LASF4512
C:\Users\SOLDER~1\AppData\Local\Temp\ccUIzJuS.s:27548  .debug_str:0000000000021d5b .LASF4513
C:\Users\SOLDER~1\AppData\Local\Temp\ccUIzJuS.s:27070  .debug_str:000000000001fece .LASF4514
C:\Users\SOLDER~1\AppData\Local\Temp\ccUIzJuS.s:21640  .debug_str:0000000000009bd4 .LASF4515
C:\Users\SOLDER~1\AppData\Local\Temp\ccUIzJuS.s:24454  .debug_str:0000000000015516 .LASF4516
C:\Users\SOLDER~1\AppData\Local\Temp\ccUIzJuS.s:26924  .debug_str:000000000001f530 .LASF4517
C:\Users\SOLDER~1\AppData\Local\Temp\ccUIzJuS.s:30754  .debug_str:000000000002eec2 .LASF4518
GAS LISTING C:\Users\SOLDER~1\AppData\Local\Temp\ccUIzJuS.s 			page 108


C:\Users\SOLDER~1\AppData\Local\Temp\ccUIzJuS.s:26670  .debug_str:000000000001e441 .LASF4519
C:\Users\SOLDER~1\AppData\Local\Temp\ccUIzJuS.s:19532  .debug_str:0000000000001379 .LASF4520
C:\Users\SOLDER~1\AppData\Local\Temp\ccUIzJuS.s:23236  .debug_str:0000000000010530 .LASF4521
C:\Users\SOLDER~1\AppData\Local\Temp\ccUIzJuS.s:22346  .debug_str:000000000000cab7 .LASF4522
C:\Users\SOLDER~1\AppData\Local\Temp\ccUIzJuS.s:28368  .debug_str:00000000000252b6 .LASF4523
C:\Users\SOLDER~1\AppData\Local\Temp\ccUIzJuS.s:22534  .debug_str:000000000000d72d .LASF4524
C:\Users\SOLDER~1\AppData\Local\Temp\ccUIzJuS.s:29946  .debug_str:000000000002bb02 .LASF4525
C:\Users\SOLDER~1\AppData\Local\Temp\ccUIzJuS.s:25362  .debug_str:0000000000018fa7 .LASF4526
C:\Users\SOLDER~1\AppData\Local\Temp\ccUIzJuS.s:24386  .debug_str:000000000001509a .LASF4527
C:\Users\SOLDER~1\AppData\Local\Temp\ccUIzJuS.s:28314  .debug_str:0000000000024f6a .LASF4528
C:\Users\SOLDER~1\AppData\Local\Temp\ccUIzJuS.s:29816  .debug_str:000000000002b25a .LASF4529
C:\Users\SOLDER~1\AppData\Local\Temp\ccUIzJuS.s:22040  .debug_str:000000000000b61d .LASF4530
C:\Users\SOLDER~1\AppData\Local\Temp\ccUIzJuS.s:28248  .debug_str:0000000000024ac3 .LASF4531
C:\Users\SOLDER~1\AppData\Local\Temp\ccUIzJuS.s:27892  .debug_str:000000000002335a .LASF4532
C:\Users\SOLDER~1\AppData\Local\Temp\ccUIzJuS.s:26392  .debug_str:000000000001d285 .LASF4533
C:\Users\SOLDER~1\AppData\Local\Temp\ccUIzJuS.s:28562  .debug_str:0000000000025fce .LASF4534
C:\Users\SOLDER~1\AppData\Local\Temp\ccUIzJuS.s:30032  .debug_str:000000000002c069 .LASF4535
C:\Users\SOLDER~1\AppData\Local\Temp\ccUIzJuS.s:24708  .debug_str:0000000000016560 .LASF4536
C:\Users\SOLDER~1\AppData\Local\Temp\ccUIzJuS.s:20382  .debug_str:0000000000004a32 .LASF4537
C:\Users\SOLDER~1\AppData\Local\Temp\ccUIzJuS.s:22956  .debug_str:000000000000f276 .LASF4538
C:\Users\SOLDER~1\AppData\Local\Temp\ccUIzJuS.s:23956  .debug_str:0000000000013359 .LASF4539
C:\Users\SOLDER~1\AppData\Local\Temp\ccUIzJuS.s:26252  .debug_str:000000000001c8fb .LASF4540
C:\Users\SOLDER~1\AppData\Local\Temp\ccUIzJuS.s:26222  .debug_str:000000000001c6f4 .LASF4541
C:\Users\SOLDER~1\AppData\Local\Temp\ccUIzJuS.s:24166  .debug_str:00000000000141f2 .LASF4542
C:\Users\SOLDER~1\AppData\Local\Temp\ccUIzJuS.s:20170  .debug_str:0000000000003c6e .LASF4543
C:\Users\SOLDER~1\AppData\Local\Temp\ccUIzJuS.s:30058  .debug_str:000000000002c24a .LASF4544
C:\Users\SOLDER~1\AppData\Local\Temp\ccUIzJuS.s:28252  .debug_str:0000000000024b1f .LASF4545
C:\Users\SOLDER~1\AppData\Local\Temp\ccUIzJuS.s:22682  .debug_str:000000000000e0f0 .LASF4546
C:\Users\SOLDER~1\AppData\Local\Temp\ccUIzJuS.s:20828  .debug_str:00000000000066db .LASF4547
C:\Users\SOLDER~1\AppData\Local\Temp\ccUIzJuS.s:20886  .debug_str:0000000000006ac9 .LASF4548
C:\Users\SOLDER~1\AppData\Local\Temp\ccUIzJuS.s:23930  .debug_str:000000000001318f .LASF4549
C:\Users\SOLDER~1\AppData\Local\Temp\ccUIzJuS.s:19836  .debug_str:0000000000002701 .LASF4550
C:\Users\SOLDER~1\AppData\Local\Temp\ccUIzJuS.s:26120  .debug_str:000000000001c037 .LASF4551
C:\Users\SOLDER~1\AppData\Local\Temp\ccUIzJuS.s:25224  .debug_str:00000000000186a1 .LASF4552
C:\Users\SOLDER~1\AppData\Local\Temp\ccUIzJuS.s:29408  .debug_str:0000000000029835 .LASF4553
C:\Users\SOLDER~1\AppData\Local\Temp\ccUIzJuS.s:19258  .debug_str:000000000000010c .LASF4554
C:\Users\SOLDER~1\AppData\Local\Temp\ccUIzJuS.s:27536  .debug_str:0000000000021ca7 .LASF4555
C:\Users\SOLDER~1\AppData\Local\Temp\ccUIzJuS.s:27284  .debug_str:0000000000020cba .LASF4556
C:\Users\SOLDER~1\AppData\Local\Temp\ccUIzJuS.s:25202  .debug_str:0000000000018539 .LASF4557
C:\Users\SOLDER~1\AppData\Local\Temp\ccUIzJuS.s:29926  .debug_str:000000000002b9c3 .LASF4558
C:\Users\SOLDER~1\AppData\Local\Temp\ccUIzJuS.s:23172  .debug_str:00000000000100df .LASF4559
C:\Users\SOLDER~1\AppData\Local\Temp\ccUIzJuS.s:23266  .debug_str:00000000000106e3 .LASF4560
C:\Users\SOLDER~1\AppData\Local\Temp\ccUIzJuS.s:23366  .debug_str:0000000000010d4d .LASF4561
C:\Users\SOLDER~1\AppData\Local\Temp\ccUIzJuS.s:23512  .debug_str:00000000000116d6 .LASF4562
C:\Users\SOLDER~1\AppData\Local\Temp\ccUIzJuS.s:23240  .debug_str:0000000000010573 .LASF4563
C:\Users\SOLDER~1\AppData\Local\Temp\ccUIzJuS.s:21680  .debug_str:0000000000009e74 .LASF4564
C:\Users\SOLDER~1\AppData\Local\Temp\ccUIzJuS.s:21054  .debug_str:00000000000075b6 .LASF4565
C:\Users\SOLDER~1\AppData\Local\Temp\ccUIzJuS.s:20338  .debug_str:0000000000004771 .LASF4566
C:\Users\SOLDER~1\AppData\Local\Temp\ccUIzJuS.s:23688  .debug_str:00000000000121e4 .LASF4567
C:\Users\SOLDER~1\AppData\Local\Temp\ccUIzJuS.s:28896  .debug_str:0000000000027670 .LASF4568
C:\Users\SOLDER~1\AppData\Local\Temp\ccUIzJuS.s:24672  .debug_str:000000000001631a .LASF4569
C:\Users\SOLDER~1\AppData\Local\Temp\ccUIzJuS.s:26372  .debug_str:000000000001d112 .LASF4570
C:\Users\SOLDER~1\AppData\Local\Temp\ccUIzJuS.s:26560  .debug_str:000000000001dd2f .LASF4571
C:\Users\SOLDER~1\AppData\Local\Temp\ccUIzJuS.s:23400  .debug_str:0000000000010f7a .LASF4572
C:\Users\SOLDER~1\AppData\Local\Temp\ccUIzJuS.s:24990  .debug_str:000000000001773f .LASF4573
C:\Users\SOLDER~1\AppData\Local\Temp\ccUIzJuS.s:29930  .debug_str:000000000002ba10 .LASF4574
C:\Users\SOLDER~1\AppData\Local\Temp\ccUIzJuS.s:26552  .debug_str:000000000001dca1 .LASF4575
GAS LISTING C:\Users\SOLDER~1\AppData\Local\Temp\ccUIzJuS.s 			page 109


C:\Users\SOLDER~1\AppData\Local\Temp\ccUIzJuS.s:19808  .debug_str:0000000000002563 .LASF4576
C:\Users\SOLDER~1\AppData\Local\Temp\ccUIzJuS.s:21874  .debug_str:000000000000ab6d .LASF4577
C:\Users\SOLDER~1\AppData\Local\Temp\ccUIzJuS.s:21832  .debug_str:000000000000a8b9 .LASF4578
C:\Users\SOLDER~1\AppData\Local\Temp\ccUIzJuS.s:26134  .debug_str:000000000001c112 .LASF4579
C:\Users\SOLDER~1\AppData\Local\Temp\ccUIzJuS.s:23314  .debug_str:0000000000010a27 .LASF4580
C:\Users\SOLDER~1\AppData\Local\Temp\ccUIzJuS.s:26048  .debug_str:000000000001bb76 .LASF4581
C:\Users\SOLDER~1\AppData\Local\Temp\ccUIzJuS.s:28954  .debug_str:0000000000027a56 .LASF4582
C:\Users\SOLDER~1\AppData\Local\Temp\ccUIzJuS.s:22190  .debug_str:000000000000bfb9 .LASF4583
C:\Users\SOLDER~1\AppData\Local\Temp\ccUIzJuS.s:21076  .debug_str:000000000000770a .LASF4584
C:\Users\SOLDER~1\AppData\Local\Temp\ccUIzJuS.s:25058  .debug_str:0000000000017ba8 .LASF4585
C:\Users\SOLDER~1\AppData\Local\Temp\ccUIzJuS.s:25984  .debug_str:000000000001b776 .LASF4586
C:\Users\SOLDER~1\AppData\Local\Temp\ccUIzJuS.s:20602  .debug_str:00000000000057d1 .LASF4587
C:\Users\SOLDER~1\AppData\Local\Temp\ccUIzJuS.s:21174  .debug_str:0000000000007d56 .LASF4588
C:\Users\SOLDER~1\AppData\Local\Temp\ccUIzJuS.s:21378  .debug_str:0000000000008a78 .LASF4589
C:\Users\SOLDER~1\AppData\Local\Temp\ccUIzJuS.s:26702  .debug_str:000000000001e642 .LASF4590
C:\Users\SOLDER~1\AppData\Local\Temp\ccUIzJuS.s:30232  .debug_str:000000000002cd42 .LASF4591
C:\Users\SOLDER~1\AppData\Local\Temp\ccUIzJuS.s:21094  .debug_str:00000000000077f4 .LASF4594
C:\Users\SOLDER~1\AppData\Local\Temp\ccUIzJuS.s:25748  .debug_str:000000000001a828 .LASF4595
C:\Users\SOLDER~1\AppData\Local\Temp\ccUIzJuS.s:24048  .debug_str:00000000000139ae .LASF4596
C:\Users\SOLDER~1\AppData\Local\Temp\ccUIzJuS.s:25830  .debug_str:000000000001ad99 .LASF4597
C:\Users\SOLDER~1\AppData\Local\Temp\ccUIzJuS.s:27490  .debug_str:00000000000219b7 .LASF4598
C:\Users\SOLDER~1\AppData\Local\Temp\ccUIzJuS.s:24440  .debug_str:0000000000015414 .LASF4599
C:\Users\SOLDER~1\AppData\Local\Temp\ccUIzJuS.s:29838  .debug_str:000000000002b420 .LASF4600
C:\Users\SOLDER~1\AppData\Local\Temp\ccUIzJuS.s:24784  .debug_str:00000000000169f4 .LASF4601
C:\Users\SOLDER~1\AppData\Local\Temp\ccUIzJuS.s:22382  .debug_str:000000000000cd08 .LASF4602
C:\Users\SOLDER~1\AppData\Local\Temp\ccUIzJuS.s:24168  .debug_str:000000000001422c .LASF4603
C:\Users\SOLDER~1\AppData\Local\Temp\ccUIzJuS.s:23038  .debug_str:000000000000f7c1 .LASF4604
C:\Users\SOLDER~1\AppData\Local\Temp\ccUIzJuS.s:29554  .debug_str:000000000002a164 .LASF4605
C:\Users\SOLDER~1\AppData\Local\Temp\ccUIzJuS.s:29026  .debug_str:0000000000027f1a .LASF4606
C:\Users\SOLDER~1\AppData\Local\Temp\ccUIzJuS.s:28022  .debug_str:0000000000023bc1 .LASF4607
C:\Users\SOLDER~1\AppData\Local\Temp\ccUIzJuS.s:21768  .debug_str:000000000000a43b .LASF4608
C:\Users\SOLDER~1\AppData\Local\Temp\ccUIzJuS.s:23942  .debug_str:0000000000013241 .LASF4609
C:\Users\SOLDER~1\AppData\Local\Temp\ccUIzJuS.s:28008  .debug_str:0000000000023acf .LASF4610
C:\Users\SOLDER~1\AppData\Local\Temp\ccUIzJuS.s:20948  .debug_str:0000000000006ec4 .LASF4611
C:\Users\SOLDER~1\AppData\Local\Temp\ccUIzJuS.s:26946  .debug_str:000000000001f6d2 .LASF4612
C:\Users\SOLDER~1\AppData\Local\Temp\ccUIzJuS.s:20174  .debug_str:0000000000003cb8 .LASF4613
C:\Users\SOLDER~1\AppData\Local\Temp\ccUIzJuS.s:28670  .debug_str:0000000000026746 .LASF4614
C:\Users\SOLDER~1\AppData\Local\Temp\ccUIzJuS.s:21368  .debug_str:00000000000089ca .LASF4615
C:\Users\SOLDER~1\AppData\Local\Temp\ccUIzJuS.s:28724  .debug_str:0000000000026af0 .LASF4616
C:\Users\SOLDER~1\AppData\Local\Temp\ccUIzJuS.s:20956  .debug_str:0000000000006f70 .LASF4617
C:\Users\SOLDER~1\AppData\Local\Temp\ccUIzJuS.s:19918  .debug_str:0000000000002bfb .LASF4618
C:\Users\SOLDER~1\AppData\Local\Temp\ccUIzJuS.s:21980  .debug_str:000000000000b20b .LASF4619
C:\Users\SOLDER~1\AppData\Local\Temp\ccUIzJuS.s:22098  .debug_str:000000000000b9c3 .LASF4620
C:\Users\SOLDER~1\AppData\Local\Temp\ccUIzJuS.s:28154  .debug_str:000000000002448f .LASF4621
C:\Users\SOLDER~1\AppData\Local\Temp\ccUIzJuS.s:29298  .debug_str:00000000000290d9 .LASF4622
C:\Users\SOLDER~1\AppData\Local\Temp\ccUIzJuS.s:25146  .debug_str:00000000000181b8 .LASF4623
C:\Users\SOLDER~1\AppData\Local\Temp\ccUIzJuS.s:23168  .debug_str:00000000000100af .LASF4624
C:\Users\SOLDER~1\AppData\Local\Temp\ccUIzJuS.s:29716  .debug_str:000000000002abd5 .LASF4625
C:\Users\SOLDER~1\AppData\Local\Temp\ccUIzJuS.s:24818  .debug_str:0000000000016c38 .LASF4626
C:\Users\SOLDER~1\AppData\Local\Temp\ccUIzJuS.s:26798  .debug_str:000000000001eccf .LASF4627
C:\Users\SOLDER~1\AppData\Local\Temp\ccUIzJuS.s:24144  .debug_str:000000000001408e .LASF4628
C:\Users\SOLDER~1\AppData\Local\Temp\ccUIzJuS.s:21558  .debug_str:0000000000009699 .LASF4629
C:\Users\SOLDER~1\AppData\Local\Temp\ccUIzJuS.s:26688  .debug_str:000000000001e550 .LASF4630
C:\Users\SOLDER~1\AppData\Local\Temp\ccUIzJuS.s:27658  .debug_str:00000000000223c0 .LASF4631
C:\Users\SOLDER~1\AppData\Local\Temp\ccUIzJuS.s:26496  .debug_str:000000000001d92f .LASF4632
C:\Users\SOLDER~1\AppData\Local\Temp\ccUIzJuS.s:30348  .debug_str:000000000002d517 .LASF4633
C:\Users\SOLDER~1\AppData\Local\Temp\ccUIzJuS.s:27622  .debug_str:00000000000221ca .LASF4634
GAS LISTING C:\Users\SOLDER~1\AppData\Local\Temp\ccUIzJuS.s 			page 110


C:\Users\SOLDER~1\AppData\Local\Temp\ccUIzJuS.s:24872  .debug_str:0000000000016f6a .LASF4635
C:\Users\SOLDER~1\AppData\Local\Temp\ccUIzJuS.s:24926  .debug_str:0000000000017305 .LASF4636
C:\Users\SOLDER~1\AppData\Local\Temp\ccUIzJuS.s:24018  .debug_str:0000000000013786 .LASF4637
C:\Users\SOLDER~1\AppData\Local\Temp\ccUIzJuS.s:23994  .debug_str:00000000000135e3 .LASF4638
C:\Users\SOLDER~1\AppData\Local\Temp\ccUIzJuS.s:19448  .debug_str:0000000000000e4f .LASF4639
C:\Users\SOLDER~1\AppData\Local\Temp\ccUIzJuS.s:29548  .debug_str:000000000002a0f9 .LASF4640
C:\Users\SOLDER~1\AppData\Local\Temp\ccUIzJuS.s:22294  .debug_str:000000000000c6ff .LASF4641
C:\Users\SOLDER~1\AppData\Local\Temp\ccUIzJuS.s:30776  .debug_str:000000000002f020 .LASF4642
C:\Users\SOLDER~1\AppData\Local\Temp\ccUIzJuS.s:27610  .debug_str:0000000000022111 .LASF4643
C:\Users\SOLDER~1\AppData\Local\Temp\ccUIzJuS.s:22514  .debug_str:000000000000d5ce .LASF4644
C:\Users\SOLDER~1\AppData\Local\Temp\ccUIzJuS.s:26602  .debug_str:000000000001e027 .LASF4645
C:\Users\SOLDER~1\AppData\Local\Temp\ccUIzJuS.s:22546  .debug_str:000000000000d7f0 .LASF4646
C:\Users\SOLDER~1\AppData\Local\Temp\ccUIzJuS.s:26054  .debug_str:000000000001bbd0 .LASF4647
C:\Users\SOLDER~1\AppData\Local\Temp\ccUIzJuS.s:23128  .debug_str:000000000000fe38 .LASF4648
C:\Users\SOLDER~1\AppData\Local\Temp\ccUIzJuS.s:22384  .debug_str:000000000000cd33 .LASF4649
C:\Users\SOLDER~1\AppData\Local\Temp\ccUIzJuS.s:19696  .debug_str:0000000000001e0a .LASF4650
C:\Users\SOLDER~1\AppData\Local\Temp\ccUIzJuS.s:22414  .debug_str:000000000000cf09 .LASF4651
C:\Users\SOLDER~1\AppData\Local\Temp\ccUIzJuS.s:25690  .debug_str:000000000001a416 .LASF4652
C:\Users\SOLDER~1\AppData\Local\Temp\ccUIzJuS.s:27894  .debug_str:0000000000023394 .LASF4653
C:\Users\SOLDER~1\AppData\Local\Temp\ccUIzJuS.s:24064  .debug_str:0000000000013ae6 .LASF4654
C:\Users\SOLDER~1\AppData\Local\Temp\ccUIzJuS.s:21272  .debug_str:00000000000083b0 .LASF4655
C:\Users\SOLDER~1\AppData\Local\Temp\ccUIzJuS.s:26132  .debug_str:000000000001c0da .LASF4656
C:\Users\SOLDER~1\AppData\Local\Temp\ccUIzJuS.s:23098  .debug_str:000000000000fc16 .LASF4657
C:\Users\SOLDER~1\AppData\Local\Temp\ccUIzJuS.s:21662  .debug_str:0000000000009d19 .LASF4658
C:\Users\SOLDER~1\AppData\Local\Temp\ccUIzJuS.s:22364  .debug_str:000000000000cbd5 .LASF4659
C:\Users\SOLDER~1\AppData\Local\Temp\ccUIzJuS.s:29510  .debug_str:0000000000029e64 .LASF4660
C:\Users\SOLDER~1\AppData\Local\Temp\ccUIzJuS.s:26286  .debug_str:000000000001cb53 .LASF4661
C:\Users\SOLDER~1\AppData\Local\Temp\ccUIzJuS.s:25608  .debug_str:0000000000019f05 .LASF4662
C:\Users\SOLDER~1\AppData\Local\Temp\ccUIzJuS.s:19250  .debug_str:000000000000006c .LASF4663
C:\Users\SOLDER~1\AppData\Local\Temp\ccUIzJuS.s:23610  .debug_str:0000000000011cf3 .LASF4664
C:\Users\SOLDER~1\AppData\Local\Temp\ccUIzJuS.s:25470  .debug_str:00000000000196be .LASF4665
C:\Users\SOLDER~1\AppData\Local\Temp\ccUIzJuS.s:30074  .debug_str:000000000002c37e .LASF4666
C:\Users\SOLDER~1\AppData\Local\Temp\ccUIzJuS.s:19546  .debug_str:0000000000001471 .LASF4667
C:\Users\SOLDER~1\AppData\Local\Temp\ccUIzJuS.s:19336  .debug_str:00000000000005fe .LASF4668
C:\Users\SOLDER~1\AppData\Local\Temp\ccUIzJuS.s:20846  .debug_str:0000000000006831 .LASF4669
C:\Users\SOLDER~1\AppData\Local\Temp\ccUIzJuS.s:22692  .debug_str:000000000000e1b3 .LASF4670
C:\Users\SOLDER~1\AppData\Local\Temp\ccUIzJuS.s:19674  .debug_str:0000000000001ca5 .LASF4671
C:\Users\SOLDER~1\AppData\Local\Temp\ccUIzJuS.s:19582  .debug_str:00000000000016c2 .LASF4672
C:\Users\SOLDER~1\AppData\Local\Temp\ccUIzJuS.s:26944  .debug_str:000000000001f691 .LASF4673
C:\Users\SOLDER~1\AppData\Local\Temp\ccUIzJuS.s:24678  .debug_str:0000000000016371 .LASF4674
C:\Users\SOLDER~1\AppData\Local\Temp\ccUIzJuS.s:20340  .debug_str:0000000000004784 .LASF4675
C:\Users\SOLDER~1\AppData\Local\Temp\ccUIzJuS.s:23754  .debug_str:0000000000012622 .LASF4676
C:\Users\SOLDER~1\AppData\Local\Temp\ccUIzJuS.s:23074  .debug_str:000000000000fa62 .LASF4677
C:\Users\SOLDER~1\AppData\Local\Temp\ccUIzJuS.s:21222  .debug_str:000000000000807a .LASF4678
C:\Users\SOLDER~1\AppData\Local\Temp\ccUIzJuS.s:28198  .debug_str:000000000002478c .LASF4679
C:\Users\SOLDER~1\AppData\Local\Temp\ccUIzJuS.s:24316  .debug_str:0000000000014c49 .LASF4680
C:\Users\SOLDER~1\AppData\Local\Temp\ccUIzJuS.s:19932  .debug_str:0000000000002cfc .LASF4681
C:\Users\SOLDER~1\AppData\Local\Temp\ccUIzJuS.s:20852  .debug_str:00000000000068bd .LASF4682
C:\Users\SOLDER~1\AppData\Local\Temp\ccUIzJuS.s:19640  .debug_str:0000000000001a5d .LASF4683
C:\Users\SOLDER~1\AppData\Local\Temp\ccUIzJuS.s:22262  .debug_str:000000000000c4cd .LASF4684
C:\Users\SOLDER~1\AppData\Local\Temp\ccUIzJuS.s:29506  .debug_str:0000000000029e26 .LASF4685
C:\Users\SOLDER~1\AppData\Local\Temp\ccUIzJuS.s:28974  .debug_str:0000000000027b91 .LASF4686
C:\Users\SOLDER~1\AppData\Local\Temp\ccUIzJuS.s:26440  .debug_str:000000000001d5d5 .LASF4687
C:\Users\SOLDER~1\AppData\Local\Temp\ccUIzJuS.s:29040  .debug_str:0000000000028016 .LASF4688
C:\Users\SOLDER~1\AppData\Local\Temp\ccUIzJuS.s:27032  .debug_str:000000000001fc6b .LASF4689
C:\Users\SOLDER~1\AppData\Local\Temp\ccUIzJuS.s:28488  .debug_str:0000000000025ab9 .LASF4690
C:\Users\SOLDER~1\AppData\Local\Temp\ccUIzJuS.s:19522  .debug_str:00000000000012e2 .LASF4691
GAS LISTING C:\Users\SOLDER~1\AppData\Local\Temp\ccUIzJuS.s 			page 111


C:\Users\SOLDER~1\AppData\Local\Temp\ccUIzJuS.s:26884  .debug_str:000000000001f28c .LASF4692
C:\Users\SOLDER~1\AppData\Local\Temp\ccUIzJuS.s:27734  .debug_str:00000000000228ed .LASF4693
C:\Users\SOLDER~1\AppData\Local\Temp\ccUIzJuS.s:29302  .debug_str:000000000002910e .LASF4694
C:\Users\SOLDER~1\AppData\Local\Temp\ccUIzJuS.s:26480  .debug_str:000000000001d834 .LASF4695
C:\Users\SOLDER~1\AppData\Local\Temp\ccUIzJuS.s:19616  .debug_str:00000000000018d7 .LASF4696
C:\Users\SOLDER~1\AppData\Local\Temp\ccUIzJuS.s:24300  .debug_str:0000000000014b45 .LASF4697
C:\Users\SOLDER~1\AppData\Local\Temp\ccUIzJuS.s:21124  .debug_str:00000000000079f9 .LASF4698
C:\Users\SOLDER~1\AppData\Local\Temp\ccUIzJuS.s:29806  .debug_str:000000000002b1af .LASF4699
C:\Users\SOLDER~1\AppData\Local\Temp\ccUIzJuS.s:26306  .debug_str:000000000001ccda .LASF4700
C:\Users\SOLDER~1\AppData\Local\Temp\ccUIzJuS.s:21608  .debug_str:00000000000099e1 .LASF4701
C:\Users\SOLDER~1\AppData\Local\Temp\ccUIzJuS.s:19924  .debug_str:0000000000002c6a .LASF4702
C:\Users\SOLDER~1\AppData\Local\Temp\ccUIzJuS.s:25468  .debug_str:00000000000196a2 .LASF4703
C:\Users\SOLDER~1\AppData\Local\Temp\ccUIzJuS.s:28202  .debug_str:00000000000247d2 .LASF4704
C:\Users\SOLDER~1\AppData\Local\Temp\ccUIzJuS.s:25108  .debug_str:0000000000017f06 .LASF4705
C:\Users\SOLDER~1\AppData\Local\Temp\ccUIzJuS.s:24606  .debug_str:0000000000015ec7 .LASF4706
C:\Users\SOLDER~1\AppData\Local\Temp\ccUIzJuS.s:23524  .debug_str:0000000000011769 .LASF4707
C:\Users\SOLDER~1\AppData\Local\Temp\ccUIzJuS.s:22044  .debug_str:000000000000b656 .LASF4708
C:\Users\SOLDER~1\AppData\Local\Temp\ccUIzJuS.s:25184  .debug_str:0000000000018419 .LASF4709
C:\Users\SOLDER~1\AppData\Local\Temp\ccUIzJuS.s:26194  .debug_str:000000000001c536 .LASF4710
C:\Users\SOLDER~1\AppData\Local\Temp\ccUIzJuS.s:27160  .debug_str:0000000000020496 .LASF4711
C:\Users\SOLDER~1\AppData\Local\Temp\ccUIzJuS.s:25046  .debug_str:0000000000017afc .LASF4712
C:\Users\SOLDER~1\AppData\Local\Temp\ccUIzJuS.s:25846  .debug_str:000000000001aed2 .LASF4713
C:\Users\SOLDER~1\AppData\Local\Temp\ccUIzJuS.s:23258  .debug_str:000000000001067c .LASF4714
C:\Users\SOLDER~1\AppData\Local\Temp\ccUIzJuS.s:30684  .debug_str:000000000002ea68 .LASF4715
C:\Users\SOLDER~1\AppData\Local\Temp\ccUIzJuS.s:29772  .debug_str:000000000002afa0 .LASF4716
C:\Users\SOLDER~1\AppData\Local\Temp\ccUIzJuS.s:28852  .debug_str:0000000000027376 .LASF4717
C:\Users\SOLDER~1\AppData\Local\Temp\ccUIzJuS.s:29290  .debug_str:0000000000029056 .LASF4718
C:\Users\SOLDER~1\AppData\Local\Temp\ccUIzJuS.s:27728  .debug_str:000000000002288a .LASF4719
C:\Users\SOLDER~1\AppData\Local\Temp\ccUIzJuS.s:23654  .debug_str:0000000000011fbd .LASF4720
C:\Users\SOLDER~1\AppData\Local\Temp\ccUIzJuS.s:25394  .debug_str:00000000000191a8 .LASF4721
C:\Users\SOLDER~1\AppData\Local\Temp\ccUIzJuS.s:19434  .debug_str:0000000000000d48 .LASF4722
C:\Users\SOLDER~1\AppData\Local\Temp\ccUIzJuS.s:26832  .debug_str:000000000001ef03 .LASF4723
C:\Users\SOLDER~1\AppData\Local\Temp\ccUIzJuS.s:21538  .debug_str:000000000000956c .LASF4724
C:\Users\SOLDER~1\AppData\Local\Temp\ccUIzJuS.s:26876  .debug_str:000000000001f207 .LASF4725
C:\Users\SOLDER~1\AppData\Local\Temp\ccUIzJuS.s:25490  .debug_str:00000000000197f6 .LASF4726
C:\Users\SOLDER~1\AppData\Local\Temp\ccUIzJuS.s:29106  .debug_str:0000000000028471 .LASF4727
C:\Users\SOLDER~1\AppData\Local\Temp\ccUIzJuS.s:21610  .debug_str:00000000000099fc .LASF4728
C:\Users\SOLDER~1\AppData\Local\Temp\ccUIzJuS.s:28744  .debug_str:0000000000026c72 .LASF4729
C:\Users\SOLDER~1\AppData\Local\Temp\ccUIzJuS.s:27714  .debug_str:0000000000022791 .LASF4730
C:\Users\SOLDER~1\AppData\Local\Temp\ccUIzJuS.s:30136  .debug_str:000000000002c740 .LASF4731
C:\Users\SOLDER~1\AppData\Local\Temp\ccUIzJuS.s:27930  .debug_str:0000000000023600 .LASF4732
C:\Users\SOLDER~1\AppData\Local\Temp\ccUIzJuS.s:28970  .debug_str:0000000000027b50 .LASF4733
C:\Users\SOLDER~1\AppData\Local\Temp\ccUIzJuS.s:29420  .debug_str:00000000000298e9 .LASF4734
C:\Users\SOLDER~1\AppData\Local\Temp\ccUIzJuS.s:22018  .debug_str:000000000000b4c0 .LASF4735
C:\Users\SOLDER~1\AppData\Local\Temp\ccUIzJuS.s:20726  .debug_str:0000000000005fd8 .LASF4736
C:\Users\SOLDER~1\AppData\Local\Temp\ccUIzJuS.s:20078  .debug_str:0000000000003670 .LASF4737
C:\Users\SOLDER~1\AppData\Local\Temp\ccUIzJuS.s:28892  .debug_str:000000000002762d .LASF4738
C:\Users\SOLDER~1\AppData\Local\Temp\ccUIzJuS.s:25732  .debug_str:000000000001a6e2 .LASF4739
C:\Users\SOLDER~1\AppData\Local\Temp\ccUIzJuS.s:20138  .debug_str:0000000000003a64 .LASF4740
C:\Users\SOLDER~1\AppData\Local\Temp\ccUIzJuS.s:20246  .debug_str:0000000000004179 .LASF4741
C:\Users\SOLDER~1\AppData\Local\Temp\ccUIzJuS.s:27950  .debug_str:0000000000023757 .LASF4742
C:\Users\SOLDER~1\AppData\Local\Temp\ccUIzJuS.s:28290  .debug_str:0000000000024da2 .LASF4743
C:\Users\SOLDER~1\AppData\Local\Temp\ccUIzJuS.s:23890  .debug_str:0000000000012f1f .LASF4744
C:\Users\SOLDER~1\AppData\Local\Temp\ccUIzJuS.s:19672  .debug_str:0000000000001c7f .LASF4745
C:\Users\SOLDER~1\AppData\Local\Temp\ccUIzJuS.s:28472  .debug_str:00000000000259a2 .LASF4746
C:\Users\SOLDER~1\AppData\Local\Temp\ccUIzJuS.s:22538  .debug_str:000000000000d770 .LASF4747
C:\Users\SOLDER~1\AppData\Local\Temp\ccUIzJuS.s:19518  .debug_str:00000000000012ac .LASF4748
GAS LISTING C:\Users\SOLDER~1\AppData\Local\Temp\ccUIzJuS.s 			page 112


C:\Users\SOLDER~1\AppData\Local\Temp\ccUIzJuS.s:27924  .debug_str:00000000000235ad .LASF4749
C:\Users\SOLDER~1\AppData\Local\Temp\ccUIzJuS.s:29694  .debug_str:000000000002aa7c .LASF4750
C:\Users\SOLDER~1\AppData\Local\Temp\ccUIzJuS.s:22972  .debug_str:000000000000f384 .LASF4751
C:\Users\SOLDER~1\AppData\Local\Temp\ccUIzJuS.s:22166  .debug_str:000000000000be21 .LASF4752
C:\Users\SOLDER~1\AppData\Local\Temp\ccUIzJuS.s:28360  .debug_str:0000000000025236 .LASF4753
C:\Users\SOLDER~1\AppData\Local\Temp\ccUIzJuS.s:25356  .debug_str:0000000000018f41 .LASF4754
C:\Users\SOLDER~1\AppData\Local\Temp\ccUIzJuS.s:19402  .debug_str:0000000000000b17 .LASF4755
C:\Users\SOLDER~1\AppData\Local\Temp\ccUIzJuS.s:30758  .debug_str:000000000002eeff .LASF4756
C:\Users\SOLDER~1\AppData\Local\Temp\ccUIzJuS.s:27626  .debug_str:000000000002220e .LASF4757
C:\Users\SOLDER~1\AppData\Local\Temp\ccUIzJuS.s:28094  .debug_str:000000000002408c .LASF4758
C:\Users\SOLDER~1\AppData\Local\Temp\ccUIzJuS.s:20504  .debug_str:00000000000051bd .LASF4759
C:\Users\SOLDER~1\AppData\Local\Temp\ccUIzJuS.s:22992  .debug_str:000000000000f4e6 .LASF4760
C:\Users\SOLDER~1\AppData\Local\Temp\ccUIzJuS.s:28356  .debug_str:0000000000025200 .LASF4761
C:\Users\SOLDER~1\AppData\Local\Temp\ccUIzJuS.s:25352  .debug_str:0000000000018f01 .LASF4762
C:\Users\SOLDER~1\AppData\Local\Temp\ccUIzJuS.s:22242  .debug_str:000000000000c364 .LASF4763
C:\Users\SOLDER~1\AppData\Local\Temp\ccUIzJuS.s:21524  .debug_str:000000000000945e .LASF4764
C:\Users\SOLDER~1\AppData\Local\Temp\ccUIzJuS.s:21450  .debug_str:0000000000008f50 .LASF4765
C:\Users\SOLDER~1\AppData\Local\Temp\ccUIzJuS.s:24620  .debug_str:0000000000015fb0 .LASF4766
C:\Users\SOLDER~1\AppData\Local\Temp\ccUIzJuS.s:26904  .debug_str:000000000001f3ea .LASF4767
C:\Users\SOLDER~1\AppData\Local\Temp\ccUIzJuS.s:23830  .debug_str:0000000000012b09 .LASF4768
C:\Users\SOLDER~1\AppData\Local\Temp\ccUIzJuS.s:30384  .debug_str:000000000002d741 .LASF4769
C:\Users\SOLDER~1\AppData\Local\Temp\ccUIzJuS.s:26966  .debug_str:000000000001f820 .LASF4770
C:\Users\SOLDER~1\AppData\Local\Temp\ccUIzJuS.s:23004  .debug_str:000000000000f5a0 .LASF4771
C:\Users\SOLDER~1\AppData\Local\Temp\ccUIzJuS.s:22930  .debug_str:000000000000f0ea .LASF4772
C:\Users\SOLDER~1\AppData\Local\Temp\ccUIzJuS.s:20038  .debug_str:0000000000003407 .LASF4773
C:\Users\SOLDER~1\AppData\Local\Temp\ccUIzJuS.s:28482  .debug_str:0000000000025a59 .LASF4774
C:\Users\SOLDER~1\AppData\Local\Temp\ccUIzJuS.s:19566  .debug_str:00000000000015cf .LASF4775
C:\Users\SOLDER~1\AppData\Local\Temp\ccUIzJuS.s:20160  .debug_str:0000000000003bc9 .LASF4776
C:\Users\SOLDER~1\AppData\Local\Temp\ccUIzJuS.s:26674  .debug_str:000000000001e474 .LASF4777
C:\Users\SOLDER~1\AppData\Local\Temp\ccUIzJuS.s:20572  .debug_str:00000000000055d1 .LASF4778
C:\Users\SOLDER~1\AppData\Local\Temp\ccUIzJuS.s:29782  .debug_str:000000000002b038 .LASF4779
C:\Users\SOLDER~1\AppData\Local\Temp\ccUIzJuS.s:30046  .debug_str:000000000002c176 .LASF4780
C:\Users\SOLDER~1\AppData\Local\Temp\ccUIzJuS.s:22766  .debug_str:000000000000e668 .LASF4781
C:\Users\SOLDER~1\AppData\Local\Temp\ccUIzJuS.s:26906  .debug_str:000000000001f406 .LASF4782
C:\Users\SOLDER~1\AppData\Local\Temp\ccUIzJuS.s:22664  .debug_str:000000000000df99 .LASF4783
C:\Users\SOLDER~1\AppData\Local\Temp\ccUIzJuS.s:22080  .debug_str:000000000000b897 .LASF4784
C:\Users\SOLDER~1\AppData\Local\Temp\ccUIzJuS.s:27292  .debug_str:0000000000020d3f .LASF4785
C:\Users\SOLDER~1\AppData\Local\Temp\ccUIzJuS.s:19692  .debug_str:0000000000001dd6 .LASF4786
C:\Users\SOLDER~1\AppData\Local\Temp\ccUIzJuS.s:25814  .debug_str:000000000001ac64 .LASF4787
C:\Users\SOLDER~1\AppData\Local\Temp\ccUIzJuS.s:24862  .debug_str:0000000000016ec2 .LASF4788
C:\Users\SOLDER~1\AppData\Local\Temp\ccUIzJuS.s:21786  .debug_str:000000000000a57f .LASF4789
C:\Users\SOLDER~1\AppData\Local\Temp\ccUIzJuS.s:30700  .debug_str:000000000002eb7a .LASF4790
C:\Users\SOLDER~1\AppData\Local\Temp\ccUIzJuS.s:20206  .debug_str:0000000000003ee9 .LASF4791
C:\Users\SOLDER~1\AppData\Local\Temp\ccUIzJuS.s:28814  .debug_str:0000000000027115 .LASF4792
C:\Users\SOLDER~1\AppData\Local\Temp\ccUIzJuS.s:29032  .debug_str:0000000000027f97 .LASF4793
C:\Users\SOLDER~1\AppData\Local\Temp\ccUIzJuS.s:21352  .debug_str:00000000000088b9 .LASF4794
C:\Users\SOLDER~1\AppData\Local\Temp\ccUIzJuS.s:21796  .debug_str:000000000000a636 .LASF4795
C:\Users\SOLDER~1\AppData\Local\Temp\ccUIzJuS.s:29714  .debug_str:000000000002abae .LASF4796
C:\Users\SOLDER~1\AppData\Local\Temp\ccUIzJuS.s:24852  .debug_str:0000000000016e16 .LASF4797
C:\Users\SOLDER~1\AppData\Local\Temp\ccUIzJuS.s:20064  .debug_str:0000000000003583 .LASF4798
C:\Users\SOLDER~1\AppData\Local\Temp\ccUIzJuS.s:22640  .debug_str:000000000000ddec .LASF4799
C:\Users\SOLDER~1\AppData\Local\Temp\ccUIzJuS.s:23274  .debug_str:0000000000010748 .LASF4800
C:\Users\SOLDER~1\AppData\Local\Temp\ccUIzJuS.s:29378  .debug_str:000000000002960e .LASF4801
C:\Users\SOLDER~1\AppData\Local\Temp\ccUIzJuS.s:20920  .debug_str:0000000000006cd3 .LASF4802
C:\Users\SOLDER~1\AppData\Local\Temp\ccUIzJuS.s:27670  .debug_str:0000000000022495 .LASF4803
C:\Users\SOLDER~1\AppData\Local\Temp\ccUIzJuS.s:23086  .debug_str:000000000000fb2d .LASF4804
C:\Users\SOLDER~1\AppData\Local\Temp\ccUIzJuS.s:27276  .debug_str:0000000000020c40 .LASF4805
GAS LISTING C:\Users\SOLDER~1\AppData\Local\Temp\ccUIzJuS.s 			page 113


C:\Users\SOLDER~1\AppData\Local\Temp\ccUIzJuS.s:30262  .debug_str:000000000002cf30 .LASF4806
C:\Users\SOLDER~1\AppData\Local\Temp\ccUIzJuS.s:20770  .debug_str:00000000000062ed .LASF4807
C:\Users\SOLDER~1\AppData\Local\Temp\ccUIzJuS.s:28260  .debug_str:0000000000024bc3 .LASF4808
C:\Users\SOLDER~1\AppData\Local\Temp\ccUIzJuS.s:21480  .debug_str:000000000000915f .LASF4809
C:\Users\SOLDER~1\AppData\Local\Temp\ccUIzJuS.s:23102  .debug_str:000000000000fc74 .LASF4810
C:\Users\SOLDER~1\AppData\Local\Temp\ccUIzJuS.s:25960  .debug_str:000000000001b5ef .LASF4811
C:\Users\SOLDER~1\AppData\Local\Temp\ccUIzJuS.s:30516  .debug_str:000000000002dfa7 .LASF4812
C:\Users\SOLDER~1\AppData\Local\Temp\ccUIzJuS.s:30742  .debug_str:000000000002ee0f .LASF4813
C:\Users\SOLDER~1\AppData\Local\Temp\ccUIzJuS.s:21294  .debug_str:0000000000008516 .LASF4814
C:\Users\SOLDER~1\AppData\Local\Temp\ccUIzJuS.s:23398  .debug_str:0000000000010f56 .LASF4815
C:\Users\SOLDER~1\AppData\Local\Temp\ccUIzJuS.s:22464  .debug_str:000000000000d275 .LASF4816
C:\Users\SOLDER~1\AppData\Local\Temp\ccUIzJuS.s:21420  .debug_str:0000000000008d40 .LASF4817
C:\Users\SOLDER~1\AppData\Local\Temp\ccUIzJuS.s:20048  .debug_str:00000000000034a0 .LASF4818
C:\Users\SOLDER~1\AppData\Local\Temp\ccUIzJuS.s:19244  .debug_str:0000000000000000 .LASF4819
C:\Users\SOLDER~1\AppData\Local\Temp\ccUIzJuS.s:26774  .debug_str:000000000001eb48 .LASF4820
C:\Users\SOLDER~1\AppData\Local\Temp\ccUIzJuS.s:27420  .debug_str:000000000002155b .LASF4821
C:\Users\SOLDER~1\AppData\Local\Temp\ccUIzJuS.s:30458  .debug_str:000000000002dbe5 .LASF4822
C:\Users\SOLDER~1\AppData\Local\Temp\ccUIzJuS.s:21456  .debug_str:0000000000008faf .LASF4823
C:\Users\SOLDER~1\AppData\Local\Temp\ccUIzJuS.s:20648  .debug_str:0000000000005b00 .LASF4824
C:\Users\SOLDER~1\AppData\Local\Temp\ccUIzJuS.s:19412  .debug_str:0000000000000bc4 .LASF4825
C:\Users\SOLDER~1\AppData\Local\Temp\ccUIzJuS.s:27852  .debug_str:00000000000230be .LASF4826
C:\Users\SOLDER~1\AppData\Local\Temp\ccUIzJuS.s:22810  .debug_str:000000000000e98b .LASF4827
C:\Users\SOLDER~1\AppData\Local\Temp\ccUIzJuS.s:24870  .debug_str:0000000000016f48 .LASF4828
C:\Users\SOLDER~1\AppData\Local\Temp\ccUIzJuS.s:24992  .debug_str:000000000001774f .LASF4829
C:\Users\SOLDER~1\AppData\Local\Temp\ccUIzJuS.s:22454  .debug_str:000000000000d1ca .LASF4830
C:\Users\SOLDER~1\AppData\Local\Temp\ccUIzJuS.s:24370  .debug_str:0000000000014fb4 .LASF4831
C:\Users\SOLDER~1\AppData\Local\Temp\ccUIzJuS.s:29002  .debug_str:0000000000027d55 .LASF4832
C:\Users\SOLDER~1\AppData\Local\Temp\ccUIzJuS.s:24556  .debug_str:0000000000015ba6 .LASF4833
C:\Users\SOLDER~1\AppData\Local\Temp\ccUIzJuS.s:20062  .debug_str:000000000000356b .LASF4834
C:\Users\SOLDER~1\AppData\Local\Temp\ccUIzJuS.s:27416  .debug_str:0000000000021521 .LASF4835
C:\Users\SOLDER~1\AppData\Local\Temp\ccUIzJuS.s:24220  .debug_str:00000000000145d4 .LASF4836
C:\Users\SOLDER~1\AppData\Local\Temp\ccUIzJuS.s:21330  .debug_str:0000000000008777 .LASF4837
C:\Users\SOLDER~1\AppData\Local\Temp\ccUIzJuS.s:22714  .debug_str:000000000000e33e .LASF4838
C:\Users\SOLDER~1\AppData\Local\Temp\ccUIzJuS.s:27594  .debug_str:0000000000022017 .LASF4839
C:\Users\SOLDER~1\AppData\Local\Temp\ccUIzJuS.s:27340  .debug_str:000000000002102b .LASF4840
C:\Users\SOLDER~1\AppData\Local\Temp\ccUIzJuS.s:25784  .debug_str:000000000001aa8e .LASF4841
C:\Users\SOLDER~1\AppData\Local\Temp\ccUIzJuS.s:24812  .debug_str:0000000000016bd9 .LASF4842
C:\Users\SOLDER~1\AppData\Local\Temp\ccUIzJuS.s:20130  .debug_str:00000000000039da .LASF4843
C:\Users\SOLDER~1\AppData\Local\Temp\ccUIzJuS.s:24842  .debug_str:0000000000016d86 .LASF4844
C:\Users\SOLDER~1\AppData\Local\Temp\ccUIzJuS.s:29354  .debug_str:000000000002946e .LASF4845
C:\Users\SOLDER~1\AppData\Local\Temp\ccUIzJuS.s:22584  .debug_str:000000000000da31 .LASF4846
C:\Users\SOLDER~1\AppData\Local\Temp\ccUIzJuS.s:29136  .debug_str:0000000000028670 .LASF4847
C:\Users\SOLDER~1\AppData\Local\Temp\ccUIzJuS.s:28768  .debug_str:0000000000026dee .LASF4848
C:\Users\SOLDER~1\AppData\Local\Temp\ccUIzJuS.s:24032  .debug_str:0000000000013863 .LASF4849
C:\Users\SOLDER~1\AppData\Local\Temp\ccUIzJuS.s:27182  .debug_str:000000000002061e .LASF4850
C:\Users\SOLDER~1\AppData\Local\Temp\ccUIzJuS.s:25760  .debug_str:000000000001a917 .LASF4852
C:\Users\SOLDER~1\AppData\Local\Temp\ccUIzJuS.s:27648  .debug_str:0000000000022328 .LASF4853
C:\Users\SOLDER~1\AppData\Local\Temp\ccUIzJuS.s:19960  .debug_str:0000000000002efb .LASF4854
C:\Users\SOLDER~1\AppData\Local\Temp\ccUIzJuS.s:23822  .debug_str:0000000000012a65 .LASF4855
C:\Users\SOLDER~1\AppData\Local\Temp\ccUIzJuS.s:22722  .debug_str:000000000000e3be .LASF4856
C:\Users\SOLDER~1\AppData\Local\Temp\ccUIzJuS.s:25970  .debug_str:000000000001b679 .LASF4857
C:\Users\SOLDER~1\AppData\Local\Temp\ccUIzJuS.s:21258  .debug_str:00000000000082c4 .LASF4858
C:\Users\SOLDER~1\AppData\Local\Temp\ccUIzJuS.s:21856  .debug_str:000000000000aa43 .LASF4859
C:\Users\SOLDER~1\AppData\Local\Temp\ccUIzJuS.s:29722  .debug_str:000000000002ac3e .LASF4860
C:\Users\SOLDER~1\AppData\Local\Temp\ccUIzJuS.s:20144  .debug_str:0000000000003acf .LASF4861
C:\Users\SOLDER~1\AppData\Local\Temp\ccUIzJuS.s:28734  .debug_str:0000000000026bbe .LASF4862
C:\Users\SOLDER~1\AppData\Local\Temp\ccUIzJuS.s:27436  .debug_str:0000000000021677 .LASF4863
GAS LISTING C:\Users\SOLDER~1\AppData\Local\Temp\ccUIzJuS.s 			page 114


C:\Users\SOLDER~1\AppData\Local\Temp\ccUIzJuS.s:20280  .debug_str:0000000000004375 .LASF4864
C:\Users\SOLDER~1\AppData\Local\Temp\ccUIzJuS.s:27750  .debug_str:0000000000022a08 .LASF4865
C:\Users\SOLDER~1\AppData\Local\Temp\ccUIzJuS.s:20112  .debug_str:00000000000038a8 .LASF4866
C:\Users\SOLDER~1\AppData\Local\Temp\ccUIzJuS.s:20300  .debug_str:00000000000044bb .LASF4867
C:\Users\SOLDER~1\AppData\Local\Temp\ccUIzJuS.s:22710  .debug_str:000000000000e2f1 .LASF4868
C:\Users\SOLDER~1\AppData\Local\Temp\ccUIzJuS.s:29006  .debug_str:0000000000027d95 .LASF4869
C:\Users\SOLDER~1\AppData\Local\Temp\ccUIzJuS.s:20324  .debug_str:0000000000004686 .LASF4870
C:\Users\SOLDER~1\AppData\Local\Temp\ccUIzJuS.s:19388  .debug_str:0000000000000a1f .LASF4871
C:\Users\SOLDER~1\AppData\Local\Temp\ccUIzJuS.s:21656  .debug_str:0000000000009cc0 .LASF4872
C:\Users\SOLDER~1\AppData\Local\Temp\ccUIzJuS.s:25722  .debug_str:000000000001a63e .LASF4873
C:\Users\SOLDER~1\AppData\Local\Temp\ccUIzJuS.s:23214  .debug_str:00000000000103b2 .LASF4874
C:\Users\SOLDER~1\AppData\Local\Temp\ccUIzJuS.s:21646  .debug_str:0000000000009c1a .LASF4875
C:\Users\SOLDER~1\AppData\Local\Temp\ccUIzJuS.s:24696  .debug_str:00000000000164a4 .LASF4876
C:\Users\SOLDER~1\AppData\Local\Temp\ccUIzJuS.s:21978  .debug_str:000000000000b1ec .LASF4877
C:\Users\SOLDER~1\AppData\Local\Temp\ccUIzJuS.s:30418  .debug_str:000000000002d974 .LASF4878
C:\Users\SOLDER~1\AppData\Local\Temp\ccUIzJuS.s:21788  .debug_str:000000000000a599 .LASF4879
C:\Users\SOLDER~1\AppData\Local\Temp\ccUIzJuS.s:22184  .debug_str:000000000000bf5e .LASF4880
C:\Users\SOLDER~1\AppData\Local\Temp\ccUIzJuS.s:28322  .debug_str:0000000000024fef .LASF4881
C:\Users\SOLDER~1\AppData\Local\Temp\ccUIzJuS.s:25312  .debug_str:0000000000018c44 .LASF4882
C:\Users\SOLDER~1\AppData\Local\Temp\ccUIzJuS.s:25772  .debug_str:000000000001a9da .LASF4883
C:\Users\SOLDER~1\AppData\Local\Temp\ccUIzJuS.s:20314  .debug_str:00000000000045a2 .LASF4884
C:\Users\SOLDER~1\AppData\Local\Temp\ccUIzJuS.s:26938  .debug_str:000000000001f62f .LASF4885
C:\Users\SOLDER~1\AppData\Local\Temp\ccUIzJuS.s:23600  .debug_str:0000000000011c58 .LASF4886
C:\Users\SOLDER~1\AppData\Local\Temp\ccUIzJuS.s:19550  .debug_str:00000000000014bb .LASF4887
C:\Users\SOLDER~1\AppData\Local\Temp\ccUIzJuS.s:20114  .debug_str:00000000000038d0 .LASF4888
C:\Users\SOLDER~1\AppData\Local\Temp\ccUIzJuS.s:23416  .debug_str:000000000001107a .LASF4889
C:\Users\SOLDER~1\AppData\Local\Temp\ccUIzJuS.s:19886  .debug_str:0000000000002a35 .LASF4890
C:\Users\SOLDER~1\AppData\Local\Temp\ccUIzJuS.s:26912  .debug_str:000000000001f470 .LASF4891
C:\Users\SOLDER~1\AppData\Local\Temp\ccUIzJuS.s:26236  .debug_str:000000000001c7fc .LASF4892
C:\Users\SOLDER~1\AppData\Local\Temp\ccUIzJuS.s:30768  .debug_str:000000000002efa7 .LASF4893
C:\Users\SOLDER~1\AppData\Local\Temp\ccUIzJuS.s:30718  .debug_str:000000000002eca9 .LASF4894
C:\Users\SOLDER~1\AppData\Local\Temp\ccUIzJuS.s:29648  .debug_str:000000000002a7c8 .LASF4895
C:\Users\SOLDER~1\AppData\Local\Temp\ccUIzJuS.s:26956  .debug_str:000000000001f787 .LASF4896
C:\Users\SOLDER~1\AppData\Local\Temp\ccUIzJuS.s:21534  .debug_str:0000000000009526 .LASF4897
C:\Users\SOLDER~1\AppData\Local\Temp\ccUIzJuS.s:27260  .debug_str:0000000000020b25 .LASF4898
C:\Users\SOLDER~1\AppData\Local\Temp\ccUIzJuS.s:27764  .debug_str:0000000000022b06 .LASF4899
C:\Users\SOLDER~1\AppData\Local\Temp\ccUIzJuS.s:29400  .debug_str:000000000002979b .LASF4900
C:\Users\SOLDER~1\AppData\Local\Temp\ccUIzJuS.s:23944  .debug_str:0000000000013280 .LASF4901
C:\Users\SOLDER~1\AppData\Local\Temp\ccUIzJuS.s:20522  .debug_str:00000000000052dc .LASF4902
C:\Users\SOLDER~1\AppData\Local\Temp\ccUIzJuS.s:19980  .debug_str:0000000000003020 .LASF4903
C:\Users\SOLDER~1\AppData\Local\Temp\ccUIzJuS.s:27790  .debug_str:0000000000022ccd .LASF4904
C:\Users\SOLDER~1\AppData\Local\Temp\ccUIzJuS.s:29746  .debug_str:000000000002ade8 .LASF4905
C:\Users\SOLDER~1\AppData\Local\Temp\ccUIzJuS.s:28080  .debug_str:0000000000023fa2 .LASF4906
C:\Users\SOLDER~1\AppData\Local\Temp\ccUIzJuS.s:23652  .debug_str:0000000000011f8f .LASF4907
C:\Users\SOLDER~1\AppData\Local\Temp\ccUIzJuS.s:28142  .debug_str:00000000000243c1 .LASF4908
C:\Users\SOLDER~1\AppData\Local\Temp\ccUIzJuS.s:29914  .debug_str:000000000002b8f1 .LASF4909
C:\Users\SOLDER~1\AppData\Local\Temp\ccUIzJuS.s:24108  .debug_str:0000000000013e17 .LASF4910
C:\Users\SOLDER~1\AppData\Local\Temp\ccUIzJuS.s:21726  .debug_str:000000000000a187 .LASF4911
C:\Users\SOLDER~1\AppData\Local\Temp\ccUIzJuS.s:28900  .debug_str:00000000000276a7 .LASF4912
C:\Users\SOLDER~1\AppData\Local\Temp\ccUIzJuS.s:28468  .debug_str:0000000000025956 .LASF4913
C:\Users\SOLDER~1\AppData\Local\Temp\ccUIzJuS.s:27724  .debug_str:000000000002283c .LASF4914
C:\Users\SOLDER~1\AppData\Local\Temp\ccUIzJuS.s:26164  .debug_str:000000000001c31c .LASF4915
C:\Users\SOLDER~1\AppData\Local\Temp\ccUIzJuS.s:23124  .debug_str:000000000000fde5 .LASF4916
C:\Users\SOLDER~1\AppData\Local\Temp\ccUIzJuS.s:27908  .debug_str:000000000002348e .LASF4917
C:\Users\SOLDER~1\AppData\Local\Temp\ccUIzJuS.s:29008  .debug_str:0000000000027dbd .LASF4918
C:\Users\SOLDER~1\AppData\Local\Temp\ccUIzJuS.s:21930  .debug_str:000000000000af04 .LASF4919
C:\Users\SOLDER~1\AppData\Local\Temp\ccUIzJuS.s:24996  .debug_str:0000000000017796 .LASF4920
GAS LISTING C:\Users\SOLDER~1\AppData\Local\Temp\ccUIzJuS.s 			page 115


C:\Users\SOLDER~1\AppData\Local\Temp\ccUIzJuS.s:24602  .debug_str:0000000000015e7f .LASF4921
C:\Users\SOLDER~1\AppData\Local\Temp\ccUIzJuS.s:28214  .debug_str:000000000002488a .LASF4922
C:\Users\SOLDER~1\AppData\Local\Temp\ccUIzJuS.s:29084  .debug_str:0000000000028315 .LASF4923
C:\Users\SOLDER~1\AppData\Local\Temp\ccUIzJuS.s:24174  .debug_str:000000000001429f .LASF4924
C:\Users\SOLDER~1\AppData\Local\Temp\ccUIzJuS.s:22428  .debug_str:000000000000d023 .LASF4925
C:\Users\SOLDER~1\AppData\Local\Temp\ccUIzJuS.s:29466  .debug_str:0000000000029b89 .LASF4926
C:\Users\SOLDER~1\AppData\Local\Temp\ccUIzJuS.s:24136  .debug_str:0000000000014000 .LASF4927
C:\Users\SOLDER~1\AppData\Local\Temp\ccUIzJuS.s:28084  .debug_str:0000000000023ff5 .LASF4928
C:\Users\SOLDER~1\AppData\Local\Temp\ccUIzJuS.s:24216  .debug_str:00000000000145a1 .LASF4929
C:\Users\SOLDER~1\AppData\Local\Temp\ccUIzJuS.s:24882  .debug_str:0000000000017009 .LASF4930
C:\Users\SOLDER~1\AppData\Local\Temp\ccUIzJuS.s:24476  .debug_str:0000000000015675 .LASF4931
C:\Users\SOLDER~1\AppData\Local\Temp\ccUIzJuS.s:25556  .debug_str:0000000000019be3 .LASF4932
C:\Users\SOLDER~1\AppData\Local\Temp\ccUIzJuS.s:22314  .debug_str:000000000000c860 .LASF4933
C:\Users\SOLDER~1\AppData\Local\Temp\ccUIzJuS.s:28834  .debug_str:000000000002724d .LASF4934
C:\Users\SOLDER~1\AppData\Local\Temp\ccUIzJuS.s:29874  .debug_str:000000000002b657 .LASF4935
C:\Users\SOLDER~1\AppData\Local\Temp\ccUIzJuS.s:27154  .debug_str:000000000002042d .LASF4936
C:\Users\SOLDER~1\AppData\Local\Temp\ccUIzJuS.s:23936  .debug_str:00000000000131e3 .LASF4937
C:\Users\SOLDER~1\AppData\Local\Temp\ccUIzJuS.s:25366  .debug_str:0000000000018fe7 .LASF4938
C:\Users\SOLDER~1\AppData\Local\Temp\ccUIzJuS.s:27146  .debug_str:00000000000203a8 .LASF4939
C:\Users\SOLDER~1\AppData\Local\Temp\ccUIzJuS.s:24278  .debug_str:00000000000149a1 .LASF4940
C:\Users\SOLDER~1\AppData\Local\Temp\ccUIzJuS.s:25848  .debug_str:000000000001aeee .LASF4941
C:\Users\SOLDER~1\AppData\Local\Temp\ccUIzJuS.s:23158  .debug_str:0000000000010024 .LASF4942
C:\Users\SOLDER~1\AppData\Local\Temp\ccUIzJuS.s:28728  .debug_str:0000000000026b49 .LASF4943
C:\Users\SOLDER~1\AppData\Local\Temp\ccUIzJuS.s:26948  .debug_str:000000000001f705 .LASF4944
C:\Users\SOLDER~1\AppData\Local\Temp\ccUIzJuS.s:19780  .debug_str:0000000000002358 .LASF4945
C:\Users\SOLDER~1\AppData\Local\Temp\ccUIzJuS.s:19538  .debug_str:00000000000013ec .LASF4946
C:\Users\SOLDER~1\AppData\Local\Temp\ccUIzJuS.s:20628  .debug_str:00000000000059b3 .LASF4947
C:\Users\SOLDER~1\AppData\Local\Temp\ccUIzJuS.s:23176  .debug_str:0000000000010110 .LASF4948
C:\Users\SOLDER~1\AppData\Local\Temp\ccUIzJuS.s:23702  .debug_str:00000000000122ce .LASF4949
C:\Users\SOLDER~1\AppData\Local\Temp\ccUIzJuS.s:29232  .debug_str:0000000000028cb7 .LASF4950
C:\Users\SOLDER~1\AppData\Local\Temp\ccUIzJuS.s:26008  .debug_str:000000000001b8dc .LASF4951
C:\Users\SOLDER~1\AppData\Local\Temp\ccUIzJuS.s:23958  .debug_str:0000000000013392 .LASF4952
C:\Users\SOLDER~1\AppData\Local\Temp\ccUIzJuS.s:27470  .debug_str:0000000000021887 .LASF4953
C:\Users\SOLDER~1\AppData\Local\Temp\ccUIzJuS.s:25214  .debug_str:00000000000185de .LASF4954
C:\Users\SOLDER~1\AppData\Local\Temp\ccUIzJuS.s:26982  .debug_str:000000000001f941 .LASF4955
C:\Users\SOLDER~1\AppData\Local\Temp\ccUIzJuS.s:25264  .debug_str:0000000000018929 .LASF4956
C:\Users\SOLDER~1\AppData\Local\Temp\ccUIzJuS.s:24004  .debug_str:00000000000136a1 .LASF4957
C:\Users\SOLDER~1\AppData\Local\Temp\ccUIzJuS.s:21540  .debug_str:0000000000009588 .LASF4958
C:\Users\SOLDER~1\AppData\Local\Temp\ccUIzJuS.s:28026  .debug_str:0000000000023c19 .LASF4959
C:\Users\SOLDER~1\AppData\Local\Temp\ccUIzJuS.s:29180  .debug_str:0000000000028959 .LASF4960
C:\Users\SOLDER~1\AppData\Local\Temp\ccUIzJuS.s:27382  .debug_str:0000000000021316 .LASF4961
C:\Users\SOLDER~1\AppData\Local\Temp\ccUIzJuS.s:27380  .debug_str:00000000000212f7 .LASF4962
C:\Users\SOLDER~1\AppData\Local\Temp\ccUIzJuS.s:19438  .debug_str:0000000000000da2 .LASF4963
C:\Users\SOLDER~1\AppData\Local\Temp\ccUIzJuS.s:30774  .debug_str:000000000002f000 .LASF4964
C:\Users\SOLDER~1\AppData\Local\Temp\ccUIzJuS.s:26340  .debug_str:000000000001cf1f .LASF4965
C:\Users\SOLDER~1\AppData\Local\Temp\ccUIzJuS.s:21674  .debug_str:0000000000009e02 .LASF4966
C:\Users\SOLDER~1\AppData\Local\Temp\ccUIzJuS.s:23970  .debug_str:0000000000013440 .LASF4967
C:\Users\SOLDER~1\AppData\Local\Temp\ccUIzJuS.s:29998  .debug_str:000000000002be54 .LASF4968
C:\Users\SOLDER~1\AppData\Local\Temp\ccUIzJuS.s:21718  .debug_str:000000000000a0f1 .LASF4969
C:\Users\SOLDER~1\AppData\Local\Temp\ccUIzJuS.s:23618  .debug_str:0000000000011d8d .LASF4970
C:\Users\SOLDER~1\AppData\Local\Temp\ccUIzJuS.s:29532  .debug_str:000000000002a006 .LASF4971
C:\Users\SOLDER~1\AppData\Local\Temp\ccUIzJuS.s:24110  .debug_str:0000000000013e45 .LASF4972
C:\Users\SOLDER~1\AppData\Local\Temp\ccUIzJuS.s:19624  .debug_str:0000000000001930 .LASF4973
C:\Users\SOLDER~1\AppData\Local\Temp\ccUIzJuS.s:24774  .debug_str:000000000001694c .LASF4974
C:\Users\SOLDER~1\AppData\Local\Temp\ccUIzJuS.s:22672  .debug_str:000000000000e011 .LASF4975
C:\Users\SOLDER~1\AppData\Local\Temp\ccUIzJuS.s:21972  .debug_str:000000000000b181 .LASF4976
C:\Users\SOLDER~1\AppData\Local\Temp\ccUIzJuS.s:22318  .debug_str:000000000000c8a5 .LASF4977
GAS LISTING C:\Users\SOLDER~1\AppData\Local\Temp\ccUIzJuS.s 			page 116


C:\Users\SOLDER~1\AppData\Local\Temp\ccUIzJuS.s:19380  .debug_str:0000000000000994 .LASF4978
C:\Users\SOLDER~1\AppData\Local\Temp\ccUIzJuS.s:28224  .debug_str:0000000000024952 .LASF4979
C:\Users\SOLDER~1\AppData\Local\Temp\ccUIzJuS.s:19946  .debug_str:0000000000002de3 .LASF4980
C:\Users\SOLDER~1\AppData\Local\Temp\ccUIzJuS.s:21858  .debug_str:000000000000aa74 .LASF4981
C:\Users\SOLDER~1\AppData\Local\Temp\ccUIzJuS.s:21170  .debug_str:0000000000007d00 .LASF4982
C:\Users\SOLDER~1\AppData\Local\Temp\ccUIzJuS.s:23494  .debug_str:00000000000115b2 .LASF4983
C:\Users\SOLDER~1\AppData\Local\Temp\ccUIzJuS.s:26082  .debug_str:000000000001bd7e .LASF4984
C:\Users\SOLDER~1\AppData\Local\Temp\ccUIzJuS.s:22122  .debug_str:000000000000bb63 .LASF4985
C:\Users\SOLDER~1\AppData\Local\Temp\ccUIzJuS.s:24040  .debug_str:00000000000138f9 .LASF4986
C:\Users\SOLDER~1\AppData\Local\Temp\ccUIzJuS.s:21418  .debug_str:0000000000008d1a .LASF4987
C:\Users\SOLDER~1\AppData\Local\Temp\ccUIzJuS.s:29072  .debug_str:0000000000028239 .LASF4988
C:\Users\SOLDER~1\AppData\Local\Temp\ccUIzJuS.s:23598  .debug_str:0000000000011c29 .LASF4989
C:\Users\SOLDER~1\AppData\Local\Temp\ccUIzJuS.s:21024  .debug_str:00000000000073eb .LASF4990
C:\Users\SOLDER~1\AppData\Local\Temp\ccUIzJuS.s:19670  .debug_str:0000000000001c58 .LASF4991
C:\Users\SOLDER~1\AppData\Local\Temp\ccUIzJuS.s:27794  .debug_str:0000000000022d08 .LASF4992
C:\Users\SOLDER~1\AppData\Local\Temp\ccUIzJuS.s:23548  .debug_str:0000000000011900 .LASF4993
C:\Users\SOLDER~1\AppData\Local\Temp\ccUIzJuS.s:21504  .debug_str:00000000000092ff .LASF4994
C:\Users\SOLDER~1\AppData\Local\Temp\ccUIzJuS.s:21228  .debug_str:00000000000080d7 .LASF4995
C:\Users\SOLDER~1\AppData\Local\Temp\ccUIzJuS.s:26406  .debug_str:000000000001d383 .LASF4996
C:\Users\SOLDER~1\AppData\Local\Temp\ccUIzJuS.s:28640  .debug_str:0000000000026565 .LASF4997
C:\Users\SOLDER~1\AppData\Local\Temp\ccUIzJuS.s:30694  .debug_str:000000000002eb0a .LASF4998
C:\Users\SOLDER~1\AppData\Local\Temp\ccUIzJuS.s:22022  .debug_str:000000000000b4f8 .LASF4999
C:\Users\SOLDER~1\AppData\Local\Temp\ccUIzJuS.s:21676  .debug_str:0000000000009e29 .LASF5000
C:\Users\SOLDER~1\AppData\Local\Temp\ccUIzJuS.s:21392  .debug_str:0000000000008b5d .LASF5001
C:\Users\SOLDER~1\AppData\Local\Temp\ccUIzJuS.s:28010  .debug_str:0000000000023b02 .LASF5002
C:\Users\SOLDER~1\AppData\Local\Temp\ccUIzJuS.s:21672  .debug_str:0000000000009dd5 .LASF5003
C:\Users\SOLDER~1\AppData\Local\Temp\ccUIzJuS.s:26826  .debug_str:000000000001eea4 .LASF5004
C:\Users\SOLDER~1\AppData\Local\Temp\ccUIzJuS.s:22126  .debug_str:000000000000bbb2 .LASF5005
C:\Users\SOLDER~1\AppData\Local\Temp\ccUIzJuS.s:21486  .debug_str:00000000000091de .LASF5006
C:\Users\SOLDER~1\AppData\Local\Temp\ccUIzJuS.s:29052  .debug_str:00000000000280d1 .LASF5007
C:\Users\SOLDER~1\AppData\Local\Temp\ccUIzJuS.s:24234  .debug_str:00000000000146c6 .LASF5008
C:\Users\SOLDER~1\AppData\Local\Temp\ccUIzJuS.s:29196  .debug_str:0000000000028a75 .LASF5009
C:\Users\SOLDER~1\AppData\Local\Temp\ccUIzJuS.s:25928  .debug_str:000000000001b3c9 .LASF5010
C:\Users\SOLDER~1\AppData\Local\Temp\ccUIzJuS.s:21230  .debug_str:0000000000008105 .LASF5011
C:\Users\SOLDER~1\AppData\Local\Temp\ccUIzJuS.s:26514  .debug_str:000000000001da19 .LASF5012
C:\Users\SOLDER~1\AppData\Local\Temp\ccUIzJuS.s:27494  .debug_str:0000000000021a10 .LASF5013
C:\Users\SOLDER~1\AppData\Local\Temp\ccUIzJuS.s:26024  .debug_str:000000000001b9b0 .LASF5014
C:\Users\SOLDER~1\AppData\Local\Temp\ccUIzJuS.s:28090  .debug_str:0000000000024045 .LASF5015
C:\Users\SOLDER~1\AppData\Local\Temp\ccUIzJuS.s:19620  .debug_str:0000000000001906 .LASF5016
C:\Users\SOLDER~1\AppData\Local\Temp\ccUIzJuS.s:27006  .debug_str:000000000001fab6 .LASF5017
C:\Users\SOLDER~1\AppData\Local\Temp\ccUIzJuS.s:20140  .debug_str:0000000000003a84 .LASF5018
C:\Users\SOLDER~1\AppData\Local\Temp\ccUIzJuS.s:20066  .debug_str:00000000000035a8 .LASF5019
C:\Users\SOLDER~1\AppData\Local\Temp\ccUIzJuS.s:28476  .debug_str:00000000000259f6 .LASF5020
C:\Users\SOLDER~1\AppData\Local\Temp\ccUIzJuS.s:26274  .debug_str:000000000001ca85 .LASF5021
C:\Users\SOLDER~1\AppData\Local\Temp\ccUIzJuS.s:23700  .debug_str:00000000000122ae .LASF5022
C:\Users\SOLDER~1\AppData\Local\Temp\ccUIzJuS.s:29268  .debug_str:0000000000028ef4 .LASF5023
C:\Users\SOLDER~1\AppData\Local\Temp\ccUIzJuS.s:23220  .debug_str:0000000000010427 .LASF5024
C:\Users\SOLDER~1\AppData\Local\Temp\ccUIzJuS.s:20892  .debug_str:0000000000006b1f .LASF5025
C:\Users\SOLDER~1\AppData\Local\Temp\ccUIzJuS.s:25842  .debug_str:000000000001ae8f .LASF5026
C:\Users\SOLDER~1\AppData\Local\Temp\ccUIzJuS.s:22088  .debug_str:000000000000b923 .LASF5027
C:\Users\SOLDER~1\AppData\Local\Temp\ccUIzJuS.s:26028  .debug_str:000000000001b9fd .LASF5028
C:\Users\SOLDER~1\AppData\Local\Temp\ccUIzJuS.s:27100  .debug_str:00000000000200bd .LASF5029
C:\Users\SOLDER~1\AppData\Local\Temp\ccUIzJuS.s:23196  .debug_str:000000000001024d .LASF5030
C:\Users\SOLDER~1\AppData\Local\Temp\ccUIzJuS.s:22946  .debug_str:000000000000f1e2 .LASF5031
C:\Users\SOLDER~1\AppData\Local\Temp\ccUIzJuS.s:30764  .debug_str:000000000002ef62 .LASF5032
C:\Users\SOLDER~1\AppData\Local\Temp\ccUIzJuS.s:22410  .debug_str:000000000000ceda .LASF5033
C:\Users\SOLDER~1\AppData\Local\Temp\ccUIzJuS.s:23090  .debug_str:000000000000fb7c .LASF5034
GAS LISTING C:\Users\SOLDER~1\AppData\Local\Temp\ccUIzJuS.s 			page 117


C:\Users\SOLDER~1\AppData\Local\Temp\ccUIzJuS.s:20236  .debug_str:00000000000040b8 .LASF5035
C:\Users\SOLDER~1\AppData\Local\Temp\ccUIzJuS.s:28860  .debug_str:0000000000027412 .LASF5036
C:\Users\SOLDER~1\AppData\Local\Temp\ccUIzJuS.s:29932  .debug_str:000000000002ba20 .LASF5037
C:\Users\SOLDER~1\AppData\Local\Temp\ccUIzJuS.s:26712  .debug_str:000000000001e6fd .LASF5038
C:\Users\SOLDER~1\AppData\Local\Temp\ccUIzJuS.s:25112  .debug_str:0000000000017f4c .LASF5039
C:\Users\SOLDER~1\AppData\Local\Temp\ccUIzJuS.s:25872  .debug_str:000000000001b07c .LASF5040
C:\Users\SOLDER~1\AppData\Local\Temp\ccUIzJuS.s:24858  .debug_str:0000000000016e74 .LASF5041
C:\Users\SOLDER~1\AppData\Local\Temp\ccUIzJuS.s:25182  .debug_str:00000000000183f7 .LASF5042
C:\Users\SOLDER~1\AppData\Local\Temp\ccUIzJuS.s:23858  .debug_str:0000000000012d05 .LASF5043
C:\Users\SOLDER~1\AppData\Local\Temp\ccUIzJuS.s:29448  .debug_str:0000000000029a84 .LASF5044
C:\Users\SOLDER~1\AppData\Local\Temp\ccUIzJuS.s:22762  .debug_str:000000000000e629 .LASF5045
C:\Users\SOLDER~1\AppData\Local\Temp\ccUIzJuS.s:27008  .debug_str:000000000001fadb .LASF5046
C:\Users\SOLDER~1\AppData\Local\Temp\ccUIzJuS.s:28858  .debug_str:00000000000273e1 .LASF5047
C:\Users\SOLDER~1\AppData\Local\Temp\ccUIzJuS.s:30748  .debug_str:000000000002ee71 .LASF5048
C:\Users\SOLDER~1\AppData\Local\Temp\ccUIzJuS.s:30680  .debug_str:000000000002ea25 .LASF5049
C:\Users\SOLDER~1\AppData\Local\Temp\ccUIzJuS.s:24820  .debug_str:0000000000016c56 .LASF5050
C:\Users\SOLDER~1\AppData\Local\Temp\ccUIzJuS.s:24228  .debug_str:000000000001465f .LASF5051
C:\Users\SOLDER~1\AppData\Local\Temp\ccUIzJuS.s:24070  .debug_str:0000000000013b71 .LASF5052
C:\Users\SOLDER~1\AppData\Local\Temp\ccUIzJuS.s:28910  .debug_str:000000000002778b .LASF5053
C:\Users\SOLDER~1\AppData\Local\Temp\ccUIzJuS.s:25124  .debug_str:000000000001802d .LASF5054
C:\Users\SOLDER~1\AppData\Local\Temp\ccUIzJuS.s:19560  .debug_str:0000000000001572 .LASF5055
C:\Users\SOLDER~1\AppData\Local\Temp\ccUIzJuS.s:27226  .debug_str:00000000000208f1 .LASF5056
C:\Users\SOLDER~1\AppData\Local\Temp\ccUIzJuS.s:27010  .debug_str:000000000001fb0b .LASF5057
C:\Users\SOLDER~1\AppData\Local\Temp\ccUIzJuS.s:21932  .debug_str:000000000000af32 .LASF5058
C:\Users\SOLDER~1\AppData\Local\Temp\ccUIzJuS.s:28794  .debug_str:0000000000026f95 .LASF5059
C:\Users\SOLDER~1\AppData\Local\Temp\ccUIzJuS.s:27686  .debug_str:00000000000225af .LASF5060
C:\Users\SOLDER~1\AppData\Local\Temp\ccUIzJuS.s:24420  .debug_str:00000000000152cd .LASF5061
C:\Users\SOLDER~1\AppData\Local\Temp\ccUIzJuS.s:28544  .debug_str:0000000000025e8b .LASF5062
C:\Users\SOLDER~1\AppData\Local\Temp\ccUIzJuS.s:23450  .debug_str:000000000001129d .LASF5063
C:\Users\SOLDER~1\AppData\Local\Temp\ccUIzJuS.s:30446  .debug_str:000000000002db38 .LASF5064
C:\Users\SOLDER~1\AppData\Local\Temp\ccUIzJuS.s:26952  .debug_str:000000000001f745 .LASF5065
C:\Users\SOLDER~1\AppData\Local\Temp\ccUIzJuS.s:27816  .debug_str:0000000000022e76 .LASF5066
C:\Users\SOLDER~1\AppData\Local\Temp\ccUIzJuS.s:29332  .debug_str:00000000000292f0 .LASF5067
C:\Users\SOLDER~1\AppData\Local\Temp\ccUIzJuS.s:25402  .debug_str:0000000000019223 .LASF5068
C:\Users\SOLDER~1\AppData\Local\Temp\ccUIzJuS.s:26154  .debug_str:000000000001c26d .LASF5069
C:\Users\SOLDER~1\AppData\Local\Temp\ccUIzJuS.s:19378  .debug_str:0000000000000973 .LASF5070
C:\Users\SOLDER~1\AppData\Local\Temp\ccUIzJuS.s:27074  .debug_str:000000000001ff0f .LASF5071
C:\Users\SOLDER~1\AppData\Local\Temp\ccUIzJuS.s:29174  .debug_str:00000000000288e8 .LASF5072
C:\Users\SOLDER~1\AppData\Local\Temp\ccUIzJuS.s:27362  .debug_str:00000000000211c5 .LASF5073
C:\Users\SOLDER~1\AppData\Local\Temp\ccUIzJuS.s:19534  .debug_str:0000000000001393 .LASF5074
C:\Users\SOLDER~1\AppData\Local\Temp\ccUIzJuS.s:19248  .debug_str:0000000000000048 .LASF5075
C:\Users\SOLDER~1\AppData\Local\Temp\ccUIzJuS.s:26010  .debug_str:000000000001b8fa .LASF5076
C:\Users\SOLDER~1\AppData\Local\Temp\ccUIzJuS.s:30412  .debug_str:000000000002d90b .LASF5077
C:\Users\SOLDER~1\AppData\Local\Temp\ccUIzJuS.s:19278  .debug_str:0000000000000216 .LASF5078
C:\Users\SOLDER~1\AppData\Local\Temp\ccUIzJuS.s:21648  .debug_str:0000000000009c39 .LASF5079
C:\Users\SOLDER~1\AppData\Local\Temp\ccUIzJuS.s:30790  .debug_str:000000000002f12c .LASF5080
C:\Users\SOLDER~1\AppData\Local\Temp\ccUIzJuS.s:23668  .debug_str:000000000001209c .LASF5081
C:\Users\SOLDER~1\AppData\Local\Temp\ccUIzJuS.s:25314  .debug_str:0000000000018c63 .LASF5082
C:\Users\SOLDER~1\AppData\Local\Temp\ccUIzJuS.s:21172  .debug_str:0000000000007d2e .LASF5083
C:\Users\SOLDER~1\AppData\Local\Temp\ccUIzJuS.s:21182  .debug_str:0000000000007dd0 .LASF5084
C:\Users\SOLDER~1\AppData\Local\Temp\ccUIzJuS.s:26796  .debug_str:000000000001ecaa .LASF5085
C:\Users\SOLDER~1\AppData\Local\Temp\ccUIzJuS.s:30406  .debug_str:000000000002d8a1 .LASF5086
C:\Users\SOLDER~1\AppData\Local\Temp\ccUIzJuS.s:23354  .debug_str:0000000000010c77 .LASF5087
C:\Users\SOLDER~1\AppData\Local\Temp\ccUIzJuS.s:21492  .debug_str:000000000000924a .LASF5088
C:\Users\SOLDER~1\AppData\Local\Temp\ccUIzJuS.s:24112  .debug_str:0000000000013e70 .LASF5089
C:\Users\SOLDER~1\AppData\Local\Temp\ccUIzJuS.s:28172  .debug_str:00000000000245c3 .LASF5090
C:\Users\SOLDER~1\AppData\Local\Temp\ccUIzJuS.s:24700  .debug_str:00000000000164dc .LASF5091
GAS LISTING C:\Users\SOLDER~1\AppData\Local\Temp\ccUIzJuS.s 			page 118


C:\Users\SOLDER~1\AppData\Local\Temp\ccUIzJuS.s:23080  .debug_str:000000000000facc .LASF5092
C:\Users\SOLDER~1\AppData\Local\Temp\ccUIzJuS.s:30726  .debug_str:000000000002ed1b .LASF5093
C:\Users\SOLDER~1\AppData\Local\Temp\ccUIzJuS.s:22380  .debug_str:000000000000cce4 .LASF5094
C:\Users\SOLDER~1\AppData\Local\Temp\ccUIzJuS.s:26822  .debug_str:000000000001ee55 .LASF5095
C:\Users\SOLDER~1\AppData\Local\Temp\ccUIzJuS.s:19950  .debug_str:0000000000002e27 .LASF5096
C:\Users\SOLDER~1\AppData\Local\Temp\ccUIzJuS.s:23454  .debug_str:00000000000112e2 .LASF5097
C:\Users\SOLDER~1\AppData\Local\Temp\ccUIzJuS.s:26586  .debug_str:000000000001defb .LASF5098
C:\Users\SOLDER~1\AppData\Local\Temp\ccUIzJuS.s:24338  .debug_str:0000000000014dba .LASF5099
C:\Users\SOLDER~1\AppData\Local\Temp\ccUIzJuS.s:28422  .debug_str:000000000002564d .LASF5100
C:\Users\SOLDER~1\AppData\Local\Temp\ccUIzJuS.s:26108  .debug_str:000000000001bf54 .LASF5101
C:\Users\SOLDER~1\AppData\Local\Temp\ccUIzJuS.s:22532  .debug_str:000000000000d6eb .LASF5102
C:\Users\SOLDER~1\AppData\Local\Temp\ccUIzJuS.s:20742  .debug_str:0000000000006108 .LASF5103
C:\Users\SOLDER~1\AppData\Local\Temp\ccUIzJuS.s:30678  .debug_str:000000000002e9ee .LASF5104
C:\Users\SOLDER~1\AppData\Local\Temp\ccUIzJuS.s:19536  .debug_str:00000000000013b6 .LASF5105
C:\Users\SOLDER~1\AppData\Local\Temp\ccUIzJuS.s:22326  .debug_str:000000000000c934 .LASF5106
C:\Users\SOLDER~1\AppData\Local\Temp\ccUIzJuS.s:28848  .debug_str:0000000000027326 .LASF5107
C:\Users\SOLDER~1\AppData\Local\Temp\ccUIzJuS.s:25758  .debug_str:000000000001a8d7 .LASF5108
C:\Users\SOLDER~1\AppData\Local\Temp\ccUIzJuS.s:21800  .debug_str:000000000000a678 .LASF5109
C:\Users\SOLDER~1\AppData\Local\Temp\ccUIzJuS.s:19806  .debug_str:000000000000251d .LASF5110
C:\Users\SOLDER~1\AppData\Local\Temp\ccUIzJuS.s:25832  .debug_str:000000000001add0 .LASF5111
C:\Users\SOLDER~1\AppData\Local\Temp\ccUIzJuS.s:28518  .debug_str:0000000000025cba .LASF5112
C:\Users\SOLDER~1\AppData\Local\Temp\ccUIzJuS.s:21482  .debug_str:0000000000009184 .LASF5113
C:\Users\SOLDER~1\AppData\Local\Temp\ccUIzJuS.s:28610  .debug_str:0000000000026346 .LASF5114
C:\Users\SOLDER~1\AppData\Local\Temp\ccUIzJuS.s:20502  .debug_str:0000000000005185 .LASF5115
C:\Users\SOLDER~1\AppData\Local\Temp\ccUIzJuS.s:19408  .debug_str:0000000000000b78 .LASF5116
C:\Users\SOLDER~1\AppData\Local\Temp\ccUIzJuS.s:22330  .debug_str:000000000000c98e .LASF5117
C:\Users\SOLDER~1\AppData\Local\Temp\ccUIzJuS.s:23622  .debug_str:0000000000011dd4 .LASF5118
C:\Users\SOLDER~1\AppData\Local\Temp\ccUIzJuS.s:24764  .debug_str:00000000000168aa .LASF5119
C:\Users\SOLDER~1\AppData\Local\Temp\ccUIzJuS.s:20790  .debug_str:0000000000006455 .LASF5120
C:\Users\SOLDER~1\AppData\Local\Temp\ccUIzJuS.s:29074  .debug_str:0000000000028260 .LASF5121
C:\Users\SOLDER~1\AppData\Local\Temp\ccUIzJuS.s:27746  .debug_str:00000000000229ca .LASF5122
C:\Users\SOLDER~1\AppData\Local\Temp\ccUIzJuS.s:24036  .debug_str:000000000001389d .LASF5123
C:\Users\SOLDER~1\AppData\Local\Temp\ccUIzJuS.s:27438  .debug_str:000000000002169f .LASF5124
C:\Users\SOLDER~1\AppData\Local\Temp\ccUIzJuS.s:28208  .debug_str:000000000002482e .LASF5125
C:\Users\SOLDER~1\AppData\Local\Temp\ccUIzJuS.s:26278  .debug_str:000000000001cacb .LASF5126
C:\Users\SOLDER~1\AppData\Local\Temp\ccUIzJuS.s:24780  .debug_str:00000000000169b6 .LASF5127
C:\Users\SOLDER~1\AppData\Local\Temp\ccUIzJuS.s:28058  .debug_str:0000000000023e37 .LASF5128
C:\Users\SOLDER~1\AppData\Local\Temp\ccUIzJuS.s:30368  .debug_str:000000000002d65f .LASF5129
C:\Users\SOLDER~1\AppData\Local\Temp\ccUIzJuS.s:25656  .debug_str:000000000001a213 .LASF5130
C:\Users\SOLDER~1\AppData\Local\Temp\ccUIzJuS.s:25982  .debug_str:000000000001b74e .LASF5131
C:\Users\SOLDER~1\AppData\Local\Temp\ccUIzJuS.s:27228  .debug_str:0000000000020912 .LASF5132
C:\Users\SOLDER~1\AppData\Local\Temp\ccUIzJuS.s:26046  .debug_str:000000000001bb4e .LASF5133
C:\Users\SOLDER~1\AppData\Local\Temp\ccUIzJuS.s:24056  .debug_str:0000000000013a38 .LASF5134
C:\Users\SOLDER~1\AppData\Local\Temp\ccUIzJuS.s:28456  .debug_str:0000000000025867 .LASF5135
C:\Users\SOLDER~1\AppData\Local\Temp\ccUIzJuS.s:19600  .debug_str:0000000000001809 .LASF5136
C:\Users\SOLDER~1\AppData\Local\Temp\ccUIzJuS.s:23542  .debug_str:00000000000118a5 .LASF5137
C:\Users\SOLDER~1\AppData\Local\Temp\ccUIzJuS.s:23550  .debug_str:000000000001192a .LASF5138
C:\Users\SOLDER~1\AppData\Local\Temp\ccUIzJuS.s:21866  .debug_str:000000000000aafb .LASF5139
C:\Users\SOLDER~1\AppData\Local\Temp\ccUIzJuS.s:22232  .debug_str:000000000000c29b .LASF5140
C:\Users\SOLDER~1\AppData\Local\Temp\ccUIzJuS.s:21382  .debug_str:0000000000008ac2 .LASF5141
C:\Users\SOLDER~1\AppData\Local\Temp\ccUIzJuS.s:21260  .debug_str:00000000000082f5 .LASF5142
C:\Users\SOLDER~1\AppData\Local\Temp\ccUIzJuS.s:20270  .debug_str:00000000000042e2 .LASF5143
C:\Users\SOLDER~1\AppData\Local\Temp\ccUIzJuS.s:22488  .debug_str:000000000000d41f .LASF5144
C:\Users\SOLDER~1\AppData\Local\Temp\ccUIzJuS.s:27264  .debug_str:0000000000020b6a .LASF5145
C:\Users\SOLDER~1\AppData\Local\Temp\ccUIzJuS.s:22968  .debug_str:000000000000f352 .LASF5146
C:\Users\SOLDER~1\AppData\Local\Temp\ccUIzJuS.s:20022  .debug_str:00000000000032de .LASF5147
C:\Users\SOLDER~1\AppData\Local\Temp\ccUIzJuS.s:29712  .debug_str:000000000002ab8c .LASF5148
GAS LISTING C:\Users\SOLDER~1\AppData\Local\Temp\ccUIzJuS.s 			page 119


C:\Users\SOLDER~1\AppData\Local\Temp\ccUIzJuS.s:23278  .debug_str:0000000000010796 .LASF5149
C:\Users\SOLDER~1\AppData\Local\Temp\ccUIzJuS.s:29518  .debug_str:0000000000029efd .LASF5150
C:\Users\SOLDER~1\AppData\Local\Temp\ccUIzJuS.s:23046  .debug_str:000000000000f863 .LASF5151
C:\Users\SOLDER~1\AppData\Local\Temp\ccUIzJuS.s:19800  .debug_str:00000000000024ba .LASF5152
C:\Users\SOLDER~1\AppData\Local\Temp\ccUIzJuS.s:25672  .debug_str:000000000001a2fe .LASF5153
C:\Users\SOLDER~1\AppData\Local\Temp\ccUIzJuS.s:20070  .debug_str:00000000000035e9 .LASF5154
C:\Users\SOLDER~1\AppData\Local\Temp\ccUIzJuS.s:20474  .debug_str:0000000000004feb .LASF5155
C:\Users\SOLDER~1\AppData\Local\Temp\ccUIzJuS.s:29608  .debug_str:000000000002a53f .LASF5156
C:\Users\SOLDER~1\AppData\Local\Temp\ccUIzJuS.s:19294  .debug_str:000000000000033e .LASF5157
C:\Users\SOLDER~1\AppData\Local\Temp\ccUIzJuS.s:20982  .debug_str:0000000000007147 .LASF5158
C:\Users\SOLDER~1\AppData\Local\Temp\ccUIzJuS.s:29850  .debug_str:000000000002b4ed .LASF5159
C:\Users\SOLDER~1\AppData\Local\Temp\ccUIzJuS.s:21862  .debug_str:000000000000aab9 .LASF5160
C:\Users\SOLDER~1\AppData\Local\Temp\ccUIzJuS.s:28614  .debug_str:000000000002639a .LASF5161
C:\Users\SOLDER~1\AppData\Local\Temp\ccUIzJuS.s:29978  .debug_str:000000000002bd05 .LASF5162
C:\Users\SOLDER~1\AppData\Local\Temp\ccUIzJuS.s:23224  .debug_str:0000000000010461 .LASF5163
C:\Users\SOLDER~1\AppData\Local\Temp\ccUIzJuS.s:22236  .debug_str:000000000000c2ee .LASF5164
C:\Users\SOLDER~1\AppData\Local\Temp\ccUIzJuS.s:28270  .debug_str:0000000000024c57 .LASF5165
C:\Users\SOLDER~1\AppData\Local\Temp\ccUIzJuS.s:25530  .debug_str:0000000000019a20 .LASF5166
C:\Users\SOLDER~1\AppData\Local\Temp\ccUIzJuS.s:22776  .debug_str:000000000000e71a .LASF5167
C:\Users\SOLDER~1\AppData\Local\Temp\ccUIzJuS.s:30598  .debug_str:000000000002e4c6 .LASF5168
C:\Users\SOLDER~1\AppData\Local\Temp\ccUIzJuS.s:23476  .debug_str:0000000000011440 .LASF5169
C:\Users\SOLDER~1\AppData\Local\Temp\ccUIzJuS.s:26334  .debug_str:000000000001cebc .LASF5170
C:\Users\SOLDER~1\AppData\Local\Temp\ccUIzJuS.s:25062  .debug_str:0000000000017be2 .LASF5171
C:\Users\SOLDER~1\AppData\Local\Temp\ccUIzJuS.s:21158  .debug_str:0000000000007c2d .LASF5172
C:\Users\SOLDER~1\AppData\Local\Temp\ccUIzJuS.s:30566  .debug_str:000000000002e2b4 .LASF5173
C:\Users\SOLDER~1\AppData\Local\Temp\ccUIzJuS.s:26676  .debug_str:000000000001e49a .LASF5174
C:\Users\SOLDER~1\AppData\Local\Temp\ccUIzJuS.s:19544  .debug_str:000000000000144a .LASF5175
C:\Users\SOLDER~1\AppData\Local\Temp\ccUIzJuS.s:24568  .debug_str:0000000000015c5e .LASF5176
C:\Users\SOLDER~1\AppData\Local\Temp\ccUIzJuS.s:28784  .debug_str:0000000000026ed5 .LASF5177
C:\Users\SOLDER~1\AppData\Local\Temp\ccUIzJuS.s:23682  .debug_str:0000000000012170 .LASF5178
C:\Users\SOLDER~1\AppData\Local\Temp\ccUIzJuS.s:29022  .debug_str:0000000000027ecf .LASF5179
C:\Users\SOLDER~1\AppData\Local\Temp\ccUIzJuS.s:19628  .debug_str:000000000000198a .LASF5180
C:\Users\SOLDER~1\AppData\Local\Temp\ccUIzJuS.s:27672  .debug_str:00000000000224bb .LASF5181
C:\Users\SOLDER~1\AppData\Local\Temp\ccUIzJuS.s:25650  .debug_str:000000000001a1ad .LASF5182
C:\Users\SOLDER~1\AppData\Local\Temp\ccUIzJuS.s:24588  .debug_str:0000000000015d9f .LASF5183
C:\Users\SOLDER~1\AppData\Local\Temp\ccUIzJuS.s:21876  .debug_str:000000000000ab7e .LASF5184
C:\Users\SOLDER~1\AppData\Local\Temp\ccUIzJuS.s:19386  .debug_str:00000000000009f9 .LASF5185
C:\Users\SOLDER~1\AppData\Local\Temp\ccUIzJuS.s:26784  .debug_str:000000000001ebeb .LASF5186
C:\Users\SOLDER~1\AppData\Local\Temp\ccUIzJuS.s:29566  .debug_str:000000000002a240 .LASF5187
C:\Users\SOLDER~1\AppData\Local\Temp\ccUIzJuS.s:25012  .debug_str:00000000000178ca .LASF5188
C:\Users\SOLDER~1\AppData\Local\Temp\ccUIzJuS.s:23188  .debug_str:00000000000101df .LASF5189
C:\Users\SOLDER~1\AppData\Local\Temp\ccUIzJuS.s:19944  .debug_str:0000000000002dc5 .LASF5190
C:\Users\SOLDER~1\AppData\Local\Temp\ccUIzJuS.s:21092  .debug_str:00000000000077d9 .LASF5191
C:\Users\SOLDER~1\AppData\Local\Temp\ccUIzJuS.s:26558  .debug_str:000000000001dd02 .LASF5192
C:\Users\SOLDER~1\AppData\Local\Temp\ccUIzJuS.s:21192  .debug_str:0000000000007e71 .LASF5193
C:\Users\SOLDER~1\AppData\Local\Temp\ccUIzJuS.s:28418  .debug_str:0000000000025605 .LASF5194
C:\Users\SOLDER~1\AppData\Local\Temp\ccUIzJuS.s:20014  .debug_str:000000000000325e .LASF5195
C:\Users\SOLDER~1\AppData\Local\Temp\ccUIzJuS.s:20626  .debug_str:000000000000598d .LASF5196
C:\Users\SOLDER~1\AppData\Local\Temp\ccUIzJuS.s:26214  .debug_str:000000000001c66f .LASF5197
C:\Users\SOLDER~1\AppData\Local\Temp\ccUIzJuS.s:20032  .debug_str:0000000000003399 .LASF5198
C:\Users\SOLDER~1\AppData\Local\Temp\ccUIzJuS.s:30124  .debug_str:000000000002c690 .LASF5199
C:\Users\SOLDER~1\AppData\Local\Temp\ccUIzJuS.s:22918  .debug_str:000000000000f039 .LASF5200
C:\Users\SOLDER~1\AppData\Local\Temp\ccUIzJuS.s:23290  .debug_str:0000000000010881 .LASF5201
C:\Users\SOLDER~1\AppData\Local\Temp\ccUIzJuS.s:20220  .debug_str:0000000000003fb1 .LASF5202
C:\Users\SOLDER~1\AppData\Local\Temp\ccUIzJuS.s:20598  .debug_str:0000000000005781 .LASF5203
C:\Users\SOLDER~1\AppData\Local\Temp\ccUIzJuS.s:19466  .debug_str:0000000000000f55 .LASF5204
C:\Users\SOLDER~1\AppData\Local\Temp\ccUIzJuS.s:24026  .debug_str:000000000001380d .LASF5205
GAS LISTING C:\Users\SOLDER~1\AppData\Local\Temp\ccUIzJuS.s 			page 120


C:\Users\SOLDER~1\AppData\Local\Temp\ccUIzJuS.s:27880  .debug_str:0000000000023290 .LASF5206
C:\Users\SOLDER~1\AppData\Local\Temp\ccUIzJuS.s:24954  .debug_str:00000000000174c7 .LASF5207
C:\Users\SOLDER~1\AppData\Local\Temp\ccUIzJuS.s:20120  .debug_str:0000000000003920 .LASF5208
C:\Users\SOLDER~1\AppData\Local\Temp\ccUIzJuS.s:22852  .debug_str:000000000000ebe7 .LASF5209
C:\Users\SOLDER~1\AppData\Local\Temp\ccUIzJuS.s:20978  .debug_str:00000000000070fa .LASF5210
C:\Users\SOLDER~1\AppData\Local\Temp\ccUIzJuS.s:21238  .debug_str:00000000000081b1 .LASF5211
C:\Users\SOLDER~1\AppData\Local\Temp\ccUIzJuS.s:29350  .debug_str:0000000000029422 .LASF5212
C:\Users\SOLDER~1\AppData\Local\Temp\ccUIzJuS.s:24760  .debug_str:0000000000016859 .LASF5213
C:\Users\SOLDER~1\AppData\Local\Temp\ccUIzJuS.s:22320  .debug_str:000000000000c8d0 .LASF5214
C:\Users\SOLDER~1\AppData\Local\Temp\ccUIzJuS.s:28018  .debug_str:0000000000023b7d .LASF5215
C:\Users\SOLDER~1\AppData\Local\Temp\ccUIzJuS.s:26148  .debug_str:000000000001c1e5 .LASF5216
C:\Users\SOLDER~1\AppData\Local\Temp\ccUIzJuS.s:26350  .debug_str:000000000001cfbc .LASF5217
C:\Users\SOLDER~1\AppData\Local\Temp\ccUIzJuS.s:23438  .debug_str:00000000000111f3 .LASF5218
C:\Users\SOLDER~1\AppData\Local\Temp\ccUIzJuS.s:22002  .debug_str:000000000000b381 .LASF5219
C:\Users\SOLDER~1\AppData\Local\Temp\ccUIzJuS.s:26654  .debug_str:000000000001e33a .LASF5220
C:\Users\SOLDER~1\AppData\Local\Temp\ccUIzJuS.s:27014  .debug_str:000000000001fb43 .LASF5221
C:\Users\SOLDER~1\AppData\Local\Temp\ccUIzJuS.s:21638  .debug_str:0000000000009ba9 .LASF5222
C:\Users\SOLDER~1\AppData\Local\Temp\ccUIzJuS.s:29826  .debug_str:000000000002b341 .LASF5223
C:\Users\SOLDER~1\AppData\Local\Temp\ccUIzJuS.s:28602  .debug_str:0000000000026292 .LASF5224
C:\Users\SOLDER~1\AppData\Local\Temp\ccUIzJuS.s:19722  .debug_str:0000000000001fb8 .LASF5225
C:\Users\SOLDER~1\AppData\Local\Temp\ccUIzJuS.s:23946  .debug_str:00000000000132ad .LASF5226
C:\Users\SOLDER~1\AppData\Local\Temp\ccUIzJuS.s:19704  .debug_str:0000000000001e87 .LASF5227
C:\Users\SOLDER~1\AppData\Local\Temp\ccUIzJuS.s:24000  .debug_str:0000000000013650 .LASF5228
C:\Users\SOLDER~1\AppData\Local\Temp\ccUIzJuS.s:21754  .debug_str:000000000000a34b .LASF5229
C:\Users\SOLDER~1\AppData\Local\Temp\ccUIzJuS.s:27678  .debug_str:000000000002252d .LASF5230
C:\Users\SOLDER~1\AppData\Local\Temp\ccUIzJuS.s:24628  .debug_str:000000000001602f .LASF5231
C:\Users\SOLDER~1\AppData\Local\Temp\ccUIzJuS.s:24590  .debug_str:0000000000015dc4 .LASF5232
C:\Users\SOLDER~1\AppData\Local\Temp\ccUIzJuS.s:25320  .debug_str:0000000000018cb5 .LASF5233
C:\Users\SOLDER~1\AppData\Local\Temp\ccUIzJuS.s:28924  .debug_str:0000000000027871 .LASF5234
C:\Users\SOLDER~1\AppData\Local\Temp\ccUIzJuS.s:26762  .debug_str:000000000001ea72 .LASF5235
C:\Users\SOLDER~1\AppData\Local\Temp\ccUIzJuS.s:23796  .debug_str:0000000000012886 .LASF5236
C:\Users\SOLDER~1\AppData\Local\Temp\ccUIzJuS.s:24948  .debug_str:000000000001745a .LASF5237
C:\Users\SOLDER~1\AppData\Local\Temp\ccUIzJuS.s:26416  .debug_str:000000000001d440 .LASF5238
C:\Users\SOLDER~1\AppData\Local\Temp\ccUIzJuS.s:19626  .debug_str:000000000000195f .LASF5239
C:\Users\SOLDER~1\AppData\Local\Temp\ccUIzJuS.s:27938  .debug_str:0000000000023689 .LASF5240
C:\Users\SOLDER~1\AppData\Local\Temp\ccUIzJuS.s:24496  .debug_str:00000000000157b2 .LASF5241
C:\Users\SOLDER~1\AppData\Local\Temp\ccUIzJuS.s:20960  .debug_str:0000000000006fcc .LASF5242
C:\Users\SOLDER~1\AppData\Local\Temp\ccUIzJuS.s:20506  .debug_str:00000000000051d9 .LASF5243
C:\Users\SOLDER~1\AppData\Local\Temp\ccUIzJuS.s:23344  .debug_str:0000000000010be4 .LASF5244
C:\Users\SOLDER~1\AppData\Local\Temp\ccUIzJuS.s:21488  .debug_str:000000000000920e .LASF5245
C:\Users\SOLDER~1\AppData\Local\Temp\ccUIzJuS.s:28304  .debug_str:0000000000024ec0 .LASF5246
C:\Users\SOLDER~1\AppData\Local\Temp\ccUIzJuS.s:29356  .debug_str:0000000000029490 .LASF5247
C:\Users\SOLDER~1\AppData\Local\Temp\ccUIzJuS.s:20632  .debug_str:00000000000059e6 .LASF5248
C:\Users\SOLDER~1\AppData\Local\Temp\ccUIzJuS.s:24622  .debug_str:0000000000015fcd .LASF5249
C:\Users\SOLDER~1\AppData\Local\Temp\ccUIzJuS.s:22218  .debug_str:000000000000c1b0 .LASF5250
C:\Users\SOLDER~1\AppData\Local\Temp\ccUIzJuS.s:21140  .debug_str:0000000000007ae6 .LASF5251
C:\Users\SOLDER~1\AppData\Local\Temp\ccUIzJuS.s:21016  .debug_str:000000000000736d .LASF5252
C:\Users\SOLDER~1\AppData\Local\Temp\ccUIzJuS.s:27524  .debug_str:0000000000021c03 .LASF5253
C:\Users\SOLDER~1\AppData\Local\Temp\ccUIzJuS.s:25568  .debug_str:0000000000019cad .LASF5254
C:\Users\SOLDER~1\AppData\Local\Temp\ccUIzJuS.s:28938  .debug_str:0000000000027956 .LASF5255
C:\Users\SOLDER~1\AppData\Local\Temp\ccUIzJuS.s:30766  .debug_str:000000000002ef83 .LASF5256
C:\Users\SOLDER~1\AppData\Local\Temp\ccUIzJuS.s:27740  .debug_str:0000000000022951 .LASF5257
C:\Users\SOLDER~1\AppData\Local\Temp\ccUIzJuS.s:30246  .debug_str:000000000002ce1e .LASF5258
C:\Users\SOLDER~1\AppData\Local\Temp\ccUIzJuS.s:20094  .debug_str:0000000000003780 .LASF5259
C:\Users\SOLDER~1\AppData\Local\Temp\ccUIzJuS.s:29888  .debug_str:000000000002b734 .LASF5260
C:\Users\SOLDER~1\AppData\Local\Temp\ccUIzJuS.s:25322  .debug_str:0000000000018ce0 .LASF5261
C:\Users\SOLDER~1\AppData\Local\Temp\ccUIzJuS.s:25088  .debug_str:0000000000017da1 .LASF5262
GAS LISTING C:\Users\SOLDER~1\AppData\Local\Temp\ccUIzJuS.s 			page 121


C:\Users\SOLDER~1\AppData\Local\Temp\ccUIzJuS.s:19982  .debug_str:000000000000304d .LASF5263
C:\Users\SOLDER~1\AppData\Local\Temp\ccUIzJuS.s:22336  .debug_str:000000000000ca08 .LASF5264
C:\Users\SOLDER~1\AppData\Local\Temp\ccUIzJuS.s:29956  .debug_str:000000000002bbb5 .LASF5265
C:\Users\SOLDER~1\AppData\Local\Temp\ccUIzJuS.s:29330  .debug_str:00000000000292cf .LASF5266
C:\Users\SOLDER~1\AppData\Local\Temp\ccUIzJuS.s:30276  .debug_str:000000000002d015 .LASF5267
C:\Users\SOLDER~1\AppData\Local\Temp\ccUIzJuS.s:27662  .debug_str:0000000000022404 .LASF5268
C:\Users\SOLDER~1\AppData\Local\Temp\ccUIzJuS.s:23428  .debug_str:0000000000011145 .LASF5269
C:\Users\SOLDER~1\AppData\Local\Temp\ccUIzJuS.s:20620  .debug_str:0000000000005926 .LASF5270
C:\Users\SOLDER~1\AppData\Local\Temp\ccUIzJuS.s:29916  .debug_str:000000000002b91f .LASF5271
C:\Users\SOLDER~1\AppData\Local\Temp\ccUIzJuS.s:24528  .debug_str:00000000000159da .LASF5272
C:\Users\SOLDER~1\AppData\Local\Temp\ccUIzJuS.s:24224  .debug_str:000000000001461c .LASF5273
C:\Users\SOLDER~1\AppData\Local\Temp\ccUIzJuS.s:29086  .debug_str:0000000000028343 .LASF5274
C:\Users\SOLDER~1\AppData\Local\Temp\ccUIzJuS.s:20044  .debug_str:000000000000346a .LASF5275
C:\Users\SOLDER~1\AppData\Local\Temp\ccUIzJuS.s:24148  .debug_str:00000000000140c2 .LASF5276
C:\Users\SOLDER~1\AppData\Local\Temp\ccUIzJuS.s:25664  .debug_str:000000000001a27b .LASF5277
C:\Users\SOLDER~1\AppData\Local\Temp\ccUIzJuS.s:19952  .debug_str:0000000000002e4d .LASF5278
C:\Users\SOLDER~1\AppData\Local\Temp\ccUIzJuS.s:21202  .debug_str:0000000000007f26 .LASF5279
C:\Users\SOLDER~1\AppData\Local\Temp\ccUIzJuS.s:25644  .debug_str:000000000001a146 .LASF5280
C:\Users\SOLDER~1\AppData\Local\Temp\ccUIzJuS.s:24676  .debug_str:0000000000016353 .LASF5281
C:\Users\SOLDER~1\AppData\Local\Temp\ccUIzJuS.s:28216  .debug_str:00000000000248b8 .LASF5282
C:\Users\SOLDER~1\AppData\Local\Temp\ccUIzJuS.s:23698  .debug_str:000000000001228e .LASF5283
C:\Users\SOLDER~1\AppData\Local\Temp\ccUIzJuS.s:30024  .debug_str:000000000002bfec .LASF5284
C:\Users\SOLDER~1\AppData\Local\Temp\ccUIzJuS.s:24236  .debug_str:00000000000146f6 .LASF5285
C:\Users\SOLDER~1\AppData\Local\Temp\ccUIzJuS.s:22486  .debug_str:000000000000d3ff .LASF5286
C:\Users\SOLDER~1\AppData\Local\Temp\ccUIzJuS.s:30154  .debug_str:000000000002c86a .LASF5287
C:\Users\SOLDER~1\AppData\Local\Temp\ccUIzJuS.s:28466  .debug_str:0000000000025923 .LASF5288
C:\Users\SOLDER~1\AppData\Local\Temp\ccUIzJuS.s:23644  .debug_str:0000000000011efd .LASF5289
C:\Users\SOLDER~1\AppData\Local\Temp\ccUIzJuS.s:20396  .debug_str:0000000000004b10 .LASF5290
C:\Users\SOLDER~1\AppData\Local\Temp\ccUIzJuS.s:20586  .debug_str:00000000000056a8 .LASF5291
C:\Users\SOLDER~1\AppData\Local\Temp\ccUIzJuS.s:25620  .debug_str:0000000000019fc0 .LASF5292
C:\Users\SOLDER~1\AppData\Local\Temp\ccUIzJuS.s:27742  .debug_str:0000000000022971 .LASF5293
C:\Users\SOLDER~1\AppData\Local\Temp\ccUIzJuS.s:19524  .debug_str:000000000000130f .LASF5294
C:\Users\SOLDER~1\AppData\Local\Temp\ccUIzJuS.s:23058  .debug_str:000000000000f95a .LASF5295
C:\Users\SOLDER~1\AppData\Local\Temp\ccUIzJuS.s:27960  .debug_str:000000000002380f .LASF5296
C:\Users\SOLDER~1\AppData\Local\Temp\ccUIzJuS.s:19310  .debug_str:0000000000000450 .LASF5297
C:\Users\SOLDER~1\AppData\Local\Temp\ccUIzJuS.s:24498  .debug_str:00000000000157df .LASF5298
C:\Users\SOLDER~1\AppData\Local\Temp\ccUIzJuS.s:30792  .debug_str:000000000002f152 .LASF5299
C:\Users\SOLDER~1\AppData\Local\Temp\ccUIzJuS.s:25474  .debug_str:000000000001971c .LASF5300
C:\Users\SOLDER~1\AppData\Local\Temp\ccUIzJuS.s:30086  .debug_str:000000000002c447 .LASF5301
C:\Users\SOLDER~1\AppData\Local\Temp\ccUIzJuS.s:25454  .debug_str:00000000000195b3 .LASF5302
C:\Users\SOLDER~1\AppData\Local\Temp\ccUIzJuS.s:23208  .debug_str:000000000001033b .LASF5303
C:\Users\SOLDER~1\AppData\Local\Temp\ccUIzJuS.s:24238  .debug_str:0000000000014716 .LASF5304
C:\Users\SOLDER~1\AppData\Local\Temp\ccUIzJuS.s:25794  .debug_str:000000000001ab17 .LASF5305
C:\Users\SOLDER~1\AppData\Local\Temp\ccUIzJuS.s:27086  .debug_str:000000000001ffd1 .LASF5306
C:\Users\SOLDER~1\AppData\Local\Temp\ccUIzJuS.s:30572  .debug_str:000000000002e326 .LASF5307
C:\Users\SOLDER~1\AppData\Local\Temp\ccUIzJuS.s:22100  .debug_str:000000000000b9e1 .LASF5308
C:\Users\SOLDER~1\AppData\Local\Temp\ccUIzJuS.s:25820  .debug_str:000000000001ace0 .LASF5309
C:\Users\SOLDER~1\AppData\Local\Temp\ccUIzJuS.s:30288  .debug_str:000000000002d0ea .LASF5310
C:\Users\SOLDER~1\AppData\Local\Temp\ccUIzJuS.s:28178  .debug_str:000000000002463d .LASF5311
C:\Users\SOLDER~1\AppData\Local\Temp\ccUIzJuS.s:25740  .debug_str:000000000001a767 .LASF5312
C:\Users\SOLDER~1\AppData\Local\Temp\ccUIzJuS.s:26426  .debug_str:000000000001d4ef .LASF5313
C:\Users\SOLDER~1\AppData\Local\Temp\ccUIzJuS.s:22056  .debug_str:000000000000b6fd .LASF5314
C:\Users\SOLDER~1\AppData\Local\Temp\ccUIzJuS.s:25222  .debug_str:000000000001867c .LASF5315
C:\Users\SOLDER~1\AppData\Local\Temp\ccUIzJuS.s:28956  .debug_str:0000000000027a6d .LASF5316
C:\Users\SOLDER~1\AppData\Local\Temp\ccUIzJuS.s:23108  .debug_str:000000000000fcdc .LASF5317
C:\Users\SOLDER~1\AppData\Local\Temp\ccUIzJuS.s:25302  .debug_str:0000000000018bb2 .LASF5318
C:\Users\SOLDER~1\AppData\Local\Temp\ccUIzJuS.s:24294  .debug_str:0000000000014ad4 .LASF5319
GAS LISTING C:\Users\SOLDER~1\AppData\Local\Temp\ccUIzJuS.s 			page 122


C:\Users\SOLDER~1\AppData\Local\Temp\ccUIzJuS.s:29906  .debug_str:000000000002b86d .LASF5320
C:\Users\SOLDER~1\AppData\Local\Temp\ccUIzJuS.s:30362  .debug_str:000000000002d608 .LASF5321
C:\Users\SOLDER~1\AppData\Local\Temp\ccUIzJuS.s:30212  .debug_str:000000000002cc0a .LASF5322
C:\Users\SOLDER~1\AppData\Local\Temp\ccUIzJuS.s:20730  .debug_str:0000000000006027 .LASF5323
C:\Users\SOLDER~1\AppData\Local\Temp\ccUIzJuS.s:28280  .debug_str:0000000000024d00 .LASF5324
C:\Users\SOLDER~1\AppData\Local\Temp\ccUIzJuS.s:21880  .debug_str:000000000000abcc .LASF5325
C:\Users\SOLDER~1\AppData\Local\Temp\ccUIzJuS.s:21828  .debug_str:000000000000a86c .LASF5326
C:\Users\SOLDER~1\AppData\Local\Temp\ccUIzJuS.s:19474  .debug_str:0000000000000fe9 .LASF5327
C:\Users\SOLDER~1\AppData\Local\Temp\ccUIzJuS.s:28876  .debug_str:0000000000027525 .LASF5328
C:\Users\SOLDER~1\AppData\Local\Temp\ccUIzJuS.s:22304  .debug_str:000000000000c7b7 .LASF5329
C:\Users\SOLDER~1\AppData\Local\Temp\ccUIzJuS.s:23424  .debug_str:00000000000110fc .LASF5330
C:\Users\SOLDER~1\AppData\Local\Temp\ccUIzJuS.s:21852  .debug_str:000000000000a9f9 .LASF5331
C:\Users\SOLDER~1\AppData\Local\Temp\ccUIzJuS.s:30242  .debug_str:000000000002cde2 .LASF5332
C:\Users\SOLDER~1\AppData\Local\Temp\ccUIzJuS.s:26758  .debug_str:000000000001ea25 .LASF5333
C:\Users\SOLDER~1\AppData\Local\Temp\ccUIzJuS.s:27786  .debug_str:0000000000022c84 .LASF5334
C:\Users\SOLDER~1\AppData\Local\Temp\ccUIzJuS.s:26238  .debug_str:000000000001c81c .LASF5335
C:\Users\SOLDER~1\AppData\Local\Temp\ccUIzJuS.s:21396  .debug_str:0000000000008bb3 .LASF5336
C:\Users\SOLDER~1\AppData\Local\Temp\ccUIzJuS.s:29110  .debug_str:00000000000284b5 .LASF5337
C:\Users\SOLDER~1\AppData\Local\Temp\ccUIzJuS.s:30496  .debug_str:000000000002de68 .LASF5338
C:\Users\SOLDER~1\AppData\Local\Temp\ccUIzJuS.s:20592  .debug_str:0000000000005706 .LASF5339
C:\Users\SOLDER~1\AppData\Local\Temp\ccUIzJuS.s:24242  .debug_str:0000000000014769 .LASF5340
C:\Users\SOLDER~1\AppData\Local\Temp\ccUIzJuS.s:29918  .debug_str:000000000002b940 .LASF5341
C:\Users\SOLDER~1\AppData\Local\Temp\ccUIzJuS.s:30308  .debug_str:000000000002d25a .LASF5342
C:\Users\SOLDER~1\AppData\Local\Temp\ccUIzJuS.s:23498  .debug_str:0000000000011601 .LASF5343
C:\Users\SOLDER~1\AppData\Local\Temp\ccUIzJuS.s:20376  .debug_str:00000000000049de .LASF5344
C:\Users\SOLDER~1\AppData\Local\Temp\ccUIzJuS.s:20024  .debug_str:0000000000003301 .LASF5345
C:\Users\SOLDER~1\AppData\Local\Temp\ccUIzJuS.s:25978  .debug_str:000000000001b706 .LASF5346
C:\Users\SOLDER~1\AppData\Local\Temp\ccUIzJuS.s:29246  .debug_str:0000000000028d96 .LASF5347
C:\Users\SOLDER~1\AppData\Local\Temp\ccUIzJuS.s:21824  .debug_str:000000000000a834 .LASF5348
C:\Users\SOLDER~1\AppData\Local\Temp\ccUIzJuS.s:23052  .debug_str:000000000000f8f8 .LASF5349
C:\Users\SOLDER~1\AppData\Local\Temp\ccUIzJuS.s:26394  .debug_str:000000000001d2c0 .LASF5350
C:\Users\SOLDER~1\AppData\Local\Temp\ccUIzJuS.s:24722  .debug_str:000000000001663a .LASF5351
C:\Users\SOLDER~1\AppData\Local\Temp\ccUIzJuS.s:21690  .debug_str:0000000000009f1e .LASF5352
C:\Users\SOLDER~1\AppData\Local\Temp\ccUIzJuS.s:19650  .debug_str:0000000000001b0e .LASF5353
C:\Users\SOLDER~1\AppData\Local\Temp\ccUIzJuS.s:25544  .debug_str:0000000000019b15 .LASF5354
C:\Users\SOLDER~1\AppData\Local\Temp\ccUIzJuS.s:20404  .debug_str:0000000000004b9d .LASF5355
C:\Users\SOLDER~1\AppData\Local\Temp\ccUIzJuS.s:30084  .debug_str:000000000002c424 .LASF5356
C:\Users\SOLDER~1\AppData\Local\Temp\ccUIzJuS.s:27132  .debug_str:00000000000202c4 .LASF5357
C:\Users\SOLDER~1\AppData\Local\Temp\ccUIzJuS.s:27608  .debug_str:00000000000220ee .LASF5358
C:\Users\SOLDER~1\AppData\Local\Temp\ccUIzJuS.s:24726  .debug_str:0000000000016677 .LASF5359
C:\Users\SOLDER~1\AppData\Local\Temp\ccUIzJuS.s:23246  .debug_str:00000000000105b9 .LASF5360
C:\Users\SOLDER~1\AppData\Local\Temp\ccUIzJuS.s:24592  .debug_str:0000000000015def .LASF5361
C:\Users\SOLDER~1\AppData\Local\Temp\ccUIzJuS.s:23578  .debug_str:0000000000011aea .LASF5362
C:\Users\SOLDER~1\AppData\Local\Temp\ccUIzJuS.s:28550  .debug_str:0000000000025eef .LASF5363
C:\Users\SOLDER~1\AppData\Local\Temp\ccUIzJuS.s:23126  .debug_str:000000000000fe13 .LASF5364
C:\Users\SOLDER~1\AppData\Local\Temp\ccUIzJuS.s:22010  .debug_str:000000000000b413 .LASF5365
C:\Users\SOLDER~1\AppData\Local\Temp\ccUIzJuS.s:23906  .debug_str:0000000000013011 .LASF5366
C:\Users\SOLDER~1\AppData\Local\Temp\ccUIzJuS.s:22960  .debug_str:000000000000f2d2 .LASF5367
C:\Users\SOLDER~1\AppData\Local\Temp\ccUIzJuS.s:26070  .debug_str:000000000001bcc2 .LASF5368
C:\Users\SOLDER~1\AppData\Local\Temp\ccUIzJuS.s:21806  .debug_str:000000000000a702 .LASF5369
C:\Users\SOLDER~1\AppData\Local\Temp\ccUIzJuS.s:20284  .debug_str:00000000000043c1 .LASF5370
C:\Users\SOLDER~1\AppData\Local\Temp\ccUIzJuS.s:21742  .debug_str:000000000000a2ad .LASF5371
C:\Users\SOLDER~1\AppData\Local\Temp\ccUIzJuS.s:21654  .debug_str:0000000000009c9f .LASF5372
C:\Users\SOLDER~1\AppData\Local\Temp\ccUIzJuS.s:30042  .debug_str:000000000002c12f .LASF5373
C:\Users\SOLDER~1\AppData\Local\Temp\ccUIzJuS.s:24856  .debug_str:0000000000016e53 .LASF5374
C:\Users\SOLDER~1\AppData\Local\Temp\ccUIzJuS.s:25658  .debug_str:000000000001a225 .LASF5375
C:\Users\SOLDER~1\AppData\Local\Temp\ccUIzJuS.s:22978  .debug_str:000000000000f3d5 .LASF5376
GAS LISTING C:\Users\SOLDER~1\AppData\Local\Temp\ccUIzJuS.s 			page 123


C:\Users\SOLDER~1\AppData\Local\Temp\ccUIzJuS.s:27482  .debug_str:000000000002194b .LASF5377
C:\Users\SOLDER~1\AppData\Local\Temp\ccUIzJuS.s:28600  .debug_str:000000000002626c .LASF5378
C:\Users\SOLDER~1\AppData\Local\Temp\ccUIzJuS.s:22086  .debug_str:000000000000b8fb .LASF5379
C:\Users\SOLDER~1\AppData\Local\Temp\ccUIzJuS.s:20952  .debug_str:0000000000006f18 .LASF5380
C:\Users\SOLDER~1\AppData\Local\Temp\ccUIzJuS.s:21532  .debug_str:00000000000094f4 .LASF5381
C:\Users\SOLDER~1\AppData\Local\Temp\ccUIzJuS.s:22094  .debug_str:000000000000b96f .LASF5382
C:\Users\SOLDER~1\AppData\Local\Temp\ccUIzJuS.s:23014  .debug_str:000000000000f63f .LASF5383
C:\Users\SOLDER~1\AppData\Local\Temp\ccUIzJuS.s:25778  .debug_str:000000000001aa31 .LASF5384
C:\Users\SOLDER~1\AppData\Local\Temp\ccUIzJuS.s:26380  .debug_str:000000000001d196 .LASF5385
C:\Users\SOLDER~1\AppData\Local\Temp\ccUIzJuS.s:30168  .debug_str:000000000002c945 .LASF5386
C:\Users\SOLDER~1\AppData\Local\Temp\ccUIzJuS.s:29706  .debug_str:000000000002ab2c .LASF5387
C:\Users\SOLDER~1\AppData\Local\Temp\ccUIzJuS.s:26300  .debug_str:000000000001cc67 .LASF5388
C:\Users\SOLDER~1\AppData\Local\Temp\ccUIzJuS.s:23050  .debug_str:000000000000f8cc .LASF5389
C:\Users\SOLDER~1\AppData\Local\Temp\ccUIzJuS.s:24860  .debug_str:0000000000016e97 .LASF5390
C:\Users\SOLDER~1\AppData\Local\Temp\ccUIzJuS.s:22398  .debug_str:000000000000ce24 .LASF5391
C:\Users\SOLDER~1\AppData\Local\Temp\ccUIzJuS.s:21652  .debug_str:0000000000009c7c .LASF5392
C:\Users\SOLDER~1\AppData\Local\Temp\ccUIzJuS.s:28424  .debug_str:0000000000025670 .LASF5393
C:\Users\SOLDER~1\AppData\Local\Temp\ccUIzJuS.s:23132  .debug_str:000000000000fe76 .LASF5394
C:\Users\SOLDER~1\AppData\Local\Temp\ccUIzJuS.s:30474  .debug_str:000000000002dce8 .LASF5395
C:\Users\SOLDER~1\AppData\Local\Temp\ccUIzJuS.s:26754  .debug_str:000000000001e9da .LASF5396
C:\Users\SOLDER~1\AppData\Local\Temp\ccUIzJuS.s:19396  .debug_str:0000000000000ab1 .LASF5397
C:\Users\SOLDER~1\AppData\Local\Temp\ccUIzJuS.s:24082  .debug_str:0000000000013c55 .LASF5398
C:\Users\SOLDER~1\AppData\Local\Temp\ccUIzJuS.s:29280  .debug_str:0000000000028fad .LASF5399
C:\Users\SOLDER~1\AppData\Local\Temp\ccUIzJuS.s:25810  .debug_str:000000000001ac11 .LASF5400
C:\Users\SOLDER~1\AppData\Local\Temp\ccUIzJuS.s:22068  .debug_str:000000000000b7bc .LASF5401
C:\Users\SOLDER~1\AppData\Local\Temp\ccUIzJuS.s:24890  .debug_str:000000000001708c .LASF5402
C:\Users\SOLDER~1\AppData\Local\Temp\ccUIzJuS.s:29606  .debug_str:000000000002a51c .LASF5403
C:\Users\SOLDER~1\AppData\Local\Temp\ccUIzJuS.s:22788  .debug_str:000000000000e7e5 .LASF5404
C:\Users\SOLDER~1\AppData\Local\Temp\ccUIzJuS.s:26026  .debug_str:000000000001b9d5 .LASF5405
C:\Users\SOLDER~1\AppData\Local\Temp\ccUIzJuS.s:22536  .debug_str:000000000000d747 .LASF5406
C:\Users\SOLDER~1\AppData\Local\Temp\ccUIzJuS.s:28732  .debug_str:0000000000026b96 .LASF5407
C:\Users\SOLDER~1\AppData\Local\Temp\ccUIzJuS.s:28070  .debug_str:0000000000023ef9 .LASF5408
C:\Users\SOLDER~1\AppData\Local\Temp\ccUIzJuS.s:30014  .debug_str:000000000002bf53 .LASF5409
C:\Users\SOLDER~1\AppData\Local\Temp\ccUIzJuS.s:22422  .debug_str:000000000000cfa5 .LASF5410
C:\Users\SOLDER~1\AppData\Local\Temp\ccUIzJuS.s:29108  .debug_str:000000000002848d .LASF5411
C:\Users\SOLDER~1\AppData\Local\Temp\ccUIzJuS.s:25232  .debug_str:0000000000018725 .LASF5412
C:\Users\SOLDER~1\AppData\Local\Temp\ccUIzJuS.s:29170  .debug_str:000000000002887a .LASF5413
C:\Users\SOLDER~1\AppData\Local\Temp\ccUIzJuS.s:25836  .debug_str:000000000001ae2c .LASF5414
C:\Users\SOLDER~1\AppData\Local\Temp\ccUIzJuS.s:23212  .debug_str:0000000000010387 .LASF5415
C:\Users\SOLDER~1\AppData\Local\Temp\ccUIzJuS.s:20528  .debug_str:0000000000005343 .LASF5416
C:\Users\SOLDER~1\AppData\Local\Temp\ccUIzJuS.s:21844  .debug_str:000000000000a969 .LASF5417
C:\Users\SOLDER~1\AppData\Local\Temp\ccUIzJuS.s:24208  .debug_str:00000000000144f7 .LASF5418
C:\Users\SOLDER~1\AppData\Local\Temp\ccUIzJuS.s:22462  .debug_str:000000000000d253 .LASF5419
C:\Users\SOLDER~1\AppData\Local\Temp\ccUIzJuS.s:27394  .debug_str:00000000000213ca .LASF5420
C:\Users\SOLDER~1\AppData\Local\Temp\ccUIzJuS.s:27172  .debug_str:0000000000020562 .LASF5421
C:\Users\SOLDER~1\AppData\Local\Temp\ccUIzJuS.s:24290  .debug_str:0000000000014a8c .LASF5422
C:\Users\SOLDER~1\AppData\Local\Temp\ccUIzJuS.s:23526  .debug_str:0000000000011785 .LASF5423
C:\Users\SOLDER~1\AppData\Local\Temp\ccUIzJuS.s:27404  .debug_str:000000000002146d .LASF5424
C:\Users\SOLDER~1\AppData\Local\Temp\ccUIzJuS.s:27326  .debug_str:0000000000020f39 .LASF5425
C:\Users\SOLDER~1\AppData\Local\Temp\ccUIzJuS.s:20964  .debug_str:000000000000700a .LASF5426
C:\Users\SOLDER~1\AppData\Local\Temp\ccUIzJuS.s:23200  .debug_str:000000000001029d .LASF5427
C:\Users\SOLDER~1\AppData\Local\Temp\ccUIzJuS.s:29046  .debug_str:000000000002807b .LASF5428
C:\Users\SOLDER~1\AppData\Local\Temp\ccUIzJuS.s:29604  .debug_str:000000000002a4fa .LASF5429
C:\Users\SOLDER~1\AppData\Local\Temp\ccUIzJuS.s:26102  .debug_str:000000000001befc .LASF5430
C:\Users\SOLDER~1\AppData\Local\Temp\ccUIzJuS.s:22500  .debug_str:000000000000d4e6 .LASF5431
C:\Users\SOLDER~1\AppData\Local\Temp\ccUIzJuS.s:30050  .debug_str:000000000002c1bc .LASF5432
C:\Users\SOLDER~1\AppData\Local\Temp\ccUIzJuS.s:27890  .debug_str:0000000000023336 .LASF5433
GAS LISTING C:\Users\SOLDER~1\AppData\Local\Temp\ccUIzJuS.s 			page 124


C:\Users\SOLDER~1\AppData\Local\Temp\ccUIzJuS.s:19610  .debug_str:0000000000001897 .LASF5434
C:\Users\SOLDER~1\AppData\Local\Temp\ccUIzJuS.s:23982  .debug_str:000000000001351f .LASF5435
C:\Users\SOLDER~1\AppData\Local\Temp\ccUIzJuS.s:23694  .debug_str:0000000000012245 .LASF5436
C:\Users\SOLDER~1\AppData\Local\Temp\ccUIzJuS.s:23216  .debug_str:00000000000103d1 .LASF5437
C:\Users\SOLDER~1\AppData\Local\Temp\ccUIzJuS.s:19738  .debug_str:0000000000002086 .LASF5438
C:\Users\SOLDER~1\AppData\Local\Temp\ccUIzJuS.s:19468  .debug_str:0000000000000f88 .LASF5439
C:\Users\SOLDER~1\AppData\Local\Temp\ccUIzJuS.s:27042  .debug_str:000000000001fd11 .LASF5440
C:\Users\SOLDER~1\AppData\Local\Temp\ccUIzJuS.s:30314  .debug_str:000000000002d2df .LASF5441
C:\Users\SOLDER~1\AppData\Local\Temp\ccUIzJuS.s:26812  .debug_str:000000000001eda3 .LASF5442
C:\Users\SOLDER~1\AppData\Local\Temp\ccUIzJuS.s:28146  .debug_str:0000000000024410 .LASF5443
C:\Users\SOLDER~1\AppData\Local\Temp\ccUIzJuS.s:20980  .debug_str:0000000000007123 .LASF5444
C:\Users\SOLDER~1\AppData\Local\Temp\ccUIzJuS.s:26152  .debug_str:000000000001c249 .LASF5445
C:\Users\SOLDER~1\AppData\Local\Temp\ccUIzJuS.s:23848  .debug_str:0000000000012c2d .LASF5446
C:\Users\SOLDER~1\AppData\Local\Temp\ccUIzJuS.s:30714  .debug_str:000000000002ec5e .LASF5447
C:\Users\SOLDER~1\AppData\Local\Temp\ccUIzJuS.s:22540  .debug_str:000000000000d78c .LASF5448
C:\Users\SOLDER~1\AppData\Local\Temp\ccUIzJuS.s:27690  .debug_str:00000000000225ff .LASF5449
C:\Users\SOLDER~1\AppData\Local\Temp\ccUIzJuS.s:22470  .debug_str:000000000000d2d4 .LASF5450
C:\Users\SOLDER~1\AppData\Local\Temp\ccUIzJuS.s:28686  .debug_str:000000000002685f .LASF5451
C:\Users\SOLDER~1\AppData\Local\Temp\ccUIzJuS.s:22482  .debug_str:000000000000d3b2 .LASF5452
C:\Users\SOLDER~1\AppData\Local\Temp\ccUIzJuS.s:29524  .debug_str:0000000000029f78 .LASF5453
C:\Users\SOLDER~1\AppData\Local\Temp\ccUIzJuS.s:29904  .debug_str:000000000002b83c .LASF5454
C:\Users\SOLDER~1\AppData\Local\Temp\ccUIzJuS.s:27716  .debug_str:00000000000227ad .LASF5455
C:\Users\SOLDER~1\AppData\Local\Temp\ccUIzJuS.s:28948  .debug_str:00000000000279fa .LASF5456
C:\Users\SOLDER~1\AppData\Local\Temp\ccUIzJuS.s:24392  .debug_str:00000000000150dc .LASF5457
C:\Users\SOLDER~1\AppData\Local\Temp\ccUIzJuS.s:30476  .debug_str:000000000002dd0c .LASF5458
C:\Users\SOLDER~1\AppData\Local\Temp\ccUIzJuS.s:25218  .debug_str:0000000000018621 .LASF5459
C:\Users\SOLDER~1\AppData\Local\Temp\ccUIzJuS.s:24272  .debug_str:0000000000014935 .LASF5460
C:\Users\SOLDER~1\AppData\Local\Temp\ccUIzJuS.s:24076  .debug_str:0000000000013bd5 .LASF5461
C:\Users\SOLDER~1\AppData\Local\Temp\ccUIzJuS.s:21708  .debug_str:000000000000a03f .LASF5462
C:\Users\SOLDER~1\AppData\Local\Temp\ccUIzJuS.s:26412  .debug_str:000000000001d3f7 .LASF5463
C:\Users\SOLDER~1\AppData\Local\Temp\ccUIzJuS.s:25448  .debug_str:000000000001953f .LASF5464
C:\Users\SOLDER~1\AppData\Local\Temp\ccUIzJuS.s:28556  .debug_str:0000000000025f53 .LASF5465
C:\Users\SOLDER~1\AppData\Local\Temp\ccUIzJuS.s:19956  .debug_str:0000000000002e83 .LASF5466
C:\Users\SOLDER~1\AppData\Local\Temp\ccUIzJuS.s:20390  .debug_str:0000000000004aa3 .LASF5467
C:\Users\SOLDER~1\AppData\Local\Temp\ccUIzJuS.s:21944  .debug_str:000000000000afef .LASF5468
C:\Users\SOLDER~1\AppData\Local\Temp\ccUIzJuS.s:25426  .debug_str:00000000000193b1 .LASF5469
C:\Users\SOLDER~1\AppData\Local\Temp\ccUIzJuS.s:22494  .debug_str:000000000000d48b .LASF5470
C:\Users\SOLDER~1\AppData\Local\Temp\ccUIzJuS.s:27966  .debug_str:000000000002385d .LASF5471
C:\Users\SOLDER~1\AppData\Local\Temp\ccUIzJuS.s:29114  .debug_str:00000000000284f4 .LASF5472
C:\Users\SOLDER~1\AppData\Local\Temp\ccUIzJuS.s:21974  .debug_str:000000000000b1af .LASF5473
C:\Users\SOLDER~1\AppData\Local\Temp\ccUIzJuS.s:26526  .debug_str:000000000001daee .LASF5474
C:\Users\SOLDER~1\AppData\Local\Temp\ccUIzJuS.s:19826  .debug_str:0000000000002645 .LASF5475
C:\Users\SOLDER~1\AppData\Local\Temp\ccUIzJuS.s:26266  .debug_str:000000000001c9f4 .LASF5476
C:\Users\SOLDER~1\AppData\Local\Temp\ccUIzJuS.s:30676  .debug_str:000000000002e9c8 .LASF5477
C:\Users\SOLDER~1\AppData\Local\Temp\ccUIzJuS.s:29754  .debug_str:000000000002ae77 .LASF5478
C:\Users\SOLDER~1\AppData\Local\Temp\ccUIzJuS.s:30026  .debug_str:000000000002c00b .LASF5479
C:\Users\SOLDER~1\AppData\Local\Temp\ccUIzJuS.s:25482  .debug_str:000000000001979c .LASF5480
C:\Users\SOLDER~1\AppData\Local\Temp\ccUIzJuS.s:20912  .debug_str:0000000000006c5f .LASF5481
C:\Users\SOLDER~1\AppData\Local\Temp\ccUIzJuS.s:19488  .debug_str:00000000000010b9 .LASF5482
C:\Users\SOLDER~1\AppData\Local\Temp\ccUIzJuS.s:27770  .debug_str:0000000000022b7c .LASF5483
C:\Users\SOLDER~1\AppData\Local\Temp\ccUIzJuS.s:19392  .debug_str:0000000000000a6b .LASF5484
C:\Users\SOLDER~1\AppData\Local\Temp\ccUIzJuS.s:27208  .debug_str:00000000000207c2 .LASF5485
C:\Users\SOLDER~1\AppData\Local\Temp\ccUIzJuS.s:23468  .debug_str:00000000000113be .LASF5486
C:\Users\SOLDER~1\AppData\Local\Temp\ccUIzJuS.s:28218  .debug_str:00000000000248da .LASF5487
C:\Users\SOLDER~1\AppData\Local\Temp\ccUIzJuS.s:19508  .debug_str:00000000000011fc .LASF5488
C:\Users\SOLDER~1\AppData\Local\Temp\ccUIzJuS.s:24920  .debug_str:0000000000017288 .LASF5489
C:\Users\SOLDER~1\AppData\Local\Temp\ccUIzJuS.s:23736  .debug_str:00000000000124c6 .LASF5490
GAS LISTING C:\Users\SOLDER~1\AppData\Local\Temp\ccUIzJuS.s 			page 125


C:\Users\SOLDER~1\AppData\Local\Temp\ccUIzJuS.s:21072  .debug_str:00000000000076b3 .LASF5491
C:\Users\SOLDER~1\AppData\Local\Temp\ccUIzJuS.s:22794  .debug_str:000000000000e85c .LASF5492
C:\Users\SOLDER~1\AppData\Local\Temp\ccUIzJuS.s:23824  .debug_str:0000000000012a8b .LASF5493
C:\Users\SOLDER~1\AppData\Local\Temp\ccUIzJuS.s:25622  .debug_str:0000000000019fe3 .LASF5494
C:\Users\SOLDER~1\AppData\Local\Temp\ccUIzJuS.s:25476  .debug_str:000000000001973c .LASF5495
C:\Users\SOLDER~1\AppData\Local\Temp\ccUIzJuS.s:25738  .debug_str:000000000001a740 .LASF5496
C:\Users\SOLDER~1\AppData\Local\Temp\ccUIzJuS.s:26930  .debug_str:000000000001f5af .LASF5497
C:\Users\SOLDER~1\AppData\Local\Temp\ccUIzJuS.s:23714  .debug_str:0000000000012376 .LASF5498
C:\Users\SOLDER~1\AppData\Local\Temp\ccUIzJuS.s:29802  .debug_str:000000000002b160 .LASF5499
C:\Users\SOLDER~1\AppData\Local\Temp\ccUIzJuS.s:21468  .debug_str:0000000000009081 .LASF5500
C:\Users\SOLDER~1\AppData\Local\Temp\ccUIzJuS.s:27384  .debug_str:0000000000021335 .LASF5501
C:\Users\SOLDER~1\AppData\Local\Temp\ccUIzJuS.s:23112  .debug_str:000000000000fd22 .LASF5502
C:\Users\SOLDER~1\AppData\Local\Temp\ccUIzJuS.s:21840  .debug_str:000000000000a926 .LASF5503
C:\Users\SOLDER~1\AppData\Local\Temp\ccUIzJuS.s:25326  .debug_str:0000000000018d22 .LASF5504
C:\Users\SOLDER~1\AppData\Local\Temp\ccUIzJuS.s:20694  .debug_str:0000000000005dd6 .LASF5505
C:\Users\SOLDER~1\AppData\Local\Temp\ccUIzJuS.s:21102  .debug_str:000000000000785e .LASF5506
C:\Users\SOLDER~1\AppData\Local\Temp\ccUIzJuS.s:21756  .debug_str:000000000000a376 .LASF5507
C:\Users\SOLDER~1\AppData\Local\Temp\ccUIzJuS.s:27842  .debug_str:0000000000023006 .LASF5508
C:\Users\SOLDER~1\AppData\Local\Temp\ccUIzJuS.s:26516  .debug_str:000000000001da3e .LASF5509
C:\Users\SOLDER~1\AppData\Local\Temp\ccUIzJuS.s:19354  .debug_str:00000000000007bc .LASF5510
C:\Users\SOLDER~1\AppData\Local\Temp\ccUIzJuS.s:23332  .debug_str:0000000000010b2d .LASF5511
C:\Users\SOLDER~1\AppData\Local\Temp\ccUIzJuS.s:30336  .debug_str:000000000002d452 .LASF5512
C:\Users\SOLDER~1\AppData\Local\Temp\ccUIzJuS.s:20446  .debug_str:0000000000004e45 .LASF5513
C:\Users\SOLDER~1\AppData\Local\Temp\ccUIzJuS.s:28048  .debug_str:0000000000023d7b .LASF5514
C:\Users\SOLDER~1\AppData\Local\Temp\ccUIzJuS.s:29004  .debug_str:0000000000027d6d .LASF5515
C:\Users\SOLDER~1\AppData\Local\Temp\ccUIzJuS.s:27564  .debug_str:0000000000021e3b .LASF5516
C:\Users\SOLDER~1\AppData\Local\Temp\ccUIzJuS.s:27514  .debug_str:0000000000021b52 .LASF5517
C:\Users\SOLDER~1\AppData\Local\Temp\ccUIzJuS.s:27126  .debug_str:0000000000020274 .LASF5518
C:\Users\SOLDER~1\AppData\Local\Temp\ccUIzJuS.s:19688  .debug_str:0000000000001d93 .LASF5519
C:\Users\SOLDER~1\AppData\Local\Temp\ccUIzJuS.s:29278  .debug_str:0000000000028f84 .LASF5520
C:\Users\SOLDER~1\AppData\Local\Temp\ccUIzJuS.s:26388  .debug_str:000000000001d243 .LASF5521
C:\Users\SOLDER~1\AppData\Local\Temp\ccUIzJuS.s:30284  .debug_str:000000000002d09b .LASF5522
C:\Users\SOLDER~1\AppData\Local\Temp\ccUIzJuS.s:20918  .debug_str:0000000000006cac .LASF5523
C:\Users\SOLDER~1\AppData\Local\Temp\ccUIzJuS.s:22216  .debug_str:000000000000c189 .LASF5524
C:\Users\SOLDER~1\AppData\Local\Temp\ccUIzJuS.s:29520  .debug_str:0000000000029f2b .LASF5525
C:\Users\SOLDER~1\AppData\Local\Temp\ccUIzJuS.s:25330  .debug_str:0000000000018d5d .LASF5526
C:\Users\SOLDER~1\AppData\Local\Temp\ccUIzJuS.s:28160  .debug_str:00000000000244ee .LASF5527
C:\Users\SOLDER~1\AppData\Local\Temp\ccUIzJuS.s:26568  .debug_str:000000000001ddb1 .LASF5528
C:\Users\SOLDER~1\AppData\Local\Temp\ccUIzJuS.s:24866  .debug_str:0000000000016eff .LASF5529
C:\Users\SOLDER~1\AppData\Local\Temp\ccUIzJuS.s:20574  .debug_str:00000000000055f7 .LASF5530
C:\Users\SOLDER~1\AppData\Local\Temp\ccUIzJuS.s:24732  .debug_str:00000000000166cb .LASF5531
C:\Users\SOLDER~1\AppData\Local\Temp\ccUIzJuS.s:28680  .debug_str:00000000000267f6 .LASF5532
C:\Users\SOLDER~1\AppData\Local\Temp\ccUIzJuS.s:23496  .debug_str:00000000000115e1 .LASF5533
C:\Users\SOLDER~1\AppData\Local\Temp\ccUIzJuS.s:25884  .debug_str:000000000001b13b .LASF5534
C:\Users\SOLDER~1\AppData\Local\Temp\ccUIzJuS.s:19346  .debug_str:0000000000000741 .LASF5535
C:\Users\SOLDER~1\AppData\Local\Temp\ccUIzJuS.s:21872  .debug_str:000000000000ab4b .LASF5536
C:\Users\SOLDER~1\AppData\Local\Temp\ccUIzJuS.s:26630  .debug_str:000000000001e1d2 .LASF5537
C:\Users\SOLDER~1\AppData\Local\Temp\ccUIzJuS.s:23800  .debug_str:00000000000128d6 .LASF5538
C:\Users\SOLDER~1\AppData\Local\Temp\ccUIzJuS.s:29462  .debug_str:0000000000029b48 .LASF5539
C:\Users\SOLDER~1\AppData\Local\Temp\ccUIzJuS.s:22250  .debug_str:000000000000c3f7 .LASF5540
C:\Users\SOLDER~1\AppData\Local\Temp\ccUIzJuS.s:27328  .debug_str:0000000000020f57 .LASF5541
C:\Users\SOLDER~1\AppData\Local\Temp\ccUIzJuS.s:24956  .debug_str:00000000000174f1 .LASF5542
C:\Users\SOLDER~1\AppData\Local\Temp\ccUIzJuS.s:29192  .debug_str:0000000000028a21 .LASF5543
C:\Users\SOLDER~1\AppData\Local\Temp\ccUIzJuS.s:24962  .debug_str:000000000001755f .LASF5544
C:\Users\SOLDER~1\AppData\Local\Temp\ccUIzJuS.s:30506  .debug_str:000000000002df15 .LASF5545
C:\Users\SOLDER~1\AppData\Local\Temp\ccUIzJuS.s:24738  .debug_str:000000000001670f .LASF5546
C:\Users\SOLDER~1\AppData\Local\Temp\ccUIzJuS.s:26328  .debug_str:000000000001ce3e .LASF5547
GAS LISTING C:\Users\SOLDER~1\AppData\Local\Temp\ccUIzJuS.s 			page 126


C:\Users\SOLDER~1\AppData\Local\Temp\ccUIzJuS.s:27914  .debug_str:0000000000023506 .LASF5548
C:\Users\SOLDER~1\AppData\Local\Temp\ccUIzJuS.s:23368  .debug_str:0000000000010d5c .LASF5549
C:\Users\SOLDER~1\AppData\Local\Temp\ccUIzJuS.s:25228  .debug_str:00000000000186d4 .LASF5550
C:\Users\SOLDER~1\AppData\Local\Temp\ccUIzJuS.s:21324  .debug_str:00000000000086f7 .LASF5551
C:\Users\SOLDER~1\AppData\Local\Temp\ccUIzJuS.s:24038  .debug_str:00000000000138bf .LASF5552
C:\Users\SOLDER~1\AppData\Local\Temp\ccUIzJuS.s:27102  .debug_str:00000000000200de .LASF5553
C:\Users\SOLDER~1\AppData\Local\Temp\ccUIzJuS.s:29820  .debug_str:000000000002b2bd .LASF5554
C:\Users\SOLDER~1\AppData\Local\Temp\ccUIzJuS.s:21794  .debug_str:000000000000a5fc .LASF5555
C:\Users\SOLDER~1\AppData\Local\Temp\ccUIzJuS.s:27352  .debug_str:00000000000210ee .LASF5556
C:\Users\SOLDER~1\AppData\Local\Temp\ccUIzJuS.s:23870  .debug_str:0000000000012dbb .LASF5557
C:\Users\SOLDER~1\AppData\Local\Temp\ccUIzJuS.s:28174  .debug_str:00000000000245e7 .LASF5558
C:\Users\SOLDER~1\AppData\Local\Temp\ccUIzJuS.s:24344  .debug_str:0000000000014e2a .LASF5559
C:\Users\SOLDER~1\AppData\Local\Temp\ccUIzJuS.s:27732  .debug_str:00000000000228c6 .LASF5560
C:\Users\SOLDER~1\AppData\Local\Temp\ccUIzJuS.s:30716  .debug_str:000000000002ec82 .LASF5561
C:\Users\SOLDER~1\AppData\Local\Temp\ccUIzJuS.s:30080  .debug_str:000000000002c3eb .LASF5562
C:\Users\SOLDER~1\AppData\Local\Temp\ccUIzJuS.s:29372  .debug_str:0000000000029596 .LASF5563
C:\Users\SOLDER~1\AppData\Local\Temp\ccUIzJuS.s:20930  .debug_str:0000000000006d85 .LASF5564
C:\Users\SOLDER~1\AppData\Local\Temp\ccUIzJuS.s:24342  .debug_str:0000000000014e04 .LASF5565
C:\Users\SOLDER~1\AppData\Local\Temp\ccUIzJuS.s:20926  .debug_str:0000000000006d48 .LASF5566
C:\Users\SOLDER~1\AppData\Local\Temp\ccUIzJuS.s:27864  .debug_str:0000000000023190 .LASF5567
C:\Users\SOLDER~1\AppData\Local\Temp\ccUIzJuS.s:29898  .debug_str:000000000002b7dd .LASF5568
C:\Users\SOLDER~1\AppData\Local\Temp\ccUIzJuS.s:20040  .debug_str:0000000000003423 .LASF5569
C:\Users\SOLDER~1\AppData\Local\Temp\ccUIzJuS.s:29882  .debug_str:000000000002b6cf .LASF5570
C:\Users\SOLDER~1\AppData\Local\Temp\ccUIzJuS.s:26698  .debug_str:000000000001e5eb .LASF5571
C:\Users\SOLDER~1\AppData\Local\Temp\ccUIzJuS.s:23218  .debug_str:00000000000103f6 .LASF5572
C:\Users\SOLDER~1\AppData\Local\Temp\ccUIzJuS.s:20890  .debug_str:0000000000006aee .LASF5573
C:\Users\SOLDER~1\AppData\Local\Temp\ccUIzJuS.s:20596  .debug_str:000000000000574c .LASF5574
C:\Users\SOLDER~1\AppData\Local\Temp\ccUIzJuS.s:19828  .debug_str:000000000000266a .LASF5575
C:\Users\SOLDER~1\AppData\Local\Temp\ccUIzJuS.s:20042  .debug_str:0000000000003444 .LASF5576
C:\Users\SOLDER~1\AppData\Local\Temp\ccUIzJuS.s:23360  .debug_str:0000000000010cdb .LASF5577
C:\Users\SOLDER~1\AppData\Local\Temp\ccUIzJuS.s:21508  .debug_str:0000000000009332 .LASF5578
C:\Users\SOLDER~1\AppData\Local\Temp\ccUIzJuS.s:20600  .debug_str:00000000000057ad .LASF5579
C:\Users\SOLDER~1\AppData\Local\Temp\ccUIzJuS.s:28532  .debug_str:0000000000025dc2 .LASF5580
C:\Users\SOLDER~1\AppData\Local\Temp\ccUIzJuS.s:24104  .debug_str:0000000000013dc9 .LASF5581
C:\Users\SOLDER~1\AppData\Local\Temp\ccUIzJuS.s:20974  .debug_str:00000000000070b5 .LASF5582
C:\Users\SOLDER~1\AppData\Local\Temp\ccUIzJuS.s:30800  .debug_str:000000000002f1d5 .LASF5583
C:\Users\SOLDER~1\AppData\Local\Temp\ccUIzJuS.s:21308  .debug_str:00000000000085f3 .LASF5584
C:\Users\SOLDER~1\AppData\Local\Temp\ccUIzJuS.s:20988  .debug_str:00000000000071a3 .LASF5585
C:\Users\SOLDER~1\AppData\Local\Temp\ccUIzJuS.s:24646  .debug_str:0000000000016176 .LASF5586
C:\Users\SOLDER~1\AppData\Local\Temp\ccUIzJuS.s:30616  .debug_str:000000000002e5d9 .LASF5587
C:\Users\SOLDER~1\AppData\Local\Temp\ccUIzJuS.s:19686  .debug_str:0000000000001d72 .LASF5588
C:\Users\SOLDER~1\AppData\Local\Temp\ccUIzJuS.s:24466  .debug_str:00000000000155d8 .LASF5589
C:\Users\SOLDER~1\AppData\Local\Temp\ccUIzJuS.s:30408  .debug_str:000000000002d8c5 .LASF5590
C:\Users\SOLDER~1\AppData\Local\Temp\ccUIzJuS.s:26878  .debug_str:000000000001f223 .LASF5591
C:\Users\SOLDER~1\AppData\Local\Temp\ccUIzJuS.s:23394  .debug_str:0000000000010f16 .LASF5592
C:\Users\SOLDER~1\AppData\Local\Temp\ccUIzJuS.s:28032  .debug_str:0000000000023c6d .LASF5593
C:\Users\SOLDER~1\AppData\Local\Temp\ccUIzJuS.s:27546  .debug_str:0000000000021d3c .LASF5594
C:\Users\SOLDER~1\AppData\Local\Temp\ccUIzJuS.s:20056  .debug_str:0000000000003518 .LASF5595
C:\Users\SOLDER~1\AppData\Local\Temp\ccUIzJuS.s:28934  .debug_str:0000000000027911 .LASF5596
C:\Users\SOLDER~1\AppData\Local\Temp\ccUIzJuS.s:24396  .debug_str:0000000000015132 .LASF5597
C:\Users\SOLDER~1\AppData\Local\Temp\ccUIzJuS.s:26368  .debug_str:000000000001d0c3 .LASF5598
C:\Users\SOLDER~1\AppData\Local\Temp\ccUIzJuS.s:30038  .debug_str:000000000002c0dd .LASF5599
C:\Users\SOLDER~1\AppData\Local\Temp\ccUIzJuS.s:28384  .debug_str:00000000000253d5 .LASF5600
C:\Users\SOLDER~1\AppData\Local\Temp\ccUIzJuS.s:25826  .debug_str:000000000001ad43 .LASF5601
C:\Users\SOLDER~1\AppData\Local\Temp\ccUIzJuS.s:25818  .debug_str:000000000001acb5 .LASF5602
C:\Users\SOLDER~1\AppData\Local\Temp\ccUIzJuS.s:26160  .debug_str:000000000001c2cf .LASF5603
C:\Users\SOLDER~1\AppData\Local\Temp\ccUIzJuS.s:24330  .debug_str:0000000000014d3d .LASF5604
GAS LISTING C:\Users\SOLDER~1\AppData\Local\Temp\ccUIzJuS.s 			page 127


C:\Users\SOLDER~1\AppData\Local\Temp\ccUIzJuS.s:23770  .debug_str:000000000001273a .LASF5605
C:\Users\SOLDER~1\AppData\Local\Temp\ccUIzJuS.s:25824  .debug_str:000000000001ad21 .LASF5606
C:\Users\SOLDER~1\AppData\Local\Temp\ccUIzJuS.s:30618  .debug_str:000000000002e5fc .LASF5607
C:\Users\SOLDER~1\AppData\Local\Temp\ccUIzJuS.s:30528  .debug_str:000000000002e08b .LASF5608
C:\Users\SOLDER~1\AppData\Local\Temp\ccUIzJuS.s:23186  .debug_str:00000000000101bc .LASF5609
C:\Users\SOLDER~1\AppData\Local\Temp\ccUIzJuS.s:29886  .debug_str:000000000002b712 .LASF5610
C:\Users\SOLDER~1\AppData\Local\Temp\ccUIzJuS.s:26570  .debug_str:000000000001dde0 .LASF5611
C:\Users\SOLDER~1\AppData\Local\Temp\ccUIzJuS.s:23592  .debug_str:0000000000011bca .LASF5612
C:\Users\SOLDER~1\AppData\Local\Temp\ccUIzJuS.s:21150  .debug_str:0000000000007ba5 .LASF5613
C:\Users\SOLDER~1\AppData\Local\Temp\ccUIzJuS.s:19512  .debug_str:000000000000124e .LASF5614
C:\Users\SOLDER~1\AppData\Local\Temp\ccUIzJuS.s:28074  .debug_str:0000000000023f46 .LASF5615
C:\Users\SOLDER~1\AppData\Local\Temp\ccUIzJuS.s:23744  .debug_str:000000000001255c .LASF5616
C:\Users\SOLDER~1\AppData\Local\Temp\ccUIzJuS.s:21416  .debug_str:0000000000008cf2 .LASF5617
C:\Users\SOLDER~1\AppData\Local\Temp\ccUIzJuS.s:20636  .debug_str:0000000000005a35 .LASF5618
C:\Users\SOLDER~1\AppData\Local\Temp\ccUIzJuS.s:30112  .debug_str:000000000002c5c6 .LASF5619
C:\Users\SOLDER~1\AppData\Local\Temp\ccUIzJuS.s:22180  .debug_str:000000000000bf17 .LASF5620
C:\Users\SOLDER~1\AppData\Local\Temp\ccUIzJuS.s:24438  .debug_str:00000000000153ee .LASF5621
C:\Users\SOLDER~1\AppData\Local\Temp\ccUIzJuS.s:26486  .debug_str:000000000001d88b .LASF5622
C:\Users\SOLDER~1\AppData\Local\Temp\ccUIzJuS.s:25898  .debug_str:000000000001b1dd .LASF5623
C:\Users\SOLDER~1\AppData\Local\Temp\ccUIzJuS.s:25364  .debug_str:0000000000018fc1 .LASF5624
C:\Users\SOLDER~1\AppData\Local\Temp\ccUIzJuS.s:22072  .debug_str:000000000000b7f9 .LASF5625
C:\Users\SOLDER~1\AppData\Local\Temp\ccUIzJuS.s:28408  .debug_str:000000000002553d .LASF5626
C:\Users\SOLDER~1\AppData\Local\Temp\ccUIzJuS.s:28382  .debug_str:00000000000253a5 .LASF5627
C:\Users\SOLDER~1\AppData\Local\Temp\ccUIzJuS.s:23552  .debug_str:0000000000011952 .LASF5628
C:\Users\SOLDER~1\AppData\Local\Temp\ccUIzJuS.s:20320  .debug_str:0000000000004636 .LASF5629
C:\Users\SOLDER~1\AppData\Local\Temp\ccUIzJuS.s:27302  .debug_str:0000000000020dc1 .LASF5630
C:\Users\SOLDER~1\AppData\Local\Temp\ccUIzJuS.s:29478  .debug_str:0000000000029c3f .LASF5631
C:\Users\SOLDER~1\AppData\Local\Temp\ccUIzJuS.s:28990  .debug_str:0000000000027c82 .LASF5632
C:\Users\SOLDER~1\AppData\Local\Temp\ccUIzJuS.s:28808  .debug_str:000000000002708d .LASF5633
C:\Users\SOLDER~1\AppData\Local\Temp\ccUIzJuS.s:29500  .debug_str:0000000000029daf .LASF5634
C:\Users\SOLDER~1\AppData\Local\Temp\ccUIzJuS.s:24214  .debug_str:000000000001456e .LASF5635
C:\Users\SOLDER~1\AppData\Local\Temp\ccUIzJuS.s:29558  .debug_str:000000000002a1b9 .LASF5636
C:\Users\SOLDER~1\AppData\Local\Temp\ccUIzJuS.s:25064  .debug_str:0000000000017c11 .LASF5637
C:\Users\SOLDER~1\AppData\Local\Temp\ccUIzJuS.s:22746  .debug_str:000000000000e542 .LASF5638
C:\Users\SOLDER~1\AppData\Local\Temp\ccUIzJuS.s:23852  .debug_str:0000000000012c8b .LASF5639
C:\Users\SOLDER~1\AppData\Local\Temp\ccUIzJuS.s:28210  .debug_str:0000000000024850 .LASF5640
C:\Users\SOLDER~1\AppData\Local\Temp\ccUIzJuS.s:29070  .debug_str:000000000002820e .LASF5641
C:\Users\SOLDER~1\AppData\Local\Temp\ccUIzJuS.s:27462  .debug_str:000000000002181a .LASF5642
C:\Users\SOLDER~1\AppData\Local\Temp\ccUIzJuS.s:28696  .debug_str:0000000000026928 .LASF5643
C:\Users\SOLDER~1\AppData\Local\Temp\ccUIzJuS.s:23404  .debug_str:0000000000010fab .LASF5644
C:\Users\SOLDER~1\AppData\Local\Temp\ccUIzJuS.s:26594  .debug_str:000000000001df94 .LASF5645
C:\Users\SOLDER~1\AppData\Local\Temp\ccUIzJuS.s:25924  .debug_str:000000000001b383 .LASF5646
C:\Users\SOLDER~1\AppData\Local\Temp\ccUIzJuS.s:23282  .debug_str:00000000000107e1 .LASF5647
C:\Users\SOLDER~1\AppData\Local\Temp\ccUIzJuS.s:30226  .debug_str:000000000002cce7 .LASF5648
C:\Users\SOLDER~1\AppData\Local\Temp\ccUIzJuS.s:28516  .debug_str:0000000000025c97 .LASF5649
C:\Users\SOLDER~1\AppData\Local\Temp\ccUIzJuS.s:22598  .debug_str:000000000000daff .LASF5650
C:\Users\SOLDER~1\AppData\Local\Temp\ccUIzJuS.s:30480  .debug_str:000000000002dd5b .LASF5651
C:\Users\SOLDER~1\AppData\Local\Temp\ccUIzJuS.s:21010  .debug_str:0000000000007308 .LASF5652
C:\Users\SOLDER~1\AppData\Local\Temp\ccUIzJuS.s:25354  .debug_str:0000000000018f1e .LASF5653
C:\Users\SOLDER~1\AppData\Local\Temp\ccUIzJuS.s:22334  .debug_str:000000000000c9e5 .LASF5654
C:\Users\SOLDER~1\AppData\Local\Temp\ccUIzJuS.s:28502  .debug_str:0000000000025bba .LASF5655
C:\Users\SOLDER~1\AppData\Local\Temp\ccUIzJuS.s:28894  .debug_str:000000000002764d .LASF5656
C:\Users\SOLDER~1\AppData\Local\Temp\ccUIzJuS.s:29230  .debug_str:0000000000028c94 .LASF5657
C:\Users\SOLDER~1\AppData\Local\Temp\ccUIzJuS.s:26976  .debug_str:000000000001f8cf .LASF5658
C:\Users\SOLDER~1\AppData\Local\Temp\ccUIzJuS.s:27134  .debug_str:00000000000202e4 .LASF5659
C:\Users\SOLDER~1\AppData\Local\Temp\ccUIzJuS.s:28284  .debug_str:0000000000024d40 .LASF5660
C:\Users\SOLDER~1\AppData\Local\Temp\ccUIzJuS.s:27652  .debug_str:000000000002236e .LASF5661
GAS LISTING C:\Users\SOLDER~1\AppData\Local\Temp\ccUIzJuS.s 			page 128


C:\Users\SOLDER~1\AppData\Local\Temp\ccUIzJuS.s:21118  .debug_str:0000000000007987 .LASF5662
C:\Users\SOLDER~1\AppData\Local\Temp\ccUIzJuS.s:22342  .debug_str:000000000000ca72 .LASF5663
C:\Users\SOLDER~1\AppData\Local\Temp\ccUIzJuS.s:25126  .debug_str:0000000000018050 .LASF5664
C:\Users\SOLDER~1\AppData\Local\Temp\ccUIzJuS.s:28222  .debug_str:000000000002492f .LASF5665
C:\Users\SOLDER~1\AppData\Local\Temp\ccUIzJuS.s:26680  .debug_str:000000000001e4e7 .LASF5666
C:\Users\SOLDER~1\AppData\Local\Temp\ccUIzJuS.s:23486  .debug_str:0000000000011516 .LASF5667
C:\Users\SOLDER~1\AppData\Local\Temp\ccUIzJuS.s:19426  .debug_str:0000000000000cb6 .LASF5668
C:\Users\SOLDER~1\AppData\Local\Temp\ccUIzJuS.s:29710  .debug_str:000000000002ab69 .LASF5669
C:\Users\SOLDER~1\AppData\Local\Temp\ccUIzJuS.s:28038  .debug_str:0000000000023cdf .LASF5670
C:\Users\SOLDER~1\AppData\Local\Temp\ccUIzJuS.s:28320  .debug_str:0000000000024fcc .LASF5671
C:\Users\SOLDER~1\AppData\Local\Temp\ccUIzJuS.s:24366  .debug_str:0000000000014f6c .LASF5672
C:\Users\SOLDER~1\AppData\Local\Temp\ccUIzJuS.s:28464  .debug_str:0000000000025900 .LASF5673
C:\Users\SOLDER~1\AppData\Local\Temp\ccUIzJuS.s:29292  .debug_str:0000000000029072 .LASF5674
C:\Users\SOLDER~1\AppData\Local\Temp\ccUIzJuS.s:22062  .debug_str:000000000000b760 .LASF5675
C:\Users\SOLDER~1\AppData\Local\Temp\ccUIzJuS.s:20244  .debug_str:0000000000004156 .LASF5676
C:\Users\SOLDER~1\AppData\Local\Temp\ccUIzJuS.s:25938  .debug_str:000000000001b475 .LASF5677
C:\Users\SOLDER~1\AppData\Local\Temp\ccUIzJuS.s:24548  .debug_str:0000000000015b32 .LASF5678
C:\Users\SOLDER~1\AppData\Local\Temp\ccUIzJuS.s:23648  .debug_str:0000000000011f55 .LASF5679
C:\Users\SOLDER~1\AppData\Local\Temp\ccUIzJuS.s:30642  .debug_str:000000000002e78e .LASF5680
C:\Users\SOLDER~1\AppData\Local\Temp\ccUIzJuS.s:28522  .debug_str:0000000000025d14 .LASF5681
C:\Users\SOLDER~1\AppData\Local\Temp\ccUIzJuS.s:29502  .debug_str:0000000000029dde .LASF5682
C:\Users\SOLDER~1\AppData\Local\Temp\ccUIzJuS.s:30318  .debug_str:000000000002d327 .LASF5683
C:\Users\SOLDER~1\AppData\Local\Temp\ccUIzJuS.s:26356  .debug_str:000000000001d01f .LASF5684
C:\Users\SOLDER~1\AppData\Local\Temp\ccUIzJuS.s:29798  .debug_str:000000000002b118 .LASF5685
C:\Users\SOLDER~1\AppData\Local\Temp\ccUIzJuS.s:26438  .debug_str:000000000001d5b0 .LASF5686
C:\Users\SOLDER~1\AppData\Local\Temp\ccUIzJuS.s:27076  .debug_str:000000000001ff32 .LASF5687
C:\Users\SOLDER~1\AppData\Local\Temp\ccUIzJuS.s:23226  .debug_str:0000000000010486 .LASF5688
C:\Users\SOLDER~1\AppData\Local\Temp\ccUIzJuS.s:21126  .debug_str:0000000000007a14 .LASF5689
C:\Users\SOLDER~1\AppData\Local\Temp\ccUIzJuS.s:23472  .debug_str:0000000000011402 .LASF5690
C:\Users\SOLDER~1\AppData\Local\Temp\ccUIzJuS.s:23686  .debug_str:00000000000121bf .LASF5691
C:\Users\SOLDER~1\AppData\Local\Temp\ccUIzJuS.s:20508  .debug_str:0000000000005205 .LASF5692
C:\Users\SOLDER~1\AppData\Local\Temp\ccUIzJuS.s:26710  .debug_str:000000000001e6d8 .LASF5693
C:\Users\SOLDER~1\AppData\Local\Temp\ccUIzJuS.s:21226  .debug_str:00000000000080b2 .LASF5694
C:\Users\SOLDER~1\AppData\Local\Temp\ccUIzJuS.s:27772  .debug_str:0000000000022b9e .LASF5695
C:\Users\SOLDER~1\AppData\Local\Temp\ccUIzJuS.s:20420  .debug_str:0000000000004cb6 .LASF5696
C:\Users\SOLDER~1\AppData\Local\Temp\ccUIzJuS.s:20192  .debug_str:0000000000003dee .LASF5697
C:\Users\SOLDER~1\AppData\Local\Temp\ccUIzJuS.s:22784  .debug_str:000000000000e7a5 .LASF5698
C:\Users\SOLDER~1\AppData\Local\Temp\ccUIzJuS.s:23846  .debug_str:0000000000012c08 .LASF5699
C:\Users\SOLDER~1\AppData\Local\Temp\ccUIzJuS.s:23722  .debug_str:00000000000123fa .LASF5700
C:\Users\SOLDER~1\AppData\Local\Temp\ccUIzJuS.s:22458  .debug_str:000000000000d209 .LASF5701
C:\Users\SOLDER~1\AppData\Local\Temp\ccUIzJuS.s:29206  .debug_str:0000000000028afd .LASF5702
C:\Users\SOLDER~1\AppData\Local\Temp\ccUIzJuS.s:19788  .debug_str:00000000000023f2 .LASF5703
C:\Users\SOLDER~1\AppData\Local\Temp\ccUIzJuS.s:29078  .debug_str:00000000000282ac .LASF5704
C:\Users\SOLDER~1\AppData\Local\Temp\ccUIzJuS.s:28264  .debug_str:0000000000024c09 .LASF5705
C:\Users\SOLDER~1\AppData\Local\Temp\ccUIzJuS.s:22076  .debug_str:000000000000b84b .LASF5706
C:\Users\SOLDER~1\AppData\Local\Temp\ccUIzJuS.s:23178  .debug_str:000000000001012e .LASF5707
C:\Users\SOLDER~1\AppData\Local\Temp\ccUIzJuS.s:30372  .debug_str:000000000002d6a1 .LASF5708
C:\Users\SOLDER~1\AppData\Local\Temp\ccUIzJuS.s:24394  .debug_str:000000000001510d .LASF5709
C:\Users\SOLDER~1\AppData\Local\Temp\ccUIzJuS.s:20782  .debug_str:00000000000063cd .LASF5710
C:\Users\SOLDER~1\AppData\Local\Temp\ccUIzJuS.s:26498  .debug_str:000000000001d94e .LASF5711
                           .group:0000000000000000 wm4.0.cc27e0d2094b492664a2491ca1ae43b0
                           .group:0000000000000000 wm4.ch32v20x.h.13.a030255a3e90e7179ae3b08da8e2408d
                           .group:0000000000000000 wm4._newlib_version.h.4.529115dae5e4f67702b1de0b6e841f38
                           .group:0000000000000000 wm4.features.h.33.3e67abe6fb64142d4f6fa9496796153c
                           .group:0000000000000000 wm4._default_types.h.15.247e5cd201eca3442cbf5404108c4935
                           .group:0000000000000000 wm4._intsup.h.10.48bafbb683905c4daa4565a85aeeb264
                           .group:0000000000000000 wm4._stdint.h.10.c24fa3af3bc1706662bb5593a907e841
GAS LISTING C:\Users\SOLDER~1\AppData\Local\Temp\ccUIzJuS.s 			page 129


                           .group:0000000000000000 wm4.stdint.h.23.d53047a68f4a85177f80b422d52785ed
                           .group:0000000000000000 wm4.core_riscv.h.11.151d7acb41e203dcc664023294f59bdc
                           .group:0000000000000000 wm4.ch32v20x.h.153.1d8393f26361703471ea96fe9aa4b4f9
                           .group:0000000000000000 wm4.ch32v20x_adc.h.56.f131972e7ce35efbe3b5c47a075d6d1b
                           .group:0000000000000000 wm4.ch32v20x_bkp.h.14.0a7965eb5be5000a494c3059b6f0eca5
                           .group:0000000000000000 wm4.ch32v20x_can.h.14.aa1dae2c28cbaf083875b4b61810c3c7
                           .group:0000000000000000 wm4.ch32v20x_dbgmcu.h.14.26ef95879978d9caaa154b373f3a512b
                           .group:0000000000000000 wm4.ch32v20x_exti.h.14.f67190d3fb91aa9aecce0f4d5a543221
                           .group:0000000000000000 wm4.ch32v20x_flash.h.14.91c5ecdad44f358d5032244aabf7ef4e
                           .group:0000000000000000 wm4.ch32v20x_gpio.h.14.bdb7f79cce0dffbc24dc81ea80f90bd2
                           .group:0000000000000000 wm4.ch32v20x_i2c.h.14.101eb625c9d2afac400f4e8ac2e9fb1d
                           .group:0000000000000000 wm4.ch32v20x_iwdg.h.14.26025d04ceeb3151185969ed5850fbb4
                           .group:0000000000000000 wm4.ch32v20x_pwr.h.14.8eaa3508938f71b27f140895c21602e6
                           .group:0000000000000000 wm4.ch32v20x_rcc.h.13.18c6b8696a30372de01acaf3c246ecb8
                           .group:0000000000000000 wm4.ch32v20x_rtc.h.14.eb8734f5dd75abcf831b4f12ec49aebe
                           .group:0000000000000000 wm4.ch32v20x_spi.h.14.f12b1f237c615e7304ae62cc2e2c3c1a
                           .group:0000000000000000 wm4.ch32v20x_tim.h.14.35d11fab62898d9d661122ade86d8a6c
                           .group:0000000000000000 wm4.ch32v20x_usart.h.14.9d28c7ec28f2121810b69a55079cd38f
                           .group:0000000000000000 wm4.ch32v20x_wwdg.h.14.49bada437175894a4dce7e12e4216bc9
                           .group:0000000000000000 wm4.ch32v20x_misc.h.14.f3992cf724c30ec0bea268444ffdb6e0
                           .group:0000000000000000 wm4.ch32v20x_dma.h.61.1fbfcbab3b62f56dae921ccacbf0913d

NO UNDEFINED SYMBOLS
