GAS LISTING C:\Users\SOLDER~1\AppData\Local\Temp\ccKV8tJ7.s 			page 1


   1              		.file	"ch32v20x_flash.c"
   2              		.option nopic
   3              		.attribute arch, "rv32i2p0_m2p0_a2p0_c2p0_xw"
   4              		.attribute unaligned_access, 0
   5              		.attribute stack_align, 16
   6              		.text
   7              	.Ltext0:
   8              		.cfi_sections	.debug_frame
   9              		.file 0 "C:\\Users\\Solderingiron\\Documents\\GitHub\\VSC-make-example\\VSC_CH32V203C8T6" "Drivers
  10              		.section	.text.FLASH_Unlock,"ax",@progbits
  11              		.align	1
  12              		.globl	FLASH_Unlock
  14              	FLASH_Unlock:
  15              	.LFB16:
  16              		.file 1 "Drivers/src/ch32v20x_flash.c"
   1:Drivers/src/ch32v20x_flash.c **** /********************************** (C) COPYRIGHT  *******************************
   2:Drivers/src/ch32v20x_flash.c ****  * File Name          : ch32v20x_flash.c
   3:Drivers/src/ch32v20x_flash.c ****  * Author             : WCH
   4:Drivers/src/ch32v20x_flash.c ****  * Version            : V1.0.0
   5:Drivers/src/ch32v20x_flash.c ****  * Date               : 2021/06/06
   6:Drivers/src/ch32v20x_flash.c ****  * Description        : This file provides all the FLASH firmware functions.
   7:Drivers/src/ch32v20x_flash.c **** *********************************************************************************
   8:Drivers/src/ch32v20x_flash.c **** * Copyright (c) 2021 Nanjing Qinheng Microelectronics Co., Ltd.
   9:Drivers/src/ch32v20x_flash.c **** * Attention: This software (modified or not) and binary are used for 
  10:Drivers/src/ch32v20x_flash.c **** * microcontroller manufactured by Nanjing Qinheng Microelectronics.
  11:Drivers/src/ch32v20x_flash.c **** *******************************************************************************/
  12:Drivers/src/ch32v20x_flash.c **** #include "ch32v20x_flash.h"
  13:Drivers/src/ch32v20x_flash.c **** 
  14:Drivers/src/ch32v20x_flash.c **** /* Flash Control Register bits */
  15:Drivers/src/ch32v20x_flash.c **** #define CR_PG_Set                  ((uint32_t)0x00000001)
  16:Drivers/src/ch32v20x_flash.c **** #define CR_PG_Reset                ((uint32_t)0xFFFFFFFE)
  17:Drivers/src/ch32v20x_flash.c **** #define CR_PER_Set                 ((uint32_t)0x00000002)
  18:Drivers/src/ch32v20x_flash.c **** #define CR_PER_Reset               ((uint32_t)0xFFFFFFFD)
  19:Drivers/src/ch32v20x_flash.c **** #define CR_MER_Set                 ((uint32_t)0x00000004)
  20:Drivers/src/ch32v20x_flash.c **** #define CR_MER_Reset               ((uint32_t)0xFFFFFFFB)
  21:Drivers/src/ch32v20x_flash.c **** #define CR_OPTPG_Set               ((uint32_t)0x00000010)
  22:Drivers/src/ch32v20x_flash.c **** #define CR_OPTPG_Reset             ((uint32_t)0xFFFFFFEF)
  23:Drivers/src/ch32v20x_flash.c **** #define CR_OPTER_Set               ((uint32_t)0x00000020)
  24:Drivers/src/ch32v20x_flash.c **** #define CR_OPTER_Reset             ((uint32_t)0xFFFFFFDF)
  25:Drivers/src/ch32v20x_flash.c **** #define CR_STRT_Set                ((uint32_t)0x00000040)
  26:Drivers/src/ch32v20x_flash.c **** #define CR_LOCK_Set                ((uint32_t)0x00000080)
  27:Drivers/src/ch32v20x_flash.c **** #define CR_FAST_LOCK_Set           ((uint32_t)0x00008000)
  28:Drivers/src/ch32v20x_flash.c **** #define CR_PAGE_PG                 ((uint32_t)0x00010000)
  29:Drivers/src/ch32v20x_flash.c **** #define CR_PAGE_ER                 ((uint32_t)0x00020000)
  30:Drivers/src/ch32v20x_flash.c **** #define CR_BER32                   ((uint32_t)0x00040000)
  31:Drivers/src/ch32v20x_flash.c **** #define CR_BER64                   ((uint32_t)0x00080000)
  32:Drivers/src/ch32v20x_flash.c **** #define CR_PG_STRT                 ((uint32_t)0x00200000)
  33:Drivers/src/ch32v20x_flash.c **** 
  34:Drivers/src/ch32v20x_flash.c **** /* FLASH Status Register bits */
  35:Drivers/src/ch32v20x_flash.c **** #define SR_BSY                     ((uint32_t)0x00000001)
  36:Drivers/src/ch32v20x_flash.c **** #define SR_WR_BSY                  ((uint32_t)0x00000002)
  37:Drivers/src/ch32v20x_flash.c **** #define SR_WRPRTERR                ((uint32_t)0x00000010)
  38:Drivers/src/ch32v20x_flash.c **** #define SR_EOP                     ((uint32_t)0x00000020)
  39:Drivers/src/ch32v20x_flash.c **** 
  40:Drivers/src/ch32v20x_flash.c **** /* FLASH Mask */
  41:Drivers/src/ch32v20x_flash.c **** #define RDPRT_Mask                 ((uint32_t)0x00000002)
  42:Drivers/src/ch32v20x_flash.c **** #define WRP0_Mask                  ((uint32_t)0x000000FF)
GAS LISTING C:\Users\SOLDER~1\AppData\Local\Temp\ccKV8tJ7.s 			page 2


  43:Drivers/src/ch32v20x_flash.c **** #define WRP1_Mask                  ((uint32_t)0x0000FF00)
  44:Drivers/src/ch32v20x_flash.c **** #define WRP2_Mask                  ((uint32_t)0x00FF0000)
  45:Drivers/src/ch32v20x_flash.c **** #define WRP3_Mask                  ((uint32_t)0xFF000000)
  46:Drivers/src/ch32v20x_flash.c **** #define OB_USER_BFB2               ((uint16_t)0x0008)
  47:Drivers/src/ch32v20x_flash.c **** 
  48:Drivers/src/ch32v20x_flash.c **** /* FLASH Keys */
  49:Drivers/src/ch32v20x_flash.c **** #define RDP_Key                    ((uint16_t)0x00A5)
  50:Drivers/src/ch32v20x_flash.c **** #define FLASH_KEY1                 ((uint32_t)0x45670123)
  51:Drivers/src/ch32v20x_flash.c **** #define FLASH_KEY2                 ((uint32_t)0xCDEF89AB)
  52:Drivers/src/ch32v20x_flash.c **** 
  53:Drivers/src/ch32v20x_flash.c **** /* FLASH BANK address */
  54:Drivers/src/ch32v20x_flash.c **** #define FLASH_BANK1_END_ADDRESS    ((uint32_t)0x807FFFF)
  55:Drivers/src/ch32v20x_flash.c **** 
  56:Drivers/src/ch32v20x_flash.c **** /* EEPROM address */
  57:Drivers/src/ch32v20x_flash.c **** #define EEPROM_ADDRESS             ((uint32_t)0x8070000)
  58:Drivers/src/ch32v20x_flash.c **** 
  59:Drivers/src/ch32v20x_flash.c **** /* Delay definition */
  60:Drivers/src/ch32v20x_flash.c **** #define EraseTimeout               ((uint32_t)0x000B0000)
  61:Drivers/src/ch32v20x_flash.c **** #define ProgramTimeout             ((uint32_t)0x00005000)
  62:Drivers/src/ch32v20x_flash.c **** 
  63:Drivers/src/ch32v20x_flash.c **** /*********************************************************************
  64:Drivers/src/ch32v20x_flash.c ****  * @fn      FLASH_Unlock
  65:Drivers/src/ch32v20x_flash.c ****  *
  66:Drivers/src/ch32v20x_flash.c ****  * @brief   Unlocks the FLASH Program Erase Controller.
  67:Drivers/src/ch32v20x_flash.c ****  *
  68:Drivers/src/ch32v20x_flash.c ****  * @return  none
  69:Drivers/src/ch32v20x_flash.c ****  */
  70:Drivers/src/ch32v20x_flash.c **** void FLASH_Unlock(void)
  71:Drivers/src/ch32v20x_flash.c **** {
  17              		.loc 1 71 1
  18              		.cfi_startproc
  19 0000 4111     		addi	sp,sp,-16
  20              		.cfi_def_cfa_offset 16
  21 0002 22C6     		sw	s0,12(sp)
  22              		.cfi_offset 8, -4
  23 0004 0008     		addi	s0,sp,16
  24              		.cfi_def_cfa 8, 0
  72:Drivers/src/ch32v20x_flash.c ****     /* Authorize the FPEC of Bank1 Access */
  73:Drivers/src/ch32v20x_flash.c ****     FLASH->KEYR = FLASH_KEY1;
  25              		.loc 1 73 10
  26 0006 B7270240 		li	a5,1073881088
  27              		.loc 1 73 17
  28 000a 37076745 		li	a4,1164378112
  29 000e 13073712 		addi	a4,a4,291
  30 0012 D8C3     		sw	a4,4(a5)
  74:Drivers/src/ch32v20x_flash.c ****     FLASH->KEYR = FLASH_KEY2;
  31              		.loc 1 74 10
  32 0014 B7270240 		li	a5,1073881088
  33              		.loc 1 74 17
  34 0018 3797EFCD 		li	a4,-839938048
  35 001c 1307B79A 		addi	a4,a4,-1621
  36 0020 D8C3     		sw	a4,4(a5)
  75:Drivers/src/ch32v20x_flash.c **** }
  37              		.loc 1 75 1
  38 0022 0100     		nop
  39 0024 3244     		lw	s0,12(sp)
  40              		.cfi_restore 8
GAS LISTING C:\Users\SOLDER~1\AppData\Local\Temp\ccKV8tJ7.s 			page 3


  41              		.cfi_def_cfa 2, 16
  42 0026 4101     		addi	sp,sp,16
  43              		.cfi_def_cfa_offset 0
  44 0028 8280     		jr	ra
  45              		.cfi_endproc
  46              	.LFE16:
  48              		.section	.text.FLASH_UnlockBank1,"ax",@progbits
  49              		.align	1
  50              		.globl	FLASH_UnlockBank1
  52              	FLASH_UnlockBank1:
  53              	.LFB17:
  76:Drivers/src/ch32v20x_flash.c **** 
  77:Drivers/src/ch32v20x_flash.c **** /*********************************************************************
  78:Drivers/src/ch32v20x_flash.c ****  * @fn      FLASH_UnlockBank1
  79:Drivers/src/ch32v20x_flash.c ****  *
  80:Drivers/src/ch32v20x_flash.c ****  * @brief   Unlocks the FLASH Bank1 Program Erase Controller.
  81:Drivers/src/ch32v20x_flash.c ****  *          equivalent to FLASH_Unlock function.
  82:Drivers/src/ch32v20x_flash.c ****  *
  83:Drivers/src/ch32v20x_flash.c ****  * @return  none
  84:Drivers/src/ch32v20x_flash.c ****  */
  85:Drivers/src/ch32v20x_flash.c **** void FLASH_UnlockBank1(void)
  86:Drivers/src/ch32v20x_flash.c **** {
  54              		.loc 1 86 1
  55              		.cfi_startproc
  56 0000 4111     		addi	sp,sp,-16
  57              		.cfi_def_cfa_offset 16
  58 0002 22C6     		sw	s0,12(sp)
  59              		.cfi_offset 8, -4
  60 0004 0008     		addi	s0,sp,16
  61              		.cfi_def_cfa 8, 0
  87:Drivers/src/ch32v20x_flash.c ****     FLASH->KEYR = FLASH_KEY1;
  62              		.loc 1 87 10
  63 0006 B7270240 		li	a5,1073881088
  64              		.loc 1 87 17
  65 000a 37076745 		li	a4,1164378112
  66 000e 13073712 		addi	a4,a4,291
  67 0012 D8C3     		sw	a4,4(a5)
  88:Drivers/src/ch32v20x_flash.c ****     FLASH->KEYR = FLASH_KEY2;
  68              		.loc 1 88 10
  69 0014 B7270240 		li	a5,1073881088
  70              		.loc 1 88 17
  71 0018 3797EFCD 		li	a4,-839938048
  72 001c 1307B79A 		addi	a4,a4,-1621
  73 0020 D8C3     		sw	a4,4(a5)
  89:Drivers/src/ch32v20x_flash.c **** }
  74              		.loc 1 89 1
  75 0022 0100     		nop
  76 0024 3244     		lw	s0,12(sp)
  77              		.cfi_restore 8
  78              		.cfi_def_cfa 2, 16
  79 0026 4101     		addi	sp,sp,16
  80              		.cfi_def_cfa_offset 0
  81 0028 8280     		jr	ra
  82              		.cfi_endproc
  83              	.LFE17:
  85              		.section	.text.FLASH_Lock,"ax",@progbits
  86              		.align	1
GAS LISTING C:\Users\SOLDER~1\AppData\Local\Temp\ccKV8tJ7.s 			page 4


  87              		.globl	FLASH_Lock
  89              	FLASH_Lock:
  90              	.LFB18:
  90:Drivers/src/ch32v20x_flash.c **** 
  91:Drivers/src/ch32v20x_flash.c **** /*********************************************************************
  92:Drivers/src/ch32v20x_flash.c ****  * @fn      FLASH_Lock
  93:Drivers/src/ch32v20x_flash.c ****  *
  94:Drivers/src/ch32v20x_flash.c ****  * @brief   Locks the FLASH Program Erase Controller.
  95:Drivers/src/ch32v20x_flash.c ****  *
  96:Drivers/src/ch32v20x_flash.c ****  * @return  none
  97:Drivers/src/ch32v20x_flash.c ****  */
  98:Drivers/src/ch32v20x_flash.c **** void FLASH_Lock(void)
  99:Drivers/src/ch32v20x_flash.c **** {
  91              		.loc 1 99 1
  92              		.cfi_startproc
  93 0000 4111     		addi	sp,sp,-16
  94              		.cfi_def_cfa_offset 16
  95 0002 22C6     		sw	s0,12(sp)
  96              		.cfi_offset 8, -4
  97 0004 0008     		addi	s0,sp,16
  98              		.cfi_def_cfa 8, 0
 100:Drivers/src/ch32v20x_flash.c ****     FLASH->CTLR |= CR_LOCK_Set;
  99              		.loc 1 100 10
 100 0006 B7270240 		li	a5,1073881088
 101 000a 984B     		lw	a4,16(a5)
 102 000c B7270240 		li	a5,1073881088
 103              		.loc 1 100 17
 104 0010 13670708 		ori	a4,a4,128
 105 0014 98CB     		sw	a4,16(a5)
 101:Drivers/src/ch32v20x_flash.c **** }
 106              		.loc 1 101 1
 107 0016 0100     		nop
 108 0018 3244     		lw	s0,12(sp)
 109              		.cfi_restore 8
 110              		.cfi_def_cfa 2, 16
 111 001a 4101     		addi	sp,sp,16
 112              		.cfi_def_cfa_offset 0
 113 001c 8280     		jr	ra
 114              		.cfi_endproc
 115              	.LFE18:
 117              		.section	.text.FLASH_LockBank1,"ax",@progbits
 118              		.align	1
 119              		.globl	FLASH_LockBank1
 121              	FLASH_LockBank1:
 122              	.LFB19:
 102:Drivers/src/ch32v20x_flash.c **** 
 103:Drivers/src/ch32v20x_flash.c **** /*********************************************************************
 104:Drivers/src/ch32v20x_flash.c ****  * @fn      FLASH_LockBank1
 105:Drivers/src/ch32v20x_flash.c ****  *
 106:Drivers/src/ch32v20x_flash.c ****  * @brief   Locks the FLASH Bank1 Program Erase Controller.
 107:Drivers/src/ch32v20x_flash.c ****  *
 108:Drivers/src/ch32v20x_flash.c ****  * @return  none
 109:Drivers/src/ch32v20x_flash.c ****  */
 110:Drivers/src/ch32v20x_flash.c **** void FLASH_LockBank1(void)
 111:Drivers/src/ch32v20x_flash.c **** {
 123              		.loc 1 111 1
 124              		.cfi_startproc
GAS LISTING C:\Users\SOLDER~1\AppData\Local\Temp\ccKV8tJ7.s 			page 5


 125 0000 4111     		addi	sp,sp,-16
 126              		.cfi_def_cfa_offset 16
 127 0002 22C6     		sw	s0,12(sp)
 128              		.cfi_offset 8, -4
 129 0004 0008     		addi	s0,sp,16
 130              		.cfi_def_cfa 8, 0
 112:Drivers/src/ch32v20x_flash.c ****     FLASH->CTLR |= CR_LOCK_Set;
 131              		.loc 1 112 10
 132 0006 B7270240 		li	a5,1073881088
 133 000a 984B     		lw	a4,16(a5)
 134 000c B7270240 		li	a5,1073881088
 135              		.loc 1 112 17
 136 0010 13670708 		ori	a4,a4,128
 137 0014 98CB     		sw	a4,16(a5)
 113:Drivers/src/ch32v20x_flash.c **** }
 138              		.loc 1 113 1
 139 0016 0100     		nop
 140 0018 3244     		lw	s0,12(sp)
 141              		.cfi_restore 8
 142              		.cfi_def_cfa 2, 16
 143 001a 4101     		addi	sp,sp,16
 144              		.cfi_def_cfa_offset 0
 145 001c 8280     		jr	ra
 146              		.cfi_endproc
 147              	.LFE19:
 149              		.section	.text.FLASH_ErasePage,"ax",@progbits
 150              		.align	1
 151              		.globl	FLASH_ErasePage
 153              	FLASH_ErasePage:
 154              	.LFB20:
 114:Drivers/src/ch32v20x_flash.c **** 
 115:Drivers/src/ch32v20x_flash.c **** /*********************************************************************
 116:Drivers/src/ch32v20x_flash.c ****  * @fn      FLASH_ErasePage
 117:Drivers/src/ch32v20x_flash.c ****  *
 118:Drivers/src/ch32v20x_flash.c ****  * @brief   Erases a specified FLASH page(page size 4KB).
 119:Drivers/src/ch32v20x_flash.c ****  *
 120:Drivers/src/ch32v20x_flash.c ****  * @param   Page_Address - The page address to be erased.
 121:Drivers/src/ch32v20x_flash.c ****  *
 122:Drivers/src/ch32v20x_flash.c ****  * @return  FLASH Status - The returned value can be: FLASH_BUSY, FLASH_ERROR_PG,
 123:Drivers/src/ch32v20x_flash.c ****  *        FLASH_ERROR_WRP, FLASH_COMPLETE or FLASH_TIMEOUT.
 124:Drivers/src/ch32v20x_flash.c ****  */
 125:Drivers/src/ch32v20x_flash.c **** FLASH_Status FLASH_ErasePage(uint32_t Page_Address)
 126:Drivers/src/ch32v20x_flash.c **** {
 155              		.loc 1 126 1
 156              		.cfi_startproc
 157 0000 7971     		addi	sp,sp,-48
 158              		.cfi_def_cfa_offset 48
 159 0002 06D6     		sw	ra,44(sp)
 160 0004 22D4     		sw	s0,40(sp)
 161              		.cfi_offset 1, -4
 162              		.cfi_offset 8, -8
 163 0006 0018     		addi	s0,sp,48
 164              		.cfi_def_cfa 8, 0
 165 0008 232EA4FC 		sw	a0,-36(s0)
 127:Drivers/src/ch32v20x_flash.c ****     FLASH_Status status = FLASH_COMPLETE;
 166              		.loc 1 127 18
 167 000c 9147     		li	a5,4
GAS LISTING C:\Users\SOLDER~1\AppData\Local\Temp\ccKV8tJ7.s 			page 6


 168 000e 2326F4FE 		sw	a5,-20(s0)
 128:Drivers/src/ch32v20x_flash.c **** 
 129:Drivers/src/ch32v20x_flash.c ****     status = FLASH_WaitForLastOperation(EraseTimeout);
 169              		.loc 1 129 14
 170 0012 37050B00 		li	a0,720896
 171 0016 97000000 		call	FLASH_WaitForLastOperation
 171      E7800000 
 172 001e 2326A4FE 		sw	a0,-20(s0)
 130:Drivers/src/ch32v20x_flash.c **** 
 131:Drivers/src/ch32v20x_flash.c ****     if(status == FLASH_COMPLETE)
 173              		.loc 1 131 7
 174 0022 0327C4FE 		lw	a4,-20(s0)
 175 0026 9147     		li	a5,4
 176 0028 6316F704 		bne	a4,a5,.L6
 132:Drivers/src/ch32v20x_flash.c ****     {
 133:Drivers/src/ch32v20x_flash.c ****         FLASH->CTLR |= CR_PER_Set;
 177              		.loc 1 133 14
 178 002c B7270240 		li	a5,1073881088
 179 0030 984B     		lw	a4,16(a5)
 180 0032 B7270240 		li	a5,1073881088
 181              		.loc 1 133 21
 182 0036 13672700 		ori	a4,a4,2
 183 003a 98CB     		sw	a4,16(a5)
 134:Drivers/src/ch32v20x_flash.c ****         FLASH->ADDR = Page_Address;
 184              		.loc 1 134 14
 185 003c B7270240 		li	a5,1073881088
 186              		.loc 1 134 21
 187 0040 0327C4FD 		lw	a4,-36(s0)
 188 0044 D8CB     		sw	a4,20(a5)
 135:Drivers/src/ch32v20x_flash.c ****         FLASH->CTLR |= CR_STRT_Set;
 189              		.loc 1 135 14
 190 0046 B7270240 		li	a5,1073881088
 191 004a 984B     		lw	a4,16(a5)
 192 004c B7270240 		li	a5,1073881088
 193              		.loc 1 135 21
 194 0050 13670704 		ori	a4,a4,64
 195 0054 98CB     		sw	a4,16(a5)
 136:Drivers/src/ch32v20x_flash.c **** 
 137:Drivers/src/ch32v20x_flash.c ****         status = FLASH_WaitForLastOperation(EraseTimeout);
 196              		.loc 1 137 18
 197 0056 37050B00 		li	a0,720896
 198 005a 97000000 		call	FLASH_WaitForLastOperation
 198      E7800000 
 199 0062 2326A4FE 		sw	a0,-20(s0)
 138:Drivers/src/ch32v20x_flash.c **** 
 139:Drivers/src/ch32v20x_flash.c ****         FLASH->CTLR &= CR_PER_Reset;
 200              		.loc 1 139 14
 201 0066 B7270240 		li	a5,1073881088
 202 006a 984B     		lw	a4,16(a5)
 203 006c B7270240 		li	a5,1073881088
 204              		.loc 1 139 21
 205 0070 759B     		andi	a4,a4,-3
 206 0072 98CB     		sw	a4,16(a5)
 207              	.L6:
 140:Drivers/src/ch32v20x_flash.c ****     }
 141:Drivers/src/ch32v20x_flash.c **** 
 142:Drivers/src/ch32v20x_flash.c ****     return status;
GAS LISTING C:\Users\SOLDER~1\AppData\Local\Temp\ccKV8tJ7.s 			page 7


 208              		.loc 1 142 12
 209 0074 8327C4FE 		lw	a5,-20(s0)
 143:Drivers/src/ch32v20x_flash.c **** }
 210              		.loc 1 143 1
 211 0078 3E85     		mv	a0,a5
 212 007a B250     		lw	ra,44(sp)
 213              		.cfi_restore 1
 214 007c 2254     		lw	s0,40(sp)
 215              		.cfi_restore 8
 216              		.cfi_def_cfa 2, 48
 217 007e 4561     		addi	sp,sp,48
 218              		.cfi_def_cfa_offset 0
 219 0080 8280     		jr	ra
 220              		.cfi_endproc
 221              	.LFE20:
 223              		.section	.text.FLASH_EraseAllPages,"ax",@progbits
 224              		.align	1
 225              		.globl	FLASH_EraseAllPages
 227              	FLASH_EraseAllPages:
 228              	.LFB21:
 144:Drivers/src/ch32v20x_flash.c **** 
 145:Drivers/src/ch32v20x_flash.c **** /*********************************************************************
 146:Drivers/src/ch32v20x_flash.c ****  * @fn      FLASH_EraseAllPages
 147:Drivers/src/ch32v20x_flash.c ****  *
 148:Drivers/src/ch32v20x_flash.c ****  * @brief   Erases all FLASH pages.
 149:Drivers/src/ch32v20x_flash.c ****  *
 150:Drivers/src/ch32v20x_flash.c ****  * @return  FLASH Status - The returned value can be: FLASH_BUSY, FLASH_ERROR_PG,
 151:Drivers/src/ch32v20x_flash.c ****  *        FLASH_ERROR_WRP, FLASH_COMPLETE or FLASH_TIMEOUT.
 152:Drivers/src/ch32v20x_flash.c ****  */
 153:Drivers/src/ch32v20x_flash.c **** FLASH_Status FLASH_EraseAllPages(void)
 154:Drivers/src/ch32v20x_flash.c **** {
 229              		.loc 1 154 1
 230              		.cfi_startproc
 231 0000 0111     		addi	sp,sp,-32
 232              		.cfi_def_cfa_offset 32
 233 0002 06CE     		sw	ra,28(sp)
 234 0004 22CC     		sw	s0,24(sp)
 235              		.cfi_offset 1, -4
 236              		.cfi_offset 8, -8
 237 0006 0010     		addi	s0,sp,32
 238              		.cfi_def_cfa 8, 0
 155:Drivers/src/ch32v20x_flash.c ****     FLASH_Status status = FLASH_COMPLETE;
 239              		.loc 1 155 18
 240 0008 9147     		li	a5,4
 241 000a 2326F4FE 		sw	a5,-20(s0)
 156:Drivers/src/ch32v20x_flash.c **** 
 157:Drivers/src/ch32v20x_flash.c ****     status = FLASH_WaitForLastOperation(EraseTimeout);
 242              		.loc 1 157 14
 243 000e 37050B00 		li	a0,720896
 244 0012 97000000 		call	FLASH_WaitForLastOperation
 244      E7800000 
 245 001a 2326A4FE 		sw	a0,-20(s0)
 158:Drivers/src/ch32v20x_flash.c ****     if(status == FLASH_COMPLETE)
 246              		.loc 1 158 7
 247 001e 0327C4FE 		lw	a4,-20(s0)
 248 0022 9147     		li	a5,4
 249 0024 6311F704 		bne	a4,a5,.L9
GAS LISTING C:\Users\SOLDER~1\AppData\Local\Temp\ccKV8tJ7.s 			page 8


 159:Drivers/src/ch32v20x_flash.c ****     {
 160:Drivers/src/ch32v20x_flash.c ****         FLASH->CTLR |= CR_MER_Set;
 250              		.loc 1 160 14
 251 0028 B7270240 		li	a5,1073881088
 252 002c 984B     		lw	a4,16(a5)
 253 002e B7270240 		li	a5,1073881088
 254              		.loc 1 160 21
 255 0032 13674700 		ori	a4,a4,4
 256 0036 98CB     		sw	a4,16(a5)
 161:Drivers/src/ch32v20x_flash.c ****         FLASH->CTLR |= CR_STRT_Set;
 257              		.loc 1 161 14
 258 0038 B7270240 		li	a5,1073881088
 259 003c 984B     		lw	a4,16(a5)
 260 003e B7270240 		li	a5,1073881088
 261              		.loc 1 161 21
 262 0042 13670704 		ori	a4,a4,64
 263 0046 98CB     		sw	a4,16(a5)
 162:Drivers/src/ch32v20x_flash.c **** 
 163:Drivers/src/ch32v20x_flash.c ****         status = FLASH_WaitForLastOperation(EraseTimeout);
 264              		.loc 1 163 18
 265 0048 37050B00 		li	a0,720896
 266 004c 97000000 		call	FLASH_WaitForLastOperation
 266      E7800000 
 267 0054 2326A4FE 		sw	a0,-20(s0)
 164:Drivers/src/ch32v20x_flash.c **** 
 165:Drivers/src/ch32v20x_flash.c ****         FLASH->CTLR &= CR_MER_Reset;
 268              		.loc 1 165 14
 269 0058 B7270240 		li	a5,1073881088
 270 005c 984B     		lw	a4,16(a5)
 271 005e B7270240 		li	a5,1073881088
 272              		.loc 1 165 21
 273 0062 6D9B     		andi	a4,a4,-5
 274 0064 98CB     		sw	a4,16(a5)
 275              	.L9:
 166:Drivers/src/ch32v20x_flash.c ****     }
 167:Drivers/src/ch32v20x_flash.c **** 
 168:Drivers/src/ch32v20x_flash.c ****     return status;
 276              		.loc 1 168 12
 277 0066 8327C4FE 		lw	a5,-20(s0)
 169:Drivers/src/ch32v20x_flash.c **** }
 278              		.loc 1 169 1
 279 006a 3E85     		mv	a0,a5
 280 006c F240     		lw	ra,28(sp)
 281              		.cfi_restore 1
 282 006e 6244     		lw	s0,24(sp)
 283              		.cfi_restore 8
 284              		.cfi_def_cfa 2, 32
 285 0070 0561     		addi	sp,sp,32
 286              		.cfi_def_cfa_offset 0
 287 0072 8280     		jr	ra
 288              		.cfi_endproc
 289              	.LFE21:
 291              		.section	.text.FLASH_EraseAllBank1Pages,"ax",@progbits
 292              		.align	1
 293              		.globl	FLASH_EraseAllBank1Pages
 295              	FLASH_EraseAllBank1Pages:
 296              	.LFB22:
GAS LISTING C:\Users\SOLDER~1\AppData\Local\Temp\ccKV8tJ7.s 			page 9


 170:Drivers/src/ch32v20x_flash.c **** 
 171:Drivers/src/ch32v20x_flash.c **** /*********************************************************************
 172:Drivers/src/ch32v20x_flash.c ****  * @fn      FLASH_EraseAllBank1Pages
 173:Drivers/src/ch32v20x_flash.c ****  *
 174:Drivers/src/ch32v20x_flash.c ****  * @brief   Erases all Bank1 FLASH pages.
 175:Drivers/src/ch32v20x_flash.c ****  *
 176:Drivers/src/ch32v20x_flash.c ****  * @return  FLASH Status - The returned value can be: FLASH_BUSY, FLASH_ERROR_PG,
 177:Drivers/src/ch32v20x_flash.c ****  *        FLASH_ERROR_WRP, FLASH_COMPLETE or FLASH_TIMEOUT.
 178:Drivers/src/ch32v20x_flash.c ****  */
 179:Drivers/src/ch32v20x_flash.c **** FLASH_Status FLASH_EraseAllBank1Pages(void)
 180:Drivers/src/ch32v20x_flash.c **** {
 297              		.loc 1 180 1
 298              		.cfi_startproc
 299 0000 0111     		addi	sp,sp,-32
 300              		.cfi_def_cfa_offset 32
 301 0002 06CE     		sw	ra,28(sp)
 302 0004 22CC     		sw	s0,24(sp)
 303              		.cfi_offset 1, -4
 304              		.cfi_offset 8, -8
 305 0006 0010     		addi	s0,sp,32
 306              		.cfi_def_cfa 8, 0
 181:Drivers/src/ch32v20x_flash.c ****     FLASH_Status status = FLASH_COMPLETE;
 307              		.loc 1 181 18
 308 0008 9147     		li	a5,4
 309 000a 2326F4FE 		sw	a5,-20(s0)
 182:Drivers/src/ch32v20x_flash.c ****     status = FLASH_WaitForLastBank1Operation(EraseTimeout);
 310              		.loc 1 182 14
 311 000e 37050B00 		li	a0,720896
 312 0012 97000000 		call	FLASH_WaitForLastBank1Operation
 312      E7800000 
 313 001a 2326A4FE 		sw	a0,-20(s0)
 183:Drivers/src/ch32v20x_flash.c **** 
 184:Drivers/src/ch32v20x_flash.c ****     if(status == FLASH_COMPLETE)
 314              		.loc 1 184 7
 315 001e 0327C4FE 		lw	a4,-20(s0)
 316 0022 9147     		li	a5,4
 317 0024 6311F704 		bne	a4,a5,.L12
 185:Drivers/src/ch32v20x_flash.c ****     {
 186:Drivers/src/ch32v20x_flash.c ****         FLASH->CTLR |= CR_MER_Set;
 318              		.loc 1 186 14
 319 0028 B7270240 		li	a5,1073881088
 320 002c 984B     		lw	a4,16(a5)
 321 002e B7270240 		li	a5,1073881088
 322              		.loc 1 186 21
 323 0032 13674700 		ori	a4,a4,4
 324 0036 98CB     		sw	a4,16(a5)
 187:Drivers/src/ch32v20x_flash.c ****         FLASH->CTLR |= CR_STRT_Set;
 325              		.loc 1 187 14
 326 0038 B7270240 		li	a5,1073881088
 327 003c 984B     		lw	a4,16(a5)
 328 003e B7270240 		li	a5,1073881088
 329              		.loc 1 187 21
 330 0042 13670704 		ori	a4,a4,64
 331 0046 98CB     		sw	a4,16(a5)
 188:Drivers/src/ch32v20x_flash.c **** 
 189:Drivers/src/ch32v20x_flash.c ****         status = FLASH_WaitForLastBank1Operation(EraseTimeout);
 332              		.loc 1 189 18
GAS LISTING C:\Users\SOLDER~1\AppData\Local\Temp\ccKV8tJ7.s 			page 10


 333 0048 37050B00 		li	a0,720896
 334 004c 97000000 		call	FLASH_WaitForLastBank1Operation
 334      E7800000 
 335 0054 2326A4FE 		sw	a0,-20(s0)
 190:Drivers/src/ch32v20x_flash.c **** 
 191:Drivers/src/ch32v20x_flash.c ****         FLASH->CTLR &= CR_MER_Reset;
 336              		.loc 1 191 14
 337 0058 B7270240 		li	a5,1073881088
 338 005c 984B     		lw	a4,16(a5)
 339 005e B7270240 		li	a5,1073881088
 340              		.loc 1 191 21
 341 0062 6D9B     		andi	a4,a4,-5
 342 0064 98CB     		sw	a4,16(a5)
 343              	.L12:
 192:Drivers/src/ch32v20x_flash.c ****     }
 193:Drivers/src/ch32v20x_flash.c ****     return status;
 344              		.loc 1 193 12
 345 0066 8327C4FE 		lw	a5,-20(s0)
 194:Drivers/src/ch32v20x_flash.c **** }
 346              		.loc 1 194 1
 347 006a 3E85     		mv	a0,a5
 348 006c F240     		lw	ra,28(sp)
 349              		.cfi_restore 1
 350 006e 6244     		lw	s0,24(sp)
 351              		.cfi_restore 8
 352              		.cfi_def_cfa 2, 32
 353 0070 0561     		addi	sp,sp,32
 354              		.cfi_def_cfa_offset 0
 355 0072 8280     		jr	ra
 356              		.cfi_endproc
 357              	.LFE22:
 359              		.section	.text.FLASH_EraseOptionBytes,"ax",@progbits
 360              		.align	1
 361              		.globl	FLASH_EraseOptionBytes
 363              	FLASH_EraseOptionBytes:
 364              	.LFB23:
 195:Drivers/src/ch32v20x_flash.c **** 
 196:Drivers/src/ch32v20x_flash.c **** /*********************************************************************
 197:Drivers/src/ch32v20x_flash.c ****  * @fn      FLASH_EraseOptionBytes
 198:Drivers/src/ch32v20x_flash.c ****  *
 199:Drivers/src/ch32v20x_flash.c ****  * @brief   Erases the FLASH option bytes.
 200:Drivers/src/ch32v20x_flash.c ****  *
 201:Drivers/src/ch32v20x_flash.c ****  * @return  FLASH Status - The returned value can be: FLASH_BUSY, FLASH_ERROR_PG,
 202:Drivers/src/ch32v20x_flash.c ****  *        FLASH_ERROR_WRP, FLASH_COMPLETE or FLASH_TIMEOUT.
 203:Drivers/src/ch32v20x_flash.c ****  */
 204:Drivers/src/ch32v20x_flash.c **** FLASH_Status FLASH_EraseOptionBytes(void)
 205:Drivers/src/ch32v20x_flash.c **** {
 365              		.loc 1 205 1
 366              		.cfi_startproc
 367 0000 0111     		addi	sp,sp,-32
 368              		.cfi_def_cfa_offset 32
 369 0002 06CE     		sw	ra,28(sp)
 370 0004 22CC     		sw	s0,24(sp)
 371              		.cfi_offset 1, -4
 372              		.cfi_offset 8, -8
 373 0006 0010     		addi	s0,sp,32
 374              		.cfi_def_cfa 8, 0
GAS LISTING C:\Users\SOLDER~1\AppData\Local\Temp\ccKV8tJ7.s 			page 11


 206:Drivers/src/ch32v20x_flash.c ****     uint16_t     rdptmp = RDP_Key;
 375              		.loc 1 206 18
 376 0008 9307500A 		li	a5,165
 377 000c 2317F4FE 		sh	a5,-18(s0)
 207:Drivers/src/ch32v20x_flash.c ****     uint32_t     Address = 0x1FFFF800;
 378              		.loc 1 207 18
 379 0010 B7070020 		li	a5,536870912
 380 0014 93870780 		addi	a5,a5,-2048
 381 0018 2322F4FE 		sw	a5,-28(s0)
 208:Drivers/src/ch32v20x_flash.c ****     __IO uint8_t i;
 209:Drivers/src/ch32v20x_flash.c **** 
 210:Drivers/src/ch32v20x_flash.c ****     FLASH_Status status = FLASH_COMPLETE;
 382              		.loc 1 210 18
 383 001c 9147     		li	a5,4
 384 001e 2324F4FE 		sw	a5,-24(s0)
 211:Drivers/src/ch32v20x_flash.c ****     if(FLASH_GetReadOutProtectionStatus() != RESET)
 385              		.loc 1 211 8
 386 0022 97000000 		call	FLASH_GetReadOutProtectionStatus
 386      E7800000 
 387 002a AA87     		mv	a5,a0
 388              		.loc 1 211 7
 389 002c 99C3     		beq	a5,zero,.L15
 212:Drivers/src/ch32v20x_flash.c ****     {
 213:Drivers/src/ch32v20x_flash.c ****         rdptmp = 0x00;
 390              		.loc 1 213 16
 391 002e 231704FE 		sh	zero,-18(s0)
 392              	.L15:
 214:Drivers/src/ch32v20x_flash.c ****     }
 215:Drivers/src/ch32v20x_flash.c ****     status = FLASH_WaitForLastOperation(EraseTimeout);
 393              		.loc 1 215 14
 394 0032 37050B00 		li	a0,720896
 395 0036 97000000 		call	FLASH_WaitForLastOperation
 395      E7800000 
 396 003e 2324A4FE 		sw	a0,-24(s0)
 216:Drivers/src/ch32v20x_flash.c ****     if(status == FLASH_COMPLETE)
 397              		.loc 1 216 7
 398 0042 032784FE 		lw	a4,-24(s0)
 399 0046 9147     		li	a5,4
 400 0048 6319F712 		bne	a4,a5,.L16
 217:Drivers/src/ch32v20x_flash.c ****     {
 218:Drivers/src/ch32v20x_flash.c ****         FLASH->OBKEYR = FLASH_KEY1;
 401              		.loc 1 218 14
 402 004c B7270240 		li	a5,1073881088
 403              		.loc 1 218 23
 404 0050 37076745 		li	a4,1164378112
 405 0054 13073712 		addi	a4,a4,291
 406 0058 98C7     		sw	a4,8(a5)
 219:Drivers/src/ch32v20x_flash.c ****         FLASH->OBKEYR = FLASH_KEY2;
 407              		.loc 1 219 14
 408 005a B7270240 		li	a5,1073881088
 409              		.loc 1 219 23
 410 005e 3797EFCD 		li	a4,-839938048
 411 0062 1307B79A 		addi	a4,a4,-1621
 412 0066 98C7     		sw	a4,8(a5)
 220:Drivers/src/ch32v20x_flash.c **** 
 221:Drivers/src/ch32v20x_flash.c ****         FLASH->CTLR |= CR_OPTER_Set;
 413              		.loc 1 221 14
GAS LISTING C:\Users\SOLDER~1\AppData\Local\Temp\ccKV8tJ7.s 			page 12


 414 0068 B7270240 		li	a5,1073881088
 415 006c 984B     		lw	a4,16(a5)
 416 006e B7270240 		li	a5,1073881088
 417              		.loc 1 221 21
 418 0072 13670702 		ori	a4,a4,32
 419 0076 98CB     		sw	a4,16(a5)
 222:Drivers/src/ch32v20x_flash.c ****         FLASH->CTLR |= CR_STRT_Set;
 420              		.loc 1 222 14
 421 0078 B7270240 		li	a5,1073881088
 422 007c 984B     		lw	a4,16(a5)
 423 007e B7270240 		li	a5,1073881088
 424              		.loc 1 222 21
 425 0082 13670704 		ori	a4,a4,64
 426 0086 98CB     		sw	a4,16(a5)
 223:Drivers/src/ch32v20x_flash.c ****         status = FLASH_WaitForLastOperation(EraseTimeout);
 427              		.loc 1 223 18
 428 0088 37050B00 		li	a0,720896
 429 008c 97000000 		call	FLASH_WaitForLastOperation
 429      E7800000 
 430 0094 2324A4FE 		sw	a0,-24(s0)
 224:Drivers/src/ch32v20x_flash.c **** 
 225:Drivers/src/ch32v20x_flash.c ****         if(status == FLASH_COMPLETE)
 431              		.loc 1 225 11
 432 0098 032784FE 		lw	a4,-24(s0)
 433 009c 9147     		li	a5,4
 434 009e 631DF704 		bne	a4,a5,.L17
 226:Drivers/src/ch32v20x_flash.c ****         {
 227:Drivers/src/ch32v20x_flash.c ****             FLASH->CTLR &= CR_OPTER_Reset;
 435              		.loc 1 227 18
 436 00a2 B7270240 		li	a5,1073881088
 437 00a6 984B     		lw	a4,16(a5)
 438 00a8 B7270240 		li	a5,1073881088
 439              		.loc 1 227 25
 440 00ac 1377F7FD 		andi	a4,a4,-33
 441 00b0 98CB     		sw	a4,16(a5)
 228:Drivers/src/ch32v20x_flash.c ****             FLASH->CTLR |= CR_OPTPG_Set;
 442              		.loc 1 228 18
 443 00b2 B7270240 		li	a5,1073881088
 444 00b6 984B     		lw	a4,16(a5)
 445 00b8 B7270240 		li	a5,1073881088
 446              		.loc 1 228 25
 447 00bc 13670701 		ori	a4,a4,16
 448 00c0 98CB     		sw	a4,16(a5)
 229:Drivers/src/ch32v20x_flash.c ****             OB->RDPR = (uint16_t)rdptmp;
 449              		.loc 1 229 15
 450 00c2 B7070020 		li	a5,536870912
 451 00c6 93870780 		addi	a5,a5,-2048
 452              		.loc 1 229 22
 453 00ca 0357E4FE 		lhu	a4,-18(s0)
 454 00ce 9AA3     		sh	a4,0(a5)
 230:Drivers/src/ch32v20x_flash.c ****             status = FLASH_WaitForLastOperation(ProgramTimeout);
 455              		.loc 1 230 22
 456 00d0 1565     		li	a0,20480
 457 00d2 97000000 		call	FLASH_WaitForLastOperation
 457      E7800000 
 458 00da 2324A4FE 		sw	a0,-24(s0)
 231:Drivers/src/ch32v20x_flash.c **** 
GAS LISTING C:\Users\SOLDER~1\AppData\Local\Temp\ccKV8tJ7.s 			page 13


 232:Drivers/src/ch32v20x_flash.c ****             if(status != FLASH_TIMEOUT)
 459              		.loc 1 232 15
 460 00de 032784FE 		lw	a4,-24(s0)
 461 00e2 9547     		li	a5,5
 462 00e4 6306F702 		beq	a4,a5,.L18
 233:Drivers/src/ch32v20x_flash.c ****             {
 234:Drivers/src/ch32v20x_flash.c ****                 FLASH->CTLR &= CR_OPTPG_Reset;
 463              		.loc 1 234 22
 464 00e8 B7270240 		li	a5,1073881088
 465 00ec 984B     		lw	a4,16(a5)
 466 00ee B7270240 		li	a5,1073881088
 467              		.loc 1 234 29
 468 00f2 3D9B     		andi	a4,a4,-17
 469 00f4 98CB     		sw	a4,16(a5)
 470 00f6 29A8     		j	.L18
 471              	.L17:
 235:Drivers/src/ch32v20x_flash.c ****             }
 236:Drivers/src/ch32v20x_flash.c ****         }
 237:Drivers/src/ch32v20x_flash.c ****         else
 238:Drivers/src/ch32v20x_flash.c ****         {
 239:Drivers/src/ch32v20x_flash.c ****             if(status != FLASH_TIMEOUT)
 472              		.loc 1 239 15
 473 00f8 032784FE 		lw	a4,-24(s0)
 474 00fc 9547     		li	a5,5
 475 00fe 6309F700 		beq	a4,a5,.L18
 240:Drivers/src/ch32v20x_flash.c ****             {
 241:Drivers/src/ch32v20x_flash.c ****                 FLASH->CTLR &= CR_OPTPG_Reset;
 476              		.loc 1 241 22
 477 0102 B7270240 		li	a5,1073881088
 478 0106 984B     		lw	a4,16(a5)
 479 0108 B7270240 		li	a5,1073881088
 480              		.loc 1 241 29
 481 010c 3D9B     		andi	a4,a4,-17
 482 010e 98CB     		sw	a4,16(a5)
 483              	.L18:
 242:Drivers/src/ch32v20x_flash.c ****             }
 243:Drivers/src/ch32v20x_flash.c ****         }
 244:Drivers/src/ch32v20x_flash.c **** 
 245:Drivers/src/ch32v20x_flash.c ****         /* Write 0xFF */
 246:Drivers/src/ch32v20x_flash.c ****         FLASH->CTLR |= CR_OPTPG_Set;
 484              		.loc 1 246 14
 485 0110 B7270240 		li	a5,1073881088
 486 0114 984B     		lw	a4,16(a5)
 487 0116 B7270240 		li	a5,1073881088
 488              		.loc 1 246 21
 489 011a 13670701 		ori	a4,a4,16
 490 011e 98CB     		sw	a4,16(a5)
 247:Drivers/src/ch32v20x_flash.c **** 
 248:Drivers/src/ch32v20x_flash.c ****         for(i = 0; i < 8; i++){
 491              		.loc 1 248 15
 492 0120 A30104FE 		sb	zero,-29(s0)
 493              		.loc 1 248 9
 494 0124 2DA8     		j	.L19
 495              	.L21:
 249:Drivers/src/ch32v20x_flash.c ****             *(uint16_t *)(Address + 2 * i) = 0x00FF;
 496              		.loc 1 249 39
 497 0126 834734FE 		lbu	a5,-29(s0)
GAS LISTING C:\Users\SOLDER~1\AppData\Local\Temp\ccKV8tJ7.s 			page 14


 498 012a 93F7F70F 		andi	a5,a5,0xff
 499 012e 8607     		slli	a5,a5,1
 500 0130 3E87     		mv	a4,a5
 501              		.loc 1 249 35
 502 0132 832744FE 		lw	a5,-28(s0)
 503 0136 BA97     		add	a5,a4,a5
 504              		.loc 1 249 14
 505 0138 3E87     		mv	a4,a5
 506              		.loc 1 249 44
 507 013a 9307F00F 		li	a5,255
 508 013e 1EA3     		sh	a5,0(a4)
 250:Drivers/src/ch32v20x_flash.c ****             while(FLASH->STATR & SR_BSY);
 509              		.loc 1 250 18
 510 0140 0100     		nop
 511              	.L20:
 512              		.loc 1 250 24 discriminator 1
 513 0142 B7270240 		li	a5,1073881088
 514 0146 DC47     		lw	a5,12(a5)
 515              		.loc 1 250 32 discriminator 1
 516 0148 858B     		andi	a5,a5,1
 517              		.loc 1 250 19 discriminator 1
 518 014a E5FF     		bne	a5,zero,.L20
 248:Drivers/src/ch32v20x_flash.c ****             *(uint16_t *)(Address + 2 * i) = 0x00FF;
 519              		.loc 1 248 28 discriminator 2
 520 014c 834734FE 		lbu	a5,-29(s0)
 521 0150 93F7F70F 		andi	a5,a5,0xff
 522 0154 8507     		addi	a5,a5,1
 523 0156 93F7F70F 		andi	a5,a5,0xff
 524 015a A301F4FE 		sb	a5,-29(s0)
 525              	.L19:
 248:Drivers/src/ch32v20x_flash.c ****             *(uint16_t *)(Address + 2 * i) = 0x00FF;
 526              		.loc 1 248 22 discriminator 1
 527 015e 834734FE 		lbu	a5,-29(s0)
 528 0162 13F7F70F 		andi	a4,a5,0xff
 529 0166 9D47     		li	a5,7
 530 0168 E3FFE7FA 		bleu	a4,a5,.L21
 251:Drivers/src/ch32v20x_flash.c ****         }
 252:Drivers/src/ch32v20x_flash.c **** 
 253:Drivers/src/ch32v20x_flash.c ****         FLASH->CTLR &= ~CR_OPTPG_Set;
 531              		.loc 1 253 14
 532 016c B7270240 		li	a5,1073881088
 533 0170 984B     		lw	a4,16(a5)
 534 0172 B7270240 		li	a5,1073881088
 535              		.loc 1 253 21
 536 0176 3D9B     		andi	a4,a4,-17
 537 0178 98CB     		sw	a4,16(a5)
 538              	.L16:
 254:Drivers/src/ch32v20x_flash.c ****     }
 255:Drivers/src/ch32v20x_flash.c ****     return status;
 539              		.loc 1 255 12
 540 017a 832784FE 		lw	a5,-24(s0)
 256:Drivers/src/ch32v20x_flash.c **** }
 541              		.loc 1 256 1
 542 017e 3E85     		mv	a0,a5
 543 0180 F240     		lw	ra,28(sp)
 544              		.cfi_restore 1
 545 0182 6244     		lw	s0,24(sp)
GAS LISTING C:\Users\SOLDER~1\AppData\Local\Temp\ccKV8tJ7.s 			page 15


 546              		.cfi_restore 8
 547              		.cfi_def_cfa 2, 32
 548 0184 0561     		addi	sp,sp,32
 549              		.cfi_def_cfa_offset 0
 550 0186 8280     		jr	ra
 551              		.cfi_endproc
 552              	.LFE23:
 554              		.section	.text.FLASH_ProgramWord,"ax",@progbits
 555              		.align	1
 556              		.globl	FLASH_ProgramWord
 558              	FLASH_ProgramWord:
 559              	.LFB24:
 257:Drivers/src/ch32v20x_flash.c **** 
 258:Drivers/src/ch32v20x_flash.c **** /*********************************************************************
 259:Drivers/src/ch32v20x_flash.c ****  * @fn      FLASH_ProgramWord
 260:Drivers/src/ch32v20x_flash.c ****  *
 261:Drivers/src/ch32v20x_flash.c ****  * @brief   Programs a word at a specified address.
 262:Drivers/src/ch32v20x_flash.c ****  *
 263:Drivers/src/ch32v20x_flash.c ****  * @param   Address - specifies the address to be programmed.
 264:Drivers/src/ch32v20x_flash.c ****  *          Data - specifies the data to be programmed.
 265:Drivers/src/ch32v20x_flash.c ****  *
 266:Drivers/src/ch32v20x_flash.c ****  * @return  FLASH Status - The returned value can be: FLASH_BUSY, FLASH_ERROR_PG,
 267:Drivers/src/ch32v20x_flash.c ****  *        FLASH_ERROR_WRP, FLASH_COMPLETE or FLASH_TIMEOUT.
 268:Drivers/src/ch32v20x_flash.c ****  */
 269:Drivers/src/ch32v20x_flash.c **** FLASH_Status FLASH_ProgramWord(uint32_t Address, uint32_t Data)
 270:Drivers/src/ch32v20x_flash.c **** {
 560              		.loc 1 270 1
 561              		.cfi_startproc
 562 0000 7971     		addi	sp,sp,-48
 563              		.cfi_def_cfa_offset 48
 564 0002 06D6     		sw	ra,44(sp)
 565 0004 22D4     		sw	s0,40(sp)
 566              		.cfi_offset 1, -4
 567              		.cfi_offset 8, -8
 568 0006 0018     		addi	s0,sp,48
 569              		.cfi_def_cfa 8, 0
 570 0008 232EA4FC 		sw	a0,-36(s0)
 571 000c 232CB4FC 		sw	a1,-40(s0)
 271:Drivers/src/ch32v20x_flash.c ****     FLASH_Status  status = FLASH_COMPLETE;
 572              		.loc 1 271 19
 573 0010 9147     		li	a5,4
 574 0012 2326F4FE 		sw	a5,-20(s0)
 272:Drivers/src/ch32v20x_flash.c ****     __IO uint32_t tmp = 0;
 575              		.loc 1 272 19
 576 0016 232404FE 		sw	zero,-24(s0)
 273:Drivers/src/ch32v20x_flash.c **** 
 274:Drivers/src/ch32v20x_flash.c ****     status = FLASH_WaitForLastOperation(ProgramTimeout);
 577              		.loc 1 274 14
 578 001a 1565     		li	a0,20480
 579 001c 97000000 		call	FLASH_WaitForLastOperation
 579      E7800000 
 580 0024 2326A4FE 		sw	a0,-20(s0)
 275:Drivers/src/ch32v20x_flash.c **** 
 276:Drivers/src/ch32v20x_flash.c ****     if(status == FLASH_COMPLETE)
 581              		.loc 1 276 7
 582 0028 0327C4FE 		lw	a4,-20(s0)
 583 002c 9147     		li	a5,4
GAS LISTING C:\Users\SOLDER~1\AppData\Local\Temp\ccKV8tJ7.s 			page 16


 584 002e 6310F708 		bne	a4,a5,.L24
 277:Drivers/src/ch32v20x_flash.c ****     {
 278:Drivers/src/ch32v20x_flash.c ****         FLASH->CTLR |= CR_PG_Set;
 585              		.loc 1 278 14
 586 0032 B7270240 		li	a5,1073881088
 587 0036 984B     		lw	a4,16(a5)
 588 0038 B7270240 		li	a5,1073881088
 589              		.loc 1 278 21
 590 003c 13671700 		ori	a4,a4,1
 591 0040 98CB     		sw	a4,16(a5)
 279:Drivers/src/ch32v20x_flash.c **** 
 280:Drivers/src/ch32v20x_flash.c ****         *(__IO uint16_t *)Address = (uint16_t)Data;
 592              		.loc 1 280 10
 593 0042 8327C4FD 		lw	a5,-36(s0)
 594              		.loc 1 280 37
 595 0046 032784FD 		lw	a4,-40(s0)
 596 004a 4207     		slli	a4,a4,16
 597 004c 4183     		srli	a4,a4,16
 598              		.loc 1 280 35
 599 004e 9AA3     		sh	a4,0(a5)
 281:Drivers/src/ch32v20x_flash.c ****         status = FLASH_WaitForLastOperation(ProgramTimeout);
 600              		.loc 1 281 18
 601 0050 1565     		li	a0,20480
 602 0052 97000000 		call	FLASH_WaitForLastOperation
 602      E7800000 
 603 005a 2326A4FE 		sw	a0,-20(s0)
 282:Drivers/src/ch32v20x_flash.c **** 
 283:Drivers/src/ch32v20x_flash.c ****         if(status == FLASH_COMPLETE)
 604              		.loc 1 283 11
 605 005e 0327C4FE 		lw	a4,-20(s0)
 606 0062 9147     		li	a5,4
 607 0064 631EF702 		bne	a4,a5,.L25
 284:Drivers/src/ch32v20x_flash.c ****         {
 285:Drivers/src/ch32v20x_flash.c ****             tmp = Address + 2;
 608              		.loc 1 285 27
 609 0068 8327C4FD 		lw	a5,-36(s0)
 610 006c 8907     		addi	a5,a5,2
 611              		.loc 1 285 17
 612 006e 2324F4FE 		sw	a5,-24(s0)
 286:Drivers/src/ch32v20x_flash.c ****             *(__IO uint16_t *)tmp = Data >> 16;
 613              		.loc 1 286 42
 614 0072 832784FD 		lw	a5,-40(s0)
 615 0076 C183     		srli	a5,a5,16
 616              		.loc 1 286 14
 617 0078 032784FE 		lw	a4,-24(s0)
 618              		.loc 1 286 35
 619 007c C207     		slli	a5,a5,16
 620 007e C183     		srli	a5,a5,16
 621 0080 1EA3     		sh	a5,0(a4)
 287:Drivers/src/ch32v20x_flash.c ****             status = FLASH_WaitForLastOperation(ProgramTimeout);
 622              		.loc 1 287 22
 623 0082 1565     		li	a0,20480
 624 0084 97000000 		call	FLASH_WaitForLastOperation
 624      E7800000 
 625 008c 2326A4FE 		sw	a0,-20(s0)
 288:Drivers/src/ch32v20x_flash.c ****             FLASH->CTLR &= CR_PG_Reset;
 626              		.loc 1 288 18
GAS LISTING C:\Users\SOLDER~1\AppData\Local\Temp\ccKV8tJ7.s 			page 17


 627 0090 B7270240 		li	a5,1073881088
 628 0094 984B     		lw	a4,16(a5)
 629 0096 B7270240 		li	a5,1073881088
 630              		.loc 1 288 25
 631 009a 799B     		andi	a4,a4,-2
 632 009c 98CB     		sw	a4,16(a5)
 633 009e 01A8     		j	.L24
 634              	.L25:
 289:Drivers/src/ch32v20x_flash.c ****         }
 290:Drivers/src/ch32v20x_flash.c ****         else
 291:Drivers/src/ch32v20x_flash.c ****         {
 292:Drivers/src/ch32v20x_flash.c ****             FLASH->CTLR &= CR_PG_Reset;
 635              		.loc 1 292 18
 636 00a0 B7270240 		li	a5,1073881088
 637 00a4 984B     		lw	a4,16(a5)
 638 00a6 B7270240 		li	a5,1073881088
 639              		.loc 1 292 25
 640 00aa 799B     		andi	a4,a4,-2
 641 00ac 98CB     		sw	a4,16(a5)
 642              	.L24:
 293:Drivers/src/ch32v20x_flash.c ****         }
 294:Drivers/src/ch32v20x_flash.c ****     }
 295:Drivers/src/ch32v20x_flash.c **** 
 296:Drivers/src/ch32v20x_flash.c ****     return status;
 643              		.loc 1 296 12
 644 00ae 8327C4FE 		lw	a5,-20(s0)
 297:Drivers/src/ch32v20x_flash.c **** }
 645              		.loc 1 297 1
 646 00b2 3E85     		mv	a0,a5
 647 00b4 B250     		lw	ra,44(sp)
 648              		.cfi_restore 1
 649 00b6 2254     		lw	s0,40(sp)
 650              		.cfi_restore 8
 651              		.cfi_def_cfa 2, 48
 652 00b8 4561     		addi	sp,sp,48
 653              		.cfi_def_cfa_offset 0
 654 00ba 8280     		jr	ra
 655              		.cfi_endproc
 656              	.LFE24:
 658              		.section	.text.FLASH_ProgramHalfWord,"ax",@progbits
 659              		.align	1
 660              		.globl	FLASH_ProgramHalfWord
 662              	FLASH_ProgramHalfWord:
 663              	.LFB25:
 298:Drivers/src/ch32v20x_flash.c **** 
 299:Drivers/src/ch32v20x_flash.c **** /*********************************************************************
 300:Drivers/src/ch32v20x_flash.c ****  * @fn      FLASH_ProgramHalfWord
 301:Drivers/src/ch32v20x_flash.c ****  *
 302:Drivers/src/ch32v20x_flash.c ****  * @brief   Programs a half word at a specified address.
 303:Drivers/src/ch32v20x_flash.c ****  *
 304:Drivers/src/ch32v20x_flash.c ****  * @param   Address - specifies the address to be programmed.
 305:Drivers/src/ch32v20x_flash.c ****  *          Data - specifies the data to be programmed.
 306:Drivers/src/ch32v20x_flash.c ****  *
 307:Drivers/src/ch32v20x_flash.c ****  * @return  FLASH Status - The returned value can be: FLASH_BUSY, FLASH_ERROR_PG,
 308:Drivers/src/ch32v20x_flash.c ****  *        FLASH_ERROR_WRP, FLASH_COMPLETE or FLASH_TIMEOUT.
 309:Drivers/src/ch32v20x_flash.c ****  */
 310:Drivers/src/ch32v20x_flash.c **** FLASH_Status FLASH_ProgramHalfWord(uint32_t Address, uint16_t Data)
GAS LISTING C:\Users\SOLDER~1\AppData\Local\Temp\ccKV8tJ7.s 			page 18


 311:Drivers/src/ch32v20x_flash.c **** {
 664              		.loc 1 311 1
 665              		.cfi_startproc
 666 0000 7971     		addi	sp,sp,-48
 667              		.cfi_def_cfa_offset 48
 668 0002 06D6     		sw	ra,44(sp)
 669 0004 22D4     		sw	s0,40(sp)
 670              		.cfi_offset 1, -4
 671              		.cfi_offset 8, -8
 672 0006 0018     		addi	s0,sp,48
 673              		.cfi_def_cfa 8, 0
 674 0008 232EA4FC 		sw	a0,-36(s0)
 675 000c AE87     		mv	a5,a1
 676 000e 231DF4FC 		sh	a5,-38(s0)
 312:Drivers/src/ch32v20x_flash.c ****     FLASH_Status status = FLASH_COMPLETE;
 677              		.loc 1 312 18
 678 0012 9147     		li	a5,4
 679 0014 2326F4FE 		sw	a5,-20(s0)
 313:Drivers/src/ch32v20x_flash.c **** 
 314:Drivers/src/ch32v20x_flash.c ****     status = FLASH_WaitForLastOperation(ProgramTimeout);
 680              		.loc 1 314 14
 681 0018 1565     		li	a0,20480
 682 001a 97000000 		call	FLASH_WaitForLastOperation
 682      E7800000 
 683 0022 2326A4FE 		sw	a0,-20(s0)
 315:Drivers/src/ch32v20x_flash.c **** 
 316:Drivers/src/ch32v20x_flash.c ****     if(status == FLASH_COMPLETE)
 684              		.loc 1 316 7
 685 0026 0327C4FE 		lw	a4,-20(s0)
 686 002a 9147     		li	a5,4
 687 002c 631DF702 		bne	a4,a5,.L28
 317:Drivers/src/ch32v20x_flash.c ****     {
 318:Drivers/src/ch32v20x_flash.c ****         FLASH->CTLR |= CR_PG_Set;
 688              		.loc 1 318 14
 689 0030 B7270240 		li	a5,1073881088
 690 0034 984B     		lw	a4,16(a5)
 691 0036 B7270240 		li	a5,1073881088
 692              		.loc 1 318 21
 693 003a 13671700 		ori	a4,a4,1
 694 003e 98CB     		sw	a4,16(a5)
 319:Drivers/src/ch32v20x_flash.c ****         *(__IO uint16_t *)Address = Data;
 695              		.loc 1 319 10
 696 0040 8327C4FD 		lw	a5,-36(s0)
 697              		.loc 1 319 35
 698 0044 0357A4FD 		lhu	a4,-38(s0)
 699 0048 9AA3     		sh	a4,0(a5)
 320:Drivers/src/ch32v20x_flash.c ****         status = FLASH_WaitForLastOperation(ProgramTimeout);
 700              		.loc 1 320 18
 701 004a 1565     		li	a0,20480
 702 004c 97000000 		call	FLASH_WaitForLastOperation
 702      E7800000 
 703 0054 2326A4FE 		sw	a0,-20(s0)
 321:Drivers/src/ch32v20x_flash.c ****         FLASH->CTLR &= CR_PG_Reset;
 704              		.loc 1 321 14
 705 0058 B7270240 		li	a5,1073881088
 706 005c 984B     		lw	a4,16(a5)
 707 005e B7270240 		li	a5,1073881088
GAS LISTING C:\Users\SOLDER~1\AppData\Local\Temp\ccKV8tJ7.s 			page 19


 708              		.loc 1 321 21
 709 0062 799B     		andi	a4,a4,-2
 710 0064 98CB     		sw	a4,16(a5)
 711              	.L28:
 322:Drivers/src/ch32v20x_flash.c ****     }
 323:Drivers/src/ch32v20x_flash.c **** 
 324:Drivers/src/ch32v20x_flash.c ****     return status;
 712              		.loc 1 324 12
 713 0066 8327C4FE 		lw	a5,-20(s0)
 325:Drivers/src/ch32v20x_flash.c **** }
 714              		.loc 1 325 1
 715 006a 3E85     		mv	a0,a5
 716 006c B250     		lw	ra,44(sp)
 717              		.cfi_restore 1
 718 006e 2254     		lw	s0,40(sp)
 719              		.cfi_restore 8
 720              		.cfi_def_cfa 2, 48
 721 0070 4561     		addi	sp,sp,48
 722              		.cfi_def_cfa_offset 0
 723 0072 8280     		jr	ra
 724              		.cfi_endproc
 725              	.LFE25:
 727              		.section	.text.FLASH_ProgramOptionByteData,"ax",@progbits
 728              		.align	1
 729              		.globl	FLASH_ProgramOptionByteData
 731              	FLASH_ProgramOptionByteData:
 732              	.LFB26:
 326:Drivers/src/ch32v20x_flash.c **** 
 327:Drivers/src/ch32v20x_flash.c **** /*********************************************************************
 328:Drivers/src/ch32v20x_flash.c ****  * @fn      FLASH_ProgramOptionByteData
 329:Drivers/src/ch32v20x_flash.c ****  *
 330:Drivers/src/ch32v20x_flash.c ****  * @brief   Programs a half word at a specified Option Byte Data address.
 331:Drivers/src/ch32v20x_flash.c ****  *
 332:Drivers/src/ch32v20x_flash.c ****  * @param   Address - specifies the address to be programmed.
 333:Drivers/src/ch32v20x_flash.c ****  *          Data - specifies the data to be programmed.
 334:Drivers/src/ch32v20x_flash.c ****  *
 335:Drivers/src/ch32v20x_flash.c ****  * @return  FLASH Status - The returned value can be: FLASH_BUSY, FLASH_ERROR_PG,
 336:Drivers/src/ch32v20x_flash.c ****  *        FLASH_ERROR_WRP, FLASH_COMPLETE or FLASH_TIMEOUT.
 337:Drivers/src/ch32v20x_flash.c ****  */
 338:Drivers/src/ch32v20x_flash.c **** FLASH_Status FLASH_ProgramOptionByteData(uint32_t Address, uint8_t Data)
 339:Drivers/src/ch32v20x_flash.c **** {
 733              		.loc 1 339 1
 734              		.cfi_startproc
 735 0000 3971     		addi	sp,sp,-64
 736              		.cfi_def_cfa_offset 64
 737 0002 06DE     		sw	ra,60(sp)
 738 0004 22DC     		sw	s0,56(sp)
 739              		.cfi_offset 1, -4
 740              		.cfi_offset 8, -8
 741 0006 8000     		addi	s0,sp,64
 742              		.cfi_def_cfa 8, 0
 743 0008 2326A4FC 		sw	a0,-52(s0)
 744 000c AE87     		mv	a5,a1
 745 000e A305F4FC 		sb	a5,-53(s0)
 340:Drivers/src/ch32v20x_flash.c ****     FLASH_Status status = FLASH_COMPLETE;
 746              		.loc 1 340 18
 747 0012 9147     		li	a5,4
GAS LISTING C:\Users\SOLDER~1\AppData\Local\Temp\ccKV8tJ7.s 			page 20


 748 0014 2326F4FE 		sw	a5,-20(s0)
 341:Drivers/src/ch32v20x_flash.c ****     uint32_t     Addr = 0x1FFFF800;
 749              		.loc 1 341 18
 750 0018 B7070020 		li	a5,536870912
 751 001c 93870780 		addi	a5,a5,-2048
 752 0020 2324F4FE 		sw	a5,-24(s0)
 342:Drivers/src/ch32v20x_flash.c ****     __IO uint8_t i;
 343:Drivers/src/ch32v20x_flash.c ****     uint16_t     pbuf[8];
 344:Drivers/src/ch32v20x_flash.c **** 
 345:Drivers/src/ch32v20x_flash.c ****     status = FLASH_WaitForLastOperation(ProgramTimeout);
 753              		.loc 1 345 14
 754 0024 1565     		li	a0,20480
 755 0026 97000000 		call	FLASH_WaitForLastOperation
 755      E7800000 
 756 002e 2326A4FE 		sw	a0,-20(s0)
 346:Drivers/src/ch32v20x_flash.c ****     if(status == FLASH_COMPLETE)
 757              		.loc 1 346 7
 758 0032 0327C4FE 		lw	a4,-20(s0)
 759 0036 9147     		li	a5,4
 760 0038 6317F716 		bne	a4,a5,.L31
 347:Drivers/src/ch32v20x_flash.c ****     {
 348:Drivers/src/ch32v20x_flash.c ****         FLASH->OBKEYR = FLASH_KEY1;
 761              		.loc 1 348 14
 762 003c B7270240 		li	a5,1073881088
 763              		.loc 1 348 23
 764 0040 37076745 		li	a4,1164378112
 765 0044 13073712 		addi	a4,a4,291
 766 0048 98C7     		sw	a4,8(a5)
 349:Drivers/src/ch32v20x_flash.c ****         FLASH->OBKEYR = FLASH_KEY2;
 767              		.loc 1 349 14
 768 004a B7270240 		li	a5,1073881088
 769              		.loc 1 349 23
 770 004e 3797EFCD 		li	a4,-839938048
 771 0052 1307B79A 		addi	a4,a4,-1621
 772 0056 98C7     		sw	a4,8(a5)
 350:Drivers/src/ch32v20x_flash.c **** 
 351:Drivers/src/ch32v20x_flash.c ****         /* Read optionbytes */
 352:Drivers/src/ch32v20x_flash.c ****         for(i = 0; i < 8; i++){
 773              		.loc 1 352 15
 774 0058 A30304FE 		sb	zero,-25(s0)
 775              		.loc 1 352 9
 776 005c 35A8     		j	.L32
 777              	.L33:
 353:Drivers/src/ch32v20x_flash.c ****             pbuf[i] = *(uint16_t *)(Addr + 2 * i);
 778              		.loc 1 353 46 discriminator 3
 779 005e 834774FE 		lbu	a5,-25(s0)
 780 0062 93F7F70F 		andi	a5,a5,0xff
 781 0066 8607     		slli	a5,a5,1
 782 0068 3E87     		mv	a4,a5
 783              		.loc 1 353 42 discriminator 3
 784 006a 832784FE 		lw	a5,-24(s0)
 785 006e BA97     		add	a5,a4,a5
 786              		.loc 1 353 24 discriminator 3
 787 0070 3E87     		mv	a4,a5
 788              		.loc 1 353 17 discriminator 3
 789 0072 834774FE 		lbu	a5,-25(s0)
 790 0076 93F7F70F 		andi	a5,a5,0xff
GAS LISTING C:\Users\SOLDER~1\AppData\Local\Temp\ccKV8tJ7.s 			page 21


 791              		.loc 1 353 23 discriminator 3
 792 007a 1A23     		lhu	a4,0(a4)
 793              		.loc 1 353 21 discriminator 3
 794 007c 8607     		slli	a5,a5,1
 795 007e C117     		addi	a5,a5,-16
 796 0080 A297     		add	a5,a5,s0
 797 0082 2392E7FE 		sh	a4,-28(a5)
 352:Drivers/src/ch32v20x_flash.c ****             pbuf[i] = *(uint16_t *)(Addr + 2 * i);
 798              		.loc 1 352 28 discriminator 3
 799 0086 834774FE 		lbu	a5,-25(s0)
 800 008a 93F7F70F 		andi	a5,a5,0xff
 801 008e 8507     		addi	a5,a5,1
 802 0090 93F7F70F 		andi	a5,a5,0xff
 803 0094 A303F4FE 		sb	a5,-25(s0)
 804              	.L32:
 352:Drivers/src/ch32v20x_flash.c ****             pbuf[i] = *(uint16_t *)(Addr + 2 * i);
 805              		.loc 1 352 22 discriminator 1
 806 0098 834774FE 		lbu	a5,-25(s0)
 807 009c 13F7F70F 		andi	a4,a5,0xff
 808 00a0 9D47     		li	a5,7
 809 00a2 E3FEE7FA 		bleu	a4,a5,.L33
 354:Drivers/src/ch32v20x_flash.c ****         }
 355:Drivers/src/ch32v20x_flash.c **** 
 356:Drivers/src/ch32v20x_flash.c ****         /* Erase optionbytes */
 357:Drivers/src/ch32v20x_flash.c ****         FLASH->CTLR |= CR_OPTER_Set;
 810              		.loc 1 357 14
 811 00a6 B7270240 		li	a5,1073881088
 812 00aa 984B     		lw	a4,16(a5)
 813 00ac B7270240 		li	a5,1073881088
 814              		.loc 1 357 21
 815 00b0 13670702 		ori	a4,a4,32
 816 00b4 98CB     		sw	a4,16(a5)
 358:Drivers/src/ch32v20x_flash.c ****         FLASH->CTLR |= CR_STRT_Set;
 817              		.loc 1 358 14
 818 00b6 B7270240 		li	a5,1073881088
 819 00ba 984B     		lw	a4,16(a5)
 820 00bc B7270240 		li	a5,1073881088
 821              		.loc 1 358 21
 822 00c0 13670704 		ori	a4,a4,64
 823 00c4 98CB     		sw	a4,16(a5)
 359:Drivers/src/ch32v20x_flash.c ****         while(FLASH->STATR & SR_BSY);
 824              		.loc 1 359 14
 825 00c6 0100     		nop
 826              	.L34:
 827              		.loc 1 359 20 discriminator 1
 828 00c8 B7270240 		li	a5,1073881088
 829 00cc DC47     		lw	a5,12(a5)
 830              		.loc 1 359 28 discriminator 1
 831 00ce 858B     		andi	a5,a5,1
 832              		.loc 1 359 15 discriminator 1
 833 00d0 E5FF     		bne	a5,zero,.L34
 360:Drivers/src/ch32v20x_flash.c ****         FLASH->CTLR &= ~CR_OPTER_Set;
 834              		.loc 1 360 14
 835 00d2 B7270240 		li	a5,1073881088
 836 00d6 984B     		lw	a4,16(a5)
 837 00d8 B7270240 		li	a5,1073881088
 838              		.loc 1 360 21
GAS LISTING C:\Users\SOLDER~1\AppData\Local\Temp\ccKV8tJ7.s 			page 22


 839 00dc 1377F7FD 		andi	a4,a4,-33
 840 00e0 98CB     		sw	a4,16(a5)
 361:Drivers/src/ch32v20x_flash.c **** 
 362:Drivers/src/ch32v20x_flash.c ****         /* Write optionbytes */
 363:Drivers/src/ch32v20x_flash.c ****         pbuf[((Address - 0x1FFFF800) / 2)] = ((((uint16_t) ~(Data)) << 8) | ((uint16_t)Data));
 841              		.loc 1 363 49
 842 00e2 8347B4FC 		lbu	a5,-53(s0)
 843 00e6 C207     		slli	a5,a5,16
 844 00e8 C183     		srli	a5,a5,16
 845 00ea 93C7F7FF 		not	a5,a5
 846 00ee C207     		slli	a5,a5,16
 847 00f0 C183     		srli	a5,a5,16
 848              		.loc 1 363 69
 849 00f2 A207     		slli	a5,a5,8
 850              		.loc 1 363 75
 851 00f4 13970701 		slli	a4,a5,16
 852 00f8 4187     		srai	a4,a4,16
 853 00fa 8347B4FC 		lbu	a5,-53(s0)
 854 00fe C207     		slli	a5,a5,16
 855 0100 C187     		srai	a5,a5,16
 856 0102 D98F     		or	a5,a4,a5
 857 0104 93960701 		slli	a3,a5,16
 858 0108 C186     		srai	a3,a3,16
 859              		.loc 1 363 24
 860 010a 0327C4FC 		lw	a4,-52(s0)
 861 010e B71700E0 		li	a5,-536866816
 862 0112 93870780 		addi	a5,a5,-2048
 863 0116 BA97     		add	a5,a4,a5
 864              		.loc 1 363 38
 865 0118 8583     		srli	a5,a5,1
 866              		.loc 1 363 75
 867 011a 13970601 		slli	a4,a3,16
 868 011e 4183     		srli	a4,a4,16
 869              		.loc 1 363 44
 870 0120 8607     		slli	a5,a5,1
 871 0122 C117     		addi	a5,a5,-16
 872 0124 A297     		add	a5,a5,s0
 873 0126 2392E7FE 		sh	a4,-28(a5)
 364:Drivers/src/ch32v20x_flash.c **** 
 365:Drivers/src/ch32v20x_flash.c ****         FLASH->CTLR |= CR_OPTPG_Set;
 874              		.loc 1 365 14
 875 012a B7270240 		li	a5,1073881088
 876 012e 984B     		lw	a4,16(a5)
 877 0130 B7270240 		li	a5,1073881088
 878              		.loc 1 365 21
 879 0134 13670701 		ori	a4,a4,16
 880 0138 98CB     		sw	a4,16(a5)
 366:Drivers/src/ch32v20x_flash.c **** 
 367:Drivers/src/ch32v20x_flash.c ****         for(i = 0; i < 8; i++){
 881              		.loc 1 367 15
 882 013a A30304FE 		sb	zero,-25(s0)
 883              		.loc 1 367 9
 884 013e B1A0     		j	.L35
 885              	.L37:
 368:Drivers/src/ch32v20x_flash.c ****             *(uint16_t *)(Addr + 2 * i) = pbuf[i];
 886              		.loc 1 368 47
 887 0140 834774FE 		lbu	a5,-25(s0)
GAS LISTING C:\Users\SOLDER~1\AppData\Local\Temp\ccKV8tJ7.s 			page 23


 888 0144 93F7F70F 		andi	a5,a5,0xff
 889 0148 BE86     		mv	a3,a5
 890              		.loc 1 368 36
 891 014a 834774FE 		lbu	a5,-25(s0)
 892 014e 93F7F70F 		andi	a5,a5,0xff
 893 0152 8607     		slli	a5,a5,1
 894 0154 3E87     		mv	a4,a5
 895              		.loc 1 368 32
 896 0156 832784FE 		lw	a5,-24(s0)
 897 015a BA97     		add	a5,a4,a5
 898              		.loc 1 368 14
 899 015c 3E87     		mv	a4,a5
 900              		.loc 1 368 47
 901 015e 93971600 		slli	a5,a3,1
 902 0162 C117     		addi	a5,a5,-16
 903 0164 A297     		add	a5,a5,s0
 904 0166 83D747FE 		lhu	a5,-28(a5)
 905              		.loc 1 368 41
 906 016a 1EA3     		sh	a5,0(a4)
 369:Drivers/src/ch32v20x_flash.c ****             while(FLASH->STATR & SR_BSY) ;
 907              		.loc 1 369 18
 908 016c 0100     		nop
 909              	.L36:
 910              		.loc 1 369 24 discriminator 1
 911 016e B7270240 		li	a5,1073881088
 912 0172 DC47     		lw	a5,12(a5)
 913              		.loc 1 369 32 discriminator 1
 914 0174 858B     		andi	a5,a5,1
 915              		.loc 1 369 19 discriminator 1
 916 0176 E5FF     		bne	a5,zero,.L36
 367:Drivers/src/ch32v20x_flash.c ****             *(uint16_t *)(Addr + 2 * i) = pbuf[i];
 917              		.loc 1 367 28 discriminator 2
 918 0178 834774FE 		lbu	a5,-25(s0)
 919 017c 93F7F70F 		andi	a5,a5,0xff
 920 0180 8507     		addi	a5,a5,1
 921 0182 93F7F70F 		andi	a5,a5,0xff
 922 0186 A303F4FE 		sb	a5,-25(s0)
 923              	.L35:
 367:Drivers/src/ch32v20x_flash.c ****             *(uint16_t *)(Addr + 2 * i) = pbuf[i];
 924              		.loc 1 367 22 discriminator 1
 925 018a 834774FE 		lbu	a5,-25(s0)
 926 018e 13F7F70F 		andi	a4,a5,0xff
 927 0192 9D47     		li	a5,7
 928 0194 E3F6E7FA 		bleu	a4,a5,.L37
 370:Drivers/src/ch32v20x_flash.c ****         }
 371:Drivers/src/ch32v20x_flash.c **** 
 372:Drivers/src/ch32v20x_flash.c ****         FLASH->CTLR &= ~CR_OPTPG_Set;
 929              		.loc 1 372 14
 930 0198 B7270240 		li	a5,1073881088
 931 019c 984B     		lw	a4,16(a5)
 932 019e B7270240 		li	a5,1073881088
 933              		.loc 1 372 21
 934 01a2 3D9B     		andi	a4,a4,-17
 935 01a4 98CB     		sw	a4,16(a5)
 936              	.L31:
 373:Drivers/src/ch32v20x_flash.c ****     }
 374:Drivers/src/ch32v20x_flash.c **** 
GAS LISTING C:\Users\SOLDER~1\AppData\Local\Temp\ccKV8tJ7.s 			page 24


 375:Drivers/src/ch32v20x_flash.c ****     return status;
 937              		.loc 1 375 12
 938 01a6 8327C4FE 		lw	a5,-20(s0)
 376:Drivers/src/ch32v20x_flash.c **** }
 939              		.loc 1 376 1
 940 01aa 3E85     		mv	a0,a5
 941 01ac F250     		lw	ra,60(sp)
 942              		.cfi_restore 1
 943 01ae 6254     		lw	s0,56(sp)
 944              		.cfi_restore 8
 945              		.cfi_def_cfa 2, 64
 946 01b0 2161     		addi	sp,sp,64
 947              		.cfi_def_cfa_offset 0
 948 01b2 8280     		jr	ra
 949              		.cfi_endproc
 950              	.LFE26:
 952              		.section	.text.FLASH_EnableWriteProtection,"ax",@progbits
 953              		.align	1
 954              		.globl	FLASH_EnableWriteProtection
 956              	FLASH_EnableWriteProtection:
 957              	.LFB27:
 377:Drivers/src/ch32v20x_flash.c **** 
 378:Drivers/src/ch32v20x_flash.c **** /*********************************************************************
 379:Drivers/src/ch32v20x_flash.c ****  * @fn      FLASH_EnableWriteProtection
 380:Drivers/src/ch32v20x_flash.c ****  *
 381:Drivers/src/ch32v20x_flash.c ****  * @brief   Write protects the desired sectors
 382:Drivers/src/ch32v20x_flash.c ****  *
 383:Drivers/src/ch32v20x_flash.c ****  * @param   FLASH_Sectors - specifies the address of the pages to be write protected.
 384:Drivers/src/ch32v20x_flash.c ****  *
 385:Drivers/src/ch32v20x_flash.c ****  * @return  FLASH Status - The returned value can be: FLASH_BUSY, FLASH_ERROR_PG,
 386:Drivers/src/ch32v20x_flash.c ****  *        FLASH_ERROR_WRP, FLASH_COMPLETE or FLASH_TIMEOUT.
 387:Drivers/src/ch32v20x_flash.c ****  */
 388:Drivers/src/ch32v20x_flash.c **** FLASH_Status FLASH_EnableWriteProtection(uint32_t FLASH_Sectors)
 389:Drivers/src/ch32v20x_flash.c **** {
 958              		.loc 1 389 1
 959              		.cfi_startproc
 960 0000 5D71     		addi	sp,sp,-80
 961              		.cfi_def_cfa_offset 80
 962 0002 86C6     		sw	ra,76(sp)
 963 0004 A2C4     		sw	s0,72(sp)
 964              		.cfi_offset 1, -4
 965              		.cfi_offset 8, -8
 966 0006 8008     		addi	s0,sp,80
 967              		.cfi_def_cfa 8, 0
 968 0008 232EA4FA 		sw	a0,-68(s0)
 390:Drivers/src/ch32v20x_flash.c ****     uint16_t     WRP0_Data = 0xFFFF, WRP1_Data = 0xFFFF, WRP2_Data = 0xFFFF, WRP3_Data = 0xFFFF;
 969              		.loc 1 390 18
 970 000c FD57     		li	a5,-1
 971 000e 2317F4FE 		sh	a5,-18(s0)
 972              		.loc 1 390 38
 973 0012 FD57     		li	a5,-1
 974 0014 2316F4FE 		sh	a5,-20(s0)
 975              		.loc 1 390 58
 976 0018 FD57     		li	a5,-1
 977 001a 2315F4FE 		sh	a5,-22(s0)
 978              		.loc 1 390 78
 979 001e FD57     		li	a5,-1
GAS LISTING C:\Users\SOLDER~1\AppData\Local\Temp\ccKV8tJ7.s 			page 25


 980 0020 2314F4FE 		sh	a5,-24(s0)
 391:Drivers/src/ch32v20x_flash.c ****     FLASH_Status status = FLASH_COMPLETE;
 981              		.loc 1 391 18
 982 0024 9147     		li	a5,4
 983 0026 2322F4FE 		sw	a5,-28(s0)
 392:Drivers/src/ch32v20x_flash.c ****     uint32_t     Addr = 0x1FFFF800;
 984              		.loc 1 392 18
 985 002a B7070020 		li	a5,536870912
 986 002e 93870780 		addi	a5,a5,-2048
 987 0032 2320F4FE 		sw	a5,-32(s0)
 393:Drivers/src/ch32v20x_flash.c ****     __IO uint8_t i;
 394:Drivers/src/ch32v20x_flash.c ****     uint16_t     pbuf[8];
 395:Drivers/src/ch32v20x_flash.c **** 
 396:Drivers/src/ch32v20x_flash.c ****     FLASH_Sectors = (uint32_t)(~FLASH_Sectors);
 988              		.loc 1 396 19
 989 0036 8327C4FB 		lw	a5,-68(s0)
 990 003a 93C7F7FF 		not	a5,a5
 991 003e 232EF4FA 		sw	a5,-68(s0)
 397:Drivers/src/ch32v20x_flash.c ****     WRP0_Data = (uint16_t)(FLASH_Sectors & WRP0_Mask);
 992              		.loc 1 397 17
 993 0042 8327C4FB 		lw	a5,-68(s0)
 994 0046 C207     		slli	a5,a5,16
 995 0048 C183     		srli	a5,a5,16
 996              		.loc 1 397 15
 997 004a 93F7F70F 		andi	a5,a5,255
 998 004e 2317F4FE 		sh	a5,-18(s0)
 398:Drivers/src/ch32v20x_flash.c ****     WRP1_Data = (uint16_t)((FLASH_Sectors & WRP1_Mask) >> 8);
 999              		.loc 1 398 56
 1000 0052 8327C4FB 		lw	a5,-68(s0)
 1001 0056 A183     		srli	a5,a5,8
 1002              		.loc 1 398 17
 1003 0058 C207     		slli	a5,a5,16
 1004 005a C183     		srli	a5,a5,16
 1005              		.loc 1 398 15
 1006 005c 93F7F70F 		andi	a5,a5,255
 1007 0060 2316F4FE 		sh	a5,-20(s0)
 399:Drivers/src/ch32v20x_flash.c ****     WRP2_Data = (uint16_t)((FLASH_Sectors & WRP2_Mask) >> 16);
 1008              		.loc 1 399 56
 1009 0064 8327C4FB 		lw	a5,-68(s0)
 1010 0068 C183     		srli	a5,a5,16
 1011              		.loc 1 399 17
 1012 006a C207     		slli	a5,a5,16
 1013 006c C183     		srli	a5,a5,16
 1014              		.loc 1 399 15
 1015 006e 93F7F70F 		andi	a5,a5,255
 1016 0072 2315F4FE 		sh	a5,-22(s0)
 400:Drivers/src/ch32v20x_flash.c ****     WRP3_Data = (uint16_t)((FLASH_Sectors & WRP3_Mask) >> 24);
 1017              		.loc 1 400 56
 1018 0076 8327C4FB 		lw	a5,-68(s0)
 1019 007a E183     		srli	a5,a5,24
 1020              		.loc 1 400 15
 1021 007c 2314F4FE 		sh	a5,-24(s0)
 401:Drivers/src/ch32v20x_flash.c **** 
 402:Drivers/src/ch32v20x_flash.c ****     status = FLASH_WaitForLastOperation(ProgramTimeout);
 1022              		.loc 1 402 14
 1023 0080 1565     		li	a0,20480
 1024 0082 97000000 		call	FLASH_WaitForLastOperation
GAS LISTING C:\Users\SOLDER~1\AppData\Local\Temp\ccKV8tJ7.s 			page 26


 1024      E7800000 
 1025 008a 2322A4FE 		sw	a0,-28(s0)
 403:Drivers/src/ch32v20x_flash.c **** 
 404:Drivers/src/ch32v20x_flash.c ****     if(status == FLASH_COMPLETE)
 1026              		.loc 1 404 7
 1027 008e 032744FE 		lw	a4,-28(s0)
 1028 0092 9147     		li	a5,4
 1029 0094 6313F714 		bne	a4,a5,.L40
 405:Drivers/src/ch32v20x_flash.c ****     {
 406:Drivers/src/ch32v20x_flash.c ****         FLASH->OBKEYR = FLASH_KEY1;
 1030              		.loc 1 406 14
 1031 0098 B7270240 		li	a5,1073881088
 1032              		.loc 1 406 23
 1033 009c 37076745 		li	a4,1164378112
 1034 00a0 13073712 		addi	a4,a4,291
 1035 00a4 98C7     		sw	a4,8(a5)
 407:Drivers/src/ch32v20x_flash.c ****         FLASH->OBKEYR = FLASH_KEY2;
 1036              		.loc 1 407 14
 1037 00a6 B7270240 		li	a5,1073881088
 1038              		.loc 1 407 23
 1039 00aa 3797EFCD 		li	a4,-839938048
 1040 00ae 1307B79A 		addi	a4,a4,-1621
 1041 00b2 98C7     		sw	a4,8(a5)
 408:Drivers/src/ch32v20x_flash.c **** 
 409:Drivers/src/ch32v20x_flash.c ****         /* Read optionbytes */
 410:Drivers/src/ch32v20x_flash.c ****         for(i = 0; i < 8; i++){
 1042              		.loc 1 410 15
 1043 00b4 A30F04FC 		sb	zero,-33(s0)
 1044              		.loc 1 410 9
 1045 00b8 35A8     		j	.L41
 1046              	.L42:
 411:Drivers/src/ch32v20x_flash.c ****             pbuf[i] = *(uint16_t *)(Addr + 2 * i);
 1047              		.loc 1 411 46 discriminator 3
 1048 00ba 8347F4FD 		lbu	a5,-33(s0)
 1049 00be 93F7F70F 		andi	a5,a5,0xff
 1050 00c2 8607     		slli	a5,a5,1
 1051 00c4 3E87     		mv	a4,a5
 1052              		.loc 1 411 42 discriminator 3
 1053 00c6 832704FE 		lw	a5,-32(s0)
 1054 00ca BA97     		add	a5,a4,a5
 1055              		.loc 1 411 24 discriminator 3
 1056 00cc 3E87     		mv	a4,a5
 1057              		.loc 1 411 17 discriminator 3
 1058 00ce 8347F4FD 		lbu	a5,-33(s0)
 1059 00d2 93F7F70F 		andi	a5,a5,0xff
 1060              		.loc 1 411 23 discriminator 3
 1061 00d6 1A23     		lhu	a4,0(a4)
 1062              		.loc 1 411 21 discriminator 3
 1063 00d8 8607     		slli	a5,a5,1
 1064 00da C117     		addi	a5,a5,-16
 1065 00dc A297     		add	a5,a5,s0
 1066 00de 239EE7FC 		sh	a4,-36(a5)
 410:Drivers/src/ch32v20x_flash.c ****             pbuf[i] = *(uint16_t *)(Addr + 2 * i);
 1067              		.loc 1 410 28 discriminator 3
 1068 00e2 8347F4FD 		lbu	a5,-33(s0)
 1069 00e6 93F7F70F 		andi	a5,a5,0xff
 1070 00ea 8507     		addi	a5,a5,1
GAS LISTING C:\Users\SOLDER~1\AppData\Local\Temp\ccKV8tJ7.s 			page 27


 1071 00ec 93F7F70F 		andi	a5,a5,0xff
 1072 00f0 A30FF4FC 		sb	a5,-33(s0)
 1073              	.L41:
 410:Drivers/src/ch32v20x_flash.c ****             pbuf[i] = *(uint16_t *)(Addr + 2 * i);
 1074              		.loc 1 410 22 discriminator 1
 1075 00f4 8347F4FD 		lbu	a5,-33(s0)
 1076 00f8 13F7F70F 		andi	a4,a5,0xff
 1077 00fc 9D47     		li	a5,7
 1078 00fe E3FEE7FA 		bleu	a4,a5,.L42
 412:Drivers/src/ch32v20x_flash.c ****         }
 413:Drivers/src/ch32v20x_flash.c **** 
 414:Drivers/src/ch32v20x_flash.c ****         /* Erase optionbytes */
 415:Drivers/src/ch32v20x_flash.c ****         FLASH->CTLR |= CR_OPTER_Set;
 1079              		.loc 1 415 14
 1080 0102 B7270240 		li	a5,1073881088
 1081 0106 984B     		lw	a4,16(a5)
 1082 0108 B7270240 		li	a5,1073881088
 1083              		.loc 1 415 21
 1084 010c 13670702 		ori	a4,a4,32
 1085 0110 98CB     		sw	a4,16(a5)
 416:Drivers/src/ch32v20x_flash.c ****         FLASH->CTLR |= CR_STRT_Set;
 1086              		.loc 1 416 14
 1087 0112 B7270240 		li	a5,1073881088
 1088 0116 984B     		lw	a4,16(a5)
 1089 0118 B7270240 		li	a5,1073881088
 1090              		.loc 1 416 21
 1091 011c 13670704 		ori	a4,a4,64
 1092 0120 98CB     		sw	a4,16(a5)
 417:Drivers/src/ch32v20x_flash.c ****         while(FLASH->STATR & SR_BSY);
 1093              		.loc 1 417 14
 1094 0122 0100     		nop
 1095              	.L43:
 1096              		.loc 1 417 20 discriminator 1
 1097 0124 B7270240 		li	a5,1073881088
 1098 0128 DC47     		lw	a5,12(a5)
 1099              		.loc 1 417 28 discriminator 1
 1100 012a 858B     		andi	a5,a5,1
 1101              		.loc 1 417 15 discriminator 1
 1102 012c E5FF     		bne	a5,zero,.L43
 418:Drivers/src/ch32v20x_flash.c ****         FLASH->CTLR &= ~CR_OPTER_Set;
 1103              		.loc 1 418 14
 1104 012e B7270240 		li	a5,1073881088
 1105 0132 984B     		lw	a4,16(a5)
 1106 0134 B7270240 		li	a5,1073881088
 1107              		.loc 1 418 21
 1108 0138 1377F7FD 		andi	a4,a4,-33
 1109 013c 98CB     		sw	a4,16(a5)
 419:Drivers/src/ch32v20x_flash.c **** 
 420:Drivers/src/ch32v20x_flash.c ****         /* Write optionbytes */
 421:Drivers/src/ch32v20x_flash.c ****         pbuf[4] = WRP0_Data;
 1110              		.loc 1 421 17
 1111 013e 8357E4FE 		lhu	a5,-18(s0)
 1112 0142 231AF4FC 		sh	a5,-44(s0)
 422:Drivers/src/ch32v20x_flash.c ****         pbuf[5] = WRP1_Data;
 1113              		.loc 1 422 17
 1114 0146 8357C4FE 		lhu	a5,-20(s0)
 1115 014a 231BF4FC 		sh	a5,-42(s0)
GAS LISTING C:\Users\SOLDER~1\AppData\Local\Temp\ccKV8tJ7.s 			page 28


 423:Drivers/src/ch32v20x_flash.c ****         pbuf[6] = WRP2_Data;
 1116              		.loc 1 423 17
 1117 014e 8357A4FE 		lhu	a5,-22(s0)
 1118 0152 231CF4FC 		sh	a5,-40(s0)
 424:Drivers/src/ch32v20x_flash.c ****         pbuf[7] = WRP3_Data;
 1119              		.loc 1 424 17
 1120 0156 835784FE 		lhu	a5,-24(s0)
 1121 015a 231DF4FC 		sh	a5,-38(s0)
 425:Drivers/src/ch32v20x_flash.c **** 
 426:Drivers/src/ch32v20x_flash.c ****         FLASH->CTLR |= CR_OPTPG_Set;
 1122              		.loc 1 426 14
 1123 015e B7270240 		li	a5,1073881088
 1124 0162 984B     		lw	a4,16(a5)
 1125 0164 B7270240 		li	a5,1073881088
 1126              		.loc 1 426 21
 1127 0168 13670701 		ori	a4,a4,16
 1128 016c 98CB     		sw	a4,16(a5)
 427:Drivers/src/ch32v20x_flash.c ****         for(i = 0; i < 8; i++){
 1129              		.loc 1 427 15
 1130 016e A30F04FC 		sb	zero,-33(s0)
 1131              		.loc 1 427 9
 1132 0172 B1A0     		j	.L44
 1133              	.L46:
 428:Drivers/src/ch32v20x_flash.c ****             *(uint16_t *)(Addr + 2 * i) = pbuf[i];
 1134              		.loc 1 428 47
 1135 0174 8347F4FD 		lbu	a5,-33(s0)
 1136 0178 93F7F70F 		andi	a5,a5,0xff
 1137 017c BE86     		mv	a3,a5
 1138              		.loc 1 428 36
 1139 017e 8347F4FD 		lbu	a5,-33(s0)
 1140 0182 93F7F70F 		andi	a5,a5,0xff
 1141 0186 8607     		slli	a5,a5,1
 1142 0188 3E87     		mv	a4,a5
 1143              		.loc 1 428 32
 1144 018a 832704FE 		lw	a5,-32(s0)
 1145 018e BA97     		add	a5,a4,a5
 1146              		.loc 1 428 14
 1147 0190 3E87     		mv	a4,a5
 1148              		.loc 1 428 47
 1149 0192 93971600 		slli	a5,a3,1
 1150 0196 C117     		addi	a5,a5,-16
 1151 0198 A297     		add	a5,a5,s0
 1152 019a 83D7C7FD 		lhu	a5,-36(a5)
 1153              		.loc 1 428 41
 1154 019e 1EA3     		sh	a5,0(a4)
 429:Drivers/src/ch32v20x_flash.c ****             while(FLASH->STATR & SR_BSY);
 1155              		.loc 1 429 18
 1156 01a0 0100     		nop
 1157              	.L45:
 1158              		.loc 1 429 24 discriminator 1
 1159 01a2 B7270240 		li	a5,1073881088
 1160 01a6 DC47     		lw	a5,12(a5)
 1161              		.loc 1 429 32 discriminator 1
 1162 01a8 858B     		andi	a5,a5,1
 1163              		.loc 1 429 19 discriminator 1
 1164 01aa E5FF     		bne	a5,zero,.L45
 427:Drivers/src/ch32v20x_flash.c ****         for(i = 0; i < 8; i++){
GAS LISTING C:\Users\SOLDER~1\AppData\Local\Temp\ccKV8tJ7.s 			page 29


 1165              		.loc 1 427 28 discriminator 2
 1166 01ac 8347F4FD 		lbu	a5,-33(s0)
 1167 01b0 93F7F70F 		andi	a5,a5,0xff
 1168 01b4 8507     		addi	a5,a5,1
 1169 01b6 93F7F70F 		andi	a5,a5,0xff
 1170 01ba A30FF4FC 		sb	a5,-33(s0)
 1171              	.L44:
 427:Drivers/src/ch32v20x_flash.c ****         for(i = 0; i < 8; i++){
 1172              		.loc 1 427 22 discriminator 1
 1173 01be 8347F4FD 		lbu	a5,-33(s0)
 1174 01c2 13F7F70F 		andi	a4,a5,0xff
 1175 01c6 9D47     		li	a5,7
 1176 01c8 E3F6E7FA 		bleu	a4,a5,.L46
 430:Drivers/src/ch32v20x_flash.c ****         }
 431:Drivers/src/ch32v20x_flash.c ****         FLASH->CTLR &= ~CR_OPTPG_Set;
 1177              		.loc 1 431 14
 1178 01cc B7270240 		li	a5,1073881088
 1179 01d0 984B     		lw	a4,16(a5)
 1180 01d2 B7270240 		li	a5,1073881088
 1181              		.loc 1 431 21
 1182 01d6 3D9B     		andi	a4,a4,-17
 1183 01d8 98CB     		sw	a4,16(a5)
 1184              	.L40:
 432:Drivers/src/ch32v20x_flash.c ****     }
 433:Drivers/src/ch32v20x_flash.c ****     return status;
 1185              		.loc 1 433 12
 1186 01da 832744FE 		lw	a5,-28(s0)
 434:Drivers/src/ch32v20x_flash.c **** }
 1187              		.loc 1 434 1
 1188 01de 3E85     		mv	a0,a5
 1189 01e0 B640     		lw	ra,76(sp)
 1190              		.cfi_restore 1
 1191 01e2 2644     		lw	s0,72(sp)
 1192              		.cfi_restore 8
 1193              		.cfi_def_cfa 2, 80
 1194 01e4 6161     		addi	sp,sp,80
 1195              		.cfi_def_cfa_offset 0
 1196 01e6 8280     		jr	ra
 1197              		.cfi_endproc
 1198              	.LFE27:
 1200              		.section	.text.FLASH_ReadOutProtection,"ax",@progbits
 1201              		.align	1
 1202              		.globl	FLASH_ReadOutProtection
 1204              	FLASH_ReadOutProtection:
 1205              	.LFB28:
 435:Drivers/src/ch32v20x_flash.c **** 
 436:Drivers/src/ch32v20x_flash.c **** /*********************************************************************
 437:Drivers/src/ch32v20x_flash.c ****  * @fn      FLASH_ReadOutProtection
 438:Drivers/src/ch32v20x_flash.c ****  *
 439:Drivers/src/ch32v20x_flash.c ****  * @brief   Enables or disables the read out protection.
 440:Drivers/src/ch32v20x_flash.c ****  *
 441:Drivers/src/ch32v20x_flash.c ****  * @param   Newstate - new state of the ReadOut Protection(ENABLE or DISABLE).
 442:Drivers/src/ch32v20x_flash.c ****  *
 443:Drivers/src/ch32v20x_flash.c ****  * @return  FLASH Status - The returned value can be: FLASH_BUSY, FLASH_ERROR_PG,
 444:Drivers/src/ch32v20x_flash.c ****  *        FLASH_ERROR_WRP, FLASH_COMPLETE or FLASH_TIMEOUT.
 445:Drivers/src/ch32v20x_flash.c ****  */
 446:Drivers/src/ch32v20x_flash.c **** FLASH_Status FLASH_ReadOutProtection(FunctionalState NewState)
GAS LISTING C:\Users\SOLDER~1\AppData\Local\Temp\ccKV8tJ7.s 			page 30


 447:Drivers/src/ch32v20x_flash.c **** {
 1206              		.loc 1 447 1
 1207              		.cfi_startproc
 1208 0000 3971     		addi	sp,sp,-64
 1209              		.cfi_def_cfa_offset 64
 1210 0002 06DE     		sw	ra,60(sp)
 1211 0004 22DC     		sw	s0,56(sp)
 1212              		.cfi_offset 1, -4
 1213              		.cfi_offset 8, -8
 1214 0006 8000     		addi	s0,sp,64
 1215              		.cfi_def_cfa 8, 0
 1216 0008 2326A4FC 		sw	a0,-52(s0)
 448:Drivers/src/ch32v20x_flash.c ****     FLASH_Status status = FLASH_COMPLETE;
 1217              		.loc 1 448 18
 1218 000c 9147     		li	a5,4
 1219 000e 2326F4FE 		sw	a5,-20(s0)
 449:Drivers/src/ch32v20x_flash.c ****     uint32_t     Addr = 0x1FFFF800;
 1220              		.loc 1 449 18
 1221 0012 B7070020 		li	a5,536870912
 1222 0016 93870780 		addi	a5,a5,-2048
 1223 001a 2324F4FE 		sw	a5,-24(s0)
 450:Drivers/src/ch32v20x_flash.c ****     __IO uint8_t i;
 451:Drivers/src/ch32v20x_flash.c ****     uint16_t     pbuf[8];
 452:Drivers/src/ch32v20x_flash.c **** 
 453:Drivers/src/ch32v20x_flash.c ****     status = FLASH_WaitForLastOperation(EraseTimeout);
 1224              		.loc 1 453 14
 1225 001e 37050B00 		li	a0,720896
 1226 0022 97000000 		call	FLASH_WaitForLastOperation
 1226      E7800000 
 1227 002a 2326A4FE 		sw	a0,-20(s0)
 454:Drivers/src/ch32v20x_flash.c ****     if(status == FLASH_COMPLETE)
 1228              		.loc 1 454 7
 1229 002e 0327C4FE 		lw	a4,-20(s0)
 1230 0032 9147     		li	a5,4
 1231 0034 6310F714 		bne	a4,a5,.L49
 455:Drivers/src/ch32v20x_flash.c ****     {
 456:Drivers/src/ch32v20x_flash.c ****         FLASH->OBKEYR = FLASH_KEY1;
 1232              		.loc 1 456 14
 1233 0038 B7270240 		li	a5,1073881088
 1234              		.loc 1 456 23
 1235 003c 37076745 		li	a4,1164378112
 1236 0040 13073712 		addi	a4,a4,291
 1237 0044 98C7     		sw	a4,8(a5)
 457:Drivers/src/ch32v20x_flash.c ****         FLASH->OBKEYR = FLASH_KEY2;
 1238              		.loc 1 457 14
 1239 0046 B7270240 		li	a5,1073881088
 1240              		.loc 1 457 23
 1241 004a 3797EFCD 		li	a4,-839938048
 1242 004e 1307B79A 		addi	a4,a4,-1621
 1243 0052 98C7     		sw	a4,8(a5)
 458:Drivers/src/ch32v20x_flash.c **** 
 459:Drivers/src/ch32v20x_flash.c ****         /* Read optionbytes */
 460:Drivers/src/ch32v20x_flash.c ****         for(i = 0; i < 8; i++){
 1244              		.loc 1 460 15
 1245 0054 A30304FE 		sb	zero,-25(s0)
 1246              		.loc 1 460 9
 1247 0058 35A8     		j	.L50
GAS LISTING C:\Users\SOLDER~1\AppData\Local\Temp\ccKV8tJ7.s 			page 31


 1248              	.L51:
 461:Drivers/src/ch32v20x_flash.c ****             pbuf[i] = *(uint16_t *)(Addr + 2 * i);
 1249              		.loc 1 461 46 discriminator 3
 1250 005a 834774FE 		lbu	a5,-25(s0)
 1251 005e 93F7F70F 		andi	a5,a5,0xff
 1252 0062 8607     		slli	a5,a5,1
 1253 0064 3E87     		mv	a4,a5
 1254              		.loc 1 461 42 discriminator 3
 1255 0066 832784FE 		lw	a5,-24(s0)
 1256 006a BA97     		add	a5,a4,a5
 1257              		.loc 1 461 24 discriminator 3
 1258 006c 3E87     		mv	a4,a5
 1259              		.loc 1 461 17 discriminator 3
 1260 006e 834774FE 		lbu	a5,-25(s0)
 1261 0072 93F7F70F 		andi	a5,a5,0xff
 1262              		.loc 1 461 23 discriminator 3
 1263 0076 1A23     		lhu	a4,0(a4)
 1264              		.loc 1 461 21 discriminator 3
 1265 0078 8607     		slli	a5,a5,1
 1266 007a C117     		addi	a5,a5,-16
 1267 007c A297     		add	a5,a5,s0
 1268 007e 2392E7FE 		sh	a4,-28(a5)
 460:Drivers/src/ch32v20x_flash.c ****             pbuf[i] = *(uint16_t *)(Addr + 2 * i);
 1269              		.loc 1 460 28 discriminator 3
 1270 0082 834774FE 		lbu	a5,-25(s0)
 1271 0086 93F7F70F 		andi	a5,a5,0xff
 1272 008a 8507     		addi	a5,a5,1
 1273 008c 93F7F70F 		andi	a5,a5,0xff
 1274 0090 A303F4FE 		sb	a5,-25(s0)
 1275              	.L50:
 460:Drivers/src/ch32v20x_flash.c ****             pbuf[i] = *(uint16_t *)(Addr + 2 * i);
 1276              		.loc 1 460 22 discriminator 1
 1277 0094 834774FE 		lbu	a5,-25(s0)
 1278 0098 13F7F70F 		andi	a4,a5,0xff
 1279 009c 9D47     		li	a5,7
 1280 009e E3FEE7FA 		bleu	a4,a5,.L51
 462:Drivers/src/ch32v20x_flash.c ****         }
 463:Drivers/src/ch32v20x_flash.c **** 
 464:Drivers/src/ch32v20x_flash.c ****         /* Erase optionbytes */
 465:Drivers/src/ch32v20x_flash.c ****         FLASH->CTLR |= CR_OPTER_Set;
 1281              		.loc 1 465 14
 1282 00a2 B7270240 		li	a5,1073881088
 1283 00a6 984B     		lw	a4,16(a5)
 1284 00a8 B7270240 		li	a5,1073881088
 1285              		.loc 1 465 21
 1286 00ac 13670702 		ori	a4,a4,32
 1287 00b0 98CB     		sw	a4,16(a5)
 466:Drivers/src/ch32v20x_flash.c ****         FLASH->CTLR |= CR_STRT_Set;
 1288              		.loc 1 466 14
 1289 00b2 B7270240 		li	a5,1073881088
 1290 00b6 984B     		lw	a4,16(a5)
 1291 00b8 B7270240 		li	a5,1073881088
 1292              		.loc 1 466 21
 1293 00bc 13670704 		ori	a4,a4,64
 1294 00c0 98CB     		sw	a4,16(a5)
 467:Drivers/src/ch32v20x_flash.c ****         while(FLASH->STATR & SR_BSY);
 1295              		.loc 1 467 14
GAS LISTING C:\Users\SOLDER~1\AppData\Local\Temp\ccKV8tJ7.s 			page 32


 1296 00c2 0100     		nop
 1297              	.L52:
 1298              		.loc 1 467 20 discriminator 1
 1299 00c4 B7270240 		li	a5,1073881088
 1300 00c8 DC47     		lw	a5,12(a5)
 1301              		.loc 1 467 28 discriminator 1
 1302 00ca 858B     		andi	a5,a5,1
 1303              		.loc 1 467 15 discriminator 1
 1304 00cc E5FF     		bne	a5,zero,.L52
 468:Drivers/src/ch32v20x_flash.c ****         FLASH->CTLR &= ~CR_OPTER_Set;
 1305              		.loc 1 468 14
 1306 00ce B7270240 		li	a5,1073881088
 1307 00d2 984B     		lw	a4,16(a5)
 1308 00d4 B7270240 		li	a5,1073881088
 1309              		.loc 1 468 21
 1310 00d8 1377F7FD 		andi	a4,a4,-33
 1311 00dc 98CB     		sw	a4,16(a5)
 469:Drivers/src/ch32v20x_flash.c **** 
 470:Drivers/src/ch32v20x_flash.c ****         /* Write optionbytes */
 471:Drivers/src/ch32v20x_flash.c ****         if(NewState == DISABLE)
 1312              		.loc 1 471 11
 1313 00de 8327C4FC 		lw	a5,-52(s0)
 1314 00e2 99E7     		bne	a5,zero,.L53
 472:Drivers/src/ch32v20x_flash.c ****             pbuf[0] = 0x5AA5;
 1315              		.loc 1 472 21
 1316 00e4 9967     		li	a5,24576
 1317 00e6 938757AA 		addi	a5,a5,-1371
 1318 00ea 231AF4FC 		sh	a5,-44(s0)
 1319 00ee 29A0     		j	.L54
 1320              	.L53:
 473:Drivers/src/ch32v20x_flash.c ****         else
 474:Drivers/src/ch32v20x_flash.c ****             pbuf[0] = 0x00FF;
 1321              		.loc 1 474 21
 1322 00f0 9307F00F 		li	a5,255
 1323 00f4 231AF4FC 		sh	a5,-44(s0)
 1324              	.L54:
 475:Drivers/src/ch32v20x_flash.c **** 
 476:Drivers/src/ch32v20x_flash.c ****         FLASH->CTLR |= CR_OPTPG_Set;
 1325              		.loc 1 476 14
 1326 00f8 B7270240 		li	a5,1073881088
 1327 00fc 984B     		lw	a4,16(a5)
 1328 00fe B7270240 		li	a5,1073881088
 1329              		.loc 1 476 21
 1330 0102 13670701 		ori	a4,a4,16
 1331 0106 98CB     		sw	a4,16(a5)
 477:Drivers/src/ch32v20x_flash.c ****         for(i = 0; i < 8; i++){
 1332              		.loc 1 477 15
 1333 0108 A30304FE 		sb	zero,-25(s0)
 1334              		.loc 1 477 9
 1335 010c B1A0     		j	.L55
 1336              	.L57:
 478:Drivers/src/ch32v20x_flash.c ****             *(uint16_t *)(Addr + 2 * i) = pbuf[i];
 1337              		.loc 1 478 47
 1338 010e 834774FE 		lbu	a5,-25(s0)
 1339 0112 93F7F70F 		andi	a5,a5,0xff
 1340 0116 BE86     		mv	a3,a5
 1341              		.loc 1 478 36
GAS LISTING C:\Users\SOLDER~1\AppData\Local\Temp\ccKV8tJ7.s 			page 33


 1342 0118 834774FE 		lbu	a5,-25(s0)
 1343 011c 93F7F70F 		andi	a5,a5,0xff
 1344 0120 8607     		slli	a5,a5,1
 1345 0122 3E87     		mv	a4,a5
 1346              		.loc 1 478 32
 1347 0124 832784FE 		lw	a5,-24(s0)
 1348 0128 BA97     		add	a5,a4,a5
 1349              		.loc 1 478 14
 1350 012a 3E87     		mv	a4,a5
 1351              		.loc 1 478 47
 1352 012c 93971600 		slli	a5,a3,1
 1353 0130 C117     		addi	a5,a5,-16
 1354 0132 A297     		add	a5,a5,s0
 1355 0134 83D747FE 		lhu	a5,-28(a5)
 1356              		.loc 1 478 41
 1357 0138 1EA3     		sh	a5,0(a4)
 479:Drivers/src/ch32v20x_flash.c ****             while(FLASH->STATR & SR_BSY);
 1358              		.loc 1 479 18
 1359 013a 0100     		nop
 1360              	.L56:
 1361              		.loc 1 479 24 discriminator 1
 1362 013c B7270240 		li	a5,1073881088
 1363 0140 DC47     		lw	a5,12(a5)
 1364              		.loc 1 479 32 discriminator 1
 1365 0142 858B     		andi	a5,a5,1
 1366              		.loc 1 479 19 discriminator 1
 1367 0144 E5FF     		bne	a5,zero,.L56
 477:Drivers/src/ch32v20x_flash.c ****         for(i = 0; i < 8; i++){
 1368              		.loc 1 477 28 discriminator 2
 1369 0146 834774FE 		lbu	a5,-25(s0)
 1370 014a 93F7F70F 		andi	a5,a5,0xff
 1371 014e 8507     		addi	a5,a5,1
 1372 0150 93F7F70F 		andi	a5,a5,0xff
 1373 0154 A303F4FE 		sb	a5,-25(s0)
 1374              	.L55:
 477:Drivers/src/ch32v20x_flash.c ****         for(i = 0; i < 8; i++){
 1375              		.loc 1 477 22 discriminator 1
 1376 0158 834774FE 		lbu	a5,-25(s0)
 1377 015c 13F7F70F 		andi	a4,a5,0xff
 1378 0160 9D47     		li	a5,7
 1379 0162 E3F6E7FA 		bleu	a4,a5,.L57
 480:Drivers/src/ch32v20x_flash.c ****         }
 481:Drivers/src/ch32v20x_flash.c ****         FLASH->CTLR &= ~CR_OPTPG_Set;
 1380              		.loc 1 481 14
 1381 0166 B7270240 		li	a5,1073881088
 1382 016a 984B     		lw	a4,16(a5)
 1383 016c B7270240 		li	a5,1073881088
 1384              		.loc 1 481 21
 1385 0170 3D9B     		andi	a4,a4,-17
 1386 0172 98CB     		sw	a4,16(a5)
 1387              	.L49:
 482:Drivers/src/ch32v20x_flash.c ****     }
 483:Drivers/src/ch32v20x_flash.c ****     return status;
 1388              		.loc 1 483 12
 1389 0174 8327C4FE 		lw	a5,-20(s0)
 484:Drivers/src/ch32v20x_flash.c **** }
 1390              		.loc 1 484 1
GAS LISTING C:\Users\SOLDER~1\AppData\Local\Temp\ccKV8tJ7.s 			page 34


 1391 0178 3E85     		mv	a0,a5
 1392 017a F250     		lw	ra,60(sp)
 1393              		.cfi_restore 1
 1394 017c 6254     		lw	s0,56(sp)
 1395              		.cfi_restore 8
 1396              		.cfi_def_cfa 2, 64
 1397 017e 2161     		addi	sp,sp,64
 1398              		.cfi_def_cfa_offset 0
 1399 0180 8280     		jr	ra
 1400              		.cfi_endproc
 1401              	.LFE28:
 1403              		.section	.text.FLASH_UserOptionByteConfig,"ax",@progbits
 1404              		.align	1
 1405              		.globl	FLASH_UserOptionByteConfig
 1407              	FLASH_UserOptionByteConfig:
 1408              	.LFB29:
 485:Drivers/src/ch32v20x_flash.c **** 
 486:Drivers/src/ch32v20x_flash.c **** /*********************************************************************
 487:Drivers/src/ch32v20x_flash.c ****  * @fn      FLASH_UserOptionByteConfig
 488:Drivers/src/ch32v20x_flash.c ****  *
 489:Drivers/src/ch32v20x_flash.c ****  * @brief   Programs the FLASH User Option Byte - IWDG_SW / RST_STOP / RST_STDBY.
 490:Drivers/src/ch32v20x_flash.c ****  *
 491:Drivers/src/ch32v20x_flash.c ****  * @param   OB_IWDG - Selects the IWDG mode
 492:Drivers/src/ch32v20x_flash.c ****  *            OB_IWDG_SW - Software IWDG selected
 493:Drivers/src/ch32v20x_flash.c ****  *            OB_IWDG_HW - Hardware IWDG selected
 494:Drivers/src/ch32v20x_flash.c ****  *          OB_STOP - Reset event when entering STOP mode.
 495:Drivers/src/ch32v20x_flash.c ****  *            OB_STOP_NoRST - No reset generated when entering in STOP
 496:Drivers/src/ch32v20x_flash.c ****  *            OB_STOP_RST - Reset generated when entering in STOP
 497:Drivers/src/ch32v20x_flash.c ****  *          OB_STDBY - Reset event when entering Standby mode.
 498:Drivers/src/ch32v20x_flash.c ****  *            OB_STDBY_NoRST - No reset generated when entering in STANDBY
 499:Drivers/src/ch32v20x_flash.c ****  *            OB_STDBY_RST - Reset generated when entering in STANDBY
 500:Drivers/src/ch32v20x_flash.c ****  *
 501:Drivers/src/ch32v20x_flash.c ****  * @return  FLASH Status - The returned value can be: FLASH_BUSY, FLASH_ERROR_PG,
 502:Drivers/src/ch32v20x_flash.c ****  *        FLASH_ERROR_WRP, FLASH_COMPLETE or FLASH_TIMEOUT.
 503:Drivers/src/ch32v20x_flash.c ****  */
 504:Drivers/src/ch32v20x_flash.c **** FLASH_Status FLASH_UserOptionByteConfig(uint16_t OB_IWDG, uint16_t OB_STOP, uint16_t OB_STDBY)
 505:Drivers/src/ch32v20x_flash.c **** {
 1409              		.loc 1 505 1
 1410              		.cfi_startproc
 1411 0000 3971     		addi	sp,sp,-64
 1412              		.cfi_def_cfa_offset 64
 1413 0002 06DE     		sw	ra,60(sp)
 1414 0004 22DC     		sw	s0,56(sp)
 1415              		.cfi_offset 1, -4
 1416              		.cfi_offset 8, -8
 1417 0006 8000     		addi	s0,sp,64
 1418              		.cfi_def_cfa 8, 0
 1419 0008 AA87     		mv	a5,a0
 1420 000a AE86     		mv	a3,a1
 1421 000c 3287     		mv	a4,a2
 1422 000e 2317F4FC 		sh	a5,-50(s0)
 1423 0012 B687     		mv	a5,a3
 1424 0014 2316F4FC 		sh	a5,-52(s0)
 1425 0018 BA87     		mv	a5,a4
 1426 001a 2315F4FC 		sh	a5,-54(s0)
 506:Drivers/src/ch32v20x_flash.c ****     FLASH_Status status = FLASH_COMPLETE;
 1427              		.loc 1 506 18
GAS LISTING C:\Users\SOLDER~1\AppData\Local\Temp\ccKV8tJ7.s 			page 35


 1428 001e 9147     		li	a5,4
 1429 0020 2326F4FE 		sw	a5,-20(s0)
 507:Drivers/src/ch32v20x_flash.c ****     uint32_t     Addr = 0x1FFFF800;
 1430              		.loc 1 507 18
 1431 0024 B7070020 		li	a5,536870912
 1432 0028 93870780 		addi	a5,a5,-2048
 1433 002c 2324F4FE 		sw	a5,-24(s0)
 508:Drivers/src/ch32v20x_flash.c ****     __IO uint8_t i;
 509:Drivers/src/ch32v20x_flash.c ****     uint16_t     pbuf[8];
 510:Drivers/src/ch32v20x_flash.c **** 
 511:Drivers/src/ch32v20x_flash.c ****     FLASH->OBKEYR = FLASH_KEY1;
 1434              		.loc 1 511 10
 1435 0030 B7270240 		li	a5,1073881088
 1436              		.loc 1 511 19
 1437 0034 37076745 		li	a4,1164378112
 1438 0038 13073712 		addi	a4,a4,291
 1439 003c 98C7     		sw	a4,8(a5)
 512:Drivers/src/ch32v20x_flash.c ****     FLASH->OBKEYR = FLASH_KEY2;
 1440              		.loc 1 512 10
 1441 003e B7270240 		li	a5,1073881088
 1442              		.loc 1 512 19
 1443 0042 3797EFCD 		li	a4,-839938048
 1444 0046 1307B79A 		addi	a4,a4,-1621
 1445 004a 98C7     		sw	a4,8(a5)
 513:Drivers/src/ch32v20x_flash.c ****     status = FLASH_WaitForLastOperation(ProgramTimeout);
 1446              		.loc 1 513 14
 1447 004c 1565     		li	a0,20480
 1448 004e 97000000 		call	FLASH_WaitForLastOperation
 1448      E7800000 
 1449 0056 2326A4FE 		sw	a0,-20(s0)
 514:Drivers/src/ch32v20x_flash.c **** 
 515:Drivers/src/ch32v20x_flash.c ****     if(status == FLASH_COMPLETE)
 1450              		.loc 1 515 7
 1451 005a 0327C4FE 		lw	a4,-20(s0)
 1452 005e 9147     		li	a5,4
 1453 0060 6318F712 		bne	a4,a5,.L60
 516:Drivers/src/ch32v20x_flash.c ****     {
 517:Drivers/src/ch32v20x_flash.c ****         /* Read optionbytes */
 518:Drivers/src/ch32v20x_flash.c ****         for(i = 0; i < 8; i++){
 1454              		.loc 1 518 15
 1455 0064 A30304FE 		sb	zero,-25(s0)
 1456              		.loc 1 518 9
 1457 0068 35A8     		j	.L61
 1458              	.L62:
 519:Drivers/src/ch32v20x_flash.c ****             pbuf[i] = *(uint16_t *)(Addr + 2 * i);
 1459              		.loc 1 519 46 discriminator 3
 1460 006a 834774FE 		lbu	a5,-25(s0)
 1461 006e 93F7F70F 		andi	a5,a5,0xff
 1462 0072 8607     		slli	a5,a5,1
 1463 0074 3E87     		mv	a4,a5
 1464              		.loc 1 519 42 discriminator 3
 1465 0076 832784FE 		lw	a5,-24(s0)
 1466 007a BA97     		add	a5,a4,a5
 1467              		.loc 1 519 24 discriminator 3
 1468 007c 3E87     		mv	a4,a5
 1469              		.loc 1 519 17 discriminator 3
 1470 007e 834774FE 		lbu	a5,-25(s0)
GAS LISTING C:\Users\SOLDER~1\AppData\Local\Temp\ccKV8tJ7.s 			page 36


 1471 0082 93F7F70F 		andi	a5,a5,0xff
 1472              		.loc 1 519 23 discriminator 3
 1473 0086 1A23     		lhu	a4,0(a4)
 1474              		.loc 1 519 21 discriminator 3
 1475 0088 8607     		slli	a5,a5,1
 1476 008a C117     		addi	a5,a5,-16
 1477 008c A297     		add	a5,a5,s0
 1478 008e 2392E7FE 		sh	a4,-28(a5)
 518:Drivers/src/ch32v20x_flash.c ****             pbuf[i] = *(uint16_t *)(Addr + 2 * i);
 1479              		.loc 1 518 28 discriminator 3
 1480 0092 834774FE 		lbu	a5,-25(s0)
 1481 0096 93F7F70F 		andi	a5,a5,0xff
 1482 009a 8507     		addi	a5,a5,1
 1483 009c 93F7F70F 		andi	a5,a5,0xff
 1484 00a0 A303F4FE 		sb	a5,-25(s0)
 1485              	.L61:
 518:Drivers/src/ch32v20x_flash.c ****             pbuf[i] = *(uint16_t *)(Addr + 2 * i);
 1486              		.loc 1 518 22 discriminator 1
 1487 00a4 834774FE 		lbu	a5,-25(s0)
 1488 00a8 13F7F70F 		andi	a4,a5,0xff
 1489 00ac 9D47     		li	a5,7
 1490 00ae E3FEE7FA 		bleu	a4,a5,.L62
 520:Drivers/src/ch32v20x_flash.c ****         }
 521:Drivers/src/ch32v20x_flash.c **** 
 522:Drivers/src/ch32v20x_flash.c ****         /* Erase optionbytes */
 523:Drivers/src/ch32v20x_flash.c ****         FLASH->CTLR |= CR_OPTER_Set;
 1491              		.loc 1 523 14
 1492 00b2 B7270240 		li	a5,1073881088
 1493 00b6 984B     		lw	a4,16(a5)
 1494 00b8 B7270240 		li	a5,1073881088
 1495              		.loc 1 523 21
 1496 00bc 13670702 		ori	a4,a4,32
 1497 00c0 98CB     		sw	a4,16(a5)
 524:Drivers/src/ch32v20x_flash.c ****         FLASH->CTLR |= CR_STRT_Set;
 1498              		.loc 1 524 14
 1499 00c2 B7270240 		li	a5,1073881088
 1500 00c6 984B     		lw	a4,16(a5)
 1501 00c8 B7270240 		li	a5,1073881088
 1502              		.loc 1 524 21
 1503 00cc 13670704 		ori	a4,a4,64
 1504 00d0 98CB     		sw	a4,16(a5)
 525:Drivers/src/ch32v20x_flash.c ****         while(FLASH->STATR & SR_BSY);
 1505              		.loc 1 525 14
 1506 00d2 0100     		nop
 1507              	.L63:
 1508              		.loc 1 525 20 discriminator 1
 1509 00d4 B7270240 		li	a5,1073881088
 1510 00d8 DC47     		lw	a5,12(a5)
 1511              		.loc 1 525 28 discriminator 1
 1512 00da 858B     		andi	a5,a5,1
 1513              		.loc 1 525 15 discriminator 1
 1514 00dc E5FF     		bne	a5,zero,.L63
 526:Drivers/src/ch32v20x_flash.c ****         FLASH->CTLR &= ~CR_OPTER_Set;
 1515              		.loc 1 526 14
 1516 00de B7270240 		li	a5,1073881088
 1517 00e2 984B     		lw	a4,16(a5)
 1518 00e4 B7270240 		li	a5,1073881088
GAS LISTING C:\Users\SOLDER~1\AppData\Local\Temp\ccKV8tJ7.s 			page 37


 1519              		.loc 1 526 21
 1520 00e8 1377F7FD 		andi	a4,a4,-33
 1521 00ec 98CB     		sw	a4,16(a5)
 527:Drivers/src/ch32v20x_flash.c **** 
 528:Drivers/src/ch32v20x_flash.c ****         /* Write optionbytes */
 529:Drivers/src/ch32v20x_flash.c ****         pbuf[1] = OB_IWDG | (uint16_t)(OB_STOP | (uint16_t)(OB_STDBY | ((uint16_t)0xF8)));
 1522              		.loc 1 529 17
 1523 00ee 8357A4FC 		lhu	a5,-54(s0)
 1524 00f2 3E87     		mv	a4,a5
 1525 00f4 8357C4FC 		lhu	a5,-52(s0)
 1526 00f8 D98F     		or	a5,a4,a5
 1527 00fa C207     		slli	a5,a5,16
 1528 00fc C183     		srli	a5,a5,16
 1529 00fe 0357E4FC 		lhu	a4,-50(s0)
 1530 0102 D98F     		or	a5,a5,a4
 1531 0104 C207     		slli	a5,a5,16
 1532 0106 C183     		srli	a5,a5,16
 1533 0108 93E7870F 		ori	a5,a5,248
 1534 010c C207     		slli	a5,a5,16
 1535 010e C183     		srli	a5,a5,16
 1536 0110 231BF4FC 		sh	a5,-42(s0)
 530:Drivers/src/ch32v20x_flash.c **** 
 531:Drivers/src/ch32v20x_flash.c ****         FLASH->CTLR |= CR_OPTPG_Set;
 1537              		.loc 1 531 14
 1538 0114 B7270240 		li	a5,1073881088
 1539 0118 984B     		lw	a4,16(a5)
 1540 011a B7270240 		li	a5,1073881088
 1541              		.loc 1 531 21
 1542 011e 13670701 		ori	a4,a4,16
 1543 0122 98CB     		sw	a4,16(a5)
 532:Drivers/src/ch32v20x_flash.c ****         for(i = 0; i < 8; i++){
 1544              		.loc 1 532 15
 1545 0124 A30304FE 		sb	zero,-25(s0)
 1546              		.loc 1 532 9
 1547 0128 B1A0     		j	.L64
 1548              	.L66:
 533:Drivers/src/ch32v20x_flash.c ****             *(uint16_t *)(Addr + 2 * i) = pbuf[i];
 1549              		.loc 1 533 47
 1550 012a 834774FE 		lbu	a5,-25(s0)
 1551 012e 93F7F70F 		andi	a5,a5,0xff
 1552 0132 BE86     		mv	a3,a5
 1553              		.loc 1 533 36
 1554 0134 834774FE 		lbu	a5,-25(s0)
 1555 0138 93F7F70F 		andi	a5,a5,0xff
 1556 013c 8607     		slli	a5,a5,1
 1557 013e 3E87     		mv	a4,a5
 1558              		.loc 1 533 32
 1559 0140 832784FE 		lw	a5,-24(s0)
 1560 0144 BA97     		add	a5,a4,a5
 1561              		.loc 1 533 14
 1562 0146 3E87     		mv	a4,a5
 1563              		.loc 1 533 47
 1564 0148 93971600 		slli	a5,a3,1
 1565 014c C117     		addi	a5,a5,-16
 1566 014e A297     		add	a5,a5,s0
 1567 0150 83D747FE 		lhu	a5,-28(a5)
 1568              		.loc 1 533 41
GAS LISTING C:\Users\SOLDER~1\AppData\Local\Temp\ccKV8tJ7.s 			page 38


 1569 0154 1EA3     		sh	a5,0(a4)
 534:Drivers/src/ch32v20x_flash.c ****             while(FLASH->STATR & SR_BSY);
 1570              		.loc 1 534 18
 1571 0156 0100     		nop
 1572              	.L65:
 1573              		.loc 1 534 24 discriminator 1
 1574 0158 B7270240 		li	a5,1073881088
 1575 015c DC47     		lw	a5,12(a5)
 1576              		.loc 1 534 32 discriminator 1
 1577 015e 858B     		andi	a5,a5,1
 1578              		.loc 1 534 19 discriminator 1
 1579 0160 E5FF     		bne	a5,zero,.L65
 532:Drivers/src/ch32v20x_flash.c ****         for(i = 0; i < 8; i++){
 1580              		.loc 1 532 28 discriminator 2
 1581 0162 834774FE 		lbu	a5,-25(s0)
 1582 0166 93F7F70F 		andi	a5,a5,0xff
 1583 016a 8507     		addi	a5,a5,1
 1584 016c 93F7F70F 		andi	a5,a5,0xff
 1585 0170 A303F4FE 		sb	a5,-25(s0)
 1586              	.L64:
 532:Drivers/src/ch32v20x_flash.c ****         for(i = 0; i < 8; i++){
 1587              		.loc 1 532 22 discriminator 1
 1588 0174 834774FE 		lbu	a5,-25(s0)
 1589 0178 13F7F70F 		andi	a4,a5,0xff
 1590 017c 9D47     		li	a5,7
 1591 017e E3F6E7FA 		bleu	a4,a5,.L66
 535:Drivers/src/ch32v20x_flash.c ****         }
 536:Drivers/src/ch32v20x_flash.c ****         FLASH->CTLR &= ~CR_OPTPG_Set;
 1592              		.loc 1 536 14
 1593 0182 B7270240 		li	a5,1073881088
 1594 0186 984B     		lw	a4,16(a5)
 1595 0188 B7270240 		li	a5,1073881088
 1596              		.loc 1 536 21
 1597 018c 3D9B     		andi	a4,a4,-17
 1598 018e 98CB     		sw	a4,16(a5)
 1599              	.L60:
 537:Drivers/src/ch32v20x_flash.c ****     }
 538:Drivers/src/ch32v20x_flash.c ****     return status;
 1600              		.loc 1 538 12
 1601 0190 8327C4FE 		lw	a5,-20(s0)
 539:Drivers/src/ch32v20x_flash.c **** }
 1602              		.loc 1 539 1
 1603 0194 3E85     		mv	a0,a5
 1604 0196 F250     		lw	ra,60(sp)
 1605              		.cfi_restore 1
 1606 0198 6254     		lw	s0,56(sp)
 1607              		.cfi_restore 8
 1608              		.cfi_def_cfa 2, 64
 1609 019a 2161     		addi	sp,sp,64
 1610              		.cfi_def_cfa_offset 0
 1611 019c 8280     		jr	ra
 1612              		.cfi_endproc
 1613              	.LFE29:
 1615              		.section	.text.FLASH_GetUserOptionByte,"ax",@progbits
 1616              		.align	1
 1617              		.globl	FLASH_GetUserOptionByte
 1619              	FLASH_GetUserOptionByte:
GAS LISTING C:\Users\SOLDER~1\AppData\Local\Temp\ccKV8tJ7.s 			page 39


 1620              	.LFB30:
 540:Drivers/src/ch32v20x_flash.c **** 
 541:Drivers/src/ch32v20x_flash.c **** /*********************************************************************
 542:Drivers/src/ch32v20x_flash.c ****  * @fn      FLASH_GetUserOptionByte
 543:Drivers/src/ch32v20x_flash.c ****  *
 544:Drivers/src/ch32v20x_flash.c ****  * @brief   Returns the FLASH User Option Bytes values.
 545:Drivers/src/ch32v20x_flash.c ****  *
 546:Drivers/src/ch32v20x_flash.c ****  * @return  The FLASH User Option Bytes values:IWDG_SW(Bit0), RST_STOP(Bit1)
 547:Drivers/src/ch32v20x_flash.c ****  *        and RST_STDBY(Bit2).
 548:Drivers/src/ch32v20x_flash.c ****  */
 549:Drivers/src/ch32v20x_flash.c **** uint32_t FLASH_GetUserOptionByte(void)
 550:Drivers/src/ch32v20x_flash.c **** {
 1621              		.loc 1 550 1
 1622              		.cfi_startproc
 1623 0000 4111     		addi	sp,sp,-16
 1624              		.cfi_def_cfa_offset 16
 1625 0002 22C6     		sw	s0,12(sp)
 1626              		.cfi_offset 8, -4
 1627 0004 0008     		addi	s0,sp,16
 1628              		.cfi_def_cfa 8, 0
 551:Drivers/src/ch32v20x_flash.c ****     return (uint32_t)(FLASH->OBR >> 2);
 1629              		.loc 1 551 28
 1630 0006 B7270240 		li	a5,1073881088
 1631 000a DC4F     		lw	a5,28(a5)
 1632              		.loc 1 551 12
 1633 000c 8983     		srli	a5,a5,2
 552:Drivers/src/ch32v20x_flash.c **** }
 1634              		.loc 1 552 1
 1635 000e 3E85     		mv	a0,a5
 1636 0010 3244     		lw	s0,12(sp)
 1637              		.cfi_restore 8
 1638              		.cfi_def_cfa 2, 16
 1639 0012 4101     		addi	sp,sp,16
 1640              		.cfi_def_cfa_offset 0
 1641 0014 8280     		jr	ra
 1642              		.cfi_endproc
 1643              	.LFE30:
 1645              		.section	.text.FLASH_GetWriteProtectionOptionByte,"ax",@progbits
 1646              		.align	1
 1647              		.globl	FLASH_GetWriteProtectionOptionByte
 1649              	FLASH_GetWriteProtectionOptionByte:
 1650              	.LFB31:
 553:Drivers/src/ch32v20x_flash.c **** 
 554:Drivers/src/ch32v20x_flash.c **** /*********************************************************************
 555:Drivers/src/ch32v20x_flash.c ****  * @fn      FLASH_GetWriteProtectionOptionByte
 556:Drivers/src/ch32v20x_flash.c ****  *
 557:Drivers/src/ch32v20x_flash.c ****  * @brief   Returns the FLASH Write Protection Option Bytes Register value.
 558:Drivers/src/ch32v20x_flash.c ****  *
 559:Drivers/src/ch32v20x_flash.c ****  * @return  The FLASH Write Protection Option Bytes Register value.
 560:Drivers/src/ch32v20x_flash.c ****  */
 561:Drivers/src/ch32v20x_flash.c **** uint32_t FLASH_GetWriteProtectionOptionByte(void)
 562:Drivers/src/ch32v20x_flash.c **** {
 1651              		.loc 1 562 1
 1652              		.cfi_startproc
 1653 0000 4111     		addi	sp,sp,-16
 1654              		.cfi_def_cfa_offset 16
 1655 0002 22C6     		sw	s0,12(sp)
GAS LISTING C:\Users\SOLDER~1\AppData\Local\Temp\ccKV8tJ7.s 			page 40


 1656              		.cfi_offset 8, -4
 1657 0004 0008     		addi	s0,sp,16
 1658              		.cfi_def_cfa 8, 0
 563:Drivers/src/ch32v20x_flash.c ****     return (uint32_t)(FLASH->WPR);
 1659              		.loc 1 563 28
 1660 0006 B7270240 		li	a5,1073881088
 1661              		.loc 1 563 12
 1662 000a 9C53     		lw	a5,32(a5)
 564:Drivers/src/ch32v20x_flash.c **** }
 1663              		.loc 1 564 1
 1664 000c 3E85     		mv	a0,a5
 1665 000e 3244     		lw	s0,12(sp)
 1666              		.cfi_restore 8
 1667              		.cfi_def_cfa 2, 16
 1668 0010 4101     		addi	sp,sp,16
 1669              		.cfi_def_cfa_offset 0
 1670 0012 8280     		jr	ra
 1671              		.cfi_endproc
 1672              	.LFE31:
 1674              		.section	.text.FLASH_GetReadOutProtectionStatus,"ax",@progbits
 1675              		.align	1
 1676              		.globl	FLASH_GetReadOutProtectionStatus
 1678              	FLASH_GetReadOutProtectionStatus:
 1679              	.LFB32:
 565:Drivers/src/ch32v20x_flash.c **** 
 566:Drivers/src/ch32v20x_flash.c **** /*********************************************************************
 567:Drivers/src/ch32v20x_flash.c ****  * @fn      FLASH_GetReadOutProtectionStatus
 568:Drivers/src/ch32v20x_flash.c ****  *
 569:Drivers/src/ch32v20x_flash.c ****  * @brief   Checks whether the FLASH Read Out Protection Status is set or not.
 570:Drivers/src/ch32v20x_flash.c ****  *
 571:Drivers/src/ch32v20x_flash.c ****  * @return  FLASH ReadOut Protection Status(SET or RESET)
 572:Drivers/src/ch32v20x_flash.c ****  */
 573:Drivers/src/ch32v20x_flash.c **** FlagStatus FLASH_GetReadOutProtectionStatus(void)
 574:Drivers/src/ch32v20x_flash.c **** {
 1680              		.loc 1 574 1
 1681              		.cfi_startproc
 1682 0000 0111     		addi	sp,sp,-32
 1683              		.cfi_def_cfa_offset 32
 1684 0002 22CE     		sw	s0,28(sp)
 1685              		.cfi_offset 8, -4
 1686 0004 0010     		addi	s0,sp,32
 1687              		.cfi_def_cfa 8, 0
 575:Drivers/src/ch32v20x_flash.c ****     FlagStatus readoutstatus = RESET;
 1688              		.loc 1 575 16
 1689 0006 232604FE 		sw	zero,-20(s0)
 576:Drivers/src/ch32v20x_flash.c ****     if((FLASH->OBR & RDPRT_Mask) != (uint32_t)RESET)
 1690              		.loc 1 576 14
 1691 000a B7270240 		li	a5,1073881088
 1692 000e DC4F     		lw	a5,28(a5)
 1693              		.loc 1 576 20
 1694 0010 898B     		andi	a5,a5,2
 1695              		.loc 1 576 7
 1696 0012 89C7     		beq	a5,zero,.L73
 577:Drivers/src/ch32v20x_flash.c ****     {
 578:Drivers/src/ch32v20x_flash.c ****         readoutstatus = SET;
 1697              		.loc 1 578 23
 1698 0014 8547     		li	a5,1
GAS LISTING C:\Users\SOLDER~1\AppData\Local\Temp\ccKV8tJ7.s 			page 41


 1699 0016 2326F4FE 		sw	a5,-20(s0)
 1700 001a 19A0     		j	.L74
 1701              	.L73:
 579:Drivers/src/ch32v20x_flash.c ****     }
 580:Drivers/src/ch32v20x_flash.c ****     else
 581:Drivers/src/ch32v20x_flash.c ****     {
 582:Drivers/src/ch32v20x_flash.c ****         readoutstatus = RESET;
 1702              		.loc 1 582 23
 1703 001c 232604FE 		sw	zero,-20(s0)
 1704              	.L74:
 583:Drivers/src/ch32v20x_flash.c ****     }
 584:Drivers/src/ch32v20x_flash.c ****     return readoutstatus;
 1705              		.loc 1 584 12
 1706 0020 8327C4FE 		lw	a5,-20(s0)
 585:Drivers/src/ch32v20x_flash.c **** }
 1707              		.loc 1 585 1
 1708 0024 3E85     		mv	a0,a5
 1709 0026 7244     		lw	s0,28(sp)
 1710              		.cfi_restore 8
 1711              		.cfi_def_cfa 2, 32
 1712 0028 0561     		addi	sp,sp,32
 1713              		.cfi_def_cfa_offset 0
 1714 002a 8280     		jr	ra
 1715              		.cfi_endproc
 1716              	.LFE32:
 1718              		.section	.text.FLASH_ITConfig,"ax",@progbits
 1719              		.align	1
 1720              		.globl	FLASH_ITConfig
 1722              	FLASH_ITConfig:
 1723              	.LFB33:
 586:Drivers/src/ch32v20x_flash.c **** 
 587:Drivers/src/ch32v20x_flash.c **** /*********************************************************************
 588:Drivers/src/ch32v20x_flash.c ****  * @fn      FLASH_ITConfig
 589:Drivers/src/ch32v20x_flash.c ****  *
 590:Drivers/src/ch32v20x_flash.c ****  * @brief   Enables or disables the specified FLASH interrupts.
 591:Drivers/src/ch32v20x_flash.c ****  *
 592:Drivers/src/ch32v20x_flash.c ****  * @param   FLASH_IT - specifies the FLASH interrupt sources to be enabled or disabled.
 593:Drivers/src/ch32v20x_flash.c ****  *            FLASH_IT_ERROR - FLASH Error Interrupt
 594:Drivers/src/ch32v20x_flash.c ****  *            FLASH_IT_EOP - FLASH end of operation Interrupt
 595:Drivers/src/ch32v20x_flash.c ****  *          NewState - new state of the specified Flash interrupts(ENABLE or DISABLE).
 596:Drivers/src/ch32v20x_flash.c ****  *
 597:Drivers/src/ch32v20x_flash.c ****  * @return  FLASH Prefetch Buffer Status (SET or RESET).
 598:Drivers/src/ch32v20x_flash.c ****  */
 599:Drivers/src/ch32v20x_flash.c **** void FLASH_ITConfig(uint32_t FLASH_IT, FunctionalState NewState)
 600:Drivers/src/ch32v20x_flash.c **** {
 1724              		.loc 1 600 1
 1725              		.cfi_startproc
 1726 0000 0111     		addi	sp,sp,-32
 1727              		.cfi_def_cfa_offset 32
 1728 0002 22CE     		sw	s0,28(sp)
 1729              		.cfi_offset 8, -4
 1730 0004 0010     		addi	s0,sp,32
 1731              		.cfi_def_cfa 8, 0
 1732 0006 2326A4FE 		sw	a0,-20(s0)
 1733 000a 2324B4FE 		sw	a1,-24(s0)
 601:Drivers/src/ch32v20x_flash.c ****     if(NewState != DISABLE)
 1734              		.loc 1 601 7
GAS LISTING C:\Users\SOLDER~1\AppData\Local\Temp\ccKV8tJ7.s 			page 42


 1735 000e 832784FE 		lw	a5,-24(s0)
 1736 0012 99CB     		beq	a5,zero,.L77
 602:Drivers/src/ch32v20x_flash.c ****     {
 603:Drivers/src/ch32v20x_flash.c ****         FLASH->CTLR |= FLASH_IT;
 1737              		.loc 1 603 14
 1738 0014 B7270240 		li	a5,1073881088
 1739 0018 944B     		lw	a3,16(a5)
 1740 001a B7270240 		li	a5,1073881088
 1741              		.loc 1 603 21
 1742 001e 0327C4FE 		lw	a4,-20(s0)
 1743 0022 558F     		or	a4,a3,a4
 1744 0024 98CB     		sw	a4,16(a5)
 604:Drivers/src/ch32v20x_flash.c ****     }
 605:Drivers/src/ch32v20x_flash.c ****     else
 606:Drivers/src/ch32v20x_flash.c ****     {
 607:Drivers/src/ch32v20x_flash.c ****         FLASH->CTLR &= ~(uint32_t)FLASH_IT;
 608:Drivers/src/ch32v20x_flash.c ****     }
 609:Drivers/src/ch32v20x_flash.c **** }
 1745              		.loc 1 609 1
 1746 0026 21A8     		j	.L79
 1747              	.L77:
 607:Drivers/src/ch32v20x_flash.c ****     }
 1748              		.loc 1 607 14
 1749 0028 B7270240 		li	a5,1073881088
 1750 002c 944B     		lw	a3,16(a5)
 607:Drivers/src/ch32v20x_flash.c ****     }
 1751              		.loc 1 607 24
 1752 002e 8327C4FE 		lw	a5,-20(s0)
 1753 0032 13C7F7FF 		not	a4,a5
 607:Drivers/src/ch32v20x_flash.c ****     }
 1754              		.loc 1 607 14
 1755 0036 B7270240 		li	a5,1073881088
 607:Drivers/src/ch32v20x_flash.c ****     }
 1756              		.loc 1 607 21
 1757 003a 758F     		and	a4,a3,a4
 1758 003c 98CB     		sw	a4,16(a5)
 1759              	.L79:
 1760              		.loc 1 609 1
 1761 003e 0100     		nop
 1762 0040 7244     		lw	s0,28(sp)
 1763              		.cfi_restore 8
 1764              		.cfi_def_cfa 2, 32
 1765 0042 0561     		addi	sp,sp,32
 1766              		.cfi_def_cfa_offset 0
 1767 0044 8280     		jr	ra
 1768              		.cfi_endproc
 1769              	.LFE33:
 1771              		.section	.text.FLASH_GetFlagStatus,"ax",@progbits
 1772              		.align	1
 1773              		.globl	FLASH_GetFlagStatus
 1775              	FLASH_GetFlagStatus:
 1776              	.LFB34:
 610:Drivers/src/ch32v20x_flash.c **** 
 611:Drivers/src/ch32v20x_flash.c **** /*********************************************************************
 612:Drivers/src/ch32v20x_flash.c ****  * @fn      FLASH_GetFlagStatus
 613:Drivers/src/ch32v20x_flash.c ****  *
 614:Drivers/src/ch32v20x_flash.c ****  * @brief   Checks whether the specified FLASH flag is set or not.
GAS LISTING C:\Users\SOLDER~1\AppData\Local\Temp\ccKV8tJ7.s 			page 43


 615:Drivers/src/ch32v20x_flash.c ****  *
 616:Drivers/src/ch32v20x_flash.c ****  * @param   FLASH_FLAG - specifies the FLASH flag to check.
 617:Drivers/src/ch32v20x_flash.c ****  *            FLASH_FLAG_BSY - FLASH Busy flag
 618:Drivers/src/ch32v20x_flash.c ****  *            FLASH_FLAG_WRPRTERR - FLASH Write protected error flag
 619:Drivers/src/ch32v20x_flash.c ****  *            FLASH_FLAG_EOP - FLASH End of Operation flag
 620:Drivers/src/ch32v20x_flash.c ****  *            FLASH_FLAG_OPTERR - FLASH Option Byte error flag
 621:Drivers/src/ch32v20x_flash.c ****  *
 622:Drivers/src/ch32v20x_flash.c ****  * @return  The new state of FLASH_FLAG (SET or RESET).
 623:Drivers/src/ch32v20x_flash.c ****  */
 624:Drivers/src/ch32v20x_flash.c **** FlagStatus FLASH_GetFlagStatus(uint32_t FLASH_FLAG)
 625:Drivers/src/ch32v20x_flash.c **** {
 1777              		.loc 1 625 1
 1778              		.cfi_startproc
 1779 0000 7971     		addi	sp,sp,-48
 1780              		.cfi_def_cfa_offset 48
 1781 0002 22D6     		sw	s0,44(sp)
 1782              		.cfi_offset 8, -4
 1783 0004 0018     		addi	s0,sp,48
 1784              		.cfi_def_cfa 8, 0
 1785 0006 232EA4FC 		sw	a0,-36(s0)
 626:Drivers/src/ch32v20x_flash.c ****     FlagStatus bitstatus = RESET;
 1786              		.loc 1 626 16
 1787 000a 232604FE 		sw	zero,-20(s0)
 627:Drivers/src/ch32v20x_flash.c **** 
 628:Drivers/src/ch32v20x_flash.c ****     if(FLASH_FLAG == FLASH_FLAG_OPTERR)
 1788              		.loc 1 628 7
 1789 000e 0327C4FD 		lw	a4,-36(s0)
 1790 0012 8547     		li	a5,1
 1791 0014 631EF700 		bne	a4,a5,.L81
 629:Drivers/src/ch32v20x_flash.c ****     {
 630:Drivers/src/ch32v20x_flash.c ****         if((FLASH->OBR & FLASH_FLAG_OPTERR) != (uint32_t)RESET)
 1792              		.loc 1 630 18
 1793 0018 B7270240 		li	a5,1073881088
 1794 001c DC4F     		lw	a5,28(a5)
 1795              		.loc 1 630 24
 1796 001e 858B     		andi	a5,a5,1
 1797              		.loc 1 630 11
 1798 0020 89C7     		beq	a5,zero,.L82
 631:Drivers/src/ch32v20x_flash.c ****         {
 632:Drivers/src/ch32v20x_flash.c ****             bitstatus = SET;
 1799              		.loc 1 632 23
 1800 0022 8547     		li	a5,1
 1801 0024 2326F4FE 		sw	a5,-20(s0)
 1802 0028 0DA0     		j	.L83
 1803              	.L82:
 633:Drivers/src/ch32v20x_flash.c ****         }
 634:Drivers/src/ch32v20x_flash.c ****         else
 635:Drivers/src/ch32v20x_flash.c ****         {
 636:Drivers/src/ch32v20x_flash.c ****             bitstatus = RESET;
 1804              		.loc 1 636 23
 1805 002a 232604FE 		sw	zero,-20(s0)
 1806 002e 31A8     		j	.L83
 1807              	.L81:
 637:Drivers/src/ch32v20x_flash.c ****         }
 638:Drivers/src/ch32v20x_flash.c ****     }
 639:Drivers/src/ch32v20x_flash.c ****     else
 640:Drivers/src/ch32v20x_flash.c ****     {
GAS LISTING C:\Users\SOLDER~1\AppData\Local\Temp\ccKV8tJ7.s 			page 44


 641:Drivers/src/ch32v20x_flash.c ****         if((FLASH->STATR & FLASH_FLAG) != (uint32_t)RESET)
 1808              		.loc 1 641 18
 1809 0030 B7270240 		li	a5,1073881088
 1810 0034 D847     		lw	a4,12(a5)
 1811              		.loc 1 641 26
 1812 0036 8327C4FD 		lw	a5,-36(s0)
 1813 003a F98F     		and	a5,a4,a5
 1814              		.loc 1 641 11
 1815 003c 89C7     		beq	a5,zero,.L84
 642:Drivers/src/ch32v20x_flash.c ****         {
 643:Drivers/src/ch32v20x_flash.c ****             bitstatus = SET;
 1816              		.loc 1 643 23
 1817 003e 8547     		li	a5,1
 1818 0040 2326F4FE 		sw	a5,-20(s0)
 1819 0044 19A0     		j	.L83
 1820              	.L84:
 644:Drivers/src/ch32v20x_flash.c ****         }
 645:Drivers/src/ch32v20x_flash.c ****         else
 646:Drivers/src/ch32v20x_flash.c ****         {
 647:Drivers/src/ch32v20x_flash.c ****             bitstatus = RESET;
 1821              		.loc 1 647 23
 1822 0046 232604FE 		sw	zero,-20(s0)
 1823              	.L83:
 648:Drivers/src/ch32v20x_flash.c ****         }
 649:Drivers/src/ch32v20x_flash.c ****     }
 650:Drivers/src/ch32v20x_flash.c ****     return bitstatus;
 1824              		.loc 1 650 12
 1825 004a 8327C4FE 		lw	a5,-20(s0)
 651:Drivers/src/ch32v20x_flash.c **** }
 1826              		.loc 1 651 1
 1827 004e 3E85     		mv	a0,a5
 1828 0050 3254     		lw	s0,44(sp)
 1829              		.cfi_restore 8
 1830              		.cfi_def_cfa 2, 48
 1831 0052 4561     		addi	sp,sp,48
 1832              		.cfi_def_cfa_offset 0
 1833 0054 8280     		jr	ra
 1834              		.cfi_endproc
 1835              	.LFE34:
 1837              		.section	.text.FLASH_ClearFlag,"ax",@progbits
 1838              		.align	1
 1839              		.globl	FLASH_ClearFlag
 1841              	FLASH_ClearFlag:
 1842              	.LFB35:
 652:Drivers/src/ch32v20x_flash.c **** 
 653:Drivers/src/ch32v20x_flash.c **** /*********************************************************************
 654:Drivers/src/ch32v20x_flash.c ****  * @fn      FLASH_ClearFlag
 655:Drivers/src/ch32v20x_flash.c ****  *
 656:Drivers/src/ch32v20x_flash.c ****  * @brief   Clears the FLASH's pending flags.
 657:Drivers/src/ch32v20x_flash.c ****  *
 658:Drivers/src/ch32v20x_flash.c ****  * @param   FLASH_FLAG - specifies the FLASH flags to clear.
 659:Drivers/src/ch32v20x_flash.c ****  *            FLASH_FLAG_WRPRTERR - FLASH Write protected error flag
 660:Drivers/src/ch32v20x_flash.c ****  *            FLASH_FLAG_EOP - FLASH End of Operation flag
 661:Drivers/src/ch32v20x_flash.c ****  *
 662:Drivers/src/ch32v20x_flash.c ****  * @return  none
 663:Drivers/src/ch32v20x_flash.c ****  */
 664:Drivers/src/ch32v20x_flash.c **** void FLASH_ClearFlag(uint32_t FLASH_FLAG)
GAS LISTING C:\Users\SOLDER~1\AppData\Local\Temp\ccKV8tJ7.s 			page 45


 665:Drivers/src/ch32v20x_flash.c **** {
 1843              		.loc 1 665 1
 1844              		.cfi_startproc
 1845 0000 0111     		addi	sp,sp,-32
 1846              		.cfi_def_cfa_offset 32
 1847 0002 22CE     		sw	s0,28(sp)
 1848              		.cfi_offset 8, -4
 1849 0004 0010     		addi	s0,sp,32
 1850              		.cfi_def_cfa 8, 0
 1851 0006 2326A4FE 		sw	a0,-20(s0)
 666:Drivers/src/ch32v20x_flash.c ****     FLASH->STATR = FLASH_FLAG;
 1852              		.loc 1 666 10
 1853 000a B7270240 		li	a5,1073881088
 1854              		.loc 1 666 18
 1855 000e 0327C4FE 		lw	a4,-20(s0)
 1856 0012 D8C7     		sw	a4,12(a5)
 667:Drivers/src/ch32v20x_flash.c **** }
 1857              		.loc 1 667 1
 1858 0014 0100     		nop
 1859 0016 7244     		lw	s0,28(sp)
 1860              		.cfi_restore 8
 1861              		.cfi_def_cfa 2, 32
 1862 0018 0561     		addi	sp,sp,32
 1863              		.cfi_def_cfa_offset 0
 1864 001a 8280     		jr	ra
 1865              		.cfi_endproc
 1866              	.LFE35:
 1868              		.section	.text.FLASH_GetStatus,"ax",@progbits
 1869              		.align	1
 1870              		.globl	FLASH_GetStatus
 1872              	FLASH_GetStatus:
 1873              	.LFB36:
 668:Drivers/src/ch32v20x_flash.c **** 
 669:Drivers/src/ch32v20x_flash.c **** /*********************************************************************
 670:Drivers/src/ch32v20x_flash.c ****  * @fn      FLASH_GetStatus
 671:Drivers/src/ch32v20x_flash.c ****  *
 672:Drivers/src/ch32v20x_flash.c ****  * @brief   Returns the FLASH Status.
 673:Drivers/src/ch32v20x_flash.c ****  *
 674:Drivers/src/ch32v20x_flash.c ****  * @return  FLASH Status - The returned value can be: FLASH_BUSY, FLASH_ERROR_PG,
 675:Drivers/src/ch32v20x_flash.c ****  *        FLASH_ERROR_WRP or FLASH_COMPLETE.
 676:Drivers/src/ch32v20x_flash.c ****  */
 677:Drivers/src/ch32v20x_flash.c **** FLASH_Status FLASH_GetStatus(void)
 678:Drivers/src/ch32v20x_flash.c **** {
 1874              		.loc 1 678 1
 1875              		.cfi_startproc
 1876 0000 0111     		addi	sp,sp,-32
 1877              		.cfi_def_cfa_offset 32
 1878 0002 22CE     		sw	s0,28(sp)
 1879              		.cfi_offset 8, -4
 1880 0004 0010     		addi	s0,sp,32
 1881              		.cfi_def_cfa 8, 0
 679:Drivers/src/ch32v20x_flash.c ****     FLASH_Status flashstatus = FLASH_COMPLETE;
 1882              		.loc 1 679 18
 1883 0006 9147     		li	a5,4
 1884 0008 2326F4FE 		sw	a5,-20(s0)
 680:Drivers/src/ch32v20x_flash.c **** 
 681:Drivers/src/ch32v20x_flash.c ****     if((FLASH->STATR & FLASH_FLAG_BSY) == FLASH_FLAG_BSY)
GAS LISTING C:\Users\SOLDER~1\AppData\Local\Temp\ccKV8tJ7.s 			page 46


 1885              		.loc 1 681 14
 1886 000c B7270240 		li	a5,1073881088
 1887 0010 DC47     		lw	a5,12(a5)
 1888              		.loc 1 681 22
 1889 0012 13F71700 		andi	a4,a5,1
 1890              		.loc 1 681 7
 1891 0016 8547     		li	a5,1
 1892 0018 6316F700 		bne	a4,a5,.L88
 682:Drivers/src/ch32v20x_flash.c ****     {
 683:Drivers/src/ch32v20x_flash.c ****         flashstatus = FLASH_BUSY;
 1893              		.loc 1 683 21
 1894 001c 8547     		li	a5,1
 1895 001e 2326F4FE 		sw	a5,-20(s0)
 1896 0022 29A8     		j	.L89
 1897              	.L88:
 684:Drivers/src/ch32v20x_flash.c ****     }
 685:Drivers/src/ch32v20x_flash.c ****     else
 686:Drivers/src/ch32v20x_flash.c ****     {
 687:Drivers/src/ch32v20x_flash.c ****         if((FLASH->STATR & FLASH_FLAG_WRPRTERR) != 0)
 1898              		.loc 1 687 18
 1899 0024 B7270240 		li	a5,1073881088
 1900 0028 DC47     		lw	a5,12(a5)
 1901              		.loc 1 687 26
 1902 002a C18B     		andi	a5,a5,16
 1903              		.loc 1 687 11
 1904 002c 89C7     		beq	a5,zero,.L90
 688:Drivers/src/ch32v20x_flash.c ****         {
 689:Drivers/src/ch32v20x_flash.c ****             flashstatus = FLASH_ERROR_WRP;
 1905              		.loc 1 689 25
 1906 002e 8D47     		li	a5,3
 1907 0030 2326F4FE 		sw	a5,-20(s0)
 1908 0034 21A0     		j	.L89
 1909              	.L90:
 690:Drivers/src/ch32v20x_flash.c ****         }
 691:Drivers/src/ch32v20x_flash.c ****         else
 692:Drivers/src/ch32v20x_flash.c ****         {
 693:Drivers/src/ch32v20x_flash.c ****             flashstatus = FLASH_COMPLETE;
 1910              		.loc 1 693 25
 1911 0036 9147     		li	a5,4
 1912 0038 2326F4FE 		sw	a5,-20(s0)
 1913              	.L89:
 694:Drivers/src/ch32v20x_flash.c ****         }
 695:Drivers/src/ch32v20x_flash.c ****     }
 696:Drivers/src/ch32v20x_flash.c ****     return flashstatus;
 1914              		.loc 1 696 12
 1915 003c 8327C4FE 		lw	a5,-20(s0)
 697:Drivers/src/ch32v20x_flash.c **** }
 1916              		.loc 1 697 1
 1917 0040 3E85     		mv	a0,a5
 1918 0042 7244     		lw	s0,28(sp)
 1919              		.cfi_restore 8
 1920              		.cfi_def_cfa 2, 32
 1921 0044 0561     		addi	sp,sp,32
 1922              		.cfi_def_cfa_offset 0
 1923 0046 8280     		jr	ra
 1924              		.cfi_endproc
 1925              	.LFE36:
GAS LISTING C:\Users\SOLDER~1\AppData\Local\Temp\ccKV8tJ7.s 			page 47


 1927              		.section	.text.FLASH_GetBank1Status,"ax",@progbits
 1928              		.align	1
 1929              		.globl	FLASH_GetBank1Status
 1931              	FLASH_GetBank1Status:
 1932              	.LFB37:
 698:Drivers/src/ch32v20x_flash.c **** 
 699:Drivers/src/ch32v20x_flash.c **** /*********************************************************************
 700:Drivers/src/ch32v20x_flash.c ****  * @fn      FLASH_GetBank1Status
 701:Drivers/src/ch32v20x_flash.c ****  *
 702:Drivers/src/ch32v20x_flash.c ****  * @brief   Returns the FLASH Bank1 Status.
 703:Drivers/src/ch32v20x_flash.c ****  *
 704:Drivers/src/ch32v20x_flash.c ****  * @return  FLASH Status - The returned value can be: FLASH_BUSY, FLASH_ERROR_PG,
 705:Drivers/src/ch32v20x_flash.c ****  *        FLASH_ERROR_WRP or FLASH_COMPLETE.
 706:Drivers/src/ch32v20x_flash.c ****  */
 707:Drivers/src/ch32v20x_flash.c **** FLASH_Status FLASH_GetBank1Status(void)
 708:Drivers/src/ch32v20x_flash.c **** {
 1933              		.loc 1 708 1
 1934              		.cfi_startproc
 1935 0000 0111     		addi	sp,sp,-32
 1936              		.cfi_def_cfa_offset 32
 1937 0002 22CE     		sw	s0,28(sp)
 1938              		.cfi_offset 8, -4
 1939 0004 0010     		addi	s0,sp,32
 1940              		.cfi_def_cfa 8, 0
 709:Drivers/src/ch32v20x_flash.c ****     FLASH_Status flashstatus = FLASH_COMPLETE;
 1941              		.loc 1 709 18
 1942 0006 9147     		li	a5,4
 1943 0008 2326F4FE 		sw	a5,-20(s0)
 710:Drivers/src/ch32v20x_flash.c **** 
 711:Drivers/src/ch32v20x_flash.c ****     if((FLASH->STATR & FLASH_FLAG_BANK1_BSY) == FLASH_FLAG_BSY)
 1944              		.loc 1 711 14
 1945 000c B7270240 		li	a5,1073881088
 1946 0010 DC47     		lw	a5,12(a5)
 1947              		.loc 1 711 22
 1948 0012 13F71700 		andi	a4,a5,1
 1949              		.loc 1 711 7
 1950 0016 8547     		li	a5,1
 1951 0018 6316F700 		bne	a4,a5,.L93
 712:Drivers/src/ch32v20x_flash.c ****     {
 713:Drivers/src/ch32v20x_flash.c ****         flashstatus = FLASH_BUSY;
 1952              		.loc 1 713 21
 1953 001c 8547     		li	a5,1
 1954 001e 2326F4FE 		sw	a5,-20(s0)
 1955 0022 29A8     		j	.L94
 1956              	.L93:
 714:Drivers/src/ch32v20x_flash.c ****     }
 715:Drivers/src/ch32v20x_flash.c ****     else
 716:Drivers/src/ch32v20x_flash.c ****     {
 717:Drivers/src/ch32v20x_flash.c ****         if((FLASH->STATR & FLASH_FLAG_BANK1_WRPRTERR) != 0)
 1957              		.loc 1 717 18
 1958 0024 B7270240 		li	a5,1073881088
 1959 0028 DC47     		lw	a5,12(a5)
 1960              		.loc 1 717 26
 1961 002a C18B     		andi	a5,a5,16
 1962              		.loc 1 717 11
 1963 002c 89C7     		beq	a5,zero,.L95
 718:Drivers/src/ch32v20x_flash.c ****         {
GAS LISTING C:\Users\SOLDER~1\AppData\Local\Temp\ccKV8tJ7.s 			page 48


 719:Drivers/src/ch32v20x_flash.c ****             flashstatus = FLASH_ERROR_WRP;
 1964              		.loc 1 719 25
 1965 002e 8D47     		li	a5,3
 1966 0030 2326F4FE 		sw	a5,-20(s0)
 1967 0034 21A0     		j	.L94
 1968              	.L95:
 720:Drivers/src/ch32v20x_flash.c ****         }
 721:Drivers/src/ch32v20x_flash.c ****         else
 722:Drivers/src/ch32v20x_flash.c ****         {
 723:Drivers/src/ch32v20x_flash.c ****             flashstatus = FLASH_COMPLETE;
 1969              		.loc 1 723 25
 1970 0036 9147     		li	a5,4
 1971 0038 2326F4FE 		sw	a5,-20(s0)
 1972              	.L94:
 724:Drivers/src/ch32v20x_flash.c ****         }
 725:Drivers/src/ch32v20x_flash.c ****     }
 726:Drivers/src/ch32v20x_flash.c ****     return flashstatus;
 1973              		.loc 1 726 12
 1974 003c 8327C4FE 		lw	a5,-20(s0)
 727:Drivers/src/ch32v20x_flash.c **** }
 1975              		.loc 1 727 1
 1976 0040 3E85     		mv	a0,a5
 1977 0042 7244     		lw	s0,28(sp)
 1978              		.cfi_restore 8
 1979              		.cfi_def_cfa 2, 32
 1980 0044 0561     		addi	sp,sp,32
 1981              		.cfi_def_cfa_offset 0
 1982 0046 8280     		jr	ra
 1983              		.cfi_endproc
 1984              	.LFE37:
 1986              		.section	.text.FLASH_WaitForLastOperation,"ax",@progbits
 1987              		.align	1
 1988              		.globl	FLASH_WaitForLastOperation
 1990              	FLASH_WaitForLastOperation:
 1991              	.LFB38:
 728:Drivers/src/ch32v20x_flash.c **** 
 729:Drivers/src/ch32v20x_flash.c **** /*********************************************************************
 730:Drivers/src/ch32v20x_flash.c ****  * @fn      FLASH_WaitForLastOperation
 731:Drivers/src/ch32v20x_flash.c ****  *
 732:Drivers/src/ch32v20x_flash.c ****  * @brief   Waits for a Flash operation to complete or a TIMEOUT to occur.
 733:Drivers/src/ch32v20x_flash.c ****  *
 734:Drivers/src/ch32v20x_flash.c ****  * @param   Timeout - FLASH programming Timeout
 735:Drivers/src/ch32v20x_flash.c ****  *
 736:Drivers/src/ch32v20x_flash.c ****  * @return  FLASH Status - The returned value can be: FLASH_BUSY, FLASH_ERROR_PG,
 737:Drivers/src/ch32v20x_flash.c ****  *        FLASH_ERROR_WRP or FLASH_COMPLETE.
 738:Drivers/src/ch32v20x_flash.c ****  */
 739:Drivers/src/ch32v20x_flash.c **** FLASH_Status FLASH_WaitForLastOperation(uint32_t Timeout)
 740:Drivers/src/ch32v20x_flash.c **** {
 1992              		.loc 1 740 1
 1993              		.cfi_startproc
 1994 0000 7971     		addi	sp,sp,-48
 1995              		.cfi_def_cfa_offset 48
 1996 0002 06D6     		sw	ra,44(sp)
 1997 0004 22D4     		sw	s0,40(sp)
 1998              		.cfi_offset 1, -4
 1999              		.cfi_offset 8, -8
 2000 0006 0018     		addi	s0,sp,48
GAS LISTING C:\Users\SOLDER~1\AppData\Local\Temp\ccKV8tJ7.s 			page 49


 2001              		.cfi_def_cfa 8, 0
 2002 0008 232EA4FC 		sw	a0,-36(s0)
 741:Drivers/src/ch32v20x_flash.c ****     FLASH_Status status = FLASH_COMPLETE;
 2003              		.loc 1 741 18
 2004 000c 9147     		li	a5,4
 2005 000e 2326F4FE 		sw	a5,-20(s0)
 742:Drivers/src/ch32v20x_flash.c **** 
 743:Drivers/src/ch32v20x_flash.c ****     status = FLASH_GetBank1Status();
 2006              		.loc 1 743 14
 2007 0012 97000000 		call	FLASH_GetBank1Status
 2007      E7800000 
 2008 001a 2326A4FE 		sw	a0,-20(s0)
 744:Drivers/src/ch32v20x_flash.c ****     while((status == FLASH_BUSY) && (Timeout != 0x00))
 2009              		.loc 1 744 10
 2010 001e 21A8     		j	.L98
 2011              	.L100:
 745:Drivers/src/ch32v20x_flash.c ****     {
 746:Drivers/src/ch32v20x_flash.c ****         status = FLASH_GetBank1Status();
 2012              		.loc 1 746 18
 2013 0020 97000000 		call	FLASH_GetBank1Status
 2013      E7800000 
 2014 0028 2326A4FE 		sw	a0,-20(s0)
 747:Drivers/src/ch32v20x_flash.c ****         Timeout--;
 2015              		.loc 1 747 16
 2016 002c 8327C4FD 		lw	a5,-36(s0)
 2017 0030 FD17     		addi	a5,a5,-1
 2018 0032 232EF4FC 		sw	a5,-36(s0)
 2019              	.L98:
 744:Drivers/src/ch32v20x_flash.c ****     while((status == FLASH_BUSY) && (Timeout != 0x00))
 2020              		.loc 1 744 34
 2021 0036 0327C4FE 		lw	a4,-20(s0)
 2022 003a 8547     		li	a5,1
 2023 003c 6315F700 		bne	a4,a5,.L99
 744:Drivers/src/ch32v20x_flash.c ****     while((status == FLASH_BUSY) && (Timeout != 0x00))
 2024              		.loc 1 744 34 is_stmt 0 discriminator 1
 2025 0040 8327C4FD 		lw	a5,-36(s0)
 2026 0044 F1FF     		bne	a5,zero,.L100
 2027              	.L99:
 748:Drivers/src/ch32v20x_flash.c ****     }
 749:Drivers/src/ch32v20x_flash.c ****     if(Timeout == 0x00)
 2028              		.loc 1 749 7 is_stmt 1
 2029 0046 8327C4FD 		lw	a5,-36(s0)
 2030 004a 81E7     		bne	a5,zero,.L101
 750:Drivers/src/ch32v20x_flash.c ****     {
 751:Drivers/src/ch32v20x_flash.c ****         status = FLASH_TIMEOUT;
 2031              		.loc 1 751 16
 2032 004c 9547     		li	a5,5
 2033 004e 2326F4FE 		sw	a5,-20(s0)
 2034              	.L101:
 752:Drivers/src/ch32v20x_flash.c ****     }
 753:Drivers/src/ch32v20x_flash.c ****     return status;
 2035              		.loc 1 753 12
 2036 0052 8327C4FE 		lw	a5,-20(s0)
 754:Drivers/src/ch32v20x_flash.c **** }
 2037              		.loc 1 754 1
 2038 0056 3E85     		mv	a0,a5
 2039 0058 B250     		lw	ra,44(sp)
GAS LISTING C:\Users\SOLDER~1\AppData\Local\Temp\ccKV8tJ7.s 			page 50


 2040              		.cfi_restore 1
 2041 005a 2254     		lw	s0,40(sp)
 2042              		.cfi_restore 8
 2043              		.cfi_def_cfa 2, 48
 2044 005c 4561     		addi	sp,sp,48
 2045              		.cfi_def_cfa_offset 0
 2046 005e 8280     		jr	ra
 2047              		.cfi_endproc
 2048              	.LFE38:
 2050              		.section	.text.FLASH_WaitForLastBank1Operation,"ax",@progbits
 2051              		.align	1
 2052              		.globl	FLASH_WaitForLastBank1Operation
 2054              	FLASH_WaitForLastBank1Operation:
 2055              	.LFB39:
 755:Drivers/src/ch32v20x_flash.c **** 
 756:Drivers/src/ch32v20x_flash.c **** /*********************************************************************
 757:Drivers/src/ch32v20x_flash.c ****  * @fn      FLASH_WaitForLastBank1Operation
 758:Drivers/src/ch32v20x_flash.c ****  *
 759:Drivers/src/ch32v20x_flash.c ****  * @brief   Waits for a Flash operation on Bank1 to complete or a TIMEOUT to occur.
 760:Drivers/src/ch32v20x_flash.c ****  *
 761:Drivers/src/ch32v20x_flash.c ****  * @param   Timeout - FLASH programming Timeout
 762:Drivers/src/ch32v20x_flash.c ****  *
 763:Drivers/src/ch32v20x_flash.c ****  * @return  FLASH Status - The returned value can be: FLASH_BUSY, FLASH_ERROR_PG,
 764:Drivers/src/ch32v20x_flash.c ****  *        FLASH_ERROR_WRP or FLASH_COMPLETE.
 765:Drivers/src/ch32v20x_flash.c ****  */
 766:Drivers/src/ch32v20x_flash.c **** FLASH_Status FLASH_WaitForLastBank1Operation(uint32_t Timeout)
 767:Drivers/src/ch32v20x_flash.c **** {
 2056              		.loc 1 767 1
 2057              		.cfi_startproc
 2058 0000 7971     		addi	sp,sp,-48
 2059              		.cfi_def_cfa_offset 48
 2060 0002 06D6     		sw	ra,44(sp)
 2061 0004 22D4     		sw	s0,40(sp)
 2062              		.cfi_offset 1, -4
 2063              		.cfi_offset 8, -8
 2064 0006 0018     		addi	s0,sp,48
 2065              		.cfi_def_cfa 8, 0
 2066 0008 232EA4FC 		sw	a0,-36(s0)
 768:Drivers/src/ch32v20x_flash.c ****     FLASH_Status status = FLASH_COMPLETE;
 2067              		.loc 1 768 18
 2068 000c 9147     		li	a5,4
 2069 000e 2326F4FE 		sw	a5,-20(s0)
 769:Drivers/src/ch32v20x_flash.c **** 
 770:Drivers/src/ch32v20x_flash.c ****     status = FLASH_GetBank1Status();
 2070              		.loc 1 770 14
 2071 0012 97000000 		call	FLASH_GetBank1Status
 2071      E7800000 
 2072 001a 2326A4FE 		sw	a0,-20(s0)
 771:Drivers/src/ch32v20x_flash.c ****     while((status == FLASH_FLAG_BANK1_BSY) && (Timeout != 0x00))
 2073              		.loc 1 771 10
 2074 001e 21A8     		j	.L104
 2075              	.L106:
 772:Drivers/src/ch32v20x_flash.c ****     {
 773:Drivers/src/ch32v20x_flash.c ****         status = FLASH_GetBank1Status();
 2076              		.loc 1 773 18
 2077 0020 97000000 		call	FLASH_GetBank1Status
 2077      E7800000 
GAS LISTING C:\Users\SOLDER~1\AppData\Local\Temp\ccKV8tJ7.s 			page 51


 2078 0028 2326A4FE 		sw	a0,-20(s0)
 774:Drivers/src/ch32v20x_flash.c ****         Timeout--;
 2079              		.loc 1 774 16
 2080 002c 8327C4FD 		lw	a5,-36(s0)
 2081 0030 FD17     		addi	a5,a5,-1
 2082 0032 232EF4FC 		sw	a5,-36(s0)
 2083              	.L104:
 771:Drivers/src/ch32v20x_flash.c ****     while((status == FLASH_FLAG_BANK1_BSY) && (Timeout != 0x00))
 2084              		.loc 1 771 44
 2085 0036 0327C4FE 		lw	a4,-20(s0)
 2086 003a 8547     		li	a5,1
 2087 003c 6315F700 		bne	a4,a5,.L105
 771:Drivers/src/ch32v20x_flash.c ****     while((status == FLASH_FLAG_BANK1_BSY) && (Timeout != 0x00))
 2088              		.loc 1 771 44 is_stmt 0 discriminator 1
 2089 0040 8327C4FD 		lw	a5,-36(s0)
 2090 0044 F1FF     		bne	a5,zero,.L106
 2091              	.L105:
 775:Drivers/src/ch32v20x_flash.c ****     }
 776:Drivers/src/ch32v20x_flash.c ****     if(Timeout == 0x00)
 2092              		.loc 1 776 7 is_stmt 1
 2093 0046 8327C4FD 		lw	a5,-36(s0)
 2094 004a 81E7     		bne	a5,zero,.L107
 777:Drivers/src/ch32v20x_flash.c ****     {
 778:Drivers/src/ch32v20x_flash.c ****         status = FLASH_TIMEOUT;
 2095              		.loc 1 778 16
 2096 004c 9547     		li	a5,5
 2097 004e 2326F4FE 		sw	a5,-20(s0)
 2098              	.L107:
 779:Drivers/src/ch32v20x_flash.c ****     }
 780:Drivers/src/ch32v20x_flash.c ****     return status;
 2099              		.loc 1 780 12
 2100 0052 8327C4FE 		lw	a5,-20(s0)
 781:Drivers/src/ch32v20x_flash.c **** }
 2101              		.loc 1 781 1
 2102 0056 3E85     		mv	a0,a5
 2103 0058 B250     		lw	ra,44(sp)
 2104              		.cfi_restore 1
 2105 005a 2254     		lw	s0,40(sp)
 2106              		.cfi_restore 8
 2107              		.cfi_def_cfa 2, 48
 2108 005c 4561     		addi	sp,sp,48
 2109              		.cfi_def_cfa_offset 0
 2110 005e 8280     		jr	ra
 2111              		.cfi_endproc
 2112              	.LFE39:
 2114              		.section	.text.FLASH_Unlock_Fast,"ax",@progbits
 2115              		.align	1
 2116              		.globl	FLASH_Unlock_Fast
 2118              	FLASH_Unlock_Fast:
 2119              	.LFB40:
 782:Drivers/src/ch32v20x_flash.c **** 
 783:Drivers/src/ch32v20x_flash.c **** /*********************************************************************
 784:Drivers/src/ch32v20x_flash.c ****  * @fn      FLASH_Unlock_Fast
 785:Drivers/src/ch32v20x_flash.c ****  *
 786:Drivers/src/ch32v20x_flash.c ****  * @brief   Unlocks the Fast Program Erase Mode.
 787:Drivers/src/ch32v20x_flash.c ****  *
 788:Drivers/src/ch32v20x_flash.c ****  * @return  none
GAS LISTING C:\Users\SOLDER~1\AppData\Local\Temp\ccKV8tJ7.s 			page 52


 789:Drivers/src/ch32v20x_flash.c ****  */
 790:Drivers/src/ch32v20x_flash.c **** void FLASH_Unlock_Fast(void)
 791:Drivers/src/ch32v20x_flash.c **** {
 2120              		.loc 1 791 1
 2121              		.cfi_startproc
 2122 0000 4111     		addi	sp,sp,-16
 2123              		.cfi_def_cfa_offset 16
 2124 0002 22C6     		sw	s0,12(sp)
 2125              		.cfi_offset 8, -4
 2126 0004 0008     		addi	s0,sp,16
 2127              		.cfi_def_cfa 8, 0
 792:Drivers/src/ch32v20x_flash.c ****     /* Authorize the FPEC of Bank1 Access */
 793:Drivers/src/ch32v20x_flash.c ****     FLASH->KEYR = FLASH_KEY1;
 2128              		.loc 1 793 10
 2129 0006 B7270240 		li	a5,1073881088
 2130              		.loc 1 793 17
 2131 000a 37076745 		li	a4,1164378112
 2132 000e 13073712 		addi	a4,a4,291
 2133 0012 D8C3     		sw	a4,4(a5)
 794:Drivers/src/ch32v20x_flash.c ****     FLASH->KEYR = FLASH_KEY2;
 2134              		.loc 1 794 10
 2135 0014 B7270240 		li	a5,1073881088
 2136              		.loc 1 794 17
 2137 0018 3797EFCD 		li	a4,-839938048
 2138 001c 1307B79A 		addi	a4,a4,-1621
 2139 0020 D8C3     		sw	a4,4(a5)
 795:Drivers/src/ch32v20x_flash.c **** 
 796:Drivers/src/ch32v20x_flash.c ****     /* Fast program mode unlock */
 797:Drivers/src/ch32v20x_flash.c ****     FLASH->MODEKEYR = FLASH_KEY1;
 2140              		.loc 1 797 10
 2141 0022 B7270240 		li	a5,1073881088
 2142              		.loc 1 797 21
 2143 0026 37076745 		li	a4,1164378112
 2144 002a 13073712 		addi	a4,a4,291
 2145 002e D8D3     		sw	a4,36(a5)
 798:Drivers/src/ch32v20x_flash.c ****     FLASH->MODEKEYR = FLASH_KEY2;
 2146              		.loc 1 798 10
 2147 0030 B7270240 		li	a5,1073881088
 2148              		.loc 1 798 21
 2149 0034 3797EFCD 		li	a4,-839938048
 2150 0038 1307B79A 		addi	a4,a4,-1621
 2151 003c D8D3     		sw	a4,36(a5)
 799:Drivers/src/ch32v20x_flash.c **** }
 2152              		.loc 1 799 1
 2153 003e 0100     		nop
 2154 0040 3244     		lw	s0,12(sp)
 2155              		.cfi_restore 8
 2156              		.cfi_def_cfa 2, 16
 2157 0042 4101     		addi	sp,sp,16
 2158              		.cfi_def_cfa_offset 0
 2159 0044 8280     		jr	ra
 2160              		.cfi_endproc
 2161              	.LFE40:
 2163              		.section	.text.FLASH_Lock_Fast,"ax",@progbits
 2164              		.align	1
 2165              		.globl	FLASH_Lock_Fast
 2167              	FLASH_Lock_Fast:
GAS LISTING C:\Users\SOLDER~1\AppData\Local\Temp\ccKV8tJ7.s 			page 53


 2168              	.LFB41:
 800:Drivers/src/ch32v20x_flash.c **** 
 801:Drivers/src/ch32v20x_flash.c **** /*********************************************************************
 802:Drivers/src/ch32v20x_flash.c ****  * @fn      FLASH_Lock_Fast
 803:Drivers/src/ch32v20x_flash.c ****  *
 804:Drivers/src/ch32v20x_flash.c ****  * @brief   Locks the Fast Program Erase Mode.
 805:Drivers/src/ch32v20x_flash.c ****  *
 806:Drivers/src/ch32v20x_flash.c ****  * @return  none
 807:Drivers/src/ch32v20x_flash.c ****  */
 808:Drivers/src/ch32v20x_flash.c **** void FLASH_Lock_Fast(void)
 809:Drivers/src/ch32v20x_flash.c **** {
 2169              		.loc 1 809 1
 2170              		.cfi_startproc
 2171 0000 4111     		addi	sp,sp,-16
 2172              		.cfi_def_cfa_offset 16
 2173 0002 22C6     		sw	s0,12(sp)
 2174              		.cfi_offset 8, -4
 2175 0004 0008     		addi	s0,sp,16
 2176              		.cfi_def_cfa 8, 0
 810:Drivers/src/ch32v20x_flash.c ****     FLASH->CTLR |= CR_FAST_LOCK_Set;
 2177              		.loc 1 810 10
 2178 0006 B7270240 		li	a5,1073881088
 2179 000a 944B     		lw	a3,16(a5)
 2180 000c B7270240 		li	a5,1073881088
 2181              		.loc 1 810 17
 2182 0010 2167     		li	a4,32768
 2183 0012 558F     		or	a4,a3,a4
 2184 0014 98CB     		sw	a4,16(a5)
 811:Drivers/src/ch32v20x_flash.c **** }
 2185              		.loc 1 811 1
 2186 0016 0100     		nop
 2187 0018 3244     		lw	s0,12(sp)
 2188              		.cfi_restore 8
 2189              		.cfi_def_cfa 2, 16
 2190 001a 4101     		addi	sp,sp,16
 2191              		.cfi_def_cfa_offset 0
 2192 001c 8280     		jr	ra
 2193              		.cfi_endproc
 2194              	.LFE41:
 2196              		.section	.text.FLASH_ErasePage_Fast,"ax",@progbits
 2197              		.align	1
 2198              		.globl	FLASH_ErasePage_Fast
 2200              	FLASH_ErasePage_Fast:
 2201              	.LFB42:
 812:Drivers/src/ch32v20x_flash.c **** 
 813:Drivers/src/ch32v20x_flash.c **** /*********************************************************************
 814:Drivers/src/ch32v20x_flash.c ****  * @fn      FLASH_ErasePage_Fast
 815:Drivers/src/ch32v20x_flash.c ****  *
 816:Drivers/src/ch32v20x_flash.c ****  * @brief   Erases a specified FLASH page (1page = 256Byte).
 817:Drivers/src/ch32v20x_flash.c ****  *
 818:Drivers/src/ch32v20x_flash.c ****  * @param   Page_Address - The page address to be erased.
 819:Drivers/src/ch32v20x_flash.c ****  *
 820:Drivers/src/ch32v20x_flash.c ****  * @return  none
 821:Drivers/src/ch32v20x_flash.c ****  */
 822:Drivers/src/ch32v20x_flash.c **** void FLASH_ErasePage_Fast(uint32_t Page_Address)
 823:Drivers/src/ch32v20x_flash.c **** {
 2202              		.loc 1 823 1
GAS LISTING C:\Users\SOLDER~1\AppData\Local\Temp\ccKV8tJ7.s 			page 54


 2203              		.cfi_startproc
 2204 0000 0111     		addi	sp,sp,-32
 2205              		.cfi_def_cfa_offset 32
 2206 0002 22CE     		sw	s0,28(sp)
 2207              		.cfi_offset 8, -4
 2208 0004 0010     		addi	s0,sp,32
 2209              		.cfi_def_cfa 8, 0
 2210 0006 2326A4FE 		sw	a0,-20(s0)
 824:Drivers/src/ch32v20x_flash.c ****     Page_Address &= 0xFFFFFF00;
 2211              		.loc 1 824 18
 2212 000a 8327C4FE 		lw	a5,-20(s0)
 2213 000e 93F707F0 		andi	a5,a5,-256
 2214 0012 2326F4FE 		sw	a5,-20(s0)
 825:Drivers/src/ch32v20x_flash.c **** 
 826:Drivers/src/ch32v20x_flash.c ****     FLASH->CTLR |= CR_PAGE_ER;
 2215              		.loc 1 826 10
 2216 0016 B7270240 		li	a5,1073881088
 2217 001a 944B     		lw	a3,16(a5)
 2218 001c B7270240 		li	a5,1073881088
 2219              		.loc 1 826 17
 2220 0020 37070200 		li	a4,131072
 2221 0024 558F     		or	a4,a3,a4
 2222 0026 98CB     		sw	a4,16(a5)
 827:Drivers/src/ch32v20x_flash.c ****     FLASH->ADDR = Page_Address;
 2223              		.loc 1 827 10
 2224 0028 B7270240 		li	a5,1073881088
 2225              		.loc 1 827 17
 2226 002c 0327C4FE 		lw	a4,-20(s0)
 2227 0030 D8CB     		sw	a4,20(a5)
 828:Drivers/src/ch32v20x_flash.c ****     FLASH->CTLR |= CR_STRT_Set;
 2228              		.loc 1 828 10
 2229 0032 B7270240 		li	a5,1073881088
 2230 0036 984B     		lw	a4,16(a5)
 2231 0038 B7270240 		li	a5,1073881088
 2232              		.loc 1 828 17
 2233 003c 13670704 		ori	a4,a4,64
 2234 0040 98CB     		sw	a4,16(a5)
 829:Drivers/src/ch32v20x_flash.c ****     while(FLASH->STATR & SR_BSY);
 2235              		.loc 1 829 10
 2236 0042 0100     		nop
 2237              	.L112:
 2238              		.loc 1 829 16 discriminator 1
 2239 0044 B7270240 		li	a5,1073881088
 2240 0048 DC47     		lw	a5,12(a5)
 2241              		.loc 1 829 24 discriminator 1
 2242 004a 858B     		andi	a5,a5,1
 2243              		.loc 1 829 11 discriminator 1
 2244 004c E5FF     		bne	a5,zero,.L112
 830:Drivers/src/ch32v20x_flash.c ****     FLASH->CTLR &= ~CR_PAGE_ER;
 2245              		.loc 1 830 10
 2246 004e B7270240 		li	a5,1073881088
 2247 0052 944B     		lw	a3,16(a5)
 2248 0054 B7270240 		li	a5,1073881088
 2249              		.loc 1 830 17
 2250 0058 0177     		li	a4,-131072
 2251 005a 7D17     		addi	a4,a4,-1
 2252 005c 758F     		and	a4,a3,a4
GAS LISTING C:\Users\SOLDER~1\AppData\Local\Temp\ccKV8tJ7.s 			page 55


 2253 005e 98CB     		sw	a4,16(a5)
 831:Drivers/src/ch32v20x_flash.c **** }
 2254              		.loc 1 831 1
 2255 0060 0100     		nop
 2256 0062 7244     		lw	s0,28(sp)
 2257              		.cfi_restore 8
 2258              		.cfi_def_cfa 2, 32
 2259 0064 0561     		addi	sp,sp,32
 2260              		.cfi_def_cfa_offset 0
 2261 0066 8280     		jr	ra
 2262              		.cfi_endproc
 2263              	.LFE42:
 2265              		.section	.text.FLASH_EraseBlock_32K_Fast,"ax",@progbits
 2266              		.align	1
 2267              		.globl	FLASH_EraseBlock_32K_Fast
 2269              	FLASH_EraseBlock_32K_Fast:
 2270              	.LFB43:
 832:Drivers/src/ch32v20x_flash.c **** 
 833:Drivers/src/ch32v20x_flash.c **** /*********************************************************************
 834:Drivers/src/ch32v20x_flash.c ****  * @fn      FLASH_EraseBlock_32K_Fast
 835:Drivers/src/ch32v20x_flash.c ****  *
 836:Drivers/src/ch32v20x_flash.c ****  * @brief   Erases a specified FLASH Block (1Block = 32KByte).
 837:Drivers/src/ch32v20x_flash.c ****  *
 838:Drivers/src/ch32v20x_flash.c ****  * @param   Block_Address - The block address to be erased.
 839:Drivers/src/ch32v20x_flash.c ****  *
 840:Drivers/src/ch32v20x_flash.c ****  * @return  none
 841:Drivers/src/ch32v20x_flash.c ****  */
 842:Drivers/src/ch32v20x_flash.c **** void FLASH_EraseBlock_32K_Fast(uint32_t Block_Address)
 843:Drivers/src/ch32v20x_flash.c **** {
 2271              		.loc 1 843 1
 2272              		.cfi_startproc
 2273 0000 0111     		addi	sp,sp,-32
 2274              		.cfi_def_cfa_offset 32
 2275 0002 22CE     		sw	s0,28(sp)
 2276              		.cfi_offset 8, -4
 2277 0004 0010     		addi	s0,sp,32
 2278              		.cfi_def_cfa 8, 0
 2279 0006 2326A4FE 		sw	a0,-20(s0)
 844:Drivers/src/ch32v20x_flash.c ****     Block_Address &= 0xFFFF8000;
 2280              		.loc 1 844 19
 2281 000a 0327C4FE 		lw	a4,-20(s0)
 2282 000e E177     		li	a5,-32768
 2283 0010 F98F     		and	a5,a4,a5
 2284 0012 2326F4FE 		sw	a5,-20(s0)
 845:Drivers/src/ch32v20x_flash.c **** 
 846:Drivers/src/ch32v20x_flash.c ****     FLASH->CTLR |= CR_BER32;
 2285              		.loc 1 846 10
 2286 0016 B7270240 		li	a5,1073881088
 2287 001a 944B     		lw	a3,16(a5)
 2288 001c B7270240 		li	a5,1073881088
 2289              		.loc 1 846 17
 2290 0020 37070400 		li	a4,262144
 2291 0024 558F     		or	a4,a3,a4
 2292 0026 98CB     		sw	a4,16(a5)
 847:Drivers/src/ch32v20x_flash.c ****     FLASH->ADDR = Block_Address;
 2293              		.loc 1 847 10
 2294 0028 B7270240 		li	a5,1073881088
GAS LISTING C:\Users\SOLDER~1\AppData\Local\Temp\ccKV8tJ7.s 			page 56


 2295              		.loc 1 847 17
 2296 002c 0327C4FE 		lw	a4,-20(s0)
 2297 0030 D8CB     		sw	a4,20(a5)
 848:Drivers/src/ch32v20x_flash.c ****     FLASH->CTLR |= CR_STRT_Set;
 2298              		.loc 1 848 10
 2299 0032 B7270240 		li	a5,1073881088
 2300 0036 984B     		lw	a4,16(a5)
 2301 0038 B7270240 		li	a5,1073881088
 2302              		.loc 1 848 17
 2303 003c 13670704 		ori	a4,a4,64
 2304 0040 98CB     		sw	a4,16(a5)
 849:Drivers/src/ch32v20x_flash.c ****     while(FLASH->STATR & SR_BSY);
 2305              		.loc 1 849 10
 2306 0042 0100     		nop
 2307              	.L114:
 2308              		.loc 1 849 16 discriminator 1
 2309 0044 B7270240 		li	a5,1073881088
 2310 0048 DC47     		lw	a5,12(a5)
 2311              		.loc 1 849 24 discriminator 1
 2312 004a 858B     		andi	a5,a5,1
 2313              		.loc 1 849 11 discriminator 1
 2314 004c E5FF     		bne	a5,zero,.L114
 850:Drivers/src/ch32v20x_flash.c ****     FLASH->CTLR &= ~CR_BER32;
 2315              		.loc 1 850 10
 2316 004e B7270240 		li	a5,1073881088
 2317 0052 944B     		lw	a3,16(a5)
 2318 0054 B7270240 		li	a5,1073881088
 2319              		.loc 1 850 17
 2320 0058 3707FCFF 		li	a4,-262144
 2321 005c 7D17     		addi	a4,a4,-1
 2322 005e 758F     		and	a4,a3,a4
 2323 0060 98CB     		sw	a4,16(a5)
 851:Drivers/src/ch32v20x_flash.c **** }
 2324              		.loc 1 851 1
 2325 0062 0100     		nop
 2326 0064 7244     		lw	s0,28(sp)
 2327              		.cfi_restore 8
 2328              		.cfi_def_cfa 2, 32
 2329 0066 0561     		addi	sp,sp,32
 2330              		.cfi_def_cfa_offset 0
 2331 0068 8280     		jr	ra
 2332              		.cfi_endproc
 2333              	.LFE43:
 2335              		.section	.text.FLASH_EraseBlock_64K_Fast,"ax",@progbits
 2336              		.align	1
 2337              		.globl	FLASH_EraseBlock_64K_Fast
 2339              	FLASH_EraseBlock_64K_Fast:
 2340              	.LFB44:
 852:Drivers/src/ch32v20x_flash.c **** 
 853:Drivers/src/ch32v20x_flash.c **** /*********************************************************************
 854:Drivers/src/ch32v20x_flash.c ****  * @fn      FLASH_EraseBlock_64K_Fast
 855:Drivers/src/ch32v20x_flash.c ****  *
 856:Drivers/src/ch32v20x_flash.c ****  * @brief   Erases a specified FLASH Block (1Block = 64KByte).
 857:Drivers/src/ch32v20x_flash.c ****  *
 858:Drivers/src/ch32v20x_flash.c ****  * @param   Block_Address - The block address to be erased.
 859:Drivers/src/ch32v20x_flash.c ****  *
 860:Drivers/src/ch32v20x_flash.c ****  * @return  none
GAS LISTING C:\Users\SOLDER~1\AppData\Local\Temp\ccKV8tJ7.s 			page 57


 861:Drivers/src/ch32v20x_flash.c ****  */
 862:Drivers/src/ch32v20x_flash.c **** void FLASH_EraseBlock_64K_Fast(uint32_t Block_Address)
 863:Drivers/src/ch32v20x_flash.c **** {
 2341              		.loc 1 863 1
 2342              		.cfi_startproc
 2343 0000 0111     		addi	sp,sp,-32
 2344              		.cfi_def_cfa_offset 32
 2345 0002 22CE     		sw	s0,28(sp)
 2346              		.cfi_offset 8, -4
 2347 0004 0010     		addi	s0,sp,32
 2348              		.cfi_def_cfa 8, 0
 2349 0006 2326A4FE 		sw	a0,-20(s0)
 864:Drivers/src/ch32v20x_flash.c ****     Block_Address &= 0xFFFF0000;
 2350              		.loc 1 864 19
 2351 000a 0327C4FE 		lw	a4,-20(s0)
 2352 000e C177     		li	a5,-65536
 2353 0010 F98F     		and	a5,a4,a5
 2354 0012 2326F4FE 		sw	a5,-20(s0)
 865:Drivers/src/ch32v20x_flash.c **** 
 866:Drivers/src/ch32v20x_flash.c ****     FLASH->CTLR |= CR_BER64;
 2355              		.loc 1 866 10
 2356 0016 B7270240 		li	a5,1073881088
 2357 001a 944B     		lw	a3,16(a5)
 2358 001c B7270240 		li	a5,1073881088
 2359              		.loc 1 866 17
 2360 0020 37070800 		li	a4,524288
 2361 0024 558F     		or	a4,a3,a4
 2362 0026 98CB     		sw	a4,16(a5)
 867:Drivers/src/ch32v20x_flash.c ****     FLASH->ADDR = Block_Address;
 2363              		.loc 1 867 10
 2364 0028 B7270240 		li	a5,1073881088
 2365              		.loc 1 867 17
 2366 002c 0327C4FE 		lw	a4,-20(s0)
 2367 0030 D8CB     		sw	a4,20(a5)
 868:Drivers/src/ch32v20x_flash.c ****     FLASH->CTLR |= CR_STRT_Set;
 2368              		.loc 1 868 10
 2369 0032 B7270240 		li	a5,1073881088
 2370 0036 984B     		lw	a4,16(a5)
 2371 0038 B7270240 		li	a5,1073881088
 2372              		.loc 1 868 17
 2373 003c 13670704 		ori	a4,a4,64
 2374 0040 98CB     		sw	a4,16(a5)
 869:Drivers/src/ch32v20x_flash.c ****     while(FLASH->STATR & SR_BSY);
 2375              		.loc 1 869 10
 2376 0042 0100     		nop
 2377              	.L116:
 2378              		.loc 1 869 16 discriminator 1
 2379 0044 B7270240 		li	a5,1073881088
 2380 0048 DC47     		lw	a5,12(a5)
 2381              		.loc 1 869 24 discriminator 1
 2382 004a 858B     		andi	a5,a5,1
 2383              		.loc 1 869 11 discriminator 1
 2384 004c E5FF     		bne	a5,zero,.L116
 870:Drivers/src/ch32v20x_flash.c ****     FLASH->CTLR &= ~CR_BER64;
 2385              		.loc 1 870 10
 2386 004e B7270240 		li	a5,1073881088
 2387 0052 944B     		lw	a3,16(a5)
GAS LISTING C:\Users\SOLDER~1\AppData\Local\Temp\ccKV8tJ7.s 			page 58


 2388 0054 B7270240 		li	a5,1073881088
 2389              		.loc 1 870 17
 2390 0058 3707F8FF 		li	a4,-524288
 2391 005c 7D17     		addi	a4,a4,-1
 2392 005e 758F     		and	a4,a3,a4
 2393 0060 98CB     		sw	a4,16(a5)
 871:Drivers/src/ch32v20x_flash.c **** }
 2394              		.loc 1 871 1
 2395 0062 0100     		nop
 2396 0064 7244     		lw	s0,28(sp)
 2397              		.cfi_restore 8
 2398              		.cfi_def_cfa 2, 32
 2399 0066 0561     		addi	sp,sp,32
 2400              		.cfi_def_cfa_offset 0
 2401 0068 8280     		jr	ra
 2402              		.cfi_endproc
 2403              	.LFE44:
 2405              		.section	.text.FLASH_ProgramPage_Fast,"ax",@progbits
 2406              		.align	1
 2407              		.globl	FLASH_ProgramPage_Fast
 2409              	FLASH_ProgramPage_Fast:
 2410              	.LFB45:
 872:Drivers/src/ch32v20x_flash.c **** 
 873:Drivers/src/ch32v20x_flash.c **** /*********************************************************************
 874:Drivers/src/ch32v20x_flash.c ****  * @fn      FLASH_ProgramPage_Fast
 875:Drivers/src/ch32v20x_flash.c ****  *
 876:Drivers/src/ch32v20x_flash.c ****  * @brief   Program a specified FLASH page (1page = 256Byte).
 877:Drivers/src/ch32v20x_flash.c ****  *
 878:Drivers/src/ch32v20x_flash.c ****  * @param   Page_Address - The page address to be programed.
 879:Drivers/src/ch32v20x_flash.c ****  *
 880:Drivers/src/ch32v20x_flash.c ****  * @return  none
 881:Drivers/src/ch32v20x_flash.c ****  */
 882:Drivers/src/ch32v20x_flash.c **** void FLASH_ProgramPage_Fast(uint32_t Page_Address, uint32_t *pbuf)
 883:Drivers/src/ch32v20x_flash.c **** {
 2411              		.loc 1 883 1
 2412              		.cfi_startproc
 2413 0000 7971     		addi	sp,sp,-48
 2414              		.cfi_def_cfa_offset 48
 2415 0002 22D6     		sw	s0,44(sp)
 2416              		.cfi_offset 8, -4
 2417 0004 0018     		addi	s0,sp,48
 2418              		.cfi_def_cfa 8, 0
 2419 0006 232EA4FC 		sw	a0,-36(s0)
 2420 000a 232CB4FC 		sw	a1,-40(s0)
 884:Drivers/src/ch32v20x_flash.c ****     uint8_t size = 64;
 2421              		.loc 1 884 13
 2422 000e 93070004 		li	a5,64
 2423 0012 A307F4FE 		sb	a5,-17(s0)
 885:Drivers/src/ch32v20x_flash.c **** 
 886:Drivers/src/ch32v20x_flash.c ****     Page_Address &= 0xFFFFFF00;
 2424              		.loc 1 886 18
 2425 0016 8327C4FD 		lw	a5,-36(s0)
 2426 001a 93F707F0 		andi	a5,a5,-256
 2427 001e 232EF4FC 		sw	a5,-36(s0)
 887:Drivers/src/ch32v20x_flash.c **** 
 888:Drivers/src/ch32v20x_flash.c ****     FLASH->CTLR |= CR_PAGE_PG;
 2428              		.loc 1 888 10
GAS LISTING C:\Users\SOLDER~1\AppData\Local\Temp\ccKV8tJ7.s 			page 59


 2429 0022 B7270240 		li	a5,1073881088
 2430 0026 944B     		lw	a3,16(a5)
 2431 0028 B7270240 		li	a5,1073881088
 2432              		.loc 1 888 17
 2433 002c 4167     		li	a4,65536
 2434 002e 558F     		or	a4,a3,a4
 2435 0030 98CB     		sw	a4,16(a5)
 889:Drivers/src/ch32v20x_flash.c ****     while(FLASH->STATR & SR_BSY);
 2436              		.loc 1 889 10
 2437 0032 0100     		nop
 2438              	.L118:
 2439              		.loc 1 889 16 discriminator 1
 2440 0034 B7270240 		li	a5,1073881088
 2441 0038 DC47     		lw	a5,12(a5)
 2442              		.loc 1 889 24 discriminator 1
 2443 003a 858B     		andi	a5,a5,1
 2444              		.loc 1 889 11 discriminator 1
 2445 003c E5FF     		bne	a5,zero,.L118
 890:Drivers/src/ch32v20x_flash.c ****     while(FLASH->STATR & SR_WR_BSY);
 2446              		.loc 1 890 10
 2447 003e 0100     		nop
 2448              	.L119:
 2449              		.loc 1 890 16 discriminator 1
 2450 0040 B7270240 		li	a5,1073881088
 2451 0044 DC47     		lw	a5,12(a5)
 2452              		.loc 1 890 24 discriminator 1
 2453 0046 898B     		andi	a5,a5,2
 2454              		.loc 1 890 11 discriminator 1
 2455 0048 E5FF     		bne	a5,zero,.L119
 891:Drivers/src/ch32v20x_flash.c **** 
 892:Drivers/src/ch32v20x_flash.c ****     while(size)
 2456              		.loc 1 892 10
 2457 004a 25A8     		j	.L120
 2458              	.L122:
 893:Drivers/src/ch32v20x_flash.c ****     {
 894:Drivers/src/ch32v20x_flash.c ****         *(uint32_t *)Page_Address = *(uint32_t *)pbuf;
 2459              		.loc 1 894 10
 2460 004c 8327C4FD 		lw	a5,-36(s0)
 2461              		.loc 1 894 37
 2462 0050 032784FD 		lw	a4,-40(s0)
 2463 0054 1843     		lw	a4,0(a4)
 2464              		.loc 1 894 35
 2465 0056 98C3     		sw	a4,0(a5)
 895:Drivers/src/ch32v20x_flash.c ****         Page_Address += 4;
 2466              		.loc 1 895 22
 2467 0058 8327C4FD 		lw	a5,-36(s0)
 2468 005c 9107     		addi	a5,a5,4
 2469 005e 232EF4FC 		sw	a5,-36(s0)
 896:Drivers/src/ch32v20x_flash.c ****         pbuf += 1;
 2470              		.loc 1 896 14
 2471 0062 832784FD 		lw	a5,-40(s0)
 2472 0066 9107     		addi	a5,a5,4
 2473 0068 232CF4FC 		sw	a5,-40(s0)
 897:Drivers/src/ch32v20x_flash.c ****         size -= 1;
 2474              		.loc 1 897 14
 2475 006c 8347F4FE 		lbu	a5,-17(s0)
 2476 0070 FD17     		addi	a5,a5,-1
GAS LISTING C:\Users\SOLDER~1\AppData\Local\Temp\ccKV8tJ7.s 			page 60


 2477 0072 A307F4FE 		sb	a5,-17(s0)
 898:Drivers/src/ch32v20x_flash.c ****         while(FLASH->STATR & SR_WR_BSY);
 2478              		.loc 1 898 14
 2479 0076 0100     		nop
 2480              	.L121:
 2481              		.loc 1 898 20 discriminator 1
 2482 0078 B7270240 		li	a5,1073881088
 2483 007c DC47     		lw	a5,12(a5)
 2484              		.loc 1 898 28 discriminator 1
 2485 007e 898B     		andi	a5,a5,2
 2486              		.loc 1 898 15 discriminator 1
 2487 0080 E5FF     		bne	a5,zero,.L121
 2488              	.L120:
 892:Drivers/src/ch32v20x_flash.c ****     {
 2489              		.loc 1 892 11
 2490 0082 8347F4FE 		lbu	a5,-17(s0)
 2491 0086 F9F3     		bne	a5,zero,.L122
 899:Drivers/src/ch32v20x_flash.c ****     }
 900:Drivers/src/ch32v20x_flash.c **** 
 901:Drivers/src/ch32v20x_flash.c ****     FLASH->CTLR |= CR_PG_STRT;
 2492              		.loc 1 901 10
 2493 0088 B7270240 		li	a5,1073881088
 2494 008c 944B     		lw	a3,16(a5)
 2495 008e B7270240 		li	a5,1073881088
 2496              		.loc 1 901 17
 2497 0092 37072000 		li	a4,2097152
 2498 0096 558F     		or	a4,a3,a4
 2499 0098 98CB     		sw	a4,16(a5)
 902:Drivers/src/ch32v20x_flash.c ****     while(FLASH->STATR & SR_BSY);
 2500              		.loc 1 902 10
 2501 009a 0100     		nop
 2502              	.L123:
 2503              		.loc 1 902 16 discriminator 1
 2504 009c B7270240 		li	a5,1073881088
 2505 00a0 DC47     		lw	a5,12(a5)
 2506              		.loc 1 902 24 discriminator 1
 2507 00a2 858B     		andi	a5,a5,1
 2508              		.loc 1 902 11 discriminator 1
 2509 00a4 E5FF     		bne	a5,zero,.L123
 903:Drivers/src/ch32v20x_flash.c ****     FLASH->CTLR &= ~CR_PAGE_PG;
 2510              		.loc 1 903 10
 2511 00a6 B7270240 		li	a5,1073881088
 2512 00aa 944B     		lw	a3,16(a5)
 2513 00ac B7270240 		li	a5,1073881088
 2514              		.loc 1 903 17
 2515 00b0 4177     		li	a4,-65536
 2516 00b2 7D17     		addi	a4,a4,-1
 2517 00b4 758F     		and	a4,a3,a4
 2518 00b6 98CB     		sw	a4,16(a5)
 904:Drivers/src/ch32v20x_flash.c **** }
 2519              		.loc 1 904 1
 2520 00b8 0100     		nop
 2521 00ba 3254     		lw	s0,44(sp)
 2522              		.cfi_restore 8
 2523              		.cfi_def_cfa 2, 48
 2524 00bc 4561     		addi	sp,sp,48
 2525              		.cfi_def_cfa_offset 0
GAS LISTING C:\Users\SOLDER~1\AppData\Local\Temp\ccKV8tJ7.s 			page 61


 2526 00be 8280     		jr	ra
 2527              		.cfi_endproc
 2528              	.LFE45:
 2530              		.section	.text.FLASH_Access_Clock_Cfg,"ax",@progbits
 2531              		.align	1
 2532              		.globl	FLASH_Access_Clock_Cfg
 2534              	FLASH_Access_Clock_Cfg:
 2535              	.LFB46:
 905:Drivers/src/ch32v20x_flash.c **** 
 906:Drivers/src/ch32v20x_flash.c **** /*********************************************************************
 907:Drivers/src/ch32v20x_flash.c ****  * @fn      FLASH_Access_Clock_Cfg
 908:Drivers/src/ch32v20x_flash.c ****  *
 909:Drivers/src/ch32v20x_flash.c ****  * @brief   Config FLASH Access Clock(Need to unlock )
 910:Drivers/src/ch32v20x_flash.c ****  *
 911:Drivers/src/ch32v20x_flash.c ****  * @param   FLASH_Access_CLK -
 912:Drivers/src/ch32v20x_flash.c ****  *            FLASH_Access_SYSTEM_HALF - System clock/2
 913:Drivers/src/ch32v20x_flash.c ****  *            FLASH_Access_SYSTEM - System clock
 914:Drivers/src/ch32v20x_flash.c ****  *
 915:Drivers/src/ch32v20x_flash.c ****  * @return  none
 916:Drivers/src/ch32v20x_flash.c ****  */
 917:Drivers/src/ch32v20x_flash.c **** void FLASH_Access_Clock_Cfg(uint32_t FLASH_Access_CLK)
 918:Drivers/src/ch32v20x_flash.c **** {
 2536              		.loc 1 918 1
 2537              		.cfi_startproc
 2538 0000 0111     		addi	sp,sp,-32
 2539              		.cfi_def_cfa_offset 32
 2540 0002 22CE     		sw	s0,28(sp)
 2541              		.cfi_offset 8, -4
 2542 0004 0010     		addi	s0,sp,32
 2543              		.cfi_def_cfa 8, 0
 2544 0006 2326A4FE 		sw	a0,-20(s0)
 919:Drivers/src/ch32v20x_flash.c ****     FLASH->CTLR &= ~(1 << 25);
 2545              		.loc 1 919 10
 2546 000a B7270240 		li	a5,1073881088
 2547 000e 944B     		lw	a3,16(a5)
 2548 0010 B7270240 		li	a5,1073881088
 2549              		.loc 1 919 17
 2550 0014 370700FE 		li	a4,-33554432
 2551 0018 7D17     		addi	a4,a4,-1
 2552 001a 758F     		and	a4,a3,a4
 2553 001c 98CB     		sw	a4,16(a5)
 920:Drivers/src/ch32v20x_flash.c ****     FLASH->CTLR |= FLASH_Access_CLK;
 2554              		.loc 1 920 10
 2555 001e B7270240 		li	a5,1073881088
 2556 0022 944B     		lw	a3,16(a5)
 2557 0024 B7270240 		li	a5,1073881088
 2558              		.loc 1 920 17
 2559 0028 0327C4FE 		lw	a4,-20(s0)
 2560 002c 558F     		or	a4,a3,a4
 2561 002e 98CB     		sw	a4,16(a5)
 921:Drivers/src/ch32v20x_flash.c **** }
 2562              		.loc 1 921 1
 2563 0030 0100     		nop
 2564 0032 7244     		lw	s0,28(sp)
 2565              		.cfi_restore 8
 2566              		.cfi_def_cfa 2, 32
 2567 0034 0561     		addi	sp,sp,32
GAS LISTING C:\Users\SOLDER~1\AppData\Local\Temp\ccKV8tJ7.s 			page 62


 2568              		.cfi_def_cfa_offset 0
 2569 0036 8280     		jr	ra
 2570              		.cfi_endproc
 2571              	.LFE46:
 2573              		.section	.text.FLASH_Enhance_Mode,"ax",@progbits
 2574              		.align	1
 2575              		.globl	FLASH_Enhance_Mode
 2577              	FLASH_Enhance_Mode:
 2578              	.LFB47:
 922:Drivers/src/ch32v20x_flash.c **** 
 923:Drivers/src/ch32v20x_flash.c **** /*********************************************************************
 924:Drivers/src/ch32v20x_flash.c ****  * @fn      FLASH_Enhance_Mode
 925:Drivers/src/ch32v20x_flash.c ****  *
 926:Drivers/src/ch32v20x_flash.c ****  * @brief   Read FLASH Enhance Mode
 927:Drivers/src/ch32v20x_flash.c ****  *
 928:Drivers/src/ch32v20x_flash.c ****  * @param
 929:Drivers/src/ch32v20x_flash.c ****  *          Newstate - new state of the ReadOut Protection(ENABLE or DISABLE).
 930:Drivers/src/ch32v20x_flash.c ****  *
 931:Drivers/src/ch32v20x_flash.c ****  * @return  none
 932:Drivers/src/ch32v20x_flash.c ****  */
 933:Drivers/src/ch32v20x_flash.c **** void FLASH_Enhance_Mode(FunctionalState NewState)
 934:Drivers/src/ch32v20x_flash.c **** {
 2579              		.loc 1 934 1
 2580              		.cfi_startproc
 2581 0000 0111     		addi	sp,sp,-32
 2582              		.cfi_def_cfa_offset 32
 2583 0002 22CE     		sw	s0,28(sp)
 2584              		.cfi_offset 8, -4
 2585 0004 0010     		addi	s0,sp,32
 2586              		.cfi_def_cfa 8, 0
 2587 0006 2326A4FE 		sw	a0,-20(s0)
 935:Drivers/src/ch32v20x_flash.c ****     if(NewState)
 2588              		.loc 1 935 7
 2589 000a 8327C4FE 		lw	a5,-20(s0)
 2590 000e 99CB     		beq	a5,zero,.L126
 936:Drivers/src/ch32v20x_flash.c ****     {
 937:Drivers/src/ch32v20x_flash.c ****         FLASH->CTLR |= (1 << 24);
 2591              		.loc 1 937 14
 2592 0010 B7270240 		li	a5,1073881088
 2593 0014 944B     		lw	a3,16(a5)
 2594 0016 B7270240 		li	a5,1073881088
 2595              		.loc 1 937 21
 2596 001a 37070001 		li	a4,16777216
 2597 001e 558F     		or	a4,a3,a4
 2598 0020 98CB     		sw	a4,16(a5)
 938:Drivers/src/ch32v20x_flash.c ****     }
 939:Drivers/src/ch32v20x_flash.c ****     else
 940:Drivers/src/ch32v20x_flash.c ****     {
 941:Drivers/src/ch32v20x_flash.c ****         FLASH->CTLR &= ~(1 << 24);
 942:Drivers/src/ch32v20x_flash.c ****         FLASH->CTLR |= (1 << 22);
 943:Drivers/src/ch32v20x_flash.c ****     }
 944:Drivers/src/ch32v20x_flash.c **** }
 2599              		.loc 1 944 1
 2600 0022 25A0     		j	.L128
 2601              	.L126:
 941:Drivers/src/ch32v20x_flash.c ****         FLASH->CTLR |= (1 << 22);
 2602              		.loc 1 941 14
GAS LISTING C:\Users\SOLDER~1\AppData\Local\Temp\ccKV8tJ7.s 			page 63


 2603 0024 B7270240 		li	a5,1073881088
 2604 0028 944B     		lw	a3,16(a5)
 2605 002a B7270240 		li	a5,1073881088
 941:Drivers/src/ch32v20x_flash.c ****         FLASH->CTLR |= (1 << 22);
 2606              		.loc 1 941 21
 2607 002e 370700FF 		li	a4,-16777216
 2608 0032 7D17     		addi	a4,a4,-1
 2609 0034 758F     		and	a4,a3,a4
 2610 0036 98CB     		sw	a4,16(a5)
 942:Drivers/src/ch32v20x_flash.c ****     }
 2611              		.loc 1 942 14
 2612 0038 B7270240 		li	a5,1073881088
 2613 003c 944B     		lw	a3,16(a5)
 2614 003e B7270240 		li	a5,1073881088
 942:Drivers/src/ch32v20x_flash.c ****     }
 2615              		.loc 1 942 21
 2616 0042 37074000 		li	a4,4194304
 2617 0046 558F     		or	a4,a3,a4
 2618 0048 98CB     		sw	a4,16(a5)
 2619              	.L128:
 2620              		.loc 1 944 1
 2621 004a 0100     		nop
 2622 004c 7244     		lw	s0,28(sp)
 2623              		.cfi_restore 8
 2624              		.cfi_def_cfa 2, 32
 2625 004e 0561     		addi	sp,sp,32
 2626              		.cfi_def_cfa_offset 0
 2627 0050 8280     		jr	ra
 2628              		.cfi_endproc
 2629              	.LFE47:
 2631              		.section	.text.FLASH_GetMACAddress,"ax",@progbits
 2632              		.align	1
 2633              		.globl	FLASH_GetMACAddress
 2635              	FLASH_GetMACAddress:
 2636              	.LFB48:
 945:Drivers/src/ch32v20x_flash.c **** 
 946:Drivers/src/ch32v20x_flash.c **** /********************************************************************************
 947:Drivers/src/ch32v20x_flash.c ****  * @fn        FLASH_GetMACAddress
 948:Drivers/src/ch32v20x_flash.c ****  *
 949:Drivers/src/ch32v20x_flash.c ****  * @brief     Get MAC address
 950:Drivers/src/ch32v20x_flash.c ****  *
 951:Drivers/src/ch32v20x_flash.c ****  * @param     *Buffer: Mac address
 952:Drivers/src/ch32v20x_flash.c ****  *
 953:Drivers/src/ch32v20x_flash.c ****  * @return    None
 954:Drivers/src/ch32v20x_flash.c ****  */
 955:Drivers/src/ch32v20x_flash.c **** void FLASH_GetMACAddress(uint8_t *Buffer)
 956:Drivers/src/ch32v20x_flash.c **** {
 2637              		.loc 1 956 1
 2638              		.cfi_startproc
 2639 0000 7971     		addi	sp,sp,-48
 2640              		.cfi_def_cfa_offset 48
 2641 0002 22D6     		sw	s0,44(sp)
 2642              		.cfi_offset 8, -4
 2643 0004 0018     		addi	s0,sp,48
 2644              		.cfi_def_cfa 8, 0
 2645 0006 232EA4FC 		sw	a0,-36(s0)
 957:Drivers/src/ch32v20x_flash.c ****     uint32_t value;
GAS LISTING C:\Users\SOLDER~1\AppData\Local\Temp\ccKV8tJ7.s 			page 64


 958:Drivers/src/ch32v20x_flash.c **** 
 959:Drivers/src/ch32v20x_flash.c ****     value = *(uint32_t *)(0x1FFFF7E8);
 2646              		.loc 1 959 13
 2647 000a B7F7FF1F 		li	a5,536866816
 2648 000e 9387877E 		addi	a5,a5,2024
 2649              		.loc 1 959 11
 2650 0012 9C43     		lw	a5,0(a5)
 2651 0014 2326F4FE 		sw	a5,-20(s0)
 960:Drivers/src/ch32v20x_flash.c ****     Buffer[0] = value & 0xFF;
 2652              		.loc 1 960 15
 2653 0018 8327C4FE 		lw	a5,-20(s0)
 2654 001c 13F7F70F 		andi	a4,a5,0xff
 2655 0020 8327C4FD 		lw	a5,-36(s0)
 2656 0024 98A3     		sb	a4,0(a5)
 961:Drivers/src/ch32v20x_flash.c ****     Buffer[1] = (value >> 8) & 0xFF;
 2657              		.loc 1 961 24
 2658 0026 8327C4FE 		lw	a5,-20(s0)
 2659 002a 13D78700 		srli	a4,a5,8
 2660              		.loc 1 961 11
 2661 002e 8327C4FD 		lw	a5,-36(s0)
 2662 0032 8507     		addi	a5,a5,1
 2663              		.loc 1 961 15
 2664 0034 1377F70F 		andi	a4,a4,0xff
 2665 0038 98A3     		sb	a4,0(a5)
 962:Drivers/src/ch32v20x_flash.c ****     Buffer[2] = (value >> 16) & 0xFF;
 2666              		.loc 1 962 24
 2667 003a 8327C4FE 		lw	a5,-20(s0)
 2668 003e 13D70701 		srli	a4,a5,16
 2669              		.loc 1 962 11
 2670 0042 8327C4FD 		lw	a5,-36(s0)
 2671 0046 8907     		addi	a5,a5,2
 2672              		.loc 1 962 15
 2673 0048 1377F70F 		andi	a4,a4,0xff
 2674 004c 98A3     		sb	a4,0(a5)
 963:Drivers/src/ch32v20x_flash.c ****     Buffer[3] = (value >> 24) & 0xFF;
 2675              		.loc 1 963 24
 2676 004e 8327C4FE 		lw	a5,-20(s0)
 2677 0052 13D78701 		srli	a4,a5,24
 2678              		.loc 1 963 11
 2679 0056 8327C4FD 		lw	a5,-36(s0)
 2680 005a 8D07     		addi	a5,a5,3
 2681              		.loc 1 963 15
 2682 005c 1377F70F 		andi	a4,a4,0xff
 2683 0060 98A3     		sb	a4,0(a5)
 964:Drivers/src/ch32v20x_flash.c ****     value = *(uint32_t *)(0x1FFFF7EC);
 2684              		.loc 1 964 13
 2685 0062 B7F7FF1F 		li	a5,536866816
 2686 0066 9387C77E 		addi	a5,a5,2028
 2687              		.loc 1 964 11
 2688 006a 9C43     		lw	a5,0(a5)
 2689 006c 2326F4FE 		sw	a5,-20(s0)
 965:Drivers/src/ch32v20x_flash.c ****     Buffer[4] = value & 0xFF;
 2690              		.loc 1 965 11
 2691 0070 8327C4FD 		lw	a5,-36(s0)
 2692 0074 9107     		addi	a5,a5,4
 2693              		.loc 1 965 15
 2694 0076 0327C4FE 		lw	a4,-20(s0)
GAS LISTING C:\Users\SOLDER~1\AppData\Local\Temp\ccKV8tJ7.s 			page 65


 2695 007a 1377F70F 		andi	a4,a4,0xff
 2696 007e 98A3     		sb	a4,0(a5)
 966:Drivers/src/ch32v20x_flash.c ****     Buffer[5] = (value >> 8) & 0xFF;
 2697              		.loc 1 966 24
 2698 0080 8327C4FE 		lw	a5,-20(s0)
 2699 0084 13D78700 		srli	a4,a5,8
 2700              		.loc 1 966 11
 2701 0088 8327C4FD 		lw	a5,-36(s0)
 2702 008c 9507     		addi	a5,a5,5
 2703              		.loc 1 966 15
 2704 008e 1377F70F 		andi	a4,a4,0xff
 2705 0092 98A3     		sb	a4,0(a5)
 967:Drivers/src/ch32v20x_flash.c **** }
 2706              		.loc 1 967 1
 2707 0094 0100     		nop
 2708 0096 3254     		lw	s0,44(sp)
 2709              		.cfi_restore 8
 2710              		.cfi_def_cfa 2, 48
 2711 0098 4561     		addi	sp,sp,48
 2712              		.cfi_def_cfa_offset 0
 2713 009a 8280     		jr	ra
 2714              		.cfi_endproc
 2715              	.LFE48:
 2717              		.text
 2718              	.Letext0:
 2719              		.file 2 "c:\\dev_tools\\ch32_tools\\risc-v_embedded_gcc12\\riscv-none-elf\\include\\machine\\_defa
 2720              		.file 3 "c:\\dev_tools\\ch32_tools\\risc-v_embedded_gcc12\\riscv-none-elf\\include\\sys\\_stdint.h
 2721              		.file 4 "Drivers/inc/core_riscv.h"
 2722              		.file 5 "Drivers/inc/ch32v20x.h"
 2723              		.file 6 "Drivers/inc/ch32v20x_flash.h"
GAS LISTING C:\Users\SOLDER~1\AppData\Local\Temp\ccKV8tJ7.s 			page 66


DEFINED SYMBOLS
                            *ABS*:0000000000000000 ch32v20x_flash.c
C:\Users\SOLDER~1\AppData\Local\Temp\ccKV8tJ7.s:14     .text.FLASH_Unlock:0000000000000000 FLASH_Unlock
C:\Users\SOLDER~1\AppData\Local\Temp\ccKV8tJ7.s:18     .text.FLASH_Unlock:0000000000000000 .L0 
C:\Users\SOLDER~1\AppData\Local\Temp\ccKV8tJ7.s:19     .text.FLASH_Unlock:0000000000000000 $x
C:\Users\SOLDER~1\AppData\Local\Temp\ccKV8tJ7.s:19     .text.FLASH_Unlock:0000000000000000 .L0 
C:\Users\SOLDER~1\AppData\Local\Temp\ccKV8tJ7.s:20     .text.FLASH_Unlock:0000000000000002 .L0 
C:\Users\SOLDER~1\AppData\Local\Temp\ccKV8tJ7.s:22     .text.FLASH_Unlock:0000000000000004 .L0 
C:\Users\SOLDER~1\AppData\Local\Temp\ccKV8tJ7.s:24     .text.FLASH_Unlock:0000000000000006 .L0 
C:\Users\SOLDER~1\AppData\Local\Temp\ccKV8tJ7.s:26     .text.FLASH_Unlock:0000000000000006 .L0 
C:\Users\SOLDER~1\AppData\Local\Temp\ccKV8tJ7.s:28     .text.FLASH_Unlock:000000000000000a .L0 
C:\Users\SOLDER~1\AppData\Local\Temp\ccKV8tJ7.s:32     .text.FLASH_Unlock:0000000000000014 .L0 
C:\Users\SOLDER~1\AppData\Local\Temp\ccKV8tJ7.s:34     .text.FLASH_Unlock:0000000000000018 .L0 
C:\Users\SOLDER~1\AppData\Local\Temp\ccKV8tJ7.s:38     .text.FLASH_Unlock:0000000000000022 .L0 
C:\Users\SOLDER~1\AppData\Local\Temp\ccKV8tJ7.s:40     .text.FLASH_Unlock:0000000000000026 .L0 
C:\Users\SOLDER~1\AppData\Local\Temp\ccKV8tJ7.s:41     .text.FLASH_Unlock:0000000000000026 .L0 
C:\Users\SOLDER~1\AppData\Local\Temp\ccKV8tJ7.s:43     .text.FLASH_Unlock:0000000000000028 .L0 
C:\Users\SOLDER~1\AppData\Local\Temp\ccKV8tJ7.s:45     .text.FLASH_Unlock:000000000000002a .L0 
C:\Users\SOLDER~1\AppData\Local\Temp\ccKV8tJ7.s:52     .text.FLASH_UnlockBank1:0000000000000000 FLASH_UnlockBank1
C:\Users\SOLDER~1\AppData\Local\Temp\ccKV8tJ7.s:55     .text.FLASH_UnlockBank1:0000000000000000 .L0 
C:\Users\SOLDER~1\AppData\Local\Temp\ccKV8tJ7.s:56     .text.FLASH_UnlockBank1:0000000000000000 $x
C:\Users\SOLDER~1\AppData\Local\Temp\ccKV8tJ7.s:56     .text.FLASH_UnlockBank1:0000000000000000 .L0 
C:\Users\SOLDER~1\AppData\Local\Temp\ccKV8tJ7.s:57     .text.FLASH_UnlockBank1:0000000000000002 .L0 
C:\Users\SOLDER~1\AppData\Local\Temp\ccKV8tJ7.s:59     .text.FLASH_UnlockBank1:0000000000000004 .L0 
C:\Users\SOLDER~1\AppData\Local\Temp\ccKV8tJ7.s:61     .text.FLASH_UnlockBank1:0000000000000006 .L0 
C:\Users\SOLDER~1\AppData\Local\Temp\ccKV8tJ7.s:63     .text.FLASH_UnlockBank1:0000000000000006 .L0 
C:\Users\SOLDER~1\AppData\Local\Temp\ccKV8tJ7.s:65     .text.FLASH_UnlockBank1:000000000000000a .L0 
C:\Users\SOLDER~1\AppData\Local\Temp\ccKV8tJ7.s:69     .text.FLASH_UnlockBank1:0000000000000014 .L0 
C:\Users\SOLDER~1\AppData\Local\Temp\ccKV8tJ7.s:71     .text.FLASH_UnlockBank1:0000000000000018 .L0 
C:\Users\SOLDER~1\AppData\Local\Temp\ccKV8tJ7.s:75     .text.FLASH_UnlockBank1:0000000000000022 .L0 
C:\Users\SOLDER~1\AppData\Local\Temp\ccKV8tJ7.s:77     .text.FLASH_UnlockBank1:0000000000000026 .L0 
C:\Users\SOLDER~1\AppData\Local\Temp\ccKV8tJ7.s:78     .text.FLASH_UnlockBank1:0000000000000026 .L0 
C:\Users\SOLDER~1\AppData\Local\Temp\ccKV8tJ7.s:80     .text.FLASH_UnlockBank1:0000000000000028 .L0 
C:\Users\SOLDER~1\AppData\Local\Temp\ccKV8tJ7.s:82     .text.FLASH_UnlockBank1:000000000000002a .L0 
C:\Users\SOLDER~1\AppData\Local\Temp\ccKV8tJ7.s:89     .text.FLASH_Lock:0000000000000000 FLASH_Lock
C:\Users\SOLDER~1\AppData\Local\Temp\ccKV8tJ7.s:92     .text.FLASH_Lock:0000000000000000 .L0 
C:\Users\SOLDER~1\AppData\Local\Temp\ccKV8tJ7.s:93     .text.FLASH_Lock:0000000000000000 $x
C:\Users\SOLDER~1\AppData\Local\Temp\ccKV8tJ7.s:93     .text.FLASH_Lock:0000000000000000 .L0 
C:\Users\SOLDER~1\AppData\Local\Temp\ccKV8tJ7.s:94     .text.FLASH_Lock:0000000000000002 .L0 
C:\Users\SOLDER~1\AppData\Local\Temp\ccKV8tJ7.s:96     .text.FLASH_Lock:0000000000000004 .L0 
C:\Users\SOLDER~1\AppData\Local\Temp\ccKV8tJ7.s:98     .text.FLASH_Lock:0000000000000006 .L0 
C:\Users\SOLDER~1\AppData\Local\Temp\ccKV8tJ7.s:100    .text.FLASH_Lock:0000000000000006 .L0 
C:\Users\SOLDER~1\AppData\Local\Temp\ccKV8tJ7.s:104    .text.FLASH_Lock:0000000000000010 .L0 
C:\Users\SOLDER~1\AppData\Local\Temp\ccKV8tJ7.s:107    .text.FLASH_Lock:0000000000000016 .L0 
C:\Users\SOLDER~1\AppData\Local\Temp\ccKV8tJ7.s:109    .text.FLASH_Lock:000000000000001a .L0 
C:\Users\SOLDER~1\AppData\Local\Temp\ccKV8tJ7.s:110    .text.FLASH_Lock:000000000000001a .L0 
C:\Users\SOLDER~1\AppData\Local\Temp\ccKV8tJ7.s:112    .text.FLASH_Lock:000000000000001c .L0 
C:\Users\SOLDER~1\AppData\Local\Temp\ccKV8tJ7.s:114    .text.FLASH_Lock:000000000000001e .L0 
C:\Users\SOLDER~1\AppData\Local\Temp\ccKV8tJ7.s:121    .text.FLASH_LockBank1:0000000000000000 FLASH_LockBank1
C:\Users\SOLDER~1\AppData\Local\Temp\ccKV8tJ7.s:124    .text.FLASH_LockBank1:0000000000000000 .L0 
C:\Users\SOLDER~1\AppData\Local\Temp\ccKV8tJ7.s:125    .text.FLASH_LockBank1:0000000000000000 $x
C:\Users\SOLDER~1\AppData\Local\Temp\ccKV8tJ7.s:125    .text.FLASH_LockBank1:0000000000000000 .L0 
C:\Users\SOLDER~1\AppData\Local\Temp\ccKV8tJ7.s:126    .text.FLASH_LockBank1:0000000000000002 .L0 
C:\Users\SOLDER~1\AppData\Local\Temp\ccKV8tJ7.s:128    .text.FLASH_LockBank1:0000000000000004 .L0 
C:\Users\SOLDER~1\AppData\Local\Temp\ccKV8tJ7.s:130    .text.FLASH_LockBank1:0000000000000006 .L0 
C:\Users\SOLDER~1\AppData\Local\Temp\ccKV8tJ7.s:132    .text.FLASH_LockBank1:0000000000000006 .L0 
C:\Users\SOLDER~1\AppData\Local\Temp\ccKV8tJ7.s:136    .text.FLASH_LockBank1:0000000000000010 .L0 
GAS LISTING C:\Users\SOLDER~1\AppData\Local\Temp\ccKV8tJ7.s 			page 67


C:\Users\SOLDER~1\AppData\Local\Temp\ccKV8tJ7.s:139    .text.FLASH_LockBank1:0000000000000016 .L0 
C:\Users\SOLDER~1\AppData\Local\Temp\ccKV8tJ7.s:141    .text.FLASH_LockBank1:000000000000001a .L0 
C:\Users\SOLDER~1\AppData\Local\Temp\ccKV8tJ7.s:142    .text.FLASH_LockBank1:000000000000001a .L0 
C:\Users\SOLDER~1\AppData\Local\Temp\ccKV8tJ7.s:144    .text.FLASH_LockBank1:000000000000001c .L0 
C:\Users\SOLDER~1\AppData\Local\Temp\ccKV8tJ7.s:146    .text.FLASH_LockBank1:000000000000001e .L0 
C:\Users\SOLDER~1\AppData\Local\Temp\ccKV8tJ7.s:153    .text.FLASH_ErasePage:0000000000000000 FLASH_ErasePage
C:\Users\SOLDER~1\AppData\Local\Temp\ccKV8tJ7.s:156    .text.FLASH_ErasePage:0000000000000000 .L0 
C:\Users\SOLDER~1\AppData\Local\Temp\ccKV8tJ7.s:157    .text.FLASH_ErasePage:0000000000000000 $x
C:\Users\SOLDER~1\AppData\Local\Temp\ccKV8tJ7.s:157    .text.FLASH_ErasePage:0000000000000000 .L0 
C:\Users\SOLDER~1\AppData\Local\Temp\ccKV8tJ7.s:158    .text.FLASH_ErasePage:0000000000000002 .L0 
C:\Users\SOLDER~1\AppData\Local\Temp\ccKV8tJ7.s:161    .text.FLASH_ErasePage:0000000000000006 .L0 
C:\Users\SOLDER~1\AppData\Local\Temp\ccKV8tJ7.s:162    .text.FLASH_ErasePage:0000000000000006 .L0 
C:\Users\SOLDER~1\AppData\Local\Temp\ccKV8tJ7.s:164    .text.FLASH_ErasePage:0000000000000008 .L0 
C:\Users\SOLDER~1\AppData\Local\Temp\ccKV8tJ7.s:167    .text.FLASH_ErasePage:000000000000000c .L0 
C:\Users\SOLDER~1\AppData\Local\Temp\ccKV8tJ7.s:170    .text.FLASH_ErasePage:0000000000000012 .L0 
C:\Users\SOLDER~1\AppData\Local\Temp\ccKV8tJ7.s:1990   .text.FLASH_WaitForLastOperation:0000000000000000 FLASH_WaitForLastOperation
C:\Users\SOLDER~1\AppData\Local\Temp\ccKV8tJ7.s:174    .text.FLASH_ErasePage:0000000000000022 .L0 
C:\Users\SOLDER~1\AppData\Local\Temp\ccKV8tJ7.s:178    .text.FLASH_ErasePage:000000000000002c .L0 
C:\Users\SOLDER~1\AppData\Local\Temp\ccKV8tJ7.s:182    .text.FLASH_ErasePage:0000000000000036 .L0 
C:\Users\SOLDER~1\AppData\Local\Temp\ccKV8tJ7.s:185    .text.FLASH_ErasePage:000000000000003c .L0 
C:\Users\SOLDER~1\AppData\Local\Temp\ccKV8tJ7.s:187    .text.FLASH_ErasePage:0000000000000040 .L0 
C:\Users\SOLDER~1\AppData\Local\Temp\ccKV8tJ7.s:190    .text.FLASH_ErasePage:0000000000000046 .L0 
C:\Users\SOLDER~1\AppData\Local\Temp\ccKV8tJ7.s:194    .text.FLASH_ErasePage:0000000000000050 .L0 
C:\Users\SOLDER~1\AppData\Local\Temp\ccKV8tJ7.s:197    .text.FLASH_ErasePage:0000000000000056 .L0 
C:\Users\SOLDER~1\AppData\Local\Temp\ccKV8tJ7.s:201    .text.FLASH_ErasePage:0000000000000066 .L0 
C:\Users\SOLDER~1\AppData\Local\Temp\ccKV8tJ7.s:205    .text.FLASH_ErasePage:0000000000000070 .L0 
C:\Users\SOLDER~1\AppData\Local\Temp\ccKV8tJ7.s:209    .text.FLASH_ErasePage:0000000000000074 .L0 
C:\Users\SOLDER~1\AppData\Local\Temp\ccKV8tJ7.s:211    .text.FLASH_ErasePage:0000000000000078 .L0 
C:\Users\SOLDER~1\AppData\Local\Temp\ccKV8tJ7.s:213    .text.FLASH_ErasePage:000000000000007c .L0 
C:\Users\SOLDER~1\AppData\Local\Temp\ccKV8tJ7.s:215    .text.FLASH_ErasePage:000000000000007e .L0 
C:\Users\SOLDER~1\AppData\Local\Temp\ccKV8tJ7.s:216    .text.FLASH_ErasePage:000000000000007e .L0 
C:\Users\SOLDER~1\AppData\Local\Temp\ccKV8tJ7.s:218    .text.FLASH_ErasePage:0000000000000080 .L0 
C:\Users\SOLDER~1\AppData\Local\Temp\ccKV8tJ7.s:220    .text.FLASH_ErasePage:0000000000000082 .L0 
C:\Users\SOLDER~1\AppData\Local\Temp\ccKV8tJ7.s:227    .text.FLASH_EraseAllPages:0000000000000000 FLASH_EraseAllPages
C:\Users\SOLDER~1\AppData\Local\Temp\ccKV8tJ7.s:230    .text.FLASH_EraseAllPages:0000000000000000 .L0 
C:\Users\SOLDER~1\AppData\Local\Temp\ccKV8tJ7.s:231    .text.FLASH_EraseAllPages:0000000000000000 $x
C:\Users\SOLDER~1\AppData\Local\Temp\ccKV8tJ7.s:231    .text.FLASH_EraseAllPages:0000000000000000 .L0 
C:\Users\SOLDER~1\AppData\Local\Temp\ccKV8tJ7.s:232    .text.FLASH_EraseAllPages:0000000000000002 .L0 
C:\Users\SOLDER~1\AppData\Local\Temp\ccKV8tJ7.s:235    .text.FLASH_EraseAllPages:0000000000000006 .L0 
C:\Users\SOLDER~1\AppData\Local\Temp\ccKV8tJ7.s:236    .text.FLASH_EraseAllPages:0000000000000006 .L0 
C:\Users\SOLDER~1\AppData\Local\Temp\ccKV8tJ7.s:238    .text.FLASH_EraseAllPages:0000000000000008 .L0 
C:\Users\SOLDER~1\AppData\Local\Temp\ccKV8tJ7.s:240    .text.FLASH_EraseAllPages:0000000000000008 .L0 
C:\Users\SOLDER~1\AppData\Local\Temp\ccKV8tJ7.s:243    .text.FLASH_EraseAllPages:000000000000000e .L0 
C:\Users\SOLDER~1\AppData\Local\Temp\ccKV8tJ7.s:247    .text.FLASH_EraseAllPages:000000000000001e .L0 
C:\Users\SOLDER~1\AppData\Local\Temp\ccKV8tJ7.s:251    .text.FLASH_EraseAllPages:0000000000000028 .L0 
C:\Users\SOLDER~1\AppData\Local\Temp\ccKV8tJ7.s:255    .text.FLASH_EraseAllPages:0000000000000032 .L0 
C:\Users\SOLDER~1\AppData\Local\Temp\ccKV8tJ7.s:258    .text.FLASH_EraseAllPages:0000000000000038 .L0 
C:\Users\SOLDER~1\AppData\Local\Temp\ccKV8tJ7.s:262    .text.FLASH_EraseAllPages:0000000000000042 .L0 
C:\Users\SOLDER~1\AppData\Local\Temp\ccKV8tJ7.s:265    .text.FLASH_EraseAllPages:0000000000000048 .L0 
C:\Users\SOLDER~1\AppData\Local\Temp\ccKV8tJ7.s:269    .text.FLASH_EraseAllPages:0000000000000058 .L0 
C:\Users\SOLDER~1\AppData\Local\Temp\ccKV8tJ7.s:273    .text.FLASH_EraseAllPages:0000000000000062 .L0 
C:\Users\SOLDER~1\AppData\Local\Temp\ccKV8tJ7.s:277    .text.FLASH_EraseAllPages:0000000000000066 .L0 
C:\Users\SOLDER~1\AppData\Local\Temp\ccKV8tJ7.s:279    .text.FLASH_EraseAllPages:000000000000006a .L0 
C:\Users\SOLDER~1\AppData\Local\Temp\ccKV8tJ7.s:281    .text.FLASH_EraseAllPages:000000000000006e .L0 
C:\Users\SOLDER~1\AppData\Local\Temp\ccKV8tJ7.s:283    .text.FLASH_EraseAllPages:0000000000000070 .L0 
C:\Users\SOLDER~1\AppData\Local\Temp\ccKV8tJ7.s:284    .text.FLASH_EraseAllPages:0000000000000070 .L0 
C:\Users\SOLDER~1\AppData\Local\Temp\ccKV8tJ7.s:286    .text.FLASH_EraseAllPages:0000000000000072 .L0 
GAS LISTING C:\Users\SOLDER~1\AppData\Local\Temp\ccKV8tJ7.s 			page 68


C:\Users\SOLDER~1\AppData\Local\Temp\ccKV8tJ7.s:288    .text.FLASH_EraseAllPages:0000000000000074 .L0 
C:\Users\SOLDER~1\AppData\Local\Temp\ccKV8tJ7.s:295    .text.FLASH_EraseAllBank1Pages:0000000000000000 FLASH_EraseAllBank1Pages
C:\Users\SOLDER~1\AppData\Local\Temp\ccKV8tJ7.s:298    .text.FLASH_EraseAllBank1Pages:0000000000000000 .L0 
C:\Users\SOLDER~1\AppData\Local\Temp\ccKV8tJ7.s:299    .text.FLASH_EraseAllBank1Pages:0000000000000000 $x
C:\Users\SOLDER~1\AppData\Local\Temp\ccKV8tJ7.s:299    .text.FLASH_EraseAllBank1Pages:0000000000000000 .L0 
C:\Users\SOLDER~1\AppData\Local\Temp\ccKV8tJ7.s:300    .text.FLASH_EraseAllBank1Pages:0000000000000002 .L0 
C:\Users\SOLDER~1\AppData\Local\Temp\ccKV8tJ7.s:303    .text.FLASH_EraseAllBank1Pages:0000000000000006 .L0 
C:\Users\SOLDER~1\AppData\Local\Temp\ccKV8tJ7.s:304    .text.FLASH_EraseAllBank1Pages:0000000000000006 .L0 
C:\Users\SOLDER~1\AppData\Local\Temp\ccKV8tJ7.s:306    .text.FLASH_EraseAllBank1Pages:0000000000000008 .L0 
C:\Users\SOLDER~1\AppData\Local\Temp\ccKV8tJ7.s:308    .text.FLASH_EraseAllBank1Pages:0000000000000008 .L0 
C:\Users\SOLDER~1\AppData\Local\Temp\ccKV8tJ7.s:311    .text.FLASH_EraseAllBank1Pages:000000000000000e .L0 
C:\Users\SOLDER~1\AppData\Local\Temp\ccKV8tJ7.s:2054   .text.FLASH_WaitForLastBank1Operation:0000000000000000 FLASH_WaitForLastBank1Operation
C:\Users\SOLDER~1\AppData\Local\Temp\ccKV8tJ7.s:315    .text.FLASH_EraseAllBank1Pages:000000000000001e .L0 
C:\Users\SOLDER~1\AppData\Local\Temp\ccKV8tJ7.s:319    .text.FLASH_EraseAllBank1Pages:0000000000000028 .L0 
C:\Users\SOLDER~1\AppData\Local\Temp\ccKV8tJ7.s:323    .text.FLASH_EraseAllBank1Pages:0000000000000032 .L0 
C:\Users\SOLDER~1\AppData\Local\Temp\ccKV8tJ7.s:326    .text.FLASH_EraseAllBank1Pages:0000000000000038 .L0 
C:\Users\SOLDER~1\AppData\Local\Temp\ccKV8tJ7.s:330    .text.FLASH_EraseAllBank1Pages:0000000000000042 .L0 
C:\Users\SOLDER~1\AppData\Local\Temp\ccKV8tJ7.s:333    .text.FLASH_EraseAllBank1Pages:0000000000000048 .L0 
C:\Users\SOLDER~1\AppData\Local\Temp\ccKV8tJ7.s:337    .text.FLASH_EraseAllBank1Pages:0000000000000058 .L0 
C:\Users\SOLDER~1\AppData\Local\Temp\ccKV8tJ7.s:341    .text.FLASH_EraseAllBank1Pages:0000000000000062 .L0 
C:\Users\SOLDER~1\AppData\Local\Temp\ccKV8tJ7.s:345    .text.FLASH_EraseAllBank1Pages:0000000000000066 .L0 
C:\Users\SOLDER~1\AppData\Local\Temp\ccKV8tJ7.s:347    .text.FLASH_EraseAllBank1Pages:000000000000006a .L0 
C:\Users\SOLDER~1\AppData\Local\Temp\ccKV8tJ7.s:349    .text.FLASH_EraseAllBank1Pages:000000000000006e .L0 
C:\Users\SOLDER~1\AppData\Local\Temp\ccKV8tJ7.s:351    .text.FLASH_EraseAllBank1Pages:0000000000000070 .L0 
C:\Users\SOLDER~1\AppData\Local\Temp\ccKV8tJ7.s:352    .text.FLASH_EraseAllBank1Pages:0000000000000070 .L0 
C:\Users\SOLDER~1\AppData\Local\Temp\ccKV8tJ7.s:354    .text.FLASH_EraseAllBank1Pages:0000000000000072 .L0 
C:\Users\SOLDER~1\AppData\Local\Temp\ccKV8tJ7.s:356    .text.FLASH_EraseAllBank1Pages:0000000000000074 .L0 
C:\Users\SOLDER~1\AppData\Local\Temp\ccKV8tJ7.s:363    .text.FLASH_EraseOptionBytes:0000000000000000 FLASH_EraseOptionBytes
C:\Users\SOLDER~1\AppData\Local\Temp\ccKV8tJ7.s:366    .text.FLASH_EraseOptionBytes:0000000000000000 .L0 
C:\Users\SOLDER~1\AppData\Local\Temp\ccKV8tJ7.s:367    .text.FLASH_EraseOptionBytes:0000000000000000 $x
C:\Users\SOLDER~1\AppData\Local\Temp\ccKV8tJ7.s:367    .text.FLASH_EraseOptionBytes:0000000000000000 .L0 
C:\Users\SOLDER~1\AppData\Local\Temp\ccKV8tJ7.s:368    .text.FLASH_EraseOptionBytes:0000000000000002 .L0 
C:\Users\SOLDER~1\AppData\Local\Temp\ccKV8tJ7.s:371    .text.FLASH_EraseOptionBytes:0000000000000006 .L0 
C:\Users\SOLDER~1\AppData\Local\Temp\ccKV8tJ7.s:372    .text.FLASH_EraseOptionBytes:0000000000000006 .L0 
C:\Users\SOLDER~1\AppData\Local\Temp\ccKV8tJ7.s:374    .text.FLASH_EraseOptionBytes:0000000000000008 .L0 
C:\Users\SOLDER~1\AppData\Local\Temp\ccKV8tJ7.s:376    .text.FLASH_EraseOptionBytes:0000000000000008 .L0 
C:\Users\SOLDER~1\AppData\Local\Temp\ccKV8tJ7.s:379    .text.FLASH_EraseOptionBytes:0000000000000010 .L0 
C:\Users\SOLDER~1\AppData\Local\Temp\ccKV8tJ7.s:383    .text.FLASH_EraseOptionBytes:000000000000001c .L0 
C:\Users\SOLDER~1\AppData\Local\Temp\ccKV8tJ7.s:1678   .text.FLASH_GetReadOutProtectionStatus:0000000000000000 FLASH_GetReadOutProtectionStatus
C:\Users\SOLDER~1\AppData\Local\Temp\ccKV8tJ7.s:386    .text.FLASH_EraseOptionBytes:0000000000000022 .L0 
C:\Users\SOLDER~1\AppData\Local\Temp\ccKV8tJ7.s:389    .text.FLASH_EraseOptionBytes:000000000000002c .L0 
C:\Users\SOLDER~1\AppData\Local\Temp\ccKV8tJ7.s:391    .text.FLASH_EraseOptionBytes:000000000000002e .L0 
C:\Users\SOLDER~1\AppData\Local\Temp\ccKV8tJ7.s:394    .text.FLASH_EraseOptionBytes:0000000000000032 .L0 
C:\Users\SOLDER~1\AppData\Local\Temp\ccKV8tJ7.s:398    .text.FLASH_EraseOptionBytes:0000000000000042 .L0 
C:\Users\SOLDER~1\AppData\Local\Temp\ccKV8tJ7.s:402    .text.FLASH_EraseOptionBytes:000000000000004c .L0 
C:\Users\SOLDER~1\AppData\Local\Temp\ccKV8tJ7.s:404    .text.FLASH_EraseOptionBytes:0000000000000050 .L0 
C:\Users\SOLDER~1\AppData\Local\Temp\ccKV8tJ7.s:408    .text.FLASH_EraseOptionBytes:000000000000005a .L0 
C:\Users\SOLDER~1\AppData\Local\Temp\ccKV8tJ7.s:410    .text.FLASH_EraseOptionBytes:000000000000005e .L0 
C:\Users\SOLDER~1\AppData\Local\Temp\ccKV8tJ7.s:414    .text.FLASH_EraseOptionBytes:0000000000000068 .L0 
C:\Users\SOLDER~1\AppData\Local\Temp\ccKV8tJ7.s:418    .text.FLASH_EraseOptionBytes:0000000000000072 .L0 
C:\Users\SOLDER~1\AppData\Local\Temp\ccKV8tJ7.s:421    .text.FLASH_EraseOptionBytes:0000000000000078 .L0 
C:\Users\SOLDER~1\AppData\Local\Temp\ccKV8tJ7.s:425    .text.FLASH_EraseOptionBytes:0000000000000082 .L0 
C:\Users\SOLDER~1\AppData\Local\Temp\ccKV8tJ7.s:428    .text.FLASH_EraseOptionBytes:0000000000000088 .L0 
C:\Users\SOLDER~1\AppData\Local\Temp\ccKV8tJ7.s:432    .text.FLASH_EraseOptionBytes:0000000000000098 .L0 
C:\Users\SOLDER~1\AppData\Local\Temp\ccKV8tJ7.s:436    .text.FLASH_EraseOptionBytes:00000000000000a2 .L0 
C:\Users\SOLDER~1\AppData\Local\Temp\ccKV8tJ7.s:440    .text.FLASH_EraseOptionBytes:00000000000000ac .L0 
C:\Users\SOLDER~1\AppData\Local\Temp\ccKV8tJ7.s:443    .text.FLASH_EraseOptionBytes:00000000000000b2 .L0 
GAS LISTING C:\Users\SOLDER~1\AppData\Local\Temp\ccKV8tJ7.s 			page 69


C:\Users\SOLDER~1\AppData\Local\Temp\ccKV8tJ7.s:447    .text.FLASH_EraseOptionBytes:00000000000000bc .L0 
C:\Users\SOLDER~1\AppData\Local\Temp\ccKV8tJ7.s:450    .text.FLASH_EraseOptionBytes:00000000000000c2 .L0 
C:\Users\SOLDER~1\AppData\Local\Temp\ccKV8tJ7.s:453    .text.FLASH_EraseOptionBytes:00000000000000ca .L0 
C:\Users\SOLDER~1\AppData\Local\Temp\ccKV8tJ7.s:456    .text.FLASH_EraseOptionBytes:00000000000000d0 .L0 
C:\Users\SOLDER~1\AppData\Local\Temp\ccKV8tJ7.s:460    .text.FLASH_EraseOptionBytes:00000000000000de .L0 
C:\Users\SOLDER~1\AppData\Local\Temp\ccKV8tJ7.s:464    .text.FLASH_EraseOptionBytes:00000000000000e8 .L0 
C:\Users\SOLDER~1\AppData\Local\Temp\ccKV8tJ7.s:468    .text.FLASH_EraseOptionBytes:00000000000000f2 .L0 
C:\Users\SOLDER~1\AppData\Local\Temp\ccKV8tJ7.s:473    .text.FLASH_EraseOptionBytes:00000000000000f8 .L0 
C:\Users\SOLDER~1\AppData\Local\Temp\ccKV8tJ7.s:477    .text.FLASH_EraseOptionBytes:0000000000000102 .L0 
C:\Users\SOLDER~1\AppData\Local\Temp\ccKV8tJ7.s:481    .text.FLASH_EraseOptionBytes:000000000000010c .L0 
C:\Users\SOLDER~1\AppData\Local\Temp\ccKV8tJ7.s:485    .text.FLASH_EraseOptionBytes:0000000000000110 .L0 
C:\Users\SOLDER~1\AppData\Local\Temp\ccKV8tJ7.s:489    .text.FLASH_EraseOptionBytes:000000000000011a .L0 
C:\Users\SOLDER~1\AppData\Local\Temp\ccKV8tJ7.s:492    .text.FLASH_EraseOptionBytes:0000000000000120 .L0 
C:\Users\SOLDER~1\AppData\Local\Temp\ccKV8tJ7.s:494    .text.FLASH_EraseOptionBytes:0000000000000124 .L0 
C:\Users\SOLDER~1\AppData\Local\Temp\ccKV8tJ7.s:497    .text.FLASH_EraseOptionBytes:0000000000000126 .L0 
C:\Users\SOLDER~1\AppData\Local\Temp\ccKV8tJ7.s:502    .text.FLASH_EraseOptionBytes:0000000000000132 .L0 
C:\Users\SOLDER~1\AppData\Local\Temp\ccKV8tJ7.s:505    .text.FLASH_EraseOptionBytes:0000000000000138 .L0 
C:\Users\SOLDER~1\AppData\Local\Temp\ccKV8tJ7.s:507    .text.FLASH_EraseOptionBytes:000000000000013a .L0 
C:\Users\SOLDER~1\AppData\Local\Temp\ccKV8tJ7.s:510    .text.FLASH_EraseOptionBytes:0000000000000140 .L0 
C:\Users\SOLDER~1\AppData\Local\Temp\ccKV8tJ7.s:513    .text.FLASH_EraseOptionBytes:0000000000000142 .L0 
C:\Users\SOLDER~1\AppData\Local\Temp\ccKV8tJ7.s:516    .text.FLASH_EraseOptionBytes:0000000000000148 .L0 
C:\Users\SOLDER~1\AppData\Local\Temp\ccKV8tJ7.s:518    .text.FLASH_EraseOptionBytes:000000000000014a .L0 
C:\Users\SOLDER~1\AppData\Local\Temp\ccKV8tJ7.s:520    .text.FLASH_EraseOptionBytes:000000000000014c .L0 
C:\Users\SOLDER~1\AppData\Local\Temp\ccKV8tJ7.s:527    .text.FLASH_EraseOptionBytes:000000000000015e .L0 
C:\Users\SOLDER~1\AppData\Local\Temp\ccKV8tJ7.s:532    .text.FLASH_EraseOptionBytes:000000000000016c .L0 
C:\Users\SOLDER~1\AppData\Local\Temp\ccKV8tJ7.s:536    .text.FLASH_EraseOptionBytes:0000000000000176 .L0 
C:\Users\SOLDER~1\AppData\Local\Temp\ccKV8tJ7.s:540    .text.FLASH_EraseOptionBytes:000000000000017a .L0 
C:\Users\SOLDER~1\AppData\Local\Temp\ccKV8tJ7.s:542    .text.FLASH_EraseOptionBytes:000000000000017e .L0 
C:\Users\SOLDER~1\AppData\Local\Temp\ccKV8tJ7.s:544    .text.FLASH_EraseOptionBytes:0000000000000182 .L0 
C:\Users\SOLDER~1\AppData\Local\Temp\ccKV8tJ7.s:546    .text.FLASH_EraseOptionBytes:0000000000000184 .L0 
C:\Users\SOLDER~1\AppData\Local\Temp\ccKV8tJ7.s:547    .text.FLASH_EraseOptionBytes:0000000000000184 .L0 
C:\Users\SOLDER~1\AppData\Local\Temp\ccKV8tJ7.s:549    .text.FLASH_EraseOptionBytes:0000000000000186 .L0 
C:\Users\SOLDER~1\AppData\Local\Temp\ccKV8tJ7.s:551    .text.FLASH_EraseOptionBytes:0000000000000188 .L0 
C:\Users\SOLDER~1\AppData\Local\Temp\ccKV8tJ7.s:558    .text.FLASH_ProgramWord:0000000000000000 FLASH_ProgramWord
C:\Users\SOLDER~1\AppData\Local\Temp\ccKV8tJ7.s:561    .text.FLASH_ProgramWord:0000000000000000 .L0 
C:\Users\SOLDER~1\AppData\Local\Temp\ccKV8tJ7.s:562    .text.FLASH_ProgramWord:0000000000000000 $x
C:\Users\SOLDER~1\AppData\Local\Temp\ccKV8tJ7.s:562    .text.FLASH_ProgramWord:0000000000000000 .L0 
C:\Users\SOLDER~1\AppData\Local\Temp\ccKV8tJ7.s:563    .text.FLASH_ProgramWord:0000000000000002 .L0 
C:\Users\SOLDER~1\AppData\Local\Temp\ccKV8tJ7.s:566    .text.FLASH_ProgramWord:0000000000000006 .L0 
C:\Users\SOLDER~1\AppData\Local\Temp\ccKV8tJ7.s:567    .text.FLASH_ProgramWord:0000000000000006 .L0 
C:\Users\SOLDER~1\AppData\Local\Temp\ccKV8tJ7.s:569    .text.FLASH_ProgramWord:0000000000000008 .L0 
C:\Users\SOLDER~1\AppData\Local\Temp\ccKV8tJ7.s:573    .text.FLASH_ProgramWord:0000000000000010 .L0 
C:\Users\SOLDER~1\AppData\Local\Temp\ccKV8tJ7.s:576    .text.FLASH_ProgramWord:0000000000000016 .L0 
C:\Users\SOLDER~1\AppData\Local\Temp\ccKV8tJ7.s:578    .text.FLASH_ProgramWord:000000000000001a .L0 
C:\Users\SOLDER~1\AppData\Local\Temp\ccKV8tJ7.s:582    .text.FLASH_ProgramWord:0000000000000028 .L0 
C:\Users\SOLDER~1\AppData\Local\Temp\ccKV8tJ7.s:586    .text.FLASH_ProgramWord:0000000000000032 .L0 
C:\Users\SOLDER~1\AppData\Local\Temp\ccKV8tJ7.s:590    .text.FLASH_ProgramWord:000000000000003c .L0 
C:\Users\SOLDER~1\AppData\Local\Temp\ccKV8tJ7.s:593    .text.FLASH_ProgramWord:0000000000000042 .L0 
C:\Users\SOLDER~1\AppData\Local\Temp\ccKV8tJ7.s:595    .text.FLASH_ProgramWord:0000000000000046 .L0 
C:\Users\SOLDER~1\AppData\Local\Temp\ccKV8tJ7.s:599    .text.FLASH_ProgramWord:000000000000004e .L0 
C:\Users\SOLDER~1\AppData\Local\Temp\ccKV8tJ7.s:601    .text.FLASH_ProgramWord:0000000000000050 .L0 
C:\Users\SOLDER~1\AppData\Local\Temp\ccKV8tJ7.s:605    .text.FLASH_ProgramWord:000000000000005e .L0 
C:\Users\SOLDER~1\AppData\Local\Temp\ccKV8tJ7.s:609    .text.FLASH_ProgramWord:0000000000000068 .L0 
C:\Users\SOLDER~1\AppData\Local\Temp\ccKV8tJ7.s:612    .text.FLASH_ProgramWord:000000000000006e .L0 
C:\Users\SOLDER~1\AppData\Local\Temp\ccKV8tJ7.s:614    .text.FLASH_ProgramWord:0000000000000072 .L0 
C:\Users\SOLDER~1\AppData\Local\Temp\ccKV8tJ7.s:617    .text.FLASH_ProgramWord:0000000000000078 .L0 
C:\Users\SOLDER~1\AppData\Local\Temp\ccKV8tJ7.s:619    .text.FLASH_ProgramWord:000000000000007c .L0 
GAS LISTING C:\Users\SOLDER~1\AppData\Local\Temp\ccKV8tJ7.s 			page 70


C:\Users\SOLDER~1\AppData\Local\Temp\ccKV8tJ7.s:623    .text.FLASH_ProgramWord:0000000000000082 .L0 
C:\Users\SOLDER~1\AppData\Local\Temp\ccKV8tJ7.s:627    .text.FLASH_ProgramWord:0000000000000090 .L0 
C:\Users\SOLDER~1\AppData\Local\Temp\ccKV8tJ7.s:631    .text.FLASH_ProgramWord:000000000000009a .L0 
C:\Users\SOLDER~1\AppData\Local\Temp\ccKV8tJ7.s:636    .text.FLASH_ProgramWord:00000000000000a0 .L0 
C:\Users\SOLDER~1\AppData\Local\Temp\ccKV8tJ7.s:640    .text.FLASH_ProgramWord:00000000000000aa .L0 
C:\Users\SOLDER~1\AppData\Local\Temp\ccKV8tJ7.s:644    .text.FLASH_ProgramWord:00000000000000ae .L0 
C:\Users\SOLDER~1\AppData\Local\Temp\ccKV8tJ7.s:646    .text.FLASH_ProgramWord:00000000000000b2 .L0 
C:\Users\SOLDER~1\AppData\Local\Temp\ccKV8tJ7.s:648    .text.FLASH_ProgramWord:00000000000000b6 .L0 
C:\Users\SOLDER~1\AppData\Local\Temp\ccKV8tJ7.s:650    .text.FLASH_ProgramWord:00000000000000b8 .L0 
C:\Users\SOLDER~1\AppData\Local\Temp\ccKV8tJ7.s:651    .text.FLASH_ProgramWord:00000000000000b8 .L0 
C:\Users\SOLDER~1\AppData\Local\Temp\ccKV8tJ7.s:653    .text.FLASH_ProgramWord:00000000000000ba .L0 
C:\Users\SOLDER~1\AppData\Local\Temp\ccKV8tJ7.s:655    .text.FLASH_ProgramWord:00000000000000bc .L0 
C:\Users\SOLDER~1\AppData\Local\Temp\ccKV8tJ7.s:662    .text.FLASH_ProgramHalfWord:0000000000000000 FLASH_ProgramHalfWord
C:\Users\SOLDER~1\AppData\Local\Temp\ccKV8tJ7.s:665    .text.FLASH_ProgramHalfWord:0000000000000000 .L0 
C:\Users\SOLDER~1\AppData\Local\Temp\ccKV8tJ7.s:666    .text.FLASH_ProgramHalfWord:0000000000000000 $x
C:\Users\SOLDER~1\AppData\Local\Temp\ccKV8tJ7.s:666    .text.FLASH_ProgramHalfWord:0000000000000000 .L0 
C:\Users\SOLDER~1\AppData\Local\Temp\ccKV8tJ7.s:667    .text.FLASH_ProgramHalfWord:0000000000000002 .L0 
C:\Users\SOLDER~1\AppData\Local\Temp\ccKV8tJ7.s:670    .text.FLASH_ProgramHalfWord:0000000000000006 .L0 
C:\Users\SOLDER~1\AppData\Local\Temp\ccKV8tJ7.s:671    .text.FLASH_ProgramHalfWord:0000000000000006 .L0 
C:\Users\SOLDER~1\AppData\Local\Temp\ccKV8tJ7.s:673    .text.FLASH_ProgramHalfWord:0000000000000008 .L0 
C:\Users\SOLDER~1\AppData\Local\Temp\ccKV8tJ7.s:678    .text.FLASH_ProgramHalfWord:0000000000000012 .L0 
C:\Users\SOLDER~1\AppData\Local\Temp\ccKV8tJ7.s:681    .text.FLASH_ProgramHalfWord:0000000000000018 .L0 
C:\Users\SOLDER~1\AppData\Local\Temp\ccKV8tJ7.s:685    .text.FLASH_ProgramHalfWord:0000000000000026 .L0 
C:\Users\SOLDER~1\AppData\Local\Temp\ccKV8tJ7.s:689    .text.FLASH_ProgramHalfWord:0000000000000030 .L0 
C:\Users\SOLDER~1\AppData\Local\Temp\ccKV8tJ7.s:693    .text.FLASH_ProgramHalfWord:000000000000003a .L0 
C:\Users\SOLDER~1\AppData\Local\Temp\ccKV8tJ7.s:696    .text.FLASH_ProgramHalfWord:0000000000000040 .L0 
C:\Users\SOLDER~1\AppData\Local\Temp\ccKV8tJ7.s:698    .text.FLASH_ProgramHalfWord:0000000000000044 .L0 
C:\Users\SOLDER~1\AppData\Local\Temp\ccKV8tJ7.s:701    .text.FLASH_ProgramHalfWord:000000000000004a .L0 
C:\Users\SOLDER~1\AppData\Local\Temp\ccKV8tJ7.s:705    .text.FLASH_ProgramHalfWord:0000000000000058 .L0 
C:\Users\SOLDER~1\AppData\Local\Temp\ccKV8tJ7.s:709    .text.FLASH_ProgramHalfWord:0000000000000062 .L0 
C:\Users\SOLDER~1\AppData\Local\Temp\ccKV8tJ7.s:713    .text.FLASH_ProgramHalfWord:0000000000000066 .L0 
C:\Users\SOLDER~1\AppData\Local\Temp\ccKV8tJ7.s:715    .text.FLASH_ProgramHalfWord:000000000000006a .L0 
C:\Users\SOLDER~1\AppData\Local\Temp\ccKV8tJ7.s:717    .text.FLASH_ProgramHalfWord:000000000000006e .L0 
C:\Users\SOLDER~1\AppData\Local\Temp\ccKV8tJ7.s:719    .text.FLASH_ProgramHalfWord:0000000000000070 .L0 
C:\Users\SOLDER~1\AppData\Local\Temp\ccKV8tJ7.s:720    .text.FLASH_ProgramHalfWord:0000000000000070 .L0 
C:\Users\SOLDER~1\AppData\Local\Temp\ccKV8tJ7.s:722    .text.FLASH_ProgramHalfWord:0000000000000072 .L0 
C:\Users\SOLDER~1\AppData\Local\Temp\ccKV8tJ7.s:724    .text.FLASH_ProgramHalfWord:0000000000000074 .L0 
C:\Users\SOLDER~1\AppData\Local\Temp\ccKV8tJ7.s:731    .text.FLASH_ProgramOptionByteData:0000000000000000 FLASH_ProgramOptionByteData
C:\Users\SOLDER~1\AppData\Local\Temp\ccKV8tJ7.s:734    .text.FLASH_ProgramOptionByteData:0000000000000000 .L0 
C:\Users\SOLDER~1\AppData\Local\Temp\ccKV8tJ7.s:735    .text.FLASH_ProgramOptionByteData:0000000000000000 $x
C:\Users\SOLDER~1\AppData\Local\Temp\ccKV8tJ7.s:735    .text.FLASH_ProgramOptionByteData:0000000000000000 .L0 
C:\Users\SOLDER~1\AppData\Local\Temp\ccKV8tJ7.s:736    .text.FLASH_ProgramOptionByteData:0000000000000002 .L0 
C:\Users\SOLDER~1\AppData\Local\Temp\ccKV8tJ7.s:739    .text.FLASH_ProgramOptionByteData:0000000000000006 .L0 
C:\Users\SOLDER~1\AppData\Local\Temp\ccKV8tJ7.s:740    .text.FLASH_ProgramOptionByteData:0000000000000006 .L0 
C:\Users\SOLDER~1\AppData\Local\Temp\ccKV8tJ7.s:742    .text.FLASH_ProgramOptionByteData:0000000000000008 .L0 
C:\Users\SOLDER~1\AppData\Local\Temp\ccKV8tJ7.s:747    .text.FLASH_ProgramOptionByteData:0000000000000012 .L0 
C:\Users\SOLDER~1\AppData\Local\Temp\ccKV8tJ7.s:750    .text.FLASH_ProgramOptionByteData:0000000000000018 .L0 
C:\Users\SOLDER~1\AppData\Local\Temp\ccKV8tJ7.s:754    .text.FLASH_ProgramOptionByteData:0000000000000024 .L0 
C:\Users\SOLDER~1\AppData\Local\Temp\ccKV8tJ7.s:758    .text.FLASH_ProgramOptionByteData:0000000000000032 .L0 
C:\Users\SOLDER~1\AppData\Local\Temp\ccKV8tJ7.s:762    .text.FLASH_ProgramOptionByteData:000000000000003c .L0 
C:\Users\SOLDER~1\AppData\Local\Temp\ccKV8tJ7.s:764    .text.FLASH_ProgramOptionByteData:0000000000000040 .L0 
C:\Users\SOLDER~1\AppData\Local\Temp\ccKV8tJ7.s:768    .text.FLASH_ProgramOptionByteData:000000000000004a .L0 
C:\Users\SOLDER~1\AppData\Local\Temp\ccKV8tJ7.s:770    .text.FLASH_ProgramOptionByteData:000000000000004e .L0 
C:\Users\SOLDER~1\AppData\Local\Temp\ccKV8tJ7.s:774    .text.FLASH_ProgramOptionByteData:0000000000000058 .L0 
C:\Users\SOLDER~1\AppData\Local\Temp\ccKV8tJ7.s:776    .text.FLASH_ProgramOptionByteData:000000000000005c .L0 
C:\Users\SOLDER~1\AppData\Local\Temp\ccKV8tJ7.s:779    .text.FLASH_ProgramOptionByteData:000000000000005e .L0 
C:\Users\SOLDER~1\AppData\Local\Temp\ccKV8tJ7.s:784    .text.FLASH_ProgramOptionByteData:000000000000006a .L0 
GAS LISTING C:\Users\SOLDER~1\AppData\Local\Temp\ccKV8tJ7.s 			page 71


C:\Users\SOLDER~1\AppData\Local\Temp\ccKV8tJ7.s:787    .text.FLASH_ProgramOptionByteData:0000000000000070 .L0 
C:\Users\SOLDER~1\AppData\Local\Temp\ccKV8tJ7.s:789    .text.FLASH_ProgramOptionByteData:0000000000000072 .L0 
C:\Users\SOLDER~1\AppData\Local\Temp\ccKV8tJ7.s:792    .text.FLASH_ProgramOptionByteData:000000000000007a .L0 
C:\Users\SOLDER~1\AppData\Local\Temp\ccKV8tJ7.s:794    .text.FLASH_ProgramOptionByteData:000000000000007c .L0 
C:\Users\SOLDER~1\AppData\Local\Temp\ccKV8tJ7.s:799    .text.FLASH_ProgramOptionByteData:0000000000000086 .L0 
C:\Users\SOLDER~1\AppData\Local\Temp\ccKV8tJ7.s:806    .text.FLASH_ProgramOptionByteData:0000000000000098 .L0 
C:\Users\SOLDER~1\AppData\Local\Temp\ccKV8tJ7.s:811    .text.FLASH_ProgramOptionByteData:00000000000000a6 .L0 
C:\Users\SOLDER~1\AppData\Local\Temp\ccKV8tJ7.s:815    .text.FLASH_ProgramOptionByteData:00000000000000b0 .L0 
C:\Users\SOLDER~1\AppData\Local\Temp\ccKV8tJ7.s:818    .text.FLASH_ProgramOptionByteData:00000000000000b6 .L0 
C:\Users\SOLDER~1\AppData\Local\Temp\ccKV8tJ7.s:822    .text.FLASH_ProgramOptionByteData:00000000000000c0 .L0 
C:\Users\SOLDER~1\AppData\Local\Temp\ccKV8tJ7.s:825    .text.FLASH_ProgramOptionByteData:00000000000000c6 .L0 
C:\Users\SOLDER~1\AppData\Local\Temp\ccKV8tJ7.s:828    .text.FLASH_ProgramOptionByteData:00000000000000c8 .L0 
C:\Users\SOLDER~1\AppData\Local\Temp\ccKV8tJ7.s:831    .text.FLASH_ProgramOptionByteData:00000000000000ce .L0 
C:\Users\SOLDER~1\AppData\Local\Temp\ccKV8tJ7.s:833    .text.FLASH_ProgramOptionByteData:00000000000000d0 .L0 
C:\Users\SOLDER~1\AppData\Local\Temp\ccKV8tJ7.s:835    .text.FLASH_ProgramOptionByteData:00000000000000d2 .L0 
C:\Users\SOLDER~1\AppData\Local\Temp\ccKV8tJ7.s:839    .text.FLASH_ProgramOptionByteData:00000000000000dc .L0 
C:\Users\SOLDER~1\AppData\Local\Temp\ccKV8tJ7.s:842    .text.FLASH_ProgramOptionByteData:00000000000000e2 .L0 
C:\Users\SOLDER~1\AppData\Local\Temp\ccKV8tJ7.s:849    .text.FLASH_ProgramOptionByteData:00000000000000f2 .L0 
C:\Users\SOLDER~1\AppData\Local\Temp\ccKV8tJ7.s:851    .text.FLASH_ProgramOptionByteData:00000000000000f4 .L0 
C:\Users\SOLDER~1\AppData\Local\Temp\ccKV8tJ7.s:860    .text.FLASH_ProgramOptionByteData:000000000000010a .L0 
C:\Users\SOLDER~1\AppData\Local\Temp\ccKV8tJ7.s:865    .text.FLASH_ProgramOptionByteData:0000000000000118 .L0 
C:\Users\SOLDER~1\AppData\Local\Temp\ccKV8tJ7.s:867    .text.FLASH_ProgramOptionByteData:000000000000011a .L0 
C:\Users\SOLDER~1\AppData\Local\Temp\ccKV8tJ7.s:870    .text.FLASH_ProgramOptionByteData:0000000000000120 .L0 
C:\Users\SOLDER~1\AppData\Local\Temp\ccKV8tJ7.s:875    .text.FLASH_ProgramOptionByteData:000000000000012a .L0 
C:\Users\SOLDER~1\AppData\Local\Temp\ccKV8tJ7.s:879    .text.FLASH_ProgramOptionByteData:0000000000000134 .L0 
C:\Users\SOLDER~1\AppData\Local\Temp\ccKV8tJ7.s:882    .text.FLASH_ProgramOptionByteData:000000000000013a .L0 
C:\Users\SOLDER~1\AppData\Local\Temp\ccKV8tJ7.s:884    .text.FLASH_ProgramOptionByteData:000000000000013e .L0 
C:\Users\SOLDER~1\AppData\Local\Temp\ccKV8tJ7.s:887    .text.FLASH_ProgramOptionByteData:0000000000000140 .L0 
C:\Users\SOLDER~1\AppData\Local\Temp\ccKV8tJ7.s:891    .text.FLASH_ProgramOptionByteData:000000000000014a .L0 
C:\Users\SOLDER~1\AppData\Local\Temp\ccKV8tJ7.s:896    .text.FLASH_ProgramOptionByteData:0000000000000156 .L0 
C:\Users\SOLDER~1\AppData\Local\Temp\ccKV8tJ7.s:899    .text.FLASH_ProgramOptionByteData:000000000000015c .L0 
C:\Users\SOLDER~1\AppData\Local\Temp\ccKV8tJ7.s:901    .text.FLASH_ProgramOptionByteData:000000000000015e .L0 
C:\Users\SOLDER~1\AppData\Local\Temp\ccKV8tJ7.s:906    .text.FLASH_ProgramOptionByteData:000000000000016a .L0 
C:\Users\SOLDER~1\AppData\Local\Temp\ccKV8tJ7.s:908    .text.FLASH_ProgramOptionByteData:000000000000016c .L0 
C:\Users\SOLDER~1\AppData\Local\Temp\ccKV8tJ7.s:911    .text.FLASH_ProgramOptionByteData:000000000000016e .L0 
C:\Users\SOLDER~1\AppData\Local\Temp\ccKV8tJ7.s:914    .text.FLASH_ProgramOptionByteData:0000000000000174 .L0 
C:\Users\SOLDER~1\AppData\Local\Temp\ccKV8tJ7.s:916    .text.FLASH_ProgramOptionByteData:0000000000000176 .L0 
C:\Users\SOLDER~1\AppData\Local\Temp\ccKV8tJ7.s:918    .text.FLASH_ProgramOptionByteData:0000000000000178 .L0 
C:\Users\SOLDER~1\AppData\Local\Temp\ccKV8tJ7.s:925    .text.FLASH_ProgramOptionByteData:000000000000018a .L0 
C:\Users\SOLDER~1\AppData\Local\Temp\ccKV8tJ7.s:930    .text.FLASH_ProgramOptionByteData:0000000000000198 .L0 
C:\Users\SOLDER~1\AppData\Local\Temp\ccKV8tJ7.s:934    .text.FLASH_ProgramOptionByteData:00000000000001a2 .L0 
C:\Users\SOLDER~1\AppData\Local\Temp\ccKV8tJ7.s:938    .text.FLASH_ProgramOptionByteData:00000000000001a6 .L0 
C:\Users\SOLDER~1\AppData\Local\Temp\ccKV8tJ7.s:940    .text.FLASH_ProgramOptionByteData:00000000000001aa .L0 
C:\Users\SOLDER~1\AppData\Local\Temp\ccKV8tJ7.s:942    .text.FLASH_ProgramOptionByteData:00000000000001ae .L0 
C:\Users\SOLDER~1\AppData\Local\Temp\ccKV8tJ7.s:944    .text.FLASH_ProgramOptionByteData:00000000000001b0 .L0 
C:\Users\SOLDER~1\AppData\Local\Temp\ccKV8tJ7.s:945    .text.FLASH_ProgramOptionByteData:00000000000001b0 .L0 
C:\Users\SOLDER~1\AppData\Local\Temp\ccKV8tJ7.s:947    .text.FLASH_ProgramOptionByteData:00000000000001b2 .L0 
C:\Users\SOLDER~1\AppData\Local\Temp\ccKV8tJ7.s:949    .text.FLASH_ProgramOptionByteData:00000000000001b4 .L0 
C:\Users\SOLDER~1\AppData\Local\Temp\ccKV8tJ7.s:956    .text.FLASH_EnableWriteProtection:0000000000000000 FLASH_EnableWriteProtection
C:\Users\SOLDER~1\AppData\Local\Temp\ccKV8tJ7.s:959    .text.FLASH_EnableWriteProtection:0000000000000000 .L0 
C:\Users\SOLDER~1\AppData\Local\Temp\ccKV8tJ7.s:960    .text.FLASH_EnableWriteProtection:0000000000000000 $x
C:\Users\SOLDER~1\AppData\Local\Temp\ccKV8tJ7.s:960    .text.FLASH_EnableWriteProtection:0000000000000000 .L0 
C:\Users\SOLDER~1\AppData\Local\Temp\ccKV8tJ7.s:961    .text.FLASH_EnableWriteProtection:0000000000000002 .L0 
C:\Users\SOLDER~1\AppData\Local\Temp\ccKV8tJ7.s:964    .text.FLASH_EnableWriteProtection:0000000000000006 .L0 
C:\Users\SOLDER~1\AppData\Local\Temp\ccKV8tJ7.s:965    .text.FLASH_EnableWriteProtection:0000000000000006 .L0 
C:\Users\SOLDER~1\AppData\Local\Temp\ccKV8tJ7.s:967    .text.FLASH_EnableWriteProtection:0000000000000008 .L0 
C:\Users\SOLDER~1\AppData\Local\Temp\ccKV8tJ7.s:970    .text.FLASH_EnableWriteProtection:000000000000000c .L0 
GAS LISTING C:\Users\SOLDER~1\AppData\Local\Temp\ccKV8tJ7.s 			page 72


C:\Users\SOLDER~1\AppData\Local\Temp\ccKV8tJ7.s:973    .text.FLASH_EnableWriteProtection:0000000000000012 .L0 
C:\Users\SOLDER~1\AppData\Local\Temp\ccKV8tJ7.s:976    .text.FLASH_EnableWriteProtection:0000000000000018 .L0 
C:\Users\SOLDER~1\AppData\Local\Temp\ccKV8tJ7.s:979    .text.FLASH_EnableWriteProtection:000000000000001e .L0 
C:\Users\SOLDER~1\AppData\Local\Temp\ccKV8tJ7.s:982    .text.FLASH_EnableWriteProtection:0000000000000024 .L0 
C:\Users\SOLDER~1\AppData\Local\Temp\ccKV8tJ7.s:985    .text.FLASH_EnableWriteProtection:000000000000002a .L0 
C:\Users\SOLDER~1\AppData\Local\Temp\ccKV8tJ7.s:989    .text.FLASH_EnableWriteProtection:0000000000000036 .L0 
C:\Users\SOLDER~1\AppData\Local\Temp\ccKV8tJ7.s:993    .text.FLASH_EnableWriteProtection:0000000000000042 .L0 
C:\Users\SOLDER~1\AppData\Local\Temp\ccKV8tJ7.s:997    .text.FLASH_EnableWriteProtection:000000000000004a .L0 
C:\Users\SOLDER~1\AppData\Local\Temp\ccKV8tJ7.s:1000   .text.FLASH_EnableWriteProtection:0000000000000052 .L0 
C:\Users\SOLDER~1\AppData\Local\Temp\ccKV8tJ7.s:1003   .text.FLASH_EnableWriteProtection:0000000000000058 .L0 
C:\Users\SOLDER~1\AppData\Local\Temp\ccKV8tJ7.s:1006   .text.FLASH_EnableWriteProtection:000000000000005c .L0 
C:\Users\SOLDER~1\AppData\Local\Temp\ccKV8tJ7.s:1009   .text.FLASH_EnableWriteProtection:0000000000000064 .L0 
C:\Users\SOLDER~1\AppData\Local\Temp\ccKV8tJ7.s:1012   .text.FLASH_EnableWriteProtection:000000000000006a .L0 
C:\Users\SOLDER~1\AppData\Local\Temp\ccKV8tJ7.s:1015   .text.FLASH_EnableWriteProtection:000000000000006e .L0 
C:\Users\SOLDER~1\AppData\Local\Temp\ccKV8tJ7.s:1018   .text.FLASH_EnableWriteProtection:0000000000000076 .L0 
C:\Users\SOLDER~1\AppData\Local\Temp\ccKV8tJ7.s:1021   .text.FLASH_EnableWriteProtection:000000000000007c .L0 
C:\Users\SOLDER~1\AppData\Local\Temp\ccKV8tJ7.s:1023   .text.FLASH_EnableWriteProtection:0000000000000080 .L0 
C:\Users\SOLDER~1\AppData\Local\Temp\ccKV8tJ7.s:1027   .text.FLASH_EnableWriteProtection:000000000000008e .L0 
C:\Users\SOLDER~1\AppData\Local\Temp\ccKV8tJ7.s:1031   .text.FLASH_EnableWriteProtection:0000000000000098 .L0 
C:\Users\SOLDER~1\AppData\Local\Temp\ccKV8tJ7.s:1033   .text.FLASH_EnableWriteProtection:000000000000009c .L0 
C:\Users\SOLDER~1\AppData\Local\Temp\ccKV8tJ7.s:1037   .text.FLASH_EnableWriteProtection:00000000000000a6 .L0 
C:\Users\SOLDER~1\AppData\Local\Temp\ccKV8tJ7.s:1039   .text.FLASH_EnableWriteProtection:00000000000000aa .L0 
C:\Users\SOLDER~1\AppData\Local\Temp\ccKV8tJ7.s:1043   .text.FLASH_EnableWriteProtection:00000000000000b4 .L0 
C:\Users\SOLDER~1\AppData\Local\Temp\ccKV8tJ7.s:1045   .text.FLASH_EnableWriteProtection:00000000000000b8 .L0 
C:\Users\SOLDER~1\AppData\Local\Temp\ccKV8tJ7.s:1048   .text.FLASH_EnableWriteProtection:00000000000000ba .L0 
C:\Users\SOLDER~1\AppData\Local\Temp\ccKV8tJ7.s:1053   .text.FLASH_EnableWriteProtection:00000000000000c6 .L0 
C:\Users\SOLDER~1\AppData\Local\Temp\ccKV8tJ7.s:1056   .text.FLASH_EnableWriteProtection:00000000000000cc .L0 
C:\Users\SOLDER~1\AppData\Local\Temp\ccKV8tJ7.s:1058   .text.FLASH_EnableWriteProtection:00000000000000ce .L0 
C:\Users\SOLDER~1\AppData\Local\Temp\ccKV8tJ7.s:1061   .text.FLASH_EnableWriteProtection:00000000000000d6 .L0 
C:\Users\SOLDER~1\AppData\Local\Temp\ccKV8tJ7.s:1063   .text.FLASH_EnableWriteProtection:00000000000000d8 .L0 
C:\Users\SOLDER~1\AppData\Local\Temp\ccKV8tJ7.s:1068   .text.FLASH_EnableWriteProtection:00000000000000e2 .L0 
C:\Users\SOLDER~1\AppData\Local\Temp\ccKV8tJ7.s:1075   .text.FLASH_EnableWriteProtection:00000000000000f4 .L0 
C:\Users\SOLDER~1\AppData\Local\Temp\ccKV8tJ7.s:1080   .text.FLASH_EnableWriteProtection:0000000000000102 .L0 
C:\Users\SOLDER~1\AppData\Local\Temp\ccKV8tJ7.s:1084   .text.FLASH_EnableWriteProtection:000000000000010c .L0 
C:\Users\SOLDER~1\AppData\Local\Temp\ccKV8tJ7.s:1087   .text.FLASH_EnableWriteProtection:0000000000000112 .L0 
C:\Users\SOLDER~1\AppData\Local\Temp\ccKV8tJ7.s:1091   .text.FLASH_EnableWriteProtection:000000000000011c .L0 
C:\Users\SOLDER~1\AppData\Local\Temp\ccKV8tJ7.s:1094   .text.FLASH_EnableWriteProtection:0000000000000122 .L0 
C:\Users\SOLDER~1\AppData\Local\Temp\ccKV8tJ7.s:1097   .text.FLASH_EnableWriteProtection:0000000000000124 .L0 
C:\Users\SOLDER~1\AppData\Local\Temp\ccKV8tJ7.s:1100   .text.FLASH_EnableWriteProtection:000000000000012a .L0 
C:\Users\SOLDER~1\AppData\Local\Temp\ccKV8tJ7.s:1102   .text.FLASH_EnableWriteProtection:000000000000012c .L0 
C:\Users\SOLDER~1\AppData\Local\Temp\ccKV8tJ7.s:1104   .text.FLASH_EnableWriteProtection:000000000000012e .L0 
C:\Users\SOLDER~1\AppData\Local\Temp\ccKV8tJ7.s:1108   .text.FLASH_EnableWriteProtection:0000000000000138 .L0 
C:\Users\SOLDER~1\AppData\Local\Temp\ccKV8tJ7.s:1111   .text.FLASH_EnableWriteProtection:000000000000013e .L0 
C:\Users\SOLDER~1\AppData\Local\Temp\ccKV8tJ7.s:1114   .text.FLASH_EnableWriteProtection:0000000000000146 .L0 
C:\Users\SOLDER~1\AppData\Local\Temp\ccKV8tJ7.s:1117   .text.FLASH_EnableWriteProtection:000000000000014e .L0 
C:\Users\SOLDER~1\AppData\Local\Temp\ccKV8tJ7.s:1120   .text.FLASH_EnableWriteProtection:0000000000000156 .L0 
C:\Users\SOLDER~1\AppData\Local\Temp\ccKV8tJ7.s:1123   .text.FLASH_EnableWriteProtection:000000000000015e .L0 
C:\Users\SOLDER~1\AppData\Local\Temp\ccKV8tJ7.s:1127   .text.FLASH_EnableWriteProtection:0000000000000168 .L0 
C:\Users\SOLDER~1\AppData\Local\Temp\ccKV8tJ7.s:1130   .text.FLASH_EnableWriteProtection:000000000000016e .L0 
C:\Users\SOLDER~1\AppData\Local\Temp\ccKV8tJ7.s:1132   .text.FLASH_EnableWriteProtection:0000000000000172 .L0 
C:\Users\SOLDER~1\AppData\Local\Temp\ccKV8tJ7.s:1135   .text.FLASH_EnableWriteProtection:0000000000000174 .L0 
C:\Users\SOLDER~1\AppData\Local\Temp\ccKV8tJ7.s:1139   .text.FLASH_EnableWriteProtection:000000000000017e .L0 
C:\Users\SOLDER~1\AppData\Local\Temp\ccKV8tJ7.s:1144   .text.FLASH_EnableWriteProtection:000000000000018a .L0 
C:\Users\SOLDER~1\AppData\Local\Temp\ccKV8tJ7.s:1147   .text.FLASH_EnableWriteProtection:0000000000000190 .L0 
C:\Users\SOLDER~1\AppData\Local\Temp\ccKV8tJ7.s:1149   .text.FLASH_EnableWriteProtection:0000000000000192 .L0 
C:\Users\SOLDER~1\AppData\Local\Temp\ccKV8tJ7.s:1154   .text.FLASH_EnableWriteProtection:000000000000019e .L0 
C:\Users\SOLDER~1\AppData\Local\Temp\ccKV8tJ7.s:1156   .text.FLASH_EnableWriteProtection:00000000000001a0 .L0 
GAS LISTING C:\Users\SOLDER~1\AppData\Local\Temp\ccKV8tJ7.s 			page 73


C:\Users\SOLDER~1\AppData\Local\Temp\ccKV8tJ7.s:1159   .text.FLASH_EnableWriteProtection:00000000000001a2 .L0 
C:\Users\SOLDER~1\AppData\Local\Temp\ccKV8tJ7.s:1162   .text.FLASH_EnableWriteProtection:00000000000001a8 .L0 
C:\Users\SOLDER~1\AppData\Local\Temp\ccKV8tJ7.s:1164   .text.FLASH_EnableWriteProtection:00000000000001aa .L0 
C:\Users\SOLDER~1\AppData\Local\Temp\ccKV8tJ7.s:1166   .text.FLASH_EnableWriteProtection:00000000000001ac .L0 
C:\Users\SOLDER~1\AppData\Local\Temp\ccKV8tJ7.s:1173   .text.FLASH_EnableWriteProtection:00000000000001be .L0 
C:\Users\SOLDER~1\AppData\Local\Temp\ccKV8tJ7.s:1178   .text.FLASH_EnableWriteProtection:00000000000001cc .L0 
C:\Users\SOLDER~1\AppData\Local\Temp\ccKV8tJ7.s:1182   .text.FLASH_EnableWriteProtection:00000000000001d6 .L0 
C:\Users\SOLDER~1\AppData\Local\Temp\ccKV8tJ7.s:1186   .text.FLASH_EnableWriteProtection:00000000000001da .L0 
C:\Users\SOLDER~1\AppData\Local\Temp\ccKV8tJ7.s:1188   .text.FLASH_EnableWriteProtection:00000000000001de .L0 
C:\Users\SOLDER~1\AppData\Local\Temp\ccKV8tJ7.s:1190   .text.FLASH_EnableWriteProtection:00000000000001e2 .L0 
C:\Users\SOLDER~1\AppData\Local\Temp\ccKV8tJ7.s:1192   .text.FLASH_EnableWriteProtection:00000000000001e4 .L0 
C:\Users\SOLDER~1\AppData\Local\Temp\ccKV8tJ7.s:1193   .text.FLASH_EnableWriteProtection:00000000000001e4 .L0 
C:\Users\SOLDER~1\AppData\Local\Temp\ccKV8tJ7.s:1195   .text.FLASH_EnableWriteProtection:00000000000001e6 .L0 
C:\Users\SOLDER~1\AppData\Local\Temp\ccKV8tJ7.s:1197   .text.FLASH_EnableWriteProtection:00000000000001e8 .L0 
C:\Users\SOLDER~1\AppData\Local\Temp\ccKV8tJ7.s:1204   .text.FLASH_ReadOutProtection:0000000000000000 FLASH_ReadOutProtection
C:\Users\SOLDER~1\AppData\Local\Temp\ccKV8tJ7.s:1207   .text.FLASH_ReadOutProtection:0000000000000000 .L0 
C:\Users\SOLDER~1\AppData\Local\Temp\ccKV8tJ7.s:1208   .text.FLASH_ReadOutProtection:0000000000000000 $x
C:\Users\SOLDER~1\AppData\Local\Temp\ccKV8tJ7.s:1208   .text.FLASH_ReadOutProtection:0000000000000000 .L0 
C:\Users\SOLDER~1\AppData\Local\Temp\ccKV8tJ7.s:1209   .text.FLASH_ReadOutProtection:0000000000000002 .L0 
C:\Users\SOLDER~1\AppData\Local\Temp\ccKV8tJ7.s:1212   .text.FLASH_ReadOutProtection:0000000000000006 .L0 
C:\Users\SOLDER~1\AppData\Local\Temp\ccKV8tJ7.s:1213   .text.FLASH_ReadOutProtection:0000000000000006 .L0 
C:\Users\SOLDER~1\AppData\Local\Temp\ccKV8tJ7.s:1215   .text.FLASH_ReadOutProtection:0000000000000008 .L0 
C:\Users\SOLDER~1\AppData\Local\Temp\ccKV8tJ7.s:1218   .text.FLASH_ReadOutProtection:000000000000000c .L0 
C:\Users\SOLDER~1\AppData\Local\Temp\ccKV8tJ7.s:1221   .text.FLASH_ReadOutProtection:0000000000000012 .L0 
C:\Users\SOLDER~1\AppData\Local\Temp\ccKV8tJ7.s:1225   .text.FLASH_ReadOutProtection:000000000000001e .L0 
C:\Users\SOLDER~1\AppData\Local\Temp\ccKV8tJ7.s:1229   .text.FLASH_ReadOutProtection:000000000000002e .L0 
C:\Users\SOLDER~1\AppData\Local\Temp\ccKV8tJ7.s:1233   .text.FLASH_ReadOutProtection:0000000000000038 .L0 
C:\Users\SOLDER~1\AppData\Local\Temp\ccKV8tJ7.s:1235   .text.FLASH_ReadOutProtection:000000000000003c .L0 
C:\Users\SOLDER~1\AppData\Local\Temp\ccKV8tJ7.s:1239   .text.FLASH_ReadOutProtection:0000000000000046 .L0 
C:\Users\SOLDER~1\AppData\Local\Temp\ccKV8tJ7.s:1241   .text.FLASH_ReadOutProtection:000000000000004a .L0 
C:\Users\SOLDER~1\AppData\Local\Temp\ccKV8tJ7.s:1245   .text.FLASH_ReadOutProtection:0000000000000054 .L0 
C:\Users\SOLDER~1\AppData\Local\Temp\ccKV8tJ7.s:1247   .text.FLASH_ReadOutProtection:0000000000000058 .L0 
C:\Users\SOLDER~1\AppData\Local\Temp\ccKV8tJ7.s:1250   .text.FLASH_ReadOutProtection:000000000000005a .L0 
C:\Users\SOLDER~1\AppData\Local\Temp\ccKV8tJ7.s:1255   .text.FLASH_ReadOutProtection:0000000000000066 .L0 
C:\Users\SOLDER~1\AppData\Local\Temp\ccKV8tJ7.s:1258   .text.FLASH_ReadOutProtection:000000000000006c .L0 
C:\Users\SOLDER~1\AppData\Local\Temp\ccKV8tJ7.s:1260   .text.FLASH_ReadOutProtection:000000000000006e .L0 
C:\Users\SOLDER~1\AppData\Local\Temp\ccKV8tJ7.s:1263   .text.FLASH_ReadOutProtection:0000000000000076 .L0 
C:\Users\SOLDER~1\AppData\Local\Temp\ccKV8tJ7.s:1265   .text.FLASH_ReadOutProtection:0000000000000078 .L0 
C:\Users\SOLDER~1\AppData\Local\Temp\ccKV8tJ7.s:1270   .text.FLASH_ReadOutProtection:0000000000000082 .L0 
C:\Users\SOLDER~1\AppData\Local\Temp\ccKV8tJ7.s:1277   .text.FLASH_ReadOutProtection:0000000000000094 .L0 
C:\Users\SOLDER~1\AppData\Local\Temp\ccKV8tJ7.s:1282   .text.FLASH_ReadOutProtection:00000000000000a2 .L0 
C:\Users\SOLDER~1\AppData\Local\Temp\ccKV8tJ7.s:1286   .text.FLASH_ReadOutProtection:00000000000000ac .L0 
C:\Users\SOLDER~1\AppData\Local\Temp\ccKV8tJ7.s:1289   .text.FLASH_ReadOutProtection:00000000000000b2 .L0 
C:\Users\SOLDER~1\AppData\Local\Temp\ccKV8tJ7.s:1293   .text.FLASH_ReadOutProtection:00000000000000bc .L0 
C:\Users\SOLDER~1\AppData\Local\Temp\ccKV8tJ7.s:1296   .text.FLASH_ReadOutProtection:00000000000000c2 .L0 
C:\Users\SOLDER~1\AppData\Local\Temp\ccKV8tJ7.s:1299   .text.FLASH_ReadOutProtection:00000000000000c4 .L0 
C:\Users\SOLDER~1\AppData\Local\Temp\ccKV8tJ7.s:1302   .text.FLASH_ReadOutProtection:00000000000000ca .L0 
C:\Users\SOLDER~1\AppData\Local\Temp\ccKV8tJ7.s:1304   .text.FLASH_ReadOutProtection:00000000000000cc .L0 
C:\Users\SOLDER~1\AppData\Local\Temp\ccKV8tJ7.s:1306   .text.FLASH_ReadOutProtection:00000000000000ce .L0 
C:\Users\SOLDER~1\AppData\Local\Temp\ccKV8tJ7.s:1310   .text.FLASH_ReadOutProtection:00000000000000d8 .L0 
C:\Users\SOLDER~1\AppData\Local\Temp\ccKV8tJ7.s:1313   .text.FLASH_ReadOutProtection:00000000000000de .L0 
C:\Users\SOLDER~1\AppData\Local\Temp\ccKV8tJ7.s:1316   .text.FLASH_ReadOutProtection:00000000000000e4 .L0 
C:\Users\SOLDER~1\AppData\Local\Temp\ccKV8tJ7.s:1322   .text.FLASH_ReadOutProtection:00000000000000f0 .L0 
C:\Users\SOLDER~1\AppData\Local\Temp\ccKV8tJ7.s:1326   .text.FLASH_ReadOutProtection:00000000000000f8 .L0 
C:\Users\SOLDER~1\AppData\Local\Temp\ccKV8tJ7.s:1330   .text.FLASH_ReadOutProtection:0000000000000102 .L0 
C:\Users\SOLDER~1\AppData\Local\Temp\ccKV8tJ7.s:1333   .text.FLASH_ReadOutProtection:0000000000000108 .L0 
C:\Users\SOLDER~1\AppData\Local\Temp\ccKV8tJ7.s:1335   .text.FLASH_ReadOutProtection:000000000000010c .L0 
GAS LISTING C:\Users\SOLDER~1\AppData\Local\Temp\ccKV8tJ7.s 			page 74


C:\Users\SOLDER~1\AppData\Local\Temp\ccKV8tJ7.s:1338   .text.FLASH_ReadOutProtection:000000000000010e .L0 
C:\Users\SOLDER~1\AppData\Local\Temp\ccKV8tJ7.s:1342   .text.FLASH_ReadOutProtection:0000000000000118 .L0 
C:\Users\SOLDER~1\AppData\Local\Temp\ccKV8tJ7.s:1347   .text.FLASH_ReadOutProtection:0000000000000124 .L0 
C:\Users\SOLDER~1\AppData\Local\Temp\ccKV8tJ7.s:1350   .text.FLASH_ReadOutProtection:000000000000012a .L0 
C:\Users\SOLDER~1\AppData\Local\Temp\ccKV8tJ7.s:1352   .text.FLASH_ReadOutProtection:000000000000012c .L0 
C:\Users\SOLDER~1\AppData\Local\Temp\ccKV8tJ7.s:1357   .text.FLASH_ReadOutProtection:0000000000000138 .L0 
C:\Users\SOLDER~1\AppData\Local\Temp\ccKV8tJ7.s:1359   .text.FLASH_ReadOutProtection:000000000000013a .L0 
C:\Users\SOLDER~1\AppData\Local\Temp\ccKV8tJ7.s:1362   .text.FLASH_ReadOutProtection:000000000000013c .L0 
C:\Users\SOLDER~1\AppData\Local\Temp\ccKV8tJ7.s:1365   .text.FLASH_ReadOutProtection:0000000000000142 .L0 
C:\Users\SOLDER~1\AppData\Local\Temp\ccKV8tJ7.s:1367   .text.FLASH_ReadOutProtection:0000000000000144 .L0 
C:\Users\SOLDER~1\AppData\Local\Temp\ccKV8tJ7.s:1369   .text.FLASH_ReadOutProtection:0000000000000146 .L0 
C:\Users\SOLDER~1\AppData\Local\Temp\ccKV8tJ7.s:1376   .text.FLASH_ReadOutProtection:0000000000000158 .L0 
C:\Users\SOLDER~1\AppData\Local\Temp\ccKV8tJ7.s:1381   .text.FLASH_ReadOutProtection:0000000000000166 .L0 
C:\Users\SOLDER~1\AppData\Local\Temp\ccKV8tJ7.s:1385   .text.FLASH_ReadOutProtection:0000000000000170 .L0 
C:\Users\SOLDER~1\AppData\Local\Temp\ccKV8tJ7.s:1389   .text.FLASH_ReadOutProtection:0000000000000174 .L0 
C:\Users\SOLDER~1\AppData\Local\Temp\ccKV8tJ7.s:1391   .text.FLASH_ReadOutProtection:0000000000000178 .L0 
C:\Users\SOLDER~1\AppData\Local\Temp\ccKV8tJ7.s:1393   .text.FLASH_ReadOutProtection:000000000000017c .L0 
C:\Users\SOLDER~1\AppData\Local\Temp\ccKV8tJ7.s:1395   .text.FLASH_ReadOutProtection:000000000000017e .L0 
C:\Users\SOLDER~1\AppData\Local\Temp\ccKV8tJ7.s:1396   .text.FLASH_ReadOutProtection:000000000000017e .L0 
C:\Users\SOLDER~1\AppData\Local\Temp\ccKV8tJ7.s:1398   .text.FLASH_ReadOutProtection:0000000000000180 .L0 
C:\Users\SOLDER~1\AppData\Local\Temp\ccKV8tJ7.s:1400   .text.FLASH_ReadOutProtection:0000000000000182 .L0 
C:\Users\SOLDER~1\AppData\Local\Temp\ccKV8tJ7.s:1407   .text.FLASH_UserOptionByteConfig:0000000000000000 FLASH_UserOptionByteConfig
C:\Users\SOLDER~1\AppData\Local\Temp\ccKV8tJ7.s:1410   .text.FLASH_UserOptionByteConfig:0000000000000000 .L0 
C:\Users\SOLDER~1\AppData\Local\Temp\ccKV8tJ7.s:1411   .text.FLASH_UserOptionByteConfig:0000000000000000 $x
C:\Users\SOLDER~1\AppData\Local\Temp\ccKV8tJ7.s:1411   .text.FLASH_UserOptionByteConfig:0000000000000000 .L0 
C:\Users\SOLDER~1\AppData\Local\Temp\ccKV8tJ7.s:1412   .text.FLASH_UserOptionByteConfig:0000000000000002 .L0 
C:\Users\SOLDER~1\AppData\Local\Temp\ccKV8tJ7.s:1415   .text.FLASH_UserOptionByteConfig:0000000000000006 .L0 
C:\Users\SOLDER~1\AppData\Local\Temp\ccKV8tJ7.s:1416   .text.FLASH_UserOptionByteConfig:0000000000000006 .L0 
C:\Users\SOLDER~1\AppData\Local\Temp\ccKV8tJ7.s:1418   .text.FLASH_UserOptionByteConfig:0000000000000008 .L0 
C:\Users\SOLDER~1\AppData\Local\Temp\ccKV8tJ7.s:1428   .text.FLASH_UserOptionByteConfig:000000000000001e .L0 
C:\Users\SOLDER~1\AppData\Local\Temp\ccKV8tJ7.s:1431   .text.FLASH_UserOptionByteConfig:0000000000000024 .L0 
C:\Users\SOLDER~1\AppData\Local\Temp\ccKV8tJ7.s:1435   .text.FLASH_UserOptionByteConfig:0000000000000030 .L0 
C:\Users\SOLDER~1\AppData\Local\Temp\ccKV8tJ7.s:1437   .text.FLASH_UserOptionByteConfig:0000000000000034 .L0 
C:\Users\SOLDER~1\AppData\Local\Temp\ccKV8tJ7.s:1441   .text.FLASH_UserOptionByteConfig:000000000000003e .L0 
C:\Users\SOLDER~1\AppData\Local\Temp\ccKV8tJ7.s:1443   .text.FLASH_UserOptionByteConfig:0000000000000042 .L0 
C:\Users\SOLDER~1\AppData\Local\Temp\ccKV8tJ7.s:1447   .text.FLASH_UserOptionByteConfig:000000000000004c .L0 
C:\Users\SOLDER~1\AppData\Local\Temp\ccKV8tJ7.s:1451   .text.FLASH_UserOptionByteConfig:000000000000005a .L0 
C:\Users\SOLDER~1\AppData\Local\Temp\ccKV8tJ7.s:1455   .text.FLASH_UserOptionByteConfig:0000000000000064 .L0 
C:\Users\SOLDER~1\AppData\Local\Temp\ccKV8tJ7.s:1457   .text.FLASH_UserOptionByteConfig:0000000000000068 .L0 
C:\Users\SOLDER~1\AppData\Local\Temp\ccKV8tJ7.s:1460   .text.FLASH_UserOptionByteConfig:000000000000006a .L0 
C:\Users\SOLDER~1\AppData\Local\Temp\ccKV8tJ7.s:1465   .text.FLASH_UserOptionByteConfig:0000000000000076 .L0 
C:\Users\SOLDER~1\AppData\Local\Temp\ccKV8tJ7.s:1468   .text.FLASH_UserOptionByteConfig:000000000000007c .L0 
C:\Users\SOLDER~1\AppData\Local\Temp\ccKV8tJ7.s:1470   .text.FLASH_UserOptionByteConfig:000000000000007e .L0 
C:\Users\SOLDER~1\AppData\Local\Temp\ccKV8tJ7.s:1473   .text.FLASH_UserOptionByteConfig:0000000000000086 .L0 
C:\Users\SOLDER~1\AppData\Local\Temp\ccKV8tJ7.s:1475   .text.FLASH_UserOptionByteConfig:0000000000000088 .L0 
C:\Users\SOLDER~1\AppData\Local\Temp\ccKV8tJ7.s:1480   .text.FLASH_UserOptionByteConfig:0000000000000092 .L0 
C:\Users\SOLDER~1\AppData\Local\Temp\ccKV8tJ7.s:1487   .text.FLASH_UserOptionByteConfig:00000000000000a4 .L0 
C:\Users\SOLDER~1\AppData\Local\Temp\ccKV8tJ7.s:1492   .text.FLASH_UserOptionByteConfig:00000000000000b2 .L0 
C:\Users\SOLDER~1\AppData\Local\Temp\ccKV8tJ7.s:1496   .text.FLASH_UserOptionByteConfig:00000000000000bc .L0 
C:\Users\SOLDER~1\AppData\Local\Temp\ccKV8tJ7.s:1499   .text.FLASH_UserOptionByteConfig:00000000000000c2 .L0 
C:\Users\SOLDER~1\AppData\Local\Temp\ccKV8tJ7.s:1503   .text.FLASH_UserOptionByteConfig:00000000000000cc .L0 
C:\Users\SOLDER~1\AppData\Local\Temp\ccKV8tJ7.s:1506   .text.FLASH_UserOptionByteConfig:00000000000000d2 .L0 
C:\Users\SOLDER~1\AppData\Local\Temp\ccKV8tJ7.s:1509   .text.FLASH_UserOptionByteConfig:00000000000000d4 .L0 
C:\Users\SOLDER~1\AppData\Local\Temp\ccKV8tJ7.s:1512   .text.FLASH_UserOptionByteConfig:00000000000000da .L0 
C:\Users\SOLDER~1\AppData\Local\Temp\ccKV8tJ7.s:1514   .text.FLASH_UserOptionByteConfig:00000000000000dc .L0 
C:\Users\SOLDER~1\AppData\Local\Temp\ccKV8tJ7.s:1516   .text.FLASH_UserOptionByteConfig:00000000000000de .L0 
C:\Users\SOLDER~1\AppData\Local\Temp\ccKV8tJ7.s:1520   .text.FLASH_UserOptionByteConfig:00000000000000e8 .L0 
GAS LISTING C:\Users\SOLDER~1\AppData\Local\Temp\ccKV8tJ7.s 			page 75


C:\Users\SOLDER~1\AppData\Local\Temp\ccKV8tJ7.s:1523   .text.FLASH_UserOptionByteConfig:00000000000000ee .L0 
C:\Users\SOLDER~1\AppData\Local\Temp\ccKV8tJ7.s:1538   .text.FLASH_UserOptionByteConfig:0000000000000114 .L0 
C:\Users\SOLDER~1\AppData\Local\Temp\ccKV8tJ7.s:1542   .text.FLASH_UserOptionByteConfig:000000000000011e .L0 
C:\Users\SOLDER~1\AppData\Local\Temp\ccKV8tJ7.s:1545   .text.FLASH_UserOptionByteConfig:0000000000000124 .L0 
C:\Users\SOLDER~1\AppData\Local\Temp\ccKV8tJ7.s:1547   .text.FLASH_UserOptionByteConfig:0000000000000128 .L0 
C:\Users\SOLDER~1\AppData\Local\Temp\ccKV8tJ7.s:1550   .text.FLASH_UserOptionByteConfig:000000000000012a .L0 
C:\Users\SOLDER~1\AppData\Local\Temp\ccKV8tJ7.s:1554   .text.FLASH_UserOptionByteConfig:0000000000000134 .L0 
C:\Users\SOLDER~1\AppData\Local\Temp\ccKV8tJ7.s:1559   .text.FLASH_UserOptionByteConfig:0000000000000140 .L0 
C:\Users\SOLDER~1\AppData\Local\Temp\ccKV8tJ7.s:1562   .text.FLASH_UserOptionByteConfig:0000000000000146 .L0 
C:\Users\SOLDER~1\AppData\Local\Temp\ccKV8tJ7.s:1564   .text.FLASH_UserOptionByteConfig:0000000000000148 .L0 
C:\Users\SOLDER~1\AppData\Local\Temp\ccKV8tJ7.s:1569   .text.FLASH_UserOptionByteConfig:0000000000000154 .L0 
C:\Users\SOLDER~1\AppData\Local\Temp\ccKV8tJ7.s:1571   .text.FLASH_UserOptionByteConfig:0000000000000156 .L0 
C:\Users\SOLDER~1\AppData\Local\Temp\ccKV8tJ7.s:1574   .text.FLASH_UserOptionByteConfig:0000000000000158 .L0 
C:\Users\SOLDER~1\AppData\Local\Temp\ccKV8tJ7.s:1577   .text.FLASH_UserOptionByteConfig:000000000000015e .L0 
C:\Users\SOLDER~1\AppData\Local\Temp\ccKV8tJ7.s:1579   .text.FLASH_UserOptionByteConfig:0000000000000160 .L0 
C:\Users\SOLDER~1\AppData\Local\Temp\ccKV8tJ7.s:1581   .text.FLASH_UserOptionByteConfig:0000000000000162 .L0 
C:\Users\SOLDER~1\AppData\Local\Temp\ccKV8tJ7.s:1588   .text.FLASH_UserOptionByteConfig:0000000000000174 .L0 
C:\Users\SOLDER~1\AppData\Local\Temp\ccKV8tJ7.s:1593   .text.FLASH_UserOptionByteConfig:0000000000000182 .L0 
C:\Users\SOLDER~1\AppData\Local\Temp\ccKV8tJ7.s:1597   .text.FLASH_UserOptionByteConfig:000000000000018c .L0 
C:\Users\SOLDER~1\AppData\Local\Temp\ccKV8tJ7.s:1601   .text.FLASH_UserOptionByteConfig:0000000000000190 .L0 
C:\Users\SOLDER~1\AppData\Local\Temp\ccKV8tJ7.s:1603   .text.FLASH_UserOptionByteConfig:0000000000000194 .L0 
C:\Users\SOLDER~1\AppData\Local\Temp\ccKV8tJ7.s:1605   .text.FLASH_UserOptionByteConfig:0000000000000198 .L0 
C:\Users\SOLDER~1\AppData\Local\Temp\ccKV8tJ7.s:1607   .text.FLASH_UserOptionByteConfig:000000000000019a .L0 
C:\Users\SOLDER~1\AppData\Local\Temp\ccKV8tJ7.s:1608   .text.FLASH_UserOptionByteConfig:000000000000019a .L0 
C:\Users\SOLDER~1\AppData\Local\Temp\ccKV8tJ7.s:1610   .text.FLASH_UserOptionByteConfig:000000000000019c .L0 
C:\Users\SOLDER~1\AppData\Local\Temp\ccKV8tJ7.s:1612   .text.FLASH_UserOptionByteConfig:000000000000019e .L0 
C:\Users\SOLDER~1\AppData\Local\Temp\ccKV8tJ7.s:1619   .text.FLASH_GetUserOptionByte:0000000000000000 FLASH_GetUserOptionByte
C:\Users\SOLDER~1\AppData\Local\Temp\ccKV8tJ7.s:1622   .text.FLASH_GetUserOptionByte:0000000000000000 .L0 
C:\Users\SOLDER~1\AppData\Local\Temp\ccKV8tJ7.s:1623   .text.FLASH_GetUserOptionByte:0000000000000000 $x
C:\Users\SOLDER~1\AppData\Local\Temp\ccKV8tJ7.s:1623   .text.FLASH_GetUserOptionByte:0000000000000000 .L0 
C:\Users\SOLDER~1\AppData\Local\Temp\ccKV8tJ7.s:1624   .text.FLASH_GetUserOptionByte:0000000000000002 .L0 
C:\Users\SOLDER~1\AppData\Local\Temp\ccKV8tJ7.s:1626   .text.FLASH_GetUserOptionByte:0000000000000004 .L0 
C:\Users\SOLDER~1\AppData\Local\Temp\ccKV8tJ7.s:1628   .text.FLASH_GetUserOptionByte:0000000000000006 .L0 
C:\Users\SOLDER~1\AppData\Local\Temp\ccKV8tJ7.s:1630   .text.FLASH_GetUserOptionByte:0000000000000006 .L0 
C:\Users\SOLDER~1\AppData\Local\Temp\ccKV8tJ7.s:1633   .text.FLASH_GetUserOptionByte:000000000000000c .L0 
C:\Users\SOLDER~1\AppData\Local\Temp\ccKV8tJ7.s:1635   .text.FLASH_GetUserOptionByte:000000000000000e .L0 
C:\Users\SOLDER~1\AppData\Local\Temp\ccKV8tJ7.s:1637   .text.FLASH_GetUserOptionByte:0000000000000012 .L0 
C:\Users\SOLDER~1\AppData\Local\Temp\ccKV8tJ7.s:1638   .text.FLASH_GetUserOptionByte:0000000000000012 .L0 
C:\Users\SOLDER~1\AppData\Local\Temp\ccKV8tJ7.s:1640   .text.FLASH_GetUserOptionByte:0000000000000014 .L0 
C:\Users\SOLDER~1\AppData\Local\Temp\ccKV8tJ7.s:1642   .text.FLASH_GetUserOptionByte:0000000000000016 .L0 
C:\Users\SOLDER~1\AppData\Local\Temp\ccKV8tJ7.s:1649   .text.FLASH_GetWriteProtectionOptionByte:0000000000000000 FLASH_GetWriteProtectionOptionByte
C:\Users\SOLDER~1\AppData\Local\Temp\ccKV8tJ7.s:1652   .text.FLASH_GetWriteProtectionOptionByte:0000000000000000 .L0 
C:\Users\SOLDER~1\AppData\Local\Temp\ccKV8tJ7.s:1653   .text.FLASH_GetWriteProtectionOptionByte:0000000000000000 $x
C:\Users\SOLDER~1\AppData\Local\Temp\ccKV8tJ7.s:1653   .text.FLASH_GetWriteProtectionOptionByte:0000000000000000 .L0 
C:\Users\SOLDER~1\AppData\Local\Temp\ccKV8tJ7.s:1654   .text.FLASH_GetWriteProtectionOptionByte:0000000000000002 .L0 
C:\Users\SOLDER~1\AppData\Local\Temp\ccKV8tJ7.s:1656   .text.FLASH_GetWriteProtectionOptionByte:0000000000000004 .L0 
C:\Users\SOLDER~1\AppData\Local\Temp\ccKV8tJ7.s:1658   .text.FLASH_GetWriteProtectionOptionByte:0000000000000006 .L0 
C:\Users\SOLDER~1\AppData\Local\Temp\ccKV8tJ7.s:1660   .text.FLASH_GetWriteProtectionOptionByte:0000000000000006 .L0 
C:\Users\SOLDER~1\AppData\Local\Temp\ccKV8tJ7.s:1662   .text.FLASH_GetWriteProtectionOptionByte:000000000000000a .L0 
C:\Users\SOLDER~1\AppData\Local\Temp\ccKV8tJ7.s:1664   .text.FLASH_GetWriteProtectionOptionByte:000000000000000c .L0 
C:\Users\SOLDER~1\AppData\Local\Temp\ccKV8tJ7.s:1666   .text.FLASH_GetWriteProtectionOptionByte:0000000000000010 .L0 
C:\Users\SOLDER~1\AppData\Local\Temp\ccKV8tJ7.s:1667   .text.FLASH_GetWriteProtectionOptionByte:0000000000000010 .L0 
C:\Users\SOLDER~1\AppData\Local\Temp\ccKV8tJ7.s:1669   .text.FLASH_GetWriteProtectionOptionByte:0000000000000012 .L0 
C:\Users\SOLDER~1\AppData\Local\Temp\ccKV8tJ7.s:1671   .text.FLASH_GetWriteProtectionOptionByte:0000000000000014 .L0 
C:\Users\SOLDER~1\AppData\Local\Temp\ccKV8tJ7.s:1681   .text.FLASH_GetReadOutProtectionStatus:0000000000000000 .L0 
C:\Users\SOLDER~1\AppData\Local\Temp\ccKV8tJ7.s:1682   .text.FLASH_GetReadOutProtectionStatus:0000000000000000 $x
C:\Users\SOLDER~1\AppData\Local\Temp\ccKV8tJ7.s:1682   .text.FLASH_GetReadOutProtectionStatus:0000000000000000 .L0 
GAS LISTING C:\Users\SOLDER~1\AppData\Local\Temp\ccKV8tJ7.s 			page 76


C:\Users\SOLDER~1\AppData\Local\Temp\ccKV8tJ7.s:1683   .text.FLASH_GetReadOutProtectionStatus:0000000000000002 .L0 
C:\Users\SOLDER~1\AppData\Local\Temp\ccKV8tJ7.s:1685   .text.FLASH_GetReadOutProtectionStatus:0000000000000004 .L0 
C:\Users\SOLDER~1\AppData\Local\Temp\ccKV8tJ7.s:1687   .text.FLASH_GetReadOutProtectionStatus:0000000000000006 .L0 
C:\Users\SOLDER~1\AppData\Local\Temp\ccKV8tJ7.s:1689   .text.FLASH_GetReadOutProtectionStatus:0000000000000006 .L0 
C:\Users\SOLDER~1\AppData\Local\Temp\ccKV8tJ7.s:1691   .text.FLASH_GetReadOutProtectionStatus:000000000000000a .L0 
C:\Users\SOLDER~1\AppData\Local\Temp\ccKV8tJ7.s:1694   .text.FLASH_GetReadOutProtectionStatus:0000000000000010 .L0 
C:\Users\SOLDER~1\AppData\Local\Temp\ccKV8tJ7.s:1696   .text.FLASH_GetReadOutProtectionStatus:0000000000000012 .L0 
C:\Users\SOLDER~1\AppData\Local\Temp\ccKV8tJ7.s:1698   .text.FLASH_GetReadOutProtectionStatus:0000000000000014 .L0 
C:\Users\SOLDER~1\AppData\Local\Temp\ccKV8tJ7.s:1703   .text.FLASH_GetReadOutProtectionStatus:000000000000001c .L0 
C:\Users\SOLDER~1\AppData\Local\Temp\ccKV8tJ7.s:1706   .text.FLASH_GetReadOutProtectionStatus:0000000000000020 .L0 
C:\Users\SOLDER~1\AppData\Local\Temp\ccKV8tJ7.s:1708   .text.FLASH_GetReadOutProtectionStatus:0000000000000024 .L0 
C:\Users\SOLDER~1\AppData\Local\Temp\ccKV8tJ7.s:1710   .text.FLASH_GetReadOutProtectionStatus:0000000000000028 .L0 
C:\Users\SOLDER~1\AppData\Local\Temp\ccKV8tJ7.s:1711   .text.FLASH_GetReadOutProtectionStatus:0000000000000028 .L0 
C:\Users\SOLDER~1\AppData\Local\Temp\ccKV8tJ7.s:1713   .text.FLASH_GetReadOutProtectionStatus:000000000000002a .L0 
C:\Users\SOLDER~1\AppData\Local\Temp\ccKV8tJ7.s:1715   .text.FLASH_GetReadOutProtectionStatus:000000000000002c .L0 
C:\Users\SOLDER~1\AppData\Local\Temp\ccKV8tJ7.s:1722   .text.FLASH_ITConfig:0000000000000000 FLASH_ITConfig
C:\Users\SOLDER~1\AppData\Local\Temp\ccKV8tJ7.s:1725   .text.FLASH_ITConfig:0000000000000000 .L0 
C:\Users\SOLDER~1\AppData\Local\Temp\ccKV8tJ7.s:1726   .text.FLASH_ITConfig:0000000000000000 $x
C:\Users\SOLDER~1\AppData\Local\Temp\ccKV8tJ7.s:1726   .text.FLASH_ITConfig:0000000000000000 .L0 
C:\Users\SOLDER~1\AppData\Local\Temp\ccKV8tJ7.s:1727   .text.FLASH_ITConfig:0000000000000002 .L0 
C:\Users\SOLDER~1\AppData\Local\Temp\ccKV8tJ7.s:1729   .text.FLASH_ITConfig:0000000000000004 .L0 
C:\Users\SOLDER~1\AppData\Local\Temp\ccKV8tJ7.s:1731   .text.FLASH_ITConfig:0000000000000006 .L0 
C:\Users\SOLDER~1\AppData\Local\Temp\ccKV8tJ7.s:1735   .text.FLASH_ITConfig:000000000000000e .L0 
C:\Users\SOLDER~1\AppData\Local\Temp\ccKV8tJ7.s:1738   .text.FLASH_ITConfig:0000000000000014 .L0 
C:\Users\SOLDER~1\AppData\Local\Temp\ccKV8tJ7.s:1742   .text.FLASH_ITConfig:000000000000001e .L0 
C:\Users\SOLDER~1\AppData\Local\Temp\ccKV8tJ7.s:1746   .text.FLASH_ITConfig:0000000000000026 .L0 
C:\Users\SOLDER~1\AppData\Local\Temp\ccKV8tJ7.s:1749   .text.FLASH_ITConfig:0000000000000028 .L0 
C:\Users\SOLDER~1\AppData\Local\Temp\ccKV8tJ7.s:1752   .text.FLASH_ITConfig:000000000000002e .L0 
C:\Users\SOLDER~1\AppData\Local\Temp\ccKV8tJ7.s:1755   .text.FLASH_ITConfig:0000000000000036 .L0 
C:\Users\SOLDER~1\AppData\Local\Temp\ccKV8tJ7.s:1757   .text.FLASH_ITConfig:000000000000003a .L0 
C:\Users\SOLDER~1\AppData\Local\Temp\ccKV8tJ7.s:1761   .text.FLASH_ITConfig:000000000000003e .L0 
C:\Users\SOLDER~1\AppData\Local\Temp\ccKV8tJ7.s:1763   .text.FLASH_ITConfig:0000000000000042 .L0 
C:\Users\SOLDER~1\AppData\Local\Temp\ccKV8tJ7.s:1764   .text.FLASH_ITConfig:0000000000000042 .L0 
C:\Users\SOLDER~1\AppData\Local\Temp\ccKV8tJ7.s:1766   .text.FLASH_ITConfig:0000000000000044 .L0 
C:\Users\SOLDER~1\AppData\Local\Temp\ccKV8tJ7.s:1768   .text.FLASH_ITConfig:0000000000000046 .L0 
C:\Users\SOLDER~1\AppData\Local\Temp\ccKV8tJ7.s:1775   .text.FLASH_GetFlagStatus:0000000000000000 FLASH_GetFlagStatus
C:\Users\SOLDER~1\AppData\Local\Temp\ccKV8tJ7.s:1778   .text.FLASH_GetFlagStatus:0000000000000000 .L0 
C:\Users\SOLDER~1\AppData\Local\Temp\ccKV8tJ7.s:1779   .text.FLASH_GetFlagStatus:0000000000000000 $x
C:\Users\SOLDER~1\AppData\Local\Temp\ccKV8tJ7.s:1779   .text.FLASH_GetFlagStatus:0000000000000000 .L0 
C:\Users\SOLDER~1\AppData\Local\Temp\ccKV8tJ7.s:1780   .text.FLASH_GetFlagStatus:0000000000000002 .L0 
C:\Users\SOLDER~1\AppData\Local\Temp\ccKV8tJ7.s:1782   .text.FLASH_GetFlagStatus:0000000000000004 .L0 
C:\Users\SOLDER~1\AppData\Local\Temp\ccKV8tJ7.s:1784   .text.FLASH_GetFlagStatus:0000000000000006 .L0 
C:\Users\SOLDER~1\AppData\Local\Temp\ccKV8tJ7.s:1787   .text.FLASH_GetFlagStatus:000000000000000a .L0 
C:\Users\SOLDER~1\AppData\Local\Temp\ccKV8tJ7.s:1789   .text.FLASH_GetFlagStatus:000000000000000e .L0 
C:\Users\SOLDER~1\AppData\Local\Temp\ccKV8tJ7.s:1793   .text.FLASH_GetFlagStatus:0000000000000018 .L0 
C:\Users\SOLDER~1\AppData\Local\Temp\ccKV8tJ7.s:1796   .text.FLASH_GetFlagStatus:000000000000001e .L0 
C:\Users\SOLDER~1\AppData\Local\Temp\ccKV8tJ7.s:1798   .text.FLASH_GetFlagStatus:0000000000000020 .L0 
C:\Users\SOLDER~1\AppData\Local\Temp\ccKV8tJ7.s:1800   .text.FLASH_GetFlagStatus:0000000000000022 .L0 
C:\Users\SOLDER~1\AppData\Local\Temp\ccKV8tJ7.s:1805   .text.FLASH_GetFlagStatus:000000000000002a .L0 
C:\Users\SOLDER~1\AppData\Local\Temp\ccKV8tJ7.s:1809   .text.FLASH_GetFlagStatus:0000000000000030 .L0 
C:\Users\SOLDER~1\AppData\Local\Temp\ccKV8tJ7.s:1812   .text.FLASH_GetFlagStatus:0000000000000036 .L0 
C:\Users\SOLDER~1\AppData\Local\Temp\ccKV8tJ7.s:1815   .text.FLASH_GetFlagStatus:000000000000003c .L0 
C:\Users\SOLDER~1\AppData\Local\Temp\ccKV8tJ7.s:1817   .text.FLASH_GetFlagStatus:000000000000003e .L0 
C:\Users\SOLDER~1\AppData\Local\Temp\ccKV8tJ7.s:1822   .text.FLASH_GetFlagStatus:0000000000000046 .L0 
C:\Users\SOLDER~1\AppData\Local\Temp\ccKV8tJ7.s:1825   .text.FLASH_GetFlagStatus:000000000000004a .L0 
C:\Users\SOLDER~1\AppData\Local\Temp\ccKV8tJ7.s:1827   .text.FLASH_GetFlagStatus:000000000000004e .L0 
C:\Users\SOLDER~1\AppData\Local\Temp\ccKV8tJ7.s:1829   .text.FLASH_GetFlagStatus:0000000000000052 .L0 
GAS LISTING C:\Users\SOLDER~1\AppData\Local\Temp\ccKV8tJ7.s 			page 77


C:\Users\SOLDER~1\AppData\Local\Temp\ccKV8tJ7.s:1830   .text.FLASH_GetFlagStatus:0000000000000052 .L0 
C:\Users\SOLDER~1\AppData\Local\Temp\ccKV8tJ7.s:1832   .text.FLASH_GetFlagStatus:0000000000000054 .L0 
C:\Users\SOLDER~1\AppData\Local\Temp\ccKV8tJ7.s:1834   .text.FLASH_GetFlagStatus:0000000000000056 .L0 
C:\Users\SOLDER~1\AppData\Local\Temp\ccKV8tJ7.s:1841   .text.FLASH_ClearFlag:0000000000000000 FLASH_ClearFlag
C:\Users\SOLDER~1\AppData\Local\Temp\ccKV8tJ7.s:1844   .text.FLASH_ClearFlag:0000000000000000 .L0 
C:\Users\SOLDER~1\AppData\Local\Temp\ccKV8tJ7.s:1845   .text.FLASH_ClearFlag:0000000000000000 $x
C:\Users\SOLDER~1\AppData\Local\Temp\ccKV8tJ7.s:1845   .text.FLASH_ClearFlag:0000000000000000 .L0 
C:\Users\SOLDER~1\AppData\Local\Temp\ccKV8tJ7.s:1846   .text.FLASH_ClearFlag:0000000000000002 .L0 
C:\Users\SOLDER~1\AppData\Local\Temp\ccKV8tJ7.s:1848   .text.FLASH_ClearFlag:0000000000000004 .L0 
C:\Users\SOLDER~1\AppData\Local\Temp\ccKV8tJ7.s:1850   .text.FLASH_ClearFlag:0000000000000006 .L0 
C:\Users\SOLDER~1\AppData\Local\Temp\ccKV8tJ7.s:1853   .text.FLASH_ClearFlag:000000000000000a .L0 
C:\Users\SOLDER~1\AppData\Local\Temp\ccKV8tJ7.s:1855   .text.FLASH_ClearFlag:000000000000000e .L0 
C:\Users\SOLDER~1\AppData\Local\Temp\ccKV8tJ7.s:1858   .text.FLASH_ClearFlag:0000000000000014 .L0 
C:\Users\SOLDER~1\AppData\Local\Temp\ccKV8tJ7.s:1860   .text.FLASH_ClearFlag:0000000000000018 .L0 
C:\Users\SOLDER~1\AppData\Local\Temp\ccKV8tJ7.s:1861   .text.FLASH_ClearFlag:0000000000000018 .L0 
C:\Users\SOLDER~1\AppData\Local\Temp\ccKV8tJ7.s:1863   .text.FLASH_ClearFlag:000000000000001a .L0 
C:\Users\SOLDER~1\AppData\Local\Temp\ccKV8tJ7.s:1865   .text.FLASH_ClearFlag:000000000000001c .L0 
C:\Users\SOLDER~1\AppData\Local\Temp\ccKV8tJ7.s:1872   .text.FLASH_GetStatus:0000000000000000 FLASH_GetStatus
C:\Users\SOLDER~1\AppData\Local\Temp\ccKV8tJ7.s:1875   .text.FLASH_GetStatus:0000000000000000 .L0 
C:\Users\SOLDER~1\AppData\Local\Temp\ccKV8tJ7.s:1876   .text.FLASH_GetStatus:0000000000000000 $x
C:\Users\SOLDER~1\AppData\Local\Temp\ccKV8tJ7.s:1876   .text.FLASH_GetStatus:0000000000000000 .L0 
C:\Users\SOLDER~1\AppData\Local\Temp\ccKV8tJ7.s:1877   .text.FLASH_GetStatus:0000000000000002 .L0 
C:\Users\SOLDER~1\AppData\Local\Temp\ccKV8tJ7.s:1879   .text.FLASH_GetStatus:0000000000000004 .L0 
C:\Users\SOLDER~1\AppData\Local\Temp\ccKV8tJ7.s:1881   .text.FLASH_GetStatus:0000000000000006 .L0 
C:\Users\SOLDER~1\AppData\Local\Temp\ccKV8tJ7.s:1883   .text.FLASH_GetStatus:0000000000000006 .L0 
C:\Users\SOLDER~1\AppData\Local\Temp\ccKV8tJ7.s:1886   .text.FLASH_GetStatus:000000000000000c .L0 
C:\Users\SOLDER~1\AppData\Local\Temp\ccKV8tJ7.s:1889   .text.FLASH_GetStatus:0000000000000012 .L0 
C:\Users\SOLDER~1\AppData\Local\Temp\ccKV8tJ7.s:1891   .text.FLASH_GetStatus:0000000000000016 .L0 
C:\Users\SOLDER~1\AppData\Local\Temp\ccKV8tJ7.s:1894   .text.FLASH_GetStatus:000000000000001c .L0 
C:\Users\SOLDER~1\AppData\Local\Temp\ccKV8tJ7.s:1899   .text.FLASH_GetStatus:0000000000000024 .L0 
C:\Users\SOLDER~1\AppData\Local\Temp\ccKV8tJ7.s:1902   .text.FLASH_GetStatus:000000000000002a .L0 
C:\Users\SOLDER~1\AppData\Local\Temp\ccKV8tJ7.s:1904   .text.FLASH_GetStatus:000000000000002c .L0 
C:\Users\SOLDER~1\AppData\Local\Temp\ccKV8tJ7.s:1906   .text.FLASH_GetStatus:000000000000002e .L0 
C:\Users\SOLDER~1\AppData\Local\Temp\ccKV8tJ7.s:1911   .text.FLASH_GetStatus:0000000000000036 .L0 
C:\Users\SOLDER~1\AppData\Local\Temp\ccKV8tJ7.s:1915   .text.FLASH_GetStatus:000000000000003c .L0 
C:\Users\SOLDER~1\AppData\Local\Temp\ccKV8tJ7.s:1917   .text.FLASH_GetStatus:0000000000000040 .L0 
C:\Users\SOLDER~1\AppData\Local\Temp\ccKV8tJ7.s:1919   .text.FLASH_GetStatus:0000000000000044 .L0 
C:\Users\SOLDER~1\AppData\Local\Temp\ccKV8tJ7.s:1920   .text.FLASH_GetStatus:0000000000000044 .L0 
C:\Users\SOLDER~1\AppData\Local\Temp\ccKV8tJ7.s:1922   .text.FLASH_GetStatus:0000000000000046 .L0 
C:\Users\SOLDER~1\AppData\Local\Temp\ccKV8tJ7.s:1924   .text.FLASH_GetStatus:0000000000000048 .L0 
C:\Users\SOLDER~1\AppData\Local\Temp\ccKV8tJ7.s:1931   .text.FLASH_GetBank1Status:0000000000000000 FLASH_GetBank1Status
C:\Users\SOLDER~1\AppData\Local\Temp\ccKV8tJ7.s:1934   .text.FLASH_GetBank1Status:0000000000000000 .L0 
C:\Users\SOLDER~1\AppData\Local\Temp\ccKV8tJ7.s:1935   .text.FLASH_GetBank1Status:0000000000000000 $x
C:\Users\SOLDER~1\AppData\Local\Temp\ccKV8tJ7.s:1935   .text.FLASH_GetBank1Status:0000000000000000 .L0 
C:\Users\SOLDER~1\AppData\Local\Temp\ccKV8tJ7.s:1936   .text.FLASH_GetBank1Status:0000000000000002 .L0 
C:\Users\SOLDER~1\AppData\Local\Temp\ccKV8tJ7.s:1938   .text.FLASH_GetBank1Status:0000000000000004 .L0 
C:\Users\SOLDER~1\AppData\Local\Temp\ccKV8tJ7.s:1940   .text.FLASH_GetBank1Status:0000000000000006 .L0 
C:\Users\SOLDER~1\AppData\Local\Temp\ccKV8tJ7.s:1942   .text.FLASH_GetBank1Status:0000000000000006 .L0 
C:\Users\SOLDER~1\AppData\Local\Temp\ccKV8tJ7.s:1945   .text.FLASH_GetBank1Status:000000000000000c .L0 
C:\Users\SOLDER~1\AppData\Local\Temp\ccKV8tJ7.s:1948   .text.FLASH_GetBank1Status:0000000000000012 .L0 
C:\Users\SOLDER~1\AppData\Local\Temp\ccKV8tJ7.s:1950   .text.FLASH_GetBank1Status:0000000000000016 .L0 
C:\Users\SOLDER~1\AppData\Local\Temp\ccKV8tJ7.s:1953   .text.FLASH_GetBank1Status:000000000000001c .L0 
C:\Users\SOLDER~1\AppData\Local\Temp\ccKV8tJ7.s:1958   .text.FLASH_GetBank1Status:0000000000000024 .L0 
C:\Users\SOLDER~1\AppData\Local\Temp\ccKV8tJ7.s:1961   .text.FLASH_GetBank1Status:000000000000002a .L0 
C:\Users\SOLDER~1\AppData\Local\Temp\ccKV8tJ7.s:1963   .text.FLASH_GetBank1Status:000000000000002c .L0 
C:\Users\SOLDER~1\AppData\Local\Temp\ccKV8tJ7.s:1965   .text.FLASH_GetBank1Status:000000000000002e .L0 
C:\Users\SOLDER~1\AppData\Local\Temp\ccKV8tJ7.s:1970   .text.FLASH_GetBank1Status:0000000000000036 .L0 
GAS LISTING C:\Users\SOLDER~1\AppData\Local\Temp\ccKV8tJ7.s 			page 78


C:\Users\SOLDER~1\AppData\Local\Temp\ccKV8tJ7.s:1974   .text.FLASH_GetBank1Status:000000000000003c .L0 
C:\Users\SOLDER~1\AppData\Local\Temp\ccKV8tJ7.s:1976   .text.FLASH_GetBank1Status:0000000000000040 .L0 
C:\Users\SOLDER~1\AppData\Local\Temp\ccKV8tJ7.s:1978   .text.FLASH_GetBank1Status:0000000000000044 .L0 
C:\Users\SOLDER~1\AppData\Local\Temp\ccKV8tJ7.s:1979   .text.FLASH_GetBank1Status:0000000000000044 .L0 
C:\Users\SOLDER~1\AppData\Local\Temp\ccKV8tJ7.s:1981   .text.FLASH_GetBank1Status:0000000000000046 .L0 
C:\Users\SOLDER~1\AppData\Local\Temp\ccKV8tJ7.s:1983   .text.FLASH_GetBank1Status:0000000000000048 .L0 
C:\Users\SOLDER~1\AppData\Local\Temp\ccKV8tJ7.s:1993   .text.FLASH_WaitForLastOperation:0000000000000000 .L0 
C:\Users\SOLDER~1\AppData\Local\Temp\ccKV8tJ7.s:1994   .text.FLASH_WaitForLastOperation:0000000000000000 $x
C:\Users\SOLDER~1\AppData\Local\Temp\ccKV8tJ7.s:1994   .text.FLASH_WaitForLastOperation:0000000000000000 .L0 
C:\Users\SOLDER~1\AppData\Local\Temp\ccKV8tJ7.s:1995   .text.FLASH_WaitForLastOperation:0000000000000002 .L0 
C:\Users\SOLDER~1\AppData\Local\Temp\ccKV8tJ7.s:1998   .text.FLASH_WaitForLastOperation:0000000000000006 .L0 
C:\Users\SOLDER~1\AppData\Local\Temp\ccKV8tJ7.s:1999   .text.FLASH_WaitForLastOperation:0000000000000006 .L0 
C:\Users\SOLDER~1\AppData\Local\Temp\ccKV8tJ7.s:2001   .text.FLASH_WaitForLastOperation:0000000000000008 .L0 
C:\Users\SOLDER~1\AppData\Local\Temp\ccKV8tJ7.s:2004   .text.FLASH_WaitForLastOperation:000000000000000c .L0 
C:\Users\SOLDER~1\AppData\Local\Temp\ccKV8tJ7.s:2007   .text.FLASH_WaitForLastOperation:0000000000000012 .L0 
C:\Users\SOLDER~1\AppData\Local\Temp\ccKV8tJ7.s:2010   .text.FLASH_WaitForLastOperation:000000000000001e .L0 
C:\Users\SOLDER~1\AppData\Local\Temp\ccKV8tJ7.s:2013   .text.FLASH_WaitForLastOperation:0000000000000020 .L0 
C:\Users\SOLDER~1\AppData\Local\Temp\ccKV8tJ7.s:2016   .text.FLASH_WaitForLastOperation:000000000000002c .L0 
C:\Users\SOLDER~1\AppData\Local\Temp\ccKV8tJ7.s:2021   .text.FLASH_WaitForLastOperation:0000000000000036 .L0 
C:\Users\SOLDER~1\AppData\Local\Temp\ccKV8tJ7.s:2025   .text.FLASH_WaitForLastOperation:0000000000000040 .L0 
C:\Users\SOLDER~1\AppData\Local\Temp\ccKV8tJ7.s:2029   .text.FLASH_WaitForLastOperation:0000000000000046 .L0 
C:\Users\SOLDER~1\AppData\Local\Temp\ccKV8tJ7.s:2032   .text.FLASH_WaitForLastOperation:000000000000004c .L0 
C:\Users\SOLDER~1\AppData\Local\Temp\ccKV8tJ7.s:2036   .text.FLASH_WaitForLastOperation:0000000000000052 .L0 
C:\Users\SOLDER~1\AppData\Local\Temp\ccKV8tJ7.s:2038   .text.FLASH_WaitForLastOperation:0000000000000056 .L0 
C:\Users\SOLDER~1\AppData\Local\Temp\ccKV8tJ7.s:2040   .text.FLASH_WaitForLastOperation:000000000000005a .L0 
C:\Users\SOLDER~1\AppData\Local\Temp\ccKV8tJ7.s:2042   .text.FLASH_WaitForLastOperation:000000000000005c .L0 
C:\Users\SOLDER~1\AppData\Local\Temp\ccKV8tJ7.s:2043   .text.FLASH_WaitForLastOperation:000000000000005c .L0 
C:\Users\SOLDER~1\AppData\Local\Temp\ccKV8tJ7.s:2045   .text.FLASH_WaitForLastOperation:000000000000005e .L0 
C:\Users\SOLDER~1\AppData\Local\Temp\ccKV8tJ7.s:2047   .text.FLASH_WaitForLastOperation:0000000000000060 .L0 
C:\Users\SOLDER~1\AppData\Local\Temp\ccKV8tJ7.s:2057   .text.FLASH_WaitForLastBank1Operation:0000000000000000 .L0 
C:\Users\SOLDER~1\AppData\Local\Temp\ccKV8tJ7.s:2058   .text.FLASH_WaitForLastBank1Operation:0000000000000000 $x
C:\Users\SOLDER~1\AppData\Local\Temp\ccKV8tJ7.s:2058   .text.FLASH_WaitForLastBank1Operation:0000000000000000 .L0 
C:\Users\SOLDER~1\AppData\Local\Temp\ccKV8tJ7.s:2059   .text.FLASH_WaitForLastBank1Operation:0000000000000002 .L0 
C:\Users\SOLDER~1\AppData\Local\Temp\ccKV8tJ7.s:2062   .text.FLASH_WaitForLastBank1Operation:0000000000000006 .L0 
C:\Users\SOLDER~1\AppData\Local\Temp\ccKV8tJ7.s:2063   .text.FLASH_WaitForLastBank1Operation:0000000000000006 .L0 
C:\Users\SOLDER~1\AppData\Local\Temp\ccKV8tJ7.s:2065   .text.FLASH_WaitForLastBank1Operation:0000000000000008 .L0 
C:\Users\SOLDER~1\AppData\Local\Temp\ccKV8tJ7.s:2068   .text.FLASH_WaitForLastBank1Operation:000000000000000c .L0 
C:\Users\SOLDER~1\AppData\Local\Temp\ccKV8tJ7.s:2071   .text.FLASH_WaitForLastBank1Operation:0000000000000012 .L0 
C:\Users\SOLDER~1\AppData\Local\Temp\ccKV8tJ7.s:2074   .text.FLASH_WaitForLastBank1Operation:000000000000001e .L0 
C:\Users\SOLDER~1\AppData\Local\Temp\ccKV8tJ7.s:2077   .text.FLASH_WaitForLastBank1Operation:0000000000000020 .L0 
C:\Users\SOLDER~1\AppData\Local\Temp\ccKV8tJ7.s:2080   .text.FLASH_WaitForLastBank1Operation:000000000000002c .L0 
C:\Users\SOLDER~1\AppData\Local\Temp\ccKV8tJ7.s:2085   .text.FLASH_WaitForLastBank1Operation:0000000000000036 .L0 
C:\Users\SOLDER~1\AppData\Local\Temp\ccKV8tJ7.s:2089   .text.FLASH_WaitForLastBank1Operation:0000000000000040 .L0 
C:\Users\SOLDER~1\AppData\Local\Temp\ccKV8tJ7.s:2093   .text.FLASH_WaitForLastBank1Operation:0000000000000046 .L0 
C:\Users\SOLDER~1\AppData\Local\Temp\ccKV8tJ7.s:2096   .text.FLASH_WaitForLastBank1Operation:000000000000004c .L0 
C:\Users\SOLDER~1\AppData\Local\Temp\ccKV8tJ7.s:2100   .text.FLASH_WaitForLastBank1Operation:0000000000000052 .L0 
C:\Users\SOLDER~1\AppData\Local\Temp\ccKV8tJ7.s:2102   .text.FLASH_WaitForLastBank1Operation:0000000000000056 .L0 
C:\Users\SOLDER~1\AppData\Local\Temp\ccKV8tJ7.s:2104   .text.FLASH_WaitForLastBank1Operation:000000000000005a .L0 
C:\Users\SOLDER~1\AppData\Local\Temp\ccKV8tJ7.s:2106   .text.FLASH_WaitForLastBank1Operation:000000000000005c .L0 
C:\Users\SOLDER~1\AppData\Local\Temp\ccKV8tJ7.s:2107   .text.FLASH_WaitForLastBank1Operation:000000000000005c .L0 
C:\Users\SOLDER~1\AppData\Local\Temp\ccKV8tJ7.s:2109   .text.FLASH_WaitForLastBank1Operation:000000000000005e .L0 
C:\Users\SOLDER~1\AppData\Local\Temp\ccKV8tJ7.s:2111   .text.FLASH_WaitForLastBank1Operation:0000000000000060 .L0 
C:\Users\SOLDER~1\AppData\Local\Temp\ccKV8tJ7.s:2118   .text.FLASH_Unlock_Fast:0000000000000000 FLASH_Unlock_Fast
C:\Users\SOLDER~1\AppData\Local\Temp\ccKV8tJ7.s:2121   .text.FLASH_Unlock_Fast:0000000000000000 .L0 
C:\Users\SOLDER~1\AppData\Local\Temp\ccKV8tJ7.s:2122   .text.FLASH_Unlock_Fast:0000000000000000 $x
C:\Users\SOLDER~1\AppData\Local\Temp\ccKV8tJ7.s:2122   .text.FLASH_Unlock_Fast:0000000000000000 .L0 
C:\Users\SOLDER~1\AppData\Local\Temp\ccKV8tJ7.s:2123   .text.FLASH_Unlock_Fast:0000000000000002 .L0 
GAS LISTING C:\Users\SOLDER~1\AppData\Local\Temp\ccKV8tJ7.s 			page 79


C:\Users\SOLDER~1\AppData\Local\Temp\ccKV8tJ7.s:2125   .text.FLASH_Unlock_Fast:0000000000000004 .L0 
C:\Users\SOLDER~1\AppData\Local\Temp\ccKV8tJ7.s:2127   .text.FLASH_Unlock_Fast:0000000000000006 .L0 
C:\Users\SOLDER~1\AppData\Local\Temp\ccKV8tJ7.s:2129   .text.FLASH_Unlock_Fast:0000000000000006 .L0 
C:\Users\SOLDER~1\AppData\Local\Temp\ccKV8tJ7.s:2131   .text.FLASH_Unlock_Fast:000000000000000a .L0 
C:\Users\SOLDER~1\AppData\Local\Temp\ccKV8tJ7.s:2135   .text.FLASH_Unlock_Fast:0000000000000014 .L0 
C:\Users\SOLDER~1\AppData\Local\Temp\ccKV8tJ7.s:2137   .text.FLASH_Unlock_Fast:0000000000000018 .L0 
C:\Users\SOLDER~1\AppData\Local\Temp\ccKV8tJ7.s:2141   .text.FLASH_Unlock_Fast:0000000000000022 .L0 
C:\Users\SOLDER~1\AppData\Local\Temp\ccKV8tJ7.s:2143   .text.FLASH_Unlock_Fast:0000000000000026 .L0 
C:\Users\SOLDER~1\AppData\Local\Temp\ccKV8tJ7.s:2147   .text.FLASH_Unlock_Fast:0000000000000030 .L0 
C:\Users\SOLDER~1\AppData\Local\Temp\ccKV8tJ7.s:2149   .text.FLASH_Unlock_Fast:0000000000000034 .L0 
C:\Users\SOLDER~1\AppData\Local\Temp\ccKV8tJ7.s:2153   .text.FLASH_Unlock_Fast:000000000000003e .L0 
C:\Users\SOLDER~1\AppData\Local\Temp\ccKV8tJ7.s:2155   .text.FLASH_Unlock_Fast:0000000000000042 .L0 
C:\Users\SOLDER~1\AppData\Local\Temp\ccKV8tJ7.s:2156   .text.FLASH_Unlock_Fast:0000000000000042 .L0 
C:\Users\SOLDER~1\AppData\Local\Temp\ccKV8tJ7.s:2158   .text.FLASH_Unlock_Fast:0000000000000044 .L0 
C:\Users\SOLDER~1\AppData\Local\Temp\ccKV8tJ7.s:2160   .text.FLASH_Unlock_Fast:0000000000000046 .L0 
C:\Users\SOLDER~1\AppData\Local\Temp\ccKV8tJ7.s:2167   .text.FLASH_Lock_Fast:0000000000000000 FLASH_Lock_Fast
C:\Users\SOLDER~1\AppData\Local\Temp\ccKV8tJ7.s:2170   .text.FLASH_Lock_Fast:0000000000000000 .L0 
C:\Users\SOLDER~1\AppData\Local\Temp\ccKV8tJ7.s:2171   .text.FLASH_Lock_Fast:0000000000000000 $x
C:\Users\SOLDER~1\AppData\Local\Temp\ccKV8tJ7.s:2171   .text.FLASH_Lock_Fast:0000000000000000 .L0 
C:\Users\SOLDER~1\AppData\Local\Temp\ccKV8tJ7.s:2172   .text.FLASH_Lock_Fast:0000000000000002 .L0 
C:\Users\SOLDER~1\AppData\Local\Temp\ccKV8tJ7.s:2174   .text.FLASH_Lock_Fast:0000000000000004 .L0 
C:\Users\SOLDER~1\AppData\Local\Temp\ccKV8tJ7.s:2176   .text.FLASH_Lock_Fast:0000000000000006 .L0 
C:\Users\SOLDER~1\AppData\Local\Temp\ccKV8tJ7.s:2178   .text.FLASH_Lock_Fast:0000000000000006 .L0 
C:\Users\SOLDER~1\AppData\Local\Temp\ccKV8tJ7.s:2182   .text.FLASH_Lock_Fast:0000000000000010 .L0 
C:\Users\SOLDER~1\AppData\Local\Temp\ccKV8tJ7.s:2186   .text.FLASH_Lock_Fast:0000000000000016 .L0 
C:\Users\SOLDER~1\AppData\Local\Temp\ccKV8tJ7.s:2188   .text.FLASH_Lock_Fast:000000000000001a .L0 
C:\Users\SOLDER~1\AppData\Local\Temp\ccKV8tJ7.s:2189   .text.FLASH_Lock_Fast:000000000000001a .L0 
C:\Users\SOLDER~1\AppData\Local\Temp\ccKV8tJ7.s:2191   .text.FLASH_Lock_Fast:000000000000001c .L0 
C:\Users\SOLDER~1\AppData\Local\Temp\ccKV8tJ7.s:2193   .text.FLASH_Lock_Fast:000000000000001e .L0 
C:\Users\SOLDER~1\AppData\Local\Temp\ccKV8tJ7.s:2200   .text.FLASH_ErasePage_Fast:0000000000000000 FLASH_ErasePage_Fast
C:\Users\SOLDER~1\AppData\Local\Temp\ccKV8tJ7.s:2203   .text.FLASH_ErasePage_Fast:0000000000000000 .L0 
C:\Users\SOLDER~1\AppData\Local\Temp\ccKV8tJ7.s:2204   .text.FLASH_ErasePage_Fast:0000000000000000 $x
C:\Users\SOLDER~1\AppData\Local\Temp\ccKV8tJ7.s:2204   .text.FLASH_ErasePage_Fast:0000000000000000 .L0 
C:\Users\SOLDER~1\AppData\Local\Temp\ccKV8tJ7.s:2205   .text.FLASH_ErasePage_Fast:0000000000000002 .L0 
C:\Users\SOLDER~1\AppData\Local\Temp\ccKV8tJ7.s:2207   .text.FLASH_ErasePage_Fast:0000000000000004 .L0 
C:\Users\SOLDER~1\AppData\Local\Temp\ccKV8tJ7.s:2209   .text.FLASH_ErasePage_Fast:0000000000000006 .L0 
C:\Users\SOLDER~1\AppData\Local\Temp\ccKV8tJ7.s:2212   .text.FLASH_ErasePage_Fast:000000000000000a .L0 
C:\Users\SOLDER~1\AppData\Local\Temp\ccKV8tJ7.s:2216   .text.FLASH_ErasePage_Fast:0000000000000016 .L0 
C:\Users\SOLDER~1\AppData\Local\Temp\ccKV8tJ7.s:2220   .text.FLASH_ErasePage_Fast:0000000000000020 .L0 
C:\Users\SOLDER~1\AppData\Local\Temp\ccKV8tJ7.s:2224   .text.FLASH_ErasePage_Fast:0000000000000028 .L0 
C:\Users\SOLDER~1\AppData\Local\Temp\ccKV8tJ7.s:2226   .text.FLASH_ErasePage_Fast:000000000000002c .L0 
C:\Users\SOLDER~1\AppData\Local\Temp\ccKV8tJ7.s:2229   .text.FLASH_ErasePage_Fast:0000000000000032 .L0 
C:\Users\SOLDER~1\AppData\Local\Temp\ccKV8tJ7.s:2233   .text.FLASH_ErasePage_Fast:000000000000003c .L0 
C:\Users\SOLDER~1\AppData\Local\Temp\ccKV8tJ7.s:2236   .text.FLASH_ErasePage_Fast:0000000000000042 .L0 
C:\Users\SOLDER~1\AppData\Local\Temp\ccKV8tJ7.s:2239   .text.FLASH_ErasePage_Fast:0000000000000044 .L0 
C:\Users\SOLDER~1\AppData\Local\Temp\ccKV8tJ7.s:2242   .text.FLASH_ErasePage_Fast:000000000000004a .L0 
C:\Users\SOLDER~1\AppData\Local\Temp\ccKV8tJ7.s:2244   .text.FLASH_ErasePage_Fast:000000000000004c .L0 
C:\Users\SOLDER~1\AppData\Local\Temp\ccKV8tJ7.s:2246   .text.FLASH_ErasePage_Fast:000000000000004e .L0 
C:\Users\SOLDER~1\AppData\Local\Temp\ccKV8tJ7.s:2250   .text.FLASH_ErasePage_Fast:0000000000000058 .L0 
C:\Users\SOLDER~1\AppData\Local\Temp\ccKV8tJ7.s:2255   .text.FLASH_ErasePage_Fast:0000000000000060 .L0 
C:\Users\SOLDER~1\AppData\Local\Temp\ccKV8tJ7.s:2257   .text.FLASH_ErasePage_Fast:0000000000000064 .L0 
C:\Users\SOLDER~1\AppData\Local\Temp\ccKV8tJ7.s:2258   .text.FLASH_ErasePage_Fast:0000000000000064 .L0 
C:\Users\SOLDER~1\AppData\Local\Temp\ccKV8tJ7.s:2260   .text.FLASH_ErasePage_Fast:0000000000000066 .L0 
C:\Users\SOLDER~1\AppData\Local\Temp\ccKV8tJ7.s:2262   .text.FLASH_ErasePage_Fast:0000000000000068 .L0 
C:\Users\SOLDER~1\AppData\Local\Temp\ccKV8tJ7.s:2269   .text.FLASH_EraseBlock_32K_Fast:0000000000000000 FLASH_EraseBlock_32K_Fast
C:\Users\SOLDER~1\AppData\Local\Temp\ccKV8tJ7.s:2272   .text.FLASH_EraseBlock_32K_Fast:0000000000000000 .L0 
C:\Users\SOLDER~1\AppData\Local\Temp\ccKV8tJ7.s:2273   .text.FLASH_EraseBlock_32K_Fast:0000000000000000 $x
GAS LISTING C:\Users\SOLDER~1\AppData\Local\Temp\ccKV8tJ7.s 			page 80


C:\Users\SOLDER~1\AppData\Local\Temp\ccKV8tJ7.s:2273   .text.FLASH_EraseBlock_32K_Fast:0000000000000000 .L0 
C:\Users\SOLDER~1\AppData\Local\Temp\ccKV8tJ7.s:2274   .text.FLASH_EraseBlock_32K_Fast:0000000000000002 .L0 
C:\Users\SOLDER~1\AppData\Local\Temp\ccKV8tJ7.s:2276   .text.FLASH_EraseBlock_32K_Fast:0000000000000004 .L0 
C:\Users\SOLDER~1\AppData\Local\Temp\ccKV8tJ7.s:2278   .text.FLASH_EraseBlock_32K_Fast:0000000000000006 .L0 
C:\Users\SOLDER~1\AppData\Local\Temp\ccKV8tJ7.s:2281   .text.FLASH_EraseBlock_32K_Fast:000000000000000a .L0 
C:\Users\SOLDER~1\AppData\Local\Temp\ccKV8tJ7.s:2286   .text.FLASH_EraseBlock_32K_Fast:0000000000000016 .L0 
C:\Users\SOLDER~1\AppData\Local\Temp\ccKV8tJ7.s:2290   .text.FLASH_EraseBlock_32K_Fast:0000000000000020 .L0 
C:\Users\SOLDER~1\AppData\Local\Temp\ccKV8tJ7.s:2294   .text.FLASH_EraseBlock_32K_Fast:0000000000000028 .L0 
C:\Users\SOLDER~1\AppData\Local\Temp\ccKV8tJ7.s:2296   .text.FLASH_EraseBlock_32K_Fast:000000000000002c .L0 
C:\Users\SOLDER~1\AppData\Local\Temp\ccKV8tJ7.s:2299   .text.FLASH_EraseBlock_32K_Fast:0000000000000032 .L0 
C:\Users\SOLDER~1\AppData\Local\Temp\ccKV8tJ7.s:2303   .text.FLASH_EraseBlock_32K_Fast:000000000000003c .L0 
C:\Users\SOLDER~1\AppData\Local\Temp\ccKV8tJ7.s:2306   .text.FLASH_EraseBlock_32K_Fast:0000000000000042 .L0 
C:\Users\SOLDER~1\AppData\Local\Temp\ccKV8tJ7.s:2309   .text.FLASH_EraseBlock_32K_Fast:0000000000000044 .L0 
C:\Users\SOLDER~1\AppData\Local\Temp\ccKV8tJ7.s:2312   .text.FLASH_EraseBlock_32K_Fast:000000000000004a .L0 
C:\Users\SOLDER~1\AppData\Local\Temp\ccKV8tJ7.s:2314   .text.FLASH_EraseBlock_32K_Fast:000000000000004c .L0 
C:\Users\SOLDER~1\AppData\Local\Temp\ccKV8tJ7.s:2316   .text.FLASH_EraseBlock_32K_Fast:000000000000004e .L0 
C:\Users\SOLDER~1\AppData\Local\Temp\ccKV8tJ7.s:2320   .text.FLASH_EraseBlock_32K_Fast:0000000000000058 .L0 
C:\Users\SOLDER~1\AppData\Local\Temp\ccKV8tJ7.s:2325   .text.FLASH_EraseBlock_32K_Fast:0000000000000062 .L0 
C:\Users\SOLDER~1\AppData\Local\Temp\ccKV8tJ7.s:2327   .text.FLASH_EraseBlock_32K_Fast:0000000000000066 .L0 
C:\Users\SOLDER~1\AppData\Local\Temp\ccKV8tJ7.s:2328   .text.FLASH_EraseBlock_32K_Fast:0000000000000066 .L0 
C:\Users\SOLDER~1\AppData\Local\Temp\ccKV8tJ7.s:2330   .text.FLASH_EraseBlock_32K_Fast:0000000000000068 .L0 
C:\Users\SOLDER~1\AppData\Local\Temp\ccKV8tJ7.s:2332   .text.FLASH_EraseBlock_32K_Fast:000000000000006a .L0 
C:\Users\SOLDER~1\AppData\Local\Temp\ccKV8tJ7.s:2339   .text.FLASH_EraseBlock_64K_Fast:0000000000000000 FLASH_EraseBlock_64K_Fast
C:\Users\SOLDER~1\AppData\Local\Temp\ccKV8tJ7.s:2342   .text.FLASH_EraseBlock_64K_Fast:0000000000000000 .L0 
C:\Users\SOLDER~1\AppData\Local\Temp\ccKV8tJ7.s:2343   .text.FLASH_EraseBlock_64K_Fast:0000000000000000 $x
C:\Users\SOLDER~1\AppData\Local\Temp\ccKV8tJ7.s:2343   .text.FLASH_EraseBlock_64K_Fast:0000000000000000 .L0 
C:\Users\SOLDER~1\AppData\Local\Temp\ccKV8tJ7.s:2344   .text.FLASH_EraseBlock_64K_Fast:0000000000000002 .L0 
C:\Users\SOLDER~1\AppData\Local\Temp\ccKV8tJ7.s:2346   .text.FLASH_EraseBlock_64K_Fast:0000000000000004 .L0 
C:\Users\SOLDER~1\AppData\Local\Temp\ccKV8tJ7.s:2348   .text.FLASH_EraseBlock_64K_Fast:0000000000000006 .L0 
C:\Users\SOLDER~1\AppData\Local\Temp\ccKV8tJ7.s:2351   .text.FLASH_EraseBlock_64K_Fast:000000000000000a .L0 
C:\Users\SOLDER~1\AppData\Local\Temp\ccKV8tJ7.s:2356   .text.FLASH_EraseBlock_64K_Fast:0000000000000016 .L0 
C:\Users\SOLDER~1\AppData\Local\Temp\ccKV8tJ7.s:2360   .text.FLASH_EraseBlock_64K_Fast:0000000000000020 .L0 
C:\Users\SOLDER~1\AppData\Local\Temp\ccKV8tJ7.s:2364   .text.FLASH_EraseBlock_64K_Fast:0000000000000028 .L0 
C:\Users\SOLDER~1\AppData\Local\Temp\ccKV8tJ7.s:2366   .text.FLASH_EraseBlock_64K_Fast:000000000000002c .L0 
C:\Users\SOLDER~1\AppData\Local\Temp\ccKV8tJ7.s:2369   .text.FLASH_EraseBlock_64K_Fast:0000000000000032 .L0 
C:\Users\SOLDER~1\AppData\Local\Temp\ccKV8tJ7.s:2373   .text.FLASH_EraseBlock_64K_Fast:000000000000003c .L0 
C:\Users\SOLDER~1\AppData\Local\Temp\ccKV8tJ7.s:2376   .text.FLASH_EraseBlock_64K_Fast:0000000000000042 .L0 
C:\Users\SOLDER~1\AppData\Local\Temp\ccKV8tJ7.s:2379   .text.FLASH_EraseBlock_64K_Fast:0000000000000044 .L0 
C:\Users\SOLDER~1\AppData\Local\Temp\ccKV8tJ7.s:2382   .text.FLASH_EraseBlock_64K_Fast:000000000000004a .L0 
C:\Users\SOLDER~1\AppData\Local\Temp\ccKV8tJ7.s:2384   .text.FLASH_EraseBlock_64K_Fast:000000000000004c .L0 
C:\Users\SOLDER~1\AppData\Local\Temp\ccKV8tJ7.s:2386   .text.FLASH_EraseBlock_64K_Fast:000000000000004e .L0 
C:\Users\SOLDER~1\AppData\Local\Temp\ccKV8tJ7.s:2390   .text.FLASH_EraseBlock_64K_Fast:0000000000000058 .L0 
C:\Users\SOLDER~1\AppData\Local\Temp\ccKV8tJ7.s:2395   .text.FLASH_EraseBlock_64K_Fast:0000000000000062 .L0 
C:\Users\SOLDER~1\AppData\Local\Temp\ccKV8tJ7.s:2397   .text.FLASH_EraseBlock_64K_Fast:0000000000000066 .L0 
C:\Users\SOLDER~1\AppData\Local\Temp\ccKV8tJ7.s:2398   .text.FLASH_EraseBlock_64K_Fast:0000000000000066 .L0 
C:\Users\SOLDER~1\AppData\Local\Temp\ccKV8tJ7.s:2400   .text.FLASH_EraseBlock_64K_Fast:0000000000000068 .L0 
C:\Users\SOLDER~1\AppData\Local\Temp\ccKV8tJ7.s:2402   .text.FLASH_EraseBlock_64K_Fast:000000000000006a .L0 
C:\Users\SOLDER~1\AppData\Local\Temp\ccKV8tJ7.s:2409   .text.FLASH_ProgramPage_Fast:0000000000000000 FLASH_ProgramPage_Fast
C:\Users\SOLDER~1\AppData\Local\Temp\ccKV8tJ7.s:2412   .text.FLASH_ProgramPage_Fast:0000000000000000 .L0 
C:\Users\SOLDER~1\AppData\Local\Temp\ccKV8tJ7.s:2413   .text.FLASH_ProgramPage_Fast:0000000000000000 $x
C:\Users\SOLDER~1\AppData\Local\Temp\ccKV8tJ7.s:2413   .text.FLASH_ProgramPage_Fast:0000000000000000 .L0 
C:\Users\SOLDER~1\AppData\Local\Temp\ccKV8tJ7.s:2414   .text.FLASH_ProgramPage_Fast:0000000000000002 .L0 
C:\Users\SOLDER~1\AppData\Local\Temp\ccKV8tJ7.s:2416   .text.FLASH_ProgramPage_Fast:0000000000000004 .L0 
C:\Users\SOLDER~1\AppData\Local\Temp\ccKV8tJ7.s:2418   .text.FLASH_ProgramPage_Fast:0000000000000006 .L0 
C:\Users\SOLDER~1\AppData\Local\Temp\ccKV8tJ7.s:2422   .text.FLASH_ProgramPage_Fast:000000000000000e .L0 
C:\Users\SOLDER~1\AppData\Local\Temp\ccKV8tJ7.s:2425   .text.FLASH_ProgramPage_Fast:0000000000000016 .L0 
C:\Users\SOLDER~1\AppData\Local\Temp\ccKV8tJ7.s:2429   .text.FLASH_ProgramPage_Fast:0000000000000022 .L0 
GAS LISTING C:\Users\SOLDER~1\AppData\Local\Temp\ccKV8tJ7.s 			page 81


C:\Users\SOLDER~1\AppData\Local\Temp\ccKV8tJ7.s:2433   .text.FLASH_ProgramPage_Fast:000000000000002c .L0 
C:\Users\SOLDER~1\AppData\Local\Temp\ccKV8tJ7.s:2437   .text.FLASH_ProgramPage_Fast:0000000000000032 .L0 
C:\Users\SOLDER~1\AppData\Local\Temp\ccKV8tJ7.s:2440   .text.FLASH_ProgramPage_Fast:0000000000000034 .L0 
C:\Users\SOLDER~1\AppData\Local\Temp\ccKV8tJ7.s:2443   .text.FLASH_ProgramPage_Fast:000000000000003a .L0 
C:\Users\SOLDER~1\AppData\Local\Temp\ccKV8tJ7.s:2445   .text.FLASH_ProgramPage_Fast:000000000000003c .L0 
C:\Users\SOLDER~1\AppData\Local\Temp\ccKV8tJ7.s:2447   .text.FLASH_ProgramPage_Fast:000000000000003e .L0 
C:\Users\SOLDER~1\AppData\Local\Temp\ccKV8tJ7.s:2450   .text.FLASH_ProgramPage_Fast:0000000000000040 .L0 
C:\Users\SOLDER~1\AppData\Local\Temp\ccKV8tJ7.s:2453   .text.FLASH_ProgramPage_Fast:0000000000000046 .L0 
C:\Users\SOLDER~1\AppData\Local\Temp\ccKV8tJ7.s:2455   .text.FLASH_ProgramPage_Fast:0000000000000048 .L0 
C:\Users\SOLDER~1\AppData\Local\Temp\ccKV8tJ7.s:2457   .text.FLASH_ProgramPage_Fast:000000000000004a .L0 
C:\Users\SOLDER~1\AppData\Local\Temp\ccKV8tJ7.s:2460   .text.FLASH_ProgramPage_Fast:000000000000004c .L0 
C:\Users\SOLDER~1\AppData\Local\Temp\ccKV8tJ7.s:2462   .text.FLASH_ProgramPage_Fast:0000000000000050 .L0 
C:\Users\SOLDER~1\AppData\Local\Temp\ccKV8tJ7.s:2465   .text.FLASH_ProgramPage_Fast:0000000000000056 .L0 
C:\Users\SOLDER~1\AppData\Local\Temp\ccKV8tJ7.s:2467   .text.FLASH_ProgramPage_Fast:0000000000000058 .L0 
C:\Users\SOLDER~1\AppData\Local\Temp\ccKV8tJ7.s:2471   .text.FLASH_ProgramPage_Fast:0000000000000062 .L0 
C:\Users\SOLDER~1\AppData\Local\Temp\ccKV8tJ7.s:2475   .text.FLASH_ProgramPage_Fast:000000000000006c .L0 
C:\Users\SOLDER~1\AppData\Local\Temp\ccKV8tJ7.s:2479   .text.FLASH_ProgramPage_Fast:0000000000000076 .L0 
C:\Users\SOLDER~1\AppData\Local\Temp\ccKV8tJ7.s:2482   .text.FLASH_ProgramPage_Fast:0000000000000078 .L0 
C:\Users\SOLDER~1\AppData\Local\Temp\ccKV8tJ7.s:2485   .text.FLASH_ProgramPage_Fast:000000000000007e .L0 
C:\Users\SOLDER~1\AppData\Local\Temp\ccKV8tJ7.s:2487   .text.FLASH_ProgramPage_Fast:0000000000000080 .L0 
C:\Users\SOLDER~1\AppData\Local\Temp\ccKV8tJ7.s:2490   .text.FLASH_ProgramPage_Fast:0000000000000082 .L0 
C:\Users\SOLDER~1\AppData\Local\Temp\ccKV8tJ7.s:2493   .text.FLASH_ProgramPage_Fast:0000000000000088 .L0 
C:\Users\SOLDER~1\AppData\Local\Temp\ccKV8tJ7.s:2497   .text.FLASH_ProgramPage_Fast:0000000000000092 .L0 
C:\Users\SOLDER~1\AppData\Local\Temp\ccKV8tJ7.s:2501   .text.FLASH_ProgramPage_Fast:000000000000009a .L0 
C:\Users\SOLDER~1\AppData\Local\Temp\ccKV8tJ7.s:2504   .text.FLASH_ProgramPage_Fast:000000000000009c .L0 
C:\Users\SOLDER~1\AppData\Local\Temp\ccKV8tJ7.s:2507   .text.FLASH_ProgramPage_Fast:00000000000000a2 .L0 
C:\Users\SOLDER~1\AppData\Local\Temp\ccKV8tJ7.s:2509   .text.FLASH_ProgramPage_Fast:00000000000000a4 .L0 
C:\Users\SOLDER~1\AppData\Local\Temp\ccKV8tJ7.s:2511   .text.FLASH_ProgramPage_Fast:00000000000000a6 .L0 
C:\Users\SOLDER~1\AppData\Local\Temp\ccKV8tJ7.s:2515   .text.FLASH_ProgramPage_Fast:00000000000000b0 .L0 
C:\Users\SOLDER~1\AppData\Local\Temp\ccKV8tJ7.s:2520   .text.FLASH_ProgramPage_Fast:00000000000000b8 .L0 
C:\Users\SOLDER~1\AppData\Local\Temp\ccKV8tJ7.s:2522   .text.FLASH_ProgramPage_Fast:00000000000000bc .L0 
C:\Users\SOLDER~1\AppData\Local\Temp\ccKV8tJ7.s:2523   .text.FLASH_ProgramPage_Fast:00000000000000bc .L0 
C:\Users\SOLDER~1\AppData\Local\Temp\ccKV8tJ7.s:2525   .text.FLASH_ProgramPage_Fast:00000000000000be .L0 
C:\Users\SOLDER~1\AppData\Local\Temp\ccKV8tJ7.s:2527   .text.FLASH_ProgramPage_Fast:00000000000000c0 .L0 
C:\Users\SOLDER~1\AppData\Local\Temp\ccKV8tJ7.s:2534   .text.FLASH_Access_Clock_Cfg:0000000000000000 FLASH_Access_Clock_Cfg
C:\Users\SOLDER~1\AppData\Local\Temp\ccKV8tJ7.s:2537   .text.FLASH_Access_Clock_Cfg:0000000000000000 .L0 
C:\Users\SOLDER~1\AppData\Local\Temp\ccKV8tJ7.s:2538   .text.FLASH_Access_Clock_Cfg:0000000000000000 $x
C:\Users\SOLDER~1\AppData\Local\Temp\ccKV8tJ7.s:2538   .text.FLASH_Access_Clock_Cfg:0000000000000000 .L0 
C:\Users\SOLDER~1\AppData\Local\Temp\ccKV8tJ7.s:2539   .text.FLASH_Access_Clock_Cfg:0000000000000002 .L0 
C:\Users\SOLDER~1\AppData\Local\Temp\ccKV8tJ7.s:2541   .text.FLASH_Access_Clock_Cfg:0000000000000004 .L0 
C:\Users\SOLDER~1\AppData\Local\Temp\ccKV8tJ7.s:2543   .text.FLASH_Access_Clock_Cfg:0000000000000006 .L0 
C:\Users\SOLDER~1\AppData\Local\Temp\ccKV8tJ7.s:2546   .text.FLASH_Access_Clock_Cfg:000000000000000a .L0 
C:\Users\SOLDER~1\AppData\Local\Temp\ccKV8tJ7.s:2550   .text.FLASH_Access_Clock_Cfg:0000000000000014 .L0 
C:\Users\SOLDER~1\AppData\Local\Temp\ccKV8tJ7.s:2555   .text.FLASH_Access_Clock_Cfg:000000000000001e .L0 
C:\Users\SOLDER~1\AppData\Local\Temp\ccKV8tJ7.s:2559   .text.FLASH_Access_Clock_Cfg:0000000000000028 .L0 
C:\Users\SOLDER~1\AppData\Local\Temp\ccKV8tJ7.s:2563   .text.FLASH_Access_Clock_Cfg:0000000000000030 .L0 
C:\Users\SOLDER~1\AppData\Local\Temp\ccKV8tJ7.s:2565   .text.FLASH_Access_Clock_Cfg:0000000000000034 .L0 
C:\Users\SOLDER~1\AppData\Local\Temp\ccKV8tJ7.s:2566   .text.FLASH_Access_Clock_Cfg:0000000000000034 .L0 
C:\Users\SOLDER~1\AppData\Local\Temp\ccKV8tJ7.s:2568   .text.FLASH_Access_Clock_Cfg:0000000000000036 .L0 
C:\Users\SOLDER~1\AppData\Local\Temp\ccKV8tJ7.s:2570   .text.FLASH_Access_Clock_Cfg:0000000000000038 .L0 
C:\Users\SOLDER~1\AppData\Local\Temp\ccKV8tJ7.s:2577   .text.FLASH_Enhance_Mode:0000000000000000 FLASH_Enhance_Mode
C:\Users\SOLDER~1\AppData\Local\Temp\ccKV8tJ7.s:2580   .text.FLASH_Enhance_Mode:0000000000000000 .L0 
C:\Users\SOLDER~1\AppData\Local\Temp\ccKV8tJ7.s:2581   .text.FLASH_Enhance_Mode:0000000000000000 $x
C:\Users\SOLDER~1\AppData\Local\Temp\ccKV8tJ7.s:2581   .text.FLASH_Enhance_Mode:0000000000000000 .L0 
C:\Users\SOLDER~1\AppData\Local\Temp\ccKV8tJ7.s:2582   .text.FLASH_Enhance_Mode:0000000000000002 .L0 
C:\Users\SOLDER~1\AppData\Local\Temp\ccKV8tJ7.s:2584   .text.FLASH_Enhance_Mode:0000000000000004 .L0 
C:\Users\SOLDER~1\AppData\Local\Temp\ccKV8tJ7.s:2586   .text.FLASH_Enhance_Mode:0000000000000006 .L0 
GAS LISTING C:\Users\SOLDER~1\AppData\Local\Temp\ccKV8tJ7.s 			page 82


C:\Users\SOLDER~1\AppData\Local\Temp\ccKV8tJ7.s:2589   .text.FLASH_Enhance_Mode:000000000000000a .L0 
C:\Users\SOLDER~1\AppData\Local\Temp\ccKV8tJ7.s:2592   .text.FLASH_Enhance_Mode:0000000000000010 .L0 
C:\Users\SOLDER~1\AppData\Local\Temp\ccKV8tJ7.s:2596   .text.FLASH_Enhance_Mode:000000000000001a .L0 
C:\Users\SOLDER~1\AppData\Local\Temp\ccKV8tJ7.s:2600   .text.FLASH_Enhance_Mode:0000000000000022 .L0 
C:\Users\SOLDER~1\AppData\Local\Temp\ccKV8tJ7.s:2603   .text.FLASH_Enhance_Mode:0000000000000024 .L0 
C:\Users\SOLDER~1\AppData\Local\Temp\ccKV8tJ7.s:2607   .text.FLASH_Enhance_Mode:000000000000002e .L0 
C:\Users\SOLDER~1\AppData\Local\Temp\ccKV8tJ7.s:2612   .text.FLASH_Enhance_Mode:0000000000000038 .L0 
C:\Users\SOLDER~1\AppData\Local\Temp\ccKV8tJ7.s:2616   .text.FLASH_Enhance_Mode:0000000000000042 .L0 
C:\Users\SOLDER~1\AppData\Local\Temp\ccKV8tJ7.s:2621   .text.FLASH_Enhance_Mode:000000000000004a .L0 
C:\Users\SOLDER~1\AppData\Local\Temp\ccKV8tJ7.s:2623   .text.FLASH_Enhance_Mode:000000000000004e .L0 
C:\Users\SOLDER~1\AppData\Local\Temp\ccKV8tJ7.s:2624   .text.FLASH_Enhance_Mode:000000000000004e .L0 
C:\Users\SOLDER~1\AppData\Local\Temp\ccKV8tJ7.s:2626   .text.FLASH_Enhance_Mode:0000000000000050 .L0 
C:\Users\SOLDER~1\AppData\Local\Temp\ccKV8tJ7.s:2628   .text.FLASH_Enhance_Mode:0000000000000052 .L0 
C:\Users\SOLDER~1\AppData\Local\Temp\ccKV8tJ7.s:2635   .text.FLASH_GetMACAddress:0000000000000000 FLASH_GetMACAddress
C:\Users\SOLDER~1\AppData\Local\Temp\ccKV8tJ7.s:2638   .text.FLASH_GetMACAddress:0000000000000000 .L0 
C:\Users\SOLDER~1\AppData\Local\Temp\ccKV8tJ7.s:2639   .text.FLASH_GetMACAddress:0000000000000000 $x
C:\Users\SOLDER~1\AppData\Local\Temp\ccKV8tJ7.s:2639   .text.FLASH_GetMACAddress:0000000000000000 .L0 
C:\Users\SOLDER~1\AppData\Local\Temp\ccKV8tJ7.s:2640   .text.FLASH_GetMACAddress:0000000000000002 .L0 
C:\Users\SOLDER~1\AppData\Local\Temp\ccKV8tJ7.s:2642   .text.FLASH_GetMACAddress:0000000000000004 .L0 
C:\Users\SOLDER~1\AppData\Local\Temp\ccKV8tJ7.s:2644   .text.FLASH_GetMACAddress:0000000000000006 .L0 
C:\Users\SOLDER~1\AppData\Local\Temp\ccKV8tJ7.s:2647   .text.FLASH_GetMACAddress:000000000000000a .L0 
C:\Users\SOLDER~1\AppData\Local\Temp\ccKV8tJ7.s:2650   .text.FLASH_GetMACAddress:0000000000000012 .L0 
C:\Users\SOLDER~1\AppData\Local\Temp\ccKV8tJ7.s:2653   .text.FLASH_GetMACAddress:0000000000000018 .L0 
C:\Users\SOLDER~1\AppData\Local\Temp\ccKV8tJ7.s:2658   .text.FLASH_GetMACAddress:0000000000000026 .L0 
C:\Users\SOLDER~1\AppData\Local\Temp\ccKV8tJ7.s:2661   .text.FLASH_GetMACAddress:000000000000002e .L0 
C:\Users\SOLDER~1\AppData\Local\Temp\ccKV8tJ7.s:2664   .text.FLASH_GetMACAddress:0000000000000034 .L0 
C:\Users\SOLDER~1\AppData\Local\Temp\ccKV8tJ7.s:2667   .text.FLASH_GetMACAddress:000000000000003a .L0 
C:\Users\SOLDER~1\AppData\Local\Temp\ccKV8tJ7.s:2670   .text.FLASH_GetMACAddress:0000000000000042 .L0 
C:\Users\SOLDER~1\AppData\Local\Temp\ccKV8tJ7.s:2673   .text.FLASH_GetMACAddress:0000000000000048 .L0 
C:\Users\SOLDER~1\AppData\Local\Temp\ccKV8tJ7.s:2676   .text.FLASH_GetMACAddress:000000000000004e .L0 
C:\Users\SOLDER~1\AppData\Local\Temp\ccKV8tJ7.s:2679   .text.FLASH_GetMACAddress:0000000000000056 .L0 
C:\Users\SOLDER~1\AppData\Local\Temp\ccKV8tJ7.s:2682   .text.FLASH_GetMACAddress:000000000000005c .L0 
C:\Users\SOLDER~1\AppData\Local\Temp\ccKV8tJ7.s:2685   .text.FLASH_GetMACAddress:0000000000000062 .L0 
C:\Users\SOLDER~1\AppData\Local\Temp\ccKV8tJ7.s:2688   .text.FLASH_GetMACAddress:000000000000006a .L0 
C:\Users\SOLDER~1\AppData\Local\Temp\ccKV8tJ7.s:2691   .text.FLASH_GetMACAddress:0000000000000070 .L0 
C:\Users\SOLDER~1\AppData\Local\Temp\ccKV8tJ7.s:2694   .text.FLASH_GetMACAddress:0000000000000076 .L0 
C:\Users\SOLDER~1\AppData\Local\Temp\ccKV8tJ7.s:2698   .text.FLASH_GetMACAddress:0000000000000080 .L0 
C:\Users\SOLDER~1\AppData\Local\Temp\ccKV8tJ7.s:2701   .text.FLASH_GetMACAddress:0000000000000088 .L0 
C:\Users\SOLDER~1\AppData\Local\Temp\ccKV8tJ7.s:2704   .text.FLASH_GetMACAddress:000000000000008e .L0 
C:\Users\SOLDER~1\AppData\Local\Temp\ccKV8tJ7.s:2707   .text.FLASH_GetMACAddress:0000000000000094 .L0 
C:\Users\SOLDER~1\AppData\Local\Temp\ccKV8tJ7.s:2709   .text.FLASH_GetMACAddress:0000000000000098 .L0 
C:\Users\SOLDER~1\AppData\Local\Temp\ccKV8tJ7.s:2710   .text.FLASH_GetMACAddress:0000000000000098 .L0 
C:\Users\SOLDER~1\AppData\Local\Temp\ccKV8tJ7.s:2712   .text.FLASH_GetMACAddress:000000000000009a .L0 
C:\Users\SOLDER~1\AppData\Local\Temp\ccKV8tJ7.s:2714   .text.FLASH_GetMACAddress:000000000000009c .L0 
C:\Users\SOLDER~1\AppData\Local\Temp\ccKV8tJ7.s:33847  .debug_line_str:0000000000000067 .L0 
C:\Users\SOLDER~1\AppData\Local\Temp\ccKV8tJ7.s:33847  .debug_line_str:00000000000000b1 .L0 
C:\Users\SOLDER~1\AppData\Local\Temp\ccKV8tJ7.s:33847  .debug_line_str:00000000000000bd .L0 
C:\Users\SOLDER~1\AppData\Local\Temp\ccKV8tJ7.s:33847  .debug_line_str:000000000000010a .L0 
C:\Users\SOLDER~1\AppData\Local\Temp\ccKV8tJ7.s:33847  .debug_line_str:0000000000000153 .L0 
C:\Users\SOLDER~1\AppData\Local\Temp\ccKV8tJ7.s:33847  .debug_line_str:000000000000015f .L0 
C:\Users\SOLDER~1\AppData\Local\Temp\ccKV8tJ7.s:33847  .debug_line_str:00000000000001b3 .L0 
C:\Users\SOLDER~1\AppData\Local\Temp\ccKV8tJ7.s:33847  .debug_line_str:00000000000001f8 .L0 
C:\Users\SOLDER~1\AppData\Local\Temp\ccKV8tJ7.s:33847  .debug_line_str:0000000000000209 .L0 
C:\Users\SOLDER~1\AppData\Local\Temp\ccKV8tJ7.s:33847  .debug_line_str:000000000000021a .L0 
C:\Users\SOLDER~1\AppData\Local\Temp\ccKV8tJ7.s:33847  .debug_line_str:000000000000022b .L0 
C:\Users\SOLDER~1\AppData\Local\Temp\ccKV8tJ7.s:33847  .debug_line_str:0000000000000235 .L0 
C:\Users\SOLDER~1\AppData\Local\Temp\ccKV8tJ7.s:33847  .debug_line_str:0000000000000242 .L0 
GAS LISTING C:\Users\SOLDER~1\AppData\Local\Temp\ccKV8tJ7.s 			page 83


C:\Users\SOLDER~1\AppData\Local\Temp\ccKV8tJ7.s:33847  .debug_line_str:000000000000024d .L0 
C:\Users\SOLDER~1\AppData\Local\Temp\ccKV8tJ7.s:33847  .debug_line_str:000000000000025e .L0 
C:\Users\SOLDER~1\AppData\Local\Temp\ccKV8tJ7.s:33847  .debug_line_str:0000000000000267 .L0 
C:\Users\SOLDER~1\AppData\Local\Temp\ccKV8tJ7.s:33847  .debug_line_str:0000000000000270 .L0 
C:\Users\SOLDER~1\AppData\Local\Temp\ccKV8tJ7.s:33847  .debug_line_str:000000000000027b .L0 
C:\Users\SOLDER~1\AppData\Local\Temp\ccKV8tJ7.s:33847  .debug_line_str:000000000000028d .L0 
C:\Users\SOLDER~1\AppData\Local\Temp\ccKV8tJ7.s:33847  .debug_line_str:0000000000000297 .L0 
C:\Users\SOLDER~1\AppData\Local\Temp\ccKV8tJ7.s:33847  .debug_line_str:00000000000002a7 .L0 
C:\Users\SOLDER~1\AppData\Local\Temp\ccKV8tJ7.s:33847  .debug_line_str:00000000000002b6 .L0 
C:\Users\SOLDER~1\AppData\Local\Temp\ccKV8tJ7.s:33847  .debug_line_str:00000000000002c5 .L0 
C:\Users\SOLDER~1\AppData\Local\Temp\ccKV8tJ7.s:33847  .debug_line_str:00000000000002d4 .L0 
C:\Users\SOLDER~1\AppData\Local\Temp\ccKV8tJ7.s:33847  .debug_line_str:00000000000002e3 .L0 
C:\Users\SOLDER~1\AppData\Local\Temp\ccKV8tJ7.s:33847  .debug_line_str:00000000000002f5 .L0 
C:\Users\SOLDER~1\AppData\Local\Temp\ccKV8tJ7.s:33847  .debug_line_str:0000000000000304 .L0 
C:\Users\SOLDER~1\AppData\Local\Temp\ccKV8tJ7.s:33847  .debug_line_str:0000000000000314 .L0 
C:\Users\SOLDER~1\AppData\Local\Temp\ccKV8tJ7.s:33847  .debug_line_str:0000000000000324 .L0 
C:\Users\SOLDER~1\AppData\Local\Temp\ccKV8tJ7.s:33847  .debug_line_str:0000000000000333 .L0 
C:\Users\SOLDER~1\AppData\Local\Temp\ccKV8tJ7.s:33847  .debug_line_str:0000000000000343 .L0 
C:\Users\SOLDER~1\AppData\Local\Temp\ccKV8tJ7.s:33847  .debug_line_str:0000000000000352 .L0 
C:\Users\SOLDER~1\AppData\Local\Temp\ccKV8tJ7.s:33847  .debug_line_str:0000000000000361 .L0 
C:\Users\SOLDER~1\AppData\Local\Temp\ccKV8tJ7.s:33847  .debug_line_str:0000000000000370 .L0 
C:\Users\SOLDER~1\AppData\Local\Temp\ccKV8tJ7.s:33847  .debug_line_str:000000000000037f .L0 
C:\Users\SOLDER~1\AppData\Local\Temp\ccKV8tJ7.s:33847  .debug_line_str:000000000000038e .L0 
C:\Users\SOLDER~1\AppData\Local\Temp\ccKV8tJ7.s:33847  .debug_line_str:000000000000039f .L0 
C:\Users\SOLDER~1\AppData\Local\Temp\ccKV8tJ7.s:33847  .debug_line_str:00000000000003af .L0 
C:\Users\SOLDER~1\AppData\Local\Temp\ccKV8tJ7.s:48     .text.FLASH_Unlock:000000000000002a .L0 
C:\Users\SOLDER~1\AppData\Local\Temp\ccKV8tJ7.s:85     .text.FLASH_UnlockBank1:000000000000002a .L0 
C:\Users\SOLDER~1\AppData\Local\Temp\ccKV8tJ7.s:117    .text.FLASH_Lock:000000000000001e .L0 
C:\Users\SOLDER~1\AppData\Local\Temp\ccKV8tJ7.s:149    .text.FLASH_LockBank1:000000000000001e .L0 
C:\Users\SOLDER~1\AppData\Local\Temp\ccKV8tJ7.s:223    .text.FLASH_ErasePage:0000000000000082 .L0 
C:\Users\SOLDER~1\AppData\Local\Temp\ccKV8tJ7.s:291    .text.FLASH_EraseAllPages:0000000000000074 .L0 
C:\Users\SOLDER~1\AppData\Local\Temp\ccKV8tJ7.s:359    .text.FLASH_EraseAllBank1Pages:0000000000000074 .L0 
C:\Users\SOLDER~1\AppData\Local\Temp\ccKV8tJ7.s:554    .text.FLASH_EraseOptionBytes:0000000000000188 .L0 
C:\Users\SOLDER~1\AppData\Local\Temp\ccKV8tJ7.s:658    .text.FLASH_ProgramWord:00000000000000bc .L0 
C:\Users\SOLDER~1\AppData\Local\Temp\ccKV8tJ7.s:727    .text.FLASH_ProgramHalfWord:0000000000000074 .L0 
C:\Users\SOLDER~1\AppData\Local\Temp\ccKV8tJ7.s:952    .text.FLASH_ProgramOptionByteData:00000000000001b4 .L0 
C:\Users\SOLDER~1\AppData\Local\Temp\ccKV8tJ7.s:1200   .text.FLASH_EnableWriteProtection:00000000000001e8 .L0 
C:\Users\SOLDER~1\AppData\Local\Temp\ccKV8tJ7.s:1403   .text.FLASH_ReadOutProtection:0000000000000182 .L0 
C:\Users\SOLDER~1\AppData\Local\Temp\ccKV8tJ7.s:1615   .text.FLASH_UserOptionByteConfig:000000000000019e .L0 
C:\Users\SOLDER~1\AppData\Local\Temp\ccKV8tJ7.s:1645   .text.FLASH_GetUserOptionByte:0000000000000016 .L0 
C:\Users\SOLDER~1\AppData\Local\Temp\ccKV8tJ7.s:1674   .text.FLASH_GetWriteProtectionOptionByte:0000000000000014 .L0 
C:\Users\SOLDER~1\AppData\Local\Temp\ccKV8tJ7.s:1718   .text.FLASH_GetReadOutProtectionStatus:000000000000002c .L0 
C:\Users\SOLDER~1\AppData\Local\Temp\ccKV8tJ7.s:1771   .text.FLASH_ITConfig:0000000000000046 .L0 
C:\Users\SOLDER~1\AppData\Local\Temp\ccKV8tJ7.s:1837   .text.FLASH_GetFlagStatus:0000000000000056 .L0 
C:\Users\SOLDER~1\AppData\Local\Temp\ccKV8tJ7.s:1868   .text.FLASH_ClearFlag:000000000000001c .L0 
C:\Users\SOLDER~1\AppData\Local\Temp\ccKV8tJ7.s:1927   .text.FLASH_GetStatus:0000000000000048 .L0 
C:\Users\SOLDER~1\AppData\Local\Temp\ccKV8tJ7.s:1986   .text.FLASH_GetBank1Status:0000000000000048 .L0 
C:\Users\SOLDER~1\AppData\Local\Temp\ccKV8tJ7.s:2050   .text.FLASH_WaitForLastOperation:0000000000000060 .L0 
C:\Users\SOLDER~1\AppData\Local\Temp\ccKV8tJ7.s:2114   .text.FLASH_WaitForLastBank1Operation:0000000000000060 .L0 
C:\Users\SOLDER~1\AppData\Local\Temp\ccKV8tJ7.s:2163   .text.FLASH_Unlock_Fast:0000000000000046 .L0 
C:\Users\SOLDER~1\AppData\Local\Temp\ccKV8tJ7.s:2196   .text.FLASH_Lock_Fast:000000000000001e .L0 
C:\Users\SOLDER~1\AppData\Local\Temp\ccKV8tJ7.s:2265   .text.FLASH_ErasePage_Fast:0000000000000068 .L0 
C:\Users\SOLDER~1\AppData\Local\Temp\ccKV8tJ7.s:2335   .text.FLASH_EraseBlock_32K_Fast:000000000000006a .L0 
C:\Users\SOLDER~1\AppData\Local\Temp\ccKV8tJ7.s:2405   .text.FLASH_EraseBlock_64K_Fast:000000000000006a .L0 
C:\Users\SOLDER~1\AppData\Local\Temp\ccKV8tJ7.s:2530   .text.FLASH_ProgramPage_Fast:00000000000000c0 .L0 
C:\Users\SOLDER~1\AppData\Local\Temp\ccKV8tJ7.s:2573   .text.FLASH_Access_Clock_Cfg:0000000000000038 .L0 
C:\Users\SOLDER~1\AppData\Local\Temp\ccKV8tJ7.s:2631   .text.FLASH_Enhance_Mode:0000000000000052 .L0 
GAS LISTING C:\Users\SOLDER~1\AppData\Local\Temp\ccKV8tJ7.s 			page 84


C:\Users\SOLDER~1\AppData\Local\Temp\ccKV8tJ7.s:2717   .text.FLASH_GetMACAddress:000000000000009c .L0 
                     .debug_frame:0000000000000000 .L0 
C:\Users\SOLDER~1\AppData\Local\Temp\ccKV8tJ7.s:207    .text.FLASH_ErasePage:0000000000000074 .L6
C:\Users\SOLDER~1\AppData\Local\Temp\ccKV8tJ7.s:275    .text.FLASH_EraseAllPages:0000000000000066 .L9
C:\Users\SOLDER~1\AppData\Local\Temp\ccKV8tJ7.s:343    .text.FLASH_EraseAllBank1Pages:0000000000000066 .L12
C:\Users\SOLDER~1\AppData\Local\Temp\ccKV8tJ7.s:392    .text.FLASH_EraseOptionBytes:0000000000000032 .L15
C:\Users\SOLDER~1\AppData\Local\Temp\ccKV8tJ7.s:538    .text.FLASH_EraseOptionBytes:000000000000017a .L16
C:\Users\SOLDER~1\AppData\Local\Temp\ccKV8tJ7.s:471    .text.FLASH_EraseOptionBytes:00000000000000f8 .L17
C:\Users\SOLDER~1\AppData\Local\Temp\ccKV8tJ7.s:483    .text.FLASH_EraseOptionBytes:0000000000000110 .L18
C:\Users\SOLDER~1\AppData\Local\Temp\ccKV8tJ7.s:525    .text.FLASH_EraseOptionBytes:000000000000015e .L19
C:\Users\SOLDER~1\AppData\Local\Temp\ccKV8tJ7.s:511    .text.FLASH_EraseOptionBytes:0000000000000142 .L20
C:\Users\SOLDER~1\AppData\Local\Temp\ccKV8tJ7.s:495    .text.FLASH_EraseOptionBytes:0000000000000126 .L21
C:\Users\SOLDER~1\AppData\Local\Temp\ccKV8tJ7.s:642    .text.FLASH_ProgramWord:00000000000000ae .L24
C:\Users\SOLDER~1\AppData\Local\Temp\ccKV8tJ7.s:634    .text.FLASH_ProgramWord:00000000000000a0 .L25
C:\Users\SOLDER~1\AppData\Local\Temp\ccKV8tJ7.s:711    .text.FLASH_ProgramHalfWord:0000000000000066 .L28
C:\Users\SOLDER~1\AppData\Local\Temp\ccKV8tJ7.s:936    .text.FLASH_ProgramOptionByteData:00000000000001a6 .L31
C:\Users\SOLDER~1\AppData\Local\Temp\ccKV8tJ7.s:804    .text.FLASH_ProgramOptionByteData:0000000000000098 .L32
C:\Users\SOLDER~1\AppData\Local\Temp\ccKV8tJ7.s:777    .text.FLASH_ProgramOptionByteData:000000000000005e .L33
C:\Users\SOLDER~1\AppData\Local\Temp\ccKV8tJ7.s:826    .text.FLASH_ProgramOptionByteData:00000000000000c8 .L34
C:\Users\SOLDER~1\AppData\Local\Temp\ccKV8tJ7.s:923    .text.FLASH_ProgramOptionByteData:000000000000018a .L35
C:\Users\SOLDER~1\AppData\Local\Temp\ccKV8tJ7.s:909    .text.FLASH_ProgramOptionByteData:000000000000016e .L36
C:\Users\SOLDER~1\AppData\Local\Temp\ccKV8tJ7.s:885    .text.FLASH_ProgramOptionByteData:0000000000000140 .L37
C:\Users\SOLDER~1\AppData\Local\Temp\ccKV8tJ7.s:1184   .text.FLASH_EnableWriteProtection:00000000000001da .L40
C:\Users\SOLDER~1\AppData\Local\Temp\ccKV8tJ7.s:1073   .text.FLASH_EnableWriteProtection:00000000000000f4 .L41
C:\Users\SOLDER~1\AppData\Local\Temp\ccKV8tJ7.s:1046   .text.FLASH_EnableWriteProtection:00000000000000ba .L42
C:\Users\SOLDER~1\AppData\Local\Temp\ccKV8tJ7.s:1095   .text.FLASH_EnableWriteProtection:0000000000000124 .L43
C:\Users\SOLDER~1\AppData\Local\Temp\ccKV8tJ7.s:1171   .text.FLASH_EnableWriteProtection:00000000000001be .L44
C:\Users\SOLDER~1\AppData\Local\Temp\ccKV8tJ7.s:1157   .text.FLASH_EnableWriteProtection:00000000000001a2 .L45
C:\Users\SOLDER~1\AppData\Local\Temp\ccKV8tJ7.s:1133   .text.FLASH_EnableWriteProtection:0000000000000174 .L46
C:\Users\SOLDER~1\AppData\Local\Temp\ccKV8tJ7.s:1387   .text.FLASH_ReadOutProtection:0000000000000174 .L49
C:\Users\SOLDER~1\AppData\Local\Temp\ccKV8tJ7.s:1275   .text.FLASH_ReadOutProtection:0000000000000094 .L50
C:\Users\SOLDER~1\AppData\Local\Temp\ccKV8tJ7.s:1248   .text.FLASH_ReadOutProtection:000000000000005a .L51
C:\Users\SOLDER~1\AppData\Local\Temp\ccKV8tJ7.s:1297   .text.FLASH_ReadOutProtection:00000000000000c4 .L52
C:\Users\SOLDER~1\AppData\Local\Temp\ccKV8tJ7.s:1320   .text.FLASH_ReadOutProtection:00000000000000f0 .L53
C:\Users\SOLDER~1\AppData\Local\Temp\ccKV8tJ7.s:1324   .text.FLASH_ReadOutProtection:00000000000000f8 .L54
C:\Users\SOLDER~1\AppData\Local\Temp\ccKV8tJ7.s:1374   .text.FLASH_ReadOutProtection:0000000000000158 .L55
C:\Users\SOLDER~1\AppData\Local\Temp\ccKV8tJ7.s:1360   .text.FLASH_ReadOutProtection:000000000000013c .L56
C:\Users\SOLDER~1\AppData\Local\Temp\ccKV8tJ7.s:1336   .text.FLASH_ReadOutProtection:000000000000010e .L57
C:\Users\SOLDER~1\AppData\Local\Temp\ccKV8tJ7.s:1599   .text.FLASH_UserOptionByteConfig:0000000000000190 .L60
C:\Users\SOLDER~1\AppData\Local\Temp\ccKV8tJ7.s:1485   .text.FLASH_UserOptionByteConfig:00000000000000a4 .L61
C:\Users\SOLDER~1\AppData\Local\Temp\ccKV8tJ7.s:1458   .text.FLASH_UserOptionByteConfig:000000000000006a .L62
C:\Users\SOLDER~1\AppData\Local\Temp\ccKV8tJ7.s:1507   .text.FLASH_UserOptionByteConfig:00000000000000d4 .L63
C:\Users\SOLDER~1\AppData\Local\Temp\ccKV8tJ7.s:1586   .text.FLASH_UserOptionByteConfig:0000000000000174 .L64
C:\Users\SOLDER~1\AppData\Local\Temp\ccKV8tJ7.s:1572   .text.FLASH_UserOptionByteConfig:0000000000000158 .L65
C:\Users\SOLDER~1\AppData\Local\Temp\ccKV8tJ7.s:1548   .text.FLASH_UserOptionByteConfig:000000000000012a .L66
C:\Users\SOLDER~1\AppData\Local\Temp\ccKV8tJ7.s:1701   .text.FLASH_GetReadOutProtectionStatus:000000000000001c .L73
C:\Users\SOLDER~1\AppData\Local\Temp\ccKV8tJ7.s:1704   .text.FLASH_GetReadOutProtectionStatus:0000000000000020 .L74
C:\Users\SOLDER~1\AppData\Local\Temp\ccKV8tJ7.s:1747   .text.FLASH_ITConfig:0000000000000028 .L77
C:\Users\SOLDER~1\AppData\Local\Temp\ccKV8tJ7.s:1759   .text.FLASH_ITConfig:000000000000003e .L79
C:\Users\SOLDER~1\AppData\Local\Temp\ccKV8tJ7.s:1807   .text.FLASH_GetFlagStatus:0000000000000030 .L81
C:\Users\SOLDER~1\AppData\Local\Temp\ccKV8tJ7.s:1803   .text.FLASH_GetFlagStatus:000000000000002a .L82
C:\Users\SOLDER~1\AppData\Local\Temp\ccKV8tJ7.s:1823   .text.FLASH_GetFlagStatus:000000000000004a .L83
C:\Users\SOLDER~1\AppData\Local\Temp\ccKV8tJ7.s:1820   .text.FLASH_GetFlagStatus:0000000000000046 .L84
C:\Users\SOLDER~1\AppData\Local\Temp\ccKV8tJ7.s:1897   .text.FLASH_GetStatus:0000000000000024 .L88
C:\Users\SOLDER~1\AppData\Local\Temp\ccKV8tJ7.s:1913   .text.FLASH_GetStatus:000000000000003c .L89
C:\Users\SOLDER~1\AppData\Local\Temp\ccKV8tJ7.s:1909   .text.FLASH_GetStatus:0000000000000036 .L90
C:\Users\SOLDER~1\AppData\Local\Temp\ccKV8tJ7.s:1956   .text.FLASH_GetBank1Status:0000000000000024 .L93
GAS LISTING C:\Users\SOLDER~1\AppData\Local\Temp\ccKV8tJ7.s 			page 85


C:\Users\SOLDER~1\AppData\Local\Temp\ccKV8tJ7.s:1972   .text.FLASH_GetBank1Status:000000000000003c .L94
C:\Users\SOLDER~1\AppData\Local\Temp\ccKV8tJ7.s:1968   .text.FLASH_GetBank1Status:0000000000000036 .L95
C:\Users\SOLDER~1\AppData\Local\Temp\ccKV8tJ7.s:2019   .text.FLASH_WaitForLastOperation:0000000000000036 .L98
C:\Users\SOLDER~1\AppData\Local\Temp\ccKV8tJ7.s:2027   .text.FLASH_WaitForLastOperation:0000000000000046 .L99
C:\Users\SOLDER~1\AppData\Local\Temp\ccKV8tJ7.s:2011   .text.FLASH_WaitForLastOperation:0000000000000020 .L100
C:\Users\SOLDER~1\AppData\Local\Temp\ccKV8tJ7.s:2034   .text.FLASH_WaitForLastOperation:0000000000000052 .L101
C:\Users\SOLDER~1\AppData\Local\Temp\ccKV8tJ7.s:2083   .text.FLASH_WaitForLastBank1Operation:0000000000000036 .L104
C:\Users\SOLDER~1\AppData\Local\Temp\ccKV8tJ7.s:2091   .text.FLASH_WaitForLastBank1Operation:0000000000000046 .L105
C:\Users\SOLDER~1\AppData\Local\Temp\ccKV8tJ7.s:2075   .text.FLASH_WaitForLastBank1Operation:0000000000000020 .L106
C:\Users\SOLDER~1\AppData\Local\Temp\ccKV8tJ7.s:2098   .text.FLASH_WaitForLastBank1Operation:0000000000000052 .L107
C:\Users\SOLDER~1\AppData\Local\Temp\ccKV8tJ7.s:2237   .text.FLASH_ErasePage_Fast:0000000000000044 .L112
C:\Users\SOLDER~1\AppData\Local\Temp\ccKV8tJ7.s:2307   .text.FLASH_EraseBlock_32K_Fast:0000000000000044 .L114
C:\Users\SOLDER~1\AppData\Local\Temp\ccKV8tJ7.s:2377   .text.FLASH_EraseBlock_64K_Fast:0000000000000044 .L116
C:\Users\SOLDER~1\AppData\Local\Temp\ccKV8tJ7.s:2438   .text.FLASH_ProgramPage_Fast:0000000000000034 .L118
C:\Users\SOLDER~1\AppData\Local\Temp\ccKV8tJ7.s:2448   .text.FLASH_ProgramPage_Fast:0000000000000040 .L119
C:\Users\SOLDER~1\AppData\Local\Temp\ccKV8tJ7.s:2488   .text.FLASH_ProgramPage_Fast:0000000000000082 .L120
C:\Users\SOLDER~1\AppData\Local\Temp\ccKV8tJ7.s:2480   .text.FLASH_ProgramPage_Fast:0000000000000078 .L121
C:\Users\SOLDER~1\AppData\Local\Temp\ccKV8tJ7.s:2458   .text.FLASH_ProgramPage_Fast:000000000000004c .L122
C:\Users\SOLDER~1\AppData\Local\Temp\ccKV8tJ7.s:2502   .text.FLASH_ProgramPage_Fast:000000000000009c .L123
C:\Users\SOLDER~1\AppData\Local\Temp\ccKV8tJ7.s:2601   .text.FLASH_Enhance_Mode:0000000000000024 .L126
C:\Users\SOLDER~1\AppData\Local\Temp\ccKV8tJ7.s:2619   .text.FLASH_Enhance_Mode:000000000000004a .L128
C:\Users\SOLDER~1\AppData\Local\Temp\ccKV8tJ7.s:3820   .debug_abbrev:0000000000000000 .Ldebug_abbrev0
C:\Users\SOLDER~1\AppData\Local\Temp\ccKV8tJ7.s:22240  .debug_str:0000000000000669 .LASF5851
C:\Users\SOLDER~1\AppData\Local\Temp\ccKV8tJ7.s:33843  .debug_line_str:0000000000000000 .LASF0
C:\Users\SOLDER~1\AppData\Local\Temp\ccKV8tJ7.s:33845  .debug_line_str:000000000000001d .LASF1
C:\Users\SOLDER~1\AppData\Local\Temp\ccKV8tJ7.s:4421   .debug_rnglists:000000000000000c .LLRL0
C:\Users\SOLDER~1\AppData\Local\Temp\ccKV8tJ7.s:22140  .debug_line:0000000000000000 .Ldebug_line0
C:\Users\SOLDER~1\AppData\Local\Temp\ccKV8tJ7.s:4524   .debug_macro:0000000000000000 .Ldebug_macro0
C:\Users\SOLDER~1\AppData\Local\Temp\ccKV8tJ7.s:33778  .debug_str:000000000002f2c0 .LASF5747
C:\Users\SOLDER~1\AppData\Local\Temp\ccKV8tJ7.s:28478  .debug_str:0000000000019b7b .LASF5748
C:\Users\SOLDER~1\AppData\Local\Temp\ccKV8tJ7.s:24420  .debug_str:0000000000009398 .LASF5751
C:\Users\SOLDER~1\AppData\Local\Temp\ccKV8tJ7.s:27970  .debug_str:0000000000017a48 .LASF5749
C:\Users\SOLDER~1\AppData\Local\Temp\ccKV8tJ7.s:27256  .debug_str:0000000000014caa .LASF5750
C:\Users\SOLDER~1\AppData\Local\Temp\ccKV8tJ7.s:25796  .debug_str:000000000000edc3 .LASF5752
C:\Users\SOLDER~1\AppData\Local\Temp\ccKV8tJ7.s:27372  .debug_str:000000000001541e .LASF5753
C:\Users\SOLDER~1\AppData\Local\Temp\ccKV8tJ7.s:31794  .debug_str:000000000002722f .LASF5754
C:\Users\SOLDER~1\AppData\Local\Temp\ccKV8tJ7.s:28678  .debug_str:000000000001a7ce .LASF5755
C:\Users\SOLDER~1\AppData\Local\Temp\ccKV8tJ7.s:22252  .debug_str:00000000000007c5 .LASF5756
C:\Users\SOLDER~1\AppData\Local\Temp\ccKV8tJ7.s:22162  .debug_str:000000000000014f .LASF5757
C:\Users\SOLDER~1\AppData\Local\Temp\ccKV8tJ7.s:31882  .debug_str:00000000000277d7 .LASF5758
C:\Users\SOLDER~1\AppData\Local\Temp\ccKV8tJ7.s:31446  .debug_str:0000000000025aa9 .LASF5759
C:\Users\SOLDER~1\AppData\Local\Temp\ccKV8tJ7.s:31810  .debug_str:000000000002731c .LASF5760
C:\Users\SOLDER~1\AppData\Local\Temp\ccKV8tJ7.s:22984  .debug_str:0000000000003790 .LASF5761
C:\Users\SOLDER~1\AppData\Local\Temp\ccKV8tJ7.s:24230  .debug_str:0000000000008715 .LASF5762
C:\Users\SOLDER~1\AppData\Local\Temp\ccKV8tJ7.s:25778  .debug_str:000000000000ecc1 .LASF5763
C:\Users\SOLDER~1\AppData\Local\Temp\ccKV8tJ7.s:27728  .debug_str:0000000000016a73 .LASF5764
C:\Users\SOLDER~1\AppData\Local\Temp\ccKV8tJ7.s:31536  .debug_str:00000000000260bd .LASF5765
C:\Users\SOLDER~1\AppData\Local\Temp\ccKV8tJ7.s:24794  .debug_str:000000000000abfc .LASF5766
C:\Users\SOLDER~1\AppData\Local\Temp\ccKV8tJ7.s:26318  .debug_str:0000000000010f4a .LASF5767
C:\Users\SOLDER~1\AppData\Local\Temp\ccKV8tJ7.s:26584  .debug_str:0000000000011ff1 .LASF5768
C:\Users\SOLDER~1\AppData\Local\Temp\ccKV8tJ7.s:28324  .debug_str:00000000000191a9 .LASF5769
C:\Users\SOLDER~1\AppData\Local\Temp\ccKV8tJ7.s:33836  .debug_str:000000000002f659 .LASF5770
C:\Users\SOLDER~1\AppData\Local\Temp\ccKV8tJ7.s:30838  .debug_str:0000000000023377 .LASF5771
C:\Users\SOLDER~1\AppData\Local\Temp\ccKV8tJ7.s:28876  .debug_str:000000000001b463 .LASF5772
C:\Users\SOLDER~1\AppData\Local\Temp\ccKV8tJ7.s:29972  .debug_str:000000000001fc37 .LASF5773
C:\Users\SOLDER~1\AppData\Local\Temp\ccKV8tJ7.s:22522  .debug_str:0000000000001993 .LASF5774
C:\Users\SOLDER~1\AppData\Local\Temp\ccKV8tJ7.s:31638  .debug_str:00000000000267ce .LASF5775
GAS LISTING C:\Users\SOLDER~1\AppData\Local\Temp\ccKV8tJ7.s 			page 86


C:\Users\SOLDER~1\AppData\Local\Temp\ccKV8tJ7.s:31364  .debug_str:0000000000025598 .LASF5776
C:\Users\SOLDER~1\AppData\Local\Temp\ccKV8tJ7.s:23040  .debug_str:0000000000003b26 .LASF5777
C:\Users\SOLDER~1\AppData\Local\Temp\ccKV8tJ7.s:23104  .debug_str:0000000000003f1a .LASF5778
C:\Users\SOLDER~1\AppData\Local\Temp\ccKV8tJ7.s:23106  .debug_str:0000000000003f20 .LASF5779
C:\Users\SOLDER~1\AppData\Local\Temp\ccKV8tJ7.s:26524  .debug_str:0000000000011c67 .LASF5780
C:\Users\SOLDER~1\AppData\Local\Temp\ccKV8tJ7.s:27396  .debug_str:000000000001558e .LASF5781
C:\Users\SOLDER~1\AppData\Local\Temp\ccKV8tJ7.s:26528  .debug_str:0000000000011c7e .LASF5782
C:\Users\SOLDER~1\AppData\Local\Temp\ccKV8tJ7.s:33696  .debug_str:000000000002ed76 .LASF5783
C:\Users\SOLDER~1\AppData\Local\Temp\ccKV8tJ7.s:28608  .debug_str:000000000001a376 .LASF5784
C:\Users\SOLDER~1\AppData\Local\Temp\ccKV8tJ7.s:33528  .debug_str:000000000002e2f5 .LASF5785
C:\Users\SOLDER~1\AppData\Local\Temp\ccKV8tJ7.s:27222  .debug_str:0000000000014a63 .LASF5786
C:\Users\SOLDER~1\AppData\Local\Temp\ccKV8tJ7.s:31952  .debug_str:0000000000027c69 .LASF5787
C:\Users\SOLDER~1\AppData\Local\Temp\ccKV8tJ7.s:27444  .debug_str:00000000000158a6 .LASF5788
C:\Users\SOLDER~1\AppData\Local\Temp\ccKV8tJ7.s:26102  .debug_str:00000000000101e5 .LASF5789
C:\Users\SOLDER~1\AppData\Local\Temp\ccKV8tJ7.s:30530  .debug_str:0000000000021ff3 .LASF5790
C:\Users\SOLDER~1\AppData\Local\Temp\ccKV8tJ7.s:30126  .debug_str:00000000000205ee .LASF5791
C:\Users\SOLDER~1\AppData\Local\Temp\ccKV8tJ7.s:2636   .text.FLASH_GetMACAddress:0000000000000000 .LFB48
C:\Users\SOLDER~1\AppData\Local\Temp\ccKV8tJ7.s:2715   .text.FLASH_GetMACAddress:000000000000009c .LFE48
C:\Users\SOLDER~1\AppData\Local\Temp\ccKV8tJ7.s:32808  .debug_str:000000000002b43e .LASF5793
C:\Users\SOLDER~1\AppData\Local\Temp\ccKV8tJ7.s:28688  .debug_str:000000000001a86d .LASF5800
C:\Users\SOLDER~1\AppData\Local\Temp\ccKV8tJ7.s:30172  .debug_str:00000000000208e2 .LASF5792
C:\Users\SOLDER~1\AppData\Local\Temp\ccKV8tJ7.s:2578   .text.FLASH_Enhance_Mode:0000000000000000 .LFB47
C:\Users\SOLDER~1\AppData\Local\Temp\ccKV8tJ7.s:2629   .text.FLASH_Enhance_Mode:0000000000000052 .LFE47
C:\Users\SOLDER~1\AppData\Local\Temp\ccKV8tJ7.s:29732  .debug_str:000000000001ec36 .LASF5794
C:\Users\SOLDER~1\AppData\Local\Temp\ccKV8tJ7.s:31256  .debug_str:0000000000024eac .LASF5795
C:\Users\SOLDER~1\AppData\Local\Temp\ccKV8tJ7.s:2535   .text.FLASH_Access_Clock_Cfg:0000000000000000 .LFB46
C:\Users\SOLDER~1\AppData\Local\Temp\ccKV8tJ7.s:2571   .text.FLASH_Access_Clock_Cfg:0000000000000038 .LFE46
C:\Users\SOLDER~1\AppData\Local\Temp\ccKV8tJ7.s:29096  .debug_str:000000000001c273 .LASF5796
C:\Users\SOLDER~1\AppData\Local\Temp\ccKV8tJ7.s:23770  .debug_str:0000000000006954 .LASF5797
C:\Users\SOLDER~1\AppData\Local\Temp\ccKV8tJ7.s:2410   .text.FLASH_ProgramPage_Fast:0000000000000000 .LFB45
C:\Users\SOLDER~1\AppData\Local\Temp\ccKV8tJ7.s:2528   .text.FLASH_ProgramPage_Fast:00000000000000c0 .LFE45
C:\Users\SOLDER~1\AppData\Local\Temp\ccKV8tJ7.s:23678  .debug_str:0000000000006309 .LASF5798
C:\Users\SOLDER~1\AppData\Local\Temp\ccKV8tJ7.s:23266  .debug_str:0000000000004903 .LASF5799
C:\Users\SOLDER~1\AppData\Local\Temp\ccKV8tJ7.s:23564  .debug_str:0000000000005b8e .LASF5801
C:\Users\SOLDER~1\AppData\Local\Temp\ccKV8tJ7.s:24040  .debug_str:0000000000007a8f .LASF5802
C:\Users\SOLDER~1\AppData\Local\Temp\ccKV8tJ7.s:2340   .text.FLASH_EraseBlock_64K_Fast:0000000000000000 .LFB44
C:\Users\SOLDER~1\AppData\Local\Temp\ccKV8tJ7.s:2403   .text.FLASH_EraseBlock_64K_Fast:000000000000006a .LFE44
C:\Users\SOLDER~1\AppData\Local\Temp\ccKV8tJ7.s:30352  .debug_str:000000000002146b .LASF5803
C:\Users\SOLDER~1\AppData\Local\Temp\ccKV8tJ7.s:29068  .debug_str:000000000001c070 .LASF5804
C:\Users\SOLDER~1\AppData\Local\Temp\ccKV8tJ7.s:2270   .text.FLASH_EraseBlock_32K_Fast:0000000000000000 .LFB43
C:\Users\SOLDER~1\AppData\Local\Temp\ccKV8tJ7.s:2333   .text.FLASH_EraseBlock_32K_Fast:000000000000006a .LFE43
C:\Users\SOLDER~1\AppData\Local\Temp\ccKV8tJ7.s:30506  .debug_str:0000000000021e64 .LASF5805
C:\Users\SOLDER~1\AppData\Local\Temp\ccKV8tJ7.s:2201   .text.FLASH_ErasePage_Fast:0000000000000000 .LFB42
C:\Users\SOLDER~1\AppData\Local\Temp\ccKV8tJ7.s:2263   .text.FLASH_ErasePage_Fast:0000000000000068 .LFE42
C:\Users\SOLDER~1\AppData\Local\Temp\ccKV8tJ7.s:30718  .debug_str:0000000000022b77 .LASF5806
C:\Users\SOLDER~1\AppData\Local\Temp\ccKV8tJ7.s:2168   .text.FLASH_Lock_Fast:0000000000000000 .LFB41
C:\Users\SOLDER~1\AppData\Local\Temp\ccKV8tJ7.s:2194   .text.FLASH_Lock_Fast:000000000000001e .LFE41
C:\Users\SOLDER~1\AppData\Local\Temp\ccKV8tJ7.s:26802  .debug_str:0000000000012da7 .LASF5807
C:\Users\SOLDER~1\AppData\Local\Temp\ccKV8tJ7.s:2119   .text.FLASH_Unlock_Fast:0000000000000000 .LFB40
C:\Users\SOLDER~1\AppData\Local\Temp\ccKV8tJ7.s:2161   .text.FLASH_Unlock_Fast:0000000000000046 .LFE40
C:\Users\SOLDER~1\AppData\Local\Temp\ccKV8tJ7.s:31264  .debug_str:0000000000024f24 .LASF5810
C:\Users\SOLDER~1\AppData\Local\Temp\ccKV8tJ7.s:2055   .text.FLASH_WaitForLastBank1Operation:0000000000000000 .LFB39
C:\Users\SOLDER~1\AppData\Local\Temp\ccKV8tJ7.s:2112   .text.FLASH_WaitForLastBank1Operation:0000000000000060 .LFE39
C:\Users\SOLDER~1\AppData\Local\Temp\ccKV8tJ7.s:31186  .debug_str:00000000000249ff .LASF5808
C:\Users\SOLDER~1\AppData\Local\Temp\ccKV8tJ7.s:25244  .debug_str:000000000000c98e .LASF5809
C:\Users\SOLDER~1\AppData\Local\Temp\ccKV8tJ7.s:22896  .debug_str:0000000000003207 .LASF5811
C:\Users\SOLDER~1\AppData\Local\Temp\ccKV8tJ7.s:1991   .text.FLASH_WaitForLastOperation:0000000000000000 .LFB38
GAS LISTING C:\Users\SOLDER~1\AppData\Local\Temp\ccKV8tJ7.s 			page 87


C:\Users\SOLDER~1\AppData\Local\Temp\ccKV8tJ7.s:2048   .text.FLASH_WaitForLastOperation:0000000000000060 .LFE38
C:\Users\SOLDER~1\AppData\Local\Temp\ccKV8tJ7.s:26784  .debug_str:0000000000012c58 .LASF5812
C:\Users\SOLDER~1\AppData\Local\Temp\ccKV8tJ7.s:1932   .text.FLASH_GetBank1Status:0000000000000000 .LFB37
C:\Users\SOLDER~1\AppData\Local\Temp\ccKV8tJ7.s:1984   .text.FLASH_GetBank1Status:0000000000000048 .LFE37
C:\Users\SOLDER~1\AppData\Local\Temp\ccKV8tJ7.s:24950  .debug_str:000000000000b638 .LASF5813
C:\Users\SOLDER~1\AppData\Local\Temp\ccKV8tJ7.s:22954  .debug_str:00000000000035c9 .LASF5814
C:\Users\SOLDER~1\AppData\Local\Temp\ccKV8tJ7.s:1873   .text.FLASH_GetStatus:0000000000000000 .LFB36
C:\Users\SOLDER~1\AppData\Local\Temp\ccKV8tJ7.s:1925   .text.FLASH_GetStatus:0000000000000048 .LFE36
C:\Users\SOLDER~1\AppData\Local\Temp\ccKV8tJ7.s:24024  .debug_str:00000000000079a8 .LASF5815
C:\Users\SOLDER~1\AppData\Local\Temp\ccKV8tJ7.s:1842   .text.FLASH_ClearFlag:0000000000000000 .LFB35
C:\Users\SOLDER~1\AppData\Local\Temp\ccKV8tJ7.s:1866   .text.FLASH_ClearFlag:000000000000001c .LFE35
C:\Users\SOLDER~1\AppData\Local\Temp\ccKV8tJ7.s:31064  .debug_str:000000000002421f .LASF5816
C:\Users\SOLDER~1\AppData\Local\Temp\ccKV8tJ7.s:26242  .debug_str:0000000000010aa2 .LASF5817
C:\Users\SOLDER~1\AppData\Local\Temp\ccKV8tJ7.s:1776   .text.FLASH_GetFlagStatus:0000000000000000 .LFB34
C:\Users\SOLDER~1\AppData\Local\Temp\ccKV8tJ7.s:1835   .text.FLASH_GetFlagStatus:0000000000000056 .LFE34
C:\Users\SOLDER~1\AppData\Local\Temp\ccKV8tJ7.s:26734  .debug_str:000000000001291d .LASF5818
C:\Users\SOLDER~1\AppData\Local\Temp\ccKV8tJ7.s:31166  .debug_str:00000000000248ca .LASF5819
C:\Users\SOLDER~1\AppData\Local\Temp\ccKV8tJ7.s:1723   .text.FLASH_ITConfig:0000000000000000 .LFB33
C:\Users\SOLDER~1\AppData\Local\Temp\ccKV8tJ7.s:1769   .text.FLASH_ITConfig:0000000000000046 .LFE33
C:\Users\SOLDER~1\AppData\Local\Temp\ccKV8tJ7.s:23118  .debug_str:0000000000003fa8 .LASF5820
C:\Users\SOLDER~1\AppData\Local\Temp\ccKV8tJ7.s:26012  .debug_str:000000000000fbc9 .LASF5821
C:\Users\SOLDER~1\AppData\Local\Temp\ccKV8tJ7.s:1679   .text.FLASH_GetReadOutProtectionStatus:0000000000000000 .LFB32
C:\Users\SOLDER~1\AppData\Local\Temp\ccKV8tJ7.s:1716   .text.FLASH_GetReadOutProtectionStatus:000000000000002c .LFE32
C:\Users\SOLDER~1\AppData\Local\Temp\ccKV8tJ7.s:26700  .debug_str:0000000000012733 .LASF5822
C:\Users\SOLDER~1\AppData\Local\Temp\ccKV8tJ7.s:32522  .debug_str:000000000002a164 .LASF5823
C:\Users\SOLDER~1\AppData\Local\Temp\ccKV8tJ7.s:1650   .text.FLASH_GetWriteProtectionOptionByte:0000000000000000 .LFB31
C:\Users\SOLDER~1\AppData\Local\Temp\ccKV8tJ7.s:1672   .text.FLASH_GetWriteProtectionOptionByte:0000000000000014 .LFE31
C:\Users\SOLDER~1\AppData\Local\Temp\ccKV8tJ7.s:30230  .debug_str:0000000000020cb2 .LASF5824
C:\Users\SOLDER~1\AppData\Local\Temp\ccKV8tJ7.s:1620   .text.FLASH_GetUserOptionByte:0000000000000000 .LFB30
C:\Users\SOLDER~1\AppData\Local\Temp\ccKV8tJ7.s:1643   .text.FLASH_GetUserOptionByte:0000000000000016 .LFE30
C:\Users\SOLDER~1\AppData\Local\Temp\ccKV8tJ7.s:24942  .debug_str:000000000000b5a7 .LASF5825
C:\Users\SOLDER~1\AppData\Local\Temp\ccKV8tJ7.s:1408   .text.FLASH_UserOptionByteConfig:0000000000000000 .LFB29
C:\Users\SOLDER~1\AppData\Local\Temp\ccKV8tJ7.s:1613   .text.FLASH_UserOptionByteConfig:000000000000019e .LFE29
C:\Users\SOLDER~1\AppData\Local\Temp\ccKV8tJ7.s:23186  .debug_str:00000000000043ed .LASF5826
C:\Users\SOLDER~1\AppData\Local\Temp\ccKV8tJ7.s:30598  .debug_str:000000000002242f .LASF5827
C:\Users\SOLDER~1\AppData\Local\Temp\ccKV8tJ7.s:28552  .debug_str:000000000001a01c .LASF5828
C:\Users\SOLDER~1\AppData\Local\Temp\ccKV8tJ7.s:25368  .debug_str:000000000000d1ee .LASF5829
C:\Users\SOLDER~1\AppData\Local\Temp\ccKV8tJ7.s:31916  .debug_str:0000000000027a14 .LASF5830
C:\Users\SOLDER~1\AppData\Local\Temp\ccKV8tJ7.s:1205   .text.FLASH_ReadOutProtection:0000000000000000 .LFB28
C:\Users\SOLDER~1\AppData\Local\Temp\ccKV8tJ7.s:1401   .text.FLASH_ReadOutProtection:0000000000000182 .LFE28
C:\Users\SOLDER~1\AppData\Local\Temp\ccKV8tJ7.s:29794  .debug_str:000000000001f040 .LASF5831
C:\Users\SOLDER~1\AppData\Local\Temp\ccKV8tJ7.s:957    .text.FLASH_EnableWriteProtection:0000000000000000 .LFB27
C:\Users\SOLDER~1\AppData\Local\Temp\ccKV8tJ7.s:1198   .text.FLASH_EnableWriteProtection:00000000000001e8 .LFE27
C:\Users\SOLDER~1\AppData\Local\Temp\ccKV8tJ7.s:23478  .debug_str:00000000000055bb .LASF5832
C:\Users\SOLDER~1\AppData\Local\Temp\ccKV8tJ7.s:28796  .debug_str:000000000001af7c .LASF5833
C:\Users\SOLDER~1\AppData\Local\Temp\ccKV8tJ7.s:24250  .debug_str:0000000000008836 .LASF5834
C:\Users\SOLDER~1\AppData\Local\Temp\ccKV8tJ7.s:24352  .debug_str:0000000000008efe .LASF5835
C:\Users\SOLDER~1\AppData\Local\Temp\ccKV8tJ7.s:33292  .debug_str:000000000002d3a4 .LASF5836
C:\Users\SOLDER~1\AppData\Local\Temp\ccKV8tJ7.s:24844  .debug_str:000000000000af42 .LASF5837
C:\Users\SOLDER~1\AppData\Local\Temp\ccKV8tJ7.s:732    .text.FLASH_ProgramOptionByteData:0000000000000000 .LFB26
C:\Users\SOLDER~1\AppData\Local\Temp\ccKV8tJ7.s:950    .text.FLASH_ProgramOptionByteData:00000000000001b4 .LFE26
C:\Users\SOLDER~1\AppData\Local\Temp\ccKV8tJ7.s:24540  .debug_str:0000000000009b2b .LASF5838
C:\Users\SOLDER~1\AppData\Local\Temp\ccKV8tJ7.s:32874  .debug_str:000000000002b8ce .LASF5839
C:\Users\SOLDER~1\AppData\Local\Temp\ccKV8tJ7.s:24270  .debug_str:000000000000898a .LASF5840
C:\Users\SOLDER~1\AppData\Local\Temp\ccKV8tJ7.s:663    .text.FLASH_ProgramHalfWord:0000000000000000 .LFB25
C:\Users\SOLDER~1\AppData\Local\Temp\ccKV8tJ7.s:725    .text.FLASH_ProgramHalfWord:0000000000000074 .LFE25
C:\Users\SOLDER~1\AppData\Local\Temp\ccKV8tJ7.s:29980  .debug_str:000000000001fcb0 .LASF5841
GAS LISTING C:\Users\SOLDER~1\AppData\Local\Temp\ccKV8tJ7.s 			page 88


C:\Users\SOLDER~1\AppData\Local\Temp\ccKV8tJ7.s:559    .text.FLASH_ProgramWord:0000000000000000 .LFB24
C:\Users\SOLDER~1\AppData\Local\Temp\ccKV8tJ7.s:656    .text.FLASH_ProgramWord:00000000000000bc .LFE24
C:\Users\SOLDER~1\AppData\Local\Temp\ccKV8tJ7.s:27392  .debug_str:0000000000015552 .LASF5842
C:\Users\SOLDER~1\AppData\Local\Temp\ccKV8tJ7.s:364    .text.FLASH_EraseOptionBytes:0000000000000000 .LFB23
C:\Users\SOLDER~1\AppData\Local\Temp\ccKV8tJ7.s:552    .text.FLASH_EraseOptionBytes:0000000000000188 .LFE23
C:\Users\SOLDER~1\AppData\Local\Temp\ccKV8tJ7.s:24508  .debug_str:000000000000995d .LASF5843
C:\Users\SOLDER~1\AppData\Local\Temp\ccKV8tJ7.s:26186  .debug_str:000000000001072b .LASF5844
C:\Users\SOLDER~1\AppData\Local\Temp\ccKV8tJ7.s:296    .text.FLASH_EraseAllBank1Pages:0000000000000000 .LFB22
C:\Users\SOLDER~1\AppData\Local\Temp\ccKV8tJ7.s:357    .text.FLASH_EraseAllBank1Pages:0000000000000074 .LFE22
C:\Users\SOLDER~1\AppData\Local\Temp\ccKV8tJ7.s:23522  .debug_str:00000000000058c6 .LASF5845
C:\Users\SOLDER~1\AppData\Local\Temp\ccKV8tJ7.s:228    .text.FLASH_EraseAllPages:0000000000000000 .LFB21
C:\Users\SOLDER~1\AppData\Local\Temp\ccKV8tJ7.s:289    .text.FLASH_EraseAllPages:0000000000000074 .LFE21
C:\Users\SOLDER~1\AppData\Local\Temp\ccKV8tJ7.s:26644  .debug_str:00000000000123ac .LASF5846
C:\Users\SOLDER~1\AppData\Local\Temp\ccKV8tJ7.s:154    .text.FLASH_ErasePage:0000000000000000 .LFB20
C:\Users\SOLDER~1\AppData\Local\Temp\ccKV8tJ7.s:221    .text.FLASH_ErasePage:0000000000000082 .LFE20
C:\Users\SOLDER~1\AppData\Local\Temp\ccKV8tJ7.s:30626  .debug_str:00000000000225d0 .LASF5847
C:\Users\SOLDER~1\AppData\Local\Temp\ccKV8tJ7.s:122    .text.FLASH_LockBank1:0000000000000000 .LFB19
C:\Users\SOLDER~1\AppData\Local\Temp\ccKV8tJ7.s:147    .text.FLASH_LockBank1:000000000000001e .LFE19
C:\Users\SOLDER~1\AppData\Local\Temp\ccKV8tJ7.s:28488  .debug_str:0000000000019c1f .LASF5848
C:\Users\SOLDER~1\AppData\Local\Temp\ccKV8tJ7.s:90     .text.FLASH_Lock:0000000000000000 .LFB18
C:\Users\SOLDER~1\AppData\Local\Temp\ccKV8tJ7.s:115    .text.FLASH_Lock:000000000000001e .LFE18
C:\Users\SOLDER~1\AppData\Local\Temp\ccKV8tJ7.s:26698  .debug_str:0000000000012721 .LASF5849
C:\Users\SOLDER~1\AppData\Local\Temp\ccKV8tJ7.s:53     .text.FLASH_UnlockBank1:0000000000000000 .LFB17
C:\Users\SOLDER~1\AppData\Local\Temp\ccKV8tJ7.s:83     .text.FLASH_UnlockBank1:000000000000002a .LFE17
C:\Users\SOLDER~1\AppData\Local\Temp\ccKV8tJ7.s:27226  .debug_str:0000000000014aa4 .LASF5850
C:\Users\SOLDER~1\AppData\Local\Temp\ccKV8tJ7.s:15     .text.FLASH_Unlock:0000000000000000 .LFB16
C:\Users\SOLDER~1\AppData\Local\Temp\ccKV8tJ7.s:46     .text.FLASH_Unlock:000000000000002a .LFE16
C:\Users\SOLDER~1\AppData\Local\Temp\ccKV8tJ7.s:2725   .debug_info:0000000000000000 .Ldebug_info0
C:\Users\SOLDER~1\AppData\Local\Temp\ccKV8tJ7.s:4867   .debug_macro:0000000000000000 .Ldebug_macro2
C:\Users\SOLDER~1\AppData\Local\Temp\ccKV8tJ7.s:33756  .debug_str:000000000002f177 .LASF318
C:\Users\SOLDER~1\AppData\Local\Temp\ccKV8tJ7.s:5820   .debug_macro:0000000000000000 .Ldebug_macro3
C:\Users\SOLDER~1\AppData\Local\Temp\ccKV8tJ7.s:28576  .debug_str:000000000001a16a .LASF336
C:\Users\SOLDER~1\AppData\Local\Temp\ccKV8tJ7.s:23188  .debug_str:00000000000043f5 .LASF337
C:\Users\SOLDER~1\AppData\Local\Temp\ccKV8tJ7.s:30594  .debug_str:00000000000223fc .LASF338
C:\Users\SOLDER~1\AppData\Local\Temp\ccKV8tJ7.s:5876   .debug_macro:0000000000000000 .Ldebug_macro4
C:\Users\SOLDER~1\AppData\Local\Temp\ccKV8tJ7.s:5896   .debug_macro:0000000000000000 .Ldebug_macro5
C:\Users\SOLDER~1\AppData\Local\Temp\ccKV8tJ7.s:5961   .debug_macro:0000000000000000 .Ldebug_macro6
C:\Users\SOLDER~1\AppData\Local\Temp\ccKV8tJ7.s:6002   .debug_macro:0000000000000000 .Ldebug_macro7
C:\Users\SOLDER~1\AppData\Local\Temp\ccKV8tJ7.s:6127   .debug_macro:0000000000000000 .Ldebug_macro8
C:\Users\SOLDER~1\AppData\Local\Temp\ccKV8tJ7.s:6183   .debug_macro:0000000000000000 .Ldebug_macro9
C:\Users\SOLDER~1\AppData\Local\Temp\ccKV8tJ7.s:22514  .debug_str:0000000000001903 .LASF493
C:\Users\SOLDER~1\AppData\Local\Temp\ccKV8tJ7.s:6395   .debug_macro:0000000000000000 .Ldebug_macro10
C:\Users\SOLDER~1\AppData\Local\Temp\ccKV8tJ7.s:6433   .debug_macro:0000000000000000 .Ldebug_macro11
C:\Users\SOLDER~1\AppData\Local\Temp\ccKV8tJ7.s:22782  .debug_str:0000000000002ad9 .LASF4592
C:\Users\SOLDER~1\AppData\Local\Temp\ccKV8tJ7.s:31408  .debug_str:0000000000025844 .LASF4593
C:\Users\SOLDER~1\AppData\Local\Temp\ccKV8tJ7.s:18699  .debug_macro:0000000000000000 .Ldebug_macro12
C:\Users\SOLDER~1\AppData\Local\Temp\ccKV8tJ7.s:18980  .debug_macro:0000000000000000 .Ldebug_macro13
C:\Users\SOLDER~1\AppData\Local\Temp\ccKV8tJ7.s:19132  .debug_macro:0000000000000000 .Ldebug_macro14
C:\Users\SOLDER~1\AppData\Local\Temp\ccKV8tJ7.s:27720  .debug_str:00000000000169eb .LASF4851
C:\Users\SOLDER~1\AppData\Local\Temp\ccKV8tJ7.s:19485  .debug_macro:0000000000000000 .Ldebug_macro15
C:\Users\SOLDER~1\AppData\Local\Temp\ccKV8tJ7.s:19550  .debug_macro:0000000000000000 .Ldebug_macro16
C:\Users\SOLDER~1\AppData\Local\Temp\ccKV8tJ7.s:19819  .debug_macro:0000000000000000 .Ldebug_macro17
C:\Users\SOLDER~1\AppData\Local\Temp\ccKV8tJ7.s:19890  .debug_macro:0000000000000000 .Ldebug_macro18
C:\Users\SOLDER~1\AppData\Local\Temp\ccKV8tJ7.s:20162  .debug_macro:0000000000000000 .Ldebug_macro19
C:\Users\SOLDER~1\AppData\Local\Temp\ccKV8tJ7.s:20413  .debug_macro:0000000000000000 .Ldebug_macro20
C:\Users\SOLDER~1\AppData\Local\Temp\ccKV8tJ7.s:20454  .debug_macro:0000000000000000 .Ldebug_macro21
C:\Users\SOLDER~1\AppData\Local\Temp\ccKV8tJ7.s:20507  .debug_macro:0000000000000000 .Ldebug_macro22
GAS LISTING C:\Users\SOLDER~1\AppData\Local\Temp\ccKV8tJ7.s 			page 89


C:\Users\SOLDER~1\AppData\Local\Temp\ccKV8tJ7.s:20908  .debug_macro:0000000000000000 .Ldebug_macro23
C:\Users\SOLDER~1\AppData\Local\Temp\ccKV8tJ7.s:20940  .debug_macro:0000000000000000 .Ldebug_macro24
C:\Users\SOLDER~1\AppData\Local\Temp\ccKV8tJ7.s:21170  .debug_macro:0000000000000000 .Ldebug_macro25
C:\Users\SOLDER~1\AppData\Local\Temp\ccKV8tJ7.s:21766  .debug_macro:0000000000000000 .Ldebug_macro26
C:\Users\SOLDER~1\AppData\Local\Temp\ccKV8tJ7.s:21936  .debug_macro:0000000000000000 .Ldebug_macro27
C:\Users\SOLDER~1\AppData\Local\Temp\ccKV8tJ7.s:21956  .debug_macro:0000000000000000 .Ldebug_macro28
C:\Users\SOLDER~1\AppData\Local\Temp\ccKV8tJ7.s:21979  .debug_macro:0000000000000000 .Ldebug_macro29
C:\Users\SOLDER~1\AppData\Local\Temp\ccKV8tJ7.s:30850  .debug_str:000000000002341d .LASF5712
C:\Users\SOLDER~1\AppData\Local\Temp\ccKV8tJ7.s:29690  .debug_str:000000000001e92f .LASF5713
C:\Users\SOLDER~1\AppData\Local\Temp\ccKV8tJ7.s:28056  .debug_str:0000000000017fcf .LASF5714
C:\Users\SOLDER~1\AppData\Local\Temp\ccKV8tJ7.s:27988  .debug_str:0000000000017b48 .LASF5715
C:\Users\SOLDER~1\AppData\Local\Temp\ccKV8tJ7.s:30132  .debug_str:0000000000020640 .LASF5716
C:\Users\SOLDER~1\AppData\Local\Temp\ccKV8tJ7.s:33388  .debug_str:000000000002da26 .LASF5717
C:\Users\SOLDER~1\AppData\Local\Temp\ccKV8tJ7.s:32568  .debug_str:000000000002a49b .LASF5718
C:\Users\SOLDER~1\AppData\Local\Temp\ccKV8tJ7.s:31202  .debug_str:0000000000024afa .LASF5719
C:\Users\SOLDER~1\AppData\Local\Temp\ccKV8tJ7.s:31748  .debug_str:0000000000026f10 .LASF5720
C:\Users\SOLDER~1\AppData\Local\Temp\ccKV8tJ7.s:29464  .debug_str:000000000001dadb .LASF5721
C:\Users\SOLDER~1\AppData\Local\Temp\ccKV8tJ7.s:23426  .debug_str:00000000000052ae .LASF5722
C:\Users\SOLDER~1\AppData\Local\Temp\ccKV8tJ7.s:28432  .debug_str:00000000000198ba .LASF5723
C:\Users\SOLDER~1\AppData\Local\Temp\ccKV8tJ7.s:25184  .debug_str:000000000000c569 .LASF5724
C:\Users\SOLDER~1\AppData\Local\Temp\ccKV8tJ7.s:27630  .debug_str:0000000000016489 .LASF5725
C:\Users\SOLDER~1\AppData\Local\Temp\ccKV8tJ7.s:25576  .debug_str:000000000000df3e .LASF5726
C:\Users\SOLDER~1\AppData\Local\Temp\ccKV8tJ7.s:24194  .debug_str:00000000000084c1 .LASF5727
C:\Users\SOLDER~1\AppData\Local\Temp\ccKV8tJ7.s:29056  .debug_str:000000000001bf96 .LASF5728
C:\Users\SOLDER~1\AppData\Local\Temp\ccKV8tJ7.s:26054  .debug_str:000000000000fecc .LASF5729
C:\Users\SOLDER~1\AppData\Local\Temp\ccKV8tJ7.s:27032  .debug_str:0000000000013d83 .LASF5730
C:\Users\SOLDER~1\AppData\Local\Temp\ccKV8tJ7.s:28686  .debug_str:000000000001a84c .LASF5731
C:\Users\SOLDER~1\AppData\Local\Temp\ccKV8tJ7.s:28666  .debug_str:000000000001a726 .LASF5732
C:\Users\SOLDER~1\AppData\Local\Temp\ccKV8tJ7.s:29014  .debug_str:000000000001bcdd .LASF5733
C:\Users\SOLDER~1\AppData\Local\Temp\ccKV8tJ7.s:25916  .debug_str:000000000000f534 .LASF5734
C:\Users\SOLDER~1\AppData\Local\Temp\ccKV8tJ7.s:25490  .debug_str:000000000000d9cd .LASF5735
C:\Users\SOLDER~1\AppData\Local\Temp\ccKV8tJ7.s:30880  .debug_str:0000000000023609 .LASF5736
C:\Users\SOLDER~1\AppData\Local\Temp\ccKV8tJ7.s:30108  .debug_str:00000000000204d0 .LASF5737
C:\Users\SOLDER~1\AppData\Local\Temp\ccKV8tJ7.s:31148  .debug_str:00000000000247a4 .LASF5738
C:\Users\SOLDER~1\AppData\Local\Temp\ccKV8tJ7.s:28924  .debug_str:000000000001b756 .LASF5739
C:\Users\SOLDER~1\AppData\Local\Temp\ccKV8tJ7.s:24384  .debug_str:0000000000009137 .LASF5740
C:\Users\SOLDER~1\AppData\Local\Temp\ccKV8tJ7.s:29904  .debug_str:000000000001f79e .LASF5741
C:\Users\SOLDER~1\AppData\Local\Temp\ccKV8tJ7.s:27330  .debug_str:000000000001515d .LASF5742
C:\Users\SOLDER~1\AppData\Local\Temp\ccKV8tJ7.s:29934  .debug_str:000000000001f99f .LASF5743
C:\Users\SOLDER~1\AppData\Local\Temp\ccKV8tJ7.s:29142  .debug_str:000000000001c571 .LASF5744
C:\Users\SOLDER~1\AppData\Local\Temp\ccKV8tJ7.s:28740  .debug_str:000000000001abd7 .LASF5745
C:\Users\SOLDER~1\AppData\Local\Temp\ccKV8tJ7.s:30600  .debug_str:0000000000022437 .LASF5746
C:\Users\SOLDER~1\AppData\Local\Temp\ccKV8tJ7.s:23562  .debug_str:0000000000005b83 .LASF2
C:\Users\SOLDER~1\AppData\Local\Temp\ccKV8tJ7.s:32576  .debug_str:000000000002a51b .LASF3
C:\Users\SOLDER~1\AppData\Local\Temp\ccKV8tJ7.s:32946  .debug_str:000000000002bd4e .LASF4
C:\Users\SOLDER~1\AppData\Local\Temp\ccKV8tJ7.s:26330  .debug_str:0000000000010ff7 .LASF5
C:\Users\SOLDER~1\AppData\Local\Temp\ccKV8tJ7.s:27698  .debug_str:00000000000168a1 .LASF6
C:\Users\SOLDER~1\AppData\Local\Temp\ccKV8tJ7.s:33366  .debug_str:000000000002d8b9 .LASF7
C:\Users\SOLDER~1\AppData\Local\Temp\ccKV8tJ7.s:26386  .debug_str:0000000000011386 .LASF8
C:\Users\SOLDER~1\AppData\Local\Temp\ccKV8tJ7.s:27136  .debug_str:00000000000144ab .LASF9
C:\Users\SOLDER~1\AppData\Local\Temp\ccKV8tJ7.s:24300  .debug_str:0000000000008b75 .LASF10
C:\Users\SOLDER~1\AppData\Local\Temp\ccKV8tJ7.s:32282  .debug_str:0000000000029203 .LASF11
C:\Users\SOLDER~1\AppData\Local\Temp\ccKV8tJ7.s:28772  .debug_str:000000000001adc9 .LASF12
C:\Users\SOLDER~1\AppData\Local\Temp\ccKV8tJ7.s:28622  .debug_str:000000000001a43e .LASF13
C:\Users\SOLDER~1\AppData\Local\Temp\ccKV8tJ7.s:31216  .debug_str:0000000000024c0a .LASF14
C:\Users\SOLDER~1\AppData\Local\Temp\ccKV8tJ7.s:28642  .debug_str:000000000001a57a .LASF15
C:\Users\SOLDER~1\AppData\Local\Temp\ccKV8tJ7.s:24798  .debug_str:000000000000ac2c .LASF16
GAS LISTING C:\Users\SOLDER~1\AppData\Local\Temp\ccKV8tJ7.s 			page 90


C:\Users\SOLDER~1\AppData\Local\Temp\ccKV8tJ7.s:30086  .debug_str:000000000002035b .LASF17
C:\Users\SOLDER~1\AppData\Local\Temp\ccKV8tJ7.s:30818  .debug_str:0000000000023236 .LASF18
C:\Users\SOLDER~1\AppData\Local\Temp\ccKV8tJ7.s:24842  .debug_str:000000000000af30 .LASF19
C:\Users\SOLDER~1\AppData\Local\Temp\ccKV8tJ7.s:23718  .debug_str:000000000000658b .LASF20
C:\Users\SOLDER~1\AppData\Local\Temp\ccKV8tJ7.s:25858  .debug_str:000000000000f1b3 .LASF21
C:\Users\SOLDER~1\AppData\Local\Temp\ccKV8tJ7.s:31688  .debug_str:0000000000026b11 .LASF22
C:\Users\SOLDER~1\AppData\Local\Temp\ccKV8tJ7.s:28450  .debug_str:0000000000019a0c .LASF23
C:\Users\SOLDER~1\AppData\Local\Temp\ccKV8tJ7.s:28448  .debug_str:00000000000199f2 .LASF24
C:\Users\SOLDER~1\AppData\Local\Temp\ccKV8tJ7.s:31134  .debug_str:00000000000246b1 .LASF25
C:\Users\SOLDER~1\AppData\Local\Temp\ccKV8tJ7.s:31808  .debug_str:000000000002730d .LASF26
C:\Users\SOLDER~1\AppData\Local\Temp\ccKV8tJ7.s:23078  .debug_str:0000000000003d6b .LASF27
C:\Users\SOLDER~1\AppData\Local\Temp\ccKV8tJ7.s:27844  .debug_str:00000000000171b0 .LASF28
C:\Users\SOLDER~1\AppData\Local\Temp\ccKV8tJ7.s:31028  .debug_str:0000000000023fac .LASF29
C:\Users\SOLDER~1\AppData\Local\Temp\ccKV8tJ7.s:30828  .debug_str:00000000000232de .LASF30
C:\Users\SOLDER~1\AppData\Local\Temp\ccKV8tJ7.s:23504  .debug_str:0000000000005780 .LASF31
C:\Users\SOLDER~1\AppData\Local\Temp\ccKV8tJ7.s:29854  .debug_str:000000000001f424 .LASF32
C:\Users\SOLDER~1\AppData\Local\Temp\ccKV8tJ7.s:22472  .debug_str:000000000000167d .LASF33
C:\Users\SOLDER~1\AppData\Local\Temp\ccKV8tJ7.s:26552  .debug_str:0000000000011e08 .LASF34
C:\Users\SOLDER~1\AppData\Local\Temp\ccKV8tJ7.s:27504  .debug_str:0000000000015c90 .LASF35
C:\Users\SOLDER~1\AppData\Local\Temp\ccKV8tJ7.s:25612  .debug_str:000000000000e199 .LASF36
C:\Users\SOLDER~1\AppData\Local\Temp\ccKV8tJ7.s:24670  .debug_str:000000000000a3b8 .LASF37
C:\Users\SOLDER~1\AppData\Local\Temp\ccKV8tJ7.s:24522  .debug_str:0000000000009a19 .LASF38
C:\Users\SOLDER~1\AppData\Local\Temp\ccKV8tJ7.s:25882  .debug_str:000000000000f326 .LASF39
C:\Users\SOLDER~1\AppData\Local\Temp\ccKV8tJ7.s:28880  .debug_str:000000000001b48e .LASF40
C:\Users\SOLDER~1\AppData\Local\Temp\ccKV8tJ7.s:24044  .debug_str:0000000000007acb .LASF41
C:\Users\SOLDER~1\AppData\Local\Temp\ccKV8tJ7.s:26266  .debug_str:0000000000010c2f .LASF42
C:\Users\SOLDER~1\AppData\Local\Temp\ccKV8tJ7.s:32112  .debug_str:00000000000286f0 .LASF43
C:\Users\SOLDER~1\AppData\Local\Temp\ccKV8tJ7.s:22838  .debug_str:0000000000002e47 .LASF44
C:\Users\SOLDER~1\AppData\Local\Temp\ccKV8tJ7.s:25950  .debug_str:000000000000f77c .LASF45
C:\Users\SOLDER~1\AppData\Local\Temp\ccKV8tJ7.s:26864  .debug_str:00000000000131ab .LASF46
C:\Users\SOLDER~1\AppData\Local\Temp\ccKV8tJ7.s:31414  .debug_str:00000000000258ae .LASF47
C:\Users\SOLDER~1\AppData\Local\Temp\ccKV8tJ7.s:28868  .debug_str:000000000001b3de .LASF48
C:\Users\SOLDER~1\AppData\Local\Temp\ccKV8tJ7.s:26714  .debug_str:00000000000127ff .LASF49
C:\Users\SOLDER~1\AppData\Local\Temp\ccKV8tJ7.s:23334  .debug_str:0000000000004d10 .LASF50
C:\Users\SOLDER~1\AppData\Local\Temp\ccKV8tJ7.s:26866  .debug_str:00000000000131c4 .LASF51
C:\Users\SOLDER~1\AppData\Local\Temp\ccKV8tJ7.s:31592  .debug_str:000000000002649c .LASF52
C:\Users\SOLDER~1\AppData\Local\Temp\ccKV8tJ7.s:25610  .debug_str:000000000000e179 .LASF53
C:\Users\SOLDER~1\AppData\Local\Temp\ccKV8tJ7.s:22680  .debug_str:000000000000240f .LASF54
C:\Users\SOLDER~1\AppData\Local\Temp\ccKV8tJ7.s:22170  .debug_str:00000000000001b4 .LASF55
C:\Users\SOLDER~1\AppData\Local\Temp\ccKV8tJ7.s:32986  .debug_str:000000000002bfd9 .LASF56
C:\Users\SOLDER~1\AppData\Local\Temp\ccKV8tJ7.s:31004  .debug_str:0000000000023e4f .LASF57
C:\Users\SOLDER~1\AppData\Local\Temp\ccKV8tJ7.s:22254  .debug_str:00000000000007d7 .LASF58
C:\Users\SOLDER~1\AppData\Local\Temp\ccKV8tJ7.s:26230  .debug_str:00000000000109ce .LASF59
C:\Users\SOLDER~1\AppData\Local\Temp\ccKV8tJ7.s:24124  .debug_str:000000000000802d .LASF60
C:\Users\SOLDER~1\AppData\Local\Temp\ccKV8tJ7.s:30654  .debug_str:000000000002274d .LASF61
C:\Users\SOLDER~1\AppData\Local\Temp\ccKV8tJ7.s:22424  .debug_str:0000000000001353 .LASF62
C:\Users\SOLDER~1\AppData\Local\Temp\ccKV8tJ7.s:25496  .debug_str:000000000000da27 .LASF63
C:\Users\SOLDER~1\AppData\Local\Temp\ccKV8tJ7.s:28414  .debug_str:0000000000019789 .LASF64
C:\Users\SOLDER~1\AppData\Local\Temp\ccKV8tJ7.s:29248  .debug_str:000000000001cc7a .LASF65
C:\Users\SOLDER~1\AppData\Local\Temp\ccKV8tJ7.s:22920  .debug_str:000000000000337d .LASF66
C:\Users\SOLDER~1\AppData\Local\Temp\ccKV8tJ7.s:25600  .debug_str:000000000000e0d6 .LASF67
C:\Users\SOLDER~1\AppData\Local\Temp\ccKV8tJ7.s:25322  .debug_str:000000000000cede .LASF68
C:\Users\SOLDER~1\AppData\Local\Temp\ccKV8tJ7.s:28858  .debug_str:000000000001b356 .LASF69
C:\Users\SOLDER~1\AppData\Local\Temp\ccKV8tJ7.s:27500  .debug_str:0000000000015c49 .LASF70
C:\Users\SOLDER~1\AppData\Local\Temp\ccKV8tJ7.s:32748  .debug_str:000000000002b051 .LASF71
C:\Users\SOLDER~1\AppData\Local\Temp\ccKV8tJ7.s:33210  .debug_str:000000000002ce73 .LASF72
C:\Users\SOLDER~1\AppData\Local\Temp\ccKV8tJ7.s:26670  .debug_str:0000000000012537 .LASF73
GAS LISTING C:\Users\SOLDER~1\AppData\Local\Temp\ccKV8tJ7.s 			page 91


C:\Users\SOLDER~1\AppData\Local\Temp\ccKV8tJ7.s:25770  .debug_str:000000000000ec5c .LASF74
C:\Users\SOLDER~1\AppData\Local\Temp\ccKV8tJ7.s:23352  .debug_str:0000000000004e27 .LASF75
C:\Users\SOLDER~1\AppData\Local\Temp\ccKV8tJ7.s:26704  .debug_str:0000000000012765 .LASF76
C:\Users\SOLDER~1\AppData\Local\Temp\ccKV8tJ7.s:25238  .debug_str:000000000000c92a .LASF77
C:\Users\SOLDER~1\AppData\Local\Temp\ccKV8tJ7.s:26956  .debug_str:00000000000137dd .LASF78
C:\Users\SOLDER~1\AppData\Local\Temp\ccKV8tJ7.s:27506  .debug_str:0000000000015cbe .LASF79
C:\Users\SOLDER~1\AppData\Local\Temp\ccKV8tJ7.s:26894  .debug_str:00000000000133b5 .LASF80
C:\Users\SOLDER~1\AppData\Local\Temp\ccKV8tJ7.s:31502  .debug_str:0000000000025e81 .LASF81
C:\Users\SOLDER~1\AppData\Local\Temp\ccKV8tJ7.s:29378  .debug_str:000000000001d547 .LASF82
C:\Users\SOLDER~1\AppData\Local\Temp\ccKV8tJ7.s:29818  .debug_str:000000000001f1f3 .LASF83
C:\Users\SOLDER~1\AppData\Local\Temp\ccKV8tJ7.s:32734  .debug_str:000000000002af65 .LASF84
C:\Users\SOLDER~1\AppData\Local\Temp\ccKV8tJ7.s:24616  .debug_str:000000000000a020 .LASF85
C:\Users\SOLDER~1\AppData\Local\Temp\ccKV8tJ7.s:28536  .debug_str:0000000000019f24 .LASF86
C:\Users\SOLDER~1\AppData\Local\Temp\ccKV8tJ7.s:26706  .debug_str:000000000001278c .LASF87
C:\Users\SOLDER~1\AppData\Local\Temp\ccKV8tJ7.s:28886  .debug_str:000000000001b4ee .LASF88
C:\Users\SOLDER~1\AppData\Local\Temp\ccKV8tJ7.s:23860  .debug_str:0000000000006f57 .LASF89
C:\Users\SOLDER~1\AppData\Local\Temp\ccKV8tJ7.s:33204  .debug_str:000000000002ce11 .LASF90
C:\Users\SOLDER~1\AppData\Local\Temp\ccKV8tJ7.s:32902  .debug_str:000000000002ba5a .LASF91
C:\Users\SOLDER~1\AppData\Local\Temp\ccKV8tJ7.s:30260  .debug_str:0000000000020e91 .LASF92
C:\Users\SOLDER~1\AppData\Local\Temp\ccKV8tJ7.s:28962  .debug_str:000000000001b9c5 .LASF93
C:\Users\SOLDER~1\AppData\Local\Temp\ccKV8tJ7.s:30284  .debug_str:000000000002101d .LASF94
C:\Users\SOLDER~1\AppData\Local\Temp\ccKV8tJ7.s:33120  .debug_str:000000000002c8dc .LASF95
C:\Users\SOLDER~1\AppData\Local\Temp\ccKV8tJ7.s:31912  .debug_str:00000000000279de .LASF96
C:\Users\SOLDER~1\AppData\Local\Temp\ccKV8tJ7.s:24704  .debug_str:000000000000a5ff .LASF97
C:\Users\SOLDER~1\AppData\Local\Temp\ccKV8tJ7.s:31128  .debug_str:0000000000024636 .LASF98
C:\Users\SOLDER~1\AppData\Local\Temp\ccKV8tJ7.s:27198  .debug_str:00000000000148e6 .LASF99
C:\Users\SOLDER~1\AppData\Local\Temp\ccKV8tJ7.s:31296  .debug_str:000000000002514c .LASF100
C:\Users\SOLDER~1\AppData\Local\Temp\ccKV8tJ7.s:33406  .debug_str:000000000002db3e .LASF101
C:\Users\SOLDER~1\AppData\Local\Temp\ccKV8tJ7.s:26800  .debug_str:0000000000012d8d .LASF102
C:\Users\SOLDER~1\AppData\Local\Temp\ccKV8tJ7.s:30840  .debug_str:000000000002337c .LASF103
C:\Users\SOLDER~1\AppData\Local\Temp\ccKV8tJ7.s:29442  .debug_str:000000000001d993 .LASF104
C:\Users\SOLDER~1\AppData\Local\Temp\ccKV8tJ7.s:26284  .debug_str:0000000000010d42 .LASF105
C:\Users\SOLDER~1\AppData\Local\Temp\ccKV8tJ7.s:23958  .debug_str:0000000000007580 .LASF106
C:\Users\SOLDER~1\AppData\Local\Temp\ccKV8tJ7.s:26546  .debug_str:0000000000011d93 .LASF107
C:\Users\SOLDER~1\AppData\Local\Temp\ccKV8tJ7.s:25522  .debug_str:000000000000dbb3 .LASF108
C:\Users\SOLDER~1\AppData\Local\Temp\ccKV8tJ7.s:26724  .debug_str:00000000000128b3 .LASF109
C:\Users\SOLDER~1\AppData\Local\Temp\ccKV8tJ7.s:23384  .debug_str:0000000000005005 .LASF110
C:\Users\SOLDER~1\AppData\Local\Temp\ccKV8tJ7.s:26540  .debug_str:0000000000011d3d .LASF111
C:\Users\SOLDER~1\AppData\Local\Temp\ccKV8tJ7.s:25518  .debug_str:000000000000db7e .LASF112
C:\Users\SOLDER~1\AppData\Local\Temp\ccKV8tJ7.s:27016  .debug_str:0000000000013c4c .LASF113
C:\Users\SOLDER~1\AppData\Local\Temp\ccKV8tJ7.s:25908  .debug_str:000000000000f4c3 .LASF114
C:\Users\SOLDER~1\AppData\Local\Temp\ccKV8tJ7.s:28504  .debug_str:0000000000019d14 .LASF115
C:\Users\SOLDER~1\AppData\Local\Temp\ccKV8tJ7.s:24984  .debug_str:000000000000b822 .LASF116
C:\Users\SOLDER~1\AppData\Local\Temp\ccKV8tJ7.s:24698  .debug_str:000000000000a578 .LASF117
C:\Users\SOLDER~1\AppData\Local\Temp\ccKV8tJ7.s:26082  .debug_str:00000000000100b0 .LASF118
C:\Users\SOLDER~1\AppData\Local\Temp\ccKV8tJ7.s:32784  .debug_str:000000000002b2cb .LASF119
C:\Users\SOLDER~1\AppData\Local\Temp\ccKV8tJ7.s:28036  .debug_str:0000000000017e85 .LASF120
C:\Users\SOLDER~1\AppData\Local\Temp\ccKV8tJ7.s:24460  .debug_str:0000000000009633 .LASF121
C:\Users\SOLDER~1\AppData\Local\Temp\ccKV8tJ7.s:29228  .debug_str:000000000001cb21 .LASF122
C:\Users\SOLDER~1\AppData\Local\Temp\ccKV8tJ7.s:33542  .debug_str:000000000002e3e5 .LASF123
C:\Users\SOLDER~1\AppData\Local\Temp\ccKV8tJ7.s:25824  .debug_str:000000000000ef8b .LASF124
C:\Users\SOLDER~1\AppData\Local\Temp\ccKV8tJ7.s:31488  .debug_str:0000000000025d6e .LASF125
C:\Users\SOLDER~1\AppData\Local\Temp\ccKV8tJ7.s:25292  .debug_str:000000000000ccd1 .LASF126
C:\Users\SOLDER~1\AppData\Local\Temp\ccKV8tJ7.s:25392  .debug_str:000000000000d355 .LASF127
C:\Users\SOLDER~1\AppData\Local\Temp\ccKV8tJ7.s:23020  .debug_str:00000000000039da .LASF128
C:\Users\SOLDER~1\AppData\Local\Temp\ccKV8tJ7.s:23304  .debug_str:0000000000004b3c .LASF129
C:\Users\SOLDER~1\AppData\Local\Temp\ccKV8tJ7.s:32474  .debug_str:0000000000029e74 .LASF130
GAS LISTING C:\Users\SOLDER~1\AppData\Local\Temp\ccKV8tJ7.s 			page 92


C:\Users\SOLDER~1\AppData\Local\Temp\ccKV8tJ7.s:26728  .debug_str:00000000000128cb .LASF131
C:\Users\SOLDER~1\AppData\Local\Temp\ccKV8tJ7.s:29640  .debug_str:000000000001e61e .LASF132
C:\Users\SOLDER~1\AppData\Local\Temp\ccKV8tJ7.s:24532  .debug_str:0000000000009ab4 .LASF133
C:\Users\SOLDER~1\AppData\Local\Temp\ccKV8tJ7.s:32018  .debug_str:0000000000028069 .LASF134
C:\Users\SOLDER~1\AppData\Local\Temp\ccKV8tJ7.s:32342  .debug_str:00000000000295b8 .LASF135
C:\Users\SOLDER~1\AppData\Local\Temp\ccKV8tJ7.s:32144  .debug_str:00000000000288e9 .LASF136
C:\Users\SOLDER~1\AppData\Local\Temp\ccKV8tJ7.s:25802  .debug_str:000000000000ee10 .LASF137
C:\Users\SOLDER~1\AppData\Local\Temp\ccKV8tJ7.s:31402  .debug_str:00000000000257e2 .LASF138
C:\Users\SOLDER~1\AppData\Local\Temp\ccKV8tJ7.s:23290  .debug_str:0000000000004a2f .LASF139
C:\Users\SOLDER~1\AppData\Local\Temp\ccKV8tJ7.s:24170  .debug_str:0000000000008345 .LASF140
C:\Users\SOLDER~1\AppData\Local\Temp\ccKV8tJ7.s:33202  .debug_str:000000000002cdfd .LASF141
C:\Users\SOLDER~1\AppData\Local\Temp\ccKV8tJ7.s:29122  .debug_str:000000000001c3f4 .LASF142
C:\Users\SOLDER~1\AppData\Local\Temp\ccKV8tJ7.s:32680  .debug_str:000000000002ac2c .LASF143
C:\Users\SOLDER~1\AppData\Local\Temp\ccKV8tJ7.s:31782  .debug_str:0000000000027174 .LASF144
C:\Users\SOLDER~1\AppData\Local\Temp\ccKV8tJ7.s:29324  .debug_str:000000000001d1ce .LASF145
C:\Users\SOLDER~1\AppData\Local\Temp\ccKV8tJ7.s:24656  .debug_str:000000000000a2b8 .LASF146
C:\Users\SOLDER~1\AppData\Local\Temp\ccKV8tJ7.s:26950  .debug_str:0000000000013783 .LASF147
C:\Users\SOLDER~1\AppData\Local\Temp\ccKV8tJ7.s:28466  .debug_str:0000000000019ad4 .LASF148
C:\Users\SOLDER~1\AppData\Local\Temp\ccKV8tJ7.s:27514  .debug_str:0000000000015d16 .LASF149
C:\Users\SOLDER~1\AppData\Local\Temp\ccKV8tJ7.s:25350  .debug_str:000000000000d0a1 .LASF150
C:\Users\SOLDER~1\AppData\Local\Temp\ccKV8tJ7.s:23350  .debug_str:0000000000004e10 .LASF151
C:\Users\SOLDER~1\AppData\Local\Temp\ccKV8tJ7.s:25946  .debug_str:000000000000f73e .LASF152
C:\Users\SOLDER~1\AppData\Local\Temp\ccKV8tJ7.s:28454  .debug_str:0000000000019a3c .LASF153
C:\Users\SOLDER~1\AppData\Local\Temp\ccKV8tJ7.s:22244  .debug_str:0000000000000745 .LASF154
C:\Users\SOLDER~1\AppData\Local\Temp\ccKV8tJ7.s:30830  .debug_str:00000000000232f8 .LASF155
C:\Users\SOLDER~1\AppData\Local\Temp\ccKV8tJ7.s:27004  .debug_str:0000000000013b45 .LASF156
C:\Users\SOLDER~1\AppData\Local\Temp\ccKV8tJ7.s:31786  .debug_str:00000000000271a2 .LASF157
C:\Users\SOLDER~1\AppData\Local\Temp\ccKV8tJ7.s:29534  .debug_str:000000000001df18 .LASF158
C:\Users\SOLDER~1\AppData\Local\Temp\ccKV8tJ7.s:31718  .debug_str:0000000000026d03 .LASF159
C:\Users\SOLDER~1\AppData\Local\Temp\ccKV8tJ7.s:32396  .debug_str:000000000002994c .LASF160
C:\Users\SOLDER~1\AppData\Local\Temp\ccKV8tJ7.s:29674  .debug_str:000000000001e832 .LASF161
C:\Users\SOLDER~1\AppData\Local\Temp\ccKV8tJ7.s:25218  .debug_str:000000000000c7d0 .LASF162
C:\Users\SOLDER~1\AppData\Local\Temp\ccKV8tJ7.s:24276  .debug_str:00000000000089df .LASF163
C:\Users\SOLDER~1\AppData\Local\Temp\ccKV8tJ7.s:27146  .debug_str:0000000000014553 .LASF164
C:\Users\SOLDER~1\AppData\Local\Temp\ccKV8tJ7.s:29168  .debug_str:000000000001c72f .LASF165
C:\Users\SOLDER~1\AppData\Local\Temp\ccKV8tJ7.s:30646  .debug_str:00000000000226f0 .LASF166
C:\Users\SOLDER~1\AppData\Local\Temp\ccKV8tJ7.s:32274  .debug_str:0000000000029184 .LASF167
C:\Users\SOLDER~1\AppData\Local\Temp\ccKV8tJ7.s:31392  .debug_str:0000000000025728 .LASF168
C:\Users\SOLDER~1\AppData\Local\Temp\ccKV8tJ7.s:33102  .debug_str:000000000002c7ae .LASF169
C:\Users\SOLDER~1\AppData\Local\Temp\ccKV8tJ7.s:24034  .debug_str:0000000000007a26 .LASF170
C:\Users\SOLDER~1\AppData\Local\Temp\ccKV8tJ7.s:32776  .debug_str:000000000002b24b .LASF171
C:\Users\SOLDER~1\AppData\Local\Temp\ccKV8tJ7.s:24422  .debug_str:00000000000093a2 .LASF172
C:\Users\SOLDER~1\AppData\Local\Temp\ccKV8tJ7.s:29020  .debug_str:000000000001bd42 .LASF173
C:\Users\SOLDER~1\AppData\Local\Temp\ccKV8tJ7.s:28252  .debug_str:0000000000018ca9 .LASF174
C:\Users\SOLDER~1\AppData\Local\Temp\ccKV8tJ7.s:32204  .debug_str:0000000000028cc1 .LASF175
C:\Users\SOLDER~1\AppData\Local\Temp\ccKV8tJ7.s:27882  .debug_str:0000000000017438 .LASF176
C:\Users\SOLDER~1\AppData\Local\Temp\ccKV8tJ7.s:29452  .debug_str:000000000001da27 .LASF177
C:\Users\SOLDER~1\AppData\Local\Temp\ccKV8tJ7.s:24650  .debug_str:000000000000a273 .LASF178
C:\Users\SOLDER~1\AppData\Local\Temp\ccKV8tJ7.s:26668  .debug_str:000000000001251f .LASF179
C:\Users\SOLDER~1\AppData\Local\Temp\ccKV8tJ7.s:28580  .debug_str:000000000001a198 .LASF180
C:\Users\SOLDER~1\AppData\Local\Temp\ccKV8tJ7.s:23688  .debug_str:00000000000063a5 .LASF181
C:\Users\SOLDER~1\AppData\Local\Temp\ccKV8tJ7.s:24504  .debug_str:0000000000009927 .LASF182
C:\Users\SOLDER~1\AppData\Local\Temp\ccKV8tJ7.s:23156  .debug_str:000000000000421e .LASF183
C:\Users\SOLDER~1\AppData\Local\Temp\ccKV8tJ7.s:28636  .debug_str:000000000001a51b .LASF184
C:\Users\SOLDER~1\AppData\Local\Temp\ccKV8tJ7.s:27148  .debug_str:000000000001456a .LASF185
C:\Users\SOLDER~1\AppData\Local\Temp\ccKV8tJ7.s:22674  .debug_str:000000000000239f .LASF186
C:\Users\SOLDER~1\AppData\Local\Temp\ccKV8tJ7.s:33404  .debug_str:000000000002db2b .LASF187
GAS LISTING C:\Users\SOLDER~1\AppData\Local\Temp\ccKV8tJ7.s 			page 93


C:\Users\SOLDER~1\AppData\Local\Temp\ccKV8tJ7.s:22456  .debug_str:0000000000001588 .LASF188
C:\Users\SOLDER~1\AppData\Local\Temp\ccKV8tJ7.s:27128  .debug_str:0000000000014411 .LASF189
C:\Users\SOLDER~1\AppData\Local\Temp\ccKV8tJ7.s:27588  .debug_str:00000000000161c9 .LASF190
C:\Users\SOLDER~1\AppData\Local\Temp\ccKV8tJ7.s:32606  .debug_str:000000000002a723 .LASF191
C:\Users\SOLDER~1\AppData\Local\Temp\ccKV8tJ7.s:25550  .debug_str:000000000000dd7c .LASF192
C:\Users\SOLDER~1\AppData\Local\Temp\ccKV8tJ7.s:33074  .debug_str:000000000002c597 .LASF193
C:\Users\SOLDER~1\AppData\Local\Temp\ccKV8tJ7.s:27094  .debug_str:00000000000141a7 .LASF194
C:\Users\SOLDER~1\AppData\Local\Temp\ccKV8tJ7.s:25844  .debug_str:000000000000f0e3 .LASF195
C:\Users\SOLDER~1\AppData\Local\Temp\ccKV8tJ7.s:24858  .debug_str:000000000000b04a .LASF196
C:\Users\SOLDER~1\AppData\Local\Temp\ccKV8tJ7.s:29734  .debug_str:000000000001ec3f .LASF197
C:\Users\SOLDER~1\AppData\Local\Temp\ccKV8tJ7.s:32694  .debug_str:000000000002ad1f .LASF198
C:\Users\SOLDER~1\AppData\Local\Temp\ccKV8tJ7.s:27380  .debug_str:00000000000154a2 .LASF199
C:\Users\SOLDER~1\AppData\Local\Temp\ccKV8tJ7.s:29936  .debug_str:000000000001f9cd .LASF200
C:\Users\SOLDER~1\AppData\Local\Temp\ccKV8tJ7.s:22466  .debug_str:000000000000162a .LASF201
C:\Users\SOLDER~1\AppData\Local\Temp\ccKV8tJ7.s:33642  .debug_str:000000000002ea11 .LASF202
C:\Users\SOLDER~1\AppData\Local\Temp\ccKV8tJ7.s:27356  .debug_str:00000000000152f5 .LASF203
C:\Users\SOLDER~1\AppData\Local\Temp\ccKV8tJ7.s:30130  .debug_str:0000000000020628 .LASF204
C:\Users\SOLDER~1\AppData\Local\Temp\ccKV8tJ7.s:28656  .debug_str:000000000001a65d .LASF205
C:\Users\SOLDER~1\AppData\Local\Temp\ccKV8tJ7.s:23736  .debug_str:00000000000066c9 .LASF206
C:\Users\SOLDER~1\AppData\Local\Temp\ccKV8tJ7.s:27368  .debug_str:00000000000153bc .LASF207
C:\Users\SOLDER~1\AppData\Local\Temp\ccKV8tJ7.s:29374  .debug_str:000000000001d4e0 .LASF208
C:\Users\SOLDER~1\AppData\Local\Temp\ccKV8tJ7.s:30372  .debug_str:00000000000215b6 .LASF209
C:\Users\SOLDER~1\AppData\Local\Temp\ccKV8tJ7.s:26174  .debug_str:0000000000010679 .LASF210
C:\Users\SOLDER~1\AppData\Local\Temp\ccKV8tJ7.s:31788  .debug_str:00000000000271de .LASF211
C:\Users\SOLDER~1\AppData\Local\Temp\ccKV8tJ7.s:31578  .debug_str:0000000000026386 .LASF212
C:\Users\SOLDER~1\AppData\Local\Temp\ccKV8tJ7.s:30388  .debug_str:00000000000216f0 .LASF213
C:\Users\SOLDER~1\AppData\Local\Temp\ccKV8tJ7.s:31092  .debug_str:00000000000243e4 .LASF214
C:\Users\SOLDER~1\AppData\Local\Temp\ccKV8tJ7.s:27676  .debug_str:0000000000016771 .LASF215
C:\Users\SOLDER~1\AppData\Local\Temp\ccKV8tJ7.s:23944  .debug_str:00000000000074be .LASF216
C:\Users\SOLDER~1\AppData\Local\Temp\ccKV8tJ7.s:24362  .debug_str:0000000000008f9d .LASF217
C:\Users\SOLDER~1\AppData\Local\Temp\ccKV8tJ7.s:31656  .debug_str:000000000002690d .LASF218
C:\Users\SOLDER~1\AppData\Local\Temp\ccKV8tJ7.s:30572  .debug_str:000000000002228f .LASF219
C:\Users\SOLDER~1\AppData\Local\Temp\ccKV8tJ7.s:22772  .debug_str:0000000000002a41 .LASF220
C:\Users\SOLDER~1\AppData\Local\Temp\ccKV8tJ7.s:24498  .debug_str:0000000000009884 .LASF221
C:\Users\SOLDER~1\AppData\Local\Temp\ccKV8tJ7.s:22186  .debug_str:00000000000002c8 .LASF222
C:\Users\SOLDER~1\AppData\Local\Temp\ccKV8tJ7.s:30166  .debug_str:0000000000020869 .LASF223
C:\Users\SOLDER~1\AppData\Local\Temp\ccKV8tJ7.s:24410  .debug_str:00000000000092db .LASF224
C:\Users\SOLDER~1\AppData\Local\Temp\ccKV8tJ7.s:23744  .debug_str:000000000000677c .LASF225
C:\Users\SOLDER~1\AppData\Local\Temp\ccKV8tJ7.s:29638  .debug_str:000000000001e607 .LASF226
C:\Users\SOLDER~1\AppData\Local\Temp\ccKV8tJ7.s:27778  .debug_str:0000000000016daa .LASF227
C:\Users\SOLDER~1\AppData\Local\Temp\ccKV8tJ7.s:26090  .debug_str:0000000000010120 .LASF228
C:\Users\SOLDER~1\AppData\Local\Temp\ccKV8tJ7.s:30164  .debug_str:0000000000020850 .LASF229
C:\Users\SOLDER~1\AppData\Local\Temp\ccKV8tJ7.s:31224  .debug_str:0000000000024c8b .LASF230
C:\Users\SOLDER~1\AppData\Local\Temp\ccKV8tJ7.s:26116  .debug_str:00000000000102af .LASF231
C:\Users\SOLDER~1\AppData\Local\Temp\ccKV8tJ7.s:32014  .debug_str:000000000002802d .LASF232
C:\Users\SOLDER~1\AppData\Local\Temp\ccKV8tJ7.s:31288  .debug_str:00000000000250c7 .LASF233
C:\Users\SOLDER~1\AppData\Local\Temp\ccKV8tJ7.s:33050  .debug_str:000000000002c3e2 .LASF234
C:\Users\SOLDER~1\AppData\Local\Temp\ccKV8tJ7.s:24140  .debug_str:0000000000008151 .LASF235
C:\Users\SOLDER~1\AppData\Local\Temp\ccKV8tJ7.s:26168  .debug_str:0000000000010611 .LASF236
C:\Users\SOLDER~1\AppData\Local\Temp\ccKV8tJ7.s:25618  .debug_str:000000000000e209 .LASF237
C:\Users\SOLDER~1\AppData\Local\Temp\ccKV8tJ7.s:31454  .debug_str:0000000000025b12 .LASF238
C:\Users\SOLDER~1\AppData\Local\Temp\ccKV8tJ7.s:26988  .debug_str:0000000000013a0b .LASF239
C:\Users\SOLDER~1\AppData\Local\Temp\ccKV8tJ7.s:30182  .debug_str:000000000002096d .LASF240
C:\Users\SOLDER~1\AppData\Local\Temp\ccKV8tJ7.s:22314  .debug_str:0000000000000c39 .LASF241
C:\Users\SOLDER~1\AppData\Local\Temp\ccKV8tJ7.s:27980  .debug_str:0000000000017ac3 .LASF242
C:\Users\SOLDER~1\AppData\Local\Temp\ccKV8tJ7.s:29468  .debug_str:000000000001db18 .LASF243
C:\Users\SOLDER~1\AppData\Local\Temp\ccKV8tJ7.s:28822  .debug_str:000000000001b131 .LASF244
GAS LISTING C:\Users\SOLDER~1\AppData\Local\Temp\ccKV8tJ7.s 			page 94


C:\Users\SOLDER~1\AppData\Local\Temp\ccKV8tJ7.s:33370  .debug_str:000000000002d8ee .LASF245
C:\Users\SOLDER~1\AppData\Local\Temp\ccKV8tJ7.s:29402  .debug_str:000000000001d701 .LASF246
C:\Users\SOLDER~1\AppData\Local\Temp\ccKV8tJ7.s:32498  .debug_str:0000000000029fd1 .LASF247
C:\Users\SOLDER~1\AppData\Local\Temp\ccKV8tJ7.s:25642  .debug_str:000000000000e3f4 .LASF248
C:\Users\SOLDER~1\AppData\Local\Temp\ccKV8tJ7.s:31876  .debug_str:000000000002776d .LASF249
C:\Users\SOLDER~1\AppData\Local\Temp\ccKV8tJ7.s:25494  .debug_str:000000000000da0f .LASF250
C:\Users\SOLDER~1\AppData\Local\Temp\ccKV8tJ7.s:28728  .debug_str:000000000001ab19 .LASF251
C:\Users\SOLDER~1\AppData\Local\Temp\ccKV8tJ7.s:26204  .debug_str:0000000000010840 .LASF252
C:\Users\SOLDER~1\AppData\Local\Temp\ccKV8tJ7.s:22390  .debug_str:0000000000001112 .LASF253
C:\Users\SOLDER~1\AppData\Local\Temp\ccKV8tJ7.s:24936  .debug_str:000000000000b52d .LASF254
C:\Users\SOLDER~1\AppData\Local\Temp\ccKV8tJ7.s:22330  .debug_str:0000000000000d69 .LASF255
C:\Users\SOLDER~1\AppData\Local\Temp\ccKV8tJ7.s:25046  .debug_str:000000000000bc22 .LASF256
C:\Users\SOLDER~1\AppData\Local\Temp\ccKV8tJ7.s:24502  .debug_str:00000000000098e2 .LASF257
C:\Users\SOLDER~1\AppData\Local\Temp\ccKV8tJ7.s:33584  .debug_str:000000000002e675 .LASF258
C:\Users\SOLDER~1\AppData\Local\Temp\ccKV8tJ7.s:29350  .debug_str:000000000001d356 .LASF259
C:\Users\SOLDER~1\AppData\Local\Temp\ccKV8tJ7.s:28138  .debug_str:0000000000018563 .LASF260
C:\Users\SOLDER~1\AppData\Local\Temp\ccKV8tJ7.s:28950  .debug_str:000000000001b909 .LASF261
C:\Users\SOLDER~1\AppData\Local\Temp\ccKV8tJ7.s:25670  .debug_str:000000000000e5e9 .LASF262
C:\Users\SOLDER~1\AppData\Local\Temp\ccKV8tJ7.s:24992  .debug_str:000000000000b8aa .LASF263
C:\Users\SOLDER~1\AppData\Local\Temp\ccKV8tJ7.s:32866  .debug_str:000000000002b843 .LASF264
C:\Users\SOLDER~1\AppData\Local\Temp\ccKV8tJ7.s:25308  .debug_str:000000000000cded .LASF265
C:\Users\SOLDER~1\AppData\Local\Temp\ccKV8tJ7.s:26302  .debug_str:0000000000010e4c .LASF266
C:\Users\SOLDER~1\AppData\Local\Temp\ccKV8tJ7.s:28170  .debug_str:0000000000018762 .LASF267
C:\Users\SOLDER~1\AppData\Local\Temp\ccKV8tJ7.s:32124  .debug_str:00000000000287c8 .LASF268
C:\Users\SOLDER~1\AppData\Local\Temp\ccKV8tJ7.s:25126  .debug_str:000000000000c14d .LASF269
C:\Users\SOLDER~1\AppData\Local\Temp\ccKV8tJ7.s:23834  .debug_str:0000000000006d3d .LASF270
C:\Users\SOLDER~1\AppData\Local\Temp\ccKV8tJ7.s:24014  .debug_str:00000000000078dc .LASF271
C:\Users\SOLDER~1\AppData\Local\Temp\ccKV8tJ7.s:25362  .debug_str:000000000000d174 .LASF272
C:\Users\SOLDER~1\AppData\Local\Temp\ccKV8tJ7.s:25196  .debug_str:000000000000c63d .LASF273
C:\Users\SOLDER~1\AppData\Local\Temp\ccKV8tJ7.s:22478  .debug_str:00000000000016f0 .LASF274
C:\Users\SOLDER~1\AppData\Local\Temp\ccKV8tJ7.s:23826  .debug_str:0000000000006cca .LASF275
C:\Users\SOLDER~1\AppData\Local\Temp\ccKV8tJ7.s:32802  .debug_str:000000000002b3e7 .LASF276
C:\Users\SOLDER~1\AppData\Local\Temp\ccKV8tJ7.s:30730  .debug_str:0000000000022c35 .LASF277
C:\Users\SOLDER~1\AppData\Local\Temp\ccKV8tJ7.s:31682  .debug_str:0000000000026ac5 .LASF278
C:\Users\SOLDER~1\AppData\Local\Temp\ccKV8tJ7.s:23786  .debug_str:0000000000006a39 .LASF279
C:\Users\SOLDER~1\AppData\Local\Temp\ccKV8tJ7.s:23566  .debug_str:0000000000005b93 .LASF280
C:\Users\SOLDER~1\AppData\Local\Temp\ccKV8tJ7.s:23448  .debug_str:000000000000540a .LASF281
C:\Users\SOLDER~1\AppData\Local\Temp\ccKV8tJ7.s:28198  .debug_str:0000000000018957 .LASF282
C:\Users\SOLDER~1\AppData\Local\Temp\ccKV8tJ7.s:31652  .debug_str:00000000000268c8 .LASF283
C:\Users\SOLDER~1\AppData\Local\Temp\ccKV8tJ7.s:31920  .debug_str:0000000000027a49 .LASF284
C:\Users\SOLDER~1\AppData\Local\Temp\ccKV8tJ7.s:32782  .debug_str:000000000002b2ad .LASF285
C:\Users\SOLDER~1\AppData\Local\Temp\ccKV8tJ7.s:29412  .debug_str:000000000001d7a5 .LASF286
C:\Users\SOLDER~1\AppData\Local\Temp\ccKV8tJ7.s:33574  .debug_str:000000000002e5d4 .LASF287
C:\Users\SOLDER~1\AppData\Local\Temp\ccKV8tJ7.s:23538  .debug_str:00000000000059d0 .LASF288
C:\Users\SOLDER~1\AppData\Local\Temp\ccKV8tJ7.s:27384  .debug_str:00000000000154d7 .LASF289
C:\Users\SOLDER~1\AppData\Local\Temp\ccKV8tJ7.s:26254  .debug_str:0000000000010b7a .LASF290
C:\Users\SOLDER~1\AppData\Local\Temp\ccKV8tJ7.s:33816  .debug_str:000000000002f502 .LASF291
C:\Users\SOLDER~1\AppData\Local\Temp\ccKV8tJ7.s:32624  .debug_str:000000000002a87e .LASF292
C:\Users\SOLDER~1\AppData\Local\Temp\ccKV8tJ7.s:23372  .debug_str:0000000000004f59 .LASF293
C:\Users\SOLDER~1\AppData\Local\Temp\ccKV8tJ7.s:22188  .debug_str:0000000000000309 .LASF294
C:\Users\SOLDER~1\AppData\Local\Temp\ccKV8tJ7.s:27438  .debug_str:000000000001584b .LASF295
C:\Users\SOLDER~1\AppData\Local\Temp\ccKV8tJ7.s:28270  .debug_str:0000000000018df7 .LASF296
C:\Users\SOLDER~1\AppData\Local\Temp\ccKV8tJ7.s:25662  .debug_str:000000000000e563 .LASF297
C:\Users\SOLDER~1\AppData\Local\Temp\ccKV8tJ7.s:26196  .debug_str:00000000000107cd .LASF298
C:\Users\SOLDER~1\AppData\Local\Temp\ccKV8tJ7.s:28990  .debug_str:000000000001bb6b .LASF299
C:\Users\SOLDER~1\AppData\Local\Temp\ccKV8tJ7.s:27508  .debug_str:0000000000015cd7 .LASF300
C:\Users\SOLDER~1\AppData\Local\Temp\ccKV8tJ7.s:26930  .debug_str:000000000001361d .LASF301
GAS LISTING C:\Users\SOLDER~1\AppData\Local\Temp\ccKV8tJ7.s 			page 95


C:\Users\SOLDER~1\AppData\Local\Temp\ccKV8tJ7.s:22710  .debug_str:0000000000002615 .LASF302
C:\Users\SOLDER~1\AppData\Local\Temp\ccKV8tJ7.s:25312  .debug_str:000000000000ce2f .LASF303
C:\Users\SOLDER~1\AppData\Local\Temp\ccKV8tJ7.s:30810  .debug_str:00000000000231b3 .LASF304
C:\Users\SOLDER~1\AppData\Local\Temp\ccKV8tJ7.s:26218  .debug_str:0000000000010903 .LASF305
C:\Users\SOLDER~1\AppData\Local\Temp\ccKV8tJ7.s:31672  .debug_str:0000000000026a34 .LASF306
C:\Users\SOLDER~1\AppData\Local\Temp\ccKV8tJ7.s:31260  .debug_str:0000000000024edd .LASF307
C:\Users\SOLDER~1\AppData\Local\Temp\ccKV8tJ7.s:29424  .debug_str:000000000001d870 .LASF308
C:\Users\SOLDER~1\AppData\Local\Temp\ccKV8tJ7.s:23162  .debug_str:0000000000004282 .LASF309
C:\Users\SOLDER~1\AppData\Local\Temp\ccKV8tJ7.s:28732  .debug_str:000000000001ab58 .LASF310
C:\Users\SOLDER~1\AppData\Local\Temp\ccKV8tJ7.s:25438  .debug_str:000000000000d66c .LASF311
C:\Users\SOLDER~1\AppData\Local\Temp\ccKV8tJ7.s:26754  .debug_str:0000000000012a59 .LASF312
C:\Users\SOLDER~1\AppData\Local\Temp\ccKV8tJ7.s:24574  .debug_str:0000000000009d4d .LASF313
C:\Users\SOLDER~1\AppData\Local\Temp\ccKV8tJ7.s:27192  .debug_str:000000000001488e .LASF314
C:\Users\SOLDER~1\AppData\Local\Temp\ccKV8tJ7.s:24010  .debug_str:000000000000789d .LASF315
C:\Users\SOLDER~1\AppData\Local\Temp\ccKV8tJ7.s:29500  .debug_str:000000000001dd06 .LASF316
C:\Users\SOLDER~1\AppData\Local\Temp\ccKV8tJ7.s:32010  .debug_str:0000000000027ffe .LASF317
C:\Users\SOLDER~1\AppData\Local\Temp\ccKV8tJ7.s:31266  .debug_str:0000000000024f44 .LASF319
C:\Users\SOLDER~1\AppData\Local\Temp\ccKV8tJ7.s:26052  .debug_str:000000000000feaa .LASF320
C:\Users\SOLDER~1\AppData\Local\Temp\ccKV8tJ7.s:27354  .debug_str:00000000000152d0 .LASF321
C:\Users\SOLDER~1\AppData\Local\Temp\ccKV8tJ7.s:29836  .debug_str:000000000001f2f8 .LASF322
C:\Users\SOLDER~1\AppData\Local\Temp\ccKV8tJ7.s:28630  .debug_str:000000000001a4bb .LASF323
C:\Users\SOLDER~1\AppData\Local\Temp\ccKV8tJ7.s:25326  .debug_str:000000000000cf1a .LASF324
C:\Users\SOLDER~1\AppData\Local\Temp\ccKV8tJ7.s:23534  .debug_str:0000000000005997 .LASF325
C:\Users\SOLDER~1\AppData\Local\Temp\ccKV8tJ7.s:22268  .debug_str:00000000000008c8 .LASF326
C:\Users\SOLDER~1\AppData\Local\Temp\ccKV8tJ7.s:32628  .debug_str:000000000002a8c3 .LASF327
C:\Users\SOLDER~1\AppData\Local\Temp\ccKV8tJ7.s:25408  .debug_str:000000000000d45f .LASF328
C:\Users\SOLDER~1\AppData\Local\Temp\ccKV8tJ7.s:33498  .debug_str:000000000002e11a .LASF329
C:\Users\SOLDER~1\AppData\Local\Temp\ccKV8tJ7.s:23658  .debug_str:00000000000061c0 .LASF330
C:\Users\SOLDER~1\AppData\Local\Temp\ccKV8tJ7.s:23208  .debug_str:0000000000004520 .LASF331
C:\Users\SOLDER~1\AppData\Local\Temp\ccKV8tJ7.s:22200  .debug_str:00000000000003ca .LASF332
C:\Users\SOLDER~1\AppData\Local\Temp\ccKV8tJ7.s:27610  .debug_str:000000000001633e .LASF333
C:\Users\SOLDER~1\AppData\Local\Temp\ccKV8tJ7.s:30274  .debug_str:0000000000020f78 .LASF334
C:\Users\SOLDER~1\AppData\Local\Temp\ccKV8tJ7.s:28512  .debug_str:0000000000019d95 .LASF335
C:\Users\SOLDER~1\AppData\Local\Temp\ccKV8tJ7.s:28372  .debug_str:000000000001949e .LASF339
C:\Users\SOLDER~1\AppData\Local\Temp\ccKV8tJ7.s:28922  .debug_str:000000000001b73e .LASF340
C:\Users\SOLDER~1\AppData\Local\Temp\ccKV8tJ7.s:24884  .debug_str:000000000000b1ce .LASF341
C:\Users\SOLDER~1\AppData\Local\Temp\ccKV8tJ7.s:28144  .debug_str:00000000000185c9 .LASF342
C:\Users\SOLDER~1\AppData\Local\Temp\ccKV8tJ7.s:28356  .debug_str:000000000001939f .LASF343
C:\Users\SOLDER~1\AppData\Local\Temp\ccKV8tJ7.s:22756  .debug_str:00000000000028f7 .LASF344
C:\Users\SOLDER~1\AppData\Local\Temp\ccKV8tJ7.s:24930  .debug_str:000000000000b4bb .LASF345
C:\Users\SOLDER~1\AppData\Local\Temp\ccKV8tJ7.s:23074  .debug_str:0000000000003d28 .LASF346
C:\Users\SOLDER~1\AppData\Local\Temp\ccKV8tJ7.s:33148  .debug_str:000000000002ca9d .LASF347
C:\Users\SOLDER~1\AppData\Local\Temp\ccKV8tJ7.s:27702  .debug_str:00000000000168eb .LASF348
C:\Users\SOLDER~1\AppData\Local\Temp\ccKV8tJ7.s:30204  .debug_str:0000000000020afa .LASF349
C:\Users\SOLDER~1\AppData\Local\Temp\ccKV8tJ7.s:24400  .debug_str:0000000000009256 .LASF350
C:\Users\SOLDER~1\AppData\Local\Temp\ccKV8tJ7.s:28208  .debug_str:00000000000189ee .LASF351
C:\Users\SOLDER~1\AppData\Local\Temp\ccKV8tJ7.s:33488  .debug_str:000000000002e083 .LASF352
C:\Users\SOLDER~1\AppData\Local\Temp\ccKV8tJ7.s:24860  .debug_str:000000000000b063 .LASF353
C:\Users\SOLDER~1\AppData\Local\Temp\ccKV8tJ7.s:25964  .debug_str:000000000000f876 .LASF354
C:\Users\SOLDER~1\AppData\Local\Temp\ccKV8tJ7.s:29438  .debug_str:000000000001d95c .LASF355
C:\Users\SOLDER~1\AppData\Local\Temp\ccKV8tJ7.s:27608  .debug_str:000000000001632e .LASF356
C:\Users\SOLDER~1\AppData\Local\Temp\ccKV8tJ7.s:27754  .debug_str:0000000000016c2b .LASF357
C:\Users\SOLDER~1\AppData\Local\Temp\ccKV8tJ7.s:30856  .debug_str:0000000000023475 .LASF358
C:\Users\SOLDER~1\AppData\Local\Temp\ccKV8tJ7.s:26812  .debug_str:0000000000012e61 .LASF359
C:\Users\SOLDER~1\AppData\Local\Temp\ccKV8tJ7.s:27818  .debug_str:0000000000016fef .LASF360
C:\Users\SOLDER~1\AppData\Local\Temp\ccKV8tJ7.s:30972  .debug_str:0000000000023c4c .LASF361
C:\Users\SOLDER~1\AppData\Local\Temp\ccKV8tJ7.s:23898  .debug_str:00000000000071ba .LASF362
GAS LISTING C:\Users\SOLDER~1\AppData\Local\Temp\ccKV8tJ7.s 			page 96


C:\Users\SOLDER~1\AppData\Local\Temp\ccKV8tJ7.s:32756  .debug_str:000000000002b0e5 .LASF363
C:\Users\SOLDER~1\AppData\Local\Temp\ccKV8tJ7.s:23416  .debug_str:0000000000005210 .LASF364
C:\Users\SOLDER~1\AppData\Local\Temp\ccKV8tJ7.s:28290  .debug_str:0000000000018f58 .LASF365
C:\Users\SOLDER~1\AppData\Local\Temp\ccKV8tJ7.s:23998  .debug_str:00000000000077e2 .LASF366
C:\Users\SOLDER~1\AppData\Local\Temp\ccKV8tJ7.s:24952  .debug_str:000000000000b644 .LASF367
C:\Users\SOLDER~1\AppData\Local\Temp\ccKV8tJ7.s:22158  .debug_str:000000000000011b .LASF368
C:\Users\SOLDER~1\AppData\Local\Temp\ccKV8tJ7.s:30150  .debug_str:000000000002076c .LASF369
C:\Users\SOLDER~1\AppData\Local\Temp\ccKV8tJ7.s:25650  .debug_str:000000000000e487 .LASF370
C:\Users\SOLDER~1\AppData\Local\Temp\ccKV8tJ7.s:31168  .debug_str:00000000000248d9 .LASF371
C:\Users\SOLDER~1\AppData\Local\Temp\ccKV8tJ7.s:30080  .debug_str:00000000000202f8 .LASF372
C:\Users\SOLDER~1\AppData\Local\Temp\ccKV8tJ7.s:26410  .debug_str:00000000000114f7 .LASF373
C:\Users\SOLDER~1\AppData\Local\Temp\ccKV8tJ7.s:33634  .debug_str:000000000002e994 .LASF374
C:\Users\SOLDER~1\AppData\Local\Temp\ccKV8tJ7.s:33572  .debug_str:000000000002e5ce .LASF375
C:\Users\SOLDER~1\AppData\Local\Temp\ccKV8tJ7.s:24178  .debug_str:00000000000083c6 .LASF376
C:\Users\SOLDER~1\AppData\Local\Temp\ccKV8tJ7.s:32658  .debug_str:000000000002aaaf .LASF377
C:\Users\SOLDER~1\AppData\Local\Temp\ccKV8tJ7.s:27594  .debug_str:0000000000016251 .LASF378
C:\Users\SOLDER~1\AppData\Local\Temp\ccKV8tJ7.s:31434  .debug_str:00000000000259d8 .LASF379
C:\Users\SOLDER~1\AppData\Local\Temp\ccKV8tJ7.s:32458  .debug_str:0000000000029d84 .LASF380
C:\Users\SOLDER~1\AppData\Local\Temp\ccKV8tJ7.s:30894  .debug_str:0000000000023703 .LASF381
C:\Users\SOLDER~1\AppData\Local\Temp\ccKV8tJ7.s:27794  .debug_str:0000000000016e92 .LASF382
C:\Users\SOLDER~1\AppData\Local\Temp\ccKV8tJ7.s:32484  .debug_str:0000000000029f02 .LASF383
C:\Users\SOLDER~1\AppData\Local\Temp\ccKV8tJ7.s:29156  .debug_str:000000000001c673 .LASF384
C:\Users\SOLDER~1\AppData\Local\Temp\ccKV8tJ7.s:26510  .debug_str:0000000000011bad .LASF385
C:\Users\SOLDER~1\AppData\Local\Temp\ccKV8tJ7.s:31018  .debug_str:0000000000023f25 .LASF386
C:\Users\SOLDER~1\AppData\Local\Temp\ccKV8tJ7.s:29994  .debug_str:000000000001fd8a .LASF387
C:\Users\SOLDER~1\AppData\Local\Temp\ccKV8tJ7.s:22508  .debug_str:00000000000018cc .LASF388
C:\Users\SOLDER~1\AppData\Local\Temp\ccKV8tJ7.s:23178  .debug_str:000000000000436a .LASF389
C:\Users\SOLDER~1\AppData\Local\Temp\ccKV8tJ7.s:23592  .debug_str:0000000000005d3a .LASF390
C:\Users\SOLDER~1\AppData\Local\Temp\ccKV8tJ7.s:24778  .debug_str:000000000000ab0e .LASF391
C:\Users\SOLDER~1\AppData\Local\Temp\ccKV8tJ7.s:24248  .debug_str:000000000000882e .LASF392
C:\Users\SOLDER~1\AppData\Local\Temp\ccKV8tJ7.s:29682  .debug_str:000000000001e8b0 .LASF393
C:\Users\SOLDER~1\AppData\Local\Temp\ccKV8tJ7.s:30342  .debug_str:00000000000213cd .LASF394
C:\Users\SOLDER~1\AppData\Local\Temp\ccKV8tJ7.s:30478  .debug_str:0000000000021c97 .LASF395
C:\Users\SOLDER~1\AppData\Local\Temp\ccKV8tJ7.s:24406  .debug_str:00000000000092ac .LASF396
C:\Users\SOLDER~1\AppData\Local\Temp\ccKV8tJ7.s:23988  .debug_str:0000000000007761 .LASF397
C:\Users\SOLDER~1\AppData\Local\Temp\ccKV8tJ7.s:29496  .debug_str:000000000001dce2 .LASF398
C:\Users\SOLDER~1\AppData\Local\Temp\ccKV8tJ7.s:32172  .debug_str:0000000000028ad2 .LASF399
C:\Users\SOLDER~1\AppData\Local\Temp\ccKV8tJ7.s:26726  .debug_str:00000000000128c1 .LASF400
C:\Users\SOLDER~1\AppData\Local\Temp\ccKV8tJ7.s:27492  .debug_str:0000000000015bcc .LASF401
C:\Users\SOLDER~1\AppData\Local\Temp\ccKV8tJ7.s:25294  .debug_str:000000000000ccfc .LASF402
C:\Users\SOLDER~1\AppData\Local\Temp\ccKV8tJ7.s:29184  .debug_str:000000000001c835 .LASF403
C:\Users\SOLDER~1\AppData\Local\Temp\ccKV8tJ7.s:27710  .debug_str:0000000000016958 .LASF404
C:\Users\SOLDER~1\AppData\Local\Temp\ccKV8tJ7.s:28160  .debug_str:00000000000186cf .LASF405
C:\Users\SOLDER~1\AppData\Local\Temp\ccKV8tJ7.s:24304  .debug_str:0000000000008ba4 .LASF406
C:\Users\SOLDER~1\AppData\Local\Temp\ccKV8tJ7.s:33098  .debug_str:000000000002c77a .LASF407
C:\Users\SOLDER~1\AppData\Local\Temp\ccKV8tJ7.s:27040  .debug_str:0000000000013e05 .LASF408
C:\Users\SOLDER~1\AppData\Local\Temp\ccKV8tJ7.s:29526  .debug_str:000000000001dea3 .LASF409
C:\Users\SOLDER~1\AppData\Local\Temp\ccKV8tJ7.s:25876  .debug_str:000000000000f2c5 .LASF410
C:\Users\SOLDER~1\AppData\Local\Temp\ccKV8tJ7.s:30240  .debug_str:0000000000020d58 .LASF411
C:\Users\SOLDER~1\AppData\Local\Temp\ccKV8tJ7.s:32236  .debug_str:0000000000028f07 .LASF412
C:\Users\SOLDER~1\AppData\Local\Temp\ccKV8tJ7.s:26578  .debug_str:0000000000011f8d .LASF413
C:\Users\SOLDER~1\AppData\Local\Temp\ccKV8tJ7.s:26568  .debug_str:0000000000011f03 .LASF414
C:\Users\SOLDER~1\AppData\Local\Temp\ccKV8tJ7.s:28574  .debug_str:000000000001a156 .LASF415
C:\Users\SOLDER~1\AppData\Local\Temp\ccKV8tJ7.s:33670  .debug_str:000000000002ebdd .LASF416
C:\Users\SOLDER~1\AppData\Local\Temp\ccKV8tJ7.s:33808  .debug_str:000000000002f489 .LASF417
C:\Users\SOLDER~1\AppData\Local\Temp\ccKV8tJ7.s:24058  .debug_str:0000000000007bbf .LASF418
C:\Users\SOLDER~1\AppData\Local\Temp\ccKV8tJ7.s:25148  .debug_str:000000000000c2f7 .LASF419
GAS LISTING C:\Users\SOLDER~1\AppData\Local\Temp\ccKV8tJ7.s 			page 97


C:\Users\SOLDER~1\AppData\Local\Temp\ccKV8tJ7.s:22692  .debug_str:00000000000024e2 .LASF420
C:\Users\SOLDER~1\AppData\Local\Temp\ccKV8tJ7.s:30294  .debug_str:00000000000210cb .LASF421
C:\Users\SOLDER~1\AppData\Local\Temp\ccKV8tJ7.s:30994  .debug_str:0000000000023dac .LASF422
C:\Users\SOLDER~1\AppData\Local\Temp\ccKV8tJ7.s:22624  .debug_str:000000000000204a .LASF423
C:\Users\SOLDER~1\AppData\Local\Temp\ccKV8tJ7.s:26970  .debug_str:00000000000138d6 .LASF424
C:\Users\SOLDER~1\AppData\Local\Temp\ccKV8tJ7.s:30228  .debug_str:0000000000020c98 .LASF425
C:\Users\SOLDER~1\AppData\Local\Temp\ccKV8tJ7.s:26558  .debug_str:0000000000011e7f .LASF426
C:\Users\SOLDER~1\AppData\Local\Temp\ccKV8tJ7.s:33790  .debug_str:000000000002f369 .LASF427
C:\Users\SOLDER~1\AppData\Local\Temp\ccKV8tJ7.s:29196  .debug_str:000000000001c8ea .LASF428
C:\Users\SOLDER~1\AppData\Local\Temp\ccKV8tJ7.s:23432  .debug_str:0000000000005322 .LASF429
C:\Users\SOLDER~1\AppData\Local\Temp\ccKV8tJ7.s:31376  .debug_str:000000000002563d .LASF430
C:\Users\SOLDER~1\AppData\Local\Temp\ccKV8tJ7.s:26904  .debug_str:000000000001345d .LASF431
C:\Users\SOLDER~1\AppData\Local\Temp\ccKV8tJ7.s:31290  .debug_str:00000000000250e5 .LASF432
C:\Users\SOLDER~1\AppData\Local\Temp\ccKV8tJ7.s:23340  .debug_str:0000000000004d78 .LASF433
C:\Users\SOLDER~1\AppData\Local\Temp\ccKV8tJ7.s:25850  .debug_str:000000000000f131 .LASF434
C:\Users\SOLDER~1\AppData\Local\Temp\ccKV8tJ7.s:30118  .debug_str:0000000000020577 .LASF435
C:\Users\SOLDER~1\AppData\Local\Temp\ccKV8tJ7.s:22316  .debug_str:0000000000000c7f .LASF436
C:\Users\SOLDER~1\AppData\Local\Temp\ccKV8tJ7.s:25336  .debug_str:000000000000cfc8 .LASF437
C:\Users\SOLDER~1\AppData\Local\Temp\ccKV8tJ7.s:27322  .debug_str:00000000000150e3 .LASF438
C:\Users\SOLDER~1\AppData\Local\Temp\ccKV8tJ7.s:23418  .debug_str:0000000000005225 .LASF439
C:\Users\SOLDER~1\AppData\Local\Temp\ccKV8tJ7.s:26630  .debug_str:00000000000122b8 .LASF440
C:\Users\SOLDER~1\AppData\Local\Temp\ccKV8tJ7.s:32424  .debug_str:0000000000029b4d .LASF441
C:\Users\SOLDER~1\AppData\Local\Temp\ccKV8tJ7.s:24980  .debug_str:000000000000b7e3 .LASF442
C:\Users\SOLDER~1\AppData\Local\Temp\ccKV8tJ7.s:29246  .debug_str:000000000001cc5e .LASF443
C:\Users\SOLDER~1\AppData\Local\Temp\ccKV8tJ7.s:32972  .debug_str:000000000002bedd .LASF444
C:\Users\SOLDER~1\AppData\Local\Temp\ccKV8tJ7.s:26766  .debug_str:0000000000012b33 .LASF445
C:\Users\SOLDER~1\AppData\Local\Temp\ccKV8tJ7.s:26182  .debug_str:00000000000106f0 .LASF446
C:\Users\SOLDER~1\AppData\Local\Temp\ccKV8tJ7.s:30014  .debug_str:000000000001feba .LASF447
C:\Users\SOLDER~1\AppData\Local\Temp\ccKV8tJ7.s:24302  .debug_str:0000000000008b8a .LASF448
C:\Users\SOLDER~1\AppData\Local\Temp\ccKV8tJ7.s:29600  .debug_str:000000000001e3a4 .LASF449
C:\Users\SOLDER~1\AppData\Local\Temp\ccKV8tJ7.s:25842  .debug_str:000000000000f0b8 .LASF450
C:\Users\SOLDER~1\AppData\Local\Temp\ccKV8tJ7.s:32394  .debug_str:0000000000029926 .LASF451
C:\Users\SOLDER~1\AppData\Local\Temp\ccKV8tJ7.s:26484  .debug_str:00000000000119db .LASF452
C:\Users\SOLDER~1\AppData\Local\Temp\ccKV8tJ7.s:22876  .debug_str:00000000000030b6 .LASF453
C:\Users\SOLDER~1\AppData\Local\Temp\ccKV8tJ7.s:22462  .debug_str:00000000000015e7 .LASF454
C:\Users\SOLDER~1\AppData\Local\Temp\ccKV8tJ7.s:30738  .debug_str:0000000000022cb6 .LASF455
C:\Users\SOLDER~1\AppData\Local\Temp\ccKV8tJ7.s:31650  .debug_str:000000000002689d .LASF456
C:\Users\SOLDER~1\AppData\Local\Temp\ccKV8tJ7.s:25358  .debug_str:000000000000d125 .LASF457
C:\Users\SOLDER~1\AppData\Local\Temp\ccKV8tJ7.s:25688  .debug_str:000000000000e706 .LASF458
C:\Users\SOLDER~1\AppData\Local\Temp\ccKV8tJ7.s:32296  .debug_str:00000000000292ce .LASF459
C:\Users\SOLDER~1\AppData\Local\Temp\ccKV8tJ7.s:33214  .debug_str:000000000002ceab .LASF460
C:\Users\SOLDER~1\AppData\Local\Temp\ccKV8tJ7.s:22448  .debug_str:00000000000014f2 .LASF461
C:\Users\SOLDER~1\AppData\Local\Temp\ccKV8tJ7.s:24962  .debug_str:000000000000b6cd .LASF462
C:\Users\SOLDER~1\AppData\Local\Temp\ccKV8tJ7.s:31606  .debug_str:000000000002658a .LASF463
C:\Users\SOLDER~1\AppData\Local\Temp\ccKV8tJ7.s:28920  .debug_str:000000000001b718 .LASF464
C:\Users\SOLDER~1\AppData\Local\Temp\ccKV8tJ7.s:32148  .debug_str:0000000000028927 .LASF465
C:\Users\SOLDER~1\AppData\Local\Temp\ccKV8tJ7.s:28090  .debug_str:0000000000018239 .LASF466
C:\Users\SOLDER~1\AppData\Local\Temp\ccKV8tJ7.s:30528  .debug_str:0000000000021fcd .LASF467
C:\Users\SOLDER~1\AppData\Local\Temp\ccKV8tJ7.s:29148  .debug_str:000000000001c5e3 .LASF468
C:\Users\SOLDER~1\AppData\Local\Temp\ccKV8tJ7.s:22552  .debug_str:0000000000001b86 .LASF469
C:\Users\SOLDER~1\AppData\Local\Temp\ccKV8tJ7.s:27518  .debug_str:0000000000015d54 .LASF470
C:\Users\SOLDER~1\AppData\Local\Temp\ccKV8tJ7.s:30098  .debug_str:000000000002041d .LASF471
C:\Users\SOLDER~1\AppData\Local\Temp\ccKV8tJ7.s:33478  .debug_str:000000000002dfe2 .LASF472
C:\Users\SOLDER~1\AppData\Local\Temp\ccKV8tJ7.s:33726  .debug_str:000000000002ef98 .LASF473
C:\Users\SOLDER~1\AppData\Local\Temp\ccKV8tJ7.s:33576  .debug_str:000000000002e5f6 .LASF474
C:\Users\SOLDER~1\AppData\Local\Temp\ccKV8tJ7.s:31642  .debug_str:00000000000267f7 .LASF475
C:\Users\SOLDER~1\AppData\Local\Temp\ccKV8tJ7.s:24594  .debug_str:0000000000009ea6 .LASF476
GAS LISTING C:\Users\SOLDER~1\AppData\Local\Temp\ccKV8tJ7.s 			page 98


C:\Users\SOLDER~1\AppData\Local\Temp\ccKV8tJ7.s:28696  .debug_str:000000000001a8da .LASF477
C:\Users\SOLDER~1\AppData\Local\Temp\ccKV8tJ7.s:27770  .debug_str:0000000000016d35 .LASF478
C:\Users\SOLDER~1\AppData\Local\Temp\ccKV8tJ7.s:31750  .debug_str:0000000000026f34 .LASF479
C:\Users\SOLDER~1\AppData\Local\Temp\ccKV8tJ7.s:22354  .debug_str:0000000000000ef9 .LASF480
C:\Users\SOLDER~1\AppData\Local\Temp\ccKV8tJ7.s:30540  .debug_str:0000000000022099 .LASF481
C:\Users\SOLDER~1\AppData\Local\Temp\ccKV8tJ7.s:31848  .debug_str:00000000000275b0 .LASF482
C:\Users\SOLDER~1\AppData\Local\Temp\ccKV8tJ7.s:25102  .debug_str:000000000000bfd7 .LASF483
C:\Users\SOLDER~1\AppData\Local\Temp\ccKV8tJ7.s:28856  .debug_str:000000000001b33e .LASF484
C:\Users\SOLDER~1\AppData\Local\Temp\ccKV8tJ7.s:28768  .debug_str:000000000001ad98 .LASF485
C:\Users\SOLDER~1\AppData\Local\Temp\ccKV8tJ7.s:31972  .debug_str:0000000000027da0 .LASF486
C:\Users\SOLDER~1\AppData\Local\Temp\ccKV8tJ7.s:29348  .debug_str:000000000001d33e .LASF487
C:\Users\SOLDER~1\AppData\Local\Temp\ccKV8tJ7.s:26108  .debug_str:0000000000010238 .LASF488
C:\Users\SOLDER~1\AppData\Local\Temp\ccKV8tJ7.s:28246  .debug_str:0000000000018c49 .LASF489
C:\Users\SOLDER~1\AppData\Local\Temp\ccKV8tJ7.s:23364  .debug_str:0000000000004ed2 .LASF490
C:\Users\SOLDER~1\AppData\Local\Temp\ccKV8tJ7.s:26460  .debug_str:000000000001185d .LASF491
C:\Users\SOLDER~1\AppData\Local\Temp\ccKV8tJ7.s:25424  .debug_str:000000000000d57b .LASF492
C:\Users\SOLDER~1\AppData\Local\Temp\ccKV8tJ7.s:30852  .debug_str:000000000002343e .LASF494
C:\Users\SOLDER~1\AppData\Local\Temp\ccKV8tJ7.s:24472  .debug_str:00000000000096ea .LASF495
C:\Users\SOLDER~1\AppData\Local\Temp\ccKV8tJ7.s:23460  .debug_str:00000000000054b9 .LASF496
C:\Users\SOLDER~1\AppData\Local\Temp\ccKV8tJ7.s:29606  .debug_str:000000000001e3fd .LASF497
C:\Users\SOLDER~1\AppData\Local\Temp\ccKV8tJ7.s:28926  .debug_str:000000000001b776 .LASF498
C:\Users\SOLDER~1\AppData\Local\Temp\ccKV8tJ7.s:29026  .debug_str:000000000001bdc9 .LASF499
C:\Users\SOLDER~1\AppData\Local\Temp\ccKV8tJ7.s:25692  .debug_str:000000000000e747 .LASF500
C:\Users\SOLDER~1\AppData\Local\Temp\ccKV8tJ7.s:23264  .debug_str:00000000000048e2 .LASF501
C:\Users\SOLDER~1\AppData\Local\Temp\ccKV8tJ7.s:26614  .debug_str:00000000000121c1 .LASF502
C:\Users\SOLDER~1\AppData\Local\Temp\ccKV8tJ7.s:31340  .debug_str:0000000000025420 .LASF503
C:\Users\SOLDER~1\AppData\Local\Temp\ccKV8tJ7.s:27476  .debug_str:0000000000015aa6 .LASF504
C:\Users\SOLDER~1\AppData\Local\Temp\ccKV8tJ7.s:22168  .debug_str:00000000000001a0 .LASF505
C:\Users\SOLDER~1\AppData\Local\Temp\ccKV8tJ7.s:25506  .debug_str:000000000000dad0 .LASF506
C:\Users\SOLDER~1\AppData\Local\Temp\ccKV8tJ7.s:33538  .debug_str:000000000002e386 .LASF507
C:\Users\SOLDER~1\AppData\Local\Temp\ccKV8tJ7.s:32464  .debug_str:0000000000029dd0 .LASF508
C:\Users\SOLDER~1\AppData\Local\Temp\ccKV8tJ7.s:26996  .debug_str:0000000000013ab3 .LASF509
C:\Users\SOLDER~1\AppData\Local\Temp\ccKV8tJ7.s:27940  .debug_str:000000000001784b .LASF510
C:\Users\SOLDER~1\AppData\Local\Temp\ccKV8tJ7.s:27308  .debug_str:000000000001500f .LASF511
C:\Users\SOLDER~1\AppData\Local\Temp\ccKV8tJ7.s:28388  .debug_str:00000000000195b7 .LASF512
C:\Users\SOLDER~1\AppData\Local\Temp\ccKV8tJ7.s:30268  .debug_str:0000000000020f1c .LASF513
C:\Users\SOLDER~1\AppData\Local\Temp\ccKV8tJ7.s:29266  .debug_str:000000000001cdb9 .LASF514
C:\Users\SOLDER~1\AppData\Local\Temp\ccKV8tJ7.s:24870  .debug_str:000000000000b0fb .LASF515
C:\Users\SOLDER~1\AppData\Local\Temp\ccKV8tJ7.s:33070  .debug_str:000000000002c54f .LASF516
C:\Users\SOLDER~1\AppData\Local\Temp\ccKV8tJ7.s:29516  .debug_str:000000000001ddf9 .LASF517
C:\Users\SOLDER~1\AppData\Local\Temp\ccKV8tJ7.s:32942  .debug_str:000000000002bd08 .LASF518
C:\Users\SOLDER~1\AppData\Local\Temp\ccKV8tJ7.s:31530  .debug_str:000000000002604f .LASF519
C:\Users\SOLDER~1\AppData\Local\Temp\ccKV8tJ7.s:28660  .debug_str:000000000001a6be .LASF520
C:\Users\SOLDER~1\AppData\Local\Temp\ccKV8tJ7.s:23682  .debug_str:000000000000632e .LASF521
C:\Users\SOLDER~1\AppData\Local\Temp\ccKV8tJ7.s:30898  .debug_str:0000000000023734 .LASF522
C:\Users\SOLDER~1\AppData\Local\Temp\ccKV8tJ7.s:26922  .debug_str:0000000000013584 .LASF523
C:\Users\SOLDER~1\AppData\Local\Temp\ccKV8tJ7.s:22656  .debug_str:0000000000002273 .LASF524
C:\Users\SOLDER~1\AppData\Local\Temp\ccKV8tJ7.s:29570  .debug_str:000000000001e19d .LASF525
C:\Users\SOLDER~1\AppData\Local\Temp\ccKV8tJ7.s:25562  .debug_str:000000000000de56 .LASF526
C:\Users\SOLDER~1\AppData\Local\Temp\ccKV8tJ7.s:27326  .debug_str:000000000001511f .LASF527
C:\Users\SOLDER~1\AppData\Local\Temp\ccKV8tJ7.s:25602  .debug_str:000000000000e0f8 .LASF528
C:\Users\SOLDER~1\AppData\Local\Temp\ccKV8tJ7.s:24360  .debug_str:0000000000008f79 .LASF529
C:\Users\SOLDER~1\AppData\Local\Temp\ccKV8tJ7.s:24002  .debug_str:000000000000781b .LASF530
C:\Users\SOLDER~1\AppData\Local\Temp\ccKV8tJ7.s:25186  .debug_str:000000000000c591 .LASF531
C:\Users\SOLDER~1\AppData\Local\Temp\ccKV8tJ7.s:31896  .debug_str:00000000000278bd .LASF532
C:\Users\SOLDER~1\AppData\Local\Temp\ccKV8tJ7.s:33686  .debug_str:000000000002ecd3 .LASF533
C:\Users\SOLDER~1\AppData\Local\Temp\ccKV8tJ7.s:26636  .debug_str:0000000000012328 .LASF534
GAS LISTING C:\Users\SOLDER~1\AppData\Local\Temp\ccKV8tJ7.s 			page 99


C:\Users\SOLDER~1\AppData\Local\Temp\ccKV8tJ7.s:33062  .debug_str:000000000002c4c1 .LASF535
C:\Users\SOLDER~1\AppData\Local\Temp\ccKV8tJ7.s:29150  .debug_str:000000000001c60c .LASF536
C:\Users\SOLDER~1\AppData\Local\Temp\ccKV8tJ7.s:25514  .debug_str:000000000000db46 .LASF537
C:\Users\SOLDER~1\AppData\Local\Temp\ccKV8tJ7.s:28918  .debug_str:000000000001b6f2 .LASF538
C:\Users\SOLDER~1\AppData\Local\Temp\ccKV8tJ7.s:23252  .debug_str:0000000000004811 .LASF539
C:\Users\SOLDER~1\AppData\Local\Temp\ccKV8tJ7.s:30950  .debug_str:0000000000023ac3 .LASF540
C:\Users\SOLDER~1\AppData\Local\Temp\ccKV8tJ7.s:28968  .debug_str:000000000001ba1c .LASF541
C:\Users\SOLDER~1\AppData\Local\Temp\ccKV8tJ7.s:33154  .debug_str:000000000002cae6 .LASF542
C:\Users\SOLDER~1\AppData\Local\Temp\ccKV8tJ7.s:25004  .debug_str:000000000000b970 .LASF543
C:\Users\SOLDER~1\AppData\Local\Temp\ccKV8tJ7.s:31872  .debug_str:000000000002772c .LASF544
C:\Users\SOLDER~1\AppData\Local\Temp\ccKV8tJ7.s:31088  .debug_str:0000000000024394 .LASF545
C:\Users\SOLDER~1\AppData\Local\Temp\ccKV8tJ7.s:29838  .debug_str:000000000001f31a .LASF546
C:\Users\SOLDER~1\AppData\Local\Temp\ccKV8tJ7.s:32092  .debug_str:000000000002857b .LASF547
C:\Users\SOLDER~1\AppData\Local\Temp\ccKV8tJ7.s:30048  .debug_str:00000000000200f6 .LASF548
C:\Users\SOLDER~1\AppData\Local\Temp\ccKV8tJ7.s:28140  .debug_str:000000000001857e .LASF549
C:\Users\SOLDER~1\AppData\Local\Temp\ccKV8tJ7.s:26826  .debug_str:0000000000012f32 .LASF550
C:\Users\SOLDER~1\AppData\Local\Temp\ccKV8tJ7.s:30484  .debug_str:0000000000021ce1 .LASF551
C:\Users\SOLDER~1\AppData\Local\Temp\ccKV8tJ7.s:27066  .debug_str:0000000000013fc3 .LASF552
C:\Users\SOLDER~1\AppData\Local\Temp\ccKV8tJ7.s:29708  .debug_str:000000000001ea82 .LASF553
C:\Users\SOLDER~1\AppData\Local\Temp\ccKV8tJ7.s:27620  .debug_str:00000000000163e6 .LASF554
C:\Users\SOLDER~1\AppData\Local\Temp\ccKV8tJ7.s:22488  .debug_str:000000000000178d .LASF555
C:\Users\SOLDER~1\AppData\Local\Temp\ccKV8tJ7.s:26356  .debug_str:0000000000011194 .LASF556
C:\Users\SOLDER~1\AppData\Local\Temp\ccKV8tJ7.s:23642  .debug_str:00000000000060a9 .LASF557
C:\Users\SOLDER~1\AppData\Local\Temp\ccKV8tJ7.s:26256  .debug_str:0000000000010b97 .LASF558
C:\Users\SOLDER~1\AppData\Local\Temp\ccKV8tJ7.s:26120  .debug_str:00000000000102d0 .LASF559
C:\Users\SOLDER~1\AppData\Local\Temp\ccKV8tJ7.s:22578  .debug_str:0000000000001d63 .LASF560
C:\Users\SOLDER~1\AppData\Local\Temp\ccKV8tJ7.s:31406  .debug_str:0000000000025824 .LASF561
C:\Users\SOLDER~1\AppData\Local\Temp\ccKV8tJ7.s:33354  .debug_str:000000000002d7f4 .LASF562
C:\Users\SOLDER~1\AppData\Local\Temp\ccKV8tJ7.s:33596  .debug_str:000000000002e727 .LASF563
C:\Users\SOLDER~1\AppData\Local\Temp\ccKV8tJ7.s:25586  .debug_str:000000000000dfdf .LASF564
C:\Users\SOLDER~1\AppData\Local\Temp\ccKV8tJ7.s:22394  .debug_str:0000000000001170 .LASF565
C:\Users\SOLDER~1\AppData\Local\Temp\ccKV8tJ7.s:31000  .debug_str:0000000000023e0c .LASF566
C:\Users\SOLDER~1\AppData\Local\Temp\ccKV8tJ7.s:28842  .debug_str:000000000001b27c .LASF567
C:\Users\SOLDER~1\AppData\Local\Temp\ccKV8tJ7.s:29084  .debug_str:000000000001c188 .LASF568
C:\Users\SOLDER~1\AppData\Local\Temp\ccKV8tJ7.s:22606  .debug_str:0000000000001f1c .LASF569
C:\Users\SOLDER~1\AppData\Local\Temp\ccKV8tJ7.s:27420  .debug_str:0000000000015719 .LASF570
C:\Users\SOLDER~1\AppData\Local\Temp\ccKV8tJ7.s:31190  .debug_str:0000000000024a24 .LASF571
C:\Users\SOLDER~1\AppData\Local\Temp\ccKV8tJ7.s:25902  .debug_str:000000000000f46d .LASF572
C:\Users\SOLDER~1\AppData\Local\Temp\ccKV8tJ7.s:27866  .debug_str:0000000000017329 .LASF573
C:\Users\SOLDER~1\AppData\Local\Temp\ccKV8tJ7.s:25722  .debug_str:000000000000e920 .LASF574
C:\Users\SOLDER~1\AppData\Local\Temp\ccKV8tJ7.s:27758  .debug_str:0000000000016c61 .LASF575
C:\Users\SOLDER~1\AppData\Local\Temp\ccKV8tJ7.s:26852  .debug_str:00000000000130ea .LASF576
C:\Users\SOLDER~1\AppData\Local\Temp\ccKV8tJ7.s:26814  .debug_str:0000000000012e72 .LASF577
C:\Users\SOLDER~1\AppData\Local\Temp\ccKV8tJ7.s:33430  .debug_str:000000000002dcab .LASF578
C:\Users\SOLDER~1\AppData\Local\Temp\ccKV8tJ7.s:28314  .debug_str:0000000000019105 .LASF579
C:\Users\SOLDER~1\AppData\Local\Temp\ccKV8tJ7.s:31608  .debug_str:00000000000265ae .LASF580
C:\Users\SOLDER~1\AppData\Local\Temp\ccKV8tJ7.s:23248  .debug_str:00000000000047d3 .LASF581
C:\Users\SOLDER~1\AppData\Local\Temp\ccKV8tJ7.s:26596  .debug_str:00000000000120a3 .LASF582
C:\Users\SOLDER~1\AppData\Local\Temp\ccKV8tJ7.s:29858  .debug_str:000000000001f474 .LASF583
C:\Users\SOLDER~1\AppData\Local\Temp\ccKV8tJ7.s:33190  .debug_str:000000000002cd37 .LASF584
C:\Users\SOLDER~1\AppData\Local\Temp\ccKV8tJ7.s:24812  .debug_str:000000000000acff .LASF585
C:\Users\SOLDER~1\AppData\Local\Temp\ccKV8tJ7.s:32730  .debug_str:000000000002af1a .LASF586
C:\Users\SOLDER~1\AppData\Local\Temp\ccKV8tJ7.s:31618  .debug_str:0000000000026662 .LASF587
C:\Users\SOLDER~1\AppData\Local\Temp\ccKV8tJ7.s:26748  .debug_str:00000000000129ec .LASF588
C:\Users\SOLDER~1\AppData\Local\Temp\ccKV8tJ7.s:28694  .debug_str:000000000001a8b9 .LASF589
C:\Users\SOLDER~1\AppData\Local\Temp\ccKV8tJ7.s:30888  .debug_str:000000000002369d .LASF590
C:\Users\SOLDER~1\AppData\Local\Temp\ccKV8tJ7.s:27790  .debug_str:0000000000016e52 .LASF591
GAS LISTING C:\Users\SOLDER~1\AppData\Local\Temp\ccKV8tJ7.s 			page 100


C:\Users\SOLDER~1\AppData\Local\Temp\ccKV8tJ7.s:32350  .debug_str:0000000000029633 .LASF592
C:\Users\SOLDER~1\AppData\Local\Temp\ccKV8tJ7.s:29410  .debug_str:000000000001d785 .LASF593
C:\Users\SOLDER~1\AppData\Local\Temp\ccKV8tJ7.s:28088  .debug_str:00000000000181ff .LASF594
C:\Users\SOLDER~1\AppData\Local\Temp\ccKV8tJ7.s:33832  .debug_str:000000000002f609 .LASF595
C:\Users\SOLDER~1\AppData\Local\Temp\ccKV8tJ7.s:24824  .debug_str:000000000000ade9 .LASF596
C:\Users\SOLDER~1\AppData\Local\Temp\ccKV8tJ7.s:32950  .debug_str:000000000002bd73 .LASF597
C:\Users\SOLDER~1\AppData\Local\Temp\ccKV8tJ7.s:26790  .debug_str:0000000000012cb6 .LASF598
C:\Users\SOLDER~1\AppData\Local\Temp\ccKV8tJ7.s:32364  .debug_str:000000000002972e .LASF599
C:\Users\SOLDER~1\AppData\Local\Temp\ccKV8tJ7.s:26234  .debug_str:0000000000010a13 .LASF600
C:\Users\SOLDER~1\AppData\Local\Temp\ccKV8tJ7.s:31668  .debug_str:00000000000269d2 .LASF601
C:\Users\SOLDER~1\AppData\Local\Temp\ccKV8tJ7.s:31776  .debug_str:000000000002710d .LASF602
C:\Users\SOLDER~1\AppData\Local\Temp\ccKV8tJ7.s:25590  .debug_str:000000000000e024 .LASF603
C:\Users\SOLDER~1\AppData\Local\Temp\ccKV8tJ7.s:25374  .debug_str:000000000000d22f .LASF604
C:\Users\SOLDER~1\AppData\Local\Temp\ccKV8tJ7.s:29492  .debug_str:000000000001dca5 .LASF605
C:\Users\SOLDER~1\AppData\Local\Temp\ccKV8tJ7.s:31440  .debug_str:0000000000025a33 .LASF606
C:\Users\SOLDER~1\AppData\Local\Temp\ccKV8tJ7.s:27872  .debug_str:0000000000017397 .LASF607
C:\Users\SOLDER~1\AppData\Local\Temp\ccKV8tJ7.s:30640  .debug_str:0000000000022697 .LASF608
C:\Users\SOLDER~1\AppData\Local\Temp\ccKV8tJ7.s:33034  .debug_str:000000000002c2c9 .LASF609
C:\Users\SOLDER~1\AppData\Local\Temp\ccKV8tJ7.s:24446  .debug_str:000000000000955b .LASF610
C:\Users\SOLDER~1\AppData\Local\Temp\ccKV8tJ7.s:26526  .debug_str:0000000000011c6d .LASF611
C:\Users\SOLDER~1\AppData\Local\Temp\ccKV8tJ7.s:33748  .debug_str:000000000002f0f0 .LASF612
C:\Users\SOLDER~1\AppData\Local\Temp\ccKV8tJ7.s:29486  .debug_str:000000000001dc50 .LASF613
C:\Users\SOLDER~1\AppData\Local\Temp\ccKV8tJ7.s:23882  .debug_str:00000000000070ca .LASF614
C:\Users\SOLDER~1\AppData\Local\Temp\ccKV8tJ7.s:22620  .debug_str:0000000000002024 .LASF615
C:\Users\SOLDER~1\AppData\Local\Temp\ccKV8tJ7.s:27944  .debug_str:0000000000017894 .LASF616
C:\Users\SOLDER~1\AppData\Local\Temp\ccKV8tJ7.s:23484  .debug_str:0000000000005614 .LASF617
C:\Users\SOLDER~1\AppData\Local\Temp\ccKV8tJ7.s:30744  .debug_str:0000000000022d28 .LASF618
C:\Users\SOLDER~1\AppData\Local\Temp\ccKV8tJ7.s:22908  .debug_str:00000000000032c4 .LASF619
C:\Users\SOLDER~1\AppData\Local\Temp\ccKV8tJ7.s:29614  .debug_str:000000000001e47a .LASF620
C:\Users\SOLDER~1\AppData\Local\Temp\ccKV8tJ7.s:23000  .debug_str:000000000000389b .LASF621
C:\Users\SOLDER~1\AppData\Local\Temp\ccKV8tJ7.s:27482  .debug_str:0000000000015b17 .LASF622
C:\Users\SOLDER~1\AppData\Local\Temp\ccKV8tJ7.s:28562  .debug_str:000000000001a080 .LASF623
C:\Users\SOLDER~1\AppData\Local\Temp\ccKV8tJ7.s:26402  .debug_str:0000000000011479 .LASF624
C:\Users\SOLDER~1\AppData\Local\Temp\ccKV8tJ7.s:29160  .debug_str:000000000001c69c .LASF625
C:\Users\SOLDER~1\AppData\Local\Temp\ccKV8tJ7.s:23848  .debug_str:0000000000006e54 .LASF626
C:\Users\SOLDER~1\AppData\Local\Temp\ccKV8tJ7.s:23806  .debug_str:0000000000006b83 .LASF627
C:\Users\SOLDER~1\AppData\Local\Temp\ccKV8tJ7.s:28806  .debug_str:000000000001b032 .LASF628
C:\Users\SOLDER~1\AppData\Local\Temp\ccKV8tJ7.s:25594  .debug_str:000000000000e06e .LASF629
C:\Users\SOLDER~1\AppData\Local\Temp\ccKV8tJ7.s:30122  .debug_str:00000000000205b6 .LASF630
C:\Users\SOLDER~1\AppData\Local\Temp\ccKV8tJ7.s:29078  .debug_str:000000000001c12f .LASF631
C:\Users\SOLDER~1\AppData\Local\Temp\ccKV8tJ7.s:30110  .debug_str:00000000000204f1 .LASF632
C:\Users\SOLDER~1\AppData\Local\Temp\ccKV8tJ7.s:28528  .debug_str:0000000000019ea0 .LASF633
C:\Users\SOLDER~1\AppData\Local\Temp\ccKV8tJ7.s:32184  .debug_str:0000000000028b8d .LASF634
C:\Users\SOLDER~1\AppData\Local\Temp\ccKV8tJ7.s:27274  .debug_str:0000000000014de1 .LASF635
C:\Users\SOLDER~1\AppData\Local\Temp\ccKV8tJ7.s:29040  .debug_str:000000000001beaf .LASF636
C:\Users\SOLDER~1\AppData\Local\Temp\ccKV8tJ7.s:31240  .debug_str:0000000000024d8f .LASF637
C:\Users\SOLDER~1\AppData\Local\Temp\ccKV8tJ7.s:22588  .debug_str:0000000000001e03 .LASF638
C:\Users\SOLDER~1\AppData\Local\Temp\ccKV8tJ7.s:33042  .debug_str:000000000002c35e .LASF639
C:\Users\SOLDER~1\AppData\Local\Temp\ccKV8tJ7.s:26854  .debug_str:0000000000013108 .LASF640
C:\Users\SOLDER~1\AppData\Local\Temp\ccKV8tJ7.s:27894  .debug_str:000000000001753d .LASF641
C:\Users\SOLDER~1\AppData\Local\Temp\ccKV8tJ7.s:27802  .debug_str:0000000000016efe .LASF642
C:\Users\SOLDER~1\AppData\Local\Temp\ccKV8tJ7.s:29178  .debug_str:000000000001c7c9 .LASF643
C:\Users\SOLDER~1\AppData\Local\Temp\ccKV8tJ7.s:23710  .debug_str:000000000000650c .LASF644
C:\Users\SOLDER~1\AppData\Local\Temp\ccKV8tJ7.s:31184  .debug_str:00000000000249dc .LASF645
C:\Users\SOLDER~1\AppData\Local\Temp\ccKV8tJ7.s:27854  .debug_str:0000000000017256 .LASF646
C:\Users\SOLDER~1\AppData\Local\Temp\ccKV8tJ7.s:25730  .debug_str:000000000000e9a3 .LASF647
C:\Users\SOLDER~1\AppData\Local\Temp\ccKV8tJ7.s:27270  .debug_str:0000000000014d96 .LASF648
GAS LISTING C:\Users\SOLDER~1\AppData\Local\Temp\ccKV8tJ7.s 			page 101


C:\Users\SOLDER~1\AppData\Local\Temp\ccKV8tJ7.s:25812  .debug_str:000000000000eed0 .LASF649
C:\Users\SOLDER~1\AppData\Local\Temp\ccKV8tJ7.s:32532  .debug_str:000000000002a21a .LASF650
C:\Users\SOLDER~1\AppData\Local\Temp\ccKV8tJ7.s:28702  .debug_str:000000000001a939 .LASF651
C:\Users\SOLDER~1\AppData\Local\Temp\ccKV8tJ7.s:26680  .debug_str:00000000000125c2 .LASF652
C:\Users\SOLDER~1\AppData\Local\Temp\ccKV8tJ7.s:28302  .debug_str:0000000000019026 .LASF653
C:\Users\SOLDER~1\AppData\Local\Temp\ccKV8tJ7.s:27598  .debug_str:000000000001627a .LASF654
C:\Users\SOLDER~1\AppData\Local\Temp\ccKV8tJ7.s:33548  .debug_str:000000000002e42a .LASF655
C:\Users\SOLDER~1\AppData\Local\Temp\ccKV8tJ7.s:28348  .debug_str:0000000000019323 .LASF656
C:\Users\SOLDER~1\AppData\Local\Temp\ccKV8tJ7.s:26298  .debug_str:0000000000010e16 .LASF657
C:\Users\SOLDER~1\AppData\Local\Temp\ccKV8tJ7.s:29974  .debug_str:000000000001fc40 .LASF658
C:\Users\SOLDER~1\AppData\Local\Temp\ccKV8tJ7.s:30952  .debug_str:0000000000023ae8 .LASF659
C:\Users\SOLDER~1\AppData\Local\Temp\ccKV8tJ7.s:30982  .debug_str:0000000000023cfc .LASF660
C:\Users\SOLDER~1\AppData\Local\Temp\ccKV8tJ7.s:33196  .debug_str:000000000002cdae .LASF661
C:\Users\SOLDER~1\AppData\Local\Temp\ccKV8tJ7.s:25604  .debug_str:000000000000e11c .LASF662
C:\Users\SOLDER~1\AppData\Local\Temp\ccKV8tJ7.s:24904  .debug_str:000000000000b316 .LASF663
C:\Users\SOLDER~1\AppData\Local\Temp\ccKV8tJ7.s:32482  .debug_str:0000000000029ee3 .LASF664
C:\Users\SOLDER~1\AppData\Local\Temp\ccKV8tJ7.s:29636  .debug_str:000000000001e5f3 .LASF665
C:\Users\SOLDER~1\AppData\Local\Temp\ccKV8tJ7.s:29914  .debug_str:000000000001f84a .LASF666
C:\Users\SOLDER~1\AppData\Local\Temp\ccKV8tJ7.s:29930  .debug_str:000000000001f96e .LASF667
C:\Users\SOLDER~1\AppData\Local\Temp\ccKV8tJ7.s:23768  .debug_str:0000000000006935 .LASF668
C:\Users\SOLDER~1\AppData\Local\Temp\ccKV8tJ7.s:31016  .debug_str:0000000000023f11 .LASF669
C:\Users\SOLDER~1\AppData\Local\Temp\ccKV8tJ7.s:32050  .debug_str:00000000000282bd .LASF670
C:\Users\SOLDER~1\AppData\Local\Temp\ccKV8tJ7.s:33516  .debug_str:000000000002e245 .LASF671
C:\Users\SOLDER~1\AppData\Local\Temp\ccKV8tJ7.s:32800  .debug_str:000000000002b3c4 .LASF672
C:\Users\SOLDER~1\AppData\Local\Temp\ccKV8tJ7.s:29010  .debug_str:000000000001bca3 .LASF673
C:\Users\SOLDER~1\AppData\Local\Temp\ccKV8tJ7.s:27564  .debug_str:0000000000016031 .LASF674
C:\Users\SOLDER~1\AppData\Local\Temp\ccKV8tJ7.s:23036  .debug_str:0000000000003add .LASF675
C:\Users\SOLDER~1\AppData\Local\Temp\ccKV8tJ7.s:26264  .debug_str:0000000000010c18 .LASF676
C:\Users\SOLDER~1\AppData\Local\Temp\ccKV8tJ7.s:28708  .debug_str:000000000001a9a9 .LASF677
C:\Users\SOLDER~1\AppData\Local\Temp\ccKV8tJ7.s:31852  .debug_str:00000000000275e2 .LASF678
C:\Users\SOLDER~1\AppData\Local\Temp\ccKV8tJ7.s:33122  .debug_str:000000000002c8f4 .LASF679
C:\Users\SOLDER~1\AppData\Local\Temp\ccKV8tJ7.s:28022  .debug_str:0000000000017d9b .LASF680
C:\Users\SOLDER~1\AppData\Local\Temp\ccKV8tJ7.s:29558  .debug_str:000000000001e0bd .LASF681
C:\Users\SOLDER~1\AppData\Local\Temp\ccKV8tJ7.s:26804  .debug_str:0000000000012db9 .LASF682
C:\Users\SOLDER~1\AppData\Local\Temp\ccKV8tJ7.s:27738  .debug_str:0000000000016b19 .LASF683
C:\Users\SOLDER~1\AppData\Local\Temp\ccKV8tJ7.s:24246  .debug_str:000000000000880b .LASF684
C:\Users\SOLDER~1\AppData\Local\Temp\ccKV8tJ7.s:29330  .debug_str:000000000001d223 .LASF685
C:\Users\SOLDER~1\AppData\Local\Temp\ccKV8tJ7.s:29874  .debug_str:000000000001f593 .LASF686
C:\Users\SOLDER~1\AppData\Local\Temp\ccKV8tJ7.s:22554  .debug_str:0000000000001baa .LASF687
C:\Users\SOLDER~1\AppData\Local\Temp\ccKV8tJ7.s:29648  .debug_str:000000000001e6a5 .LASF688
C:\Users\SOLDER~1\AppData\Local\Temp\ccKV8tJ7.s:33008  .debug_str:000000000002c125 .LASF689
C:\Users\SOLDER~1\AppData\Local\Temp\ccKV8tJ7.s:22172  .debug_str:00000000000001d2 .LASF690
C:\Users\SOLDER~1\AppData\Local\Temp\ccKV8tJ7.s:30144  .debug_str:000000000002070e .LASF691
C:\Users\SOLDER~1\AppData\Local\Temp\ccKV8tJ7.s:30094  .debug_str:00000000000203d7 .LASF692
C:\Users\SOLDER~1\AppData\Local\Temp\ccKV8tJ7.s:24346  .debug_str:0000000000008e98 .LASF693
C:\Users\SOLDER~1\AppData\Local\Temp\ccKV8tJ7.s:29840  .debug_str:000000000001f347 .LASF694
C:\Users\SOLDER~1\AppData\Local\Temp\ccKV8tJ7.s:24328  .debug_str:0000000000008d51 .LASF695
C:\Users\SOLDER~1\AppData\Local\Temp\ccKV8tJ7.s:29340  .debug_str:000000000001d2d1 .LASF696
C:\Users\SOLDER~1\AppData\Local\Temp\ccKV8tJ7.s:32040  .debug_str:00000000000281fa .LASF697
C:\Users\SOLDER~1\AppData\Local\Temp\ccKV8tJ7.s:32822  .debug_str:000000000002b4fa .LASF698
C:\Users\SOLDER~1\AppData\Local\Temp\ccKV8tJ7.s:25746  .debug_str:000000000000ead4 .LASF699
C:\Users\SOLDER~1\AppData\Local\Temp\ccKV8tJ7.s:33518  .debug_str:000000000002e25b .LASF700
C:\Users\SOLDER~1\AppData\Local\Temp\ccKV8tJ7.s:28560  .debug_str:000000000001a06d .LASF701
C:\Users\SOLDER~1\AppData\Local\Temp\ccKV8tJ7.s:22970  .debug_str:000000000000369d .LASF702
C:\Users\SOLDER~1\AppData\Local\Temp\ccKV8tJ7.s:31090  .debug_str:00000000000243c1 .LASF703
C:\Users\SOLDER~1\AppData\Local\Temp\ccKV8tJ7.s:29044  .debug_str:000000000001beda .LASF704
C:\Users\SOLDER~1\AppData\Local\Temp\ccKV8tJ7.s:32090  .debug_str:0000000000028558 .LASF705
GAS LISTING C:\Users\SOLDER~1\AppData\Local\Temp\ccKV8tJ7.s 			page 102


C:\Users\SOLDER~1\AppData\Local\Temp\ccKV8tJ7.s:27774  .debug_str:0000000000016d79 .LASF706
C:\Users\SOLDER~1\AppData\Local\Temp\ccKV8tJ7.s:25056  .debug_str:000000000000bd07 .LASF707
C:\Users\SOLDER~1\AppData\Local\Temp\ccKV8tJ7.s:30684  .debug_str:0000000000022924 .LASF708
C:\Users\SOLDER~1\AppData\Local\Temp\ccKV8tJ7.s:30138  .debug_str:00000000000206a5 .LASF709
C:\Users\SOLDER~1\AppData\Local\Temp\ccKV8tJ7.s:22986  .debug_str:0000000000003799 .LASF710
C:\Users\SOLDER~1\AppData\Local\Temp\ccKV8tJ7.s:31572  .debug_str:0000000000026328 .LASF711
C:\Users\SOLDER~1\AppData\Local\Temp\ccKV8tJ7.s:30878  .debug_str:00000000000235e8 .LASF712
C:\Users\SOLDER~1\AppData\Local\Temp\ccKV8tJ7.s:24106  .debug_str:0000000000007eff .LASF713
C:\Users\SOLDER~1\AppData\Local\Temp\ccKV8tJ7.s:31930  .debug_str:0000000000027ae7 .LASF714
C:\Users\SOLDER~1\AppData\Local\Temp\ccKV8tJ7.s:29856  .debug_str:000000000001f451 .LASF715
C:\Users\SOLDER~1\AppData\Local\Temp\ccKV8tJ7.s:31030  .debug_str:0000000000023fc6 .LASF716
C:\Users\SOLDER~1\AppData\Local\Temp\ccKV8tJ7.s:26288  .debug_str:0000000000010d79 .LASF717
C:\Users\SOLDER~1\AppData\Local\Temp\ccKV8tJ7.s:33558  .debug_str:000000000002e4d7 .LASF718
C:\Users\SOLDER~1\AppData\Local\Temp\ccKV8tJ7.s:28738  .debug_str:000000000001abb4 .LASF719
C:\Users\SOLDER~1\AppData\Local\Temp\ccKV8tJ7.s:26716  .debug_str:000000000001281c .LASF720
C:\Users\SOLDER~1\AppData\Local\Temp\ccKV8tJ7.s:30422  .debug_str:000000000002190b .LASF721
C:\Users\SOLDER~1\AppData\Local\Temp\ccKV8tJ7.s:28530  .debug_str:0000000000019ec2 .LASF722
C:\Users\SOLDER~1\AppData\Local\Temp\ccKV8tJ7.s:30466  .debug_str:0000000000021bd0 .LASF723
C:\Users\SOLDER~1\AppData\Local\Temp\ccKV8tJ7.s:27664  .debug_str:000000000001668d .LASF724
C:\Users\SOLDER~1\AppData\Local\Temp\ccKV8tJ7.s:26890  .debug_str:0000000000013369 .LASF725
C:\Users\SOLDER~1\AppData\Local\Temp\ccKV8tJ7.s:32700  .debug_str:000000000002ad7b .LASF726
C:\Users\SOLDER~1\AppData\Local\Temp\ccKV8tJ7.s:27076  .debug_str:0000000000014078 .LASF727
C:\Users\SOLDER~1\AppData\Local\Temp\ccKV8tJ7.s:22310  .debug_str:0000000000000bf1 .LASF728
C:\Users\SOLDER~1\AppData\Local\Temp\ccKV8tJ7.s:25502  .debug_str:000000000000da88 .LASF729
C:\Users\SOLDER~1\AppData\Local\Temp\ccKV8tJ7.s:28382  .debug_str:0000000000019545 .LASF730
C:\Users\SOLDER~1\AppData\Local\Temp\ccKV8tJ7.s:28994  .debug_str:000000000001bba4 .LASF731
C:\Users\SOLDER~1\AppData\Local\Temp\ccKV8tJ7.s:23934  .debug_str:000000000000740d .LASF732
C:\Users\SOLDER~1\AppData\Local\Temp\ccKV8tJ7.s:24556  .debug_str:0000000000009c09 .LASF733
C:\Users\SOLDER~1\AppData\Local\Temp\ccKV8tJ7.s:30668  .debug_str:0000000000022812 .LASF734
C:\Users\SOLDER~1\AppData\Local\Temp\ccKV8tJ7.s:30596  .debug_str:000000000002240d .LASF735
C:\Users\SOLDER~1\AppData\Local\Temp\ccKV8tJ7.s:28216  .debug_str:0000000000018a69 .LASF736
C:\Users\SOLDER~1\AppData\Local\Temp\ccKV8tJ7.s:25050  .debug_str:000000000000bc92 .LASF737
C:\Users\SOLDER~1\AppData\Local\Temp\ccKV8tJ7.s:33690  .debug_str:000000000002ed15 .LASF738
C:\Users\SOLDER~1\AppData\Local\Temp\ccKV8tJ7.s:25280  .debug_str:000000000000cc06 .LASF739
C:\Users\SOLDER~1\AppData\Local\Temp\ccKV8tJ7.s:22658  .debug_str:0000000000002299 .LASF740
C:\Users\SOLDER~1\AppData\Local\Temp\ccKV8tJ7.s:27388  .debug_str:000000000001551b .LASF741
C:\Users\SOLDER~1\AppData\Local\Temp\ccKV8tJ7.s:25038  .debug_str:000000000000bbb6 .LASF742
C:\Users\SOLDER~1\AppData\Local\Temp\ccKV8tJ7.s:31966  .debug_str:0000000000027d3d .LASF743
C:\Users\SOLDER~1\AppData\Local\Temp\ccKV8tJ7.s:28548  .debug_str:0000000000019fe1 .LASF744
C:\Users\SOLDER~1\AppData\Local\Temp\ccKV8tJ7.s:26656  .debug_str:0000000000012458 .LASF745
C:\Users\SOLDER~1\AppData\Local\Temp\ccKV8tJ7.s:30010  .debug_str:000000000001fe7d .LASF746
C:\Users\SOLDER~1\AppData\Local\Temp\ccKV8tJ7.s:30590  .debug_str:00000000000223a7 .LASF747
C:\Users\SOLDER~1\AppData\Local\Temp\ccKV8tJ7.s:31538  .debug_str:00000000000260c3 .LASF748
C:\Users\SOLDER~1\AppData\Local\Temp\ccKV8tJ7.s:30970  .debug_str:0000000000023c2a .LASF749
C:\Users\SOLDER~1\AppData\Local\Temp\ccKV8tJ7.s:23832  .debug_str:0000000000006d1b .LASF750
C:\Users\SOLDER~1\AppData\Local\Temp\ccKV8tJ7.s:23326  .debug_str:0000000000004caf .LASF751
C:\Users\SOLDER~1\AppData\Local\Temp\ccKV8tJ7.s:24726  .debug_str:000000000000a7a2 .LASF752
C:\Users\SOLDER~1\AppData\Local\Temp\ccKV8tJ7.s:24956  .debug_str:000000000000b66f .LASF753
C:\Users\SOLDER~1\AppData\Local\Temp\ccKV8tJ7.s:32786  .debug_str:000000000002b2e4 .LASF754
C:\Users\SOLDER~1\AppData\Local\Temp\ccKV8tJ7.s:30680  .debug_str:00000000000228e9 .LASF755
C:\Users\SOLDER~1\AppData\Local\Temp\ccKV8tJ7.s:22808  .debug_str:0000000000002c48 .LASF756
C:\Users\SOLDER~1\AppData\Local\Temp\ccKV8tJ7.s:31996  .debug_str:0000000000027f28 .LASF757
C:\Users\SOLDER~1\AppData\Local\Temp\ccKV8tJ7.s:22690  .debug_str:00000000000024c0 .LASF758
C:\Users\SOLDER~1\AppData\Local\Temp\ccKV8tJ7.s:29584  .debug_str:000000000001e29a .LASF759
C:\Users\SOLDER~1\AppData\Local\Temp\ccKV8tJ7.s:27600  .debug_str:000000000001629f .LASF760
C:\Users\SOLDER~1\AppData\Local\Temp\ccKV8tJ7.s:22210  .debug_str:0000000000000474 .LASF761
C:\Users\SOLDER~1\AppData\Local\Temp\ccKV8tJ7.s:22392  .debug_str:0000000000001150 .LASF762
GAS LISTING C:\Users\SOLDER~1\AppData\Local\Temp\ccKV8tJ7.s 			page 103


C:\Users\SOLDER~1\AppData\Local\Temp\ccKV8tJ7.s:31068  .debug_str:000000000002424b .LASF763
C:\Users\SOLDER~1\AppData\Local\Temp\ccKV8tJ7.s:31380  .debug_str:000000000002567b .LASF764
C:\Users\SOLDER~1\AppData\Local\Temp\ccKV8tJ7.s:23596  .debug_str:0000000000005d6a .LASF765
C:\Users\SOLDER~1\AppData\Local\Temp\ccKV8tJ7.s:24416  .debug_str:0000000000009360 .LASF766
C:\Users\SOLDER~1\AppData\Local\Temp\ccKV8tJ7.s:32536  .debug_str:000000000002a25b .LASF767
C:\Users\SOLDER~1\AppData\Local\Temp\ccKV8tJ7.s:22338  .debug_str:0000000000000e0f .LASF768
C:\Users\SOLDER~1\AppData\Local\Temp\ccKV8tJ7.s:27176  .debug_str:000000000001476e .LASF769
C:\Users\SOLDER~1\AppData\Local\Temp\ccKV8tJ7.s:29200  .debug_str:000000000001c927 .LASF770
C:\Users\SOLDER~1\AppData\Local\Temp\ccKV8tJ7.s:23888  .debug_str:0000000000007121 .LASF771
C:\Users\SOLDER~1\AppData\Local\Temp\ccKV8tJ7.s:23570  .debug_str:0000000000005bc2 .LASF772
C:\Users\SOLDER~1\AppData\Local\Temp\ccKV8tJ7.s:25156  .debug_str:000000000000c372 .LASF773
C:\Users\SOLDER~1\AppData\Local\Temp\ccKV8tJ7.s:22708  .debug_str:00000000000025f3 .LASF774
C:\Users\SOLDER~1\AppData\Local\Temp\ccKV8tJ7.s:23366  .debug_str:0000000000004eec .LASF775
C:\Users\SOLDER~1\AppData\Local\Temp\ccKV8tJ7.s:23348  .debug_str:0000000000004dfd .LASF776
C:\Users\SOLDER~1\AppData\Local\Temp\ccKV8tJ7.s:23618  .debug_str:0000000000005ecb .LASF777
C:\Users\SOLDER~1\AppData\Local\Temp\ccKV8tJ7.s:32690  .debug_str:000000000002acdb .LASF778
C:\Users\SOLDER~1\AppData\Local\Temp\ccKV8tJ7.s:29434  .debug_str:000000000001d915 .LASF779
C:\Users\SOLDER~1\AppData\Local\Temp\ccKV8tJ7.s:28540  .debug_str:0000000000019f5b .LASF780
C:\Users\SOLDER~1\AppData\Local\Temp\ccKV8tJ7.s:30432  .debug_str:000000000002199e .LASF781
C:\Users\SOLDER~1\AppData\Local\Temp\ccKV8tJ7.s:24200  .debug_str:000000000000851a .LASF782
C:\Users\SOLDER~1\AppData\Local\Temp\ccKV8tJ7.s:33834  .debug_str:000000000002f643 .LASF783
C:\Users\SOLDER~1\AppData\Local\Temp\ccKV8tJ7.s:22550  .debug_str:0000000000001b66 .LASF784
C:\Users\SOLDER~1\AppData\Local\Temp\ccKV8tJ7.s:25460  .debug_str:000000000000d7b8 .LASF785
C:\Users\SOLDER~1\AppData\Local\Temp\ccKV8tJ7.s:23884  .debug_str:00000000000070e2 .LASF786
C:\Users\SOLDER~1\AppData\Local\Temp\ccKV8tJ7.s:28844  .debug_str:000000000001b29d .LASF787
C:\Users\SOLDER~1\AppData\Local\Temp\ccKV8tJ7.s:30874  .debug_str:00000000000235a7 .LASF788
C:\Users\SOLDER~1\AppData\Local\Temp\ccKV8tJ7.s:28024  .debug_str:0000000000017dbf .LASF789
C:\Users\SOLDER~1\AppData\Local\Temp\ccKV8tJ7.s:33490  .debug_str:000000000002e092 .LASF790
C:\Users\SOLDER~1\AppData\Local\Temp\ccKV8tJ7.s:28354  .debug_str:000000000001938f .LASF791
C:\Users\SOLDER~1\AppData\Local\Temp\ccKV8tJ7.s:33784  .debug_str:000000000002f318 .LASF792
C:\Users\SOLDER~1\AppData\Local\Temp\ccKV8tJ7.s:26462  .debug_str:0000000000011877 .LASF793
C:\Users\SOLDER~1\AppData\Local\Temp\ccKV8tJ7.s:31612  .debug_str:00000000000265f4 .LASF794
C:\Users\SOLDER~1\AppData\Local\Temp\ccKV8tJ7.s:32054  .debug_str:0000000000028307 .LASF795
C:\Users\SOLDER~1\AppData\Local\Temp\ccKV8tJ7.s:25130  .debug_str:000000000000c1ae .LASF796
C:\Users\SOLDER~1\AppData\Local\Temp\ccKV8tJ7.s:32084  .debug_str:00000000000284ff .LASF797
C:\Users\SOLDER~1\AppData\Local\Temp\ccKV8tJ7.s:27376  .debug_str:000000000001545a .LASF798
C:\Users\SOLDER~1\AppData\Local\Temp\ccKV8tJ7.s:27340  .debug_str:00000000000151e3 .LASF799
C:\Users\SOLDER~1\AppData\Local\Temp\ccKV8tJ7.s:26780  .debug_str:0000000000012c21 .LASF800
C:\Users\SOLDER~1\AppData\Local\Temp\ccKV8tJ7.s:25192  .debug_str:000000000000c5f7 .LASF801
C:\Users\SOLDER~1\AppData\Local\Temp\ccKV8tJ7.s:29910  .debug_str:000000000001f806 .LASF802
C:\Users\SOLDER~1\AppData\Local\Temp\ccKV8tJ7.s:33782  .debug_str:000000000002f2f6 .LASF803
C:\Users\SOLDER~1\AppData\Local\Temp\ccKV8tJ7.s:33524  .debug_str:000000000002e2b1 .LASF804
C:\Users\SOLDER~1\AppData\Local\Temp\ccKV8tJ7.s:31726  .debug_str:0000000000026da3 .LASF805
C:\Users\SOLDER~1\AppData\Local\Temp\ccKV8tJ7.s:22760  .debug_str:000000000000296d .LASF806
C:\Users\SOLDER~1\AppData\Local\Temp\ccKV8tJ7.s:31792  .debug_str:000000000002721c .LASF807
C:\Users\SOLDER~1\AppData\Local\Temp\ccKV8tJ7.s:32016  .debug_str:0000000000028049 .LASF808
C:\Users\SOLDER~1\AppData\Local\Temp\ccKV8tJ7.s:23764  .debug_str:00000000000068f3 .LASF809
C:\Users\SOLDER~1\AppData\Local\Temp\ccKV8tJ7.s:28602  .debug_str:000000000001a30d .LASF810
C:\Users\SOLDER~1\AppData\Local\Temp\ccKV8tJ7.s:24628  .debug_str:000000000000a0f1 .LASF811
C:\Users\SOLDER~1\AppData\Local\Temp\ccKV8tJ7.s:23734  .debug_str:00000000000066a7 .LASF812
C:\Users\SOLDER~1\AppData\Local\Temp\ccKV8tJ7.s:33372  .debug_str:000000000002d908 .LASF813
C:\Users\SOLDER~1\AppData\Local\Temp\ccKV8tJ7.s:32398  .debug_str:000000000002998a .LASF814
C:\Users\SOLDER~1\AppData\Local\Temp\ccKV8tJ7.s:30586  .debug_str:000000000002236e .LASF815
C:\Users\SOLDER~1\AppData\Local\Temp\ccKV8tJ7.s:33038  .debug_str:000000000002c317 .LASF816
C:\Users\SOLDER~1\AppData\Local\Temp\ccKV8tJ7.s:31914  .debug_str:00000000000279f2 .LASF817
C:\Users\SOLDER~1\AppData\Local\Temp\ccKV8tJ7.s:29920  .debug_str:000000000001f8b9 .LASF818
C:\Users\SOLDER~1\AppData\Local\Temp\ccKV8tJ7.s:31658  .debug_str:0000000000026924 .LASF819
GAS LISTING C:\Users\SOLDER~1\AppData\Local\Temp\ccKV8tJ7.s 			page 104


C:\Users\SOLDER~1\AppData\Local\Temp\ccKV8tJ7.s:28664  .debug_str:000000000001a704 .LASF820
C:\Users\SOLDER~1\AppData\Local\Temp\ccKV8tJ7.s:25324  .debug_str:000000000000cf0a .LASF821
C:\Users\SOLDER~1\AppData\Local\Temp\ccKV8tJ7.s:30746  .debug_str:0000000000022d42 .LASF822
C:\Users\SOLDER~1\AppData\Local\Temp\ccKV8tJ7.s:24494  .debug_str:0000000000009853 .LASF823
C:\Users\SOLDER~1\AppData\Local\Temp\ccKV8tJ7.s:29520  .debug_str:000000000001de41 .LASF824
C:\Users\SOLDER~1\AppData\Local\Temp\ccKV8tJ7.s:25800  .debug_str:000000000000edf1 .LASF825
C:\Users\SOLDER~1\AppData\Local\Temp\ccKV8tJ7.s:29280  .debug_str:000000000001cebd .LASF826
C:\Users\SOLDER~1\AppData\Local\Temp\ccKV8tJ7.s:31964  .debug_str:0000000000027d2c .LASF827
C:\Users\SOLDER~1\AppData\Local\Temp\ccKV8tJ7.s:28094  .debug_str:0000000000018280 .LASF828
C:\Users\SOLDER~1\AppData\Local\Temp\ccKV8tJ7.s:25356  .debug_str:000000000000d104 .LASF829
C:\Users\SOLDER~1\AppData\Local\Temp\ccKV8tJ7.s:31468  .debug_str:0000000000025bfd .LASF830
C:\Users\SOLDER~1\AppData\Local\Temp\ccKV8tJ7.s:25984  .debug_str:000000000000f9bf .LASF831
C:\Users\SOLDER~1\AppData\Local\Temp\ccKV8tJ7.s:32390  .debug_str:00000000000298ec .LASF832
C:\Users\SOLDER~1\AppData\Local\Temp\ccKV8tJ7.s:24412  .debug_str:000000000000931a .LASF833
C:\Users\SOLDER~1\AppData\Local\Temp\ccKV8tJ7.s:32286  .debug_str:0000000000029231 .LASF834
C:\Users\SOLDER~1\AppData\Local\Temp\ccKV8tJ7.s:33244  .debug_str:000000000002d093 .LASF835
C:\Users\SOLDER~1\AppData\Local\Temp\ccKV8tJ7.s:23102  .debug_str:0000000000003ef9 .LASF836
C:\Users\SOLDER~1\AppData\Local\Temp\ccKV8tJ7.s:30248  .debug_str:0000000000020dca .LASF837
C:\Users\SOLDER~1\AppData\Local\Temp\ccKV8tJ7.s:26816  .debug_str:0000000000012e93 .LASF838
C:\Users\SOLDER~1\AppData\Local\Temp\ccKV8tJ7.s:25040  .debug_str:000000000000bbd6 .LASF839
C:\Users\SOLDER~1\AppData\Local\Temp\ccKV8tJ7.s:23470  .debug_str:000000000000553e .LASF840
C:\Users\SOLDER~1\AppData\Local\Temp\ccKV8tJ7.s:26406  .debug_str:00000000000114be .LASF841
C:\Users\SOLDER~1\AppData\Local\Temp\ccKV8tJ7.s:26390  .debug_str:00000000000113aa .LASF842
C:\Users\SOLDER~1\AppData\Local\Temp\ccKV8tJ7.s:29050  .debug_str:000000000001bf3b .LASF843
C:\Users\SOLDER~1\AppData\Local\Temp\ccKV8tJ7.s:33618  .debug_str:000000000002e895 .LASF844
C:\Users\SOLDER~1\AppData\Local\Temp\ccKV8tJ7.s:32640  .debug_str:000000000002a98f .LASF845
C:\Users\SOLDER~1\AppData\Local\Temp\ccKV8tJ7.s:28670  .debug_str:000000000001a757 .LASF846
C:\Users\SOLDER~1\AppData\Local\Temp\ccKV8tJ7.s:26574  .debug_str:0000000000011f51 .LASF847
C:\Users\SOLDER~1\AppData\Local\Temp\ccKV8tJ7.s:22510  .debug_str:00000000000018d5 .LASF848
C:\Users\SOLDER~1\AppData\Local\Temp\ccKV8tJ7.s:29702  .debug_str:000000000001ea0d .LASF849
C:\Users\SOLDER~1\AppData\Local\Temp\ccKV8tJ7.s:32724  .debug_str:000000000002aecb .LASF850
C:\Users\SOLDER~1\AppData\Local\Temp\ccKV8tJ7.s:23442  .debug_str:00000000000053a2 .LASF851
C:\Users\SOLDER~1\AppData\Local\Temp\ccKV8tJ7.s:25892  .debug_str:000000000000f3b3 .LASF852
C:\Users\SOLDER~1\AppData\Local\Temp\ccKV8tJ7.s:27596  .debug_str:0000000000016258 .LASF853
C:\Users\SOLDER~1\AppData\Local\Temp\ccKV8tJ7.s:24710  .debug_str:000000000000a685 .LASF854
C:\Users\SOLDER~1\AppData\Local\Temp\ccKV8tJ7.s:25780  .debug_str:000000000000ecc8 .LASF855
C:\Users\SOLDER~1\AppData\Local\Temp\ccKV8tJ7.s:29810  .debug_str:000000000001f154 .LASF856
C:\Users\SOLDER~1\AppData\Local\Temp\ccKV8tJ7.s:25814  .debug_str:000000000000eee6 .LASF857
C:\Users\SOLDER~1\AppData\Local\Temp\ccKV8tJ7.s:30724  .debug_str:0000000000022be4 .LASF858
C:\Users\SOLDER~1\AppData\Local\Temp\ccKV8tJ7.s:23068  .debug_str:0000000000003cd2 .LASF859
C:\Users\SOLDER~1\AppData\Local\Temp\ccKV8tJ7.s:25098  .debug_str:000000000000bf90 .LASF860
C:\Users\SOLDER~1\AppData\Local\Temp\ccKV8tJ7.s:22790  .debug_str:0000000000002b4a .LASF861
C:\Users\SOLDER~1\AppData\Local\Temp\ccKV8tJ7.s:26388  .debug_str:0000000000011397 .LASF862
C:\Users\SOLDER~1\AppData\Local\Temp\ccKV8tJ7.s:28748  .debug_str:000000000001ac5a .LASF863
C:\Users\SOLDER~1\AppData\Local\Temp\ccKV8tJ7.s:26872  .debug_str:0000000000013209 .LASF864
C:\Users\SOLDER~1\AppData\Local\Temp\ccKV8tJ7.s:30638  .debug_str:0000000000022675 .LASF865
C:\Users\SOLDER~1\AppData\Local\Temp\ccKV8tJ7.s:26192  .debug_str:0000000000010785 .LASF866
C:\Users\SOLDER~1\AppData\Local\Temp\ccKV8tJ7.s:22952  .debug_str:00000000000035a7 .LASF867
C:\Users\SOLDER~1\AppData\Local\Temp\ccKV8tJ7.s:33658  .debug_str:000000000002eb0d .LASF868
C:\Users\SOLDER~1\AppData\Local\Temp\ccKV8tJ7.s:23376  .debug_str:0000000000004fa1 .LASF869
C:\Users\SOLDER~1\AppData\Local\Temp\ccKV8tJ7.s:27072  .debug_str:000000000001402c .LASF870
C:\Users\SOLDER~1\AppData\Local\Temp\ccKV8tJ7.s:33150  .debug_str:000000000002caaf .LASF871
C:\Users\SOLDER~1\AppData\Local\Temp\ccKV8tJ7.s:27576  .debug_str:00000000000160fe .LASF872
C:\Users\SOLDER~1\AppData\Local\Temp\ccKV8tJ7.s:33776  .debug_str:000000000002f29f .LASF873
C:\Users\SOLDER~1\AppData\Local\Temp\ccKV8tJ7.s:29126  .debug_str:000000000001c439 .LASF874
C:\Users\SOLDER~1\AppData\Local\Temp\ccKV8tJ7.s:28360  .debug_str:00000000000193d3 .LASF875
C:\Users\SOLDER~1\AppData\Local\Temp\ccKV8tJ7.s:23694  .debug_str:0000000000006401 .LASF876
GAS LISTING C:\Users\SOLDER~1\AppData\Local\Temp\ccKV8tJ7.s 			page 105


C:\Users\SOLDER~1\AppData\Local\Temp\ccKV8tJ7.s:32340  .debug_str:0000000000029599 .LASF877
C:\Users\SOLDER~1\AppData\Local\Temp\ccKV8tJ7.s:30876  .debug_str:00000000000235c7 .LASF878
C:\Users\SOLDER~1\AppData\Local\Temp\ccKV8tJ7.s:26350  .debug_str:0000000000011123 .LASF879
C:\Users\SOLDER~1\AppData\Local\Temp\ccKV8tJ7.s:22836  .debug_str:0000000000002e26 .LASF880
C:\Users\SOLDER~1\AppData\Local\Temp\ccKV8tJ7.s:32830  .debug_str:000000000002b587 .LASF881
C:\Users\SOLDER~1\AppData\Local\Temp\ccKV8tJ7.s:23836  .debug_str:0000000000006d81 .LASF882
C:\Users\SOLDER~1\AppData\Local\Temp\ccKV8tJ7.s:23410  .debug_str:00000000000051bc .LASF883
C:\Users\SOLDER~1\AppData\Local\Temp\ccKV8tJ7.s:27460  .debug_str:00000000000159a9 .LASF884
C:\Users\SOLDER~1\AppData\Local\Temp\ccKV8tJ7.s:25108  .debug_str:000000000000c036 .LASF885
C:\Users\SOLDER~1\AppData\Local\Temp\ccKV8tJ7.s:29578  .debug_str:000000000001e22c .LASF886
C:\Users\SOLDER~1\AppData\Local\Temp\ccKV8tJ7.s:28638  .debug_str:000000000001a537 .LASF887
C:\Users\SOLDER~1\AppData\Local\Temp\ccKV8tJ7.s:24720  .debug_str:000000000000a73e .LASF888
C:\Users\SOLDER~1\AppData\Local\Temp\ccKV8tJ7.s:26286  .debug_str:0000000000010d58 .LASF889
C:\Users\SOLDER~1\AppData\Local\Temp\ccKV8tJ7.s:32496  .debug_str:0000000000029fbf .LASF890
C:\Users\SOLDER~1\AppData\Local\Temp\ccKV8tJ7.s:22220  .debug_str:0000000000000512 .LASF891
C:\Users\SOLDER~1\AppData\Local\Temp\ccKV8tJ7.s:33006  .debug_str:000000000002c104 .LASF892
C:\Users\SOLDER~1\AppData\Local\Temp\ccKV8tJ7.s:32924  .debug_str:000000000002bbb8 .LASF893
C:\Users\SOLDER~1\AppData\Local\Temp\ccKV8tJ7.s:30892  .debug_str:00000000000236e2 .LASF894
C:\Users\SOLDER~1\AppData\Local\Temp\ccKV8tJ7.s:32512  .debug_str:000000000002a0ce .LASF895
C:\Users\SOLDER~1\AppData\Local\Temp\ccKV8tJ7.s:29740  .debug_str:000000000001eca9 .LASF896
C:\Users\SOLDER~1\AppData\Local\Temp\ccKV8tJ7.s:32086  .debug_str:0000000000028521 .LASF897
C:\Users\SOLDER~1\AppData\Local\Temp\ccKV8tJ7.s:23760  .debug_str:00000000000068ab .LASF898
C:\Users\SOLDER~1\AppData\Local\Temp\ccKV8tJ7.s:22236  .debug_str:000000000000062c .LASF899
C:\Users\SOLDER~1\AppData\Local\Temp\ccKV8tJ7.s:23690  .debug_str:00000000000063bb .LASF900
C:\Users\SOLDER~1\AppData\Local\Temp\ccKV8tJ7.s:28122  .debug_str:000000000001846e .LASF901
C:\Users\SOLDER~1\AppData\Local\Temp\ccKV8tJ7.s:30032  .debug_str:000000000001ffe3 .LASF902
C:\Users\SOLDER~1\AppData\Local\Temp\ccKV8tJ7.s:23912  .debug_str:00000000000072ab .LASF903
C:\Users\SOLDER~1\AppData\Local\Temp\ccKV8tJ7.s:22960  .debug_str:000000000000360a .LASF904
C:\Users\SOLDER~1\AppData\Local\Temp\ccKV8tJ7.s:25064  .debug_str:000000000000bd83 .LASF905
C:\Users\SOLDER~1\AppData\Local\Temp\ccKV8tJ7.s:23192  .debug_str:0000000000004435 .LASF906
C:\Users\SOLDER~1\AppData\Local\Temp\ccKV8tJ7.s:23966  .debug_str:00000000000075fe .LASF907
C:\Users\SOLDER~1\AppData\Local\Temp\ccKV8tJ7.s:31070  .debug_str:000000000002426d .LASF908
C:\Users\SOLDER~1\AppData\Local\Temp\ccKV8tJ7.s:27900  .debug_str:000000000001759f .LASF909
C:\Users\SOLDER~1\AppData\Local\Temp\ccKV8tJ7.s:26954  .debug_str:00000000000137bc .LASF910
C:\Users\SOLDER~1\AppData\Local\Temp\ccKV8tJ7.s:29610  .debug_str:000000000001e442 .LASF911
C:\Users\SOLDER~1\AppData\Local\Temp\ccKV8tJ7.s:23454  .debug_str:0000000000005457 .LASF912
C:\Users\SOLDER~1\AppData\Local\Temp\ccKV8tJ7.s:32692  .debug_str:000000000002acfd .LASF913
C:\Users\SOLDER~1\AppData\Local\Temp\ccKV8tJ7.s:22750  .debug_str:0000000000002896 .LASF914
C:\Users\SOLDER~1\AppData\Local\Temp\ccKV8tJ7.s:33302  .debug_str:000000000002d438 .LASF915
C:\Users\SOLDER~1\AppData\Local\Temp\ccKV8tJ7.s:28040  .debug_str:0000000000017ec3 .LASF916
C:\Users\SOLDER~1\AppData\Local\Temp\ccKV8tJ7.s:23256  .debug_str:000000000000485c .LASF917
C:\Users\SOLDER~1\AppData\Local\Temp\ccKV8tJ7.s:29946  .debug_str:000000000001faab .LASF918
C:\Users\SOLDER~1\AppData\Local\Temp\ccKV8tJ7.s:28758  .debug_str:000000000001ace3 .LASF919
C:\Users\SOLDER~1\AppData\Local\Temp\ccKV8tJ7.s:30508  .debug_str:0000000000021e79 .LASF920
C:\Users\SOLDER~1\AppData\Local\Temp\ccKV8tJ7.s:25958  .debug_str:000000000000f80e .LASF921
C:\Users\SOLDER~1\AppData\Local\Temp\ccKV8tJ7.s:22536  .debug_str:0000000000001a78 .LASF922
C:\Users\SOLDER~1\AppData\Local\Temp\ccKV8tJ7.s:32366  .debug_str:0000000000029768 .LASF923
C:\Users\SOLDER~1\AppData\Local\Temp\ccKV8tJ7.s:32678  .debug_str:000000000002ac0a .LASF924
C:\Users\SOLDER~1\AppData\Local\Temp\ccKV8tJ7.s:23330  .debug_str:0000000000004ce8 .LASF925
C:\Users\SOLDER~1\AppData\Local\Temp\ccKV8tJ7.s:23758  .debug_str:000000000000688b .LASF926
C:\Users\SOLDER~1\AppData\Local\Temp\ccKV8tJ7.s:24630  .debug_str:000000000000a113 .LASF927
C:\Users\SOLDER~1\AppData\Local\Temp\ccKV8tJ7.s:29204  .debug_str:000000000001c983 .LASF928
C:\Users\SOLDER~1\AppData\Local\Temp\ccKV8tJ7.s:28280  .debug_str:0000000000018ea1 .LASF929
C:\Users\SOLDER~1\AppData\Local\Temp\ccKV8tJ7.s:29726  .debug_str:000000000001ebcf .LASF930
C:\Users\SOLDER~1\AppData\Local\Temp\ccKV8tJ7.s:22474  .debug_str:0000000000001692 .LASF931
C:\Users\SOLDER~1\AppData\Local\Temp\ccKV8tJ7.s:23830  .debug_str:0000000000006d08 .LASF932
C:\Users\SOLDER~1\AppData\Local\Temp\ccKV8tJ7.s:22388  .debug_str:00000000000010f2 .LASF933
GAS LISTING C:\Users\SOLDER~1\AppData\Local\Temp\ccKV8tJ7.s 			page 106


C:\Users\SOLDER~1\AppData\Local\Temp\ccKV8tJ7.s:25638  .debug_str:000000000000e3a9 .LASF934
C:\Users\SOLDER~1\AppData\Local\Temp\ccKV8tJ7.s:32558  .debug_str:000000000002a3fb .LASF935
C:\Users\SOLDER~1\AppData\Local\Temp\ccKV8tJ7.s:30522  .debug_str:0000000000021f5f .LASF936
C:\Users\SOLDER~1\AppData\Local\Temp\ccKV8tJ7.s:32122  .debug_str:00000000000287a6 .LASF937
C:\Users\SOLDER~1\AppData\Local\Temp\ccKV8tJ7.s:29362  .debug_str:000000000001d401 .LASF938
C:\Users\SOLDER~1\AppData\Local\Temp\ccKV8tJ7.s:32400  .debug_str:000000000002999d .LASF939
C:\Users\SOLDER~1\AppData\Local\Temp\ccKV8tJ7.s:24452  .debug_str:00000000000095c3 .LASF940
C:\Users\SOLDER~1\AppData\Local\Temp\ccKV8tJ7.s:32542  .debug_str:000000000002a2d8 .LASF941
C:\Users\SOLDER~1\AppData\Local\Temp\ccKV8tJ7.s:25838  .debug_str:000000000000f073 .LASF942
C:\Users\SOLDER~1\AppData\Local\Temp\ccKV8tJ7.s:31448  .debug_str:0000000000025ab1 .LASF943
C:\Users\SOLDER~1\AppData\Local\Temp\ccKV8tJ7.s:22974  .debug_str:00000000000036e2 .LASF944
C:\Users\SOLDER~1\AppData\Local\Temp\ccKV8tJ7.s:25684  .debug_str:000000000000e6c7 .LASF945
C:\Users\SOLDER~1\AppData\Local\Temp\ccKV8tJ7.s:32712  .debug_str:000000000002ae18 .LASF946
C:\Users\SOLDER~1\AppData\Local\Temp\ccKV8tJ7.s:31522  .debug_str:0000000000025fd6 .LASF947
C:\Users\SOLDER~1\AppData\Local\Temp\ccKV8tJ7.s:28948  .debug_str:000000000001b8e4 .LASF948
C:\Users\SOLDER~1\AppData\Local\Temp\ccKV8tJ7.s:24526  .debug_str:0000000000009a56 .LASF949
C:\Users\SOLDER~1\AppData\Local\Temp\ccKV8tJ7.s:25654  .debug_str:000000000000e4c4 .LASF950
C:\Users\SOLDER~1\AppData\Local\Temp\ccKV8tJ7.s:26008  .debug_str:000000000000fb88 .LASF951
C:\Users\SOLDER~1\AppData\Local\Temp\ccKV8tJ7.s:33386  .debug_str:000000000002d9ff .LASF952
C:\Users\SOLDER~1\AppData\Local\Temp\ccKV8tJ7.s:25510  .debug_str:000000000000db08 .LASF953
C:\Users\SOLDER~1\AppData\Local\Temp\ccKV8tJ7.s:27936  .debug_str:00000000000177fb .LASF954
C:\Users\SOLDER~1\AppData\Local\Temp\ccKV8tJ7.s:28464  .debug_str:0000000000019abe .LASF955
C:\Users\SOLDER~1\AppData\Local\Temp\ccKV8tJ7.s:28310  .debug_str:00000000000190be .LASF956
C:\Users\SOLDER~1\AppData\Local\Temp\ccKV8tJ7.s:27788  .debug_str:0000000000016e3c .LASF957
C:\Users\SOLDER~1\AppData\Local\Temp\ccKV8tJ7.s:25864  .debug_str:000000000000f202 .LASF958
C:\Users\SOLDER~1\AppData\Local\Temp\ccKV8tJ7.s:23294  .debug_str:0000000000004a8b .LASF959
C:\Users\SOLDER~1\AppData\Local\Temp\ccKV8tJ7.s:23526  .debug_str:0000000000005900 .LASF960
C:\Users\SOLDER~1\AppData\Local\Temp\ccKV8tJ7.s:30460  .debug_str:0000000000021b81 .LASF961
C:\Users\SOLDER~1\AppData\Local\Temp\ccKV8tJ7.s:32834  .debug_str:000000000002b5d1 .LASF962
C:\Users\SOLDER~1\AppData\Local\Temp\ccKV8tJ7.s:25936  .debug_str:000000000000f69c .LASF963
C:\Users\SOLDER~1\AppData\Local\Temp\ccKV8tJ7.s:30402  .debug_str:00000000000217c5 .LASF964
C:\Users\SOLDER~1\AppData\Local\Temp\ccKV8tJ7.s:33114  .debug_str:000000000002c891 .LASF965
C:\Users\SOLDER~1\AppData\Local\Temp\ccKV8tJ7.s:28042  .debug_str:0000000000017ee5 .LASF966
C:\Users\SOLDER~1\AppData\Local\Temp\ccKV8tJ7.s:27830  .debug_str:00000000000170ba .LASF967
C:\Users\SOLDER~1\AppData\Local\Temp\ccKV8tJ7.s:25574  .debug_str:000000000000df1e .LASF968
C:\Users\SOLDER~1\AppData\Local\Temp\ccKV8tJ7.s:24116  .debug_str:0000000000007fba .LASF969
C:\Users\SOLDER~1\AppData\Local\Temp\ccKV8tJ7.s:23148  .debug_str:00000000000041a2 .LASF970
C:\Users\SOLDER~1\AppData\Local\Temp\ccKV8tJ7.s:31272  .debug_str:0000000000024f88 .LASF971
C:\Users\SOLDER~1\AppData\Local\Temp\ccKV8tJ7.s:32468  .debug_str:0000000000029e0e .LASF972
C:\Users\SOLDER~1\AppData\Local\Temp\ccKV8tJ7.s:25346  .debug_str:000000000000d069 .LASF973
C:\Users\SOLDER~1\AppData\Local\Temp\ccKV8tJ7.s:26428  .debug_str:0000000000011649 .LASF974
C:\Users\SOLDER~1\AppData\Local\Temp\ccKV8tJ7.s:25970  .debug_str:000000000000f8ca .LASF975
C:\Users\SOLDER~1\AppData\Local\Temp\ccKV8tJ7.s:26850  .debug_str:00000000000130c9 .LASF976
C:\Users\SOLDER~1\AppData\Local\Temp\ccKV8tJ7.s:33236  .debug_str:000000000002d02a .LASF977
C:\Users\SOLDER~1\AppData\Local\Temp\ccKV8tJ7.s:33298  .debug_str:000000000002d3f6 .LASF978
C:\Users\SOLDER~1\AppData\Local\Temp\ccKV8tJ7.s:28700  .debug_str:000000000001a922 .LASF979
C:\Users\SOLDER~1\AppData\Local\Temp\ccKV8tJ7.s:30858  .debug_str:000000000002348b .LASF980
C:\Users\SOLDER~1\AppData\Local\Temp\ccKV8tJ7.s:24144  .debug_str:0000000000008191 .LASF981
C:\Users\SOLDER~1\AppData\Local\Temp\ccKV8tJ7.s:28472  .debug_str:0000000000019b0f .LASF982
C:\Users\SOLDER~1\AppData\Local\Temp\ccKV8tJ7.s:31298  .debug_str:000000000002515e .LASF983
C:\Users\SOLDER~1\AppData\Local\Temp\ccKV8tJ7.s:26156  .debug_str:0000000000010530 .LASF984
C:\Users\SOLDER~1\AppData\Local\Temp\ccKV8tJ7.s:26776  .debug_str:0000000000012be6 .LASF985
C:\Users\SOLDER~1\AppData\Local\Temp\ccKV8tJ7.s:23704  .debug_str:00000000000064a4 .LASF986
C:\Users\SOLDER~1\AppData\Local\Temp\ccKV8tJ7.s:27312  .debug_str:0000000000015045 .LASF987
C:\Users\SOLDER~1\AppData\Local\Temp\ccKV8tJ7.s:33014  .debug_str:000000000002c18d .LASF988
C:\Users\SOLDER~1\AppData\Local\Temp\ccKV8tJ7.s:29498  .debug_str:000000000001dcef .LASF989
C:\Users\SOLDER~1\AppData\Local\Temp\ccKV8tJ7.s:23584  .debug_str:0000000000005cb8 .LASF990
GAS LISTING C:\Users\SOLDER~1\AppData\Local\Temp\ccKV8tJ7.s 			page 107


C:\Users\SOLDER~1\AppData\Local\Temp\ccKV8tJ7.s:24960  .debug_str:000000000000b6b6 .LASF991
C:\Users\SOLDER~1\AppData\Local\Temp\ccKV8tJ7.s:28210  .debug_str:0000000000018a06 .LASF992
C:\Users\SOLDER~1\AppData\Local\Temp\ccKV8tJ7.s:32130  .debug_str:0000000000028821 .LASF993
C:\Users\SOLDER~1\AppData\Local\Temp\ccKV8tJ7.s:29302  .debug_str:000000000001d02f .LASF994
C:\Users\SOLDER~1\AppData\Local\Temp\ccKV8tJ7.s:27614  .debug_str:0000000000016391 .LASF995
C:\Users\SOLDER~1\AppData\Local\Temp\ccKV8tJ7.s:26238  .debug_str:0000000000010a6c .LASF996
C:\Users\SOLDER~1\AppData\Local\Temp\ccKV8tJ7.s:23058  .debug_str:0000000000003c3b .LASF997
C:\Users\SOLDER~1\AppData\Local\Temp\ccKV8tJ7.s:24462  .debug_str:0000000000009642 .LASF998
C:\Users\SOLDER~1\AppData\Local\Temp\ccKV8tJ7.s:30308  .debug_str:000000000002119c .LASF999
C:\Users\SOLDER~1\AppData\Local\Temp\ccKV8tJ7.s:33772  .debug_str:000000000002f257 .LASF1000
C:\Users\SOLDER~1\AppData\Local\Temp\ccKV8tJ7.s:25772  .debug_str:000000000000ec73 .LASF1001
C:\Users\SOLDER~1\AppData\Local\Temp\ccKV8tJ7.s:31326  .debug_str:0000000000025324 .LASF1002
C:\Users\SOLDER~1\AppData\Local\Temp\ccKV8tJ7.s:32964  .debug_str:000000000002be70 .LASF1003
C:\Users\SOLDER~1\AppData\Local\Temp\ccKV8tJ7.s:29028  .debug_str:000000000001bdea .LASF1004
C:\Users\SOLDER~1\AppData\Local\Temp\ccKV8tJ7.s:28428  .debug_str:000000000001987e .LASF1005
C:\Users\SOLDER~1\AppData\Local\Temp\ccKV8tJ7.s:26598  .debug_str:00000000000120c6 .LASF1006
C:\Users\SOLDER~1\AppData\Local\Temp\ccKV8tJ7.s:23866  .debug_str:0000000000006fad .LASF1007
C:\Users\SOLDER~1\AppData\Local\Temp\ccKV8tJ7.s:24172  .debug_str:000000000000835f .LASF1008
C:\Users\SOLDER~1\AppData\Local\Temp\ccKV8tJ7.s:31114  .debug_str:0000000000024556 .LASF1009
C:\Users\SOLDER~1\AppData\Local\Temp\ccKV8tJ7.s:33484  .debug_str:000000000002e03f .LASF1010
C:\Users\SOLDER~1\AppData\Local\Temp\ccKV8tJ7.s:26590  .debug_str:0000000000012042 .LASF1011
C:\Users\SOLDER~1\AppData\Local\Temp\ccKV8tJ7.s:31704  .debug_str:0000000000026c0f .LASF1012
C:\Users\SOLDER~1\AppData\Local\Temp\ccKV8tJ7.s:33766  .debug_str:000000000002f1fe .LASF1013
C:\Users\SOLDER~1\AppData\Local\Temp\ccKV8tJ7.s:32192  .debug_str:0000000000028c01 .LASF1014
C:\Users\SOLDER~1\AppData\Local\Temp\ccKV8tJ7.s:29216  .debug_str:000000000001ca67 .LASF1015
C:\Users\SOLDER~1\AppData\Local\Temp\ccKV8tJ7.s:29772  .debug_str:000000000001eee2 .LASF1016
C:\Users\SOLDER~1\AppData\Local\Temp\ccKV8tJ7.s:24654  .debug_str:000000000000a2a1 .LASF1017
C:\Users\SOLDER~1\AppData\Local\Temp\ccKV8tJ7.s:27360  .debug_str:0000000000015333 .LASF1018
C:\Users\SOLDER~1\AppData\Local\Temp\ccKV8tJ7.s:31844  .debug_str:000000000002757c .LASF1019
C:\Users\SOLDER~1\AppData\Local\Temp\ccKV8tJ7.s:24926  .debug_str:000000000000b47d .LASF1020
C:\Users\SOLDER~1\AppData\Local\Temp\ccKV8tJ7.s:26562  .debug_str:0000000000011eac .LASF1021
C:\Users\SOLDER~1\AppData\Local\Temp\ccKV8tJ7.s:28662  .debug_str:000000000001a6e3 .LASF1022
C:\Users\SOLDER~1\AppData\Local\Temp\ccKV8tJ7.s:22872  .debug_str:000000000000308b .LASF1023
C:\Users\SOLDER~1\AppData\Local\Temp\ccKV8tJ7.s:31894  .debug_str:000000000002789c .LASF1024
C:\Users\SOLDER~1\AppData\Local\Temp\ccKV8tJ7.s:30844  .debug_str:00000000000233c6 .LASF1025
C:\Users\SOLDER~1\AppData\Local\Temp\ccKV8tJ7.s:29476  .debug_str:000000000001db9c .LASF1026
C:\Users\SOLDER~1\AppData\Local\Temp\ccKV8tJ7.s:25488  .debug_str:000000000000d9b6 .LASF1027
C:\Users\SOLDER~1\AppData\Local\Temp\ccKV8tJ7.s:27080  .debug_str:00000000000140be .LASF1028
C:\Users\SOLDER~1\AppData\Local\Temp\ccKV8tJ7.s:32672  .debug_str:000000000002ab91 .LASF1029
C:\Users\SOLDER~1\AppData\Local\Temp\ccKV8tJ7.s:24626  .debug_str:000000000000a0d0 .LASF1030
C:\Users\SOLDER~1\AppData\Local\Temp\ccKV8tJ7.s:24216  .debug_str:0000000000008618 .LASF1031
C:\Users\SOLDER~1\AppData\Local\Temp\ccKV8tJ7.s:22264  .debug_str:0000000000000886 .LASF1032
C:\Users\SOLDER~1\AppData\Local\Temp\ccKV8tJ7.s:23572  .debug_str:0000000000005be2 .LASF1033
C:\Users\SOLDER~1\AppData\Local\Temp\ccKV8tJ7.s:23356  .debug_str:0000000000004e69 .LASF1034
C:\Users\SOLDER~1\AppData\Local\Temp\ccKV8tJ7.s:30728  .debug_str:0000000000022c1e .LASF1035
C:\Users\SOLDER~1\AppData\Local\Temp\ccKV8tJ7.s:32656  .debug_str:000000000002aa8e .LASF1036
C:\Users\SOLDER~1\AppData\Local\Temp\ccKV8tJ7.s:26326  .debug_str:0000000000010fbb .LASF1037
C:\Users\SOLDER~1\AppData\Local\Temp\ccKV8tJ7.s:30226  .debug_str:0000000000020c77 .LASF1038
C:\Users\SOLDER~1\AppData\Local\Temp\ccKV8tJ7.s:31244  .debug_str:0000000000024dd3 .LASF1039
C:\Users\SOLDER~1\AppData\Local\Temp\ccKV8tJ7.s:24520  .debug_str:00000000000099fe .LASF1040
C:\Users\SOLDER~1\AppData\Local\Temp\ccKV8tJ7.s:23280  .debug_str:00000000000049af .LASF1041
C:\Users\SOLDER~1\AppData\Local\Temp\ccKV8tJ7.s:26178  .debug_str:00000000000106ba .LASF1042
C:\Users\SOLDER~1\AppData\Local\Temp\ccKV8tJ7.s:32318  .debug_str:0000000000029451 .LASF1043
C:\Users\SOLDER~1\AppData\Local\Temp\ccKV8tJ7.s:30020  .debug_str:000000000001ff14 .LASF1044
C:\Users\SOLDER~1\AppData\Local\Temp\ccKV8tJ7.s:27526  .debug_str:0000000000015de1 .LASF1045
C:\Users\SOLDER~1\AppData\Local\Temp\ccKV8tJ7.s:23066  .debug_str:0000000000003cb6 .LASF1046
C:\Users\SOLDER~1\AppData\Local\Temp\ccKV8tJ7.s:31736  .debug_str:0000000000026e4f .LASF1047
GAS LISTING C:\Users\SOLDER~1\AppData\Local\Temp\ccKV8tJ7.s 			page 108


C:\Users\SOLDER~1\AppData\Local\Temp\ccKV8tJ7.s:23662  .debug_str:00000000000061fe .LASF1048
C:\Users\SOLDER~1\AppData\Local\Temp\ccKV8tJ7.s:27904  .debug_str:00000000000175e5 .LASF1049
C:\Users\SOLDER~1\AppData\Local\Temp\ccKV8tJ7.s:26572  .debug_str:0000000000011f38 .LASF1050
C:\Users\SOLDER~1\AppData\Local\Temp\ccKV8tJ7.s:29294  .debug_str:000000000001cfbc .LASF1051
C:\Users\SOLDER~1\AppData\Local\Temp\ccKV8tJ7.s:31724  .debug_str:0000000000026d88 .LASF1052
C:\Users\SOLDER~1\AppData\Local\Temp\ccKV8tJ7.s:25758  .debug_str:000000000000eba1 .LASF1053
C:\Users\SOLDER~1\AppData\Local\Temp\ccKV8tJ7.s:29114  .debug_str:000000000001c374 .LASF1054
C:\Users\SOLDER~1\AppData\Local\Temp\ccKV8tJ7.s:23362  .debug_str:0000000000004ec0 .LASF1055
C:\Users\SOLDER~1\AppData\Local\Temp\ccKV8tJ7.s:30414  .debug_str:0000000000021881 .LASF1056
C:\Users\SOLDER~1\AppData\Local\Temp\ccKV8tJ7.s:30502  .debug_str:0000000000021e1c .LASF1057
C:\Users\SOLDER~1\AppData\Local\Temp\ccKV8tJ7.s:29454  .debug_str:000000000001da3c .LASF1058
C:\Users\SOLDER~1\AppData\Local\Temp\ccKV8tJ7.s:32520  .debug_str:000000000002a153 .LASF1059
C:\Users\SOLDER~1\AppData\Local\Temp\ccKV8tJ7.s:30424  .debug_str:000000000002191f .LASF1060
C:\Users\SOLDER~1\AppData\Local\Temp\ccKV8tJ7.s:30186  .debug_str:00000000000209db .LASF1061
C:\Users\SOLDER~1\AppData\Local\Temp\ccKV8tJ7.s:33426  .debug_str:000000000002dc6e .LASF1062
C:\Users\SOLDER~1\AppData\Local\Temp\ccKV8tJ7.s:23726  .debug_str:000000000000663a .LASF1063
C:\Users\SOLDER~1\AppData\Local\Temp\ccKV8tJ7.s:26084  .debug_str:00000000000100c5 .LASF1064
C:\Users\SOLDER~1\AppData\Local\Temp\ccKV8tJ7.s:30836  .debug_str:0000000000023356 .LASF1065
C:\Users\SOLDER~1\AppData\Local\Temp\ccKV8tJ7.s:30860  .debug_str:00000000000234ac .LASF1066
C:\Users\SOLDER~1\AppData\Local\Temp\ccKV8tJ7.s:25492  .debug_str:000000000000d9ee .LASF1067
C:\Users\SOLDER~1\AppData\Local\Temp\ccKV8tJ7.s:33656  .debug_str:000000000002eaec .LASF1068
C:\Users\SOLDER~1\AppData\Local\Temp\ccKV8tJ7.s:26320  .debug_str:0000000000010f50 .LASF1069
C:\Users\SOLDER~1\AppData\Local\Temp\ccKV8tJ7.s:30712  .debug_str:0000000000022b1b .LASF1070
C:\Users\SOLDER~1\AppData\Local\Temp\ccKV8tJ7.s:29370  .debug_str:000000000001d499 .LASF1071
C:\Users\SOLDER~1\AppData\Local\Temp\ccKV8tJ7.s:26300  .debug_str:0000000000010e2a .LASF1072
C:\Users\SOLDER~1\AppData\Local\Temp\ccKV8tJ7.s:30960  .debug_str:0000000000023b70 .LASF1073
C:\Users\SOLDER~1\AppData\Local\Temp\ccKV8tJ7.s:22284  .debug_str:0000000000000a1c .LASF1074
C:\Users\SOLDER~1\AppData\Local\Temp\ccKV8tJ7.s:28616  .debug_str:000000000001a3eb .LASF1075
C:\Users\SOLDER~1\AppData\Local\Temp\ccKV8tJ7.s:27100  .debug_str:00000000000141fb .LASF1076
C:\Users\SOLDER~1\AppData\Local\Temp\ccKV8tJ7.s:25284  .debug_str:000000000000cc3f .LASF1077
C:\Users\SOLDER~1\AppData\Local\Temp\ccKV8tJ7.s:22736  .debug_str:00000000000027b4 .LASF1078
C:\Users\SOLDER~1\AppData\Local\Temp\ccKV8tJ7.s:31422  .debug_str:0000000000025923 .LASF1079
C:\Users\SOLDER~1\AppData\Local\Temp\ccKV8tJ7.s:24334  .debug_str:0000000000008dc1 .LASF1080
C:\Users\SOLDER~1\AppData\Local\Temp\ccKV8tJ7.s:26750  .debug_str:0000000000012a0d .LASF1081
C:\Users\SOLDER~1\AppData\Local\Temp\ccKV8tJ7.s:30264  .debug_str:0000000000020ed0 .LASF1082
C:\Users\SOLDER~1\AppData\Local\Temp\ccKV8tJ7.s:29704  .debug_str:000000000001ea2d .LASF1083
C:\Users\SOLDER~1\AppData\Local\Temp\ccKV8tJ7.s:27606  .debug_str:0000000000016306 .LASF1084
C:\Users\SOLDER~1\AppData\Local\Temp\ccKV8tJ7.s:23576  .debug_str:0000000000005c1e .LASF1085
C:\Users\SOLDER~1\AppData\Local\Temp\ccKV8tJ7.s:30820  .debug_str:0000000000023247 .LASF1086
C:\Users\SOLDER~1\AppData\Local\Temp\ccKV8tJ7.s:32600  .debug_str:000000000002a6b6 .LASF1087
C:\Users\SOLDER~1\AppData\Local\Temp\ccKV8tJ7.s:30406  .debug_str:00000000000217fb .LASF1088
C:\Users\SOLDER~1\AppData\Local\Temp\ccKV8tJ7.s:23544  .debug_str:0000000000005a3d .LASF1089
C:\Users\SOLDER~1\AppData\Local\Temp\ccKV8tJ7.s:31746  .debug_str:0000000000026ee8 .LASF1090
C:\Users\SOLDER~1\AppData\Local\Temp\ccKV8tJ7.s:29546  .debug_str:000000000001dfe5 .LASF1091
C:\Users\SOLDER~1\AppData\Local\Temp\ccKV8tJ7.s:23906  .debug_str:000000000000723f .LASF1092
C:\Users\SOLDER~1\AppData\Local\Temp\ccKV8tJ7.s:28060  .debug_str:0000000000018011 .LASF1093
C:\Users\SOLDER~1\AppData\Local\Temp\ccKV8tJ7.s:25456  .debug_str:000000000000d779 .LASF1094
C:\Users\SOLDER~1\AppData\Local\Temp\ccKV8tJ7.s:22490  .debug_str:00000000000017b0 .LASF1095
C:\Users\SOLDER~1\AppData\Local\Temp\ccKV8tJ7.s:23632  .debug_str:0000000000005fc6 .LASF1096
C:\Users\SOLDER~1\AppData\Local\Temp\ccKV8tJ7.s:30842  .debug_str:000000000002339f .LASF1097
C:\Users\SOLDER~1\AppData\Local\Temp\ccKV8tJ7.s:27652  .debug_str:00000000000165de .LASF1098
C:\Users\SOLDER~1\AppData\Local\Temp\ccKV8tJ7.s:23868  .debug_str:0000000000006fc4 .LASF1099
C:\Users\SOLDER~1\AppData\Local\Temp\ccKV8tJ7.s:27370  .debug_str:00000000000153f7 .LASF1100
C:\Users\SOLDER~1\AppData\Local\Temp\ccKV8tJ7.s:31094  .debug_str:00000000000243fa .LASF1101
C:\Users\SOLDER~1\AppData\Local\Temp\ccKV8tJ7.s:32794  .debug_str:000000000002b364 .LASF1102
C:\Users\SOLDER~1\AppData\Local\Temp\ccKV8tJ7.s:22348  .debug_str:0000000000000ea3 .LASF1103
C:\Users\SOLDER~1\AppData\Local\Temp\ccKV8tJ7.s:22458  .debug_str:00000000000015a0 .LASF1104
GAS LISTING C:\Users\SOLDER~1\AppData\Local\Temp\ccKV8tJ7.s 			page 109


C:\Users\SOLDER~1\AppData\Local\Temp\ccKV8tJ7.s:30052  .debug_str:000000000002013a .LASF1105
C:\Users\SOLDER~1\AppData\Local\Temp\ccKV8tJ7.s:23520  .debug_str:00000000000058a5 .LASF1106
C:\Users\SOLDER~1\AppData\Local\Temp\ccKV8tJ7.s:25082  .debug_str:000000000000be90 .LASF1107
C:\Users\SOLDER~1\AppData\Local\Temp\ccKV8tJ7.s:22530  .debug_str:0000000000001a15 .LASF1108
C:\Users\SOLDER~1\AppData\Local\Temp\ccKV8tJ7.s:30140  .debug_str:00000000000206c8 .LASF1109
C:\Users\SOLDER~1\AppData\Local\Temp\ccKV8tJ7.s:23608  .debug_str:0000000000005e27 .LASF1110
C:\Users\SOLDER~1\AppData\Local\Temp\ccKV8tJ7.s:24114  .debug_str:0000000000007f92 .LASF1111
C:\Users\SOLDER~1\AppData\Local\Temp\ccKV8tJ7.s:24606  .debug_str:0000000000009f72 .LASF1112
C:\Users\SOLDER~1\AppData\Local\Temp\ccKV8tJ7.s:25054  .debug_str:000000000000bcdf .LASF1113
C:\Users\SOLDER~1\AppData\Local\Temp\ccKV8tJ7.s:32098  .debug_str:00000000000285e6 .LASF1114
C:\Users\SOLDER~1\AppData\Local\Temp\ccKV8tJ7.s:24258  .debug_str:0000000000008897 .LASF1115
C:\Users\SOLDER~1\AppData\Local\Temp\ccKV8tJ7.s:31814  .debug_str:0000000000027340 .LASF1116
C:\Users\SOLDER~1\AppData\Local\Temp\ccKV8tJ7.s:33270  .debug_str:000000000002d230 .LASF1117
C:\Users\SOLDER~1\AppData\Local\Temp\ccKV8tJ7.s:32760  .debug_str:000000000002b120 .LASF1118
C:\Users\SOLDER~1\AppData\Local\Temp\ccKV8tJ7.s:27018  .debug_str:0000000000013c65 .LASF1119
C:\Users\SOLDER~1\AppData\Local\Temp\ccKV8tJ7.s:23282  .debug_str:00000000000049c0 .LASF1120
C:\Users\SOLDER~1\AppData\Local\Temp\ccKV8tJ7.s:33306  .debug_str:000000000002d479 .LASF1121
C:\Users\SOLDER~1\AppData\Local\Temp\ccKV8tJ7.s:24376  .debug_str:0000000000009090 .LASF1122
C:\Users\SOLDER~1\AppData\Local\Temp\ccKV8tJ7.s:32930  .debug_str:000000000002bc32 .LASF1123
C:\Users\SOLDER~1\AppData\Local\Temp\ccKV8tJ7.s:27264  .debug_str:0000000000014d27 .LASF1124
C:\Users\SOLDER~1\AppData\Local\Temp\ccKV8tJ7.s:24944  .debug_str:000000000000b5c2 .LASF1125
C:\Users\SOLDER~1\AppData\Local\Temp\ccKV8tJ7.s:33458  .debug_str:000000000002de99 .LASF1126
C:\Users\SOLDER~1\AppData\Local\Temp\ccKV8tJ7.s:31554  .debug_str:00000000000261e9 .LASF1127
C:\Users\SOLDER~1\AppData\Local\Temp\ccKV8tJ7.s:30602  .debug_str:000000000002245d .LASF1128
C:\Users\SOLDER~1\AppData\Local\Temp\ccKV8tJ7.s:28234  .debug_str:0000000000018b91 .LASF1129
C:\Users\SOLDER~1\AppData\Local\Temp\ccKV8tJ7.s:28848  .debug_str:000000000001b2ca .LASF1130
C:\Users\SOLDER~1\AppData\Local\Temp\ccKV8tJ7.s:24272  .debug_str:00000000000089a0 .LASF1131
C:\Users\SOLDER~1\AppData\Local\Temp\ccKV8tJ7.s:29892  .debug_str:000000000001f6ce .LASF1132
C:\Users\SOLDER~1\AppData\Local\Temp\ccKV8tJ7.s:24856  .debug_str:000000000000b025 .LASF1133
C:\Users\SOLDER~1\AppData\Local\Temp\ccKV8tJ7.s:27892  .debug_str:0000000000017518 .LASF1134
C:\Users\SOLDER~1\AppData\Local\Temp\ccKV8tJ7.s:27262  .debug_str:0000000000014d02 .LASF1135
C:\Users\SOLDER~1\AppData\Local\Temp\ccKV8tJ7.s:27902  .debug_str:00000000000175c0 .LASF1136
C:\Users\SOLDER~1\AppData\Local\Temp\ccKV8tJ7.s:32002  .debug_str:0000000000027f7b .LASF1137
C:\Users\SOLDER~1\AppData\Local\Temp\ccKV8tJ7.s:29830  .debug_str:000000000001f298 .LASF1138
C:\Users\SOLDER~1\AppData\Local\Temp\ccKV8tJ7.s:31156  .debug_str:0000000000024821 .LASF1139
C:\Users\SOLDER~1\AppData\Local\Temp\ccKV8tJ7.s:22678  .debug_str:00000000000023e8 .LASF1140
C:\Users\SOLDER~1\AppData\Local\Temp\ccKV8tJ7.s:31600  .debug_str:000000000002652c .LASF1141
C:\Users\SOLDER~1\AppData\Local\Temp\ccKV8tJ7.s:30722  .debug_str:0000000000022bbe .LASF1142
C:\Users\SOLDER~1\AppData\Local\Temp\ccKV8tJ7.s:29222  .debug_str:000000000001cac0 .LASF1143
C:\Users\SOLDER~1\AppData\Local\Temp\ccKV8tJ7.s:33022  .debug_str:000000000002c21a .LASF1144
C:\Users\SOLDER~1\AppData\Local\Temp\ccKV8tJ7.s:29724  .debug_str:000000000001eba8 .LASF1145
C:\Users\SOLDER~1\AppData\Local\Temp\ccKV8tJ7.s:29482  .debug_str:000000000001dc08 .LASF1146
C:\Users\SOLDER~1\AppData\Local\Temp\ccKV8tJ7.s:27780  .debug_str:0000000000016dc3 .LASF1147
C:\Users\SOLDER~1\AppData\Local\Temp\ccKV8tJ7.s:33138  .debug_str:000000000002c9ed .LASF1148
C:\Users\SOLDER~1\AppData\Local\Temp\ccKV8tJ7.s:30416  .debug_str:000000000002189d .LASF1149
C:\Users\SOLDER~1\AppData\Local\Temp\ccKV8tJ7.s:27502  .debug_str:0000000000015c67 .LASF1150
C:\Users\SOLDER~1\AppData\Local\Temp\ccKV8tJ7.s:29276  .debug_str:000000000001ce72 .LASF1151
C:\Users\SOLDER~1\AppData\Local\Temp\ccKV8tJ7.s:26314  .debug_str:0000000000010f12 .LASF1152
C:\Users\SOLDER~1\AppData\Local\Temp\ccKV8tJ7.s:31904  .debug_str:0000000000027945 .LASF1153
C:\Users\SOLDER~1\AppData\Local\Temp\ccKV8tJ7.s:28146  .debug_str:00000000000185dc .LASF1154
C:\Users\SOLDER~1\AppData\Local\Temp\ccKV8tJ7.s:27260  .debug_str:0000000000014cd9 .LASF1155
C:\Users\SOLDER~1\AppData\Local\Temp\ccKV8tJ7.s:27028  .debug_str:0000000000013d37 .LASF1156
C:\Users\SOLDER~1\AppData\Local\Temp\ccKV8tJ7.s:30170  .debug_str:00000000000208bc .LASF1157
C:\Users\SOLDER~1\AppData\Local\Temp\ccKV8tJ7.s:33570  .debug_str:000000000002e5a8 .LASF1158
C:\Users\SOLDER~1\AppData\Local\Temp\ccKV8tJ7.s:33578  .debug_str:000000000002e60e .LASF1159
C:\Users\SOLDER~1\AppData\Local\Temp\ccKV8tJ7.s:32156  .debug_str:00000000000289b6 .LASF1160
C:\Users\SOLDER~1\AppData\Local\Temp\ccKV8tJ7.s:28394  .debug_str:000000000001961a .LASF1161
GAS LISTING C:\Users\SOLDER~1\AppData\Local\Temp\ccKV8tJ7.s 			page 110


C:\Users\SOLDER~1\AppData\Local\Temp\ccKV8tJ7.s:28172  .debug_str:000000000001877d .LASF1162
C:\Users\SOLDER~1\AppData\Local\Temp\ccKV8tJ7.s:31988  .debug_str:0000000000027ea5 .LASF1163
C:\Users\SOLDER~1\AppData\Local\Temp\ccKV8tJ7.s:26366  .debug_str:0000000000011227 .LASF1164
C:\Users\SOLDER~1\AppData\Local\Temp\ccKV8tJ7.s:31922  .debug_str:0000000000027a67 .LASF1165
C:\Users\SOLDER~1\AppData\Local\Temp\ccKV8tJ7.s:33630  .debug_str:000000000002e946 .LASF1166
C:\Users\SOLDER~1\AppData\Local\Temp\ccKV8tJ7.s:29956  .debug_str:000000000001fb41 .LASF1167
C:\Users\SOLDER~1\AppData\Local\Temp\ccKV8tJ7.s:26892  .debug_str:000000000001338c .LASF1168
C:\Users\SOLDER~1\AppData\Local\Temp\ccKV8tJ7.s:32472  .debug_str:0000000000029e4b .LASF1169
C:\Users\SOLDER~1\AppData\Local\Temp\ccKV8tJ7.s:24312  .debug_str:0000000000008c1d .LASF1170
C:\Users\SOLDER~1\AppData\Local\Temp\ccKV8tJ7.s:30458  .debug_str:0000000000021b58 .LASF1171
C:\Users\SOLDER~1\AppData\Local\Temp\ccKV8tJ7.s:31324  .debug_str:00000000000252fd .LASF1172
C:\Users\SOLDER~1\AppData\Local\Temp\ccKV8tJ7.s:29778  .debug_str:000000000001ef42 .LASF1173
C:\Users\SOLDER~1\AppData\Local\Temp\ccKV8tJ7.s:28158  .debug_str:00000000000186a9 .LASF1174
C:\Users\SOLDER~1\AppData\Local\Temp\ccKV8tJ7.s:26110  .debug_str:0000000000010252 .LASF1175
C:\Users\SOLDER~1\AppData\Local\Temp\ccKV8tJ7.s:29988  .debug_str:000000000001fd2c .LASF1176
C:\Users\SOLDER~1\AppData\Local\Temp\ccKV8tJ7.s:27034  .debug_str:0000000000013da1 .LASF1177
C:\Users\SOLDER~1\AppData\Local\Temp\ccKV8tJ7.s:26770  .debug_str:0000000000012b75 .LASF1178
C:\Users\SOLDER~1\AppData\Local\Temp\ccKV8tJ7.s:24598  .debug_str:0000000000009eeb .LASF1179
C:\Users\SOLDER~1\AppData\Local\Temp\ccKV8tJ7.s:25986  .debug_str:000000000000f9e0 .LASF1180
C:\Users\SOLDER~1\AppData\Local\Temp\ccKV8tJ7.s:28086  .debug_str:00000000000181d6 .LASF1181
C:\Users\SOLDER~1\AppData\Local\Temp\ccKV8tJ7.s:31594  .debug_str:00000000000264c3 .LASF1182
C:\Users\SOLDER~1\AppData\Local\Temp\ccKV8tJ7.s:26172  .debug_str:0000000000010650 .LASF1183
C:\Users\SOLDER~1\AppData\Local\Temp\ccKV8tJ7.s:31822  .debug_str:00000000000273d5 .LASF1184
C:\Users\SOLDER~1\AppData\Local\Temp\ccKV8tJ7.s:28672  .debug_str:000000000001a778 .LASF1185
C:\Users\SOLDER~1\AppData\Local\Temp\ccKV8tJ7.s:32240  .debug_str:0000000000028f40 .LASF1186
C:\Users\SOLDER~1\AppData\Local\Temp\ccKV8tJ7.s:26678  .debug_str:0000000000012599 .LASF1187
C:\Users\SOLDER~1\AppData\Local\Temp\ccKV8tJ7.s:24688  .debug_str:000000000000a4e5 .LASF1188
C:\Users\SOLDER~1\AppData\Local\Temp\ccKV8tJ7.s:24018  .debug_str:000000000000793e .LASF1189
C:\Users\SOLDER~1\AppData\Local\Temp\ccKV8tJ7.s:22608  .debug_str:0000000000001f42 .LASF1190
C:\Users\SOLDER~1\AppData\Local\Temp\ccKV8tJ7.s:26408  .debug_str:00000000000114d0 .LASF1191
C:\Users\SOLDER~1\AppData\Local\Temp\ccKV8tJ7.s:23098  .debug_str:0000000000003ebb .LASF1192
C:\Users\SOLDER~1\AppData\Local\Temp\ccKV8tJ7.s:33774  .debug_str:000000000002f278 .LASF1193
C:\Users\SOLDER~1\AppData\Local\Temp\ccKV8tJ7.s:28710  .debug_str:000000000001a9cd .LASF1194
C:\Users\SOLDER~1\AppData\Local\Temp\ccKV8tJ7.s:23856  .debug_str:0000000000006f02 .LASF1195
C:\Users\SOLDER~1\AppData\Local\Temp\ccKV8tJ7.s:29422  .debug_str:000000000001d847 .LASF1196
C:\Users\SOLDER~1\AppData\Local\Temp\ccKV8tJ7.s:33012  .debug_str:000000000002c164 .LASF1197
C:\Users\SOLDER~1\AppData\Local\Temp\ccKV8tJ7.s:27468  .debug_str:0000000000015a26 .LASF1198
C:\Users\SOLDER~1\AppData\Local\Temp\ccKV8tJ7.s:24480  .debug_str:000000000000976d .LASF1199
C:\Users\SOLDER~1\AppData\Local\Temp\ccKV8tJ7.s:29978  .debug_str:000000000001fc87 .LASF1200
C:\Users\SOLDER~1\AppData\Local\Temp\ccKV8tJ7.s:33560  .debug_str:000000000002e4fa .LASF1201
C:\Users\SOLDER~1\AppData\Local\Temp\ccKV8tJ7.s:28116  .debug_str:00000000000183fc .LASF1202
C:\Users\SOLDER~1\AppData\Local\Temp\ccKV8tJ7.s:23424  .debug_str:0000000000005288 .LASF1203
C:\Users\SOLDER~1\AppData\Local\Temp\ccKV8tJ7.s:22664  .debug_str:00000000000022f3 .LASF1204
C:\Users\SOLDER~1\AppData\Local\Temp\ccKV8tJ7.s:26848  .debug_str:00000000000130a2 .LASF1205
C:\Users\SOLDER~1\AppData\Local\Temp\ccKV8tJ7.s:30710  .debug_str:0000000000022af4 .LASF1206
C:\Users\SOLDER~1\AppData\Local\Temp\ccKV8tJ7.s:33472  .debug_str:000000000002df82 .LASF1207
C:\Users\SOLDER~1\AppData\Local\Temp\ccKV8tJ7.s:27006  .debug_str:0000000000013b7c .LASF1208
C:\Users\SOLDER~1\AppData\Local\Temp\ccKV8tJ7.s:32962  .debug_str:000000000002be48 .LASF1209
C:\Users\SOLDER~1\AppData\Local\Temp\ccKV8tJ7.s:31770  .debug_str:00000000000270a7 .LASF1210
C:\Users\SOLDER~1\AppData\Local\Temp\ccKV8tJ7.s:25640  .debug_str:000000000000e3cb .LASF1211
C:\Users\SOLDER~1\AppData\Local\Temp\ccKV8tJ7.s:29124  .debug_str:000000000001c410 .LASF1212
C:\Users\SOLDER~1\AppData\Local\Temp\ccKV8tJ7.s:23656  .debug_str:0000000000006197 .LASF1213
C:\Users\SOLDER~1\AppData\Local\Temp\ccKV8tJ7.s:32832  .debug_str:000000000002b5a8 .LASF1214
C:\Users\SOLDER~1\AppData\Local\Temp\ccKV8tJ7.s:23514  .debug_str:0000000000005840 .LASF1215
C:\Users\SOLDER~1\AppData\Local\Temp\ccKV8tJ7.s:29750  .debug_str:000000000001ed61 .LASF1216
C:\Users\SOLDER~1\AppData\Local\Temp\ccKV8tJ7.s:24286  .debug_str:0000000000008a7a .LASF1217
C:\Users\SOLDER~1\AppData\Local\Temp\ccKV8tJ7.s:22888  .debug_str:000000000000317d .LASF1218
GAS LISTING C:\Users\SOLDER~1\AppData\Local\Temp\ccKV8tJ7.s 			page 111


C:\Users\SOLDER~1\AppData\Local\Temp\ccKV8tJ7.s:31002  .debug_str:0000000000023e2d .LASF1219
C:\Users\SOLDER~1\AppData\Local\Temp\ccKV8tJ7.s:30716  .debug_str:0000000000022b54 .LASF1220
C:\Users\SOLDER~1\AppData\Local\Temp\ccKV8tJ7.s:30160  .debug_str:0000000000020811 .LASF1221
C:\Users\SOLDER~1\AppData\Local\Temp\ccKV8tJ7.s:26742  .debug_str:0000000000012999 .LASF1222
C:\Users\SOLDER~1\AppData\Local\Temp\ccKV8tJ7.s:23512  .debug_str:000000000000581d .LASF1223
C:\Users\SOLDER~1\AppData\Local\Temp\ccKV8tJ7.s:24978  .debug_str:000000000000b7c0 .LASF1224
C:\Users\SOLDER~1\AppData\Local\Temp\ccKV8tJ7.s:28404  .debug_str:00000000000196d4 .LASF1225
C:\Users\SOLDER~1\AppData\Local\Temp\ccKV8tJ7.s:25896  .debug_str:000000000000f40e .LASF1226
C:\Users\SOLDER~1\AppData\Local\Temp\ccKV8tJ7.s:31140  .debug_str:000000000002470b .LASF1227
C:\Users\SOLDER~1\AppData\Local\Temp\ccKV8tJ7.s:24840  .debug_str:000000000000af0d .LASF1228
C:\Users\SOLDER~1\AppData\Local\Temp\ccKV8tJ7.s:25940  .debug_str:000000000000f6dc .LASF1229
C:\Users\SOLDER~1\AppData\Local\Temp\ccKV8tJ7.s:31990  .debug_str:0000000000027ecd .LASF1230
C:\Users\SOLDER~1\AppData\Local\Temp\ccKV8tJ7.s:26932  .debug_str:0000000000013632 .LASF1231
C:\Users\SOLDER~1\AppData\Local\Temp\ccKV8tJ7.s:28096  .debug_str:000000000001829f .LASF1232
C:\Users\SOLDER~1\AppData\Local\Temp\ccKV8tJ7.s:26270  .debug_str:0000000000010c73 .LASF1233
C:\Users\SOLDER~1\AppData\Local\Temp\ccKV8tJ7.s:23804  .debug_str:0000000000006b61 .LASF1234
C:\Users\SOLDER~1\AppData\Local\Temp\ccKV8tJ7.s:26984  .debug_str:00000000000139c7 .LASF1235
C:\Users\SOLDER~1\AppData\Local\Temp\ccKV8tJ7.s:23444  .debug_str:00000000000053c4 .LASF1236
C:\Users\SOLDER~1\AppData\Local\Temp\ccKV8tJ7.s:31740  .debug_str:0000000000026e85 .LASF1237
C:\Users\SOLDER~1\AppData\Local\Temp\ccKV8tJ7.s:28546  .debug_str:0000000000019fbe .LASF1238
C:\Users\SOLDER~1\AppData\Local\Temp\ccKV8tJ7.s:25676  .debug_str:000000000000e63f .LASF1239
C:\Users\SOLDER~1\AppData\Local\Temp\ccKV8tJ7.s:33390  .debug_str:000000000002da4a .LASF1240
C:\Users\SOLDER~1\AppData\Local\Temp\ccKV8tJ7.s:30882  .debug_str:000000000002362a .LASF1241
C:\Users\SOLDER~1\AppData\Local\Temp\ccKV8tJ7.s:29538  .debug_str:000000000001df70 .LASF1242
C:\Users\SOLDER~1\AppData\Local\Temp\ccKV8tJ7.s:29766  .debug_str:000000000001ee82 .LASF1243
C:\Users\SOLDER~1\AppData\Local\Temp\ccKV8tJ7.s:22870  .debug_str:0000000000003068 .LASF1244
C:\Users\SOLDER~1\AppData\Local\Temp\ccKV8tJ7.s:25626  .debug_str:000000000000e2cd .LASF1245
C:\Users\SOLDER~1\AppData\Local\Temp\ccKV8tJ7.s:32266  .debug_str:00000000000290fe .LASF1246
C:\Users\SOLDER~1\AppData\Local\Temp\ccKV8tJ7.s:31802  .debug_str:0000000000027299 .LASF1247
C:\Users\SOLDER~1\AppData\Local\Temp\ccKV8tJ7.s:31570  .debug_str:0000000000026304 .LASF1248
C:\Users\SOLDER~1\AppData\Local\Temp\ccKV8tJ7.s:31610  .debug_str:00000000000265d1 .LASF1249
C:\Users\SOLDER~1\AppData\Local\Temp\ccKV8tJ7.s:25200  .debug_str:000000000000c6a0 .LASF1250
C:\Users\SOLDER~1\AppData\Local\Temp\ccKV8tJ7.s:33412  .debug_str:000000000002db82 .LASF1251
C:\Users\SOLDER~1\AppData\Local\Temp\ccKV8tJ7.s:29998  .debug_str:000000000001fdac .LASF1252
C:\Users\SOLDER~1\AppData\Local\Temp\ccKV8tJ7.s:26758  .debug_str:0000000000012a91 .LASF1253
C:\Users\SOLDER~1\AppData\Local\Temp\ccKV8tJ7.s:28818  .debug_str:000000000001b0f1 .LASF1254
C:\Users\SOLDER~1\AppData\Local\Temp\ccKV8tJ7.s:31604  .debug_str:0000000000026566 .LASF1255
C:\Users\SOLDER~1\AppData\Local\Temp\ccKV8tJ7.s:29140  .debug_str:000000000001c54d .LASF1256
C:\Users\SOLDER~1\AppData\Local\Temp\ccKV8tJ7.s:27814  .debug_str:0000000000016fa5 .LASF1257
C:\Users\SOLDER~1\AppData\Local\Temp\ccKV8tJ7.s:28128  .debug_str:00000000000184cd .LASF1258
C:\Users\SOLDER~1\AppData\Local\Temp\ccKV8tJ7.s:32812  .debug_str:000000000002b45b .LASF1259
C:\Users\SOLDER~1\AppData\Local\Temp\ccKV8tJ7.s:25000  .debug_str:000000000000b926 .LASF1260
C:\Users\SOLDER~1\AppData\Local\Temp\ccKV8tJ7.s:31620  .debug_str:0000000000026682 .LASF1261
C:\Users\SOLDER~1\AppData\Local\Temp\ccKV8tJ7.s:32766  .debug_str:000000000002b191 .LASF1262
C:\Users\SOLDER~1\AppData\Local\Temp\ccKV8tJ7.s:30854  .debug_str:0000000000023450 .LASF1263
C:\Users\SOLDER~1\AppData\Local\Temp\ccKV8tJ7.s:28614  .debug_str:000000000001a3cb .LASF1264
C:\Users\SOLDER~1\AppData\Local\Temp\ccKV8tJ7.s:30816  .debug_str:0000000000023215 .LASF1265
C:\Users\SOLDER~1\AppData\Local\Temp\ccKV8tJ7.s:27334  .debug_str:0000000000015196 .LASF1266
C:\Users\SOLDER~1\AppData\Local\Temp\ccKV8tJ7.s:23910  .debug_str:000000000000728a .LASF1267
C:\Users\SOLDER~1\AppData\Local\Temp\ccKV8tJ7.s:32406  .debug_str:0000000000029a05 .LASF1268
C:\Users\SOLDER~1\AppData\Local\Temp\ccKV8tJ7.s:22738  .debug_str:00000000000027d4 .LASF1269
C:\Users\SOLDER~1\AppData\Local\Temp\ccKV8tJ7.s:25536  .debug_str:000000000000dc83 .LASF1270
C:\Users\SOLDER~1\AppData\Local\Temp\ccKV8tJ7.s:23060  .debug_str:0000000000003c52 .LASF1271
C:\Users\SOLDER~1\AppData\Local\Temp\ccKV8tJ7.s:31176  .debug_str:000000000002495f .LASF1272
C:\Users\SOLDER~1\AppData\Local\Temp\ccKV8tJ7.s:33740  .debug_str:000000000002f071 .LASF1273
C:\Users\SOLDER~1\AppData\Local\Temp\ccKV8tJ7.s:26820  .debug_str:0000000000012eda .LASF1274
C:\Users\SOLDER~1\AppData\Local\Temp\ccKV8tJ7.s:28690  .debug_str:000000000001a873 .LASF1275
GAS LISTING C:\Users\SOLDER~1\AppData\Local\Temp\ccKV8tJ7.s 			page 112


C:\Users\SOLDER~1\AppData\Local\Temp\ccKV8tJ7.s:23676  .debug_str:00000000000062e7 .LASF1276
C:\Users\SOLDER~1\AppData\Local\Temp\ccKV8tJ7.s:24802  .debug_str:000000000000ac60 .LASF1277
C:\Users\SOLDER~1\AppData\Local\Temp\ccKV8tJ7.s:23014  .debug_str:0000000000003970 .LASF1278
C:\Users\SOLDER~1\AppData\Local\Temp\ccKV8tJ7.s:22540  .debug_str:0000000000001ab8 .LASF1279
C:\Users\SOLDER~1\AppData\Local\Temp\ccKV8tJ7.s:23936  .debug_str:000000000000742d .LASF1280
C:\Users\SOLDER~1\AppData\Local\Temp\ccKV8tJ7.s:23132  .debug_str:0000000000004079 .LASF1281
C:\Users\SOLDER~1\AppData\Local\Temp\ccKV8tJ7.s:26502  .debug_str:0000000000011b19 .LASF1282
C:\Users\SOLDER~1\AppData\Local\Temp\ccKV8tJ7.s:32666  .debug_str:000000000002ab2e .LASF1283
C:\Users\SOLDER~1\AppData\Local\Temp\ccKV8tJ7.s:27760  .debug_str:0000000000016c7f .LASF1284
C:\Users\SOLDER~1\AppData\Local\Temp\ccKV8tJ7.s:25572  .debug_str:000000000000defa .LASF1285
C:\Users\SOLDER~1\AppData\Local\Temp\ccKV8tJ7.s:22176  .debug_str:0000000000000218 .LASF1286
C:\Users\SOLDER~1\AppData\Local\Temp\ccKV8tJ7.s:32064  .debug_str:00000000000283af .LASF1287
C:\Users\SOLDER~1\AppData\Local\Temp\ccKV8tJ7.s:27068  .debug_str:0000000000013ff0 .LASF1288
C:\Users\SOLDER~1\AppData\Local\Temp\ccKV8tJ7.s:33040  .debug_str:000000000002c339 .LASF1289
C:\Users\SOLDER~1\AppData\Local\Temp\ccKV8tJ7.s:25880  .debug_str:000000000000f301 .LASF1290
C:\Users\SOLDER~1\AppData\Local\Temp\ccKV8tJ7.s:24918  .debug_str:000000000000b3ea .LASF1291
C:\Users\SOLDER~1\AppData\Local\Temp\ccKV8tJ7.s:32660  .debug_str:000000000002aacb .LASF1292
C:\Users\SOLDER~1\AppData\Local\Temp\ccKV8tJ7.s:30552  .debug_str:0000000000022130 .LASF1293
C:\Users\SOLDER~1\AppData\Local\Temp\ccKV8tJ7.s:32088  .debug_str:0000000000028533 .LASF1294
C:\Users\SOLDER~1\AppData\Local\Temp\ccKV8tJ7.s:27386  .debug_str:00000000000154f6 .LASF1295
C:\Users\SOLDER~1\AppData\Local\Temp\ccKV8tJ7.s:25270  .debug_str:000000000000cb5d .LASF1296
C:\Users\SOLDER~1\AppData\Local\Temp\ccKV8tJ7.s:33534  .debug_str:000000000002e346 .LASF1297
C:\Users\SOLDER~1\AppData\Local\Temp\ccKV8tJ7.s:24108  .debug_str:0000000000007f22 .LASF1298
C:\Users\SOLDER~1\AppData\Local\Temp\ccKV8tJ7.s:25544  .debug_str:000000000000dd09 .LASF1299
C:\Users\SOLDER~1\AppData\Local\Temp\ccKV8tJ7.s:32918  .debug_str:000000000002bb55 .LASF1300
C:\Users\SOLDER~1\AppData\Local\Temp\ccKV8tJ7.s:27318  .debug_str:000000000001509c .LASF1301
C:\Users\SOLDER~1\AppData\Local\Temp\ccKV8tJ7.s:25380  .debug_str:000000000000d27b .LASF1302
C:\Users\SOLDER~1\AppData\Local\Temp\ccKV8tJ7.s:30864  .debug_str:00000000000234f9 .LASF1303
C:\Users\SOLDER~1\AppData\Local\Temp\ccKV8tJ7.s:28436  .debug_str:0000000000019916 .LASF1304
C:\Users\SOLDER~1\AppData\Local\Temp\ccKV8tJ7.s:29180  .debug_str:000000000001c7ec .LASF1305
C:\Users\SOLDER~1\AppData\Local\Temp\ccKV8tJ7.s:24588  .debug_str:0000000000009e36 .LASF1306
C:\Users\SOLDER~1\AppData\Local\Temp\ccKV8tJ7.s:33084  .debug_str:000000000002c661 .LASF1307
C:\Users\SOLDER~1\AppData\Local\Temp\ccKV8tJ7.s:32168  .debug_str:0000000000028a8d .LASF1308
C:\Users\SOLDER~1\AppData\Local\Temp\ccKV8tJ7.s:27054  .debug_str:0000000000013eed .LASF1309
C:\Users\SOLDER~1\AppData\Local\Temp\ccKV8tJ7.s:28720  .debug_str:000000000001aa7f .LASF1310
C:\Users\SOLDER~1\AppData\Local\Temp\ccKV8tJ7.s:26862  .debug_str:0000000000013187 .LASF1311
C:\Users\SOLDER~1\AppData\Local\Temp\ccKV8tJ7.s:32982  .debug_str:000000000002bf98 .LASF1312
C:\Users\SOLDER~1\AppData\Local\Temp\ccKV8tJ7.s:27496  .debug_str:0000000000015bfb .LASF1313
C:\Users\SOLDER~1\AppData\Local\Temp\ccKV8tJ7.s:27762  .debug_str:0000000000016ca3 .LASF1314
C:\Users\SOLDER~1\AppData\Local\Temp\ccKV8tJ7.s:33762  .debug_str:000000000002f1b5 .LASF1315
C:\Users\SOLDER~1\AppData\Local\Temp\ccKV8tJ7.s:22778  .debug_str:0000000000002a90 .LASF1316
C:\Users\SOLDER~1\AppData\Local\Temp\ccKV8tJ7.s:29922  .debug_str:000000000001f8db .LASF1317
C:\Users\SOLDER~1\AppData\Local\Temp\ccKV8tJ7.s:26472  .debug_str:0000000000011904 .LASF1318
C:\Users\SOLDER~1\AppData\Local\Temp\ccKV8tJ7.s:24678  .debug_str:000000000000a435 .LASF1319
C:\Users\SOLDER~1\AppData\Local\Temp\ccKV8tJ7.s:27436  .debug_str:0000000000015827 .LASF1320
C:\Users\SOLDER~1\AppData\Local\Temp\ccKV8tJ7.s:29242  .debug_str:000000000001cc19 .LASF1321
C:\Users\SOLDER~1\AppData\Local\Temp\ccKV8tJ7.s:33824  .debug_str:000000000002f573 .LASF1322
C:\Users\SOLDER~1\AppData\Local\Temp\ccKV8tJ7.s:32752  .debug_str:000000000002b09f .LASF1323
C:\Users\SOLDER~1\AppData\Local\Temp\ccKV8tJ7.s:28870  .debug_str:000000000001b3fb .LASF1324
C:\Users\SOLDER~1\AppData\Local\Temp\ccKV8tJ7.s:26774  .debug_str:0000000000012bc1 .LASF1325
C:\Users\SOLDER~1\AppData\Local\Temp\ccKV8tJ7.s:28332  .debug_str:0000000000019215 .LASF1326
C:\Users\SOLDER~1\AppData\Local\Temp\ccKV8tJ7.s:23578  .debug_str:0000000000005c46 .LASF1327
C:\Users\SOLDER~1\AppData\Local\Temp\ccKV8tJ7.s:33198  .debug_str:000000000002cdc0 .LASF1328
C:\Users\SOLDER~1\AppData\Local\Temp\ccKV8tJ7.s:24828  .debug_str:000000000000ae48 .LASF1329
C:\Users\SOLDER~1\AppData\Local\Temp\ccKV8tJ7.s:32026  .debug_str:00000000000280fe .LASF1330
C:\Users\SOLDER~1\AppData\Local\Temp\ccKV8tJ7.s:22334  .debug_str:0000000000000dc6 .LASF1331
C:\Users\SOLDER~1\AppData\Local\Temp\ccKV8tJ7.s:32844  .debug_str:000000000002b6b4 .LASF1332
GAS LISTING C:\Users\SOLDER~1\AppData\Local\Temp\ccKV8tJ7.s 			page 113


C:\Users\SOLDER~1\AppData\Local\Temp\ccKV8tJ7.s:31336  .debug_str:00000000000253d8 .LASF1333
C:\Users\SOLDER~1\AppData\Local\Temp\ccKV8tJ7.s:27348  .debug_str:0000000000015271 .LASF1334
C:\Users\SOLDER~1\AppData\Local\Temp\ccKV8tJ7.s:27104  .debug_str:000000000001423c .LASF1335
C:\Users\SOLDER~1\AppData\Local\Temp\ccKV8tJ7.s:24612  .debug_str:0000000000009fc9 .LASF1336
C:\Users\SOLDER~1\AppData\Local\Temp\ccKV8tJ7.s:25390  .debug_str:000000000000d330 .LASF1337
C:\Users\SOLDER~1\AppData\Local\Temp\ccKV8tJ7.s:32540  .debug_str:000000000002a2b3 .LASF1338
C:\Users\SOLDER~1\AppData\Local\Temp\ccKV8tJ7.s:29288  .debug_str:000000000001cf54 .LASF1339
C:\Users\SOLDER~1\AppData\Local\Temp\ccKV8tJ7.s:28398  .debug_str:000000000001965b .LASF1340
C:\Users\SOLDER~1\AppData\Local\Temp\ccKV8tJ7.s:23236  .debug_str:00000000000046fa .LASF1341
C:\Users\SOLDER~1\AppData\Local\Temp\ccKV8tJ7.s:24914  .debug_str:000000000000b3b2 .LASF1342
C:\Users\SOLDER~1\AppData\Local\Temp\ccKV8tJ7.s:31172  .debug_str:000000000002490d .LASF1343
C:\Users\SOLDER~1\AppData\Local\Temp\ccKV8tJ7.s:25508  .debug_str:000000000000dae4 .LASF1344
C:\Users\SOLDER~1\AppData\Local\Temp\ccKV8tJ7.s:31708  .debug_str:0000000000026c50 .LASF1345
C:\Users\SOLDER~1\AppData\Local\Temp\ccKV8tJ7.s:26424  .debug_str:00000000000115fa .LASF1346
C:\Users\SOLDER~1\AppData\Local\Temp\ccKV8tJ7.s:30368  .debug_str:0000000000021572 .LASF1347
C:\Users\SOLDER~1\AppData\Local\Temp\ccKV8tJ7.s:27120  .debug_str:0000000000014375 .LASF1348
C:\Users\SOLDER~1\AppData\Local\Temp\ccKV8tJ7.s:22556  .debug_str:0000000000001bc0 .LASF1349
C:\Users\SOLDER~1\AppData\Local\Temp\ccKV8tJ7.s:30786  .debug_str:0000000000023011 .LASF1350
C:\Users\SOLDER~1\AppData\Local\Temp\ccKV8tJ7.s:28954  .debug_str:000000000001b947 .LASF1351
C:\Users\SOLDER~1\AppData\Local\Temp\ccKV8tJ7.s:24756  .debug_str:000000000000a987 .LASF1352
C:\Users\SOLDER~1\AppData\Local\Temp\ccKV8tJ7.s:25448  .debug_str:000000000000d704 .LASF1353
C:\Users\SOLDER~1\AppData\Local\Temp\ccKV8tJ7.s:29926  .debug_str:000000000001f926 .LASF1354
C:\Users\SOLDER~1\AppData\Local\Temp\ccKV8tJ7.s:28976  .debug_str:000000000001ba97 .LASF1355
C:\Users\SOLDER~1\AppData\Local\Temp\ccKV8tJ7.s:25072  .debug_str:000000000000be03 .LASF1356
C:\Users\SOLDER~1\AppData\Local\Temp\ccKV8tJ7.s:22994  .debug_str:0000000000003830 .LASF1357
C:\Users\SOLDER~1\AppData\Local\Temp\ccKV8tJ7.s:24240  .debug_str:00000000000087a8 .LASF1358
C:\Users\SOLDER~1\AppData\Local\Temp\ccKV8tJ7.s:31398  .debug_str:00000000000257a0 .LASF1359
C:\Users\SOLDER~1\AppData\Local\Temp\ccKV8tJ7.s:29398  .debug_str:000000000001d6aa .LASF1360
C:\Users\SOLDER~1\AppData\Local\Temp\ccKV8tJ7.s:30968  .debug_str:0000000000023c05 .LASF1361
C:\Users\SOLDER~1\AppData\Local\Temp\ccKV8tJ7.s:28268  .debug_str:0000000000018dd2 .LASF1362
C:\Users\SOLDER~1\AppData\Local\Temp\ccKV8tJ7.s:30210  .debug_str:0000000000020b57 .LASF1363
C:\Users\SOLDER~1\AppData\Local\Temp\ccKV8tJ7.s:27268  .debug_str:0000000000014d71 .LASF1364
C:\Users\SOLDER~1\AppData\Local\Temp\ccKV8tJ7.s:27488  .debug_str:0000000000015b7d .LASF1365
C:\Users\SOLDER~1\AppData\Local\Temp\ccKV8tJ7.s:29504  .debug_str:000000000001dd26 .LASF1366
C:\Users\SOLDER~1\AppData\Local\Temp\ccKV8tJ7.s:27706  .debug_str:0000000000016912 .LASF1367
C:\Users\SOLDER~1\AppData\Local\Temp\ccKV8tJ7.s:32562  .debug_str:000000000002a44b .LASF1368
C:\Users\SOLDER~1\AppData\Local\Temp\ccKV8tJ7.s:33316  .debug_str:000000000002d531 .LASF1369
C:\Users\SOLDER~1\AppData\Local\Temp\ccKV8tJ7.s:28746  .debug_str:000000000001ac35 .LASF1370
C:\Users\SOLDER~1\AppData\Local\Temp\ccKV8tJ7.s:25498  .debug_str:000000000000da3f .LASF1371
C:\Users\SOLDER~1\AppData\Local\Temp\ccKV8tJ7.s:24566  .debug_str:0000000000009ca3 .LASF1372
C:\Users\SOLDER~1\AppData\Local\Temp\ccKV8tJ7.s:31146  .debug_str:000000000002477f .LASF1373
C:\Users\SOLDER~1\AppData\Local\Temp\ccKV8tJ7.s:32846  .debug_str:000000000002b6d9 .LASF1374
C:\Users\SOLDER~1\AppData\Local\Temp\ccKV8tJ7.s:23722  .debug_str:00000000000065dc .LASF1375
C:\Users\SOLDER~1\AppData\Local\Temp\ccKV8tJ7.s:26824  .debug_str:0000000000012f0e .LASF1376
C:\Users\SOLDER~1\AppData\Local\Temp\ccKV8tJ7.s:24340  .debug_str:0000000000008e29 .LASF1377
C:\Users\SOLDER~1\AppData\Local\Temp\ccKV8tJ7.s:29388  .debug_str:000000000001d606 .LASF1378
C:\Users\SOLDER~1\AppData\Local\Temp\ccKV8tJ7.s:30692  .debug_str:00000000000229bb .LASF1379
C:\Users\SOLDER~1\AppData\Local\Temp\ccKV8tJ7.s:31424  .debug_str:000000000002594b .LASF1380
C:\Users\SOLDER~1\AppData\Local\Temp\ccKV8tJ7.s:26778  .debug_str:0000000000012bfd .LASF1381
C:\Users\SOLDER~1\AppData\Local\Temp\ccKV8tJ7.s:23336  .debug_str:0000000000004d33 .LASF1382
C:\Users\SOLDER~1\AppData\Local\Temp\ccKV8tJ7.s:33288  .debug_str:000000000002d359 .LASF1383
C:\Users\SOLDER~1\AppData\Local\Temp\ccKV8tJ7.s:24290  .debug_str:0000000000008ab8 .LASF1384
C:\Users\SOLDER~1\AppData\Local\Temp\ccKV8tJ7.s:33380  .debug_str:000000000002d995 .LASF1385
C:\Users\SOLDER~1\AppData\Local\Temp\ccKV8tJ7.s:26148  .debug_str:0000000000010485 .LASF1386
C:\Users\SOLDER~1\AppData\Local\Temp\ccKV8tJ7.s:32758  .debug_str:000000000002b0fb .LASF1387
C:\Users\SOLDER~1\AppData\Local\Temp\ccKV8tJ7.s:32996  .debug_str:000000000002c065 .LASF1388
C:\Users\SOLDER~1\AppData\Local\Temp\ccKV8tJ7.s:30890  .debug_str:00000000000236bd .LASF1389
GAS LISTING C:\Users\SOLDER~1\AppData\Local\Temp\ccKV8tJ7.s 			page 114


C:\Users\SOLDER~1\AppData\Local\Temp\ccKV8tJ7.s:32440  .debug_str:0000000000029c5a .LASF1390
C:\Users\SOLDER~1\AppData\Local\Temp\ccKV8tJ7.s:27644  .debug_str:0000000000016559 .LASF1391
C:\Users\SOLDER~1\AppData\Local\Temp\ccKV8tJ7.s:27972  .debug_str:0000000000017a56 .LASF1392
C:\Users\SOLDER~1\AppData\Local\Temp\ccKV8tJ7.s:27220  .debug_str:0000000000014a3e .LASF1393
C:\Users\SOLDER~1\AppData\Local\Temp\ccKV8tJ7.s:26248  .debug_str:0000000000010b05 .LASF1394
C:\Users\SOLDER~1\AppData\Local\Temp\ccKV8tJ7.s:26436  .debug_str:00000000000116e1 .LASF1395
C:\Users\SOLDER~1\AppData\Local\Temp\ccKV8tJ7.s:31438  .debug_str:0000000000025a0e .LASF1396
C:\Users\SOLDER~1\AppData\Local\Temp\ccKV8tJ7.s:23670  .debug_str:0000000000006271 .LASF1397
C:\Users\SOLDER~1\AppData\Local\Temp\ccKV8tJ7.s:25714  .debug_str:000000000000e890 .LASF1398
C:\Users\SOLDER~1\AppData\Local\Temp\ccKV8tJ7.s:31196  .debug_str:0000000000024a98 .LASF1399
C:\Users\SOLDER~1\AppData\Local\Temp\ccKV8tJ7.s:28764  .debug_str:000000000001ad4e .LASF1400
C:\Users\SOLDER~1\AppData\Local\Temp\ccKV8tJ7.s:29418  .debug_str:000000000001d80a .LASF1401
C:\Users\SOLDER~1\AppData\Local\Temp\ccKV8tJ7.s:24938  .debug_str:000000000000b570 .LASF1402
C:\Users\SOLDER~1\AppData\Local\Temp\ccKV8tJ7.s:31318  .debug_str:000000000002529b .LASF1403
C:\Users\SOLDER~1\AppData\Local\Temp\ccKV8tJ7.s:32516  .debug_str:000000000002a108 .LASF1404
C:\Users\SOLDER~1\AppData\Local\Temp\ccKV8tJ7.s:27382  .debug_str:00000000000154b2 .LASF1405
C:\Users\SOLDER~1\AppData\Local\Temp\ccKV8tJ7.s:29054  .debug_str:000000000001bf71 .LASF1406
C:\Users\SOLDER~1\AppData\Local\Temp\ccKV8tJ7.s:28110  .debug_str:00000000000183a2 .LASF1407
C:\Users\SOLDER~1\AppData\Local\Temp\ccKV8tJ7.s:29808  .debug_str:000000000001f130 .LASF1408
C:\Users\SOLDER~1\AppData\Local\Temp\ccKV8tJ7.s:28692  .debug_str:000000000001a895 .LASF1409
C:\Users\SOLDER~1\AppData\Local\Temp\ccKV8tJ7.s:23368  .debug_str:0000000000004f0e .LASF1410
C:\Users\SOLDER~1\AppData\Local\Temp\ccKV8tJ7.s:23238  .debug_str:000000000000471f .LASF1411
C:\Users\SOLDER~1\AppData\Local\Temp\ccKV8tJ7.s:23976  .debug_str:00000000000076a9 .LASF1412
C:\Users\SOLDER~1\AppData\Local\Temp\ccKV8tJ7.s:31098  .debug_str:000000000002444a .LASF1413
C:\Users\SOLDER~1\AppData\Local\Temp\ccKV8tJ7.s:27714  .debug_str:0000000000016981 .LASF1414
C:\Users\SOLDER~1\AppData\Local\Temp\ccKV8tJ7.s:25904  .debug_str:000000000000f48d .LASF1415
C:\Users\SOLDER~1\AppData\Local\Temp\ccKV8tJ7.s:28650  .debug_str:000000000001a5eb .LASF1416
C:\Users\SOLDER~1\AppData\Local\Temp\ccKV8tJ7.s:29480  .debug_str:000000000001dbe3 .LASF1417
C:\Users\SOLDER~1\AppData\Local\Temp\ccKV8tJ7.s:22372  .debug_str:0000000000001005 .LASF1418
C:\Users\SOLDER~1\AppData\Local\Temp\ccKV8tJ7.s:33088  .debug_str:000000000002c6a8 .LASF1419
C:\Users\SOLDER~1\AppData\Local\Temp\ccKV8tJ7.s:29198  .debug_str:000000000001c902 .LASF1420
C:\Users\SOLDER~1\AppData\Local\Temp\ccKV8tJ7.s:22322  .debug_str:0000000000000cde .LASF1421
C:\Users\SOLDER~1\AppData\Local\Temp\ccKV8tJ7.s:28654  .debug_str:000000000001a638 .LASF1422
C:\Users\SOLDER~1\AppData\Local\Temp\ccKV8tJ7.s:23820  .debug_str:0000000000006c5f .LASF1423
C:\Users\SOLDER~1\AppData\Local\Temp\ccKV8tJ7.s:33552  .debug_str:000000000002e463 .LASF1424
C:\Users\SOLDER~1\AppData\Local\Temp\ccKV8tJ7.s:23398  .debug_str:00000000000050da .LASF1425
C:\Users\SOLDER~1\AppData\Local\Temp\ccKV8tJ7.s:32370  .debug_str:000000000002979f .LASF1426
C:\Users\SOLDER~1\AppData\Local\Temp\ccKV8tJ7.s:22640  .debug_str:0000000000002152 .LASF1427
C:\Users\SOLDER~1\AppData\Local\Temp\ccKV8tJ7.s:27592  .debug_str:000000000001622c .LASF1428
C:\Users\SOLDER~1\AppData\Local\Temp\ccKV8tJ7.s:31576  .debug_str:0000000000026361 .LASF1429
C:\Users\SOLDER~1\AppData\Local\Temp\ccKV8tJ7.s:33660  .debug_str:000000000002eb2f .LASF1430
C:\Users\SOLDER~1\AppData\Local\Temp\ccKV8tJ7.s:22928  .debug_str:000000000000340a .LASF1431
C:\Users\SOLDER~1\AppData\Local\Temp\ccKV8tJ7.s:24958  .debug_str:000000000000b691 .LASF1432
C:\Users\SOLDER~1\AppData\Local\Temp\ccKV8tJ7.s:25636  .debug_str:000000000000e384 .LASF1433
C:\Users\SOLDER~1\AppData\Local\Temp\ccKV8tJ7.s:32864  .debug_str:000000000002b81e .LASF1434
C:\Users\SOLDER~1\AppData\Local\Temp\ccKV8tJ7.s:29628  .debug_str:000000000001e55e .LASF1435
C:\Users\SOLDER~1\AppData\Local\Temp\ccKV8tJ7.s:24232  .debug_str:000000000000871d .LASF1436
C:\Users\SOLDER~1\AppData\Local\Temp\ccKV8tJ7.s:23302  .debug_str:0000000000004b17 .LASF1437
C:\Users\SOLDER~1\AppData\Local\Temp\ccKV8tJ7.s:25248  .debug_str:000000000000c9b5 .LASF1438
C:\Users\SOLDER~1\AppData\Local\Temp\ccKV8tJ7.s:32414  .debug_str:0000000000029a96 .LASF1439
C:\Users\SOLDER~1\AppData\Local\Temp\ccKV8tJ7.s:26806  .debug_str:0000000000012ddd .LASF1440
C:\Users\SOLDER~1\AppData\Local\Temp\ccKV8tJ7.s:33024  .debug_str:000000000002c241 .LASF1441
C:\Users\SOLDER~1\AppData\Local\Temp\ccKV8tJ7.s:27646  .debug_str:000000000001657e .LASF1442
C:\Users\SOLDER~1\AppData\Local\Temp\ccKV8tJ7.s:27602  .debug_str:00000000000162c1 .LASF1443
C:\Users\SOLDER~1\AppData\Local\Temp\ccKV8tJ7.s:30180  .debug_str:0000000000020949 .LASF1444
C:\Users\SOLDER~1\AppData\Local\Temp\ccKV8tJ7.s:23740  .debug_str:0000000000006732 .LASF1445
C:\Users\SOLDER~1\AppData\Local\Temp\ccKV8tJ7.s:25708  .debug_str:000000000000e82a .LASF1446
GAS LISTING C:\Users\SOLDER~1\AppData\Local\Temp\ccKV8tJ7.s 			page 115


C:\Users\SOLDER~1\AppData\Local\Temp\ccKV8tJ7.s:30234  .debug_str:0000000000020ceb .LASF1447
C:\Users\SOLDER~1\AppData\Local\Temp\ccKV8tJ7.s:32976  .debug_str:000000000002bf2e .LASF1448
C:\Users\SOLDER~1\AppData\Local\Temp\ccKV8tJ7.s:24244  .debug_str:00000000000087e6 .LASF1449
C:\Users\SOLDER~1\AppData\Local\Temp\ccKV8tJ7.s:30244  .debug_str:0000000000020d8d .LASF1450
C:\Users\SOLDER~1\AppData\Local\Temp\ccKV8tJ7.s:27118  .debug_str:0000000000014350 .LASF1451
C:\Users\SOLDER~1\AppData\Local\Temp\ccKV8tJ7.s:25404  .debug_str:000000000000d419 .LASF1452
C:\Users\SOLDER~1\AppData\Local\Temp\ccKV8tJ7.s:23318  .debug_str:0000000000004c25 .LASF1453
C:\Users\SOLDER~1\AppData\Local\Temp\ccKV8tJ7.s:24836  .debug_str:000000000000aec2 .LASF1454
C:\Users\SOLDER~1\AppData\Local\Temp\ccKV8tJ7.s:31738  .debug_str:0000000000026e60 .LASF1455
C:\Users\SOLDER~1\AppData\Local\Temp\ccKV8tJ7.s:22304  .debug_str:0000000000000b85 .LASF1456
C:\Users\SOLDER~1\AppData\Local\Temp\ccKV8tJ7.s:31308  .debug_str:00000000000251f9 .LASF1457
C:\Users\SOLDER~1\AppData\Local\Temp\ccKV8tJ7.s:28500  .debug_str:0000000000019cc9 .LASF1458
C:\Users\SOLDER~1\AppData\Local\Temp\ccKV8tJ7.s:30536  .debug_str:000000000002204e .LASF1459
C:\Users\SOLDER~1\AppData\Local\Temp\ccKV8tJ7.s:23702  .debug_str:000000000000647f .LASF1460
C:\Users\SOLDER~1\AppData\Local\Temp\ccKV8tJ7.s:27842  .debug_str:000000000001718b .LASF1461
C:\Users\SOLDER~1\AppData\Local\Temp\ccKV8tJ7.s:27772  .debug_str:0000000000016d54 .LASF1462
C:\Users\SOLDER~1\AppData\Local\Temp\ccKV8tJ7.s:23630  .debug_str:0000000000005fa1 .LASF1463
C:\Users\SOLDER~1\AppData\Local\Temp\ccKV8tJ7.s:32888  .debug_str:000000000002b971 .LASF1464
C:\Users\SOLDER~1\AppData\Local\Temp\ccKV8tJ7.s:33580  .debug_str:000000000002e635 .LASF1465
C:\Users\SOLDER~1\AppData\Local\Temp\ccKV8tJ7.s:29074  .debug_str:000000000001c0e0 .LASF1466
C:\Users\SOLDER~1\AppData\Local\Temp\ccKV8tJ7.s:23780  .debug_str:00000000000069ee .LASF1467
C:\Users\SOLDER~1\AppData\Local\Temp\ccKV8tJ7.s:24820  .debug_str:000000000000ad9a .LASF1468
C:\Users\SOLDER~1\AppData\Local\Temp\ccKV8tJ7.s:29460  .debug_str:000000000001da9b .LASF1469
C:\Users\SOLDER~1\AppData\Local\Temp\ccKV8tJ7.s:28052  .debug_str:0000000000017f8a .LASF1470
C:\Users\SOLDER~1\AppData\Local\Temp\ccKV8tJ7.s:25030  .debug_str:000000000000bb33 .LASF1471
C:\Users\SOLDER~1\AppData\Local\Temp\ccKV8tJ7.s:31026  .debug_str:0000000000023f88 .LASF1472
C:\Users\SOLDER~1\AppData\Local\Temp\ccKV8tJ7.s:25546  .debug_str:000000000000dd2e .LASF1473
C:\Users\SOLDER~1\AppData\Local\Temp\ccKV8tJ7.s:31954  .debug_str:0000000000027c79 .LASF1474
C:\Users\SOLDER~1\AppData\Local\Temp\ccKV8tJ7.s:26720  .debug_str:000000000001285b .LASF1475
C:\Users\SOLDER~1\AppData\Local\Temp\ccKV8tJ7.s:32648  .debug_str:000000000002aa0a .LASF1476
C:\Users\SOLDER~1\AppData\Local\Temp\ccKV8tJ7.s:28120  .debug_str:000000000001844a .LASF1477
C:\Users\SOLDER~1\AppData\Local\Temp\ccKV8tJ7.s:24620  .debug_str:000000000000a054 .LASF1478
C:\Users\SOLDER~1\AppData\Local\Temp\ccKV8tJ7.s:22788  .debug_str:0000000000002b26 .LASF1479
C:\Users\SOLDER~1\AppData\Local\Temp\ccKV8tJ7.s:25500  .debug_str:000000000000da64 .LASF1480
C:\Users\SOLDER~1\AppData\Local\Temp\ccKV8tJ7.s:33636  .debug_str:000000000002e9af .LASF1481
C:\Users\SOLDER~1\AppData\Local\Temp\ccKV8tJ7.s:26464  .debug_str:0000000000011889 .LASF1482
C:\Users\SOLDER~1\AppData\Local\Temp\ccKV8tJ7.s:25504  .debug_str:000000000000daab .LASF1483
C:\Users\SOLDER~1\AppData\Local\Temp\ccKV8tJ7.s:33326  .debug_str:000000000002d5ed .LASF1484
C:\Users\SOLDER~1\AppData\Local\Temp\ccKV8tJ7.s:31226  .debug_str:0000000000024ca3 .LASF1485
C:\Users\SOLDER~1\AppData\Local\Temp\ccKV8tJ7.s:32684  .debug_str:000000000002ac6b .LASF1486
C:\Users\SOLDER~1\AppData\Local\Temp\ccKV8tJ7.s:28004  .debug_str:0000000000017c77 .LASF1487
C:\Users\SOLDER~1\AppData\Local\Temp\ccKV8tJ7.s:25290  .debug_str:000000000000ccac .LASF1488
C:\Users\SOLDER~1\AppData\Local\Temp\ccKV8tJ7.s:27558  .debug_str:0000000000015fc4 .LASF1489
C:\Users\SOLDER~1\AppData\Local\Temp\ccKV8tJ7.s:24666  .debug_str:000000000000a36d .LASF1490
C:\Users\SOLDER~1\AppData\Local\Temp\ccKV8tJ7.s:23644  .debug_str:00000000000060cc .LASF1491
C:\Users\SOLDER~1\AppData\Local\Temp\ccKV8tJ7.s:31680  .debug_str:0000000000026aa0 .LASF1492
C:\Users\SOLDER~1\AppData\Local\Temp\ccKV8tJ7.s:31046  .debug_str:00000000000240dc .LASF1493
C:\Users\SOLDER~1\AppData\Local\Temp\ccKV8tJ7.s:26064  .debug_str:000000000000ff77 .LASF1494
C:\Users\SOLDER~1\AppData\Local\Temp\ccKV8tJ7.s:31532  .debug_str:0000000000026074 .LASF1495
C:\Users\SOLDER~1\AppData\Local\Temp\ccKV8tJ7.s:29094  .debug_str:000000000001c24e .LASF1496
C:\Users\SOLDER~1\AppData\Local\Temp\ccKV8tJ7.s:29770  .debug_str:000000000001eebd .LASF1497
C:\Users\SOLDER~1\AppData\Local\Temp\ccKV8tJ7.s:25272  .debug_str:000000000000cb82 .LASF1498
C:\Users\SOLDER~1\AppData\Local\Temp\ccKV8tJ7.s:33684  .debug_str:000000000002ecae .LASF1499
C:\Users\SOLDER~1\AppData\Local\Temp\ccKV8tJ7.s:32744  .debug_str:000000000002b004 .LASF1500
C:\Users\SOLDER~1\AppData\Local\Temp\ccKV8tJ7.s:27740  .debug_str:0000000000016b2f .LASF1501
C:\Users\SOLDER~1\AppData\Local\Temp\ccKV8tJ7.s:22780  .debug_str:0000000000002ab4 .LASF1502
C:\Users\SOLDER~1\AppData\Local\Temp\ccKV8tJ7.s:29274  .debug_str:000000000001ce4e .LASF1503
GAS LISTING C:\Users\SOLDER~1\AppData\Local\Temp\ccKV8tJ7.s 			page 116


C:\Users\SOLDER~1\AppData\Local\Temp\ccKV8tJ7.s:23668  .debug_str:000000000000624d .LASF1504
C:\Users\SOLDER~1\AppData\Local\Temp\ccKV8tJ7.s:29902  .debug_str:000000000001f77a .LASF1505
C:\Users\SOLDER~1\AppData\Local\Temp\ccKV8tJ7.s:24570  .debug_str:0000000000009d0b .LASF1506
C:\Users\SOLDER~1\AppData\Local\Temp\ccKV8tJ7.s:24534  .debug_str:0000000000009acc .LASF1507
C:\Users\SOLDER~1\AppData\Local\Temp\ccKV8tJ7.s:25264  .debug_str:000000000000caf6 .LASF1508
C:\Users\SOLDER~1\AppData\Local\Temp\ccKV8tJ7.s:32324  .debug_str:00000000000294a2 .LASF1509
C:\Users\SOLDER~1\AppData\Local\Temp\ccKV8tJ7.s:29678  .debug_str:000000000001e866 .LASF1510
C:\Users\SOLDER~1\AppData\Local\Temp\ccKV8tJ7.s:27126  .debug_str:00000000000143ed .LASF1511
C:\Users\SOLDER~1\AppData\Local\Temp\ccKV8tJ7.s:29846  .debug_str:000000000001f3a9 .LASF1512
C:\Users\SOLDER~1\AppData\Local\Temp\ccKV8tJ7.s:29832  .debug_str:000000000001f2be .LASF1513
C:\Users\SOLDER~1\AppData\Local\Temp\ccKV8tJ7.s:22646  .debug_str:00000000000021c7 .LASF1514
C:\Users\SOLDER~1\AppData\Local\Temp\ccKV8tJ7.s:33434  .debug_str:000000000002dce1 .LASF1515
C:\Users\SOLDER~1\AppData\Local\Temp\ccKV8tJ7.s:29530  .debug_str:000000000001dedb .LASF1516
C:\Users\SOLDER~1\AppData\Local\Temp\ccKV8tJ7.s:30440  .debug_str:0000000000021a1f .LASF1517
C:\Users\SOLDER~1\AppData\Local\Temp\ccKV8tJ7.s:28888  .debug_str:000000000001b501 .LASF1518
C:\Users\SOLDER~1\AppData\Local\Temp\ccKV8tJ7.s:24156  .debug_str:0000000000008250 .LASF1519
C:\Users\SOLDER~1\AppData\Local\Temp\ccKV8tJ7.s:33794  .debug_str:000000000002f39b .LASF1520
C:\Users\SOLDER~1\AppData\Local\Temp\ccKV8tJ7.s:31274  .debug_str:0000000000024f9e .LASF1521
C:\Users\SOLDER~1\AppData\Local\Temp\ccKV8tJ7.s:32612  .debug_str:000000000002a79f .LASF1522
C:\Users\SOLDER~1\AppData\Local\Temp\ccKV8tJ7.s:22892  .debug_str:00000000000031be .LASF1523
C:\Users\SOLDER~1\AppData\Local\Temp\ccKV8tJ7.s:27950  .debug_str:00000000000178f5 .LASF1524
C:\Users\SOLDER~1\AppData\Local\Temp\ccKV8tJ7.s:31936  .debug_str:0000000000027b58 .LASF1525
C:\Users\SOLDER~1\AppData\Local\Temp\ccKV8tJ7.s:22214  .debug_str:00000000000004b1 .LASF1526
C:\Users\SOLDER~1\AppData\Local\Temp\ccKV8tJ7.s:27796  .debug_str:0000000000016e9a .LASF1527
C:\Users\SOLDER~1\AppData\Local\Temp\ccKV8tJ7.s:25204  .debug_str:000000000000c6dc .LASF1528
C:\Users\SOLDER~1\AppData\Local\Temp\ccKV8tJ7.s:25982  .debug_str:000000000000f99a .LASF1529
C:\Users\SOLDER~1\AppData\Local\Temp\ccKV8tJ7.s:24128  .debug_str:000000000000808f .LASF1530
C:\Users\SOLDER~1\AppData\Local\Temp\ccKV8tJ7.s:30806  .debug_str:0000000000023161 .LASF1531
C:\Users\SOLDER~1\AppData\Local\Temp\ccKV8tJ7.s:28964  .debug_str:000000000001b9db .LASF1532
C:\Users\SOLDER~1\AppData\Local\Temp\ccKV8tJ7.s:23698  .debug_str:0000000000006437 .LASF1533
C:\Users\SOLDER~1\AppData\Local\Temp\ccKV8tJ7.s:25588  .debug_str:000000000000dfff .LASF1534
C:\Users\SOLDER~1\AppData\Local\Temp\ccKV8tJ7.s:33628  .debug_str:000000000002e922 .LASF1535
C:\Users\SOLDER~1\AppData\Local\Temp\ccKV8tJ7.s:28064  .debug_str:0000000000018053 .LASF1536
C:\Users\SOLDER~1\AppData\Local\Temp\ccKV8tJ7.s:22534  .debug_str:0000000000001a54 .LASF1537
C:\Users\SOLDER~1\AppData\Local\Temp\ccKV8tJ7.s:28930  .debug_str:000000000001b7c4 .LASF1538
C:\Users\SOLDER~1\AppData\Local\Temp\ccKV8tJ7.s:28794  .debug_str:000000000001af58 .LASF1539
C:\Users\SOLDER~1\AppData\Local\Temp\ccKV8tJ7.s:29510  .debug_str:000000000001dd96 .LASF1540
C:\Users\SOLDER~1\AppData\Local\Temp\ccKV8tJ7.s:24948  .debug_str:000000000000b614 .LASF1541
C:\Users\SOLDER~1\AppData\Local\Temp\ccKV8tJ7.s:33228  .debug_str:000000000002cf96 .LASF1542
C:\Users\SOLDER~1\AppData\Local\Temp\ccKV8tJ7.s:31282  .debug_str:000000000002503e .LASF1543
C:\Users\SOLDER~1\AppData\Local\Temp\ccKV8tJ7.s:22486  .debug_str:0000000000001769 .LASF1544
C:\Users\SOLDER~1\AppData\Local\Temp\ccKV8tJ7.s:26042  .debug_str:000000000000fdf9 .LASF1545
C:\Users\SOLDER~1\AppData\Local\Temp\ccKV8tJ7.s:30570  .debug_str:000000000002226a .LASF1546
C:\Users\SOLDER~1\AppData\Local\Temp\ccKV8tJ7.s:29632  .debug_str:000000000001e5a9 .LASF1547
C:\Users\SOLDER~1\AppData\Local\Temp\ccKV8tJ7.s:25738  .debug_str:000000000000ea49 .LASF1548
C:\Users\SOLDER~1\AppData\Local\Temp\ccKV8tJ7.s:33494  .debug_str:000000000002e0cf .LASF1549
C:\Users\SOLDER~1\AppData\Local\Temp\ccKV8tJ7.s:24060  .debug_str:0000000000007bd3 .LASF1550
C:\Users\SOLDER~1\AppData\Local\Temp\ccKV8tJ7.s:32078  .debug_str:0000000000028488 .LASF1551
C:\Users\SOLDER~1\AppData\Local\Temp\ccKV8tJ7.s:29992  .debug_str:000000000001fd65 .LASF1552
C:\Users\SOLDER~1\AppData\Local\Temp\ccKV8tJ7.s:31644  .debug_str:0000000000026823 .LASF1553
C:\Users\SOLDER~1\AppData\Local\Temp\ccKV8tJ7.s:28824  .debug_str:000000000001b14c .LASF1554
C:\Users\SOLDER~1\AppData\Local\Temp\ccKV8tJ7.s:30776  .debug_str:0000000000022f49 .LASF1555
C:\Users\SOLDER~1\AppData\Local\Temp\ccKV8tJ7.s:24112  .debug_str:0000000000007f6d .LASF1556
C:\Users\SOLDER~1\AppData\Local\Temp\ccKV8tJ7.s:28182  .debug_str:0000000000018811 .LASF1557
C:\Users\SOLDER~1\AppData\Local\Temp\ccKV8tJ7.s:30096  .debug_str:00000000000203f8 .LASF1558
C:\Users\SOLDER~1\AppData\Local\Temp\ccKV8tJ7.s:23972  .debug_str:000000000000766d .LASF1559
C:\Users\SOLDER~1\AppData\Local\Temp\ccKV8tJ7.s:33136  .debug_str:000000000002c9c8 .LASF1560
GAS LISTING C:\Users\SOLDER~1\AppData\Local\Temp\ccKV8tJ7.s 			page 117


C:\Users\SOLDER~1\AppData\Local\Temp\ccKV8tJ7.s:22222  .debug_str:0000000000000531 .LASF1561
C:\Users\SOLDER~1\AppData\Local\Temp\ccKV8tJ7.s:29310  .debug_str:000000000001d0b6 .LASF1562
C:\Users\SOLDER~1\AppData\Local\Temp\ccKV8tJ7.s:26096  .debug_str:0000000000010182 .LASF1563
C:\Users\SOLDER~1\AppData\Local\Temp\ccKV8tJ7.s:25154  .debug_str:000000000000c34d .LASF1564
C:\Users\SOLDER~1\AppData\Local\Temp\ccKV8tJ7.s:31828  .debug_str:0000000000027450 .LASF1565
C:\Users\SOLDER~1\AppData\Local\Temp\ccKV8tJ7.s:27958  .debug_str:0000000000017973 .LASF1566
C:\Users\SOLDER~1\AppData\Local\Temp\ccKV8tJ7.s:26258  .debug_str:0000000000010bbd .LASF1567
C:\Users\SOLDER~1\AppData\Local\Temp\ccKV8tJ7.s:32354  .debug_str:0000000000029682 .LASF1568
C:\Users\SOLDER~1\AppData\Local\Temp\ccKV8tJ7.s:26752  .debug_str:0000000000012a35 .LASF1569
C:\Users\SOLDER~1\AppData\Local\Temp\ccKV8tJ7.s:33166  .debug_str:000000000002cbb2 .LASF1570
C:\Users\SOLDER~1\AppData\Local\Temp\ccKV8tJ7.s:33134  .debug_str:000000000002c9a4 .LASF1571
C:\Users\SOLDER~1\AppData\Local\Temp\ccKV8tJ7.s:22184  .debug_str:00000000000002a4 .LASF1572
C:\Users\SOLDER~1\AppData\Local\Temp\ccKV8tJ7.s:29286  .debug_str:000000000001cf30 .LASF1573
C:\Users\SOLDER~1\AppData\Local\Temp\ccKV8tJ7.s:25846  .debug_str:000000000000f0fb .LASF1574
C:\Users\SOLDER~1\AppData\Local\Temp\ccKV8tJ7.s:24072  .debug_str:0000000000007cc9 .LASF1575
C:\Users\SOLDER~1\AppData\Local\Temp\ccKV8tJ7.s:26702  .debug_str:0000000000012741 .LASF1576
C:\Users\SOLDER~1\AppData\Local\Temp\ccKV8tJ7.s:22276  .debug_str:000000000000098f .LASF1577
C:\Users\SOLDER~1\AppData\Local\Temp\ccKV8tJ7.s:26796  .debug_str:0000000000012d45 .LASF1578
C:\Users\SOLDER~1\AppData\Local\Temp\ccKV8tJ7.s:25836  .debug_str:000000000000f04e .LASF1579
C:\Users\SOLDER~1\AppData\Local\Temp\ccKV8tJ7.s:33590  .debug_str:000000000002e6c8 .LASF1580
C:\Users\SOLDER~1\AppData\Local\Temp\ccKV8tJ7.s:31480  .debug_str:0000000000025cce .LASF1581
C:\Users\SOLDER~1\AppData\Local\Temp\ccKV8tJ7.s:33016  .debug_str:000000000002c1ae .LASF1582
C:\Users\SOLDER~1\AppData\Local\Temp\ccKV8tJ7.s:28322  .debug_str:0000000000019184 .LASF1583
C:\Users\SOLDER~1\AppData\Local\Temp\ccKV8tJ7.s:26214  .debug_str:00000000000108be .LASF1584
C:\Users\SOLDER~1\AppData\Local\Temp\ccKV8tJ7.s:27812  .debug_str:0000000000016f80 .LASF1585
C:\Users\SOLDER~1\AppData\Local\Temp\ccKV8tJ7.s:25028  .debug_str:000000000000bb0e .LASF1586
C:\Users\SOLDER~1\AppData\Local\Temp\ccKV8tJ7.s:27030  .debug_str:0000000000013d5e .LASF1587
C:\Users\SOLDER~1\AppData\Local\Temp\ccKV8tJ7.s:32030  .debug_str:000000000002813f .LASF1588
C:\Users\SOLDER~1\AppData\Local\Temp\ccKV8tJ7.s:24344  .debug_str:0000000000008e73 .LASF1589
C:\Users\SOLDER~1\AppData\Local\Temp\ccKV8tJ7.s:26322  .debug_str:0000000000010f72 .LASF1590
C:\Users\SOLDER~1\AppData\Local\Temp\ccKV8tJ7.s:31790  .debug_str:00000000000271f7 .LASF1591
C:\Users\SOLDER~1\AppData\Local\Temp\ccKV8tJ7.s:29334  .debug_str:000000000001d25c .LASF1592
C:\Users\SOLDER~1\AppData\Local\Temp\ccKV8tJ7.s:32044  .debug_str:0000000000028240 .LASF1593
C:\Users\SOLDER~1\AppData\Local\Temp\ccKV8tJ7.s:25524  .debug_str:000000000000dbcb .LASF1594
C:\Users\SOLDER~1\AppData\Local\Temp\ccKV8tJ7.s:22324  .debug_str:0000000000000d03 .LASF1595
C:\Users\SOLDER~1\AppData\Local\Temp\ccKV8tJ7.s:33082  .debug_str:000000000002c63c .LASF1596
C:\Users\SOLDER~1\AppData\Local\Temp\ccKV8tJ7.s:28000  .debug_str:0000000000017c2e .LASF1597
C:\Users\SOLDER~1\AppData\Local\Temp\ccKV8tJ7.s:30922  .debug_str:00000000000238da .LASF1598
C:\Users\SOLDER~1\AppData\Local\Temp\ccKV8tJ7.s:33212  .debug_str:000000000002ce86 .LASF1599
C:\Users\SOLDER~1\AppData\Local\Temp\ccKV8tJ7.s:27634  .debug_str:00000000000164bf .LASF1600
C:\Users\SOLDER~1\AppData\Local\Temp\ccKV8tJ7.s:22154  .debug_str:00000000000000e7 .LASF1601
C:\Users\SOLDER~1\AppData\Local\Temp\ccKV8tJ7.s:28442  .debug_str:0000000000019988 .LASF1602
C:\Users\SOLDER~1\AppData\Local\Temp\ccKV8tJ7.s:28410  .debug_str:0000000000019741 .LASF1603
C:\Users\SOLDER~1\AppData\Local\Temp\ccKV8tJ7.s:29116  .debug_str:000000000001c38f .LASF1604
C:\Users\SOLDER~1\AppData\Local\Temp\ccKV8tJ7.s:24542  .debug_str:0000000000009b33 .LASF1605
C:\Users\SOLDER~1\AppData\Local\Temp\ccKV8tJ7.s:32826  .debug_str:000000000002b547 .LASF1606
C:\Users\SOLDER~1\AppData\Local\Temp\ccKV8tJ7.s:31022  .debug_str:0000000000023f4b .LASF1607
C:\Users\SOLDER~1\AppData\Local\Temp\ccKV8tJ7.s:33702  .debug_str:000000000002edd4 .LASF1608
C:\Users\SOLDER~1\AppData\Local\Temp\ccKV8tJ7.s:33454  .debug_str:000000000002de51 .LASF1609
C:\Users\SOLDER~1\AppData\Local\Temp\ccKV8tJ7.s:25622  .debug_str:000000000000e26d .LASF1610
C:\Users\SOLDER~1\AppData\Local\Temp\ccKV8tJ7.s:29966  .debug_str:000000000001fbdd .LASF1611
C:\Users\SOLDER~1\AppData\Local\Temp\ccKV8tJ7.s:32418  .debug_str:0000000000029adf .LASF1612
C:\Users\SOLDER~1\AppData\Local\Temp\ccKV8tJ7.s:30316  .debug_str:0000000000021214 .LASF1613
C:\Users\SOLDER~1\AppData\Local\Temp\ccKV8tJ7.s:31836  .debug_str:00000000000274d6 .LASF1614
C:\Users\SOLDER~1\AppData\Local\Temp\ccKV8tJ7.s:27138  .debug_str:00000000000144c1 .LASF1615
C:\Users\SOLDER~1\AppData\Local\Temp\ccKV8tJ7.s:24196  .debug_str:00000000000084e1 .LASF1616
C:\Users\SOLDER~1\AppData\Local\Temp\ccKV8tJ7.s:26610  .debug_str:0000000000012184 .LASF1617
GAS LISTING C:\Users\SOLDER~1\AppData\Local\Temp\ccKV8tJ7.s 			page 118


C:\Users\SOLDER~1\AppData\Local\Temp\ccKV8tJ7.s:23852  .debug_str:0000000000006ea9 .LASF1618
C:\Users\SOLDER~1\AppData\Local\Temp\ccKV8tJ7.s:25832  .debug_str:000000000000f003 .LASF1619
C:\Users\SOLDER~1\AppData\Local\Temp\ccKV8tJ7.s:30848  .debug_str:00000000000233f7 .LASF1620
C:\Users\SOLDER~1\AppData\Local\Temp\ccKV8tJ7.s:23172  .debug_str:0000000000004305 .LASF1621
C:\Users\SOLDER~1\AppData\Local\Temp\ccKV8tJ7.s:25120  .debug_str:000000000000c0ec .LASF1622
C:\Users\SOLDER~1\AppData\Local\Temp\ccKV8tJ7.s:30608  .debug_str:00000000000224ba .LASF1623
C:\Users\SOLDER~1\AppData\Local\Temp\ccKV8tJ7.s:28206  .debug_str:00000000000189c8 .LASF1624
C:\Users\SOLDER~1\AppData\Local\Temp\ccKV8tJ7.s:28946  .debug_str:000000000001b8be .LASF1625
C:\Users\SOLDER~1\AppData\Local\Temp\ccKV8tJ7.s:24350  .debug_str:0000000000008ed8 .LASF1626
C:\Users\SOLDER~1\AppData\Local\Temp\ccKV8tJ7.s:32836  .debug_str:000000000002b5f1 .LASF1627
C:\Users\SOLDER~1\AppData\Local\Temp\ccKV8tJ7.s:31910  .debug_str:00000000000279b8 .LASF1628
C:\Users\SOLDER~1\AppData\Local\Temp\ccKV8tJ7.s:31390  .debug_str:0000000000025702 .LASF1629
C:\Users\SOLDER~1\AppData\Local\Temp\ccKV8tJ7.s:28474  .debug_str:0000000000019b30 .LASF1630
C:\Users\SOLDER~1\AppData\Local\Temp\ccKV8tJ7.s:29686  .debug_str:000000000001e8e5 .LASF1631
C:\Users\SOLDER~1\AppData\Local\Temp\ccKV8tJ7.s:31854  .debug_str:00000000000275f7 .LASF1632
C:\Users\SOLDER~1\AppData\Local\Temp\ccKV8tJ7.s:26376  .debug_str:00000000000112da .LASF1633
C:\Users\SOLDER~1\AppData\Local\Temp\ccKV8tJ7.s:32762  .debug_str:000000000002b148 .LASF1634
C:\Users\SOLDER~1\AppData\Local\Temp\ccKV8tJ7.s:31108  .debug_str:00000000000244f8 .LASF1635
C:\Users\SOLDER~1\AppData\Local\Temp\ccKV8tJ7.s:33462  .debug_str:000000000002deda .LASF1636
C:\Users\SOLDER~1\AppData\Local\Temp\ccKV8tJ7.s:28894  .debug_str:000000000001b56a .LASF1637
C:\Users\SOLDER~1\AppData\Local\Temp\ccKV8tJ7.s:25440  .debug_str:000000000000d67e .LASF1638
C:\Users\SOLDER~1\AppData\Local\Temp\ccKV8tJ7.s:23574  .debug_str:0000000000005bf9 .LASF1639
C:\Users\SOLDER~1\AppData\Local\Temp\ccKV8tJ7.s:26328  .debug_str:0000000000010fd2 .LASF1640
C:\Users\SOLDER~1\AppData\Local\Temp\ccKV8tJ7.s:29008  .debug_str:000000000001bc7d .LASF1641
C:\Users\SOLDER~1\AppData\Local\Temp\ccKV8tJ7.s:33566  .debug_str:000000000002e55f .LASF1642
C:\Users\SOLDER~1\AppData\Local\Temp\ccKV8tJ7.s:32518  .debug_str:000000000002a12d .LASF1643
C:\Users\SOLDER~1\AppData\Local\Temp\ccKV8tJ7.s:28628  .debug_str:000000000001a495 .LASF1644
C:\Users\SOLDER~1\AppData\Local\Temp\ccKV8tJ7.s:26520  .debug_str:0000000000011c1e .LASF1645
C:\Users\SOLDER~1\AppData\Local\Temp\ccKV8tJ7.s:28098  .debug_str:00000000000182c3 .LASF1646
C:\Users\SOLDER~1\AppData\Local\Temp\ccKV8tJ7.s:23324  .debug_str:0000000000004c89 .LASF1647
C:\Users\SOLDER~1\AppData\Local\Temp\ccKV8tJ7.s:27244  .debug_str:0000000000014bd1 .LASF1648
C:\Users\SOLDER~1\AppData\Local\Temp\ccKV8tJ7.s:22824  .debug_str:0000000000002d57 .LASF1649
C:\Users\SOLDER~1\AppData\Local\Temp\ccKV8tJ7.s:31768  .debug_str:0000000000027081 .LASF1650
C:\Users\SOLDER~1\AppData\Local\Temp\ccKV8tJ7.s:33768  .debug_str:000000000002f215 .LASF1651
C:\Users\SOLDER~1\AppData\Local\Temp\ccKV8tJ7.s:22938  .debug_str:00000000000034c6 .LASF1652
C:\Users\SOLDER~1\AppData\Local\Temp\ccKV8tJ7.s:31078  .debug_str:00000000000242ef .LASF1653
C:\Users\SOLDER~1\AppData\Local\Temp\ccKV8tJ7.s:33052  .debug_str:000000000002c3fb .LASF1654
C:\Users\SOLDER~1\AppData\Local\Temp\ccKV8tJ7.s:26840  .debug_str:0000000000013009 .LASF1655
C:\Users\SOLDER~1\AppData\Local\Temp\ccKV8tJ7.s:24372  .debug_str:0000000000009048 .LASF1656
C:\Users\SOLDER~1\AppData\Local\Temp\ccKV8tJ7.s:27150  .debug_str:0000000000014581 .LASF1657
C:\Users\SOLDER~1\AppData\Local\Temp\ccKV8tJ7.s:32272  .debug_str:000000000002915e .LASF1658
C:\Users\SOLDER~1\AppData\Local\Temp\ccKV8tJ7.s:29048  .debug_str:000000000001bf15 .LASF1659
C:\Users\SOLDER~1\AppData\Local\Temp\ccKV8tJ7.s:28154  .debug_str:000000000001865d .LASF1660
C:\Users\SOLDER~1\AppData\Local\Temp\ccKV8tJ7.s:22998  .debug_str:0000000000003875 .LASF1661
C:\Users\SOLDER~1\AppData\Local\Temp\ccKV8tJ7.s:24644  .debug_str:000000000000a203 .LASF1662
C:\Users\SOLDER~1\AppData\Local\Temp\ccKV8tJ7.s:30078  .debug_str:00000000000202d3 .LASF1663
C:\Users\SOLDER~1\AppData\Local\Temp\ccKV8tJ7.s:24476  .debug_str:0000000000009723 .LASF1664
C:\Users\SOLDER~1\AppData\Local\Temp\ccKV8tJ7.s:30676  .debug_str:0000000000022891 .LASF1665
C:\Users\SOLDER~1\AppData\Local\Temp\ccKV8tJ7.s:25384  .debug_str:000000000000d2c5 .LASF1666
C:\Users\SOLDER~1\AppData\Local\Temp\ccKV8tJ7.s:25340  .debug_str:000000000000d008 .LASF1667
C:\Users\SOLDER~1\AppData\Local\Temp\ccKV8tJ7.s:26092  .debug_str:000000000001013a .LASF1668
C:\Users\SOLDER~1\AppData\Local\Temp\ccKV8tJ7.s:33140  .debug_str:000000000002ca16 .LASF1669
C:\Users\SOLDER~1\AppData\Local\Temp\ccKV8tJ7.s:29688  .debug_str:000000000001e90a .LASF1670
C:\Users\SOLDER~1\AppData\Local\Temp\ccKV8tJ7.s:27966  .debug_str:0000000000017a0e .LASF1671
C:\Users\SOLDER~1\AppData\Local\Temp\ccKV8tJ7.s:30622  .debug_str:000000000002258b .LASF1672
C:\Users\SOLDER~1\AppData\Local\Temp\ccKV8tJ7.s:25194  .debug_str:000000000000c617 .LASF1673
C:\Users\SOLDER~1\AppData\Local\Temp\ccKV8tJ7.s:32956  .debug_str:000000000002bddd .LASF1674
GAS LISTING C:\Users\SOLDER~1\AppData\Local\Temp\ccKV8tJ7.s 			page 119


C:\Users\SOLDER~1\AppData\Local\Temp\ccKV8tJ7.s:28716  .debug_str:000000000001aa3d .LASF1675
C:\Users\SOLDER~1\AppData\Local\Temp\ccKV8tJ7.s:24816  .debug_str:000000000000ad50 .LASF1676
C:\Users\SOLDER~1\AppData\Local\Temp\ccKV8tJ7.s:22746  .debug_str:0000000000002854 .LASF1677
C:\Users\SOLDER~1\AppData\Local\Temp\ccKV8tJ7.s:24260  .debug_str:00000000000088c0 .LASF1678
C:\Users\SOLDER~1\AppData\Local\Temp\ccKV8tJ7.s:31144  .debug_str:0000000000024759 .LASF1679
C:\Users\SOLDER~1\AppData\Local\Temp\ccKV8tJ7.s:29152  .debug_str:000000000001c632 .LASF1680
C:\Users\SOLDER~1\AppData\Local\Temp\ccKV8tJ7.s:33242  .debug_str:000000000002d06d .LASF1681
C:\Users\SOLDER~1\AppData\Local\Temp\ccKV8tJ7.s:28032  .debug_str:0000000000017e38 .LASF1682
C:\Users\SOLDER~1\AppData\Local\Temp\ccKV8tJ7.s:29976  .debug_str:000000000001fc61 .LASF1683
C:\Users\SOLDER~1\AppData\Local\Temp\ccKV8tJ7.s:23274  .debug_str:000000000000494b .LASF1684
C:\Users\SOLDER~1\AppData\Local\Temp\ccKV8tJ7.s:27236  .debug_str:0000000000014b4b .LASF1685
C:\Users\SOLDER~1\AppData\Local\Temp\ccKV8tJ7.s:29260  .debug_str:000000000001cd44 .LASF1686
C:\Users\SOLDER~1\AppData\Local\Temp\ccKV8tJ7.s:23056  .debug_str:0000000000003c15 .LASF1687
C:\Users\SOLDER~1\AppData\Local\Temp\ccKV8tJ7.s:32294  .debug_str:00000000000292a8 .LASF1688
C:\Users\SOLDER~1\AppData\Local\Temp\ccKV8tJ7.s:33066  .debug_str:000000000002c508 .LASF1689
C:\Users\SOLDER~1\AppData\Local\Temp\ccKV8tJ7.s:28502  .debug_str:0000000000019cee .LASF1690
C:\Users\SOLDER~1\AppData\Local\Temp\ccKV8tJ7.s:25240  .debug_str:000000000000c943 .LASF1691
C:\Users\SOLDER~1\AppData\Local\Temp\ccKV8tJ7.s:24320  .debug_str:0000000000008cb8 .LASF1692
C:\Users\SOLDER~1\AppData\Local\Temp\ccKV8tJ7.s:25744  .debug_str:000000000000eaae .LASF1693
C:\Users\SOLDER~1\AppData\Local\Temp\ccKV8tJ7.s:32596  .debug_str:000000000002a673 .LASF1694
C:\Users\SOLDER~1\AppData\Local\Temp\ccKV8tJ7.s:29104  .debug_str:000000000001c2c6 .LASF1695
C:\Users\SOLDER~1\AppData\Local\Temp\ccKV8tJ7.s:28826  .debug_str:000000000001b171 .LASF1696
C:\Users\SOLDER~1\AppData\Local\Temp\ccKV8tJ7.s:22932  .debug_str:0000000000003459 .LASF1697
C:\Users\SOLDER~1\AppData\Local\Temp\ccKV8tJ7.s:29722  .debug_str:000000000001eb83 .LASF1698
C:\Users\SOLDER~1\AppData\Local\Temp\ccKV8tJ7.s:29592  .debug_str:000000000001e329 .LASF1699
C:\Users\SOLDER~1\AppData\Local\Temp\ccKV8tJ7.s:30318  .debug_str:000000000002123a .LASF1700
C:\Users\SOLDER~1\AppData\Local\Temp\ccKV8tJ7.s:25754  .debug_str:000000000000eb57 .LASF1701
C:\Users\SOLDER~1\AppData\Local\Temp\ccKV8tJ7.s:27992  .debug_str:0000000000017b91 .LASF1702
C:\Users\SOLDER~1\AppData\Local\Temp\ccKV8tJ7.s:32252  .debug_str:000000000002901f .LASF1703
C:\Users\SOLDER~1\AppData\Local\Temp\ccKV8tJ7.s:23258  .debug_str:000000000000487e .LASF1704
C:\Users\SOLDER~1\AppData\Local\Temp\ccKV8tJ7.s:33128  .debug_str:000000000002c954 .LASF1705
C:\Users\SOLDER~1\AppData\Local\Temp\ccKV8tJ7.s:25874  .debug_str:000000000000f29f .LASF1706
C:\Users\SOLDER~1\AppData\Local\Temp\ccKV8tJ7.s:24910  .debug_str:000000000000b371 .LASF1707
C:\Users\SOLDER~1\AppData\Local\Temp\ccKV8tJ7.s:32742  .debug_str:000000000002afde .LASF1708
C:\Users\SOLDER~1\AppData\Local\Temp\ccKV8tJ7.s:30634  .debug_str:000000000002263c .LASF1709
C:\Users\SOLDER~1\AppData\Local\Temp\ccKV8tJ7.s:32182  .debug_str:0000000000028b67 .LASF1710
C:\Users\SOLDER~1\AppData\Local\Temp\ccKV8tJ7.s:27378  .debug_str:000000000001547c .LASF1711
C:\Users\SOLDER~1\AppData\Local\Temp\ccKV8tJ7.s:33668  .debug_str:000000000002ebb7 .LASF1712
C:\Users\SOLDER~1\AppData\Local\Temp\ccKV8tJ7.s:26964  .debug_str:000000000001386e .LASF1713
C:\Users\SOLDER~1\AppData\Local\Temp\ccKV8tJ7.s:24838  .debug_str:000000000000aee7 .LASF1714
C:\Users\SOLDER~1\AppData\Local\Temp\ccKV8tJ7.s:26194  .debug_str:00000000000107a7 .LASF1715
C:\Users\SOLDER~1\AppData\Local\Temp\ccKV8tJ7.s:23942  .debug_str:0000000000007498 .LASF1716
C:\Users\SOLDER~1\AppData\Local\Temp\ccKV8tJ7.s:22654  .debug_str:000000000000224d .LASF1717
C:\Users\SOLDER~1\AppData\Local\Temp\ccKV8tJ7.s:25462  .debug_str:000000000000d7ce .LASF1718
C:\Users\SOLDER~1\AppData\Local\Temp\ccKV8tJ7.s:30944  .debug_str:0000000000023a5d .LASF1719
C:\Users\SOLDER~1\AppData\Local\Temp\ccKV8tJ7.s:28522  .debug_str:0000000000019e3b .LASF1720
C:\Users\SOLDER~1\AppData\Local\Temp\ccKV8tJ7.s:29272  .debug_str:000000000001ce28 .LASF1721
C:\Users\SOLDER~1\AppData\Local\Temp\ccKV8tJ7.s:24668  .debug_str:000000000000a392 .LASF1722
C:\Users\SOLDER~1\AppData\Local\Temp\ccKV8tJ7.s:33172  .debug_str:000000000002cc0f .LASF1723
C:\Users\SOLDER~1\AppData\Local\Temp\ccKV8tJ7.s:32250  .debug_str:0000000000028ff9 .LASF1724
C:\Users\SOLDER~1\AppData\Local\Temp\ccKV8tJ7.s:27132  .debug_str:0000000000014462 .LASF1725
C:\Users\SOLDER~1\AppData\Local\Temp\ccKV8tJ7.s:28804  .debug_str:000000000001b00c .LASF1726
C:\Users\SOLDER~1\AppData\Local\Temp\ccKV8tJ7.s:25442  .debug_str:000000000000d6a3 .LASF1727
C:\Users\SOLDER~1\AppData\Local\Temp\ccKV8tJ7.s:31540  .debug_str:00000000000260e5 .LASF1728
C:\Users\SOLDER~1\AppData\Local\Temp\ccKV8tJ7.s:26078  .debug_str:000000000001005f .LASF1729
C:\Users\SOLDER~1\AppData\Local\Temp\ccKV8tJ7.s:32486  .debug_str:0000000000029f0c .LASF1730
C:\Users\SOLDER~1\AppData\Local\Temp\ccKV8tJ7.s:32442  .debug_str:0000000000029c7f .LASF1731
GAS LISTING C:\Users\SOLDER~1\AppData\Local\Temp\ccKV8tJ7.s 			page 120


C:\Users\SOLDER~1\AppData\Local\Temp\ccKV8tJ7.s:33160  .debug_str:000000000002cb44 .LASF1732
C:\Users\SOLDER~1\AppData\Local\Temp\ccKV8tJ7.s:22336  .debug_str:0000000000000deb .LASF1733
C:\Users\SOLDER~1\AppData\Local\Temp\ccKV8tJ7.s:25062  .debug_str:000000000000bd5f .LASF1734
C:\Users\SOLDER~1\AppData\Local\Temp\ccKV8tJ7.s:23510  .debug_str:00000000000057f9 .LASF1735
C:\Users\SOLDER~1\AppData\Local\Temp\ccKV8tJ7.s:26022  .debug_str:000000000000fc77 .LASF1736
C:\Users\SOLDER~1\AppData\Local\Temp\ccKV8tJ7.s:27628  .debug_str:0000000000016464 .LASF1737
C:\Users\SOLDER~1\AppData\Local\Temp\ccKV8tJ7.s:23012  .debug_str:000000000000394b .LASF1738
C:\Users\SOLDER~1\AppData\Local\Temp\ccKV8tJ7.s:23558  .debug_str:0000000000005b3f .LASF1739
C:\Users\SOLDER~1\AppData\Local\Temp\ccKV8tJ7.s:31378  .debug_str:0000000000025656 .LASF1740
C:\Users\SOLDER~1\AppData\Local\Temp\ccKV8tJ7.s:29214  .debug_str:000000000001ca42 .LASF1741
C:\Users\SOLDER~1\AppData\Local\Temp\ccKV8tJ7.s:33110  .debug_str:000000000002c840 .LASF1742
C:\Users\SOLDER~1\AppData\Local\Temp\ccKV8tJ7.s:26028  .debug_str:000000000000fcd7 .LASF1743
C:\Users\SOLDER~1\AppData\Local\Temp\ccKV8tJ7.s:23924  .debug_str:0000000000007378 .LASF1744
C:\Users\SOLDER~1\AppData\Local\Temp\ccKV8tJ7.s:25596  .debug_str:000000000000e08f .LASF1745
C:\Users\SOLDER~1\AppData\Local\Temp\ccKV8tJ7.s:31012  .debug_str:0000000000023ed7 .LASF1746
C:\Users\SOLDER~1\AppData\Local\Temp\ccKV8tJ7.s:24718  .debug_str:000000000000a719 .LASF1747
C:\Users\SOLDER~1\AppData\Local\Temp\ccKV8tJ7.s:29762  .debug_str:000000000001ee3b .LASF1748
C:\Users\SOLDER~1\AppData\Local\Temp\ccKV8tJ7.s:33810  .debug_str:000000000002f49c .LASF1749
C:\Users\SOLDER~1\AppData\Local\Temp\ccKV8tJ7.s:24032  .debug_str:0000000000007a01 .LASF1750
C:\Users\SOLDER~1\AppData\Local\Temp\ccKV8tJ7.s:29618  .debug_str:000000000001e4b0 .LASF1751
C:\Users\SOLDER~1\AppData\Local\Temp\ccKV8tJ7.s:27078  .debug_str:0000000000014099 .LASF1752
C:\Users\SOLDER~1\AppData\Local\Temp\ccKV8tJ7.s:27864  .debug_str:0000000000017304 .LASF1753
C:\Users\SOLDER~1\AppData\Local\Temp\ccKV8tJ7.s:23244  .debug_str:000000000000478f .LASF1754
C:\Users\SOLDER~1\AppData\Local\Temp\ccKV8tJ7.s:31714  .debug_str:0000000000026cca .LASF1755
C:\Users\SOLDER~1\AppData\Local\Temp\ccKV8tJ7.s:30784  .debug_str:0000000000022fec .LASF1756
C:\Users\SOLDER~1\AppData\Local\Temp\ccKV8tJ7.s:25768  .debug_str:000000000000ec37 .LASF1757
C:\Users\SOLDER~1\AppData\Local\Temp\ccKV8tJ7.s:27458  .debug_str:0000000000015984 .LASF1758
C:\Users\SOLDER~1\AppData\Local\Temp\ccKV8tJ7.s:29792  .debug_str:000000000001f01c .LASF1759
C:\Users\SOLDER~1\AppData\Local\Temp\ccKV8tJ7.s:24182  .debug_str:00000000000083f3 .LASF1760
C:\Users\SOLDER~1\AppData\Local\Temp\ccKV8tJ7.s:30392  .debug_str:000000000002171f .LASF1761
C:\Users\SOLDER~1\AppData\Local\Temp\ccKV8tJ7.s:25084  .debug_str:000000000000beb0 .LASF1762
C:\Users\SOLDER~1\AppData\Local\Temp\ccKV8tJ7.s:22682  .debug_str:000000000000242e .LASF1763
C:\Users\SOLDER~1\AppData\Local\Temp\ccKV8tJ7.s:25686  .debug_str:000000000000e6e2 .LASF1764
C:\Users\SOLDER~1\AppData\Local\Temp\ccKV8tJ7.s:26554  .debug_str:0000000000011e2e .LASF1765
C:\Users\SOLDER~1\AppData\Local\Temp\ccKV8tJ7.s:29396  .debug_str:000000000001d686 .LASF1766
C:\Users\SOLDER~1\AppData\Local\Temp\ccKV8tJ7.s:27650  .debug_str:00000000000165ba .LASF1767
C:\Users\SOLDER~1\AppData\Local\Temp\ccKV8tJ7.s:30348  .debug_str:0000000000021427 .LASF1768
C:\Users\SOLDER~1\AppData\Local\Temp\ccKV8tJ7.s:27930  .debug_str:00000000000177a5 .LASF1769
C:\Users\SOLDER~1\AppData\Local\Temp\ccKV8tJ7.s:32460  .debug_str:0000000000029d89 .LASF1770
C:\Users\SOLDER~1\AppData\Local\Temp\ccKV8tJ7.s:31478  .debug_str:0000000000025ca9 .LASF1771
C:\Users\SOLDER~1\AppData\Local\Temp\ccKV8tJ7.s:27624  .debug_str:0000000000016424 .LASF1772
C:\Users\SOLDER~1\AppData\Local\Temp\ccKV8tJ7.s:25418  .debug_str:000000000000d503 .LASF1773
C:\Users\SOLDER~1\AppData\Local\Temp\ccKV8tJ7.s:26958  .debug_str:0000000000013800 .LASF1774
C:\Users\SOLDER~1\AppData\Local\Temp\ccKV8tJ7.s:22262  .debug_str:0000000000000861 .LASF1775
C:\Users\SOLDER~1\AppData\Local\Temp\ccKV8tJ7.s:31834  .debug_str:00000000000274b1 .LASF1776
C:\Users\SOLDER~1\AppData\Local\Temp\ccKV8tJ7.s:33532  .debug_str:000000000002e321 .LASF1777
C:\Users\SOLDER~1\AppData\Local\Temp\ccKV8tJ7.s:30650  .debug_str:0000000000022714 .LASF1778
C:\Users\SOLDER~1\AppData\Local\Temp\ccKV8tJ7.s:30062  .debug_str:00000000000201d2 .LASF1779
C:\Users\SOLDER~1\AppData\Local\Temp\ccKV8tJ7.s:25972  .debug_str:000000000000f8e1 .LASF1780
C:\Users\SOLDER~1\AppData\Local\Temp\ccKV8tJ7.s:30004  .debug_str:000000000001fe12 .LASF1781
C:\Users\SOLDER~1\AppData\Local\Temp\ccKV8tJ7.s:31944  .debug_str:0000000000027be2 .LASF1782
C:\Users\SOLDER~1\AppData\Local\Temp\ccKV8tJ7.s:25822  .debug_str:000000000000ef66 .LASF1783
C:\Users\SOLDER~1\AppData\Local\Temp\ccKV8tJ7.s:23262  .debug_str:00000000000048bd .LASF1784
C:\Users\SOLDER~1\AppData\Local\Temp\ccKV8tJ7.s:28370  .debug_str:0000000000019479 .LASF1785
C:\Users\SOLDER~1\AppData\Local\Temp\ccKV8tJ7.s:31152  .debug_str:00000000000247e1 .LASF1786
C:\Users\SOLDER~1\AppData\Local\Temp\ccKV8tJ7.s:27986  .debug_str:0000000000017b23 .LASF1787
C:\Users\SOLDER~1\AppData\Local\Temp\ccKV8tJ7.s:27038  .debug_str:0000000000013de0 .LASF1788
GAS LISTING C:\Users\SOLDER~1\AppData\Local\Temp\ccKV8tJ7.s 			page 121


C:\Users\SOLDER~1\AppData\Local\Temp\ccKV8tJ7.s:33710  .debug_str:000000000002ee59 .LASF1789
C:\Users\SOLDER~1\AppData\Local\Temp\ccKV8tJ7.s:23554  .debug_str:0000000000005af6 .LASF1790
C:\Users\SOLDER~1\AppData\Local\Temp\ccKV8tJ7.s:22442  .debug_str:0000000000001489 .LASF1791
C:\Users\SOLDER~1\AppData\Local\Temp\ccKV8tJ7.s:28544  .debug_str:0000000000019f9a .LASF1792
C:\Users\SOLDER~1\AppData\Local\Temp\ccKV8tJ7.s:23038  .debug_str:0000000000003b02 .LASF1793
C:\Users\SOLDER~1\AppData\Local\Temp\ccKV8tJ7.s:29338  .debug_str:000000000001d2ad .LASF1794
C:\Users\SOLDER~1\AppData\Local\Temp\ccKV8tJ7.s:29300  .debug_str:000000000001d00b .LASF1795
C:\Users\SOLDER~1\AppData\Local\Temp\ccKV8tJ7.s:30028  .debug_str:000000000001ff93 .LASF1796
C:\Users\SOLDER~1\AppData\Local\Temp\ccKV8tJ7.s:26308  .debug_str:0000000000010ea5 .LASF1797
C:\Users\SOLDER~1\AppData\Local\Temp\ccKV8tJ7.s:33750  .debug_str:000000000002f108 .LASF1798
C:\Users\SOLDER~1\AppData\Local\Temp\ccKV8tJ7.s:31958  .debug_str:0000000000027cc9 .LASF1799
C:\Users\SOLDER~1\AppData\Local\Temp\ccKV8tJ7.s:22982  .debug_str:000000000000376c .LASF1800
C:\Users\SOLDER~1\AppData\Local\Temp\ccKV8tJ7.s:24096  .debug_str:0000000000007e57 .LASF1801
C:\Users\SOLDER~1\AppData\Local\Temp\ccKV8tJ7.s:29894  .debug_str:000000000001f6f3 .LASF1802
C:\Users\SOLDER~1\AppData\Local\Temp\ccKV8tJ7.s:27730  .debug_str:0000000000016a83 .LASF1803
C:\Users\SOLDER~1\AppData\Local\Temp\ccKV8tJ7.s:23706  .debug_str:00000000000064c5 .LASF1804
C:\Users\SOLDER~1\AppData\Local\Temp\ccKV8tJ7.s:33346  .debug_str:000000000002d76d .LASF1805
C:\Users\SOLDER~1\AppData\Local\Temp\ccKV8tJ7.s:23142  .debug_str:0000000000004131 .LASF1806
C:\Users\SOLDER~1\AppData\Local\Temp\ccKV8tJ7.s:30146  .debug_str:0000000000020721 .LASF1807
C:\Users\SOLDER~1\AppData\Local\Temp\ccKV8tJ7.s:27938  .debug_str:0000000000017826 .LASF1808
C:\Users\SOLDER~1\AppData\Local\Temp\ccKV8tJ7.s:29634  .debug_str:000000000001e5ce .LASF1809
C:\Users\SOLDER~1\AppData\Local\Temp\ccKV8tJ7.s:26888  .debug_str:0000000000013344 .LASF1810
C:\Users\SOLDER~1\AppData\Local\Temp\ccKV8tJ7.s:28866  .debug_str:000000000001b3b9 .LASF1811
C:\Users\SOLDER~1\AppData\Local\Temp\ccKV8tJ7.s:22216  .debug_str:00000000000004d6 .LASF1812
C:\Users\SOLDER~1\AppData\Local\Temp\ccKV8tJ7.s:26226  .debug_str:0000000000010988 .LASF1813
C:\Users\SOLDER~1\AppData\Local\Temp\ccKV8tJ7.s:28190  .debug_str:00000000000188b6 .LASF1814
C:\Users\SOLDER~1\AppData\Local\Temp\ccKV8tJ7.s:33674  .debug_str:000000000002ec18 .LASF1815
C:\Users\SOLDER~1\AppData\Local\Temp\ccKV8tJ7.s:29586  .debug_str:000000000001e2bc .LASF1816
C:\Users\SOLDER~1\AppData\Local\Temp\ccKV8tJ7.s:32416  .debug_str:0000000000029aba .LASF1817
C:\Users\SOLDER~1\AppData\Local\Temp\ccKV8tJ7.s:27390  .debug_str:000000000001552d .LASF1818
C:\Users\SOLDER~1\AppData\Local\Temp\ccKV8tJ7.s:24138  .debug_str:000000000000812c .LASF1819
C:\Users\SOLDER~1\AppData\Local\Temp\ccKV8tJ7.s:23214  .debug_str:0000000000004588 .LASF1820
C:\Users\SOLDER~1\AppData\Local\Temp\ccKV8tJ7.s:29806  .debug_str:000000000001f10b .LASF1821
C:\Users\SOLDER~1\AppData\Local\Temp\ccKV8tJ7.s:31474  .debug_str:0000000000025c62 .LASF1822
C:\Users\SOLDER~1\AppData\Local\Temp\ccKV8tJ7.s:26738  .debug_str:0000000000012953 .LASF1823
C:\Users\SOLDER~1\AppData\Local\Temp\ccKV8tJ7.s:32772  .debug_str:000000000002b201 .LASF1824
C:\Users\SOLDER~1\AppData\Local\Temp\ccKV8tJ7.s:27288  .debug_str:0000000000014ec4 .LASF1825
C:\Users\SOLDER~1\AppData\Local\Temp\ccKV8tJ7.s:33694  .debug_str:000000000002ed52 .LASF1826
C:\Users\SOLDER~1\AppData\Local\Temp\ccKV8tJ7.s:32096  .debug_str:00000000000285c2 .LASF1827
C:\Users\SOLDER~1\AppData\Local\Temp\ccKV8tJ7.s:22660  .debug_str:00000000000022bb .LASF1828
C:\Users\SOLDER~1\AppData\Local\Temp\ccKV8tJ7.s:29798  .debug_str:000000000001f083 .LASF1829
C:\Users\SOLDER~1\AppData\Local\Temp\ccKV8tJ7.s:24538  .debug_str:0000000000009b07 .LASF1830
C:\Users\SOLDER~1\AppData\Local\Temp\ccKV8tJ7.s:24488  .debug_str:00000000000097ee .LASF1831
C:\Users\SOLDER~1\AppData\Local\Temp\ccKV8tJ7.s:27238  .debug_str:0000000000014b71 .LASF1832
C:\Users\SOLDER~1\AppData\Local\Temp\ccKV8tJ7.s:32012  .debug_str:0000000000028008 .LASF1833
C:\Users\SOLDER~1\AppData\Local\Temp\ccKV8tJ7.s:24852  .debug_str:000000000000afde .LASF1834
C:\Users\SOLDER~1\AppData\Local\Temp\ccKV8tJ7.s:23802  .debug_str:0000000000006b3c .LASF1835
C:\Users\SOLDER~1\AppData\Local\Temp\ccKV8tJ7.s:31616  .debug_str:000000000002663d .LASF1836
C:\Users\SOLDER~1\AppData\Local\Temp\ccKV8tJ7.s:29548  .debug_str:000000000001e00d .LASF1837
C:\Users\SOLDER~1\AppData\Local\Temp\ccKV8tJ7.s:30462  .debug_str:0000000000021b97 .LASF1838
C:\Users\SOLDER~1\AppData\Local\Temp\ccKV8tJ7.s:26370  .debug_str:0000000000011274 .LASF1839
C:\Users\SOLDER~1\AppData\Local\Temp\ccKV8tJ7.s:25136  .debug_str:000000000000c210 .LASF1840
C:\Users\SOLDER~1\AppData\Local\Temp\ccKV8tJ7.s:25840  .debug_str:000000000000f093 .LASF1841
C:\Users\SOLDER~1\AppData\Local\Temp\ccKV8tJ7.s:23082  .debug_str:0000000000003da7 .LASF1842
C:\Users\SOLDER~1\AppData\Local\Temp\ccKV8tJ7.s:25068  .debug_str:000000000000bdc6 .LASF1843
C:\Users\SOLDER~1\AppData\Local\Temp\ccKV8tJ7.s:30100  .debug_str:0000000000020439 .LASF1844
C:\Users\SOLDER~1\AppData\Local\Temp\ccKV8tJ7.s:22446  .debug_str:00000000000014cd .LASF1845
GAS LISTING C:\Users\SOLDER~1\AppData\Local\Temp\ccKV8tJ7.s 			page 122


C:\Users\SOLDER~1\AppData\Local\Temp\ccKV8tJ7.s:24358  .debug_str:0000000000008f54 .LASF1846
C:\Users\SOLDER~1\AppData\Local\Temp\ccKV8tJ7.s:29872  .debug_str:000000000001f56e .LASF1847
C:\Users\SOLDER~1\AppData\Local\Temp\ccKV8tJ7.s:27408  .debug_str:000000000001564a .LASF1848
C:\Users\SOLDER~1\AppData\Local\Temp\ccKV8tJ7.s:28202  .debug_str:0000000000018983 .LASF1849
C:\Users\SOLDER~1\AppData\Local\Temp\ccKV8tJ7.s:23582  .debug_str:0000000000005c93 .LASF1850
C:\Users\SOLDER~1\AppData\Local\Temp\ccKV8tJ7.s:32056  .debug_str:0000000000028329 .LASF1851
C:\Users\SOLDER~1\AppData\Local\Temp\ccKV8tJ7.s:31126  .debug_str:0000000000024611 .LASF1852
C:\Users\SOLDER~1\AppData\Local\Temp\ccKV8tJ7.s:32348  .debug_str:000000000002960e .LASF1853
C:\Users\SOLDER~1\AppData\Local\Temp\ccKV8tJ7.s:27724  .debug_str:0000000000016a29 .LASF1854
C:\Users\SOLDER~1\AppData\Local\Temp\ccKV8tJ7.s:30966  .debug_str:0000000000023be1 .LASF1855
C:\Users\SOLDER~1\AppData\Local\Temp\ccKV8tJ7.s:28570  .debug_str:000000000001a0fa .LASF1856
C:\Users\SOLDER~1\AppData\Local\Temp\ccKV8tJ7.s:31590  .debug_str:0000000000026478 .LASF1857
C:\Users\SOLDER~1\AppData\Local\Temp\ccKV8tJ7.s:26324  .debug_str:0000000000010f97 .LASF1858
C:\Users\SOLDER~1\AppData\Local\Temp\ccKV8tJ7.s:26290  .debug_str:0000000000010d9a .LASF1859
C:\Users\SOLDER~1\AppData\Local\Temp\ccKV8tJ7.s:27010  .debug_str:0000000000013bdc .LASF1860
C:\Users\SOLDER~1\AppData\Local\Temp\ccKV8tJ7.s:24834  .debug_str:000000000000ae9e .LASF1861
C:\Users\SOLDER~1\AppData\Local\Temp\ccKV8tJ7.s:30584  .debug_str:000000000002234a .LASF1862
C:\Users\SOLDER~1\AppData\Local\Temp\ccKV8tJ7.s:28840  .debug_str:000000000001b258 .LASF1863
C:\Users\SOLDER~1\AppData\Local\Temp\ccKV8tJ7.s:31534  .debug_str:0000000000026099 .LASF1864
C:\Users\SOLDER~1\AppData\Local\Temp\ccKV8tJ7.s:28256  .debug_str:0000000000018d10 .LASF1865
C:\Users\SOLDER~1\AppData\Local\Temp\ccKV8tJ7.s:32780  .debug_str:000000000002b288 .LASF1866
C:\Users\SOLDER~1\AppData\Local\Temp\ccKV8tJ7.s:31720  .debug_str:0000000000026d3d .LASF1867
C:\Users\SOLDER~1\AppData\Local\Temp\ccKV8tJ7.s:27876  .debug_str:00000000000173d4 .LASF1868
C:\Users\SOLDER~1\AppData\Local\Temp\ccKV8tJ7.s:25756  .debug_str:000000000000eb7c .LASF1869
C:\Users\SOLDER~1\AppData\Local\Temp\ccKV8tJ7.s:27292  .debug_str:0000000000014f0d .LASF1870
C:\Users\SOLDER~1\AppData\Local\Temp\ccKV8tJ7.s:22494  .debug_str:00000000000017f5 .LASF1871
C:\Users\SOLDER~1\AppData\Local\Temp\ccKV8tJ7.s:32180  .debug_str:0000000000028b42 .LASF1872
C:\Users\SOLDER~1\AppData\Local\Temp\ccKV8tJ7.s:31130  .debug_str:0000000000024663 .LASF1873
C:\Users\SOLDER~1\AppData\Local\Temp\ccKV8tJ7.s:30980  .debug_str:0000000000023cd7 .LASF1874
C:\Users\SOLDER~1\AppData\Local\Temp\ccKV8tJ7.s:32994  .debug_str:000000000002c040 .LASF1875
C:\Users\SOLDER~1\AppData\Local\Temp\ccKV8tJ7.s:30520  .debug_str:0000000000021f3a .LASF1876
C:\Users\SOLDER~1\AppData\Local\Temp\ccKV8tJ7.s:29240  .debug_str:000000000001cbf4 .LASF1877
C:\Users\SOLDER~1\AppData\Local\Temp\ccKV8tJ7.s:32280  .debug_str:00000000000291de .LASF1878
C:\Users\SOLDER~1\AppData\Local\Temp\ccKV8tJ7.s:30934  .debug_str:00000000000239b6 .LASF1879
C:\Users\SOLDER~1\AppData\Local\Temp\ccKV8tJ7.s:23600  .debug_str:0000000000005daa .LASF1880
C:\Users\SOLDER~1\AppData\Local\Temp\ccKV8tJ7.s:24368  .debug_str:0000000000009001 .LASF1881
C:\Users\SOLDER~1\AppData\Local\Temp\ccKV8tJ7.s:31490  .debug_str:0000000000025d84 .LASF1882
C:\Users\SOLDER~1\AppData\Local\Temp\ccKV8tJ7.s:28300  .debug_str:0000000000019001 .LASF1883
C:\Users\SOLDER~1\AppData\Local\Temp\ccKV8tJ7.s:22408  .debug_str:0000000000001251 .LASF1884
C:\Users\SOLDER~1\AppData\Local\Temp\ccKV8tJ7.s:22258  .debug_str:0000000000000816 .LASF1885
C:\Users\SOLDER~1\AppData\Local\Temp\ccKV8tJ7.s:23900  .debug_str:00000000000071ca .LASF1886
C:\Users\SOLDER~1\AppData\Local\Temp\ccKV8tJ7.s:23612  .debug_str:0000000000005e6e .LASF1887
C:\Users\SOLDER~1\AppData\Local\Temp\ccKV8tJ7.s:29730  .debug_str:000000000001ec12 .LASF1888
C:\Users\SOLDER~1\AppData\Local\Temp\ccKV8tJ7.s:24236  .debug_str:000000000000875f .LASF1889
C:\Users\SOLDER~1\AppData\Local\Temp\ccKV8tJ7.s:30616  .debug_str:000000000002252c .LASF1890
C:\Users\SOLDER~1\AppData\Local\Temp\ccKV8tJ7.s:30578  .debug_str:00000000000222d9 .LASF1891
C:\Users\SOLDER~1\AppData\Local\Temp\ccKV8tJ7.s:31218  .debug_str:0000000000024c1d .LASF1892
C:\Users\SOLDER~1\AppData\Local\Temp\ccKV8tJ7.s:26664  .debug_str:00000000000124d9 .LASF1893
C:\Users\SOLDER~1\AppData\Local\Temp\ccKV8tJ7.s:23224  .debug_str:0000000000004634 .LASF1894
C:\Users\SOLDER~1\AppData\Local\Temp\ccKV8tJ7.s:33170  .debug_str:000000000002cbeb .LASF1895
C:\Users\SOLDER~1\AppData\Local\Temp\ccKV8tJ7.s:24174  .debug_str:0000000000008380 .LASF1896
C:\Users\SOLDER~1\AppData\Local\Temp\ccKV8tJ7.s:24426  .debug_str:0000000000009401 .LASF1897
C:\Users\SOLDER~1\AppData\Local\Temp\ccKV8tJ7.s:28904  .debug_str:000000000001b616 .LASF1898
C:\Users\SOLDER~1\AppData\Local\Temp\ccKV8tJ7.s:27990  .debug_str:0000000000017b6c .LASF1899
C:\Users\SOLDER~1\AppData\Local\Temp\ccKV8tJ7.s:24052  .debug_str:0000000000007b5a .LASF1900
C:\Users\SOLDER~1\AppData\Local\Temp\ccKV8tJ7.s:33698  .debug_str:000000000002ed7c .LASF1901
C:\Users\SOLDER~1\AppData\Local\Temp\ccKV8tJ7.s:23482  .debug_str:00000000000055ef .LASF1902
GAS LISTING C:\Users\SOLDER~1\AppData\Local\Temp\ccKV8tJ7.s 			page 123


C:\Users\SOLDER~1\AppData\Local\Temp\ccKV8tJ7.s:33278  .debug_str:000000000002d2b2 .LASF1903
C:\Users\SOLDER~1\AppData\Local\Temp\ccKV8tJ7.s:28408  .debug_str:000000000001971c .LASF1904
C:\Users\SOLDER~1\AppData\Local\Temp\ccKV8tJ7.s:29984  .debug_str:000000000001fce0 .LASF1905
C:\Users\SOLDER~1\AppData\Local\Temp\ccKV8tJ7.s:27232  .debug_str:0000000000014aef .LASF1906
C:\Users\SOLDER~1\AppData\Local\Temp\ccKV8tJ7.s:29192  .debug_str:000000000001c89f .LASF1907
C:\Users\SOLDER~1\AppData\Local\Temp\ccKV8tJ7.s:22528  .debug_str:00000000000019f0 .LASF1908
C:\Users\SOLDER~1\AppData\Local\Temp\ccKV8tJ7.s:32270  .debug_str:0000000000029139 .LASF1909
C:\Users\SOLDER~1\AppData\Local\Temp\ccKV8tJ7.s:28510  .debug_str:0000000000019d70 .LASF1910
C:\Users\SOLDER~1\AppData\Local\Temp\ccKV8tJ7.s:22312  .debug_str:0000000000000c14 .LASF1911
C:\Users\SOLDER~1\AppData\Local\Temp\ccKV8tJ7.s:31508  .debug_str:0000000000025eca .LASF1912
C:\Users\SOLDER~1\AppData\Local\Temp\ccKV8tJ7.s:32292  .debug_str:0000000000029283 .LASF1913
C:\Users\SOLDER~1\AppData\Local\Temp\ccKV8tJ7.s:27748  .debug_str:0000000000016bbd .LASF1914
C:\Users\SOLDER~1\AppData\Local\Temp\ccKV8tJ7.s:33044  .debug_str:000000000002c37f .LASF1915
C:\Users\SOLDER~1\AppData\Local\Temp\ccKV8tJ7.s:23548  .debug_str:0000000000005a89 .LASF1916
C:\Users\SOLDER~1\AppData\Local\Temp\ccKV8tJ7.s:30142  .debug_str:00000000000206e9 .LASF1917
C:\Users\SOLDER~1\AppData\Local\Temp\ccKV8tJ7.s:28684  .debug_str:000000000001a827 .LASF1918
C:\Users\SOLDER~1\AppData\Local\Temp\ccKV8tJ7.s:28002  .debug_str:0000000000017c53 .LASF1919
C:\Users\SOLDER~1\AppData\Local\Temp\ccKV8tJ7.s:22396  .debug_str:000000000000118e .LASF1920
C:\Users\SOLDER~1\AppData\Local\Temp\ccKV8tJ7.s:28590  .debug_str:000000000001a23d .LASF1921
C:\Users\SOLDER~1\AppData\Local\Temp\ccKV8tJ7.s:23160  .debug_str:000000000000425e .LASF1922
C:\Users\SOLDER~1\AppData\Local\Temp\ccKV8tJ7.s:23126  .debug_str:0000000000004020 .LASF1923
C:\Users\SOLDER~1\AppData\Local\Temp\ccKV8tJ7.s:30946  .debug_str:0000000000023a83 .LASF1924
C:\Users\SOLDER~1\AppData\Local\Temp\ccKV8tJ7.s:30978  .debug_str:0000000000023cb3 .LASF1925
C:\Users\SOLDER~1\AppData\Local\Temp\ccKV8tJ7.s:27590  .debug_str:0000000000016208 .LASF1926
C:\Users\SOLDER~1\AppData\Local\Temp\ccKV8tJ7.s:25792  .debug_str:000000000000ed7d .LASF1927
C:\Users\SOLDER~1\AppData\Local\Temp\ccKV8tJ7.s:22180  .debug_str:000000000000025d .LASF1928
C:\Users\SOLDER~1\AppData\Local\Temp\ccKV8tJ7.s:32258  .debug_str:0000000000029085 .LASF1929
C:\Users\SOLDER~1\AppData\Local\Temp\ccKV8tJ7.s:25094  .debug_str:000000000000bf3d .LASF1930
C:\Users\SOLDER~1\AppData\Local\Temp\ccKV8tJ7.s:24142  .debug_str:000000000000816c .LASF1931
C:\Users\SOLDER~1\AppData\Local\Temp\ccKV8tJ7.s:31970  .debug_str:0000000000027d7b .LASF1932
C:\Users\SOLDER~1\AppData\Local\Temp\ccKV8tJ7.s:25556  .debug_str:000000000000de02 .LASF1933
C:\Users\SOLDER~1\AppData\Local\Temp\ccKV8tJ7.s:31394  .debug_str:0000000000025742 .LASF1934
C:\Users\SOLDER~1\AppData\Local\Temp\ccKV8tJ7.s:22144  .debug_str:0000000000000023 .LASF1935
C:\Users\SOLDER~1\AppData\Local\Temp\ccKV8tJ7.s:24576  .debug_str:0000000000009d5f .LASF1936
C:\Users\SOLDER~1\AppData\Local\Temp\ccKV8tJ7.s:26200  .debug_str:00000000000107ff .LASF1937
C:\Users\SOLDER~1\AppData\Local\Temp\ccKV8tJ7.s:23408  .debug_str:0000000000005197 .LASF1938
C:\Users\SOLDER~1\AppData\Local\Temp\ccKV8tJ7.s:25398  .debug_str:000000000000d3ae .LASF1939
C:\Users\SOLDER~1\AppData\Local\Temp\ccKV8tJ7.s:30336  .debug_str:0000000000021354 .LASF1940
C:\Users\SOLDER~1\AppData\Local\Temp\ccKV8tJ7.s:22666  .debug_str:0000000000002319 .LASF1941
C:\Users\SOLDER~1\AppData\Local\Temp\ccKV8tJ7.s:28038  .debug_str:0000000000017e9e .LASF1942
C:\Users\SOLDER~1\AppData\Local\Temp\ccKV8tJ7.s:30192  .debug_str:0000000000020a3b .LASF1943
C:\Users\SOLDER~1\AppData\Local\Temp\ccKV8tJ7.s:32246  .debug_str:0000000000028fb8 .LASF1944
C:\Users\SOLDER~1\AppData\Local\Temp\ccKV8tJ7.s:28430  .debug_str:0000000000019895 .LASF1945
C:\Users\SOLDER~1\AppData\Local\Temp\ccKV8tJ7.s:23926  .debug_str:000000000000739d .LASF1946
C:\Users\SOLDER~1\AppData\Local\Temp\ccKV8tJ7.s:32410  .debug_str:0000000000029a4b .LASF1947
C:\Users\SOLDER~1\AppData\Local\Temp\ccKV8tJ7.s:31372  .debug_str:0000000000025605 .LASF1948
C:\Users\SOLDER~1\AppData\Local\Temp\ccKV8tJ7.s:29716  .debug_str:000000000001eb1a .LASF1949
C:\Users\SOLDER~1\AppData\Local\Temp\ccKV8tJ7.s:28074  .debug_str:0000000000018111 .LASF1950
C:\Users\SOLDER~1\AppData\Local\Temp\ccKV8tJ7.s:25592  .debug_str:000000000000e04a .LASF1951
C:\Users\SOLDER~1\AppData\Local\Temp\ccKV8tJ7.s:26602  .debug_str:0000000000012109 .LASF1952
C:\Users\SOLDER~1\AppData\Local\Temp\ccKV8tJ7.s:32818  .debug_str:000000000002b4b1 .LASF1953
C:\Users\SOLDER~1\AppData\Local\Temp\ccKV8tJ7.s:27528  .debug_str:0000000000015df3 .LASF1954
C:\Users\SOLDER~1\AppData\Local\Temp\ccKV8tJ7.s:27486  .debug_str:0000000000015b59 .LASF1955
C:\Users\SOLDER~1\AppData\Local\Temp\ccKV8tJ7.s:28230  .debug_str:0000000000018b44 .LASF1956
C:\Users\SOLDER~1\AppData\Local\Temp\ccKV8tJ7.s:23626  .debug_str:0000000000005f60 .LASF1957
C:\Users\SOLDER~1\AppData\Local\Temp\ccKV8tJ7.s:31898  .debug_str:00000000000278e3 .LASF1958
C:\Users\SOLDER~1\AppData\Local\Temp\ccKV8tJ7.s:30036  .debug_str:0000000000020017 .LASF1959
GAS LISTING C:\Users\SOLDER~1\AppData\Local\Temp\ccKV8tJ7.s 			page 124


C:\Users\SOLDER~1\AppData\Local\Temp\ccKV8tJ7.s:32764  .debug_str:000000000002b16d .LASF1960
C:\Users\SOLDER~1\AppData\Local\Temp\ccKV8tJ7.s:28484  .debug_str:0000000000019bdc .LASF1961
C:\Users\SOLDER~1\AppData\Local\Temp\ccKV8tJ7.s:31552  .debug_str:00000000000261c4 .LASF1962
C:\Users\SOLDER~1\AppData\Local\Temp\ccKV8tJ7.s:32058  .debug_str:000000000002834e .LASF1963
C:\Users\SOLDER~1\AppData\Local\Temp\ccKV8tJ7.s:28218  .debug_str:0000000000018a7b .LASF1964
C:\Users\SOLDER~1\AppData\Local\Temp\ccKV8tJ7.s:28610  .debug_str:000000000001a381 .LASF1965
C:\Users\SOLDER~1\AppData\Local\Temp\ccKV8tJ7.s:27640  .debug_str:0000000000016519 .LASF1966
C:\Users\SOLDER~1\AppData\Local\Temp\ccKV8tJ7.s:22814  .debug_str:0000000000002c99 .LASF1967
C:\Users\SOLDER~1\AppData\Local\Temp\ccKV8tJ7.s:32526  .debug_str:000000000002a1a1 .LASF1968
C:\Users\SOLDER~1\AppData\Local\Temp\ccKV8tJ7.s:28538  .debug_str:0000000000019f36 .LASF1969
C:\Users\SOLDER~1\AppData\Local\Temp\ccKV8tJ7.s:31328  .debug_str:0000000000025345 .LASF1970
C:\Users\SOLDER~1\AppData\Local\Temp\ccKV8tJ7.s:33322  .debug_str:000000000002d59d .LASF1971
C:\Users\SOLDER~1\AppData\Local\Temp\ccKV8tJ7.s:26542  .debug_str:0000000000011d58 .LASF1972
C:\Users\SOLDER~1\AppData\Local\Temp\ccKV8tJ7.s:30558  .debug_str:0000000000022189 .LASF1973
C:\Users\SOLDER~1\AppData\Local\Temp\ccKV8tJ7.s:32618  .debug_str:000000000002a803 .LASF1974
C:\Users\SOLDER~1\AppData\Local\Temp\ccKV8tJ7.s:26414  .debug_str:0000000000011531 .LASF1975
C:\Users\SOLDER~1\AppData\Local\Temp\ccKV8tJ7.s:23946  .debug_str:00000000000074d8 .LASF1976
C:\Users\SOLDER~1\AppData\Local\Temp\ccKV8tJ7.s:24600  .debug_str:0000000000009f13 .LASF1977
C:\Users\SOLDER~1\AppData\Local\Temp\ccKV8tJ7.s:22308  .debug_str:0000000000000bcc .LASF1978
C:\Users\SOLDER~1\AppData\Local\Temp\ccKV8tJ7.s:28534  .debug_str:0000000000019eff .LASF1979
C:\Users\SOLDER~1\AppData\Local\Temp\ccKV8tJ7.s:27618  .debug_str:00000000000163c1 .LASF1980
C:\Users\SOLDER~1\AppData\Local\Temp\ccKV8tJ7.s:22576  .debug_str:0000000000001d3e .LASF1981
C:\Users\SOLDER~1\AppData\Local\Temp\ccKV8tJ7.s:24238  .debug_str:0000000000008783 .LASF1982
C:\Users\SOLDER~1\AppData\Local\Temp\ccKV8tJ7.s:24818  .debug_str:000000000000ad76 .LASF1983
C:\Users\SOLDER~1\AppData\Local\Temp\ccKV8tJ7.s:30920  .debug_str:00000000000238b6 .LASF1984
C:\Users\SOLDER~1\AppData\Local\Temp\ccKV8tJ7.s:26530  .debug_str:0000000000011c84 .LASF1985
C:\Users\SOLDER~1\AppData\Local\Temp\ccKV8tJ7.s:31838  .debug_str:00000000000274fc .LASF1986
C:\Users\SOLDER~1\AppData\Local\Temp\ccKV8tJ7.s:31796  .debug_str:0000000000027238 .LASF1987
C:\Users\SOLDER~1\AppData\Local\Temp\ccKV8tJ7.s:32550  .debug_str:000000000002a36b .LASF1988
C:\Users\SOLDER~1\AppData\Local\Temp\ccKV8tJ7.s:27916  .debug_str:000000000001769f .LASF1989
C:\Users\SOLDER~1\AppData\Local\Temp\ccKV8tJ7.s:25146  .debug_str:000000000000c2d3 .LASF1990
C:\Users\SOLDER~1\AppData\Local\Temp\ccKV8tJ7.s:22672  .debug_str:000000000000237b .LASF1991
C:\Users\SOLDER~1\AppData\Local\Temp\ccKV8tJ7.s:25386  .debug_str:000000000000d2ea .LASF1992
C:\Users\SOLDER~1\AppData\Local\Temp\ccKV8tJ7.s:30534  .debug_str:0000000000022029 .LASF1993
C:\Users\SOLDER~1\AppData\Local\Temp\ccKV8tJ7.s:29230  .debug_str:000000000001cb3d .LASF1994
C:\Users\SOLDER~1\AppData\Local\Temp\ccKV8tJ7.s:28306  .debug_str:0000000000019070 .LASF1995
C:\Users\SOLDER~1\AppData\Local\Temp\ccKV8tJ7.s:24382  .debug_str:0000000000009112 .LASF1996
C:\Users\SOLDER~1\AppData\Local\Temp\ccKV8tJ7.s:22340  .debug_str:0000000000000e31 .LASF1997
C:\Users\SOLDER~1\AppData\Local\Temp\ccKV8tJ7.s:23728  .debug_str:000000000000665b .LASF1998
C:\Users\SOLDER~1\AppData\Local\Temp\ccKV8tJ7.s:30704  .debug_str:0000000000022a8c .LASF1999
C:\Users\SOLDER~1\AppData\Local\Temp\ccKV8tJ7.s:28730  .debug_str:000000000001ab33 .LASF2000
C:\Users\SOLDER~1\AppData\Local\Temp\ccKV8tJ7.s:30298  .debug_str:00000000000210f4 .LASF2001
C:\Users\SOLDER~1\AppData\Local\Temp\ccKV8tJ7.s:27478  .debug_str:0000000000015acc .LASF2002
C:\Users\SOLDER~1\AppData\Local\Temp\ccKV8tJ7.s:29430  .debug_str:000000000001d8d8 .LASF2003
C:\Users\SOLDER~1\AppData\Local\Temp\ccKV8tJ7.s:22764  .debug_str:00000000000029b5 .LASF2004
C:\Users\SOLDER~1\AppData\Local\Temp\ccKV8tJ7.s:26782  .debug_str:0000000000012c33 .LASF2005
C:\Users\SOLDER~1\AppData\Local\Temp\ccKV8tJ7.s:22374  .debug_str:000000000000102a .LASF2006
C:\Users\SOLDER~1\AppData\Local\Temp\ccKV8tJ7.s:22618  .debug_str:0000000000001fff .LASF2007
C:\Users\SOLDER~1\AppData\Local\Temp\ccKV8tJ7.s:31862  .debug_str:0000000000027682 .LASF2008
C:\Users\SOLDER~1\AppData\Local\Temp\ccKV8tJ7.s:32556  .debug_str:000000000002a3d6 .LASF2009
C:\Users\SOLDER~1\AppData\Local\Temp\ccKV8tJ7.s:25298  .debug_str:000000000000cd43 .LASF2010
C:\Users\SOLDER~1\AppData\Local\Temp\ccKV8tJ7.s:24708  .debug_str:000000000000a660 .LASF2011
C:\Users\SOLDER~1\AppData\Local\Temp\ccKV8tJ7.s:23794  .debug_str:0000000000006ac2 .LASF2012
C:\Users\SOLDER~1\AppData\Local\Temp\ccKV8tJ7.s:24062  .debug_str:0000000000007bf8 .LASF2013
C:\Users\SOLDER~1\AppData\Local\Temp\ccKV8tJ7.s:32158  .debug_str:00000000000289dd .LASF2014
C:\Users\SOLDER~1\AppData\Local\Temp\ccKV8tJ7.s:29158  .debug_str:000000000001c678 .LASF2015
C:\Users\SOLDER~1\AppData\Local\Temp\ccKV8tJ7.s:23556  .debug_str:0000000000005b1b .LASF2016
GAS LISTING C:\Users\SOLDER~1\AppData\Local\Temp\ccKV8tJ7.s 			page 125


C:\Users\SOLDER~1\AppData\Local\Temp\ccKV8tJ7.s:29782  .debug_str:000000000001ef82 .LASF2017
C:\Users\SOLDER~1\AppData\Local\Temp\ccKV8tJ7.s:24464  .debug_str:0000000000009663 .LASF2018
C:\Users\SOLDER~1\AppData\Local\Temp\ccKV8tJ7.s:24332  .debug_str:0000000000008d9d .LASF2019
C:\Users\SOLDER~1\AppData\Local\Temp\ccKV8tJ7.s:25066  .debug_str:000000000000bda2 .LASF2020
C:\Users\SOLDER~1\AppData\Local\Temp\ccKV8tJ7.s:32218  .debug_str:0000000000028dd5 .LASF2021
C:\Users\SOLDER~1\AppData\Local\Temp\ccKV8tJ7.s:28778  .debug_str:000000000001ae23 .LASF2022
C:\Users\SOLDER~1\AppData\Local\Temp\ccKV8tJ7.s:27022  .debug_str:0000000000013cbf .LASF2023
C:\Users\SOLDER~1\AppData\Local\Temp\ccKV8tJ7.s:33186  .debug_str:000000000002ccec .LASF2024
C:\Users\SOLDER~1\AppData\Local\Temp\ccKV8tJ7.s:33602  .debug_str:000000000002e784 .LASF2025
C:\Users\SOLDER~1\AppData\Local\Temp\ccKV8tJ7.s:25918  .debug_str:000000000000f556 .LASF2026
C:\Users\SOLDER~1\AppData\Local\Temp\ccKV8tJ7.s:24478  .debug_str:0000000000009748 .LASF2027
C:\Users\SOLDER~1\AppData\Local\Temp\ccKV8tJ7.s:32308  .debug_str:000000000002939a .LASF2028
C:\Users\SOLDER~1\AppData\Local\Temp\ccKV8tJ7.s:30214  .debug_str:0000000000020b9f .LASF2029
C:\Users\SOLDER~1\AppData\Local\Temp\ccKV8tJ7.s:31630  .debug_str:0000000000026730 .LASF2030
C:\Users\SOLDER~1\AppData\Local\Temp\ccKV8tJ7.s:26948  .debug_str:000000000001375e .LASF2031
C:\Users\SOLDER~1\AppData\Local\Temp\ccKV8tJ7.s:24826  .debug_str:000000000000ae23 .LASF2032
C:\Users\SOLDER~1\AppData\Local\Temp\ccKV8tJ7.s:26516  .debug_str:0000000000011be7 .LASF2033
C:\Users\SOLDER~1\AppData\Local\Temp\ccKV8tJ7.s:23660  .debug_str:00000000000061d9 .LASF2034
C:\Users\SOLDER~1\AppData\Local\Temp\ccKV8tJ7.s:25646  .debug_str:000000000000e439 .LASF2035
C:\Users\SOLDER~1\AppData\Local\Temp\ccKV8tJ7.s:33226  .debug_str:000000000002cf71 .LASF2036
C:\Users\SOLDER~1\AppData\Local\Temp\ccKV8tJ7.s:32686  .debug_str:000000000002ac90 .LASF2037
C:\Users\SOLDER~1\AppData\Local\Temp\ccKV8tJ7.s:24444  .debug_str:0000000000009536 .LASF2038
C:\Users\SOLDER~1\AppData\Local\Temp\ccKV8tJ7.s:30518  .debug_str:0000000000021f15 .LASF2039
C:\Users\SOLDER~1\AppData\Local\Temp\ccKV8tJ7.s:28028  .debug_str:0000000000017de4 .LASF2040
C:\Users\SOLDER~1\AppData\Local\Temp\ccKV8tJ7.s:28756  .debug_str:000000000001acbe .LASF2041
C:\Users\SOLDER~1\AppData\Local\Temp\ccKV8tJ7.s:27426  .debug_str:0000000000015778 .LASF2042
C:\Users\SOLDER~1\AppData\Local\Temp\ccKV8tJ7.s:32644  .debug_str:000000000002a9d2 .LASF2043
C:\Users\SOLDER~1\AppData\Local\Temp\ccKV8tJ7.s:31710  .debug_str:0000000000026c74 .LASF2044
C:\Users\SOLDER~1\AppData\Local\Temp\ccKV8tJ7.s:27108  .debug_str:0000000000014282 .LASF2045
C:\Users\SOLDER~1\AppData\Local\Temp\ccKV8tJ7.s:28386  .debug_str:0000000000019592 .LASF2046
C:\Users\SOLDER~1\AppData\Local\Temp\ccKV8tJ7.s:24414  .debug_str:000000000000933b .LASF2047
C:\Users\SOLDER~1\AppData\Local\Temp\ccKV8tJ7.s:30524  .debug_str:0000000000021f81 .LASF2048
C:\Users\SOLDER~1\AppData\Local\Temp\ccKV8tJ7.s:25036  .debug_str:000000000000bb91 .LASF2049
C:\Users\SOLDER~1\AppData\Local\Temp\ccKV8tJ7.s:31428  .debug_str:0000000000025983 .LASF2050
C:\Users\SOLDER~1\AppData\Local\Temp\ccKV8tJ7.s:30076  .debug_str:00000000000202ae .LASF2051
C:\Users\SOLDER~1\AppData\Local\Temp\ccKV8tJ7.s:32042  .debug_str:000000000002821b .LASF2052
C:\Users\SOLDER~1\AppData\Local\Temp\ccKV8tJ7.s:27494  .debug_str:0000000000015bd6 .LASF2053
C:\Users\SOLDER~1\AppData\Local\Temp\ccKV8tJ7.s:33318  .debug_str:000000000002d556 .LASF2054
C:\Users\SOLDER~1\AppData\Local\Temp\ccKV8tJ7.s:22294  .debug_str:0000000000000ac6 .LASF2055
C:\Users\SOLDER~1\AppData\Local\Temp\ccKV8tJ7.s:24986  .debug_str:000000000000b83b .LASF2056
C:\Users\SOLDER~1\AppData\Local\Temp\ccKV8tJ7.s:31412  .debug_str:0000000000025888 .LASF2057
C:\Users\SOLDER~1\AppData\Local\Temp\ccKV8tJ7.s:32488  .debug_str:0000000000029f30 .LASF2058
C:\Users\SOLDER~1\AppData\Local\Temp\ccKV8tJ7.s:23308  .debug_str:0000000000004b77 .LASF2059
C:\Users\SOLDER~1\AppData\Local\Temp\ccKV8tJ7.s:31124  .debug_str:00000000000245eb .LASF2060
C:\Users\SOLDER~1\AppData\Local\Temp\ccKV8tJ7.s:33440  .debug_str:000000000002dd4a .LASF2061
C:\Users\SOLDER~1\AppData\Local\Temp\ccKV8tJ7.s:30470  .debug_str:0000000000021c0e .LASF2062
C:\Users\SOLDER~1\AppData\Local\Temp\ccKV8tJ7.s:25766  .debug_str:000000000000ec11 .LASF2063
C:\Users\SOLDER~1\AppData\Local\Temp\ccKV8tJ7.s:33146  .debug_str:000000000002ca77 .LASF2064
C:\Users\SOLDER~1\AppData\Local\Temp\ccKV8tJ7.s:25338  .debug_str:000000000000cfe2 .LASF2065
C:\Users\SOLDER~1\AppData\Local\Temp\ccKV8tJ7.s:22518  .debug_str:000000000000193e .LASF2066
C:\Users\SOLDER~1\AppData\Local\Temp\ccKV8tJ7.s:24474  .debug_str:00000000000096fd .LASF2067
C:\Users\SOLDER~1\AppData\Local\Temp\ccKV8tJ7.s:23778  .debug_str:00000000000069c8 .LASF2068
C:\Users\SOLDER~1\AppData\Local\Temp\ccKV8tJ7.s:33556  .debug_str:000000000002e4b1 .LASF2069
C:\Users\SOLDER~1\AppData\Local\Temp\ccKV8tJ7.s:23864  .debug_str:0000000000006f87 .LASF2070
C:\Users\SOLDER~1\AppData\Local\Temp\ccKV8tJ7.s:29358  .debug_str:000000000001d3c7 .LASF2071
C:\Users\SOLDER~1\AppData\Local\Temp\ccKV8tJ7.s:26810  .debug_str:0000000000012e3b .LASF2072
C:\Users\SOLDER~1\AppData\Local\Temp\ccKV8tJ7.s:31700  .debug_str:0000000000026bce .LASF2073
GAS LISTING C:\Users\SOLDER~1\AppData\Local\Temp\ccKV8tJ7.s 			page 126


C:\Users\SOLDER~1\AppData\Local\Temp\ccKV8tJ7.s:23006  .debug_str:00000000000038f8 .LASF2074
C:\Users\SOLDER~1\AppData\Local\Temp\ccKV8tJ7.s:31466  .debug_str:0000000000025bd7 .LASF2075
C:\Users\SOLDER~1\AppData\Local\Temp\ccKV8tJ7.s:30538  .debug_str:0000000000022073 .LASF2076
C:\Users\SOLDER~1\AppData\Local\Temp\ccKV8tJ7.s:25520  .debug_str:000000000000db8d .LASF2077
C:\Users\SOLDER~1\AppData\Local\Temp\ccKV8tJ7.s:27214  .debug_str:00000000000149c3 .LASF2078
C:\Users\SOLDER~1\AppData\Local\Temp\ccKV8tJ7.s:28766  .debug_str:000000000001ad73 .LASF2079
C:\Users\SOLDER~1\AppData\Local\Temp\ccKV8tJ7.s:23152  .debug_str:00000000000041de .LASF2080
C:\Users\SOLDER~1\AppData\Local\Temp\ccKV8tJ7.s:29372  .debug_str:000000000001d4bb .LASF2081
C:\Users\SOLDER~1\AppData\Local\Temp\ccKV8tJ7.s:23980  .debug_str:00000000000076eb .LASF2082
C:\Users\SOLDER~1\AppData\Local\Temp\ccKV8tJ7.s:23940  .debug_str:0000000000007473 .LASF2083
C:\Users\SOLDER~1\AppData\Local\Temp\ccKV8tJ7.s:24640  .debug_str:000000000000a1bc .LASF2084
C:\Users\SOLDER~1\AppData\Local\Temp\ccKV8tJ7.s:27430  .debug_str:00000000000157bd .LASF2085
C:\Users\SOLDER~1\AppData\Local\Temp\ccKV8tJ7.s:26772  .debug_str:0000000000012b9c .LASF2086
C:\Users\SOLDER~1\AppData\Local\Temp\ccKV8tJ7.s:29556  .debug_str:000000000001e098 .LASF2087
C:\Users\SOLDER~1\AppData\Local\Temp\ccKV8tJ7.s:29316  .debug_str:000000000001d13b .LASF2088
C:\Users\SOLDER~1\AppData\Local\Temp\ccKV8tJ7.s:27666  .debug_str:00000000000166b0 .LASF2089
C:\Users\SOLDER~1\AppData\Local\Temp\ccKV8tJ7.s:32200  .debug_str:0000000000028c75 .LASF2090
C:\Users\SOLDER~1\AppData\Local\Temp\ccKV8tJ7.s:29172  .debug_str:000000000001c765 .LASF2091
C:\Users\SOLDER~1\AppData\Local\Temp\ccKV8tJ7.s:27358  .debug_str:000000000001530d .LASF2092
C:\Users\SOLDER~1\AppData\Local\Temp\ccKV8tJ7.s:25164  .debug_str:000000000000c3f6 .LASF2093
C:\Users\SOLDER~1\AppData\Local\Temp\ccKV8tJ7.s:26684  .debug_str:0000000000012613 .LASF2094
C:\Users\SOLDER~1\AppData\Local\Temp\ccKV8tJ7.s:33708  .debug_str:000000000002ee33 .LASF2095
C:\Users\SOLDER~1\AppData\Local\Temp\ccKV8tJ7.s:31566  .debug_str:00000000000262b2 .LASF2096
C:\Users\SOLDER~1\AppData\Local\Temp\ccKV8tJ7.s:28378  .debug_str:00000000000194fc .LASF2097
C:\Users\SOLDER~1\AppData\Local\Temp\ccKV8tJ7.s:30410  .debug_str:0000000000021845 .LASF2098
C:\Users\SOLDER~1\AppData\Local\Temp\ccKV8tJ7.s:32412  .debug_str:0000000000029a70 .LASF2099
C:\Users\SOLDER~1\AppData\Local\Temp\ccKV8tJ7.s:26818  .debug_str:0000000000012eb4 .LASF2100
C:\Users\SOLDER~1\AppData\Local\Temp\ccKV8tJ7.s:29746  .debug_str:000000000001ed0d .LASF2101
C:\Users\SOLDER~1\AppData\Local\Temp\ccKV8tJ7.s:31678  .debug_str:0000000000026a7a .LASF2102
C:\Users\SOLDER~1\AppData\Local\Temp\ccKV8tJ7.s:25568  .debug_str:000000000000deb5 .LASF2103
C:\Users\SOLDER~1\AppData\Local\Temp\ccKV8tJ7.s:23028  .debug_str:0000000000003a51 .LASF2104
C:\Users\SOLDER~1\AppData\Local\Temp\ccKV8tJ7.s:23776  .debug_str:00000000000069a2 .LASF2105
C:\Users\SOLDER~1\AppData\Local\Temp\ccKV8tJ7.s:30904  .debug_str:00000000000237a2 .LASF2106
C:\Users\SOLDER~1\AppData\Local\Temp\ccKV8tJ7.s:27718  .debug_str:00000000000169c5 .LASF2107
C:\Users\SOLDER~1\AppData\Local\Temp\ccKV8tJ7.s:26756  .debug_str:0000000000012a6b .LASF2108
C:\Users\SOLDER~1\AppData\Local\Temp\ccKV8tJ7.s:33446  .debug_str:000000000002ddb3 .LASF2109
C:\Users\SOLDER~1\AppData\Local\Temp\ccKV8tJ7.s:32254  .debug_str:0000000000029044 .LASF2110
C:\Users\SOLDER~1\AppData\Local\Temp\ccKV8tJ7.s:33096  .debug_str:000000000002c755 .LASF2111
C:\Users\SOLDER~1\AppData\Local\Temp\ccKV8tJ7.s:27418  .debug_str:00000000000156f4 .LASF2112
C:\Users\SOLDER~1\AppData\Local\Temp\ccKV8tJ7.s:33640  .debug_str:000000000002e9ec .LASF2113
C:\Users\SOLDER~1\AppData\Local\Temp\ccKV8tJ7.s:28346  .debug_str:00000000000192fe .LASF2114
C:\Users\SOLDER~1\AppData\Local\Temp\ccKV8tJ7.s:28304  .debug_str:000000000001904b .LASF2115
C:\Users\SOLDER~1\AppData\Local\Temp\ccKV8tJ7.s:29016  .debug_str:000000000001bcfb .LASF2116
C:\Users\SOLDER~1\AppData\Local\Temp\ccKV8tJ7.s:24430  .debug_str:0000000000009455 .LASF2117
C:\Users\SOLDER~1\AppData\Local\Temp\ccKV8tJ7.s:32722  .debug_str:000000000002aea6 .LASF2118
C:\Users\SOLDER~1\AppData\Local\Temp\ccKV8tJ7.s:30824  .debug_str:0000000000023292 .LASF2119
C:\Users\SOLDER~1\AppData\Local\Temp\ccKV8tJ7.s:33586  .debug_str:000000000002e68d .LASF2120
C:\Users\SOLDER~1\AppData\Local\Temp\ccKV8tJ7.s:23838  .debug_str:0000000000006da2 .LASF2121
C:\Users\SOLDER~1\AppData\Local\Temp\ccKV8tJ7.s:28422  .debug_str:000000000001981b .LASF2122
C:\Users\SOLDER~1\AppData\Local\Temp\ccKV8tJ7.s:27454  .debug_str:0000000000015944 .LASF2123
C:\Users\SOLDER~1\AppData\Local\Temp\ccKV8tJ7.s:26128  .debug_str:000000000001035b .LASF2124
C:\Users\SOLDER~1\AppData\Local\Temp\ccKV8tJ7.s:33092  .debug_str:000000000002c6f7 .LASF2125
C:\Users\SOLDER~1\AppData\Local\Temp\ccKV8tJ7.s:22914  .debug_str:000000000000331d .LASF2126
C:\Users\SOLDER~1\AppData\Local\Temp\ccKV8tJ7.s:29908  .debug_str:000000000001f7e0 .LASF2127
C:\Users\SOLDER~1\AppData\Local\Temp\ccKV8tJ7.s:27834  .debug_str:00000000000170f3 .LASF2128
C:\Users\SOLDER~1\AppData\Local\Temp\ccKV8tJ7.s:30442  .debug_str:0000000000021a44 .LASF2129
C:\Users\SOLDER~1\AppData\Local\Temp\ccKV8tJ7.s:26624  .debug_str:0000000000012259 .LASF2130
GAS LISTING C:\Users\SOLDER~1\AppData\Local\Temp\ccKV8tJ7.s 			page 127


C:\Users\SOLDER~1\AppData\Local\Temp\ccKV8tJ7.s:24882  .debug_str:000000000000b1a8 .LASF2131
C:\Users\SOLDER~1\AppData\Local\Temp\ccKV8tJ7.s:33654  .debug_str:000000000002eac6 .LASF2132
C:\Users\SOLDER~1\AppData\Local\Temp\ccKV8tJ7.s:25956  .debug_str:000000000000f7e8 .LASF2133
C:\Users\SOLDER~1\AppData\Local\Temp\ccKV8tJ7.s:27948  .debug_str:00000000000178cf .LASF2134
C:\Users\SOLDER~1\AppData\Local\Temp\ccKV8tJ7.s:33504  .debug_str:000000000002e16f .LASF2135
C:\Users\SOLDER~1\AppData\Local\Temp\ccKV8tJ7.s:27272  .debug_str:0000000000014dbb .LASF2136
C:\Users\SOLDER~1\AppData\Local\Temp\ccKV8tJ7.s:31692  .debug_str:0000000000026b40 .LASF2137
C:\Users\SOLDER~1\AppData\Local\Temp\ccKV8tJ7.s:27140  .debug_str:00000000000144e7 .LASF2138
C:\Users\SOLDER~1\AppData\Local\Temp\ccKV8tJ7.s:23894  .debug_str:000000000000717c .LASF2139
C:\Users\SOLDER~1\AppData\Local\Temp\ccKV8tJ7.s:22976  .debug_str:0000000000003707 .LASF2140
C:\Users\SOLDER~1\AppData\Local\Temp\ccKV8tJ7.s:29850  .debug_str:000000000001f3df .LASF2141
C:\Users\SOLDER~1\AppData\Local\Temp\ccKV8tJ7.s:31214  .debug_str:0000000000024be4 .LASF2142
C:\Users\SOLDER~1\AppData\Local\Temp\ccKV8tJ7.s:25620  .debug_str:000000000000e248 .LASF2143
C:\Users\SOLDER~1\AppData\Local\Temp\ccKV8tJ7.s:31734  .debug_str:0000000000026e2a .LASF2144
C:\Users\SOLDER~1\AppData\Local\Temp\ccKV8tJ7.s:26272  .debug_str:0000000000010c97 .LASF2145
C:\Users\SOLDER~1\AppData\Local\Temp\ccKV8tJ7.s:32652  .debug_str:000000000002aa54 .LASF2146
C:\Users\SOLDER~1\AppData\Local\Temp\ccKV8tJ7.s:32614  .debug_str:000000000002a7c4 .LASF2147
C:\Users\SOLDER~1\AppData\Local\Temp\ccKV8tJ7.s:33340  .debug_str:000000000002d709 .LASF2148
C:\Users\SOLDER~1\AppData\Local\Temp\ccKV8tJ7.s:29758  .debug_str:000000000001edf2 .LASF2149
C:\Users\SOLDER~1\AppData\Local\Temp\ccKV8tJ7.s:25230  .debug_str:000000000000c89e .LASF2150
C:\Users\SOLDER~1\AppData\Local\Temp\ccKV8tJ7.s:23458  .debug_str:0000000000005494 .LASF2151
C:\Users\SOLDER~1\AppData\Local\Temp\ccKV8tJ7.s:27366  .debug_str:0000000000015397 .LASF2152
C:\Users\SOLDER~1\AppData\Local\Temp\ccKV8tJ7.s:31754  .debug_str:0000000000026f81 .LASF2153
C:\Users\SOLDER~1\AppData\Local\Temp\ccKV8tJ7.s:24590  .debug_str:0000000000009e5b .LASF2154
C:\Users\SOLDER~1\AppData\Local\Temp\ccKV8tJ7.s:23646  .debug_str:00000000000060f1 .LASF2155
C:\Users\SOLDER~1\AppData\Local\Temp\ccKV8tJ7.s:31368  .debug_str:00000000000255ba .LASF2156
C:\Users\SOLDER~1\AppData\Local\Temp\ccKV8tJ7.s:29298  .debug_str:000000000001cfe5 .LASF2157
C:\Users\SOLDER~1\AppData\Local\Temp\ccKV8tJ7.s:30802  .debug_str:0000000000023117 .LASF2158
C:\Users\SOLDER~1\AppData\Local\Temp\ccKV8tJ7.s:26126  .debug_str:0000000000010335 .LASF2159
C:\Users\SOLDER~1\AppData\Local\Temp\ccKV8tJ7.s:24012  .debug_str:00000000000078b6 .LASF2160
C:\Users\SOLDER~1\AppData\Local\Temp\ccKV8tJ7.s:33496  .debug_str:000000000002e0f4 .LASF2161
C:\Users\SOLDER~1\AppData\Local\Temp\ccKV8tJ7.s:22842  .debug_str:0000000000002e83 .LASF2162
C:\Users\SOLDER~1\AppData\Local\Temp\ccKV8tJ7.s:24810  .debug_str:000000000000acd9 .LASF2163
C:\Users\SOLDER~1\AppData\Local\Temp\ccKV8tJ7.s:24188  .debug_str:000000000000844d .LASF2164
C:\Users\SOLDER~1\AppData\Local\Temp\ccKV8tJ7.s:22202  .debug_str:00000000000003f1 .LASF2165
C:\Users\SOLDER~1\AppData\Local\Temp\ccKV8tJ7.s:24110  .debug_str:0000000000007f47 .LASF2166
C:\Users\SOLDER~1\AppData\Local\Temp\ccKV8tJ7.s:29612  .debug_str:000000000001e454 .LASF2167
C:\Users\SOLDER~1\AppData\Local\Temp\ccKV8tJ7.s:27160  .debug_str:0000000000014642 .LASF2168
C:\Users\SOLDER~1\AppData\Local\Temp\ccKV8tJ7.s:27962  .debug_str:00000000000179c6 .LASF2169
C:\Users\SOLDER~1\AppData\Local\Temp\ccKV8tJ7.s:23328  .debug_str:0000000000004cc2 .LASF2170
C:\Users\SOLDER~1\AppData\Local\Temp\ccKV8tJ7.s:31804  .debug_str:00000000000272bd .LASF2171
C:\Users\SOLDER~1\AppData\Local\Temp\ccKV8tJ7.s:30870  .debug_str:000000000002355f .LASF2172
C:\Users\SOLDER~1\AppData\Local\Temp\ccKV8tJ7.s:25760  .debug_str:000000000000ebb2 .LASF2173
C:\Users\SOLDER~1\AppData\Local\Temp\ccKV8tJ7.s:27448  .debug_str:00000000000158cf .LASF2174
C:\Users\SOLDER~1\AppData\Local\Temp\ccKV8tJ7.s:28854  .debug_str:000000000001b328 .LASF2175
C:\Users\SOLDER~1\AppData\Local\Temp\ccKV8tJ7.s:28108  .debug_str:000000000001837e .LASF2176
C:\Users\SOLDER~1\AppData\Local\Temp\ccKV8tJ7.s:23072  .debug_str:0000000000003d10 .LASF2177
C:\Users\SOLDER~1\AppData\Local\Temp\ccKV8tJ7.s:29146  .debug_str:000000000001c5c4 .LASF2178
C:\Users\SOLDER~1\AppData\Local\Temp\ccKV8tJ7.s:26112  .debug_str:0000000000010279 .LASF2179
C:\Users\SOLDER~1\AppData\Local\Temp\ccKV8tJ7.s:28224  .debug_str:0000000000018ad7 .LASF2180
C:\Users\SOLDER~1\AppData\Local\Temp\ccKV8tJ7.s:24496  .debug_str:0000000000009872 .LASF2181
C:\Users\SOLDER~1\AppData\Local\Temp\ccKV8tJ7.s:26362  .debug_str:00000000000111ee .LASF2182
C:\Users\SOLDER~1\AppData\Local\Temp\ccKV8tJ7.s:22718  .debug_str:0000000000002686 .LASF2183
C:\Users\SOLDER~1\AppData\Local\Temp\ccKV8tJ7.s:31666  .debug_str:00000000000269b1 .LASF2184
C:\Users\SOLDER~1\AppData\Local\Temp\ccKV8tJ7.s:27062  .debug_str:0000000000013f92 .LASF2185
C:\Users\SOLDER~1\AppData\Local\Temp\ccKV8tJ7.s:25152  .debug_str:000000000000c32c .LASF2186
C:\Users\SOLDER~1\AppData\Local\Temp\ccKV8tJ7.s:24442  .debug_str:0000000000009523 .LASF2187
GAS LISTING C:\Users\SOLDER~1\AppData\Local\Temp\ccKV8tJ7.s 			page 128


C:\Users\SOLDER~1\AppData\Local\Temp\ccKV8tJ7.s:30358  .debug_str:00000000000214b9 .LASF2188
C:\Users\SOLDER~1\AppData\Local\Temp\ccKV8tJ7.s:23008  .debug_str:000000000000391e .LASF2189
C:\Users\SOLDER~1\AppData\Local\Temp\ccKV8tJ7.s:26994  .debug_str:0000000000013a93 .LASF2190
C:\Users\SOLDER~1\AppData\Local\Temp\ccKV8tJ7.s:25774  .debug_str:000000000000ec8a .LASF2191
C:\Users\SOLDER~1\AppData\Local\Temp\ccKV8tJ7.s:26940  .debug_str:00000000000136ce .LASF2192
C:\Users\SOLDER~1\AppData\Local\Temp\ccKV8tJ7.s:31430  .debug_str:00000000000259a8 .LASF2193
C:\Users\SOLDER~1\AppData\Local\Temp\ccKV8tJ7.s:32754  .debug_str:000000000002b0c4 .LASF2194
C:\Users\SOLDER~1\AppData\Local\Temp\ccKV8tJ7.s:30060  .debug_str:00000000000201bf .LASF2195
C:\Users\SOLDER~1\AppData\Local\Temp\ccKV8tJ7.s:28882  .debug_str:000000000001b4ac .LASF2196
C:\Users\SOLDER~1\AppData\Local\Temp\ccKV8tJ7.s:25698  .debug_str:000000000000e790 .LASF2197
C:\Users\SOLDER~1\AppData\Local\Temp\ccKV8tJ7.s:29244  .debug_str:000000000001cc3e .LASF2198
C:\Users\SOLDER~1\AppData\Local\Temp\ccKV8tJ7.s:31382  .debug_str:000000000002569d .LASF2199
C:\Users\SOLDER~1\AppData\Local\Temp\ccKV8tJ7.s:25226  .debug_str:000000000000c85d .LASF2200
C:\Users\SOLDER~1\AppData\Local\Temp\ccKV8tJ7.s:22956  .debug_str:00000000000035d9 .LASF2201
C:\Users\SOLDER~1\AppData\Local\Temp\ccKV8tJ7.s:23342  .debug_str:0000000000004d94 .LASF2202
C:\Users\SOLDER~1\AppData\Local\Temp\ccKV8tJ7.s:32346  .debug_str:00000000000295fa .LASF2203
C:\Users\SOLDER~1\AppData\Local\Temp\ccKV8tJ7.s:33444  .debug_str:000000000002dd92 .LASF2204
C:\Users\SOLDER~1\AppData\Local\Temp\ccKV8tJ7.s:27556  .debug_str:0000000000015fb1 .LASF2205
C:\Users\SOLDER~1\AppData\Local\Temp\ccKV8tJ7.s:22700  .debug_str:000000000000255d .LASF2206
C:\Users\SOLDER~1\AppData\Local\Temp\ccKV8tJ7.s:22662  .debug_str:00000000000022df .LASF2207
C:\Users\SOLDER~1\AppData\Local\Temp\ccKV8tJ7.s:29738  .debug_str:000000000001ec88 .LASF2208
C:\Users\SOLDER~1\AppData\Local\Temp\ccKV8tJ7.s:28834  .debug_str:000000000001b206 .LASF2209
C:\Users\SOLDER~1\AppData\Local\Temp\ccKV8tJ7.s:26268  .debug_str:0000000000010c52 .LASF2210
C:\Users\SOLDER~1\AppData\Local\Temp\ccKV8tJ7.s:26514  .debug_str:0000000000011bd3 .LASF2211
C:\Users\SOLDER~1\AppData\Local\Temp\ccKV8tJ7.s:27880  .debug_str:0000000000017417 .LASF2212
C:\Users\SOLDER~1\AppData\Local\Temp\ccKV8tJ7.s:33076  .debug_str:000000000002c5d8 .LASF2213
C:\Users\SOLDER~1\AppData\Local\Temp\ccKV8tJ7.s:30490  .debug_str:0000000000021d50 .LASF2214
C:\Users\SOLDER~1\AppData\Local\Temp\ccKV8tJ7.s:28554  .debug_str:000000000001a025 .LASF2215
C:\Users\SOLDER~1\AppData\Local\Temp\ccKV8tJ7.s:27756  .debug_str:0000000000016c40 .LASF2216
C:\Users\SOLDER~1\AppData\Local\Temp\ccKV8tJ7.s:22918  .debug_str:0000000000003369 .LASF2217
C:\Users\SOLDER~1\AppData\Local\Temp\ccKV8tJ7.s:27684  .debug_str:00000000000167d5 .LASF2218
C:\Users\SOLDER~1\AppData\Local\Temp\ccKV8tJ7.s:27550  .debug_str:0000000000015f69 .LASF2219
C:\Users\SOLDER~1\AppData\Local\Temp\ccKV8tJ7.s:24780  .debug_str:000000000000ab15 .LASF2220
C:\Users\SOLDER~1\AppData\Local\Temp\ccKV8tJ7.s:30034  .debug_str:0000000000020004 .LASF2221
C:\Users\SOLDER~1\AppData\Local\Temp\ccKV8tJ7.s:31938  .debug_str:0000000000027b7d .LASF2222
C:\Users\SOLDER~1\AppData\Local\Temp\ccKV8tJ7.s:23730  .debug_str:0000000000006680 .LASF2223
C:\Users\SOLDER~1\AppData\Local\Temp\ccKV8tJ7.s:24468  .debug_str:000000000000969f .LASF2224
C:\Users\SOLDER~1\AppData\Local\Temp\ccKV8tJ7.s:26672  .debug_str:000000000001254b .LASF2225
C:\Users\SOLDER~1\AppData\Local\Temp\ccKV8tJ7.s:27106  .debug_str:0000000000014261 .LASF2226
C:\Users\SOLDER~1\AppData\Local\Temp\ccKV8tJ7.s:29268  .debug_str:000000000001cdde .LASF2227
C:\Users\SOLDER~1\AppData\Local\Temp\ccKV8tJ7.s:33224  .debug_str:000000000002cf50 .LASF2228
C:\Users\SOLDER~1\AppData\Local\Temp\ccKV8tJ7.s:24198  .debug_str:0000000000008507 .LASF2229
C:\Users\SOLDER~1\AppData\Local\Temp\ccKV8tJ7.s:30370  .debug_str:0000000000021596 .LASF2230
C:\Users\SOLDER~1\AppData\Local\Temp\ccKV8tJ7.s:31268  .debug_str:0000000000024f52 .LASF2231
C:\Users\SOLDER~1\AppData\Local\Temp\ccKV8tJ7.s:27152  .debug_str:00000000000145a7 .LASF2232
C:\Users\SOLDER~1\AppData\Local\Temp\ccKV8tJ7.s:23798  .debug_str:0000000000006aff .LASF2233
C:\Users\SOLDER~1\AppData\Local\Temp\ccKV8tJ7.s:26580  .debug_str:0000000000011fa1 .LASF2234
C:\Users\SOLDER~1\AppData\Local\Temp\ccKV8tJ7.s:23422  .debug_str:0000000000005274 .LASF2235
C:\Users\SOLDER~1\AppData\Local\Temp\ccKV8tJ7.s:33282  .debug_str:000000000002d301 .LASF2236
C:\Users\SOLDER~1\AppData\Local\Temp\ccKV8tJ7.s:30090  .debug_str:000000000002039e .LASF2237
C:\Users\SOLDER~1\AppData\Local\Temp\ccKV8tJ7.s:32704  .debug_str:000000000002ada3 .LASF2238
C:\Users\SOLDER~1\AppData\Local\Temp\ccKV8tJ7.s:25454  .debug_str:000000000000d765 .LASF2239
C:\Users\SOLDER~1\AppData\Local\Temp\ccKV8tJ7.s:26906  .debug_str:0000000000013476 .LASF2240
C:\Users\SOLDER~1\AppData\Local\Temp\ccKV8tJ7.s:22622  .debug_str:0000000000002036 .LASF2241
C:\Users\SOLDER~1\AppData\Local\Temp\ccKV8tJ7.s:31774  .debug_str:00000000000270ec .LASF2242
C:\Users\SOLDER~1\AppData\Local\Temp\ccKV8tJ7.s:31716  .debug_str:0000000000026cef .LASF2243
C:\Users\SOLDER~1\AppData\Local\Temp\ccKV8tJ7.s:26046  .debug_str:000000000000fe42 .LASF2244
GAS LISTING C:\Users\SOLDER~1\AppData\Local\Temp\ccKV8tJ7.s 			page 129


C:\Users\SOLDER~1\AppData\Local\Temp\ccKV8tJ7.s:22226  .debug_str:000000000000057d .LASF2245
C:\Users\SOLDER~1\AppData\Local\Temp\ccKV8tJ7.s:22178  .debug_str:000000000000023c .LASF2246
C:\Users\SOLDER~1\AppData\Local\Temp\ccKV8tJ7.s:28010  .debug_str:0000000000017cd5 .LASF2247
C:\Users\SOLDER~1\AppData\Local\Temp\ccKV8tJ7.s:24082  .debug_str:0000000000007d65 .LASF2248
C:\Users\SOLDER~1\AppData\Local\Temp\ccKV8tJ7.s:27180  .debug_str:00000000000147ae .LASF2249
C:\Users\SOLDER~1\AppData\Local\Temp\ccKV8tJ7.s:25388  .debug_str:000000000000d30e .LASF2250
C:\Users\SOLDER~1\AppData\Local\Temp\ccKV8tJ7.s:24854  .debug_str:000000000000b003 .LASF2251
C:\Users\SOLDER~1\AppData\Local\Temp\ccKV8tJ7.s:33418  .debug_str:000000000002dbe5 .LASF2252
C:\Users\SOLDER~1\AppData\Local\Temp\ccKV8tJ7.s:26566  .debug_str:0000000000011ee2 .LASF2253
C:\Users\SOLDER~1\AppData\Local\Temp\ccKV8tJ7.s:28350  .debug_str:0000000000019345 .LASF2254
C:\Users\SOLDER~1\AppData\Local\Temp\ccKV8tJ7.s:27884  .debug_str:0000000000017481 .LASF2255
C:\Users\SOLDER~1\AppData\Local\Temp\ccKV8tJ7.s:30382  .debug_str:000000000002167f .LASF2256
C:\Users\SOLDER~1\AppData\Local\Temp\ccKV8tJ7.s:32478  .debug_str:0000000000029ebc .LASF2257
C:\Users\SOLDER~1\AppData\Local\Temp\ccKV8tJ7.s:25288  .debug_str:000000000000cc8b .LASF2258
C:\Users\SOLDER~1\AppData\Local\Temp\ccKV8tJ7.s:22800  .debug_str:0000000000002be9 .LASF2259
C:\Users\SOLDER~1\AppData\Local\Temp\ccKV8tJ7.s:30962  .debug_str:0000000000023b92 .LASF2260
C:\Users\SOLDER~1\AppData\Local\Temp\ccKV8tJ7.s:28468  .debug_str:0000000000019ae4 .LASF2261
C:\Users\SOLDER~1\AppData\Local\Temp\ccKV8tJ7.s:24158  .debug_str:0000000000008275 .LASF2262
C:\Users\SOLDER~1\AppData\Local\Temp\ccKV8tJ7.s:23382  .debug_str:0000000000004ff1 .LASF2263
C:\Users\SOLDER~1\AppData\Local\Temp\ccKV8tJ7.s:30038  .debug_str:000000000002003b .LASF2264
C:\Users\SOLDER~1\AppData\Local\Temp\ccKV8tJ7.s:26384  .debug_str:0000000000011373 .LASF2265
C:\Users\SOLDER~1\AppData\Local\Temp\ccKV8tJ7.s:25920  .debug_str:000000000000f57b .LASF2266
C:\Users\SOLDER~1\AppData\Local\Temp\ccKV8tJ7.s:28426  .debug_str:000000000001986a .LASF2267
C:\Users\SOLDER~1\AppData\Local\Temp\ccKV8tJ7.s:25720  .debug_str:000000000000e8fe .LASF2268
C:\Users\SOLDER~1\AppData\Local\Temp\ccKV8tJ7.s:22398  .debug_str:00000000000011b2 .LASF2269
C:\Users\SOLDER~1\AppData\Local\Temp\ccKV8tJ7.s:31962  .debug_str:0000000000027d0a .LASF2270
C:\Users\SOLDER~1\AppData\Local\Temp\ccKV8tJ7.s:32702  .debug_str:000000000002ad8f .LASF2271
C:\Users\SOLDER~1\AppData\Local\Temp\ccKV8tJ7.s:32894  .debug_str:000000000002b9d2 .LASF2272
C:\Users\SOLDER~1\AppData\Local\Temp\ccKV8tJ7.s:31980  .debug_str:0000000000027e3a .LASF2273
C:\Users\SOLDER~1\AppData\Local\Temp\ccKV8tJ7.s:22266  .debug_str:00000000000008a7 .LASF2274
C:\Users\SOLDER~1\AppData\Local\Temp\ccKV8tJ7.s:22346  .debug_str:0000000000000e8f .LASF2275
C:\Users\SOLDER~1\AppData\Local\Temp\ccKV8tJ7.s:24528  .debug_str:0000000000009a71 .LASF2276
C:\Users\SOLDER~1\AppData\Local\Temp\ccKV8tJ7.s:29844  .debug_str:000000000001f394 .LASF2277
C:\Users\SOLDER~1\AppData\Local\Temp\ccKV8tJ7.s:22574  .debug_str:0000000000001d1c .LASF2278
C:\Users\SOLDER~1\AppData\Local\Temp\ccKV8tJ7.s:33760  .debug_str:000000000002f1a0 .LASF2279
C:\Users\SOLDER~1\AppData\Local\Temp\ccKV8tJ7.s:26666  .debug_str:00000000000124fd .LASF2280
C:\Users\SOLDER~1\AppData\Local\Temp\ccKV8tJ7.s:29916  .debug_str:000000000001f86c .LASF2281
C:\Users\SOLDER~1\AppData\Local\Temp\ccKV8tJ7.s:33356  .debug_str:000000000002d814 .LASF2282
C:\Users\SOLDER~1\AppData\Local\Temp\ccKV8tJ7.s:23994  .debug_str:00000000000077b4 .LASF2283
C:\Users\SOLDER~1\AppData\Local\Temp\ccKV8tJ7.s:22758  .debug_str:000000000000294b .LASF2284
C:\Users\SOLDER~1\AppData\Local\Temp\ccKV8tJ7.s:30220  .debug_str:0000000000020c0c .LASF2285
C:\Users\SOLDER~1\AppData\Local\Temp\ccKV8tJ7.s:23954  .debug_str:0000000000007549 .LASF2286
C:\Users\SOLDER~1\AppData\Local\Temp\ccKV8tJ7.s:27968  .debug_str:0000000000017a33 .LASF2287
C:\Users\SOLDER~1\AppData\Local\Temp\ccKV8tJ7.s:26618  .debug_str:00000000000121f5 .LASF2288
C:\Users\SOLDER~1\AppData\Local\Temp\ccKV8tJ7.s:24076  .debug_str:0000000000007d12 .LASF2289
C:\Users\SOLDER~1\AppData\Local\Temp\ccKV8tJ7.s:29444  .debug_str:000000000001d9a6 .LASF2290
C:\Users\SOLDER~1\AppData\Local\Temp\ccKV8tJ7.s:29954  .debug_str:000000000001fb2c .LASF2291
C:\Users\SOLDER~1\AppData\Local\Temp\ccKV8tJ7.s:27044  .debug_str:0000000000013e37 .LASF2292
C:\Users\SOLDER~1\AppData\Local\Temp\ccKV8tJ7.s:23164  .debug_str:0000000000004296 .LASF2293
C:\Users\SOLDER~1\AppData\Local\Temp\ccKV8tJ7.s:27298  .debug_str:0000000000014f6c .LASF2294
C:\Users\SOLDER~1\AppData\Local\Temp\ccKV8tJ7.s:33728  .debug_str:000000000002efb6 .LASF2295
C:\Users\SOLDER~1\AppData\Local\Temp\ccKV8tJ7.s:24008  .debug_str:000000000000787b .LASF2296
C:\Users\SOLDER~1\AppData\Local\Temp\ccKV8tJ7.s:32664  .debug_str:000000000002ab1a .LASF2297
C:\Users\SOLDER~1\AppData\Local\Temp\ccKV8tJ7.s:30866  .debug_str:000000000002351e .LASF2298
C:\Users\SOLDER~1\AppData\Local\Temp\ccKV8tJ7.s:26910  .debug_str:00000000000134b6 .LASF2299
C:\Users\SOLDER~1\AppData\Local\Temp\ccKV8tJ7.s:30158  .debug_str:00000000000207ef .LASF2300
C:\Users\SOLDER~1\AppData\Local\Temp\ccKV8tJ7.s:32988  .debug_str:000000000002bffc .LASF2301
GAS LISTING C:\Users\SOLDER~1\AppData\Local\Temp\ccKV8tJ7.s 			page 130


C:\Users\SOLDER~1\AppData\Local\Temp\ccKV8tJ7.s:26404  .debug_str:000000000001149c .LASF2302
C:\Users\SOLDER~1\AppData\Local\Temp\ccKV8tJ7.s:30648  .debug_str:00000000000226ff .LASF2303
C:\Users\SOLDER~1\AppData\Local\Temp\ccKV8tJ7.s:27946  .debug_str:00000000000178ad .LASF2304
C:\Users\SOLDER~1\AppData\Local\Temp\ccKV8tJ7.s:26832  .debug_str:0000000000012f98 .LASF2305
C:\Users\SOLDER~1\AppData\Local\Temp\ccKV8tJ7.s:29318  .debug_str:000000000001d160 .LASF2306
C:\Users\SOLDER~1\AppData\Local\Temp\ccKV8tJ7.s:32706  .debug_str:000000000002adc3 .LASF2307
C:\Users\SOLDER~1\AppData\Local\Temp\ccKV8tJ7.s:26446  .debug_str:000000000001178e .LASF2308
C:\Users\SOLDER~1\AppData\Local\Temp\ccKV8tJ7.s:27166  .debug_str:00000000000146b9 .LASF2309
C:\Users\SOLDER~1\AppData\Local\Temp\ccKV8tJ7.s:25794  .debug_str:000000000000eda1 .LASF2310
C:\Users\SOLDER~1\AppData\Local\Temp\ccKV8tJ7.s:24832  .debug_str:000000000000ae89 .LASF2311
C:\Users\SOLDER~1\AppData\Local\Temp\ccKV8tJ7.s:32584  .debug_str:000000000002a5ac .LASF2312
C:\Users\SOLDER~1\AppData\Local\Temp\ccKV8tJ7.s:32726  .debug_str:000000000002aeed .LASF2313
C:\Users\SOLDER~1\AppData\Local\Temp\ccKV8tJ7.s:25170  .debug_str:000000000000c464 .LASF2314
C:\Users\SOLDER~1\AppData\Local\Temp\ccKV8tJ7.s:26868  .debug_str:00000000000131e6 .LASF2315
C:\Users\SOLDER~1\AppData\Local\Temp\ccKV8tJ7.s:26570  .debug_str:0000000000011f16 .LASF2316
C:\Users\SOLDER~1\AppData\Local\Temp\ccKV8tJ7.s:24028  .debug_str:00000000000079d2 .LASF2317
C:\Users\SOLDER~1\AppData\Local\Temp\ccKV8tJ7.s:26378  .debug_str:00000000000112ff .LASF2318
C:\Users\SOLDER~1\AppData\Local\Temp\ccKV8tJ7.s:33432  .debug_str:000000000002dccc .LASF2319
C:\Users\SOLDER~1\AppData\Local\Temp\ccKV8tJ7.s:27524  .debug_str:0000000000015dbf .LASF2320
C:\Users\SOLDER~1\AppData\Local\Temp\ccKV8tJ7.s:30662  .debug_str:00000000000227bc .LASF2321
C:\Users\SOLDER~1\AppData\Local\Temp\ccKV8tJ7.s:27984  .debug_str:0000000000017b03 .LASF2322
C:\Users\SOLDER~1\AppData\Local\Temp\ccKV8tJ7.s:25158  .debug_str:000000000000c394 .LASF2323
C:\Users\SOLDER~1\AppData\Local\Temp\ccKV8tJ7.s:30500  .debug_str:0000000000021dfa .LASF2324
C:\Users\SOLDER~1\AppData\Local\Temp\ccKV8tJ7.s:29420  .debug_str:000000000001d82f .LASF2325
C:\Users\SOLDER~1\AppData\Local\Temp\ccKV8tJ7.s:23964  .debug_str:00000000000075dc .LASF2326
C:\Users\SOLDER~1\AppData\Local\Temp\ccKV8tJ7.s:29120  .debug_str:000000000001c3dc .LASF2327
C:\Users\SOLDER~1\AppData\Local\Temp\ccKV8tJ7.s:24758  .debug_str:000000000000a9ab .LASF2328
C:\Users\SOLDER~1\AppData\Local\Temp\ccKV8tJ7.s:24658  .debug_str:000000000000a2d9 .LASF2329
C:\Users\SOLDER~1\AppData\Local\Temp\ccKV8tJ7.s:23464  .debug_str:00000000000054dd .LASF2330
C:\Users\SOLDER~1\AppData\Local\Temp\ccKV8tJ7.s:22500  .debug_str:0000000000001855 .LASF2331
C:\Users\SOLDER~1\AppData\Local\Temp\ccKV8tJ7.s:32914  .debug_str:000000000002bb0a .LASF2332
C:\Users\SOLDER~1\AppData\Local\Temp\ccKV8tJ7.s:23412  .debug_str:00000000000051ce .LASF2333
C:\Users\SOLDER~1\AppData\Local\Temp\ccKV8tJ7.s:32216  .debug_str:0000000000028db3 .LASF2334
C:\Users\SOLDER~1\AppData\Local\Temp\ccKV8tJ7.s:25060  .debug_str:000000000000bd47 .LASF2335
C:\Users\SOLDER~1\AppData\Local\Temp\ccKV8tJ7.s:29912  .debug_str:000000000001f828 .LASF2336
C:\Users\SOLDER~1\AppData\Local\Temp\ccKV8tJ7.s:25530  .debug_str:000000000000dc32 .LASF2337
C:\Users\SOLDER~1\AppData\Local\Temp\ccKV8tJ7.s:33416  .debug_str:000000000002dbc2 .LASF2338
C:\Users\SOLDER~1\AppData\Local\Temp\ccKV8tJ7.s:25300  .debug_str:000000000000cd68 .LASF2339
C:\Users\SOLDER~1\AppData\Local\Temp\ccKV8tJ7.s:30124  .debug_str:00000000000205c9 .LASF2340
C:\Users\SOLDER~1\AppData\Local\Temp\ccKV8tJ7.s:29996  .debug_str:000000000001fd92 .LASF2341
C:\Users\SOLDER~1\AppData\Local\Temp\ccKV8tJ7.s:33002  .debug_str:000000000002c0c7 .LASF2342
C:\Users\SOLDER~1\AppData\Local\Temp\ccKV8tJ7.s:25160  .debug_str:000000000000c3ac .LASF2343
C:\Users\SOLDER~1\AppData\Local\Temp\ccKV8tJ7.s:31798  .debug_str:000000000002725c .LASF2344
C:\Users\SOLDER~1\AppData\Local\Temp\ccKV8tJ7.s:26306  .debug_str:0000000000010e8e .LASF2345
C:\Users\SOLDER~1\AppData\Local\Temp\ccKV8tJ7.s:25680  .debug_str:000000000000e680 .LASF2346
C:\Users\SOLDER~1\AppData\Local\Temp\ccKV8tJ7.s:32110  .debug_str:00000000000286ce .LASF2347
C:\Users\SOLDER~1\AppData\Local\Temp\ccKV8tJ7.s:30302  .debug_str:0000000000021143 .LASF2348
C:\Users\SOLDER~1\AppData\Local\Temp\ccKV8tJ7.s:24094  .debug_str:0000000000007e3b .LASF2349
C:\Users\SOLDER~1\AppData\Local\Temp\ccKV8tJ7.s:29090  .debug_str:000000000001c1fa .LASF2350
C:\Users\SOLDER~1\AppData\Local\Temp\ccKV8tJ7.s:32306  .debug_str:0000000000029384 .LASF2351
C:\Users\SOLDER~1\AppData\Local\Temp\ccKV8tJ7.s:30798  .debug_str:00000000000230d5 .LASF2352
C:\Users\SOLDER~1\AppData\Local\Temp\ccKV8tJ7.s:24732  .debug_str:000000000000a7f9 .LASF2353
C:\Users\SOLDER~1\AppData\Local\Temp\ccKV8tJ7.s:33320  .debug_str:000000000002d57b .LASF2354
C:\Users\SOLDER~1\AppData\Local\Temp\ccKV8tJ7.s:25534  .debug_str:000000000000dc6b .LASF2355
C:\Users\SOLDER~1\AppData\Local\Temp\ccKV8tJ7.s:28286  .debug_str:0000000000018f0f .LASF2356
C:\Users\SOLDER~1\AppData\Local\Temp\ccKV8tJ7.s:25124  .debug_str:000000000000c135 .LASF2357
C:\Users\SOLDER~1\AppData\Local\Temp\ccKV8tJ7.s:29066  .debug_str:000000000001c04e .LASF2358
GAS LISTING C:\Users\SOLDER~1\AppData\Local\Temp\ccKV8tJ7.s 			page 131


C:\Users\SOLDER~1\AppData\Local\Temp\ccKV8tJ7.s:26004  .debug_str:000000000000fb54 .LASF2359
C:\Users\SOLDER~1\AppData\Local\Temp\ccKV8tJ7.s:29484  .debug_str:000000000001dc2f .LASF2360
C:\Users\SOLDER~1\AppData\Local\Temp\ccKV8tJ7.s:30196  .debug_str:0000000000020a7e .LASF2361
C:\Users\SOLDER~1\AppData\Local\Temp\ccKV8tJ7.s:25578  .debug_str:000000000000df60 .LASF2362
C:\Users\SOLDER~1\AppData\Local\Temp\ccKV8tJ7.s:26838  .debug_str:0000000000012ff1 .LASF2363
C:\Users\SOLDER~1\AppData\Local\Temp\ccKV8tJ7.s:24878  .debug_str:000000000000b171 .LASF2364
C:\Users\SOLDER~1\AppData\Local\Temp\ccKV8tJ7.s:32878  .debug_str:000000000002b8ea .LASF2365
C:\Users\SOLDER~1\AppData\Local\Temp\ccKV8tJ7.s:30114  .debug_str:000000000002052c .LASF2366
C:\Users\SOLDER~1\AppData\Local\Temp\ccKV8tJ7.s:28770  .debug_str:000000000001adb0 .LASF2367
C:\Users\SOLDER~1\AppData\Local\Temp\ccKV8tJ7.s:30212  .debug_str:0000000000020b7c .LASF2368
C:\Users\SOLDER~1\AppData\Local\Temp\ccKV8tJ7.s:28260  .debug_str:0000000000018d54 .LASF2369
C:\Users\SOLDER~1\AppData\Local\Temp\ccKV8tJ7.s:22754  .debug_str:00000000000028d2 .LASF2370
C:\Users\SOLDER~1\AppData\Local\Temp\ccKV8tJ7.s:23206  .debug_str:0000000000004506 .LASF2371
C:\Users\SOLDER~1\AppData\Local\Temp\ccKV8tJ7.s:29714  .debug_str:000000000001eaf7 .LASF2372
C:\Users\SOLDER~1\AppData\Local\Temp\ccKV8tJ7.s:23190  .debug_str:0000000000004410 .LASF2373
C:\Users\SOLDER~1\AppData\Local\Temp\ccKV8tJ7.s:23030  .debug_str:0000000000003a77 .LASF2374
C:\Users\SOLDER~1\AppData\Local\Temp\ccKV8tJ7.s:23648  .debug_str:0000000000006117 .LASF2375
C:\Users\SOLDER~1\AppData\Local\Temp\ccKV8tJ7.s:28592  .debug_str:000000000001a261 .LASF2376
C:\Users\SOLDER~1\AppData\Local\Temp\ccKV8tJ7.s:24676  .debug_str:000000000000a413 .LASF2377
C:\Users\SOLDER~1\AppData\Local\Temp\ccKV8tJ7.s:22906  .debug_str:00000000000032a2 .LASF2378
C:\Users\SOLDER~1\AppData\Local\Temp\ccKV8tJ7.s:32602  .debug_str:000000000002a6de .LASF2379
C:\Users\SOLDER~1\AppData\Local\Temp\ccKV8tJ7.s:32008  .debug_str:0000000000027fd9 .LASF2380
C:\Users\SOLDER~1\AppData\Local\Temp\ccKV8tJ7.s:22256  .debug_str:0000000000000800 .LASF2381
C:\Users\SOLDER~1\AppData\Local\Temp\ccKV8tJ7.s:33720  .debug_str:000000000002ef25 .LASF2382
C:\Users\SOLDER~1\AppData\Local\Temp\ccKV8tJ7.s:29106  .debug_str:000000000001c2eb .LASF2383
C:\Users\SOLDER~1\AppData\Local\Temp\ccKV8tJ7.s:25174  .debug_str:000000000000c4b8 .LASF2384
C:\Users\SOLDER~1\AppData\Local\Temp\ccKV8tJ7.s:33266  .debug_str:000000000002d1f8 .LASF2385
C:\Users\SOLDER~1\AppData\Local\Temp\ccKV8tJ7.s:32642  .debug_str:000000000002a9b0 .LASF2386
C:\Users\SOLDER~1\AppData\Local\Temp\ccKV8tJ7.s:32966  .debug_str:000000000002be87 .LASF2387
C:\Users\SOLDER~1\AppData\Local\Temp\ccKV8tJ7.s:33456  .debug_str:000000000002de77 .LASF2388
C:\Users\SOLDER~1\AppData\Local\Temp\ccKV8tJ7.s:27332  .debug_str:000000000001517f .LASF2389
C:\Users\SOLDER~1\AppData\Local\Temp\ccKV8tJ7.s:23792  .debug_str:0000000000006aa1 .LASF2390
C:\Users\SOLDER~1\AppData\Local\Temp\ccKV8tJ7.s:26332  .debug_str:0000000000011009 .LASF2391
C:\Users\SOLDER~1\AppData\Local\Temp\ccKV8tJ7.s:29886  .debug_str:000000000001f667 .LASF2392
C:\Users\SOLDER~1\AppData\Local\Temp\ccKV8tJ7.s:23756  .debug_str:0000000000006873 .LASF2393
C:\Users\SOLDER~1\AppData\Local\Temp\ccKV8tJ7.s:29176  .debug_str:000000000001c7a7 .LASF2394
C:\Users\SOLDER~1\AppData\Local\Temp\ccKV8tJ7.s:28898  .debug_str:000000000001b5c0 .LASF2395
C:\Users\SOLDER~1\AppData\Local\Temp\ccKV8tJ7.s:22792  .debug_str:0000000000002b6c .LASF2396
C:\Users\SOLDER~1\AppData\Local\Temp\ccKV8tJ7.s:25608  .debug_str:000000000000e160 .LASF2397
C:\Users\SOLDER~1\AppData\Local\Temp\ccKV8tJ7.s:26952  .debug_str:0000000000013799 .LASF2398
C:\Users\SOLDER~1\AppData\Local\Temp\ccKV8tJ7.s:31138  .debug_str:00000000000246e6 .LASF2399
C:\Users\SOLDER~1\AppData\Local\Temp\ccKV8tJ7.s:24252  .debug_str:0000000000008840 .LASF2400
C:\Users\SOLDER~1\AppData\Local\Temp\ccKV8tJ7.s:25820  .debug_str:000000000000ef4c .LASF2401
C:\Users\SOLDER~1\AppData\Local\Temp\ccKV8tJ7.s:26522  .debug_str:0000000000011c44 .LASF2402
C:\Users\SOLDER~1\AppData\Local\Temp\ccKV8tJ7.s:30992  .debug_str:0000000000023d87 .LASF2403
C:\Users\SOLDER~1\AppData\Local\Temp\ccKV8tJ7.s:25948  .debug_str:000000000000f757 .LASF2404
C:\Users\SOLDER~1\AppData\Local\Temp\ccKV8tJ7.s:24972  .debug_str:000000000000b772 .LASF2405
C:\Users\SOLDER~1\AppData\Local\Temp\ccKV8tJ7.s:31444  .debug_str:0000000000025a89 .LASF2406
C:\Users\SOLDER~1\AppData\Local\Temp\ccKV8tJ7.s:29004  .debug_str:000000000001bc3b .LASF2407
C:\Users\SOLDER~1\AppData\Local\Temp\ccKV8tJ7.s:27204  .debug_str:0000000000014933 .LASF2408
C:\Users\SOLDER~1\AppData\Local\Temp\ccKV8tJ7.s:29390  .debug_str:000000000001d62a .LASF2409
C:\Users\SOLDER~1\AppData\Local\Temp\ccKV8tJ7.s:23310  .debug_str:0000000000004b9d .LASF2410
C:\Users\SOLDER~1\AppData\Local\Temp\ccKV8tJ7.s:23750  .debug_str:00000000000067ff .LASF2411
C:\Users\SOLDER~1\AppData\Local\Temp\ccKV8tJ7.s:24866  .debug_str:000000000000b0b6 .LASF2412
C:\Users\SOLDER~1\AppData\Local\Temp\ccKV8tJ7.s:25202  .debug_str:000000000000c6c4 .LASF2413
C:\Users\SOLDER~1\AppData\Local\Temp\ccKV8tJ7.s:30282  .debug_str:0000000000020ffb .LASF2414
C:\Users\SOLDER~1\AppData\Local\Temp\ccKV8tJ7.s:23896  .debug_str:00000000000071a2 .LASF2415
GAS LISTING C:\Users\SOLDER~1\AppData\Local\Temp\ccKV8tJ7.s 			page 132


C:\Users\SOLDER~1\AppData\Local\Temp\ccKV8tJ7.s:23174  .debug_str:000000000000432b .LASF2416
C:\Users\SOLDER~1\AppData\Local\Temp\ccKV8tJ7.s:28980  .debug_str:000000000001bae1 .LASF2417
C:\Users\SOLDER~1\AppData\Local\Temp\ccKV8tJ7.s:26038  .debug_str:000000000000fd9e .LASF2418
C:\Users\SOLDER~1\AppData\Local\Temp\ccKV8tJ7.s:27638  .debug_str:0000000000016502 .LASF2419
C:\Users\SOLDER~1\AppData\Local\Temp\ccKV8tJ7.s:29728  .debug_str:000000000001ebf1 .LASF2420
C:\Users\SOLDER~1\AppData\Local\Temp\ccKV8tJ7.s:22364  .debug_str:0000000000000f9c .LASF2421
C:\Users\SOLDER~1\AppData\Local\Temp\ccKV8tJ7.s:22480  .debug_str:0000000000001708 .LASF2422
C:\Users\SOLDER~1\AppData\Local\Temp\ccKV8tJ7.s:23358  .debug_str:0000000000004e8a .LASF2423
C:\Users\SOLDER~1\AppData\Local\Temp\ccKV8tJ7.s:33482  .debug_str:000000000002e01d .LASF2424
C:\Users\SOLDER~1\AppData\Local\Temp\ccKV8tJ7.s:24996  .debug_str:000000000000b8e1 .LASF2425
C:\Users\SOLDER~1\AppData\Local\Temp\ccKV8tJ7.s:27088  .debug_str:0000000000014154 .LASF2426
C:\Users\SOLDER~1\AppData\Local\Temp\ccKV8tJ7.s:27924  .debug_str:000000000001773e .LASF2427
C:\Users\SOLDER~1\AppData\Local\Temp\ccKV8tJ7.s:23746  .debug_str:00000000000067bf .LASF2428
C:\Users\SOLDER~1\AppData\Local\Temp\ccKV8tJ7.s:22482  .debug_str:000000000000172a .LASF2429
C:\Users\SOLDER~1\AppData\Local\Temp\ccKV8tJ7.s:27286  .debug_str:0000000000014e9f .LASF2430
C:\Users\SOLDER~1\AppData\Local\Temp\ccKV8tJ7.s:29406  .debug_str:000000000001d743 .LASF2431
C:\Users\SOLDER~1\AppData\Local\Temp\ccKV8tJ7.s:22182  .debug_str:0000000000000281 .LASF2432
C:\Users\SOLDER~1\AppData\Local\Temp\ccKV8tJ7.s:22366  .debug_str:0000000000000fb4 .LASF2433
C:\Users\SOLDER~1\AppData\Local\Temp\ccKV8tJ7.s:28978  .debug_str:000000000001babc .LASF2434
C:\Users\SOLDER~1\AppData\Local\Temp\ccKV8tJ7.s:33078  .debug_str:000000000002c5eb .LASF2435
C:\Users\SOLDER~1\AppData\Local\Temp\ccKV8tJ7.s:22634  .debug_str:00000000000020e3 .LASF2436
C:\Users\SOLDER~1\AppData\Local\Temp\ccKV8tJ7.s:33384  .debug_str:000000000002d9dd .LASF2437
C:\Users\SOLDER~1\AppData\Local\Temp\ccKV8tJ7.s:31548  .debug_str:0000000000026186 .LASF2438
C:\Users\SOLDER~1\AppData\Local\Temp\ccKV8tJ7.s:32710  .debug_str:000000000002adfc .LASF2439
C:\Users\SOLDER~1\AppData\Local\Temp\ccKV8tJ7.s:28124  .debug_str:000000000001848f .LASF2440
C:\Users\SOLDER~1\AppData\Local\Temp\ccKV8tJ7.s:25376  .debug_str:000000000000d24d .LASF2441
C:\Users\SOLDER~1\AppData\Local\Temp\ccKV8tJ7.s:27792  .debug_str:0000000000016e72 .LASF2442
C:\Users\SOLDER~1\AppData\Local\Temp\ccKV8tJ7.s:33030  .debug_str:000000000002c29b .LASF2443
C:\Users\SOLDER~1\AppData\Local\Temp\ccKV8tJ7.s:22886  .debug_str:000000000000315b .LASF2444
C:\Users\SOLDER~1\AppData\Local\Temp\ccKV8tJ7.s:25378  .debug_str:000000000000d263 .LASF2445
C:\Users\SOLDER~1\AppData\Local\Temp\ccKV8tJ7.s:29512  .debug_str:000000000001ddba .LASF2446
C:\Users\SOLDER~1\AppData\Local\Temp\ccKV8tJ7.s:25070  .debug_str:000000000000bdeb .LASF2447
C:\Users\SOLDER~1\AppData\Local\Temp\ccKV8tJ7.s:30320  .debug_str:000000000002125f .LASF2448
C:\Users\SOLDER~1\AppData\Local\Temp\ccKV8tJ7.s:30050  .debug_str:0000000000020123 .LASF2449
C:\Users\SOLDER~1\AppData\Local\Temp\ccKV8tJ7.s:27280  .debug_str:0000000000014e4a .LASF2450
C:\Users\SOLDER~1\AppData\Local\Temp\ccKV8tJ7.s:27648  .debug_str:00000000000165a2 .LASF2451
C:\Users\SOLDER~1\AppData\Local\Temp\ccKV8tJ7.s:26842  .debug_str:000000000001302f .LASF2452
C:\Users\SOLDER~1\AppData\Local\Temp\ccKV8tJ7.s:31160  .debug_str:000000000002485b .LASF2453
C:\Users\SOLDER~1\AppData\Local\Temp\ccKV8tJ7.s:25464  .debug_str:000000000000d7f4 .LASF2454
C:\Users\SOLDER~1\AppData\Local\Temp\ccKV8tJ7.s:32814  .debug_str:000000000002b47f .LASF2455
C:\Users\SOLDER~1\AppData\Local\Temp\ccKV8tJ7.s:31348  .debug_str:0000000000025486 .LASF2456
C:\Users\SOLDER~1\AppData\Local\Temp\ccKV8tJ7.s:25690  .debug_str:000000000000e72e .LASF2457
C:\Users\SOLDER~1\AppData\Local\Temp\ccKV8tJ7.s:32188  .debug_str:0000000000028bb9 .LASF2458
C:\Users\SOLDER~1\AppData\Local\Temp\ccKV8tJ7.s:25382  .debug_str:000000000000d2a0 .LASF2459
C:\Users\SOLDER~1\AppData\Local\Temp\ccKV8tJ7.s:30190  .debug_str:0000000000020a16 .LASF2460
C:\Users\SOLDER~1\AppData\Local\Temp\ccKV8tJ7.s:22584  .debug_str:0000000000001dc9 .LASF2461
C:\Users\SOLDER~1\AppData\Local\Temp\ccKV8tJ7.s:31662  .debug_str:000000000002695f .LASF2462
C:\Users\SOLDER~1\AppData\Local\Temp\ccKV8tJ7.s:25242  .debug_str:000000000000c969 .LASF2463
C:\Users\SOLDER~1\AppData\Local\Temp\ccKV8tJ7.s:31886  .debug_str:000000000002780a .LASF2464
C:\Users\SOLDER~1\AppData\Local\Temp\ccKV8tJ7.s:24284  .debug_str:0000000000008a63 .LASF2465
C:\Users\SOLDER~1\AppData\Local\Temp\ccKV8tJ7.s:25512  .debug_str:000000000000db26 .LASF2466
C:\Users\SOLDER~1\AppData\Local\Temp\ccKV8tJ7.s:25960  .debug_str:000000000000f830 .LASF2467
C:\Users\SOLDER~1\AppData\Local\Temp\ccKV8tJ7.s:24148  .debug_str:00000000000081ba .LASF2468
C:\Users\SOLDER~1\AppData\Local\Temp\ccKV8tJ7.s:23070  .debug_str:0000000000003cf4 .LASF2469
C:\Users\SOLDER~1\AppData\Local\Temp\ccKV8tJ7.s:29166  .debug_str:000000000001c70a .LASF2470
C:\Users\SOLDER~1\AppData\Local\Temp\ccKV8tJ7.s:31598  .debug_str:0000000000026516 .LASF2471
C:\Users\SOLDER~1\AppData\Local\Temp\ccKV8tJ7.s:30620  .debug_str:000000000002256b .LASF2472
GAS LISTING C:\Users\SOLDER~1\AppData\Local\Temp\ccKV8tJ7.s 			page 133


C:\Users\SOLDER~1\AppData\Local\Temp\ccKV8tJ7.s:29046  .debug_str:000000000001befd .LASF2473
C:\Users\SOLDER~1\AppData\Local\Temp\ccKV8tJ7.s:27182  .debug_str:00000000000147cf .LASF2474
C:\Users\SOLDER~1\AppData\Local\Temp\ccKV8tJ7.s:33200  .debug_str:000000000002cde5 .LASF2475
C:\Users\SOLDER~1\AppData\Local\Temp\ccKV8tJ7.s:29562  .debug_str:000000000001e110 .LASF2476
C:\Users\SOLDER~1\AppData\Local\Temp\ccKV8tJ7.s:32892  .debug_str:000000000002b9ba .LASF2477
C:\Users\SOLDER~1\AppData\Local\Temp\ccKV8tJ7.s:23004  .debug_str:00000000000038d6 .LASF2478
C:\Users\SOLDER~1\AppData\Local\Temp\ccKV8tJ7.s:31358  .debug_str:0000000000025539 .LASF2479
C:\Users\SOLDER~1\AppData\Local\Temp\ccKV8tJ7.s:30058  .debug_str:000000000002019e .LASF2480
C:\Users\SOLDER~1\AppData\Local\Temp\ccKV8tJ7.s:25458  .debug_str:000000000000d7a0 .LASF2481
C:\Users\SOLDER~1\AppData\Local\Temp\ccKV8tJ7.s:31118  .debug_str:0000000000024592 .LASF2482
C:\Users\SOLDER~1\AppData\Local\Temp\ccKV8tJ7.s:27212  .debug_str:00000000000149ab .LASF2483
C:\Users\SOLDER~1\AppData\Local\Temp\ccKV8tJ7.s:30428  .debug_str:0000000000021958 .LASF2484
C:\Users\SOLDER~1\AppData\Local\Temp\ccKV8tJ7.s:28836  .debug_str:000000000001b21a .LASF2485
C:\Users\SOLDER~1\AppData\Local\Temp\ccKV8tJ7.s:24042  .debug_str:0000000000007aa9 .LASF2486
C:\Users\SOLDER~1\AppData\Local\Temp\ccKV8tJ7.s:31624  .debug_str:00000000000266c6 .LASF2487
C:\Users\SOLDER~1\AppData\Local\Temp\ccKV8tJ7.s:28914  .debug_str:000000000001b6ac .LASF2488
C:\Users\SOLDER~1\AppData\Local\Temp\ccKV8tJ7.s:28342  .debug_str:00000000000192c2 .LASF2489
C:\Users\SOLDER~1\AppData\Local\Temp\ccKV8tJ7.s:33126  .debug_str:000000000002c92f .LASF2490
C:\Users\SOLDER~1\AppData\Local\Temp\ccKV8tJ7.s:33118  .debug_str:000000000002c8c2 .LASF2491
C:\Users\SOLDER~1\AppData\Local\Temp\ccKV8tJ7.s:28514  .debug_str:0000000000019daa .LASF2492
C:\Users\SOLDER~1\AppData\Local\Temp\ccKV8tJ7.s:28214  .debug_str:0000000000018a44 .LASF2493
C:\Users\SOLDER~1\AppData\Local\Temp\ccKV8tJ7.s:23094  .debug_str:0000000000003e6e .LASF2494
C:\Users\SOLDER~1\AppData\Local\Temp\ccKV8tJ7.s:29042  .debug_str:000000000001bec3 .LASF2495
C:\Users\SOLDER~1\AppData\Local\Temp\ccKV8tJ7.s:28416  .debug_str:00000000000197ab .LASF2496
C:\Users\SOLDER~1\AppData\Local\Temp\ccKV8tJ7.s:30242  .debug_str:0000000000020d6b .LASF2497
C:\Users\SOLDER~1\AppData\Local\Temp\ccKV8tJ7.s:28460  .debug_str:0000000000019a7d .LASF2498
C:\Users\SOLDER~1\AppData\Local\Temp\ccKV8tJ7.s:31550  .debug_str:00000000000261a8 .LASF2499
C:\Users\SOLDER~1\AppData\Local\Temp\ccKV8tJ7.s:32190  .debug_str:0000000000028bdc .LASF2500
C:\Users\SOLDER~1\AppData\Local\Temp\ccKV8tJ7.s:28558  .debug_str:000000000001a057 .LASF2501
C:\Users\SOLDER~1\AppData\Local\Temp\ccKV8tJ7.s:33142  .debug_str:000000000002ca3b .LASF2502
C:\Users\SOLDER~1\AppData\Local\Temp\ccKV8tJ7.s:25132  .debug_str:000000000000c1d0 .LASF2503
C:\Users\SOLDER~1\AppData\Local\Temp\ccKV8tJ7.s:28102  .debug_str:000000000001830e .LASF2504
C:\Users\SOLDER~1\AppData\Local\Temp\ccKV8tJ7.s:29304  .debug_str:000000000001d050 .LASF2505
C:\Users\SOLDER~1\AppData\Local\Temp\ccKV8tJ7.s:26488  .debug_str:0000000000011a2b .LASF2506
C:\Users\SOLDER~1\AppData\Local\Temp\ccKV8tJ7.s:28910  .debug_str:000000000001b671 .LASF2507
C:\Users\SOLDER~1\AppData\Local\Temp\ccKV8tJ7.s:27302  .debug_str:0000000000014faa .LASF2508
C:\Users\SOLDER~1\AppData\Local\Temp\ccKV8tJ7.s:24652  .debug_str:000000000000a28a .LASF2509
C:\Users\SOLDER~1\AppData\Local\Temp\ccKV8tJ7.s:24364  .debug_str:0000000000008fb9 .LASF2510
C:\Users\SOLDER~1\AppData\Local\Temp\ccKV8tJ7.s:22292  .debug_str:0000000000000aae .LASF2511
C:\Users\SOLDER~1\AppData\Local\Temp\ccKV8tJ7.s:23708  .debug_str:00000000000064ea .LASF2512
C:\Users\SOLDER~1\AppData\Local\Temp\ccKV8tJ7.s:23288  .debug_str:0000000000004a17 .LASF2513
C:\Users\SOLDER~1\AppData\Local\Temp\ccKV8tJ7.s:23032  .debug_str:0000000000003a9c .LASF2514
C:\Users\SOLDER~1\AppData\Local\Temp\ccKV8tJ7.s:24924  .debug_str:000000000000b465 .LASF2515
C:\Users\SOLDER~1\AppData\Local\Temp\ccKV8tJ7.s:28368  .debug_str:0000000000019457 .LASF2516
C:\Users\SOLDER~1\AppData\Local\Temp\ccKV8tJ7.s:23466  .debug_str:00000000000054fe .LASF2517
C:\Users\SOLDER~1\AppData\Local\Temp\ccKV8tJ7.s:25712  .debug_str:000000000000e86d .LASF2518
C:\Users\SOLDER~1\AppData\Local\Temp\ccKV8tJ7.s:31306  .debug_str:00000000000251d4 .LASF2519
C:\Users\SOLDER~1\AppData\Local\Temp\ccKV8tJ7.s:24418  .debug_str:0000000000009373 .LASF2520
C:\Users\SOLDER~1\AppData\Local\Temp\ccKV8tJ7.s:32816  .debug_str:000000000002b497 .LASF2521
C:\Users\SOLDER~1\AppData\Local\Temp\ccKV8tJ7.s:25208  .debug_str:000000000000c717 .LASF2522
C:\Users\SOLDER~1\AppData\Local\Temp\ccKV8tJ7.s:31076  .debug_str:00000000000242ca .LASF2523
C:\Users\SOLDER~1\AppData\Local\Temp\ccKV8tJ7.s:26036  .debug_str:000000000000fd79 .LASF2524
C:\Users\SOLDER~1\AppData\Local\Temp\ccKV8tJ7.s:31732  .debug_str:0000000000026e13 .LASF2525
C:\Users\SOLDER~1\AppData\Local\Temp\ccKV8tJ7.s:23312  .debug_str:0000000000004bc2 .LASF2526
C:\Users\SOLDER~1\AppData\Local\Temp\ccKV8tJ7.s:22936  .debug_str:00000000000034a4 .LASF2527
C:\Users\SOLDER~1\AppData\Local\Temp\ccKV8tJ7.s:30472  .debug_str:0000000000021c34 .LASF2528
C:\Users\SOLDER~1\AppData\Local\Temp\ccKV8tJ7.s:28390  .debug_str:00000000000195df .LASF2529
GAS LISTING C:\Users\SOLDER~1\AppData\Local\Temp\ccKV8tJ7.s 			page 134


C:\Users\SOLDER~1\AppData\Local\Temp\ccKV8tJ7.s:23388  .debug_str:0000000000005037 .LASF2530
C:\Users\SOLDER~1\AppData\Local\Temp\ccKV8tJ7.s:32268  .debug_str:0000000000029122 .LASF2531
C:\Users\SOLDER~1\AppData\Local\Temp\ccKV8tJ7.s:23338  .debug_str:0000000000004d57 .LASF2532
C:\Users\SOLDER~1\AppData\Local\Temp\ccKV8tJ7.s:33614  .debug_str:000000000002e85d .LASF2533
C:\Users\SOLDER~1\AppData\Local\Temp\ccKV8tJ7.s:22542  .debug_str:0000000000001adc .LASF2534
C:\Users\SOLDER~1\AppData\Local\Temp\ccKV8tJ7.s:23196  .debug_str:000000000000446e .LASF2535
C:\Users\SOLDER~1\AppData\Local\Temp\ccKV8tJ7.s:28564  .debug_str:000000000001a0a3 .LASF2536
C:\Users\SOLDER~1\AppData\Local\Temp\ccKV8tJ7.s:30168  .debug_str:00000000000208a5 .LASF2537
C:\Users\SOLDER~1\AppData\Local\Temp\ccKV8tJ7.s:22862  .debug_str:0000000000002feb .LASF2538
C:\Users\SOLDER~1\AppData\Local\Temp\ccKV8tJ7.s:25934  .debug_str:000000000000f685 .LASF2539
C:\Users\SOLDER~1\AppData\Local\Temp\ccKV8tJ7.s:28884  .debug_str:000000000001b4cd .LASF2540
C:\Users\SOLDER~1\AppData\Local\Temp\ccKV8tJ7.s:32862  .debug_str:000000000002b807 .LASF2541
C:\Users\SOLDER~1\AppData\Local\Temp\ccKV8tJ7.s:23088  .debug_str:0000000000003e0a .LASF2542
C:\Users\SOLDER~1\AppData\Local\Temp\ccKV8tJ7.s:28600  .debug_str:000000000001a2f6 .LASF2543
C:\Users\SOLDER~1\AppData\Local\Temp\ccKV8tJ7.s:26674  .debug_str:000000000001255f .LASF2544
C:\Users\SOLDER~1\AppData\Local\Temp\ccKV8tJ7.s:22370  .debug_str:0000000000000fee .LASF2545
C:\Users\SOLDER~1\AppData\Local\Temp\ccKV8tJ7.s:32980  .debug_str:000000000002bf73 .LASF2546
C:\Users\SOLDER~1\AppData\Local\Temp\ccKV8tJ7.s:23960  .debug_str:000000000000759c .LASF2547
C:\Users\SOLDER~1\AppData\Local\Temp\ccKV8tJ7.s:32176  .debug_str:0000000000028b00 .LASF2548
C:\Users\SOLDER~1\AppData\Local\Temp\ccKV8tJ7.s:25582  .debug_str:000000000000dfa6 .LASF2549
C:\Users\SOLDER~1\AppData\Local\Temp\ccKV8tJ7.s:31520  .debug_str:0000000000025fb1 .LASF2550
C:\Users\SOLDER~1\AppData\Local\Temp\ccKV8tJ7.s:27130  .debug_str:000000000001444b .LASF2551
C:\Users\SOLDER~1\AppData\Local\Temp\ccKV8tJ7.s:24868  .debug_str:000000000000b0d6 .LASF2552
C:\Users\SOLDER~1\AppData\Local\Temp\ccKV8tJ7.s:28754  .debug_str:000000000001aca7 .LASF2553
C:\Users\SOLDER~1\AppData\Local\Temp\ccKV8tJ7.s:24724  .debug_str:000000000000a77d .LASF2554
C:\Users\SOLDER~1\AppData\Local\Temp\ccKV8tJ7.s:30270  .debug_str:0000000000020f43 .LASF2555
C:\Users\SOLDER~1\AppData\Local\Temp\ccKV8tJ7.s:23430  .debug_str:00000000000052fd .LASF2556
C:\Users\SOLDER~1\AppData\Local\Temp\ccKV8tJ7.s:28470  .debug_str:0000000000019af8 .LASF2557
C:\Users\SOLDER~1\AppData\Local\Temp\ccKV8tJ7.s:28516  .debug_str:0000000000019dcd .LASF2558
C:\Users\SOLDER~1\AppData\Local\Temp\ccKV8tJ7.s:28852  .debug_str:000000000001b311 .LASF2559
C:\Users\SOLDER~1\AppData\Local\Temp\ccKV8tJ7.s:29712  .debug_str:000000000001ead2 .LASF2560
C:\Users\SOLDER~1\AppData\Local\Temp\ccKV8tJ7.s:30366  .debug_str:000000000002155b .LASF2561
C:\Users\SOLDER~1\AppData\Local\Temp\ccKV8tJ7.s:28106  .debug_str:0000000000018359 .LASF2562
C:\Users\SOLDER~1\AppData\Local\Temp\ccKV8tJ7.s:31998  .debug_str:0000000000027f48 .LASF2563
C:\Users\SOLDER~1\AppData\Local\Temp\ccKV8tJ7.s:33206  .debug_str:000000000002ce26 .LASF2564
C:\Users\SOLDER~1\AppData\Local\Temp\ccKV8tJ7.s:33648  .debug_str:000000000002ea6b .LASF2565
C:\Users\SOLDER~1\AppData\Local\Temp\ccKV8tJ7.s:26534  .debug_str:0000000000011cc9 .LASF2566
C:\Users\SOLDER~1\AppData\Local\Temp\ccKV8tJ7.s:23436  .debug_str:0000000000005356 .LASF2567
C:\Users\SOLDER~1\AppData\Local\Temp\ccKV8tJ7.s:31416  .debug_str:00000000000258c6 .LASF2568
C:\Users\SOLDER~1\AppData\Local\Temp\ccKV8tJ7.s:25074  .debug_str:000000000000be28 .LASF2569
C:\Users\SOLDER~1\AppData\Local\Temp\ccKV8tJ7.s:25100  .debug_str:000000000000bfb2 .LASF2570
C:\Users\SOLDER~1\AppData\Local\Temp\ccKV8tJ7.s:26692  .debug_str:00000000000126c4 .LASF2571
C:\Users\SOLDER~1\AppData\Local\Temp\ccKV8tJ7.s:30154  .debug_str:00000000000207a6 .LASF2572
C:\Users\SOLDER~1\AppData\Local\Temp\ccKV8tJ7.s:29596  .debug_str:000000000001e370 .LASF2573
C:\Users\SOLDER~1\AppData\Local\Temp\ccKV8tJ7.s:22818  .debug_str:0000000000002ce9 .LASF2574
C:\Users\SOLDER~1\AppData\Local\Temp\ccKV8tJ7.s:27704  .debug_str:00000000000168f9 .LASF2575
C:\Users\SOLDER~1\AppData\Local\Temp\ccKV8tJ7.s:28938  .debug_str:000000000001b839 .LASF2576
C:\Users\SOLDER~1\AppData\Local\Temp\ccKV8tJ7.s:25740  .debug_str:000000000000ea6e .LASF2577
C:\Users\SOLDER~1\AppData\Local\Temp\ccKV8tJ7.s:29602  .debug_str:000000000001e3c0 .LASF2578
C:\Users\SOLDER~1\AppData\Local\Temp\ccKV8tJ7.s:23812  .debug_str:0000000000006bdd .LASF2579
C:\Users\SOLDER~1\AppData\Local\Temp\ccKV8tJ7.s:25214  .debug_str:000000000000c77a .LASF2580
C:\Users\SOLDER~1\AppData\Local\Temp\ccKV8tJ7.s:33624  .debug_str:000000000002e8eb .LASF2581
C:\Users\SOLDER~1\AppData\Local\Temp\ccKV8tJ7.s:29796  .debug_str:000000000001f05c .LASF2582
C:\Users\SOLDER~1\AppData\Local\Temp\ccKV8tJ7.s:31660  .debug_str:0000000000026946 .LASF2583
C:\Users\SOLDER~1\AppData\Local\Temp\ccKV8tJ7.s:30420  .debug_str:00000000000218e4 .LASF2584
C:\Users\SOLDER~1\AppData\Local\Temp\ccKV8tJ7.s:29756  .debug_str:000000000001edd9 .LASF2585
C:\Users\SOLDER~1\AppData\Local\Temp\ccKV8tJ7.s:25866  .debug_str:000000000000f222 .LASF2586
GAS LISTING C:\Users\SOLDER~1\AppData\Local\Temp\ccKV8tJ7.s 			page 135


C:\Users\SOLDER~1\AppData\Local\Temp\ccKV8tJ7.s:27862  .debug_str:00000000000172eb .LASF2587
C:\Users\SOLDER~1\AppData\Local\Temp\ccKV8tJ7.s:22452  .debug_str:000000000000153d .LASF2588
C:\Users\SOLDER~1\AppData\Local\Temp\ccKV8tJ7.s:25900  .debug_str:000000000000f454 .LASF2589
C:\Users\SOLDER~1\AppData\Local\Temp\ccKV8tJ7.s:25682  .debug_str:000000000000e6a0 .LASF2590
C:\Users\SOLDER~1\AppData\Local\Temp\ccKV8tJ7.s:28714  .debug_str:000000000001aa24 .LASF2591
C:\Users\SOLDER~1\AppData\Local\Temp\ccKV8tJ7.s:23370  .debug_str:0000000000004f32 .LASF2592
C:\Users\SOLDER~1\AppData\Local\Temp\ccKV8tJ7.s:30002  .debug_str:000000000001fdf7 .LASF2593
C:\Users\SOLDER~1\AppData\Local\Temp\ccKV8tJ7.s:29694  .debug_str:000000000001e96d .LASF2594
C:\Users\SOLDER~1\AppData\Local\Temp\ccKV8tJ7.s:28272  .debug_str:0000000000018e13 .LASF2595
C:\Users\SOLDER~1\AppData\Local\Temp\ccKV8tJ7.s:22560  .debug_str:0000000000001c1b .LASF2596
C:\Users\SOLDER~1\AppData\Local\Temp\ccKV8tJ7.s:26576  .debug_str:0000000000011f72 .LASF2597
C:\Users\SOLDER~1\AppData\Local\Temp\ccKV8tJ7.s:33208  .debug_str:000000000002ce4b .LASF2598
C:\Users\SOLDER~1\AppData\Local\Temp\ccKV8tJ7.s:24912  .debug_str:000000000000b397 .LASF2599
C:\Users\SOLDER~1\AppData\Local\Temp\ccKV8tJ7.s:29312  .debug_str:000000000001d0db .LASF2600
C:\Users\SOLDER~1\AppData\Local\Temp\ccKV8tJ7.s:23154  .debug_str:0000000000004203 .LASF2601
C:\Users\SOLDER~1\AppData\Local\Temp\ccKV8tJ7.s:25416  .debug_str:000000000000d4db .LASF2602
C:\Users\SOLDER~1\AppData\Local\Temp\ccKV8tJ7.s:33222  .debug_str:000000000002cf35 .LASF2603
C:\Users\SOLDER~1\AppData\Local\Temp\ccKV8tJ7.s:28762  .debug_str:000000000001ad26 .LASF2604
C:\Users\SOLDER~1\AppData\Local\Temp\ccKV8tJ7.s:27998  .debug_str:0000000000017c13 .LASF2605
C:\Users\SOLDER~1\AppData\Local\Temp\ccKV8tJ7.s:24036  .debug_str:0000000000007a3d .LASF2606
C:\Users\SOLDER~1\AppData\Local\Temp\ccKV8tJ7.s:29800  .debug_str:000000000001f0a7 .LASF2607
C:\Users\SOLDER~1\AppData\Local\Temp\ccKV8tJ7.s:22416  .debug_str:00000000000012d9 .LASF2608
C:\Users\SOLDER~1\AppData\Local\Temp\ccKV8tJ7.s:28178  .debug_str:00000000000187d8 .LASF2609
C:\Users\SOLDER~1\AppData\Local\Temp\ccKV8tJ7.s:27188  .debug_str:0000000000014841 .LASF2610
C:\Users\SOLDER~1\AppData\Local\Temp\ccKV8tJ7.s:26480  .debug_str:0000000000011997 .LASF2611
C:\Users\SOLDER~1\AppData\Local\Temp\ccKV8tJ7.s:32500  .debug_str:0000000000029fe3 .LASF2612
C:\Users\SOLDER~1\AppData\Local\Temp\ccKV8tJ7.s:26000  .debug_str:000000000000fb19 .LASF2613
C:\Users\SOLDER~1\AppData\Local\Temp\ccKV8tJ7.s:23158  .debug_str:0000000000004238 .LASF2614
C:\Users\SOLDER~1\AppData\Local\Temp\ccKV8tJ7.s:22230  .debug_str:00000000000005c6 .LASF2615
C:\Users\SOLDER~1\AppData\Local\Temp\ccKV8tJ7.s:29188  .debug_str:000000000001c859 .LASF2616
C:\Users\SOLDER~1\AppData\Local\Temp\ccKV8tJ7.s:31976  .debug_str:0000000000027df1 .LASF2617
C:\Users\SOLDER~1\AppData\Local\Temp\ccKV8tJ7.s:23684  .debug_str:0000000000006353 .LASF2618
C:\Users\SOLDER~1\AppData\Local\Temp\ccKV8tJ7.s:30046  .debug_str:00000000000200de .LASF2619
C:\Users\SOLDER~1\AppData\Local\Temp\ccKV8tJ7.s:30106  .debug_str:00000000000204aa .LASF2620
C:\Users\SOLDER~1\AppData\Local\Temp\ccKV8tJ7.s:28200  .debug_str:000000000001896b .LASF2621
C:\Users\SOLDER~1\AppData\Local\Temp\ccKV8tJ7.s:30056  .debug_str:0000000000020178 .LASF2622
C:\Users\SOLDER~1\AppData\Local\Temp\ccKV8tJ7.s:25344  .debug_str:000000000000d051 .LASF2623
C:\Users\SOLDER~1\AppData\Local\Temp\ccKV8tJ7.s:30770  .debug_str:0000000000022ee9 .LASF2624
C:\Users\SOLDER~1\AppData\Local\Temp\ccKV8tJ7.s:24274  .debug_str:00000000000089c7 .LASF2625
C:\Users\SOLDER~1\AppData\Local\Temp\ccKV8tJ7.s:26244  .debug_str:0000000000010ab6 .LASF2626
C:\Users\SOLDER~1\AppData\Local\Temp\ccKV8tJ7.s:22386  .debug_str:00000000000010da .LASF2627
C:\Users\SOLDER~1\AppData\Local\Temp\ccKV8tJ7.s:22794  .debug_str:0000000000002b8e .LASF2628
C:\Users\SOLDER~1\AppData\Local\Temp\ccKV8tJ7.s:32132  .debug_str:0000000000028838 .LASF2629
C:\Users\SOLDER~1\AppData\Local\Temp\ccKV8tJ7.s:32626  .debug_str:000000000002a89d .LASF2630
C:\Users\SOLDER~1\AppData\Local\Temp\ccKV8tJ7.s:30292  .debug_str:00000000000210b3 .LASF2631
C:\Users\SOLDER~1\AppData\Local\Temp\ccKV8tJ7.s:23640  .debug_str:0000000000006083 .LASF2632
C:\Users\SOLDER~1\AppData\Local\Temp\ccKV8tJ7.s:33798  .debug_str:000000000002f3dc .LASF2633
C:\Users\SOLDER~1\AppData\Local\Temp\ccKV8tJ7.s:26396  .debug_str:000000000001140f .LASF2634
C:\Users\SOLDER~1\AppData\Local\Temp\ccKV8tJ7.s:25782  .debug_str:000000000000ecdb .LASF2635
C:\Users\SOLDER~1\AppData\Local\Temp\ccKV8tJ7.s:30918  .debug_str:000000000002388f .LASF2636
C:\Users\SOLDER~1\AppData\Local\Temp\ccKV8tJ7.s:32062  .debug_str:0000000000028395 .LASF2637
C:\Users\SOLDER~1\AppData\Local\Temp\ccKV8tJ7.s:29986  .debug_str:000000000001fd05 .LASF2638
C:\Users\SOLDER~1\AppData\Local\Temp\ccKV8tJ7.s:22484  .debug_str:000000000000174f .LASF2639
C:\Users\SOLDER~1\AppData\Local\Temp\ccKV8tJ7.s:27952  .debug_str:000000000001791a .LASF2640
C:\Users\SOLDER~1\AppData\Local\Temp\ccKV8tJ7.s:32524  .debug_str:000000000002a187 .LASF2641
C:\Users\SOLDER~1\AppData\Local\Temp\ccKV8tJ7.s:23916  .debug_str:00000000000072ec .LASF2642
C:\Users\SOLDER~1\AppData\Local\Temp\ccKV8tJ7.s:30736  .debug_str:0000000000022c9c .LASF2643
GAS LISTING C:\Users\SOLDER~1\AppData\Local\Temp\ccKV8tJ7.s 			page 136


C:\Users\SOLDER~1\AppData\Local\Temp\ccKV8tJ7.s:25430  .debug_str:000000000000d5da .LASF2644
C:\Users\SOLDER~1\AppData\Local\Temp\ccKV8tJ7.s:29100  .debug_str:000000000001c294 .LASF2645
C:\Users\SOLDER~1\AppData\Local\Temp\ccKV8tJ7.s:27410  .debug_str:000000000001566f .LASF2646
C:\Users\SOLDER~1\AppData\Local\Temp\ccKV8tJ7.s:27446  .debug_str:00000000000158b5 .LASF2647
C:\Users\SOLDER~1\AppData\Local\Temp\ccKV8tJ7.s:30328  .debug_str:00000000000212db .LASF2648
C:\Users\SOLDER~1\AppData\Local\Temp\ccKV8tJ7.s:25674  .debug_str:000000000000e625 .LASF2649
C:\Users\SOLDER~1\AppData\Local\Temp\ccKV8tJ7.s:32006  .debug_str:0000000000027fb2 .LASF2650
C:\Users\SOLDER~1\AppData\Local\Temp\ccKV8tJ7.s:24026  .debug_str:00000000000079b8 .LASF2651
C:\Users\SOLDER~1\AppData\Local\Temp\ccKV8tJ7.s:29162  .debug_str:000000000001c6bf .LASF2652
C:\Users\SOLDER~1\AppData\Local\Temp\ccKV8tJ7.s:24634  .debug_str:000000000000a163 .LASF2653
C:\Users\SOLDER~1\AppData\Local\Temp\ccKV8tJ7.s:22762  .debug_str:000000000000298f .LASF2654
C:\Users\SOLDER~1\AppData\Local\Temp\ccKV8tJ7.s:22742  .debug_str:000000000000281e .LASF2655
C:\Users\SOLDER~1\AppData\Local\Temp\ccKV8tJ7.s:28878  .debug_str:000000000001b468 .LASF2656
C:\Users\SOLDER~1\AppData\Local\Temp\ccKV8tJ7.s:25828  .debug_str:000000000000efca .LASF2657
C:\Users\SOLDER~1\AppData\Local\Temp\ccKV8tJ7.s:23480  .debug_str:00000000000055c9 .LASF2658
C:\Users\SOLDER~1\AppData\Local\Temp\ccKV8tJ7.s:30574  .debug_str:00000000000222a8 .LASF2659
C:\Users\SOLDER~1\AppData\Local\Temp\ccKV8tJ7.s:29680  .debug_str:000000000001e88a .LASF2660
C:\Users\SOLDER~1\AppData\Local\Temp\ccKV8tJ7.s:28676  .debug_str:000000000001a7b6 .LASF2661
C:\Users\SOLDER~1\AppData\Local\Temp\ccKV8tJ7.s:29646  .debug_str:000000000001e67f .LASF2662
C:\Users\SOLDER~1\AppData\Local\Temp\ccKV8tJ7.s:26732  .debug_str:0000000000012905 .LASF2663
C:\Users\SOLDER~1\AppData\Local\Temp\ccKV8tJ7.s:30362  .debug_str:00000000000214fb .LASF2664
C:\Users\SOLDER~1\AppData\Local\Temp\ccKV8tJ7.s:24808  .debug_str:000000000000acc1 .LASF2665
C:\Users\SOLDER~1\AppData\Local\Temp\ccKV8tJ7.s:25808  .debug_str:000000000000ee84 .LASF2666
C:\Users\SOLDER~1\AppData\Local\Temp\ccKV8tJ7.s:22902  .debug_str:0000000000003277 .LASF2667
C:\Users\SOLDER~1\AppData\Local\Temp\ccKV8tJ7.s:22406  .debug_str:000000000000122b .LASF2668
C:\Users\SOLDER~1\AppData\Local\Temp\ccKV8tJ7.s:23218  .debug_str:00000000000045cd .LASF2669
C:\Users\SOLDER~1\AppData\Local\Temp\ccKV8tJ7.s:32304  .debug_str:000000000002935e .LASF2670
C:\Users\SOLDER~1\AppData\Local\Temp\ccKV8tJ7.s:30726  .debug_str:0000000000022c06 .LASF2671
C:\Users\SOLDER~1\AppData\Local\Temp\ccKV8tJ7.s:23314  .debug_str:0000000000004be2 .LASF2672
C:\Users\SOLDER~1\AppData\Local\Temp\ccKV8tJ7.s:31420  .debug_str:0000000000025909 .LASF2673
C:\Users\SOLDER~1\AppData\Local\Temp\ccKV8tJ7.s:30446  .debug_str:0000000000021a8c .LASF2674
C:\Users\SOLDER~1\AppData\Local\Temp\ccKV8tJ7.s:29780  .debug_str:000000000001ef68 .LASF2675
C:\Users\SOLDER~1\AppData\Local\Temp\ccKV8tJ7.s:28518  .debug_str:0000000000019df2 .LASF2676
C:\Users\SOLDER~1\AppData\Local\Temp\ccKV8tJ7.s:28152  .debug_str:0000000000018643 .LASF2677
C:\Users\SOLDER~1\AppData\Local\Temp\ccKV8tJ7.s:27566  .debug_str:0000000000016056 .LASF2678
C:\Users\SOLDER~1\AppData\Local\Temp\ccKV8tJ7.s:26458  .debug_str:0000000000011843 .LASF2679
C:\Users\SOLDER~1\AppData\Local\Temp\ccKV8tJ7.s:23650  .debug_str:000000000000612e .LASF2680
C:\Users\SOLDER~1\AppData\Local\Temp\ccKV8tJ7.s:24680  .debug_str:000000000000a459 .LASF2681
C:\Users\SOLDER~1\AppData\Local\Temp\ccKV8tJ7.s:33290  .debug_str:000000000002d37d .LASF2682
C:\Users\SOLDER~1\AppData\Local\Temp\ccKV8tJ7.s:23050  .debug_str:0000000000003bbe .LASF2683
C:\Users\SOLDER~1\AppData\Local\Temp\ccKV8tJ7.s:23086  .debug_str:0000000000003de3 .LASF2684
C:\Users\SOLDER~1\AppData\Local\Temp\ccKV8tJ7.s:29720  .debug_str:000000000001eb69 .LASF2685
C:\Users\SOLDER~1\AppData\Local\Temp\ccKV8tJ7.s:30000  .debug_str:000000000001fdd0 .LASF2686
C:\Users\SOLDER~1\AppData\Local\Temp\ccKV8tJ7.s:31316  .debug_str:0000000000025281 .LASF2687
C:\Users\SOLDER~1\AppData\Local\Temp\ccKV8tJ7.s:28034  .debug_str:0000000000017e5e .LASF2688
C:\Users\SOLDER~1\AppData\Local\Temp\ccKV8tJ7.s:29670  .debug_str:000000000001e801 .LASF2689
C:\Users\SOLDER~1\AppData\Local\Temp\ccKV8tJ7.s:29574  .debug_str:000000000001e1e3 .LASF2690
C:\Users\SOLDER~1\AppData\Local\Temp\ccKV8tJ7.s:28062  .debug_str:0000000000018039 .LASF2691
C:\Users\SOLDER~1\AppData\Local\Temp\ccKV8tJ7.s:30826  .debug_str:00000000000232b7 .LASF2692
C:\Users\SOLDER~1\AppData\Local\Temp\ccKV8tJ7.s:23450  .debug_str:000000000000541a .LASF2693
C:\Users\SOLDER~1\AppData\Local\Temp\ccKV8tJ7.s:22652  .debug_str:0000000000002227 .LASF2694
C:\Users\SOLDER~1\AppData\Local\Temp\ccKV8tJ7.s:33252  .debug_str:000000000002d115 .LASF2695
C:\Users\SOLDER~1\AppData\Local\Temp\ccKV8tJ7.s:26944  .debug_str:000000000001371a .LASF2696
C:\Users\SOLDER~1\AppData\Local\Temp\ccKV8tJ7.s:26860  .debug_str:000000000001316f .LASF2697
C:\Users\SOLDER~1\AppData\Local\Temp\ccKV8tJ7.s:23254  .debug_str:0000000000004836 .LASF2698
C:\Users\SOLDER~1\AppData\Local\Temp\ccKV8tJ7.s:29394  .debug_str:000000000001d66e .LASF2699
C:\Users\SOLDER~1\AppData\Local\Temp\ccKV8tJ7.s:29668  .debug_str:000000000001e7db .LASF2700
GAS LISTING C:\Users\SOLDER~1\AppData\Local\Temp\ccKV8tJ7.s 			page 137


C:\Users\SOLDER~1\AppData\Local\Temp\ccKV8tJ7.s:33818  .debug_str:000000000002f520 .LASF2701
C:\Users\SOLDER~1\AppData\Local\Temp\ccKV8tJ7.s:29630  .debug_str:000000000001e583 .LASF2702
C:\Users\SOLDER~1\AppData\Local\Temp\ccKV8tJ7.s:25540  .debug_str:000000000000dcc7 .LASF2703
C:\Users\SOLDER~1\AppData\Local\Temp\ccKV8tJ7.s:30258  .debug_str:0000000000020e6b .LASF2704
C:\Users\SOLDER~1\AppData\Local\Temp\ccKV8tJ7.s:23614  .debug_str:0000000000005e92 .LASF2705
C:\Users\SOLDER~1\AppData\Local\Temp\ccKV8tJ7.s:25694  .debug_str:000000000000e751 .LASF2706
C:\Users\SOLDER~1\AppData\Local\Temp\ccKV8tJ7.s:33410  .debug_str:000000000002db6a .LASF2707
C:\Users\SOLDER~1\AppData\Local\Temp\ccKV8tJ7.s:27208  .debug_str:0000000000014967 .LASF2708
C:\Users\SOLDER~1\AppData\Local\Temp\ccKV8tJ7.s:31546  .debug_str:000000000002616e .LASF2709
C:\Users\SOLDER~1\AppData\Local\Temp\ccKV8tJ7.s:32202  .debug_str:0000000000028c9b .LASF2710
C:\Users\SOLDER~1\AppData\Local\Temp\ccKV8tJ7.s:29642  .debug_str:000000000001e63c .LASF2711
C:\Users\SOLDER~1\AppData\Local\Temp\ccKV8tJ7.s:30044  .debug_str:00000000000200b8 .LASF2712
C:\Users\SOLDER~1\AppData\Local\Temp\ccKV8tJ7.s:28020  .debug_str:0000000000017d81 .LASF2713
C:\Users\SOLDER~1\AppData\Local\Temp\ccKV8tJ7.s:30384  .debug_str:00000000000216a1 .LASF2714
C:\Users\SOLDER~1\AppData\Local\Temp\ccKV8tJ7.s:24336  .debug_str:0000000000008de9 .LASF2715
C:\Users\SOLDER~1\AppData\Local\Temp\ccKV8tJ7.s:23124  .debug_str:0000000000003ff9 .LASF2716
C:\Users\SOLDER~1\AppData\Local\Temp\ccKV8tJ7.s:24548  .debug_str:0000000000009b9c .LASF2717
C:\Users\SOLDER~1\AppData\Local\Temp\ccKV8tJ7.s:33672  .debug_str:000000000002ebf1 .LASF2718
C:\Users\SOLDER~1\AppData\Local\Temp\ccKV8tJ7.s:22150  .debug_str:00000000000000a4 .LASF2719
C:\Users\SOLDER~1\AppData\Local\Temp\ccKV8tJ7.s:30112  .debug_str:0000000000020505 .LASF2720
C:\Users\SOLDER~1\AppData\Local\Temp\ccKV8tJ7.s:28132  .debug_str:0000000000018505 .LASF2721
C:\Users\SOLDER~1\AppData\Local\Temp\ccKV8tJ7.s:30926  .debug_str:0000000000023928 .LASF2722
C:\Users\SOLDER~1\AppData\Local\Temp\ccKV8tJ7.s:31170  .debug_str:00000000000248f3 .LASF2723
C:\Users\SOLDER~1\AppData\Local\Temp\ccKV8tJ7.s:29440  .debug_str:000000000001d96c .LASF2724
C:\Users\SOLDER~1\AppData\Local\Temp\ccKV8tJ7.s:29524  .debug_str:000000000001de89 .LASF2725
C:\Users\SOLDER~1\AppData\Local\Temp\ccKV8tJ7.s:24714  .debug_str:000000000000a6cc .LASF2726
C:\Users\SOLDER~1\AppData\Local\Temp\ccKV8tJ7.s:27908  .debug_str:000000000001760a .LASF2727
C:\Users\SOLDER~1\AppData\Local\Temp\ccKV8tJ7.s:22638  .debug_str:000000000000212b .LASF2728
C:\Users\SOLDER~1\AppData\Local\Temp\ccKV8tJ7.s:26138  .debug_str:0000000000010401 .LASF2729
C:\Users\SOLDER~1\AppData\Local\Temp\ccKV8tJ7.s:24308  .debug_str:0000000000008bd6 .LASF2730
C:\Users\SOLDER~1\AppData\Local\Temp\ccKV8tJ7.s:24454  .debug_str:00000000000095e1 .LASF2731
C:\Users\SOLDER~1\AppData\Local\Temp\ccKV8tJ7.s:33178  .debug_str:000000000002cc66 .LASF2732
C:\Users\SOLDER~1\AppData\Local\Temp\ccKV8tJ7.s:33314  .debug_str:000000000002d514 .LASF2733
C:\Users\SOLDER~1\AppData\Local\Temp\ccKV8tJ7.s:31524  .debug_str:0000000000025ff1 .LASF2734
C:\Users\SOLDER~1\AppData\Local\Temp\ccKV8tJ7.s:31366  .debug_str:000000000002559d .LASF2735
C:\Users\SOLDER~1\AppData\Local\Temp\ccKV8tJ7.s:25952  .debug_str:000000000000f796 .LASF2736
C:\Users\SOLDER~1\AppData\Local\Temp\ccKV8tJ7.s:29450  .debug_str:000000000001da0a .LASF2737
C:\Users\SOLDER~1\AppData\Local\Temp\ccKV8tJ7.s:32166  .debug_str:0000000000028a62 .LASF2738
C:\Users\SOLDER~1\AppData\Local\Temp\ccKV8tJ7.s:27552  .debug_str:0000000000015f7d .LASF2739
C:\Users\SOLDER~1\AppData\Local\Temp\ccKV8tJ7.s:26856  .debug_str:000000000001311d .LASF2740
C:\Users\SOLDER~1\AppData\Local\Temp\ccKV8tJ7.s:24204  .debug_str:0000000000008553 .LASF2741
C:\Users\SOLDER~1\AppData\Local\Temp\ccKV8tJ7.s:23046  .debug_str:0000000000003b6b .LASF2742
C:\Users\SOLDER~1\AppData\Local\Temp\ccKV8tJ7.s:28400  .debug_str:0000000000019680 .LASF2743
C:\Users\SOLDER~1\AppData\Local\Temp\ccKV8tJ7.s:27466  .debug_str:00000000000159fb .LASF2744
C:\Users\SOLDER~1\AppData\Local\Temp\ccKV8tJ7.s:33476  .debug_str:000000000002dfc5 .LASF2745
C:\Users\SOLDER~1\AppData\Local\Temp\ccKV8tJ7.s:22900  .debug_str:000000000000324c .LASF2746
C:\Users\SOLDER~1\AppData\Local\Temp\ccKV8tJ7.s:31518  .debug_str:0000000000025f94 .LASF2747
C:\Users\SOLDER~1\AppData\Local\Temp\ccKV8tJ7.s:31142  .debug_str:000000000002472e .LASF2748
C:\Users\SOLDER~1\AppData\Local\Temp\ccKV8tJ7.s:29616  .debug_str:000000000001e493 .LASF2749
C:\Users\SOLDER~1\AppData\Local\Temp\ccKV8tJ7.s:29384  .debug_str:000000000001d5ba .LASF2750
C:\Users\SOLDER~1\AppData\Local\Temp\ccKV8tJ7.s:27808  .debug_str:0000000000016f51 .LASF2751
C:\Users\SOLDER~1\AppData\Local\Temp\ccKV8tJ7.s:32106  .debug_str:000000000002867e .LASF2752
C:\Users\SOLDER~1\AppData\Local\Temp\ccKV8tJ7.s:23246  .debug_str:00000000000047b4 .LASF2753
C:\Users\SOLDER~1\AppData\Local\Temp\ccKV8tJ7.s:29070  .debug_str:000000000001c08a .LASF2754
C:\Users\SOLDER~1\AppData\Local\Temp\ccKV8tJ7.s:33304  .debug_str:000000000002d45a .LASF2755
C:\Users\SOLDER~1\AppData\Local\Temp\ccKV8tJ7.s:30380  .debug_str:0000000000021653 .LASF2756
C:\Users\SOLDER~1\AppData\Local\Temp\ccKV8tJ7.s:31622  .debug_str:00000000000266a7 .LASF2757
GAS LISTING C:\Users\SOLDER~1\AppData\Local\Temp\ccKV8tJ7.s 			page 138


C:\Users\SOLDER~1\AppData\Local\Temp\ccKV8tJ7.s:32670  .debug_str:000000000002ab65 .LASF2758
C:\Users\SOLDER~1\AppData\Local\Temp\ccKV8tJ7.s:29900  .debug_str:000000000001f75b .LASF2759
C:\Users\SOLDER~1\AppData\Local\Temp\ccKV8tJ7.s:28782  .debug_str:000000000001ae6c .LASF2760
C:\Users\SOLDER~1\AppData\Local\Temp\ccKV8tJ7.s:28258  .debug_str:0000000000018d35 .LASF2761
C:\Users\SOLDER~1\AppData\Local\Temp\ccKV8tJ7.s:26682  .debug_str:00000000000125e7 .LASF2762
C:\Users\SOLDER~1\AppData\Local\Temp\ccKV8tJ7.s:26564  .debug_str:0000000000011ec3 .LASF2763
C:\Users\SOLDER~1\AppData\Local\Temp\ccKV8tJ7.s:28244  .debug_str:0000000000018c1d .LASF2764
C:\Users\SOLDER~1\AppData\Local\Temp\ccKV8tJ7.s:24804  .debug_str:000000000000ac82 .LASF2765
C:\Users\SOLDER~1\AppData\Local\Temp\ccKV8tJ7.s:23394  .debug_str:0000000000005091 .LASF2766
C:\Users\SOLDER~1\AppData\Local\Temp\ccKV8tJ7.s:25570  .debug_str:000000000000dedb .LASF2767
C:\Users\SOLDER~1\AppData\Local\Temp\ccKV8tJ7.s:33112  .debug_str:000000000002c865 .LASF2768
C:\Users\SOLDER~1\AppData\Local\Temp\ccKV8tJ7.s:29826  .debug_str:000000000001f260 .LASF2769
C:\Users\SOLDER~1\AppData\Local\Temp\ccKV8tJ7.s:22988  .debug_str:00000000000037bc .LASF2770
C:\Users\SOLDER~1\AppData\Local\Temp\ccKV8tJ7.s:23560  .debug_str:0000000000005b64 .LASF2771
C:\Users\SOLDER~1\AppData\Local\Temp\ccKV8tJ7.s:33294  .debug_str:000000000002d3ae .LASF2772
C:\Users\SOLDER~1\AppData\Local\Temp\ccKV8tJ7.s:30202  .debug_str:0000000000020ae1 .LASF2773
C:\Users\SOLDER~1\AppData\Local\Temp\ccKV8tJ7.s:27254  .debug_str:0000000000014c83 .LASF2774
C:\Users\SOLDER~1\AppData\Local\Temp\ccKV8tJ7.s:23390  .debug_str:000000000000505c .LASF2775
C:\Users\SOLDER~1\AppData\Local\Temp\ccKV8tJ7.s:33272  .debug_str:000000000002d259 .LASF2776
C:\Users\SOLDER~1\AppData\Local\Temp\ccKV8tJ7.s:26454  .debug_str:000000000001181b .LASF2777
C:\Users\SOLDER~1\AppData\Local\Temp\ccKV8tJ7.s:27800  .debug_str:0000000000016ed7 .LASF2778
C:\Users\SOLDER~1\AppData\Local\Temp\ccKV8tJ7.s:24514  .debug_str:000000000000999b .LASF2779
C:\Users\SOLDER~1\AppData\Local\Temp\ccKV8tJ7.s:24964  .debug_str:000000000000b6f6 .LASF2780
C:\Users\SOLDER~1\AppData\Local\Temp\ccKV8tJ7.s:22604  .debug_str:0000000000001f03 .LASF2781
C:\Users\SOLDER~1\AppData\Local\Temp\ccKV8tJ7.s:22450  .debug_str:0000000000001516 .LASF2782
C:\Users\SOLDER~1\AppData\Local\Temp\ccKV8tJ7.s:32392  .debug_str:000000000002990d .LASF2783
C:\Users\SOLDER~1\AppData\Local\Temp\ccKV8tJ7.s:23140  .debug_str:000000000000410a .LASF2784
C:\Users\SOLDER~1\AppData\Local\Temp\ccKV8tJ7.s:23168  .debug_str:00000000000042c9 .LASF2785
C:\Users\SOLDER~1\AppData\Local\Temp\ccKV8tJ7.s:30290  .debug_str:000000000002108c .LASF2786
C:\Users\SOLDER~1\AppData\Local\Temp\ccKV8tJ7.s:28550  .debug_str:000000000001a003 .LASF2787
C:\Users\SOLDER~1\AppData\Local\Temp\ccKV8tJ7.s:26858  .debug_str:0000000000013148 .LASF2788
C:\Users\SOLDER~1\AppData\Local\Temp\ccKV8tJ7.s:26604  .debug_str:000000000001212d .LASF2789
C:\Users\SOLDER~1\AppData\Local\Temp\ccKV8tJ7.s:24990  .debug_str:000000000000b883 .LASF2790
C:\Users\SOLDER~1\AppData\Local\Temp\ccKV8tJ7.s:27766  .debug_str:0000000000016cfa .LASF2791
C:\Users\SOLDER~1\AppData\Local\Temp\ccKV8tJ7.s:27752  .debug_str:0000000000016c04 .LASF2792
C:\Users\SOLDER~1\AppData\Local\Temp\ccKV8tJ7.s:24080  .debug_str:0000000000007d4a .LASF2793
C:\Users\SOLDER~1\AppData\Local\Temp\ccKV8tJ7.s:30386  .debug_str:00000000000216c8 .LASF2794
C:\Users\SOLDER~1\AppData\Local\Temp\ccKV8tJ7.s:29650  .debug_str:000000000001e6c8 .LASF2795
C:\Users\SOLDER~1\AppData\Local\Temp\ccKV8tJ7.s:27002  .debug_str:0000000000013b1d .LASF2796
C:\Users\SOLDER~1\AppData\Local\Temp\ccKV8tJ7.s:23386  .debug_str:000000000000501c .LASF2797
C:\Users\SOLDER~1\AppData\Local\Temp\ccKV8tJ7.s:22234  .debug_str:0000000000000604 .LASF2798
C:\Users\SOLDER~1\AppData\Local\Temp\ccKV8tJ7.s:30696  .debug_str:0000000000022a0a .LASF2799
C:\Users\SOLDER~1\AppData\Local\Temp\ccKV8tJ7.s:30022  .debug_str:000000000001ff30 .LASF2800
C:\Users\SOLDER~1\AppData\Local\Temp\ccKV8tJ7.s:29062  .debug_str:000000000001c011 .LASF2801
C:\Users\SOLDER~1\AppData\Local\Temp\ccKV8tJ7.s:27982  .debug_str:0000000000017adb .LASF2802
C:\Users\SOLDER~1\AppData\Local\Temp\ccKV8tJ7.s:27402  .debug_str:00000000000155e5 .LASF2803
C:\Users\SOLDER~1\AppData\Local\Temp\ccKV8tJ7.s:29446  .debug_str:000000000001d9c7 .LASF2804
C:\Users\SOLDER~1\AppData\Local\Temp\ccKV8tJ7.s:25726  .debug_str:000000000000e965 .LASF2805
C:\Users\SOLDER~1\AppData\Local\Temp\ccKV8tJ7.s:24622  .debug_str:000000000000a078 .LASF2806
C:\Users\SOLDER~1\AppData\Local\Temp\ccKV8tJ7.s:23982  .debug_str:0000000000007710 .LASF2807
C:\Users\SOLDER~1\AppData\Local\Temp\ccKV8tJ7.s:22644  .debug_str:000000000000219f .LASF2808
C:\Users\SOLDER~1\AppData\Local\Temp\ccKV8tJ7.s:22356  .debug_str:0000000000000f13 .LASF2809
C:\Users\SOLDER~1\AppData\Local\Temp\ccKV8tJ7.s:24224  .debug_str:00000000000086ae .LASF2810
C:\Users\SOLDER~1\AppData\Local\Temp\ccKV8tJ7.s:32374  .debug_str:00000000000297e1 .LASF2811
C:\Users\SOLDER~1\AppData\Local\Temp\ccKV8tJ7.s:33182  .debug_str:000000000002ccb2 .LASF2812
C:\Users\SOLDER~1\AppData\Local\Temp\ccKV8tJ7.s:22610  .debug_str:0000000000001f69 .LASF2813
C:\Users\SOLDER~1\AppData\Local\Temp\ccKV8tJ7.s:29306  .debug_str:000000000001d068 .LASF2814
GAS LISTING C:\Users\SOLDER~1\AppData\Local\Temp\ccKV8tJ7.s 			page 139


C:\Users\SOLDER~1\AppData\Local\Temp\ccKV8tJ7.s:30224  .debug_str:0000000000020c5a .LASF2815
C:\Users\SOLDER~1\AppData\Local\Temp\ccKV8tJ7.s:22544  .debug_str:0000000000001afd .LASF2816
C:\Users\SOLDER~1\AppData\Local\Temp\ccKV8tJ7.s:29882  .debug_str:000000000001f61f .LASF2817
C:\Users\SOLDER~1\AppData\Local\Temp\ccKV8tJ7.s:29824  .debug_str:000000000001f23e .LASF2818
C:\Users\SOLDER~1\AppData\Local\Temp\ccKV8tJ7.s:30152  .debug_str:0000000000020781 .LASF2819
C:\Users\SOLDER~1\AppData\Local\Temp\ccKV8tJ7.s:23890  .debug_str:0000000000007134 .LASF2820
C:\Users\SOLDER~1\AppData\Local\Temp\ccKV8tJ7.s:30550  .debug_str:0000000000022119 .LASF2821
C:\Users\SOLDER~1\AppData\Local\Temp\ccKV8tJ7.s:24092  .debug_str:0000000000007e16 .LASF2822
C:\Users\SOLDER~1\AppData\Local\Temp\ccKV8tJ7.s:22978  .debug_str:000000000000372d .LASF2823
C:\Users\SOLDER~1\AppData\Local\Temp\ccKV8tJ7.s:28340  .debug_str:000000000001929c .LASF2824
C:\Users\SOLDER~1\AppData\Local\Temp\ccKV8tJ7.s:31182  .debug_str:00000000000249c4 .LASF2825
C:\Users\SOLDER~1\AppData\Local\Temp\ccKV8tJ7.s:28156  .debug_str:0000000000018683 .LASF2826
C:\Users\SOLDER~1\AppData\Local\Temp\ccKV8tJ7.s:23270  .debug_str:0000000000004921 .LASF2827
C:\Users\SOLDER~1\AppData\Local\Temp\ccKV8tJ7.s:30740  .debug_str:0000000000022cd2 .LASF2828
C:\Users\SOLDER~1\AppData\Local\Temp\ccKV8tJ7.s:27456  .debug_str:000000000001596a .LASF2829
C:\Users\SOLDER~1\AppData\Local\Temp\ccKV8tJ7.s:32298  .debug_str:00000000000292f5 .LASF2830
C:\Users\SOLDER~1\AppData\Local\Temp\ccKV8tJ7.s:29662  .debug_str:000000000001e775 .LASF2831
C:\Users\SOLDER~1\AppData\Local\Temp\ccKV8tJ7.s:33840  .debug_str:000000000002f67e .LASF2832
C:\Users\SOLDER~1\AppData\Local\Temp\ccKV8tJ7.s:28526  .debug_str:0000000000019e87 .LASF2833
C:\Users\SOLDER~1\AppData\Local\Temp\ccKV8tJ7.s:26450  .debug_str:00000000000117d4 .LASF2834
C:\Users\SOLDER~1\AppData\Local\Temp\ccKV8tJ7.s:27744  .debug_str:0000000000016b77 .LASF2835
C:\Users\SOLDER~1\AppData\Local\Temp\ccKV8tJ7.s:23636  .debug_str:000000000000601b .LASF2836
C:\Users\SOLDER~1\AppData\Local\Temp\ccKV8tJ7.s:29232  .debug_str:000000000001cb62 .LASF2837
C:\Users\SOLDER~1\AppData\Local\Temp\ccKV8tJ7.s:26392  .debug_str:00000000000113c9 .LASF2838
C:\Users\SOLDER~1\AppData\Local\Temp\ccKV8tJ7.s:23230  .debug_str:00000000000046a2 .LASF2839
C:\Users\SOLDER~1\AppData\Local\Temp\ccKV8tJ7.s:32510  .debug_str:000000000002a0a6 .LASF2840
C:\Users\SOLDER~1\AppData\Local\Temp\ccKV8tJ7.s:29852  .debug_str:000000000001f405 .LASF2841
C:\Users\SOLDER~1\AppData\Local\Temp\ccKV8tJ7.s:29264  .debug_str:000000000001cd8d .LASF2842
C:\Users\SOLDER~1\AppData\Local\Temp\ccKV8tJ7.s:30064  .debug_str:00000000000201f7 .LASF2843
C:\Users\SOLDER~1\AppData\Local\Temp\ccKV8tJ7.s:31888  .debug_str:000000000002782f .LASF2844
C:\Users\SOLDER~1\AppData\Local\Temp\ccKV8tJ7.s:32222  .debug_str:0000000000028e22 .LASF2845
C:\Users\SOLDER~1\AppData\Local\Temp\ccKV8tJ7.s:25616  .debug_str:000000000000e1df .LASF2846
C:\Users\SOLDER~1\AppData\Local\Temp\ccKV8tJ7.s:29136  .debug_str:000000000001c504 .LASF2847
C:\Users\SOLDER~1\AppData\Local\Temp\ccKV8tJ7.s:33800  .debug_str:000000000002f3f6 .LASF2848
C:\Users\SOLDER~1\AppData\Local\Temp\ccKV8tJ7.s:29190  .debug_str:000000000001c87f .LASF2849
C:\Users\SOLDER~1\AppData\Local\Temp\ccKV8tJ7.s:27052  .debug_str:0000000000013ec0 .LASF2850
C:\Users\SOLDER~1\AppData\Local\Temp\ccKV8tJ7.s:33352  .debug_str:000000000002d7d7 .LASF2851
C:\Users\SOLDER~1\AppData\Local\Temp\ccKV8tJ7.s:25436  .debug_str:000000000000d642 .LASF2852
C:\Users\SOLDER~1\AppData\Local\Temp\ccKV8tJ7.s:25042  .debug_str:000000000000bbf7 .LASF2853
C:\Users\SOLDER~1\AppData\Local\Temp\ccKV8tJ7.s:32650  .debug_str:000000000002aa2e .LASF2854
C:\Users\SOLDER~1\AppData\Local\Temp\ccKV8tJ7.s:28816  .debug_str:000000000001b0cd .LASF2855
C:\Users\SOLDER~1\AppData\Local\Temp\ccKV8tJ7.s:33028  .debug_str:000000000002c278 .LASF2856
C:\Users\SOLDER~1\AppData\Local\Temp\ccKV8tJ7.s:25256  .debug_str:000000000000ca47 .LASF2857
C:\Users\SOLDER~1\AppData\Local\Temp\ccKV8tJ7.s:29760  .debug_str:000000000001ee17 .LASF2858
C:\Users\SOLDER~1\AppData\Local\Temp\ccKV8tJ7.s:23468  .debug_str:0000000000005517 .LASF2859
C:\Users\SOLDER~1\AppData\Local\Temp\ccKV8tJ7.s:23002  .debug_str:00000000000038ae .LASF2860
C:\Users\SOLDER~1\AppData\Local\Temp\ccKV8tJ7.s:31870  .debug_str:000000000002770a .LASF2861
C:\Users\SOLDER~1\AppData\Local\Temp\ccKV8tJ7.s:24074  .debug_str:0000000000007ced .LASF2862
C:\Users\SOLDER~1\AppData\Local\Temp\ccKV8tJ7.s:30378  .debug_str:000000000002162c .LASF2863
C:\Users\SOLDER~1\AppData\Local\Temp\ccKV8tJ7.s:29884  .debug_str:000000000001f63f .LASF2864
C:\Users\SOLDER~1\AppData\Local\Temp\ccKV8tJ7.s:26632  .debug_str:00000000000122de .LASF2865
C:\Users\SOLDER~1\AppData\Local\Temp\ccKV8tJ7.s:25134  .debug_str:000000000000c1e8 .LASF2866
C:\Users\SOLDER~1\AppData\Local\Temp\ccKV8tJ7.s:26336  .debug_str:0000000000011048 .LASF2867
C:\Users\SOLDER~1\AppData\Local\Temp\ccKV8tJ7.s:26914  .debug_str:00000000000134f4 .LASF2868
C:\Users\SOLDER~1\AppData\Local\Temp\ccKV8tJ7.s:33706  .debug_str:000000000002ee0a .LASF2869
C:\Users\SOLDER~1\AppData\Local\Temp\ccKV8tJ7.s:26926  .debug_str:00000000000135cd .LASF2870
C:\Users\SOLDER~1\AppData\Local\Temp\ccKV8tJ7.s:33164  .debug_str:000000000002cb89 .LASF2871
GAS LISTING C:\Users\SOLDER~1\AppData\Local\Temp\ccKV8tJ7.s 			page 140


C:\Users\SOLDER~1\AppData\Local\Temp\ccKV8tJ7.s:33280  .debug_str:000000000002d2d7 .LASF2872
C:\Users\SOLDER~1\AppData\Local\Temp\ccKV8tJ7.s:28828  .debug_str:000000000001b196 .LASF2873
C:\Users\SOLDER~1\AppData\Local\Temp\ccKV8tJ7.s:33194  .debug_str:000000000002cd84 .LASF2874
C:\Users\SOLDER~1\AppData\Local\Temp\ccKV8tJ7.s:30356  .debug_str:0000000000021490 .LASF2875
C:\Users\SOLDER~1\AppData\Local\Temp\ccKV8tJ7.s:25926  .debug_str:000000000000f5e6 .LASF2876
C:\Users\SOLDER~1\AppData\Local\Temp\ccKV8tJ7.s:26032  .debug_str:000000000000fd22 .LASF2877
C:\Users\SOLDER~1\AppData\Local\Temp\ccKV8tJ7.s:25938  .debug_str:000000000000f6b2 .LASF2878
C:\Users\SOLDER~1\AppData\Local\Temp\ccKV8tJ7.s:27976  .debug_str:0000000000017a99 .LASF2879
C:\Users\SOLDER~1\AppData\Local\Temp\ccKV8tJ7.s:33664  .debug_str:000000000002eb6c .LASF2880
C:\Users\SOLDER~1\AppData\Local\Temp\ccKV8tJ7.s:25450  .debug_str:000000000000d729 .LASF2881
C:\Users\SOLDER~1\AppData\Local\Temp\ccKV8tJ7.s:33746  .debug_str:000000000002f0c8 .LASF2882
C:\Users\SOLDER~1\AppData\Local\Temp\ccKV8tJ7.s:32868  .debug_str:000000000002b85f .LASF2883
C:\Users\SOLDER~1\AppData\Local\Temp\ccKV8tJ7.s:23904  .debug_str:0000000000007215 .LASF2884
C:\Users\SOLDER~1\AppData\Local\Temp\ccKV8tJ7.s:31042  .debug_str:0000000000024096 .LASF2885
C:\Users\SOLDER~1\AppData\Local\Temp\ccKV8tJ7.s:23580  .debug_str:0000000000005c6b .LASF2886
C:\Users\SOLDER~1\AppData\Local\Temp\ccKV8tJ7.s:24192  .debug_str:0000000000008497 .LASF2887
C:\Users\SOLDER~1\AppData\Local\Temp\ccKV8tJ7.s:24920  .debug_str:000000000000b40f .LASF2888
C:\Users\SOLDER~1\AppData\Local\Temp\ccKV8tJ7.s:24976  .debug_str:000000000000b7a6 .LASF2889
C:\Users\SOLDER~1\AppData\Local\Temp\ccKV8tJ7.s:23892  .debug_str:0000000000007154 .LASF2890
C:\Users\SOLDER~1\AppData\Local\Temp\ccKV8tJ7.s:22930  .debug_str:000000000000342f .LASF2891
C:\Users\SOLDER~1\AppData\Local\Temp\ccKV8tJ7.s:25644  .debug_str:000000000000e40f .LASF2892
C:\Users\SOLDER~1\AppData\Local\Temp\ccKV8tJ7.s:27712  .debug_str:0000000000016966 .LASF2893
C:\Users\SOLDER~1\AppData\Local\Temp\ccKV8tJ7.s:33502  .debug_str:000000000002e147 .LASF2894
C:\Users\SOLDER~1\AppData\Local\Temp\ccKV8tJ7.s:24822  .debug_str:000000000000adbf .LASF2895
C:\Users\SOLDER~1\AppData\Local\Temp\ccKV8tJ7.s:32570  .debug_str:000000000002a4bf .LASF2896
C:\Users\SOLDER~1\AppData\Local\Temp\ccKV8tJ7.s:33582  .debug_str:000000000002e65a .LASF2897
C:\Users\SOLDER~1\AppData\Local\Temp\ccKV8tJ7.s:33360  .debug_str:000000000002d856 .LASF2898
C:\Users\SOLDER~1\AppData\Local\Temp\ccKV8tJ7.s:23414  .debug_str:00000000000051e6 .LASF2899
C:\Users\SOLDER~1\AppData\Local\Temp\ccKV8tJ7.s:24396  .debug_str:000000000000921a .LASF2900
C:\Users\SOLDER~1\AppData\Local\Temp\ccKV8tJ7.s:29448  .debug_str:000000000001d9ef .LASF2901
C:\Users\SOLDER~1\AppData\Local\Temp\ccKV8tJ7.s:25328  .debug_str:000000000000cf3d .LASF2902
C:\Users\SOLDER~1\AppData\Local\Temp\ccKV8tJ7.s:27196  .debug_str:00000000000148bc .LASF2903
C:\Users\SOLDER~1\AppData\Local\Temp\ccKV8tJ7.s:32208  .debug_str:0000000000028d29 .LASF2904
C:\Users\SOLDER~1\AppData\Local\Temp\ccKV8tJ7.s:24584  .debug_str:0000000000009e08 .LASF2905
C:\Users\SOLDER~1\AppData\Local\Temp\ccKV8tJ7.s:32314  .debug_str:0000000000029406 .LASF2906
C:\Users\SOLDER~1\AppData\Local\Temp\ccKV8tJ7.s:28248  .debug_str:0000000000018c61 .LASF2907
C:\Users\SOLDER~1\AppData\Local\Temp\ccKV8tJ7.s:25660  .debug_str:000000000000e539 .LASF2908
C:\Users\SOLDER~1\AppData\Local\Temp\ccKV8tJ7.s:30468  .debug_str:0000000000021bf3 .LASF2909
C:\Users\SOLDER~1\AppData\Local\Temp\ccKV8tJ7.s:31234  .debug_str:0000000000024d2d .LASF2910
C:\Users\SOLDER~1\AppData\Local\Temp\ccKV8tJ7.s:26478  .debug_str:000000000001196d .LASF2911
C:\Users\SOLDER~1\AppData\Local\Temp\ccKV8tJ7.s:25548  .debug_str:000000000000dd52 .LASF2912
C:\Users\SOLDER~1\AppData\Local\Temp\ccKV8tJ7.s:25890  .debug_str:000000000000f39b .LASF2913
C:\Users\SOLDER~1\AppData\Local\Temp\ccKV8tJ7.s:22810  .debug_str:0000000000002c5b .LASF2914
C:\Users\SOLDER~1\AppData\Local\Temp\ccKV8tJ7.s:28238  .debug_str:0000000000018bd2 .LASF2915
C:\Users\SOLDER~1\AppData\Local\Temp\ccKV8tJ7.s:22224  .debug_str:0000000000000556 .LASF2916
C:\Users\SOLDER~1\AppData\Local\Temp\ccKV8tJ7.s:30958  .debug_str:0000000000023b47 .LASF2917
C:\Users\SOLDER~1\AppData\Local\Temp\ccKV8tJ7.s:25668  .debug_str:000000000000e5c0 .LASF2918
C:\Users\SOLDER~1\AppData\Local\Temp\ccKV8tJ7.s:29878  .debug_str:000000000001f5e5 .LASF2919
C:\Users\SOLDER~1\AppData\Local\Temp\ccKV8tJ7.s:31200  .debug_str:0000000000024ad3 .LASF2920
C:\Users\SOLDER~1\AppData\Local\Temp\ccKV8tJ7.s:29568  .debug_str:000000000001e174 .LASF2921
C:\Users\SOLDER~1\AppData\Local\Temp\ccKV8tJ7.s:26150  .debug_str:00000000000104aa .LASF2922
C:\Users\SOLDER~1\AppData\Local\Temp\ccKV8tJ7.s:31258  .debug_str:0000000000024ec3 .LASF2923
C:\Users\SOLDER~1\AppData\Local\Temp\ccKV8tJ7.s:28312  .debug_str:00000000000190de .LASF2924
C:\Users\SOLDER~1\AppData\Local\Temp\ccKV8tJ7.s:27870  .debug_str:000000000001736e .LASF2925
C:\Users\SOLDER~1\AppData\Local\Temp\ccKV8tJ7.s:27142  .debug_str:000000000001450d .LASF2926
C:\Users\SOLDER~1\AppData\Local\Temp\ccKV8tJ7.s:25444  .debug_str:000000000000d6c7 .LASF2927
C:\Users\SOLDER~1\AppData\Local\Temp\ccKV8tJ7.s:25742  .debug_str:000000000000ea87 .LASF2928
GAS LISTING C:\Users\SOLDER~1\AppData\Local\Temp\ccKV8tJ7.s 			page 141


C:\Users\SOLDER~1\AppData\Local\Temp\ccKV8tJ7.s:28104  .debug_str:0000000000018330 .LASF2929
C:\Users\SOLDER~1\AppData\Local\Temp\ccKV8tJ7.s:29582  .debug_str:000000000001e271 .LASF2930
C:\Users\SOLDER~1\AppData\Local\Temp\ccKV8tJ7.s:31312  .debug_str:0000000000025244 .LASF2931
C:\Users\SOLDER~1\AppData\Local\Temp\ccKV8tJ7.s:31830  .debug_str:0000000000027475 .LASF2932
C:\Users\SOLDER~1\AppData\Local\Temp\ccKV8tJ7.s:32220  .debug_str:0000000000028df9 .LASF2933
C:\Users\SOLDER~1\AppData\Local\Temp\ccKV8tJ7.s:29456  .debug_str:000000000001da57 .LASF2934
C:\Users\SOLDER~1\AppData\Local\Temp\ccKV8tJ7.s:28236  .debug_str:0000000000018bb8 .LASF2935
C:\Users\SOLDER~1\AppData\Local\Temp\ccKV8tJ7.s:31362  .debug_str:0000000000025571 .LASF2936
C:\Users\SOLDER~1\AppData\Local\Temp\ccKV8tJ7.s:22152  .debug_str:00000000000000be .LASF2937
C:\Users\SOLDER~1\AppData\Local\Temp\ccKV8tJ7.s:31614  .debug_str:0000000000026614 .LASF2938
C:\Users\SOLDER~1\AppData\Local\Temp\ccKV8tJ7.s:22412  .debug_str:0000000000001292 .LASF2939
C:\Users\SOLDER~1\AppData\Local\Temp\ccKV8tJ7.s:23300  .debug_str:0000000000004af0 .LASF2940
C:\Users\SOLDER~1\AppData\Local\Temp\ccKV8tJ7.s:24020  .debug_str:0000000000007964 .LASF2941
C:\Users\SOLDER~1\AppData\Local\Temp\ccKV8tJ7.s:31132  .debug_str:0000000000024688 .LASF2942
C:\Users\SOLDER~1\AppData\Local\Temp\ccKV8tJ7.s:31020  .debug_str:0000000000023f31 .LASF2943
C:\Users\SOLDER~1\AppData\Local\Temp\ccKV8tJ7.s:24218  .debug_str:000000000000862f .LASF2944
C:\Users\SOLDER~1\AppData\Local\Temp\ccKV8tJ7.s:27012  .debug_str:0000000000013c00 .LASF2945
C:\Users\SOLDER~1\AppData\Local\Temp\ccKV8tJ7.s:28598  .debug_str:000000000001a2cd .LASF2946
C:\Users\SOLDER~1\AppData\Local\Temp\ccKV8tJ7.s:27674  .debug_str:0000000000016758 .LASF2947
C:\Users\SOLDER~1\AppData\Local\Temp\ccKV8tJ7.s:28136  .debug_str:000000000001853c .LASF2948
C:\Users\SOLDER~1\AppData\Local\Temp\ccKV8tJ7.s:28396  .debug_str:0000000000019641 .LASF2949
C:\Users\SOLDER~1\AppData\Local\Temp\ccKV8tJ7.s:26794  .debug_str:0000000000012d1d .LASF2950
C:\Users\SOLDER~1\AppData\Local\Temp\ccKV8tJ7.s:28498  .debug_str:0000000000019c9f .LASF2951
C:\Users\SOLDER~1\AppData\Local\Temp\ccKV8tJ7.s:22898  .debug_str:0000000000003222 .LASF2952
C:\Users\SOLDER~1\AppData\Local\Temp\ccKV8tJ7.s:22352  .debug_str:0000000000000edf .LASF2953
C:\Users\SOLDER~1\AppData\Local\Temp\ccKV8tJ7.s:28298  .debug_str:0000000000018fd9 .LASF2954
C:\Users\SOLDER~1\AppData\Local\Temp\ccKV8tJ7.s:31596  .debug_str:00000000000264ec .LASF2955
C:\Users\SOLDER~1\AppData\Local\Temp\ccKV8tJ7.s:32344  .debug_str:00000000000295d0 .LASF2956
C:\Users\SOLDER~1\AppData\Local\Temp\ccKV8tJ7.s:22712  .debug_str:0000000000002626 .LASF2957
C:\Users\SOLDER~1\AppData\Local\Temp\ccKV8tJ7.s:25878  .debug_str:000000000000f2d8 .LASF2958
C:\Users\SOLDER~1\AppData\Local\Temp\ccKV8tJ7.s:33324  .debug_str:000000000002d5c2 .LASF2959
C:\Users\SOLDER~1\AppData\Local\Temp\ccKV8tJ7.s:26426  .debug_str:000000000001161e .LASF2960
C:\Users\SOLDER~1\AppData\Local\Temp\ccKV8tJ7.s:27824  .debug_str:000000000001704a .LASF2961
C:\Users\SOLDER~1\AppData\Local\Temp\ccKV8tJ7.s:23762  .debug_str:00000000000068ca .LASF2962
C:\Users\SOLDER~1\AppData\Local\Temp\ccKV8tJ7.s:25552  .debug_str:000000000000ddb8 .LASF2963
C:\Users\SOLDER~1\AppData\Local\Temp\ccKV8tJ7.s:31330  .debug_str:000000000002536a .LASF2964
C:\Users\SOLDER~1\AppData\Local\Temp\ccKV8tJ7.s:33770  .debug_str:000000000002f23b .LASF2965
C:\Users\SOLDER~1\AppData\Local\Temp\ccKV8tJ7.s:22272  .debug_str:000000000000093f .LASF2966
C:\Users\SOLDER~1\AppData\Local\Temp\ccKV8tJ7.s:22166  .debug_str:0000000000000175 .LASF2967
C:\Users\SOLDER~1\AppData\Local\Temp\ccKV8tJ7.s:31728  .debug_str:0000000000026dc5 .LASF2968
C:\Users\SOLDER~1\AppData\Local\Temp\ccKV8tJ7.s:30606  .debug_str:000000000002249e .LASF2969
C:\Users\SOLDER~1\AppData\Local\Temp\ccKV8tJ7.s:29890  .debug_str:000000000001f6a5 .LASF2970
C:\Users\SOLDER~1\AppData\Local\Temp\ccKV8tJ7.s:25974  .debug_str:000000000000f906 .LASF2971
C:\Users\SOLDER~1\AppData\Local\Temp\ccKV8tJ7.s:30884  .debug_str:000000000002364d .LASF2972
C:\Users\SOLDER~1\AppData\Local\Temp\ccKV8tJ7.s:24792  .debug_str:000000000000abe0 .LASF2973
C:\Users\SOLDER~1\AppData\Local\Temp\ccKV8tJ7.s:22600  .debug_str:0000000000001ebd .LASF2974
C:\Users\SOLDER~1\AppData\Local\Temp\ccKV8tJ7.s:26920  .debug_str:0000000000013559 .LASF2975
C:\Users\SOLDER~1\AppData\Local\Temp\ccKV8tJ7.s:24448  .debug_str:0000000000009576 .LASF2976
C:\Users\SOLDER~1\AppData\Local\Temp\ccKV8tJ7.s:30664  .debug_str:00000000000227d2 .LASF2977
C:\Users\SOLDER~1\AppData\Local\Temp\ccKV8tJ7.s:33328  .debug_str:000000000002d612 .LASF2978
C:\Users\SOLDER~1\AppData\Local\Temp\ccKV8tJ7.s:25166  .debug_str:000000000000c41c .LASF2979
C:\Users\SOLDER~1\AppData\Local\Temp\ccKV8tJ7.s:30896  .debug_str:0000000000023709 .LASF2980
C:\Users\SOLDER~1\AppData\Local\Temp\ccKV8tJ7.s:24740  .debug_str:000000000000a86f .LASF2981
C:\Users\SOLDER~1\AppData\Local\Temp\ccKV8tJ7.s:33310  .debug_str:000000000002d4ca .LASF2982
C:\Users\SOLDER~1\AppData\Local\Temp\ccKV8tJ7.s:27616  .debug_str:00000000000163a8 .LASF2983
C:\Users\SOLDER~1\AppData\Local\Temp\ccKV8tJ7.s:32100  .debug_str:000000000002860f .LASF2984
C:\Users\SOLDER~1\AppData\Local\Temp\ccKV8tJ7.s:28424  .debug_str:0000000000019841 .LASF2985
GAS LISTING C:\Users\SOLDER~1\AppData\Local\Temp\ccKV8tJ7.s 			page 142


C:\Users\SOLDER~1\AppData\Local\Temp\ccKV8tJ7.s:23092  .debug_str:0000000000003e45 .LASF2986
C:\Users\SOLDER~1\AppData\Local\Temp\ccKV8tJ7.s:33218  .debug_str:000000000002cef2 .LASF2987
C:\Users\SOLDER~1\AppData\Local\Temp\ccKV8tJ7.s:22616  .debug_str:0000000000001fd8 .LASF2988
C:\Users\SOLDER~1\AppData\Local\Temp\ccKV8tJ7.s:26246  .debug_str:0000000000010adc .LASF2989
C:\Users\SOLDER~1\AppData\Local\Temp\ccKV8tJ7.s:23540  .debug_str:00000000000059f1 .LASF2990
C:\Users\SOLDER~1\AppData\Local\Temp\ccKV8tJ7.s:33736  .debug_str:000000000002f03c .LASF2991
C:\Users\SOLDER~1\AppData\Local\Temp\ccKV8tJ7.s:22642  .debug_str:0000000000002177 .LASF2992
C:\Users\SOLDER~1\AppData\Local\Temp\ccKV8tJ7.s:31860  .debug_str:0000000000027658 .LASF2993
C:\Users\SOLDER~1\AppData\Local\Temp\ccKV8tJ7.s:24686  .debug_str:000000000000a4bb .LASF2994
C:\Users\SOLDER~1\AppData\Local\Temp\ccKV8tJ7.s:22826  .debug_str:0000000000002d7d .LASF2995
C:\Users\SOLDER~1\AppData\Local\Temp\ccKV8tJ7.s:31670  .debug_str:0000000000026a0c .LASF2996
C:\Users\SOLDER~1\AppData\Local\Temp\ccKV8tJ7.s:25542  .debug_str:000000000000dcdf .LASF2997
C:\Users\SOLDER~1\AppData\Local\Temp\ccKV8tJ7.s:27086  .debug_str:000000000001412a .LASF2998
C:\Users\SOLDER~1\AppData\Local\Temp\ccKV8tJ7.s:31640  .debug_str:00000000000267dc .LASF2999
C:\Users\SOLDER~1\AppData\Local\Temp\ccKV8tJ7.s:22636  .debug_str:0000000000002103 .LASF3000
C:\Users\SOLDER~1\AppData\Local\Temp\ccKV8tJ7.s:28698  .debug_str:000000000001a8f8 .LASF3001
C:\Users\SOLDER~1\AppData\Local\Temp\ccKV8tJ7.s:26962  .debug_str:0000000000013844 .LASF3002
C:\Users\SOLDER~1\AppData\Local\Temp\ccKV8tJ7.s:30618  .debug_str:0000000000022550 .LASF3003
C:\Users\SOLDER~1\AppData\Local\Temp\ccKV8tJ7.s:29474  .debug_str:000000000001db74 .LASF3004
C:\Users\SOLDER~1\AppData\Local\Temp\ccKV8tJ7.s:31286  .debug_str:000000000002509d .LASF3005
C:\Users\SOLDER~1\AppData\Local\Temp\ccKV8tJ7.s:24768  .debug_str:000000000000aa5c .LASF3006
C:\Users\SOLDER~1\AppData\Local\Temp\ccKV8tJ7.s:30672  .debug_str:0000000000022857 .LASF3007
C:\Users\SOLDER~1\AppData\Local\Temp\ccKV8tJ7.s:28352  .debug_str:0000000000019367 .LASF3008
C:\Users\SOLDER~1\AppData\Local\Temp\ccKV8tJ7.s:33220  .debug_str:000000000002cf0b .LASF3009
C:\Users\SOLDER~1\AppData\Local\Temp\ccKV8tJ7.s:28734  .debug_str:000000000001ab6a .LASF3010
C:\Users\SOLDER~1\AppData\Local\Temp\ccKV8tJ7.s:33460  .debug_str:000000000002debf .LASF3011
C:\Users\SOLDER~1\AppData\Local\Temp\ccKV8tJ7.s:30070  .debug_str:000000000002023e .LASF3012
C:\Users\SOLDER~1\AppData\Local\Temp\ccKV8tJ7.s:24470  .debug_str:00000000000096c0 .LASF3013
C:\Users\SOLDER~1\AppData\Local\Temp\ccKV8tJ7.s:26176  .debug_str:0000000000010690 .LASF3014
C:\Users\SOLDER~1\AppData\Local\Temp\ccKV8tJ7.s:27070  .debug_str:0000000000014014 .LASF3015
C:\Users\SOLDER~1\AppData\Local\Temp\ccKV8tJ7.s:28066  .debug_str:0000000000018077 .LASF3016
C:\Users\SOLDER~1\AppData\Local\Temp\ccKV8tJ7.s:25114  .debug_str:000000000000c09a .LASF3017
C:\Users\SOLDER~1\AppData\Local\Temp\ccKV8tJ7.s:24500  .debug_str:00000000000098c0 .LASF3018
C:\Users\SOLDER~1\AppData\Local\Temp\ccKV8tJ7.s:23194  .debug_str:0000000000004456 .LASF3019
C:\Users\SOLDER~1\AppData\Local\Temp\ccKV8tJ7.s:33680  .debug_str:000000000002ec7b .LASF3020
C:\Users\SOLDER~1\AppData\Local\Temp\ccKV8tJ7.s:32990  .debug_str:000000000002c011 .LASF3021
C:\Users\SOLDER~1\AppData\Local\Temp\ccKV8tJ7.s:29576  .debug_str:000000000001e20a .LASF3022
C:\Users\SOLDER~1\AppData\Local\Temp\ccKV8tJ7.s:31560  .debug_str:0000000000026258 .LASF3023
C:\Users\SOLDER~1\AppData\Local\Temp\ccKV8tJ7.s:28872  .debug_str:000000000001b420 .LASF3024
C:\Users\SOLDER~1\AppData\Local\Temp\ccKV8tJ7.s:29226  .debug_str:000000000001cb09 .LASF3025
C:\Users\SOLDER~1\AppData\Local\Temp\ccKV8tJ7.s:22730  .debug_str:0000000000002747 .LASF3026
C:\Users\SOLDER~1\AppData\Local\Temp\ccKV8tJ7.s:27310  .debug_str:000000000001502d .LASF3027
C:\Users\SOLDER~1\AppData\Local\Temp\ccKV8tJ7.s:31948  .debug_str:0000000000027c1a .LASF3028
C:\Users\SOLDER~1\AppData\Local\Temp\ccKV8tJ7.s:25372  .debug_str:000000000000d217 .LASF3029
C:\Users\SOLDER~1\AppData\Local\Temp\ccKV8tJ7.s:27266  .debug_str:0000000000014d4f .LASF3030
C:\Users\SOLDER~1\AppData\Local\Temp\ccKV8tJ7.s:33662  .debug_str:000000000002eb54 .LASF3031
C:\Users\SOLDER~1\AppData\Local\Temp\ccKV8tJ7.s:24394  .debug_str:00000000000091f8 .LASF3032
C:\Users\SOLDER~1\AppData\Local\Temp\ccKV8tJ7.s:33240  .debug_str:000000000002d055 .LASF3033
C:\Users\SOLDER~1\AppData\Local\Temp\ccKV8tJ7.s:26688  .debug_str:0000000000012663 .LASF3034
C:\Users\SOLDER~1\AppData\Local\Temp\ccKV8tJ7.s:32616  .debug_str:000000000002a7e9 .LASF3035
C:\Users\SOLDER~1\AppData\Local\Temp\ccKV8tJ7.s:24638  .debug_str:000000000000a199 .LASF3036
C:\Users\SOLDER~1\AppData\Local\Temp\ccKV8tJ7.s:30846  .debug_str:00000000000233dd .LASF3037
C:\Users\SOLDER~1\AppData\Local\Temp\ccKV8tJ7.s:22546  .debug_str:0000000000001b28 .LASF3038
C:\Users\SOLDER~1\AppData\Local\Temp\ccKV8tJ7.s:22596  .debug_str:0000000000001e7a .LASF3039
C:\Users\SOLDER~1\AppData\Local\Temp\ccKV8tJ7.s:22768  .debug_str:00000000000029fb .LASF3040
C:\Users\SOLDER~1\AppData\Local\Temp\ccKV8tJ7.s:27562  .debug_str:0000000000016017 .LASF3041
C:\Users\SOLDER~1\AppData\Local\Temp\ccKV8tJ7.s:26252  .debug_str:0000000000010b57 .LASF3042
GAS LISTING C:\Users\SOLDER~1\AppData\Local\Temp\ccKV8tJ7.s 			page 143


C:\Users\SOLDER~1\AppData\Local\Temp\ccKV8tJ7.s:25786  .debug_str:000000000000ed18 .LASF3043
C:\Users\SOLDER~1\AppData\Local\Temp\ccKV8tJ7.s:28380  .debug_str:0000000000019522 .LASF3044
C:\Users\SOLDER~1\AppData\Local\Temp\ccKV8tJ7.s:24120  .debug_str:0000000000007fee .LASF3045
C:\Users\SOLDER~1\AppData\Local\Temp\ccKV8tJ7.s:25446  .debug_str:000000000000d6e1 .LASF3046
C:\Users\SOLDER~1\AppData\Local\Temp\ccKV8tJ7.s:28126  .debug_str:00000000000184b4 .LASF3047
C:\Users\SOLDER~1\AppData\Local\Temp\ccKV8tJ7.s:30822  .debug_str:000000000002326f .LASF3048
C:\Users\SOLDER~1\AppData\Local\Temp\ccKV8tJ7.s:26620  .debug_str:0000000000012217 .LASF3049
C:\Users\SOLDER~1\AppData\Local\Temp\ccKV8tJ7.s:29970  .debug_str:000000000001fc14 .LASF3050
C:\Users\SOLDER~1\AppData\Local\Temp\ccKV8tJ7.s:24242  .debug_str:00000000000087cd .LASF3051
C:\Users\SOLDER~1\AppData\Local\Temp\ccKV8tJ7.s:25104  .debug_str:000000000000bfed .LASF3052
C:\Users\SOLDER~1\AppData\Local\Temp\ccKV8tJ7.s:22436  .debug_str:0000000000001423 .LASF3053
C:\Users\SOLDER~1\AppData\Local\Temp\ccKV8tJ7.s:33620  .debug_str:000000000002e8b6 .LASF3054
C:\Users\SOLDER~1\AppData\Local\Temp\ccKV8tJ7.s:32194  .debug_str:0000000000028c22 .LASF3055
C:\Users\SOLDER~1\AppData\Local\Temp\ccKV8tJ7.s:30914  .debug_str:0000000000023842 .LASF3056
C:\Users\SOLDER~1\AppData\Local\Temp\ccKV8tJ7.s:30254  .debug_str:0000000000020e36 .LASF3057
C:\Users\SOLDER~1\AppData\Local\Temp\ccKV8tJ7.s:25122  .debug_str:000000000000c112 .LASF3058
C:\Users\SOLDER~1\AppData\Local\Temp\ccKV8tJ7.s:27328  .debug_str:0000000000015144 .LASF3059
C:\Users\SOLDER~1\AppData\Local\Temp\ccKV8tJ7.s:24262  .debug_str:00000000000088e6 .LASF3060
C:\Users\SOLDER~1\AppData\Local\Temp\ccKV8tJ7.s:26418  .debug_str:000000000001157b .LASF3061
C:\Users\SOLDER~1\AppData\Local\Temp\ccKV8tJ7.s:28568  .debug_str:000000000001a0d7 .LASF3062
C:\Users\SOLDER~1\AppData\Local\Temp\ccKV8tJ7.s:22566  .debug_str:0000000000001c7c .LASF3063
C:\Users\SOLDER~1\AppData\Local\Temp\ccKV8tJ7.s:23080  .debug_str:0000000000003d84 .LASF3064
C:\Users\SOLDER~1\AppData\Local\Temp\ccKV8tJ7.s:31868  .debug_str:00000000000276f1 .LASF3065
C:\Users\SOLDER~1\AppData\Local\Temp\ccKV8tJ7.s:28070  .debug_str:00000000000180c5 .LASF3066
C:\Users\SOLDER~1\AppData\Local\Temp\ccKV8tJ7.s:28960  .debug_str:000000000001b9aa .LASF3067
C:\Users\SOLDER~1\AppData\Local\Temp\ccKV8tJ7.s:26274  .debug_str:0000000000010cbc .LASF3068
C:\Users\SOLDER~1\AppData\Local\Temp\ccKV8tJ7.s:28176  .debug_str:00000000000187bd .LASF3069
C:\Users\SOLDER~1\AppData\Local\Temp\ccKV8tJ7.s:32890  .debug_str:000000000002b996 .LASF3070
C:\Users\SOLDER~1\AppData\Local\Temp\ccKV8tJ7.s:28974  .debug_str:000000000001ba7c .LASF3071
C:\Users\SOLDER~1\AppData\Local\Temp\ccKV8tJ7.s:24492  .debug_str:000000000000982f .LASF3072
C:\Users\SOLDER~1\AppData\Local\Temp\ccKV8tJ7.s:32716  .debug_str:000000000002ae5a .LASF3073
C:\Users\SOLDER~1\AppData\Local\Temp\ccKV8tJ7.s:32210  .debug_str:0000000000028d53 .LASF3074
C:\Users\SOLDER~1\AppData\Local\Temp\ccKV8tJ7.s:33230  .debug_str:000000000002cfba .LASF3075
C:\Users\SOLDER~1\AppData\Local\Temp\ccKV8tJ7.s:29654  .debug_str:000000000001e6fc .LASF3076
C:\Users\SOLDER~1\AppData\Local\Temp\ccKV8tJ7.s:33116  .debug_str:000000000002c8a7 .LASF3077
C:\Users\SOLDER~1\AppData\Local\Temp\ccKV8tJ7.s:24100  .debug_str:0000000000007e99 .LASF3078
C:\Users\SOLDER~1\AppData\Local\Temp\ccKV8tJ7.s:29466  .debug_str:000000000001db01 .LASF3079
C:\Users\SOLDER~1\AppData\Local\Temp\ccKV8tJ7.s:32174  .debug_str:0000000000028adb .LASF3080
C:\Users\SOLDER~1\AppData\Local\Temp\ccKV8tJ7.s:25018  .debug_str:000000000000ba58 .LASF3081
C:\Users\SOLDER~1\AppData\Local\Temp\ccKV8tJ7.s:32456  .debug_str:0000000000029d5f .LASF3082
C:\Users\SOLDER~1\AppData\Local\Temp\ccKV8tJ7.s:23084  .debug_str:0000000000003dcc .LASF3083
C:\Users\SOLDER~1\AppData\Local\Temp\ccKV8tJ7.s:23654  .debug_str:0000000000006172 .LASF3084
C:\Users\SOLDER~1\AppData\Local\Temp\ccKV8tJ7.s:32876  .debug_str:000000000002b8d3 .LASF3085
C:\Users\SOLDER~1\AppData\Local\Temp\ccKV8tJ7.s:27400  .debug_str:00000000000155c0 .LASF3086
C:\Users\SOLDER~1\AppData\Local\Temp\ccKV8tJ7.s:30930  .debug_str:0000000000023971 .LASF3087
C:\Users\SOLDER~1\AppData\Local\Temp\ccKV8tJ7.s:27362  .debug_str:0000000000015354 .LASF3088
C:\Users\SOLDER~1\AppData\Local\Temp\ccKV8tJ7.s:29038  .debug_str:000000000001be98 .LASF3089
C:\Users\SOLDER~1\AppData\Local\Temp\ccKV8tJ7.s:28118  .debug_str:0000000000018425 .LASF3090
C:\Users\SOLDER~1\AppData\Local\Temp\ccKV8tJ7.s:32378  .debug_str:0000000000029823 .LASF3091
C:\Users\SOLDER~1\AppData\Local\Temp\ccKV8tJ7.s:23502  .debug_str:000000000000575b .LASF3092
C:\Users\SOLDER~1\AppData\Local\Temp\ccKV8tJ7.s:25254  .debug_str:000000000000ca30 .LASF3093
C:\Users\SOLDER~1\AppData\Local\Temp\ccKV8tJ7.s:23696  .debug_str:0000000000006412 .LASF3094
C:\Users\SOLDER~1\AppData\Local\Temp\ccKV8tJ7.s:27622  .debug_str:000000000001640d .LASF3095
C:\Users\SOLDER~1\AppData\Local\Temp\ccKV8tJ7.s:30016  .debug_str:000000000001fed9 .LASF3096
C:\Users\SOLDER~1\AppData\Local\Temp\ccKV8tJ7.s:33130  .debug_str:000000000002c97a .LASF3097
C:\Users\SOLDER~1\AppData\Local\Temp\ccKV8tJ7.s:25852  .debug_str:000000000000f14f .LASF3098
C:\Users\SOLDER~1\AppData\Local\Temp\ccKV8tJ7.s:27658  .debug_str:0000000000016639 .LASF3099
GAS LISTING C:\Users\SOLDER~1\AppData\Local\Temp\ccKV8tJ7.s 			page 144


C:\Users\SOLDER~1\AppData\Local\Temp\ccKV8tJ7.s:32974  .debug_str:000000000002bf08 .LASF3100
C:\Users\SOLDER~1\AppData\Local\Temp\ccKV8tJ7.s:26496  .debug_str:0000000000011ab0 .LASF3101
C:\Users\SOLDER~1\AppData\Local\Temp\ccKV8tJ7.s:25810  .debug_str:000000000000eeaa .LASF3102
C:\Users\SOLDER~1\AppData\Local\Temp\ccKV8tJ7.s:27422  .debug_str:000000000001573f .LASF3103
C:\Users\SOLDER~1\AppData\Local\Temp\ccKV8tJ7.s:27918  .debug_str:00000000000176c3 .LASF3104
C:\Users\SOLDER~1\AppData\Local\Temp\ccKV8tJ7.s:25696  .debug_str:000000000000e777 .LASF3105
C:\Users\SOLDER~1\AppData\Local\Temp\ccKV8tJ7.s:32688  .debug_str:000000000002acb5 .LASF3106
C:\Users\SOLDER~1\AppData\Local\Temp\ccKV8tJ7.s:24006  .debug_str:0000000000007862 .LASF3107
C:\Users\SOLDER~1\AppData\Local\Temp\ccKV8tJ7.s:30486  .debug_str:0000000000021d0e .LASF3108
C:\Users\SOLDER~1\AppData\Local\Temp\ccKV8tJ7.s:22376  .debug_str:000000000000104f .LASF3109
C:\Users\SOLDER~1\AppData\Local\Temp\ccKV8tJ7.s:27480  .debug_str:0000000000015af1 .LASF3110
C:\Users\SOLDER~1\AppData\Local\Temp\ccKV8tJ7.s:27344  .debug_str:0000000000015234 .LASF3111
C:\Users\SOLDER~1\AppData\Local\Temp\ccKV8tJ7.s:31356  .debug_str:0000000000025514 .LASF3112
C:\Users\SOLDER~1\AppData\Local\Temp\ccKV8tJ7.s:31024  .debug_str:0000000000023f70 .LASF3113
C:\Users\SOLDER~1\AppData\Local\Temp\ccKV8tJ7.s:29364  .debug_str:000000000001d423 .LASF3114
C:\Users\SOLDER~1\AppData\Local\Temp\ccKV8tJ7.s:29296  .debug_str:000000000001cfcd .LASF3115
C:\Users\SOLDER~1\AppData\Local\Temp\ccKV8tJ7.s:30936  .debug_str:00000000000239db .LASF3116
C:\Users\SOLDER~1\AppData\Local\Temp\ccKV8tJ7.s:26100  .debug_str:00000000000101cd .LASF3117
C:\Users\SOLDER~1\AppData\Local\Temp\ccKV8tJ7.s:29588  .debug_str:000000000001e2e1 .LASF3118
C:\Users\SOLDER~1\AppData\Local\Temp\ccKV8tJ7.s:28774  .debug_str:000000000001addc .LASF3119
C:\Users\SOLDER~1\AppData\Local\Temp\ccKV8tJ7.s:29528  .debug_str:000000000001deb6 .LASF3120
C:\Users\SOLDER~1\AppData\Local\Temp\ccKV8tJ7.s:27036  .debug_str:0000000000013dc8 .LASF3121
C:\Users\SOLDER~1\AppData\Local\Temp\ccKV8tJ7.s:32630  .debug_str:000000000002a8ea .LASF3122
C:\Users\SOLDER~1\AppData\Local\Temp\ccKV8tJ7.s:23782  .debug_str:0000000000006a13 .LASF3123
C:\Users\SOLDER~1\AppData\Local\Temp\ccKV8tJ7.s:24592  .debug_str:0000000000009e81 .LASF3124
C:\Users\SOLDER~1\AppData\Local\Temp\ccKV8tJ7.s:23680  .debug_str:0000000000006316 .LASF3125
C:\Users\SOLDER~1\AppData\Local\Temp\ccKV8tJ7.s:26646  .debug_str:00000000000123bc .LASF3126
C:\Users\SOLDER~1\AppData\Local\Temp\ccKV8tJ7.s:22878  .debug_str:00000000000030d5 .LASF3127
C:\Users\SOLDER~1\AppData\Local\Temp\ccKV8tJ7.s:32152  .debug_str:000000000002897e .LASF3128
C:\Users\SOLDER~1\AppData\Local\Temp\ccKV8tJ7.s:31982  .debug_str:0000000000027e4d .LASF3129
C:\Users\SOLDER~1\AppData\Local\Temp\ccKV8tJ7.s:29684  .debug_str:000000000001e8c0 .LASF3130
C:\Users\SOLDER~1\AppData\Local\Temp\ccKV8tJ7.s:32452  .debug_str:0000000000029d1c .LASF3131
C:\Users\SOLDER~1\AppData\Local\Temp\ccKV8tJ7.s:27124  .debug_str:00000000000143c7 .LASF3132
C:\Users\SOLDER~1\AppData\Local\Temp\ccKV8tJ7.s:24436  .debug_str:00000000000094cf .LASF3133
C:\Users\SOLDER~1\AppData\Local\Temp\ccKV8tJ7.s:22626  .debug_str:000000000000205f .LASF3134
C:\Users\SOLDER~1\AppData\Local\Temp\ccKV8tJ7.s:25870  .debug_str:000000000000f265 .LASF3135
C:\Users\SOLDER~1\AppData\Local\Temp\ccKV8tJ7.s:27942  .debug_str:000000000001786e .LASF3136
C:\Users\SOLDER~1\AppData\Local\Temp\ccKV8tJ7.s:24202  .debug_str:000000000000853a .LASF3137
C:\Users\SOLDER~1\AppData\Local\Temp\ccKV8tJ7.s:30092  .debug_str:00000000000203b1 .LASF3138
C:\Users\SOLDER~1\AppData\Local\Temp\ccKV8tJ7.s:30986  .debug_str:0000000000023d3a .LASF3139
C:\Users\SOLDER~1\AppData\Local\Temp\ccKV8tJ7.s:22260  .debug_str:000000000000083b .LASF3140
C:\Users\SOLDER~1\AppData\Local\Temp\ccKV8tJ7.s:32728  .debug_str:000000000002af01 .LASF3141
C:\Users\SOLDER~1\AppData\Local\Temp\ccKV8tJ7.s:23902  .debug_str:00000000000071ef .LASF3142
C:\Users\SOLDER~1\AppData\Local\Temp\ccKV8tJ7.s:23476  .debug_str:00000000000055a5 .LASF3143
C:\Users\SOLDER~1\AppData\Local\Temp\ccKV8tJ7.s:28048  .debug_str:0000000000017f42 .LASF3144
C:\Users\SOLDER~1\AppData\Local\Temp\ccKV8tJ7.s:32810  .debug_str:000000000002b445 .LASF3145
C:\Users\SOLDER~1\AppData\Local\Temp\ccKV8tJ7.s:24482  .debug_str:0000000000009796 .LASF3146
C:\Users\SOLDER~1\AppData\Local\Temp\ccKV8tJ7.s:30412  .debug_str:000000000002186b .LASF3147
C:\Users\SOLDER~1\AppData\Local\Temp\ccKV8tJ7.s:23552  .debug_str:0000000000005ad6 .LASF3148
C:\Users\SOLDER~1\AppData\Local\Temp\ccKV8tJ7.s:28082  .debug_str:00000000000181a2 .LASF3149
C:\Users\SOLDER~1\AppData\Local\Temp\ccKV8tJ7.s:32262  .debug_str:00000000000290c0 .LASF3150
C:\Users\SOLDER~1\AppData\Local\Temp\ccKV8tJ7.s:30390  .debug_str:0000000000021709 .LASF3151
C:\Users\SOLDER~1\AppData\Local\Temp\ccKV8tJ7.s:31584  .debug_str:00000000000263fb .LASF3152
C:\Users\SOLDER~1\AppData\Local\Temp\ccKV8tJ7.s:28492  .debug_str:0000000000019c42 .LASF3153
C:\Users\SOLDER~1\AppData\Local\Temp\ccKV8tJ7.s:22714  .debug_str:0000000000002641 .LASF3154
C:\Users\SOLDER~1\AppData\Local\Temp\ccKV8tJ7.s:26544  .debug_str:0000000000011d7d .LASF3155
C:\Users\SOLDER~1\AppData\Local\Temp\ccKV8tJ7.s:31934  .debug_str:0000000000027b38 .LASF3156
GAS LISTING C:\Users\SOLDER~1\AppData\Local\Temp\ccKV8tJ7.s 			page 145


C:\Users\SOLDER~1\AppData\Local\Temp\ccKV8tJ7.s:24604  .debug_str:0000000000009f5c .LASF3157
C:\Users\SOLDER~1\AppData\Local\Temp\ccKV8tJ7.s:30556  .debug_str:0000000000022169 .LASF3158
C:\Users\SOLDER~1\AppData\Local\Temp\ccKV8tJ7.s:22802  .debug_str:0000000000002bfd .LASF3159
C:\Users\SOLDER~1\AppData\Local\Temp\ccKV8tJ7.s:30868  .debug_str:000000000002353f .LASF3160
C:\Users\SOLDER~1\AppData\Local\Temp\ccKV8tJ7.s:32580  .debug_str:000000000002a563 .LASF3161
C:\Users\SOLDER~1\AppData\Local\Temp\ccKV8tJ7.s:33250  .debug_str:000000000002d0f5 .LASF3162
C:\Users\SOLDER~1\AppData\Local\Temp\ccKV8tJ7.s:32880  .debug_str:000000000002b902 .LASF3163
C:\Users\SOLDER~1\AppData\Local\Temp\ccKV8tJ7.s:30232  .debug_str:0000000000020cca .LASF3164
C:\Users\SOLDER~1\AppData\Local\Temp\ccKV8tJ7.s:25704  .debug_str:000000000000e7eb .LASF3165
C:\Users\SOLDER~1\AppData\Local\Temp\ccKV8tJ7.s:30832  .debug_str:000000000002330e .LASF3166
C:\Users\SOLDER~1\AppData\Local\Temp\ccKV8tJ7.s:26550  .debug_str:0000000000011df0 .LASF3167
C:\Users\SOLDER~1\AppData\Local\Temp\ccKV8tJ7.s:33400  .debug_str:000000000002dae5 .LASF3168
C:\Users\SOLDER~1\AppData\Local\Temp\ccKV8tJ7.s:24886  .debug_str:000000000000b1db .LASF3169
C:\Users\SOLDER~1\AppData\Local\Temp\ccKV8tJ7.s:31564  .debug_str:0000000000026291 .LASF3170
C:\Users\SOLDER~1\AppData\Local\Temp\ccKV8tJ7.s:23130  .debug_str:0000000000004061 .LASF3171
C:\Users\SOLDER~1\AppData\Local\Temp\ccKV8tJ7.s:31562  .debug_str:0000000000026270 .LASF3172
C:\Users\SOLDER~1\AppData\Local\Temp\ccKV8tJ7.s:23204  .debug_str:00000000000044ee .LASF3173
C:\Users\SOLDER~1\AppData\Local\Temp\ccKV8tJ7.s:27568  .debug_str:000000000001607d .LASF3174
C:\Users\SOLDER~1\AppData\Local\Temp\ccKV8tJ7.s:28566  .debug_str:000000000001a0c4 .LASF3175
C:\Users\SOLDER~1\AppData\Local\Temp\ccKV8tJ7.s:29386  .debug_str:000000000001d5e5 .LASF3176
C:\Users\SOLDER~1\AppData\Local\Temp\ccKV8tJ7.s:26616  .debug_str:00000000000121e2 .LASF3177
C:\Users\SOLDER~1\AppData\Local\Temp\ccKV8tJ7.s:28874  .debug_str:000000000001b442 .LASF3178
C:\Users\SOLDER~1\AppData\Local\Temp\ccKV8tJ7.s:24672  .debug_str:000000000000a3cd .LASF3179
C:\Users\SOLDER~1\AppData\Local\Temp\ccKV8tJ7.s:31360  .debug_str:0000000000025550 .LASF3180
C:\Users\SOLDER~1\AppData\Local\Temp\ccKV8tJ7.s:25044  .debug_str:000000000000bc0f .LASF3181
C:\Users\SOLDER~1\AppData\Local\Temp\ccKV8tJ7.s:29776  .debug_str:000000000001ef21 .LASF3182
C:\Users\SOLDER~1\AppData\Local\Temp\ccKV8tJ7.s:32646  .debug_str:000000000002a9f7 .LASF3183
C:\Users\SOLDER~1\AppData\Local\Temp\ccKV8tJ7.s:32244  .debug_str:0000000000028f97 .LASF3184
C:\Users\SOLDER~1\AppData\Local\Temp\ccKV8tJ7.s:30698  .debug_str:0000000000022a25 .LASF3185
C:\Users\SOLDER~1\AppData\Local\Temp\ccKV8tJ7.s:30360  .debug_str:00000000000214da .LASF3186
C:\Users\SOLDER~1\AppData\Local\Temp\ccKV8tJ7.s:28800  .debug_str:000000000001afcf .LASF3187
C:\Users\SOLDER~1\AppData\Local\Temp\ccKV8tJ7.s:25806  .debug_str:000000000000ee63 .LASF3188
C:\Users\SOLDER~1\AppData\Local\Temp\ccKV8tJ7.s:27228  .debug_str:0000000000014ab1 .LASF3189
C:\Users\SOLDER~1\AppData\Local\Temp\ccKV8tJ7.s:22402  .debug_str:00000000000011f7 .LASF3190
C:\Users\SOLDER~1\AppData\Local\Temp\ccKV8tJ7.s:24682  .debug_str:000000000000a473 .LASF3191
C:\Users\SOLDER~1\AppData\Local\Temp\ccKV8tJ7.s:32302  .debug_str:000000000002933d .LASF3192
C:\Users\SOLDER~1\AppData\Local\Temp\ccKV8tJ7.s:23022  .debug_str:00000000000039f7 .LASF3193
C:\Users\SOLDER~1\AppData\Local\Temp\ccKV8tJ7.s:27572  .debug_str:00000000000160c1 .LASF3194
C:\Users\SOLDER~1\AppData\Local\Temp\ccKV8tJ7.s:32718  .debug_str:000000000002ae75 .LASF3195
C:\Users\SOLDER~1\AppData\Local\Temp\ccKV8tJ7.s:24642  .debug_str:000000000000a1e1 .LASF3196
C:\Users\SOLDER~1\AppData\Local\Temp\ccKV8tJ7.s:31014  .debug_str:0000000000023efc .LASF3197
C:\Users\SOLDER~1\AppData\Local\Temp\ccKV8tJ7.s:29224  .debug_str:000000000001cae7 .LASF3198
C:\Users\SOLDER~1\AppData\Local\Temp\ccKV8tJ7.s:22796  .debug_str:0000000000002bb4 .LASF3199
C:\Users\SOLDER~1\AppData\Local\Temp\ccKV8tJ7.s:28294  .debug_str:0000000000018f97 .LASF3200
C:\Users\SOLDER~1\AppData\Local\Temp\ccKV8tJ7.s:27654  .debug_str:0000000000016605 .LASF3201
C:\Users\SOLDER~1\AppData\Local\Temp\ccKV8tJ7.s:24374  .debug_str:000000000000906e .LASF3202
C:\Users\SOLDER~1\AppData\Local\Temp\ccKV8tJ7.s:31072  .debug_str:000000000002428e .LASF3203
C:\Users\SOLDER~1\AppData\Local\Temp\ccKV8tJ7.s:25736  .debug_str:000000000000ea27 .LASF3204
C:\Users\SOLDER~1\AppData\Local\Temp\ccKV8tJ7.s:24208  .debug_str:0000000000008590 .LASF3205
C:\Users\SOLDER~1\AppData\Local\Temp\ccKV8tJ7.s:23714  .debug_str:000000000000654c .LASF3206
C:\Users\SOLDER~1\AppData\Local\Temp\ccKV8tJ7.s:31602  .debug_str:0000000000026552 .LASF3207
C:\Users\SOLDER~1\AppData\Local\Temp\ccKV8tJ7.s:24564  .debug_str:0000000000009c82 .LASF3208
C:\Users\SOLDER~1\AppData\Local\Temp\ccKV8tJ7.s:26652  .debug_str:000000000001241a .LASF3209
C:\Users\SOLDER~1\AppData\Local\Temp\ccKV8tJ7.s:26648  .debug_str:00000000000123e1 .LASF3210
C:\Users\SOLDER~1\AppData\Local\Temp\ccKV8tJ7.s:27734  .debug_str:0000000000016acb .LASF3211
C:\Users\SOLDER~1\AppData\Local\Temp\ccKV8tJ7.s:32120  .debug_str:0000000000028787 .LASF3212
C:\Users\SOLDER~1\AppData\Local\Temp\ccKV8tJ7.s:31742  .debug_str:0000000000026ea8 .LASF3213
GAS LISTING C:\Users\SOLDER~1\AppData\Local\Temp\ccKV8tJ7.s 			page 146


C:\Users\SOLDER~1\AppData\Local\Temp\ccKV8tJ7.s:29416  .debug_str:000000000001d7eb .LASF3214
C:\Users\SOLDER~1\AppData\Local\Temp\ccKV8tJ7.s:23586  .debug_str:0000000000005cd9 .LASF3215
C:\Users\SOLDER~1\AppData\Local\Temp\ccKV8tJ7.s:31180  .debug_str:00000000000249a3 .LASF3216
C:\Users\SOLDER~1\AppData\Local\Temp\ccKV8tJ7.s:32448  .debug_str:0000000000029cdf .LASF3217
C:\Users\SOLDER~1\AppData\Local\Temp\ccKV8tJ7.s:25886  .debug_str:000000000000f362 .LASF3218
C:\Users\SOLDER~1\AppData\Local\Temp\ccKV8tJ7.s:29566  .debug_str:000000000001e153 .LASF3219
C:\Users\SOLDER~1\AppData\Local\Temp\ccKV8tJ7.s:27708  .debug_str:0000000000016937 .LASF3220
C:\Users\SOLDER~1\AppData\Local\Temp\ccKV8tJ7.s:29572  .debug_str:000000000001e1c2 .LASF3221
C:\Users\SOLDER~1\AppData\Local\Temp\ccKV8tJ7.s:24800  .debug_str:000000000000ac3f .LASF3222
C:\Users\SOLDER~1\AppData\Local\Temp\ccKV8tJ7.s:24254  .debug_str:0000000000008865 .LASF3223
C:\Users\SOLDER~1\AppData\Local\Temp\ccKV8tJ7.s:33262  .debug_str:000000000002d1b3 .LASF3224
C:\Users\SOLDER~1\AppData\Local\Temp\ccKV8tJ7.s:23938  .debug_str:0000000000007451 .LASF3225
C:\Users\SOLDER~1\AppData\Local\Temp\ccKV8tJ7.s:32338  .debug_str:0000000000029577 .LASF3226
C:\Users\SOLDER~1\AppData\Local\Temp\ccKV8tJ7.s:30324  .debug_str:000000000002129e .LASF3227
C:\Users\SOLDER~1\AppData\Local\Temp\ccKV8tJ7.s:27750  .debug_str:0000000000016be2 .LASF3228
C:\Users\SOLDER~1\AppData\Local\Temp\ccKV8tJ7.s:25010  .debug_str:000000000000b9d9 .LASF3229
C:\Users\SOLDER~1\AppData\Local\Temp\ccKV8tJ7.s:22342  .debug_str:0000000000000e56 .LASF3230
C:\Users\SOLDER~1\AppData\Local\Temp\ccKV8tJ7.s:31458  .debug_str:0000000000025b68 .LASF3231
C:\Users\SOLDER~1\AppData\Local\Temp\ccKV8tJ7.s:32610  .debug_str:000000000002a781 .LASF3232
C:\Users\SOLDER~1\AppData\Local\Temp\ccKV8tJ7.s:22592  .debug_str:0000000000001e40 .LASF3233
C:\Users\SOLDER~1\AppData\Local\Temp\ccKV8tJ7.s:26712  .debug_str:00000000000127df .LASF3234
C:\Users\SOLDER~1\AppData\Local\Temp\ccKV8tJ7.s:33522  .debug_str:000000000002e291 .LASF3235
C:\Users\SOLDER~1\AppData\Local\Temp\ccKV8tJ7.s:31294  .debug_str:000000000002512b .LASF3236
C:\Users\SOLDER~1\AppData\Local\Temp\ccKV8tJ7.s:25830  .debug_str:000000000000efe2 .LASF3237
C:\Users\SOLDER~1\AppData\Local\Temp\ccKV8tJ7.s:29536  .debug_str:000000000001df4f .LASF3238
C:\Users\SOLDER~1\AppData\Local\Temp\ccKV8tJ7.s:33162  .debug_str:000000000002cb68 .LASF3239
C:\Users\SOLDER~1\AppData\Local\Temp\ccKV8tJ7.s:25150  .debug_str:000000000000c30b .LASF3240
C:\Users\SOLDER~1\AppData\Local\Temp\ccKV8tJ7.s:31342  .debug_str:0000000000025441 .LASF3241
C:\Users\SOLDER~1\AppData\Local\Temp\ccKV8tJ7.s:33058  .debug_str:000000000002c477 .LASF3242
C:\Users\SOLDER~1\AppData\Local\Temp\ccKV8tJ7.s:26908  .debug_str:0000000000013497 .LASF3243
C:\Users\SOLDER~1\AppData\Local\Temp\ccKV8tJ7.s:26080  .debug_str:0000000000010083 .LASF3244
C:\Users\SOLDER~1\AppData\Local\Temp\ccKV8tJ7.s:32066  .debug_str:00000000000283d3 .LASF3245
C:\Users\SOLDER~1\AppData\Local\Temp\ccKV8tJ7.s:29706  .debug_str:000000000001ea55 .LASF3246
C:\Users\SOLDER~1\AppData\Local\Temp\ccKV8tJ7.s:32230  .debug_str:0000000000028ec0 .LASF3247
C:\Users\SOLDER~1\AppData\Local\Temp\ccKV8tJ7.s:25928  .debug_str:000000000000f610 .LASF3248
C:\Users\SOLDER~1\AppData\Local\Temp\ccKV8tJ7.s:32960  .debug_str:000000000002be27 .LASF3249
C:\Users\SOLDER~1\AppData\Local\Temp\ccKV8tJ7.s:27342  .debug_str:0000000000015205 .LASF3250
C:\Users\SOLDER~1\AppData\Local\Temp\ccKV8tJ7.s:33616  .debug_str:000000000002e874 .LASF3251
C:\Users\SOLDER~1\AppData\Local\Temp\ccKV8tJ7.s:32682  .debug_str:000000000002ac3c .LASF3252
C:\Users\SOLDER~1\AppData\Local\Temp\ccKV8tJ7.s:31646  .debug_str:0000000000026848 .LASF3253
C:\Users\SOLDER~1\AppData\Local\Temp\ccKV8tJ7.s:32404  .debug_str:00000000000299d4 .LASF3254
C:\Users\SOLDER~1\AppData\Local\Temp\ccKV8tJ7.s:29206  .debug_str:000000000001c9a5 .LASF3255
C:\Users\SOLDER~1\AppData\Local\Temp\ccKV8tJ7.s:26434  .debug_str:00000000000116a5 .LASF3256
C:\Users\SOLDER~1\AppData\Local\Temp\ccKV8tJ7.s:24064  .debug_str:0000000000007c1d .LASF3257
C:\Users\SOLDER~1\AppData\Local\Temp\ccKV8tJ7.s:25058  .debug_str:000000000000bd28 .LASF3258
C:\Users\SOLDER~1\AppData\Local\Temp\ccKV8tJ7.s:29032  .debug_str:000000000001be33 .LASF3259
C:\Users\SOLDER~1\AppData\Local\Temp\ccKV8tJ7.s:25658  .debug_str:000000000000e50a .LASF3260
C:\Users\SOLDER~1\AppData\Local\Temp\ccKV8tJ7.s:28928  .debug_str:000000000001b795 .LASF3261
C:\Users\SOLDER~1\AppData\Local\Temp\ccKV8tJ7.s:30592  .debug_str:00000000000223c7 .LASF3262
C:\Users\SOLDER~1\AppData\Local\Temp\ccKV8tJ7.s:31164  .debug_str:0000000000024890 .LASF3263
C:\Users\SOLDER~1\AppData\Local\Temp\ccKV8tJ7.s:24212  .debug_str:00000000000085c3 .LASF3264
C:\Users\SOLDER~1\AppData\Local\Temp\ccKV8tJ7.s:32126  .debug_str:00000000000287e2 .LASF3265
C:\Users\SOLDER~1\AppData\Local\Temp\ccKV8tJ7.s:28480  .debug_str:0000000000019b87 .LASF3266
C:\Users\SOLDER~1\AppData\Local\Temp\ccKV8tJ7.s:25216  .debug_str:000000000000c7a1 .LASF3267
C:\Users\SOLDER~1\AppData\Local\Temp\ccKV8tJ7.s:24428  .debug_str:0000000000009426 .LASF3268
C:\Users\SOLDER~1\AppData\Local\Temp\ccKV8tJ7.s:24126  .debug_str:000000000000805a .LASF3269
C:\Users\SOLDER~1\AppData\Local\Temp\ccKV8tJ7.s:25992  .debug_str:000000000000fa68 .LASF3270
GAS LISTING C:\Users\SOLDER~1\AppData\Local\Temp\ccKV8tJ7.s 			page 147


C:\Users\SOLDER~1\AppData\Local\Temp\ccKV8tJ7.s:28226  .debug_str:0000000000018af6 .LASF3271
C:\Users\SOLDER~1\AppData\Local\Temp\ccKV8tJ7.s:27234  .debug_str:0000000000014b14 .LASF3272
C:\Users\SOLDER~1\AppData\Local\Temp\ccKV8tJ7.s:29540  .debug_str:000000000001df93 .LASF3273
C:\Users\SOLDER~1\AppData\Local\Temp\ccKV8tJ7.s:22686  .debug_str:0000000000002477 .LASF3274
C:\Users\SOLDER~1\AppData\Local\Temp\ccKV8tJ7.s:22858  .debug_str:0000000000002f99 .LASF3275
C:\Users\SOLDER~1\AppData\Local\Temp\ccKV8tJ7.s:27416  .debug_str:00000000000156c5 .LASF3276
C:\Users\SOLDER~1\AppData\Local\Temp\ccKV8tJ7.s:29864  .debug_str:000000000001f4e2 .LASF3277
C:\Users\SOLDER~1\AppData\Local\Temp\ccKV8tJ7.s:30780  .debug_str:0000000000022f85 .LASF3278
C:\Users\SOLDER~1\AppData\Local\Temp\ccKV8tJ7.s:33724  .debug_str:000000000002ef61 .LASF3279
C:\Users\SOLDER~1\AppData\Local\Temp\ccKV8tJ7.s:32590  .debug_str:000000000002a613 .LASF3280
C:\Users\SOLDER~1\AppData\Local\Temp\ccKV8tJ7.s:32858  .debug_str:000000000002b7b0 .LASF3281
C:\Users\SOLDER~1\AppData\Local\Temp\ccKV8tJ7.s:24298  .debug_str:0000000000008b56 .LASF3282
C:\Users\SOLDER~1\AppData\Local\Temp\ccKV8tJ7.s:28068  .debug_str:0000000000018099 .LASF3283
C:\Users\SOLDER~1\AppData\Local\Temp\ccKV8tJ7.s:33374  .debug_str:000000000002d92a .LASF3284
C:\Users\SOLDER~1\AppData\Local\Temp\ccKV8tJ7.s:31262  .debug_str:0000000000024ef6 .LASF3285
C:\Users\SOLDER~1\AppData\Local\Temp\ccKV8tJ7.s:25734  .debug_str:000000000000e9f4 .LASF3286
C:\Users\SOLDER~1\AppData\Local\Temp\ccKV8tJ7.s:27276  .debug_str:0000000000014e01 .LASF3287
C:\Users\SOLDER~1\AppData\Local\Temp\ccKV8tJ7.s:25172  .debug_str:000000000000c485 .LASF3288
C:\Users\SOLDER~1\AppData\Local\Temp\ccKV8tJ7.s:26452  .debug_str:00000000000117fb .LASF3289
C:\Users\SOLDER~1\AppData\Local\Temp\ccKV8tJ7.s:27074  .debug_str:000000000001404b .LASF3290
C:\Users\SOLDER~1\AppData\Local\Temp\ccKV8tJ7.s:26448  .debug_str:00000000000117b0 .LASF3291
C:\Users\SOLDER~1\AppData\Local\Temp\ccKV8tJ7.s:29736  .debug_str:000000000001ec57 .LASF3292
C:\Users\SOLDER~1\AppData\Local\Temp\ccKV8tJ7.s:26836  .debug_str:0000000000012fc9 .LASF3293
C:\Users\SOLDER~1\AppData\Local\Temp\ccKV8tJ7.s:32048  .debug_str:0000000000028288 .LASF3294
C:\Users\SOLDER~1\AppData\Local\Temp\ccKV8tJ7.s:29408  .debug_str:000000000001d75d .LASF3295
C:\Users\SOLDER~1\AppData\Local\Temp\ccKV8tJ7.s:30562  .debug_str:00000000000221de .LASF3296
C:\Users\SOLDER~1\AppData\Local\Temp\ccKV8tJ7.s:28050  .debug_str:0000000000017f62 .LASF3297
C:\Users\SOLDER~1\AppData\Local\Temp\ccKV8tJ7.s:23506  .debug_str:00000000000057a7 .LASF3298
C:\Users\SOLDER~1\AppData\Local\Temp\ccKV8tJ7.s:26010  .debug_str:000000000000fba1 .LASF3299
C:\Users\SOLDER~1\AppData\Local\Temp\ccKV8tJ7.s:27612  .debug_str:000000000001635c .LASF3300
C:\Users\SOLDER~1\AppData\Local\Temp\ccKV8tJ7.s:29514  .debug_str:000000000001dddc .LASF3301
C:\Users\SOLDER~1\AppData\Local\Temp\ccKV8tJ7.s:29072  .debug_str:000000000001c0b6 .LASF3302
C:\Users\SOLDER~1\AppData\Local\Temp\ccKV8tJ7.s:25354  .debug_str:000000000000d0d8 .LASF3303
C:\Users\SOLDER~1\AppData\Local\Temp\ccKV8tJ7.s:22910  .debug_str:00000000000032d6 .LASF3304
C:\Users\SOLDER~1\AppData\Local\Temp\ccKV8tJ7.s:29060  .debug_str:000000000001bfe5 .LASF3305
C:\Users\SOLDER~1\AppData\Local\Temp\ccKV8tJ7.s:24324  .debug_str:0000000000008cff .LASF3306
C:\Users\SOLDER~1\AppData\Local\Temp\ccKV8tJ7.s:25804  .debug_str:000000000000ee30 .LASF3307
C:\Users\SOLDER~1\AppData\Local\Temp\ccKV8tJ7.s:23212  .debug_str:0000000000004552 .LASF3308
C:\Users\SOLDER~1\AppData\Local\Temp\ccKV8tJ7.s:26152  .debug_str:00000000000104d3 .LASF3309
C:\Users\SOLDER~1\AppData\Local\Temp\ccKV8tJ7.s:23392  .debug_str:0000000000005075 .LASF3310
C:\Users\SOLDER~1\AppData\Local\Temp\ccKV8tJ7.s:22196  .debug_str:0000000000000382 .LASF3311
C:\Users\SOLDER~1\AppData\Local\Temp\ccKV8tJ7.s:24608  .debug_str:0000000000009f9b .LASF3312
C:\Users\SOLDER~1\AppData\Local\Temp\ccKV8tJ7.s:29804  .debug_str:000000000001f0e5 .LASF3313
C:\Users\SOLDER~1\AppData\Local\Temp\ccKV8tJ7.s:33688  .debug_str:000000000002ecf9 .LASF3314
C:\Users\SOLDER~1\AppData\Local\Temp\ccKV8tJ7.s:22382  .debug_str:00000000000010a2 .LASF3315
C:\Users\SOLDER~1\AppData\Local\Temp\ccKV8tJ7.s:23062  .debug_str:0000000000003c73 .LASF3316
C:\Users\SOLDER~1\AppData\Local\Temp\ccKV8tJ7.s:27670  .debug_str:0000000000016711 .LASF3317
C:\Users\SOLDER~1\AppData\Local\Temp\ccKV8tJ7.s:28682  .debug_str:000000000001a7fe .LASF3318
C:\Users\SOLDER~1\AppData\Local\Temp\ccKV8tJ7.s:28232  .debug_str:0000000000018b68 .LASF3319
C:\Users\SOLDER~1\AppData\Local\Temp\ccKV8tJ7.s:33368  .debug_str:000000000002d8c5 .LASF3320
C:\Users\SOLDER~1\AppData\Local\Temp\ccKV8tJ7.s:29862  .debug_str:000000000001f4b9 .LASF3321
C:\Users\SOLDER~1\AppData\Local\Temp\ccKV8tJ7.s:26354  .debug_str:000000000001116b .LASF3322
C:\Users\SOLDER~1\AppData\Local\Temp\ccKV8tJ7.s:22832  .debug_str:0000000000002dda .LASF3323
C:\Users\SOLDER~1\AppData\Local\Temp\ccKV8tJ7.s:30998  .debug_str:0000000000023de3 .LASF3324
C:\Users\SOLDER~1\AppData\Local\Temp\ccKV8tJ7.s:27048  .debug_str:0000000000013e76 .LASF3325
C:\Users\SOLDER~1\AppData\Local\Temp\ccKV8tJ7.s:26482  .debug_str:00000000000119b2 .LASF3326
C:\Users\SOLDER~1\AppData\Local\Temp\ccKV8tJ7.s:25930  .debug_str:000000000000f63f .LASF3327
GAS LISTING C:\Users\SOLDER~1\AppData\Local\Temp\ccKV8tJ7.s 			page 148


C:\Users\SOLDER~1\AppData\Local\Temp\ccKV8tJ7.s:28308  .debug_str:0000000000019095 .LASF3328
C:\Users\SOLDER~1\AppData\Local\Temp\ccKV8tJ7.s:31062  .debug_str:00000000000241f6 .LASF3329
C:\Users\SOLDER~1\AppData\Local\Temp\ccKV8tJ7.s:22228  .debug_str:000000000000059d .LASF3330
C:\Users\SOLDER~1\AppData\Local\Temp\ccKV8tJ7.s:23738  .debug_str:0000000000006709 .LASF3331
C:\Users\SOLDER~1\AppData\Local\Temp\ccKV8tJ7.s:22740  .debug_str:00000000000027f5 .LASF3332
C:\Users\SOLDER~1\AppData\Local\Temp\ccKV8tJ7.s:29964  .debug_str:000000000001fbb4 .LASF3333
C:\Users\SOLDER~1\AppData\Local\Temp\ccKV8tJ7.s:32352  .debug_str:0000000000029659 .LASF3334
C:\Users\SOLDER~1\AppData\Local\Temp\ccKV8tJ7.s:25138  .debug_str:000000000000c235 .LASF3335
C:\Users\SOLDER~1\AppData\Local\Temp\ccKV8tJ7.s:30250  .debug_str:0000000000020deb .LASF3336
C:\Users\SOLDER~1\AppData\Local\Temp\ccKV8tJ7.s:23354  .debug_str:0000000000004e40 .LASF3337
C:\Users\SOLDER~1\AppData\Local\Temp\ccKV8tJ7.s:24294  .debug_str:0000000000008b09 .LASF3338
C:\Users\SOLDER~1\AppData\Local\Temp\ccKV8tJ7.s:25924  .debug_str:000000000000f5bd .LASF3339
C:\Users\SOLDER~1\AppData\Local\Temp\ccKV8tJ7.s:23800  .debug_str:0000000000006b13 .LASF3340
C:\Users\SOLDER~1\AppData\Local\Temp\ccKV8tJ7.s:33734  .debug_str:000000000002f013 .LASF3341
C:\Users\SOLDER~1\AppData\Local\Temp\ccKV8tJ7.s:29252  .debug_str:000000000001ccc1 .LASF3342
C:\Users\SOLDER~1\AppData\Local\Temp\ccKV8tJ7.s:30116  .debug_str:000000000002054e .LASF3343
C:\Users\SOLDER~1\AppData\Local\Temp\ccKV8tJ7.s:28334  .debug_str:000000000001923a .LASF3344
C:\Users\SOLDER~1\AppData\Local\Temp\ccKV8tJ7.s:26500  .debug_str:0000000000011af0 .LASF3345
C:\Users\SOLDER~1\AppData\Local\Temp\ccKV8tJ7.s:23968  .debug_str:000000000000761f .LASF3346
C:\Users\SOLDER~1\AppData\Local\Temp\ccKV8tJ7.s:32774  .debug_str:000000000002b225 .LASF3347
C:\Users\SOLDER~1\AppData\Local\Temp\ccKV8tJ7.s:25008  .debug_str:000000000000b9bd .LASF3348
C:\Users\SOLDER~1\AppData\Local\Temp\ccKV8tJ7.s:27404  .debug_str:0000000000015600 .LASF3349
C:\Users\SOLDER~1\AppData\Local\Temp\ccKV8tJ7.s:30604  .debug_str:0000000000022482 .LASF3350
C:\Users\SOLDER~1\AppData\Local\Temp\ccKV8tJ7.s:31686  .debug_str:0000000000026aeb .LASF3351
C:\Users\SOLDER~1\AppData\Local\Temp\ccKV8tJ7.s:27144  .debug_str:0000000000014536 .LASF3352
C:\Users\SOLDER~1\AppData\Local\Temp\ccKV8tJ7.s:27432  .debug_str:00000000000157e2 .LASF3353
C:\Users\SOLDER~1\AppData\Local\Temp\ccKV8tJ7.s:27154  .debug_str:00000000000145c8 .LASF3354
C:\Users\SOLDER~1\AppData\Local\Temp\ccKV8tJ7.s:23622  .debug_str:0000000000005f11 .LASF3355
C:\Users\SOLDER~1\AppData\Local\Temp\ccKV8tJ7.s:31820  .debug_str:00000000000273ac .LASF3356
C:\Users\SOLDER~1\AppData\Local\Temp\ccKV8tJ7.s:30924  .debug_str:00000000000238ff .LASF3357
C:\Users\SOLDER~1\AppData\Local\Temp\ccKV8tJ7.s:28186  .debug_str:0000000000018868 .LASF3358
C:\Users\SOLDER~1\AppData\Local\Temp\ccKV8tJ7.s:33010  .debug_str:000000000002c13b .LASF3359
C:\Users\SOLDER~1\AppData\Local\Temp\ccKV8tJ7.s:25178  .debug_str:000000000000c4fc .LASF3360
C:\Users\SOLDER~1\AppData\Local\Temp\ccKV8tJ7.s:30026  .debug_str:000000000001ff6a .LASF3361
C:\Users\SOLDER~1\AppData\Local\Temp\ccKV8tJ7.s:32840  .debug_str:000000000002b651 .LASF3362
C:\Users\SOLDER~1\AppData\Local\Temp\ccKV8tJ7.s:32356  .debug_str:00000000000296a6 .LASF3363
C:\Users\SOLDER~1\AppData\Local\Temp\ccKV8tJ7.s:30208  .debug_str:0000000000020b2e .LASF3364
C:\Users\SOLDER~1\AppData\Local\Temp\ccKV8tJ7.s:29554  .debug_str:000000000001e06f .LASF3365
C:\Users\SOLDER~1\AppData\Local\Temp\ccKV8tJ7.s:30690  .debug_str:0000000000022992 .LASF3366
C:\Users\SOLDER~1\AppData\Local\Temp\ccKV8tJ7.s:31842  .debug_str:0000000000027553 .LASF3367
C:\Users\SOLDER~1\AppData\Local\Temp\ccKV8tJ7.s:32916  .debug_str:000000000002bb2c .LASF3368
C:\Users\SOLDER~1\AppData\Local\Temp\ccKV8tJ7.s:32328  .debug_str:00000000000294e6 .LASF3369
C:\Users\SOLDER~1\AppData\Local\Temp\ccKV8tJ7.s:30796  .debug_str:00000000000230ac .LASF3370
C:\Users\SOLDER~1\AppData\Local\Temp\ccKV8tJ7.s:31758  .debug_str:0000000000026fcb .LASF3371
C:\Users\SOLDER~1\AppData\Local\Temp\ccKV8tJ7.s:23606  .debug_str:0000000000005dfe .LASF3372
C:\Users\SOLDER~1\AppData\Local\Temp\ccKV8tJ7.s:33554  .debug_str:000000000002e488 .LASF3373
C:\Users\SOLDER~1\AppData\Local\Temp\ccKV8tJ7.s:30700  .debug_str:0000000000022a38 .LASF3374
C:\Users\SOLDER~1\AppData\Local\Temp\ccKV8tJ7.s:32196  .debug_str:0000000000028c3b .LASF3375
C:\Users\SOLDER~1\AppData\Local\Temp\ccKV8tJ7.s:24902  .debug_str:000000000000b2ed .LASF3376
C:\Users\SOLDER~1\AppData\Local\Temp\ccKV8tJ7.s:26696  .debug_str:00000000000126f8 .LASF3377
C:\Users\SOLDER~1\AppData\Local\Temp\ccKV8tJ7.s:23962  .debug_str:00000000000075b3 .LASF3378
C:\Users\SOLDER~1\AppData\Local\Temp\ccKV8tJ7.s:28596  .debug_str:000000000001a2a4 .LASF3379
C:\Users\SOLDER~1\AppData\Local\Temp\ccKV8tJ7.s:26764  .debug_str:0000000000012b0a .LASF3380
C:\Users\SOLDER~1\AppData\Local\Temp\ccKV8tJ7.s:29938  .debug_str:000000000001f9e6 .LASF3381
C:\Users\SOLDER~1\AppData\Local\Temp\ccKV8tJ7.s:28008  .debug_str:0000000000017cb9 .LASF3382
C:\Users\SOLDER~1\AppData\Local\Temp\ccKV8tJ7.s:33604  .debug_str:000000000002e7a9 .LASF3383
C:\Users\SOLDER~1\AppData\Local\Temp\ccKV8tJ7.s:28966  .debug_str:000000000001ba00 .LASF3384
GAS LISTING C:\Users\SOLDER~1\AppData\Local\Temp\ccKV8tJ7.s 			page 149


C:\Users\SOLDER~1\AppData\Local\Temp\ccKV8tJ7.s:33470  .debug_str:000000000002df5c .LASF3385
C:\Users\SOLDER~1\AppData\Local\Temp\ccKV8tJ7.s:32506  .debug_str:000000000002a05e .LASF3386
C:\Users\SOLDER~1\AppData\Local\Temp\ccKV8tJ7.s:27216  .debug_str:00000000000149e9 .LASF3387
C:\Users\SOLDER~1\AppData\Local\Temp\ccKV8tJ7.s:33276  .debug_str:000000000002d294 .LASF3388
C:\Users\SOLDER~1\AppData\Local\Temp\ccKV8tJ7.s:27304  .debug_str:0000000000014fcc .LASF3389
C:\Users\SOLDER~1\AppData\Local\Temp\ccKV8tJ7.s:29698  .debug_str:000000000001e9bf .LASF3390
C:\Users\SOLDER~1\AppData\Local\Temp\ccKV8tJ7.s:33830  .debug_str:000000000002f5e0 .LASF3391
C:\Users\SOLDER~1\AppData\Local\Temp\ccKV8tJ7.s:25818  .debug_str:000000000000ef23 .LASF3392
C:\Users\SOLDER~1\AppData\Local\Temp\ccKV8tJ7.s:24330  .debug_str:0000000000008d74 .LASF3393
C:\Users\SOLDER~1\AppData\Local\Temp\ccKV8tJ7.s:22464  .debug_str:0000000000001601 .LASF3394
C:\Users\SOLDER~1\AppData\Local\Temp\ccKV8tJ7.s:31462  .debug_str:0000000000025b93 .LASF3395
C:\Users\SOLDER~1\AppData\Local\Temp\ccKV8tJ7.s:31582  .debug_str:00000000000263d2 .LASF3396
C:\Users\SOLDER~1\AppData\Local\Temp\ccKV8tJ7.s:28604  .debug_str:000000000001a32f .LASF3397
C:\Users\SOLDER~1\AppData\Local\Temp\ccKV8tJ7.s:25648  .debug_str:000000000000e45e .LASF3398
C:\Users\SOLDER~1\AppData\Local\Temp\ccKV8tJ7.s:24646  .debug_str:000000000000a229 .LASF3399
C:\Users\SOLDER~1\AppData\Local\Temp\ccKV8tJ7.s:27852  .debug_str:000000000001722d .LASF3400
C:\Users\SOLDER~1\AppData\Local\Temp\ccKV8tJ7.s:28072  .debug_str:00000000000180e8 .LASF3401
C:\Users\SOLDER~1\AppData\Local\Temp\ccKV8tJ7.s:32604  .debug_str:000000000002a6fa .LASF3402
C:\Users\SOLDER~1\AppData\Local\Temp\ccKV8tJ7.s:27846  .debug_str:00000000000171cd .LASF3403
C:\Users\SOLDER~1\AppData\Local\Temp\ccKV8tJ7.s:31806  .debug_str:00000000000272e3 .LASF3404
C:\Users\SOLDER~1\AppData\Local\Temp\ccKV8tJ7.s:24906  .debug_str:000000000000b327 .LASF3405
C:\Users\SOLDER~1\AppData\Local\Temp\ccKV8tJ7.s:29718  .debug_str:000000000001eb3f .LASF3406
C:\Users\SOLDER~1\AppData\Local\Temp\ccKV8tJ7.s:22822  .debug_str:0000000000002d2d .LASF3407
C:\Users\SOLDER~1\AppData\Local\Temp\ccKV8tJ7.s:24524  .debug_str:0000000000009a2c .LASF3408
C:\Users\SOLDER~1\AppData\Local\Temp\ccKV8tJ7.s:32454  .debug_str:0000000000029d35 .LASF3409
C:\Users\SOLDER~1\AppData\Local\Temp\ccKV8tJ7.s:33192  .debug_str:000000000002cd5a .LASF3410
C:\Users\SOLDER~1\AppData\Local\Temp\ccKV8tJ7.s:22990  .debug_str:00000000000037e8 .LASF3411
C:\Users\SOLDER~1\AppData\Local\Temp\ccKV8tJ7.s:32900  .debug_str:000000000002ba30 .LASF3412
C:\Users\SOLDER~1\AppData\Local\Temp\ccKV8tJ7.s:31060  .debug_str:00000000000241cc .LASF3413
C:\Users\SOLDER~1\AppData\Local\Temp\ccKV8tJ7.s:29282  .debug_str:000000000001cedc .LASF3414
C:\Users\SOLDER~1\AppData\Local\Temp\ccKV8tJ7.s:27498  .debug_str:0000000000015c1f .LASF3415
C:\Users\SOLDER~1\AppData\Local\Temp\ccKV8tJ7.s:32662  .debug_str:000000000002aaf0 .LASF3416
C:\Users\SOLDER~1\AppData\Local\Temp\ccKV8tJ7.s:23870  .debug_str:0000000000006fea .LASF3417
C:\Users\SOLDER~1\AppData\Local\Temp\ccKV8tJ7.s:27314  .debug_str:000000000001505c .LASF3418
C:\Users\SOLDER~1\AppData\Local\Temp\ccKV8tJ7.s:26334  .debug_str:0000000000011021 .LASF3419
C:\Users\SOLDER~1\AppData\Local\Temp\ccKV8tJ7.s:25826  .debug_str:000000000000efad .LASF3420
C:\Users\SOLDER~1\AppData\Local\Temp\ccKV8tJ7.s:31220  .debug_str:0000000000024c41 .LASF3421
C:\Users\SOLDER~1\AppData\Local\Temp\ccKV8tJ7.s:31432  .debug_str:00000000000259bb .LASF3422
C:\Users\SOLDER~1\AppData\Local\Temp\ccKV8tJ7.s:26498  .debug_str:0000000000011ac9 .LASF3423
C:\Users\SOLDER~1\AppData\Local\Temp\ccKV8tJ7.s:32312  .debug_str:00000000000293e8 .LASF3424
C:\Users\SOLDER~1\AppData\Local\Temp\ccKV8tJ7.s:29624  .debug_str:000000000001e51d .LASF3425
C:\Users\SOLDER~1\AppData\Local\Temp\ccKV8tJ7.s:30198  .debug_str:0000000000020a96 .LASF3426
C:\Users\SOLDER~1\AppData\Local\Temp\ccKV8tJ7.s:26686  .debug_str:0000000000012639 .LASF3427
C:\Users\SOLDER~1\AppData\Local\Temp\ccKV8tJ7.s:28582  .debug_str:000000000001a1af .LASF3428
C:\Users\SOLDER~1\AppData\Local\Temp\ccKV8tJ7.s:23054  .debug_str:0000000000003beb .LASF3429
C:\Users\SOLDER~1\AppData\Local\Temp\ccKV8tJ7.s:27910  .debug_str:0000000000017624 .LASF3430
C:\Users\SOLDER~1\AppData\Local\Temp\ccKV8tJ7.s:24356  .debug_str:0000000000008f2a .LASF3431
C:\Users\SOLDER~1\AppData\Local\Temp\ccKV8tJ7.s:30300  .debug_str:0000000000021119 .LASF3432
C:\Users\SOLDER~1\AppData\Local\Temp\ccKV8tJ7.s:33090  .debug_str:000000000002c6cd .LASF3433
C:\Users\SOLDER~1\AppData\Local\Temp\ccKV8tJ7.s:26340  .debug_str:000000000001108e .LASF3434
C:\Users\SOLDER~1\AppData\Local\Temp\ccKV8tJ7.s:27024  .debug_str:0000000000013ce3 .LASF3435
C:\Users\SOLDER~1\AppData\Local\Temp\ccKV8tJ7.s:29814  .debug_str:000000000001f199 .LASF3436
C:\Users\SOLDER~1\AppData\Local\Temp\ccKV8tJ7.s:32622  .debug_str:000000000002a854 .LASF3437
C:\Users\SOLDER~1\AppData\Local\Temp\ccKV8tJ7.s:23712  .debug_str:0000000000006522 .LASF3438
C:\Users\SOLDER~1\AppData\Local\Temp\ccKV8tJ7.s:26440  .debug_str:0000000000011735 .LASF3439
C:\Users\SOLDER~1\AppData\Local\Temp\ccKV8tJ7.s:24264  .debug_str:0000000000008909 .LASF3440
C:\Users\SOLDER~1\AppData\Local\Temp\ccKV8tJ7.s:29076  .debug_str:000000000001c105 .LASF3441
GAS LISTING C:\Users\SOLDER~1\AppData\Local\Temp\ccKV8tJ7.s 			page 150


C:\Users\SOLDER~1\AppData\Local\Temp\ccKV8tJ7.s:22212  .debug_str:0000000000000487 .LASF3442
C:\Users\SOLDER~1\AppData\Local\Temp\ccKV8tJ7.s:25182  .debug_str:000000000000c53f .LASF3443
C:\Users\SOLDER~1\AppData\Local\Temp\ccKV8tJ7.s:31780  .debug_str:000000000002714a .LASF3444
C:\Users\SOLDER~1\AppData\Local\Temp\ccKV8tJ7.s:23672  .debug_str:0000000000006296 .LASF3445
C:\Users\SOLDER~1\AppData\Local\Temp\ccKV8tJ7.s:29696  .debug_str:000000000001e995 .LASF3446
C:\Users\SOLDER~1\AppData\Local\Temp\ccKV8tJ7.s:27158  .debug_str:0000000000014618 .LASF3447
C:\Users\SOLDER~1\AppData\Local\Temp\ccKV8tJ7.s:25332  .debug_str:000000000000cf7c .LASF3448
C:\Users\SOLDER~1\AppData\Local\Temp\ccKV8tJ7.s:31824  .debug_str:00000000000273fe .LASF3449
C:\Users\SOLDER~1\AppData\Local\Temp\ccKV8tJ7.s:33452  .debug_str:000000000002de27 .LASF3450
C:\Users\SOLDER~1\AppData\Local\Temp\ccKV8tJ7.s:27490  .debug_str:0000000000015ba2 .LASF3451
C:\Users\SOLDER~1\AppData\Local\Temp\ccKV8tJ7.s:29842  .debug_str:000000000001f36a .LASF3452
C:\Users\SOLDER~1\AppData\Local\Temp\ccKV8tJ7.s:28078  .debug_str:0000000000018152 .LASF3453
C:\Users\SOLDER~1\AppData\Local\Temp\ccKV8tJ7.s:23234  .debug_str:00000000000046de .LASF3454
C:\Users\SOLDER~1\AppData\Local\Temp\ccKV8tJ7.s:28338  .debug_str:0000000000019284 .LASF3455
C:\Users\SOLDER~1\AppData\Local\Temp\ccKV8tJ7.s:22786  .debug_str:0000000000002b0c .LASF3456
C:\Users\SOLDER~1\AppData\Local\Temp\ccKV8tJ7.s:32886  .debug_str:000000000002b957 .LASF3457
C:\Users\SOLDER~1\AppData\Local\Temp\ccKV8tJ7.s:32094  .debug_str:00000000000285a8 .LASF3458
C:\Users\SOLDER~1\AppData\Local\Temp\ccKV8tJ7.s:33692  .debug_str:000000000002ed37 .LASF3459
C:\Users\SOLDER~1\AppData\Local\Temp\ccKV8tJ7.s:26508  .debug_str:0000000000011b94 .LASF3460
C:\Users\SOLDER~1\AppData\Local\Temp\ccKV8tJ7.s:31304  .debug_str:00000000000251bb .LASF3461
C:\Users\SOLDER~1\AppData\Local\Temp\ccKV8tJ7.s:26606  .debug_str:0000000000012146 .LASF3462
C:\Users\SOLDER~1\AppData\Local\Temp\ccKV8tJ7.s:32128  .debug_str:0000000000028801 .LASF3463
C:\Users\SOLDER~1\AppData\Local\Temp\ccKV8tJ7.s:30610  .debug_str:00000000000224e0 .LASF3464
C:\Users\SOLDER~1\AppData\Local\Temp\ccKV8tJ7.s:23488  .debug_str:0000000000005651 .LASF3465
C:\Users\SOLDER~1\AppData\Local\Temp\ccKV8tJ7.s:25966  .debug_str:000000000000f889 .LASF3466
C:\Users\SOLDER~1\AppData\Local\Temp\ccKV8tJ7.s:27868  .debug_str:0000000000017349 .LASF3467
C:\Users\SOLDER~1\AppData\Local\Temp\ccKV8tJ7.s:28046  .debug_str:0000000000017f29 .LASF3468
C:\Users\SOLDER~1\AppData\Local\Temp\ccKV8tJ7.s:22770  .debug_str:0000000000002a1e .LASF3469
C:\Users\SOLDER~1\AppData\Local\Temp\ccKV8tJ7.s:28174  .debug_str:00000000000187a4 .LASF3470
C:\Users\SOLDER~1\AppData\Local\Temp\ccKV8tJ7.s:32970  .debug_str:000000000002beba .LASF3471
C:\Users\SOLDER~1\AppData\Local\Temp\ccKV8tJ7.s:29768  .debug_str:000000000001eea5 .LASF3472
C:\Users\SOLDER~1\AppData\Local\Temp\ccKV8tJ7.s:24176  .debug_str:00000000000083a4 .LASF3473
C:\Users\SOLDER~1\AppData\Local\Temp\ccKV8tJ7.s:23716  .debug_str:000000000000656e .LASF3474
C:\Users\SOLDER~1\AppData\Local\Temp\ccKV8tJ7.s:27000  .debug_str:0000000000013af6 .LASF3475
C:\Users\SOLDER~1\AppData\Local\Temp\ccKV8tJ7.s:25302  .debug_str:000000000000cd8d .LASF3476
C:\Users\SOLDER~1\AppData\Local\Temp\ccKV8tJ7.s:27110  .debug_str:00000000000142a7 .LASF3477
C:\Users\SOLDER~1\AppData\Local\Temp\ccKV8tJ7.s:23986  .debug_str:0000000000007749 .LASF3478
C:\Users\SOLDER~1\AppData\Local\Temp\ccKV8tJ7.s:24326  .debug_str:0000000000008d2f .LASF3479
C:\Users\SOLDER~1\AppData\Local\Temp\ccKV8tJ7.s:23930  .debug_str:00000000000073da .LASF3480
C:\Users\SOLDER~1\AppData\Local\Temp\ccKV8tJ7.s:28284  .debug_str:0000000000018eee .LASF3481
C:\Users\SOLDER~1\AppData\Local\Temp\ccKV8tJ7.s:32882  .debug_str:000000000002b91a .LASF3482
C:\Users\SOLDER~1\AppData\Local\Temp\ccKV8tJ7.s:22890  .debug_str:000000000000319d .LASF3483
C:\Users\SOLDER~1\AppData\Local\Temp\ccKV8tJ7.s:30632  .debug_str:0000000000022624 .LASF3484
C:\Users\SOLDER~1\AppData\Local\Temp\ccKV8tJ7.s:26986  .debug_str:00000000000139ea .LASF3485
C:\Users\SOLDER~1\AppData\Local\Temp\ccKV8tJ7.s:24104  .debug_str:0000000000007ee5 .LASF3486
C:\Users\SOLDER~1\AppData\Local\Temp\ccKV8tJ7.s:22868  .debug_str:0000000000003045 .LASF3487
C:\Users\SOLDER~1\AppData\Local\Temp\ccKV8tJ7.s:32186  .debug_str:0000000000028b9f .LASF3488
C:\Users\SOLDER~1\AppData\Local\Temp\ccKV8tJ7.s:28262  .debug_str:0000000000018d79 .LASF3489
C:\Users\SOLDER~1\AppData\Local\Temp\ccKV8tJ7.s:29658  .debug_str:000000000001e743 .LASF3490
C:\Users\SOLDER~1\AppData\Local\Temp\ccKV8tJ7.s:26900  .debug_str:000000000001341c .LASF3491
C:\Users\SOLDER~1\AppData\Local\Temp\ccKV8tJ7.s:29182  .debug_str:000000000001c811 .LASF3492
C:\Users\SOLDER~1\AppData\Local\Temp\ccKV8tJ7.s:25672  .debug_str:000000000000e601 .LASF3493
C:\Users\SOLDER~1\AppData\Local\Temp\ccKV8tJ7.s:25112  .debug_str:000000000000c076 .LASF3494
C:\Users\SOLDER~1\AppData\Local\Temp\ccKV8tJ7.s:30266  .debug_str:0000000000020ef8 .LASF3495
C:\Users\SOLDER~1\AppData\Local\Temp\ccKV8tJ7.s:32792  .debug_str:000000000002b340 .LASF3496
C:\Users\SOLDER~1\AppData\Local\Temp\ccKV8tJ7.s:31864  .debug_str:00000000000276a7 .LASF3497
C:\Users\SOLDER~1\AppData\Local\Temp\ccKV8tJ7.s:23844  .debug_str:0000000000006e08 .LASF3498
GAS LISTING C:\Users\SOLDER~1\AppData\Local\Temp\ccKV8tJ7.s 			page 151


C:\Users\SOLDER~1\AppData\Local\Temp\ccKV8tJ7.s:28254  .debug_str:0000000000018ceb .LASF3499
C:\Users\SOLDER~1\AppData\Local\Temp\ccKV8tJ7.s:27626  .debug_str:0000000000016449 .LASF3500
C:\Users\SOLDER~1\AppData\Local\Temp\ccKV8tJ7.s:23452  .debug_str:0000000000005432 .LASF3501
C:\Users\SOLDER~1\AppData\Local\Temp\ccKV8tJ7.s:22806  .debug_str:0000000000002c2c .LASF3502
C:\Users\SOLDER~1\AppData\Local\Temp\ccKV8tJ7.s:24796  .debug_str:000000000000ac07 .LASF3503
C:\Users\SOLDER~1\AppData\Local\Temp\ccKV8tJ7.s:31036  .debug_str:000000000002403d .LASF3504
C:\Users\SOLDER~1\AppData\Local\Temp\ccKV8tJ7.s:33742  .debug_str:000000000002f092 .LASF3505
C:\Users\SOLDER~1\AppData\Local\Temp\ccKV8tJ7.s:31332  .debug_str:0000000000025395 .LASF3506
C:\Users\SOLDER~1\AppData\Local\Temp\ccKV8tJ7.s:32432  .debug_str:0000000000029bdf .LASF3507
C:\Users\SOLDER~1\AppData\Local\Temp\ccKV8tJ7.s:32164  .debug_str:0000000000028a3d .LASF3508
C:\Users\SOLDER~1\AppData\Local\Temp\ccKV8tJ7.s:24166  .debug_str:00000000000082e8 .LASF3509
C:\Users\SOLDER~1\AppData\Local\Temp\ccKV8tJ7.s:29254  .debug_str:000000000001ccea .LASF3510
C:\Users\SOLDER~1\AppData\Local\Temp\ccKV8tJ7.s:29590  .debug_str:000000000001e306 .LASF3511
C:\Users\SOLDER~1\AppData\Local\Temp\ccKV8tJ7.s:33124  .debug_str:000000000002c916 .LASF3512
C:\Users\SOLDER~1\AppData\Local\Temp\ccKV8tJ7.s:25798  .debug_str:000000000000edce .LASF3513
C:\Users\SOLDER~1\AppData\Local\Temp\ccKV8tJ7.s:33544  .debug_str:000000000002e3f5 .LASF3514
C:\Users\SOLDER~1\AppData\Local\Temp\ccKV8tJ7.s:29754  .debug_str:000000000001edb6 .LASF3515
C:\Users\SOLDER~1\AppData\Local\Temp\ccKV8tJ7.s:31676  .debug_str:0000000000026a61 .LASF3516
C:\Users\SOLDER~1\AppData\Local\Temp\ccKV8tJ7.s:23594  .debug_str:0000000000005d47 .LASF3517
C:\Users\SOLDER~1\AppData\Local\Temp\ccKV8tJ7.s:32334  .debug_str:0000000000029541 .LASF3518
C:\Users\SOLDER~1\AppData\Local\Temp\ccKV8tJ7.s:28594  .debug_str:000000000001a281 .LASF3519
C:\Users\SOLDER~1\AppData\Local\Temp\ccKV8tJ7.s:27874  .debug_str:00000000000173bb .LASF3520
C:\Users\SOLDER~1\AppData\Local\Temp\ccKV8tJ7.s:32698  .debug_str:000000000002ad58 .LASF3521
C:\Users\SOLDER~1\AppData\Local\Temp\ccKV8tJ7.s:25912  .debug_str:000000000000f4ff .LASF3522
C:\Users\SOLDER~1\AppData\Local\Temp\ccKV8tJ7.s:28912  .debug_str:000000000001b689 .LASF3523
C:\Users\SOLDER~1\AppData\Local\Temp\ccKV8tJ7.s:23996  .debug_str:00000000000077c9 .LASF3524
C:\Users\SOLDER~1\AppData\Local\Temp\ccKV8tJ7.s:27570  .debug_str:000000000001609e .LASF3525
C:\Users\SOLDER~1\AppData\Local\Temp\ccKV8tJ7.s:22804  .debug_str:0000000000002c13 .LASF3526
C:\Users\SOLDER~1\AppData\Local\Temp\ccKV8tJ7.s:27888  .debug_str:00000000000174d6 .LASF3527
C:\Users\SOLDER~1\AppData\Local\Temp\ccKV8tJ7.s:32388  .debug_str:00000000000298d3 .LASF3528
C:\Users\SOLDER~1\AppData\Local\Temp\ccKV8tJ7.s:22502  .debug_str:000000000000186d .LASF3529
C:\Users\SOLDER~1\AppData\Local\Temp\ccKV8tJ7.s:33158  .debug_str:000000000002cb27 .LASF3530
C:\Users\SOLDER~1\AppData\Local\Temp\ccKV8tJ7.s:27914  .debug_str:0000000000017679 .LASF3531
C:\Users\SOLDER~1\AppData\Local\Temp\ccKV8tJ7.s:29598  .debug_str:000000000001e389 .LASF3532
C:\Users\SOLDER~1\AppData\Local\Temp\ccKV8tJ7.s:25584  .debug_str:000000000000dfbd .LASF3533
C:\Users\SOLDER~1\AppData\Local\Temp\ccKV8tJ7.s:32912  .debug_str:000000000002baf1 .LASF3534
C:\Users\SOLDER~1\AppData\Local\Temp\ccKV8tJ7.s:26014  .debug_str:000000000000fbea .LASF3535
C:\Users\SOLDER~1\AppData\Local\Temp\ccKV8tJ7.s:30404  .debug_str:00000000000217e5 .LASF3536
C:\Users\SOLDER~1\AppData\Local\Temp\ccKV8tJ7.s:23198  .debug_str:0000000000004485 .LASF3537
C:\Users\SOLDER~1\AppData\Local\Temp\ccKV8tJ7.s:26282  .debug_str:0000000000010d2c .LASF3538
C:\Users\SOLDER~1\AppData\Local\Temp\ccKV8tJ7.s:22798  .debug_str:0000000000002bc9 .LASF3539
C:\Users\SOLDER~1\AppData\Local\Temp\ccKV8tJ7.s:27530  .debug_str:0000000000015e17 .LASF3540
C:\Users\SOLDER~1\AppData\Local\Temp\ccKV8tJ7.s:29170  .debug_str:000000000001c743 .LASF3541
C:\Users\SOLDER~1\AppData\Local\Temp\ccKV8tJ7.s:22190  .debug_str:000000000000032a .LASF3542
C:\Users\SOLDER~1\AppData\Local\Temp\ccKV8tJ7.s:25872  .debug_str:000000000000f27e .LASF3543
C:\Users\SOLDER~1\AppData\Local\Temp\ccKV8tJ7.s:30682  .debug_str:000000000002290b .LASF3544
C:\Users\SOLDER~1\AppData\Local\Temp\ccKV8tJ7.s:33486  .debug_str:000000000002e060 .LASF3545
C:\Users\SOLDER~1\AppData\Local\Temp\ccKV8tJ7.s:30476  .debug_str:0000000000021c7e .LASF3546
C:\Users\SOLDER~1\AppData\Local\Temp\ccKV8tJ7.s:23700  .debug_str:000000000000645c .LASF3547
C:\Users\SOLDER~1\AppData\Local\Temp\ccKV8tJ7.s:23568  .debug_str:0000000000005baa .LASF3548
C:\Users\SOLDER~1\AppData\Local\Temp\ccKV8tJ7.s:25276  .debug_str:000000000000cbca .LASF3549
C:\Users\SOLDER~1\AppData\Local\Temp\ccKV8tJ7.s:22358  .debug_str:0000000000000f2e .LASF3550
C:\Users\SOLDER~1\AppData\Local\Temp\ccKV8tJ7.s:26106  .debug_str:0000000000010217 .LASF3551
C:\Users\SOLDER~1\AppData\Local\Temp\ccKV8tJ7.s:23796  .debug_str:0000000000006ae7 .LASF3552
C:\Users\SOLDER~1\AppData\Local\Temp\ccKV8tJ7.s:23378  .debug_str:0000000000004fb2 .LASF3553
C:\Users\SOLDER~1\AppData\Local\Temp\ccKV8tJ7.s:22562  .debug_str:0000000000001c43 .LASF3554
C:\Users\SOLDER~1\AppData\Local\Temp\ccKV8tJ7.s:31404  .debug_str:0000000000025802 .LASF3555
GAS LISTING C:\Users\SOLDER~1\AppData\Local\Temp\ccKV8tJ7.s 			page 152


C:\Users\SOLDER~1\AppData\Local\Temp\ccKV8tJ7.s:22344  .debug_str:0000000000000e78 .LASF3556
C:\Users\SOLDER~1\AppData\Local\Temp\ccKV8tJ7.s:28726  .debug_str:000000000001aaf9 .LASF3557
C:\Users\SOLDER~1\AppData\Local\Temp\ccKV8tJ7.s:25888  .debug_str:000000000000f383 .LASF3558
C:\Users\SOLDER~1\AppData\Local\Temp\ccKV8tJ7.s:22668  .debug_str:000000000000233e .LASF3559
C:\Users\SOLDER~1\AppData\Local\Temp\ccKV8tJ7.s:23434  .debug_str:000000000000533b .LASF3560
C:\Users\SOLDER~1\AppData\Local\Temp\ccKV8tJ7.s:25776  .debug_str:000000000000ec9d .LASF3561
C:\Users\SOLDER~1\AppData\Local\Temp\ccKV8tJ7.s:26650  .debug_str:00000000000123fe .LASF3562
C:\Users\SOLDER~1\AppData\Local\Temp\ccKV8tJ7.s:33258  .debug_str:000000000002d169 .LASF3563
C:\Users\SOLDER~1\AppData\Local\Temp\ccKV8tJ7.s:27582  .debug_str:0000000000016166 .LASF3564
C:\Users\SOLDER~1\AppData\Local\Temp\ccKV8tJ7.s:29036  .debug_str:000000000001be72 .LASF3565
C:\Users\SOLDER~1\AppData\Local\Temp\ccKV8tJ7.s:29790  .debug_str:000000000001f005 .LASF3566
C:\Users\SOLDER~1\AppData\Local\Temp\ccKV8tJ7.s:22766  .debug_str:00000000000029da .LASF3567
C:\Users\SOLDER~1\AppData\Local\Temp\ccKV8tJ7.s:27798  .debug_str:0000000000016ebf .LASF3568
C:\Users\SOLDER~1\AppData\Local\Temp\ccKV8tJ7.s:26600  .debug_str:00000000000120e7 .LASF3569
C:\Users\SOLDER~1\AppData\Local\Temp\ccKV8tJ7.s:32932  .debug_str:000000000002bc5a .LASF3570
C:\Users\SOLDER~1\AppData\Local\Temp\ccKV8tJ7.s:30200  .debug_str:0000000000020ac0 .LASF3571
C:\Users\SOLDER~1\AppData\Local\Temp\ccKV8tJ7.s:22722  .debug_str:00000000000026af .LASF3572
C:\Users\SOLDER~1\AppData\Local\Temp\ccKV8tJ7.s:27534  .debug_str:0000000000015e4d .LASF3573
C:\Users\SOLDER~1\AppData\Local\Temp\ccKV8tJ7.s:26198  .debug_str:00000000000107e1 .LASF3574
C:\Users\SOLDER~1\AppData\Local\Temp\ccKV8tJ7.s:25466  .debug_str:000000000000d816 .LASF3575
C:\Users\SOLDER~1\AppData\Local\Temp\ccKV8tJ7.s:31702  .debug_str:0000000000026bf4 .LASF3576
C:\Users\SOLDER~1\AppData\Local\Temp\ccKV8tJ7.s:33180  .debug_str:000000000002cc8d .LASF3577
C:\Users\SOLDER~1\AppData\Local\Temp\ccKV8tJ7.s:25860  .debug_str:000000000000f1c6 .LASF3578
C:\Users\SOLDER~1\AppData\Local\Temp\ccKV8tJ7.s:30996  .debug_str:0000000000023dc0 .LASF3579
C:\Users\SOLDER~1\AppData\Local\Temp\ccKV8tJ7.s:33592  .debug_str:000000000002e6ed .LASF3580
C:\Users\SOLDER~1\AppData\Local\Temp\ccKV8tJ7.s:23232  .debug_str:00000000000046bd .LASF3581
C:\Users\SOLDER~1\AppData\Local\Temp\ccKV8tJ7.s:27662  .debug_str:0000000000016675 .LASF3582
C:\Users\SOLDER~1\AppData\Local\Temp\ccKV8tJ7.s:28016  .debug_str:0000000000017d32 .LASF3583
C:\Users\SOLDER~1\AppData\Local\Temp\ccKV8tJ7.s:22774  .debug_str:0000000000002a5a .LASF3584
C:\Users\SOLDER~1\AppData\Local\Temp\ccKV8tJ7.s:24086  .debug_str:0000000000007da4 .LASF3585
C:\Users\SOLDER~1\AppData\Local\Temp\ccKV8tJ7.s:22218  .debug_str:00000000000004fb .LASF3586
C:\Users\SOLDER~1\AppData\Local\Temp\ccKV8tJ7.s:30660  .debug_str:000000000002279b .LASF3587
C:\Users\SOLDER~1\AppData\Local\Temp\ccKV8tJ7.s:26026  .debug_str:000000000000fcc0 .LASF3588
C:\Users\SOLDER~1\AppData\Local\Temp\ccKV8tJ7.s:31498  .debug_str:0000000000025e2a .LASF3589
C:\Users\SOLDER~1\AppData\Local\Temp\ccKV8tJ7.s:31056  .debug_str:000000000002418c .LASF3590
C:\Users\SOLDER~1\AppData\Local\Temp\ccKV8tJ7.s:33646  .debug_str:000000000002ea4a .LASF3591
C:\Users\SOLDER~1\AppData\Local\Temp\ccKV8tJ7.s:24742  .debug_str:000000000000a887 .LASF3592
C:\Users\SOLDER~1\AppData\Local\Temp\ccKV8tJ7.s:25788  .debug_str:000000000000ed32 .LASF3593
C:\Users\SOLDER~1\AppData\Local\Temp\ccKV8tJ7.s:26474  .debug_str:0000000000011928 .LASF3594
C:\Users\SOLDER~1\AppData\Local\Temp\ccKV8tJ7.s:30708  .debug_str:0000000000022ad4 .LASF3595
C:\Users\SOLDER~1\AppData\Local\Temp\ccKV8tJ7.s:31476  .debug_str:0000000000025c87 .LASF3596
C:\Users\SOLDER~1\AppData\Local\Temp\ccKV8tJ7.s:29018  .debug_str:000000000001bd20 .LASF3597
C:\Users\SOLDER~1\AppData\Local\Temp\ccKV8tJ7.s:32906  .debug_str:000000000002ba8d .LASF3598
C:\Users\SOLDER~1\AppData\Local\Temp\ccKV8tJ7.s:25310  .debug_str:000000000000ce0b .LASF3599
C:\Users\SOLDER~1\AppData\Local\Temp\ccKV8tJ7.s:22248  .debug_str:0000000000000778 .LASF3600
C:\Users\SOLDER~1\AppData\Local\Temp\ccKV8tJ7.s:32608  .debug_str:000000000002a75d .LASF3601
C:\Users\SOLDER~1\AppData\Local\Temp\ccKV8tJ7.s:28972  .debug_str:000000000001ba58 .LASF3602
C:\Users\SOLDER~1\AppData\Local\Temp\ccKV8tJ7.s:26476  .debug_str:0000000000011949 .LASF3603
C:\Users\SOLDER~1\AppData\Local\Temp\ccKV8tJ7.s:29950  .debug_str:000000000001fadb .LASF3604
C:\Users\SOLDER~1\AppData\Local\Temp\ccKV8tJ7.s:28944  .debug_str:000000000001b89a .LASF3605
C:\Users\SOLDER~1\AppData\Local\Temp\ccKV8tJ7.s:28832  .debug_str:000000000001b1e2 .LASF3606
C:\Users\SOLDER~1\AppData\Local\Temp\ccKV8tJ7.s:25228  .debug_str:000000000000c87e .LASF3607
C:\Users\SOLDER~1\AppData\Local\Temp\ccKV8tJ7.s:28988  .debug_str:000000000001bb4c .LASF3608
C:\Users\SOLDER~1\AppData\Local\Temp\ccKV8tJ7.s:33176  .debug_str:000000000002cc47 .LASF3609
C:\Users\SOLDER~1\AppData\Local\Temp\ccKV8tJ7.s:26058  .debug_str:000000000000ff15 .LASF3610
C:\Users\SOLDER~1\AppData\Local\Temp\ccKV8tJ7.s:32502  .debug_str:000000000002a00b .LASF3611
C:\Users\SOLDER~1\AppData\Local\Temp\ccKV8tJ7.s:22498  .debug_str:0000000000001842 .LASF3612
GAS LISTING C:\Users\SOLDER~1\AppData\Local\Temp\ccKV8tJ7.s 			page 153


C:\Users\SOLDER~1\AppData\Local\Temp\ccKV8tJ7.s:24280  .debug_str:0000000000008a20 .LASF3613
C:\Users\SOLDER~1\AppData\Local\Temp\ccKV8tJ7.s:31086  .debug_str:0000000000024380 .LASF3614
C:\Users\SOLDER~1\AppData\Local\Temp\ccKV8tJ7.s:30456  .debug_str:0000000000021b36 .LASF3615
C:\Users\SOLDER~1\AppData\Local\Temp\ccKV8tJ7.s:30988  .debug_str:0000000000023d53 .LASF3616
C:\Users\SOLDER~1\AppData\Local\Temp\ccKV8tJ7.s:32276  .debug_str:000000000002919c .LASF3617
C:\Users\SOLDER~1\AppData\Local\Temp\ccKV8tJ7.s:31322  .debug_str:00000000000252e9 .LASF3618
C:\Users\SOLDER~1\AppData\Local\Temp\ccKV8tJ7.s:25420  .debug_str:000000000000d528 .LASF3619
C:\Users\SOLDER~1\AppData\Local\Temp\ccKV8tJ7.s:27856  .debug_str:000000000001727b .LASF3620
C:\Users\SOLDER~1\AppData\Local\Temp\ccKV8tJ7.s:32382  .debug_str:0000000000029865 .LASF3621
C:\Users\SOLDER~1\AppData\Local\Temp\ccKV8tJ7.s:29012  .debug_str:000000000001bcc8 .LASF3622
C:\Users\SOLDER~1\AppData\Local\Temp\ccKV8tJ7.s:28902  .debug_str:000000000001b5f4 .LASF3623
C:\Users\SOLDER~1\AppData\Local\Temp\ccKV8tJ7.s:23110  .debug_str:0000000000003f36 .LASF3624
C:\Users\SOLDER~1\AppData\Local\Temp\ccKV8tJ7.s:31102  .debug_str:0000000000024496 .LASF3625
C:\Users\SOLDER~1\AppData\Local\Temp\ccKV8tJ7.s:30464  .debug_str:0000000000021bbc .LASF3626
C:\Users\SOLDER~1\AppData\Local\Temp\ccKV8tJ7.s:32852  .debug_str:000000000002b746 .LASF3627
C:\Users\SOLDER~1\AppData\Local\Temp\ccKV8tJ7.s:28788  .debug_str:000000000001aef0 .LASF3628
C:\Users\SOLDER~1\AppData\Local\Temp\ccKV8tJ7.s:32160  .debug_str:0000000000028a02 .LASF3629
C:\Users\SOLDER~1\AppData\Local\Temp\ccKV8tJ7.s:26746  .debug_str:00000000000129d7 .LASF3630
C:\Users\SOLDER~1\AppData\Local\Temp\ccKV8tJ7.s:32462  .debug_str:0000000000029dae .LASF3631
C:\Users\SOLDER~1\AppData\Local\Temp\ccKV8tJ7.s:30514  .debug_str:0000000000021ee3 .LASF3632
C:\Users\SOLDER~1\AppData\Local\Temp\ccKV8tJ7.s:27878  .debug_str:00000000000173f9 .LASF3633
C:\Users\SOLDER~1\AppData\Local\Temp\ccKV8tJ7.s:30748  .debug_str:0000000000022d5f .LASF3634
C:\Users\SOLDER~1\AppData\Local\Temp\ccKV8tJ7.s:28014  .debug_str:0000000000017d12 .LASF3635
C:\Users\SOLDER~1\AppData\Local\Temp\ccKV8tJ7.s:30800  .debug_str:00000000000230f5 .LASF3636
C:\Users\SOLDER~1\AppData\Local\Temp\ccKV8tJ7.s:25978  .debug_str:000000000000f945 .LASF3637
C:\Users\SOLDER~1\AppData\Local\Temp\ccKV8tJ7.s:30120  .debug_str:0000000000020594 .LASF3638
C:\Users\SOLDER~1\AppData\Local\Temp\ccKV8tJ7.s:26490  .debug_str:0000000000011a4d .LASF3639
C:\Users\SOLDER~1\AppData\Local\Temp\ccKV8tJ7.s:32490  .debug_str:0000000000029f56 .LASF3640
C:\Users\SOLDER~1\AppData\Local\Temp\ccKV8tJ7.s:30814  .debug_str:00000000000231f4 .LASF3641
C:\Users\SOLDER~1\AppData\Local\Temp\ccKV8tJ7.s:25528  .debug_str:000000000000dc11 .LASF3642
C:\Users\SOLDER~1\AppData\Local\Temp\ccKV8tJ7.s:24896  .debug_str:000000000000b281 .LASF3643
C:\Users\SOLDER~1\AppData\Local\Temp\ccKV8tJ7.s:31338  .debug_str:00000000000253fd .LASF3644
C:\Users\SOLDER~1\AppData\Local\Temp\ccKV8tJ7.s:32696  .debug_str:000000000002ad35 .LASF3645
C:\Users\SOLDER~1\AppData\Local\Temp\ccKV8tJ7.s:33184  .debug_str:000000000002ccda .LASF3646
C:\Users\SOLDER~1\AppData\Local\Temp\ccKV8tJ7.s:23766  .debug_str:0000000000006915 .LASF3647
C:\Users\SOLDER~1\AppData\Local\Temp\ccKV8tJ7.s:22198  .debug_str:00000000000003a8 .LASF3648
C:\Users\SOLDER~1\AppData\Local\Temp\ccKV8tJ7.s:29860  .debug_str:000000000001f497 .LASF3649
C:\Users\SOLDER~1\AppData\Local\Temp\ccKV8tJ7.s:24450  .debug_str:00000000000095a1 .LASF3650
C:\Users\SOLDER~1\AppData\Local\Temp\ccKV8tJ7.s:27540  .debug_str:0000000000015eb3 .LASF3651
C:\Users\SOLDER~1\AppData\Local\Temp\ccKV8tJ7.s:22828  .debug_str:0000000000002d98 .LASF3652
C:\Users\SOLDER~1\AppData\Local\Temp\ccKV8tJ7.s:33350  .debug_str:000000000002d7b2 .LASF3653
C:\Users\SOLDER~1\AppData\Local\Temp\ccKV8tJ7.s:28406  .debug_str:00000000000196f7 .LASF3654
C:\Users\SOLDER~1\AppData\Local\Temp\ccKV8tJ7.s:33464  .debug_str:000000000002deff .LASF3655
C:\Users\SOLDER~1\AppData\Local\Temp\ccKV8tJ7.s:31906  .debug_str:000000000002796e .LASF3656
C:\Users\SOLDER~1\AppData\Local\Temp\ccKV8tJ7.s:24506  .debug_str:0000000000009937 .LASF3657
C:\Users\SOLDER~1\AppData\Local\Temp\ccKV8tJ7.s:31080  .debug_str:0000000000024315 .LASF3658
C:\Users\SOLDER~1\AppData\Local\Temp\ccKV8tJ7.s:33234  .debug_str:000000000002d003 .LASF3659
C:\Users\SOLDER~1\AppData\Local\Temp\ccKV8tJ7.s:23674  .debug_str:00000000000062c0 .LASF3660
C:\Users\SOLDER~1\AppData\Local\Temp\ccKV8tJ7.s:28906  .debug_str:000000000001b63b .LASF3661
C:\Users\SOLDER~1\AppData\Local\Temp\ccKV8tJ7.s:23616  .debug_str:0000000000005eaa .LASF3662
C:\Users\SOLDER~1\AppData\Local\Temp\ccKV8tJ7.s:32422  .debug_str:0000000000029b2a .LASF3663
C:\Users\SOLDER~1\AppData\Local\Temp\ccKV8tJ7.s:23320  .debug_str:0000000000004c4a .LASF3664
C:\Users\SOLDER~1\AppData\Local\Temp\ccKV8tJ7.s:22866  .debug_str:0000000000003022 .LASF3665
C:\Users\SOLDER~1\AppData\Local\Temp\ccKV8tJ7.s:31766  .debug_str:000000000002705b .LASF3666
C:\Users\SOLDER~1\AppData\Local\Temp\ccKV8tJ7.s:26928  .debug_str:00000000000135f7 .LASF3667
C:\Users\SOLDER~1\AppData\Local\Temp\ccKV8tJ7.s:28162  .debug_str:00000000000186dd .LASF3668
C:\Users\SOLDER~1\AppData\Local\Temp\ccKV8tJ7.s:25750  .debug_str:000000000000eb19 .LASF3669
GAS LISTING C:\Users\SOLDER~1\AppData\Local\Temp\ccKV8tJ7.s 			page 154


C:\Users\SOLDER~1\AppData\Local\Temp\ccKV8tJ7.s:26016  .debug_str:000000000000fc0a .LASF3670
C:\Users\SOLDER~1\AppData\Local\Temp\ccKV8tJ7.s:30652  .debug_str:0000000000022739 .LASF3671
C:\Users\SOLDER~1\AppData\Local\Temp\ccKV8tJ7.s:31744  .debug_str:0000000000026ec7 .LASF3672
C:\Users\SOLDER~1\AppData\Local\Temp\ccKV8tJ7.s:28624  .debug_str:000000000001a451 .LASF3673
C:\Users\SOLDER~1\AppData\Local\Temp\ccKV8tJ7.s:28644  .debug_str:000000000001a58d .LASF3674
C:\Users\SOLDER~1\AppData\Local\Temp\ccKV8tJ7.s:25212  .debug_str:000000000000c757 .LASF3675
C:\Users\SOLDER~1\AppData\Local\Temp\ccKV8tJ7.s:26380  .debug_str:0000000000011321 .LASF3676
C:\Users\SOLDER~1\AppData\Local\Temp\ccKV8tJ7.s:30772  .debug_str:0000000000022f0f .LASF3677
C:\Users\SOLDER~1\AppData\Local\Temp\ccKV8tJ7.s:28658  .debug_str:000000000001a698 .LASF3678
C:\Users\SOLDER~1\AppData\Local\Temp\ccKV8tJ7.s:31006  .debug_str:0000000000023e72 .LASF3679
C:\Users\SOLDER~1\AppData\Local\Temp\ccKV8tJ7.s:32376  .debug_str:00000000000297fc .LASF3680
C:\Users\SOLDER~1\AppData\Local\Temp\ccKV8tJ7.s:33168  .debug_str:000000000002cbd6 .LASF3681
C:\Users\SOLDER~1\AppData\Local\Temp\ccKV8tJ7.s:27768  .debug_str:0000000000016d13 .LASF3682
C:\Users\SOLDER~1\AppData\Local\Temp\ccKV8tJ7.s:32854  .debug_str:000000000002b767 .LASF3683
C:\Users\SOLDER~1\AppData\Local\Temp\ccKV8tJ7.s:26504  .debug_str:0000000000011b3d .LASF3684
C:\Users\SOLDER~1\AppData\Local\Temp\ccKV8tJ7.s:30438  .debug_str:00000000000219f8 .LASF3685
C:\Users\SOLDER~1\AppData\Local\Temp\ccKV8tJ7.s:26312  .debug_str:0000000000010eeb .LASF3686
C:\Users\SOLDER~1\AppData\Local\Temp\ccKV8tJ7.s:29472  .debug_str:000000000001db4d .LASF3687
C:\Users\SOLDER~1\AppData\Local\Temp\ccKV8tJ7.s:30454  .debug_str:0000000000021b0f .LASF3688
C:\Users\SOLDER~1\AppData\Local\Temp\ccKV8tJ7.s:24288  .debug_str:0000000000008aa3 .LASF3689
C:\Users\SOLDER~1\AppData\Local\Temp\ccKV8tJ7.s:30444  .debug_str:0000000000021a6a .LASF3690
C:\Users\SOLDER~1\AppData\Local\Temp\ccKV8tJ7.s:27352  .debug_str:00000000000152b9 .LASF3691
C:\Users\SOLDER~1\AppData\Local\Temp\ccKV8tJ7.s:23546  .debug_str:0000000000005a65 .LASF3692
C:\Users\SOLDER~1\AppData\Local\Temp\ccKV8tJ7.s:25206  .debug_str:000000000000c701 .LASF3693
C:\Users\SOLDER~1\AppData\Local\Temp\ccKV8tJ7.s:32316  .debug_str:000000000002942e .LASF3694
C:\Users\SOLDER~1\AppData\Local\Temp\ccKV8tJ7.s:27258  .debug_str:0000000000014cb4 .LASF3695
C:\Users\SOLDER~1\AppData\Local\Temp\ccKV8tJ7.s:24484  .debug_str:00000000000097b6 .LASF3696
C:\Users\SOLDER~1\AppData\Local\Temp\ccKV8tJ7.s:25086  .debug_str:000000000000bed4 .LASF3697
C:\Users\SOLDER~1\AppData\Local\Temp\ccKV8tJ7.s:28680  .debug_str:000000000001a7d9 .LASF3698
C:\Users\SOLDER~1\AppData\Local\Temp\ccKV8tJ7.s:25998  .debug_str:000000000000faee .LASF3699
C:\Users\SOLDER~1\AppData\Local\Temp\ccKV8tJ7.s:29620  .debug_str:000000000001e4d5 .LASF3700
C:\Users\SOLDER~1\AppData\Local\Temp\ccKV8tJ7.s:22612  .debug_str:0000000000001f83 .LASF3701
C:\Users\SOLDER~1\AppData\Local\Temp\ccKV8tJ7.s:26250  .debug_str:0000000000010b2a .LASF3702
C:\Users\SOLDER~1\AppData\Local\Temp\ccKV8tJ7.s:25700  .debug_str:000000000000e7a2 .LASF3703
C:\Users\SOLDER~1\AppData\Local\Temp\ccKV8tJ7.s:22962  .debug_str:000000000000361c .LASF3704
C:\Users\SOLDER~1\AppData\Local\Temp\ccKV8tJ7.s:31902  .debug_str:0000000000027921 .LASF3705
C:\Users\SOLDER~1\AppData\Local\Temp\ccKV8tJ7.s:31228  .debug_str:0000000000024cc8 .LASF3706
C:\Users\SOLDER~1\AppData\Local\Temp\ccKV8tJ7.s:25370  .debug_str:000000000000d1f3 .LASF3707
C:\Users\SOLDER~1\AppData\Local\Temp\ccKV8tJ7.s:22694  .debug_str:00000000000024f6 .LASF3708
C:\Users\SOLDER~1\AppData\Local\Temp\ccKV8tJ7.s:31472  .debug_str:0000000000025c3e .LASF3709
C:\Users\SOLDER~1\AppData\Local\Temp\ccKV8tJ7.s:22894  .debug_str:00000000000031e3 .LASF3710
C:\Users\SOLDER~1\AppData\Local\Temp\ccKV8tJ7.s:22628  .debug_str:0000000000002085 .LASF3711
C:\Users\SOLDER~1\AppData\Local\Temp\ccKV8tJ7.s:31558  .debug_str:0000000000026233 .LASF3712
C:\Users\SOLDER~1\AppData\Local\Temp\ccKV8tJ7.s:27694  .debug_str:000000000001686a .LASF3713
C:\Users\SOLDER~1\AppData\Local\Temp\ccKV8tJ7.s:32420  .debug_str:0000000000029b05 .LASF3714
C:\Users\SOLDER~1\AppData\Local\Temp\ccKV8tJ7.s:23296  .debug_str:0000000000004aa1 .LASF3715
C:\Users\SOLDER~1\AppData\Local\Temp\ccKV8tJ7.s:32434  .debug_str:0000000000029c01 .LASF3716
C:\Users\SOLDER~1\AppData\Local\Temp\ccKV8tJ7.s:28420  .debug_str:00000000000197f6 .LASF3717
C:\Users\SOLDER~1\AppData\Local\Temp\ccKV8tJ7.s:25118  .debug_str:000000000000c0c7 .LASF3718
C:\Users\SOLDER~1\AppData\Local\Temp\ccKV8tJ7.s:31832  .debug_str:000000000002749c .LASF3719
C:\Users\SOLDER~1\AppData\Local\Temp\ccKV8tJ7.s:25432  .debug_str:000000000000d601 .LASF3720
C:\Users\SOLDER~1\AppData\Local\Temp\ccKV8tJ7.s:33638  .debug_str:000000000002e9d4 .LASF3721
C:\Users\SOLDER~1\AppData\Local\Temp\ccKV8tJ7.s:32884  .debug_str:000000000002b932 .LASF3722
C:\Users\SOLDER~1\AppData\Local\Temp\ccKV8tJ7.s:31302  .debug_str:000000000002519a .LASF3723
C:\Users\SOLDER~1\AppData\Local\Temp\ccKV8tJ7.s:33358  .debug_str:000000000002d835 .LASF3724
C:\Users\SOLDER~1\AppData\Local\Temp\ccKV8tJ7.s:30332  .debug_str:0000000000021317 .LASF3725
C:\Users\SOLDER~1\AppData\Local\Temp\ccKV8tJ7.s:27172  .debug_str:0000000000014726 .LASF3726
GAS LISTING C:\Users\SOLDER~1\AppData\Local\Temp\ccKV8tJ7.s 			page 155


C:\Users\SOLDER~1\AppData\Local\Temp\ccKV8tJ7.s:32620  .debug_str:000000000002a828 .LASF3727
C:\Users\SOLDER~1\AppData\Local\Temp\ccKV8tJ7.s:24788  .debug_str:000000000000ab8e .LASF3728
C:\Users\SOLDER~1\AppData\Local\Temp\ccKV8tJ7.s:27472  .debug_str:0000000000015a6b .LASF3729
C:\Users\SOLDER~1\AppData\Local\Temp\ccKV8tJ7.s:28278  .debug_str:0000000000018e78 .LASF3730
C:\Users\SOLDER~1\AppData\Local\Temp\ccKV8tJ7.s:24056  .debug_str:0000000000007baa .LASF3731
C:\Users\SOLDER~1\AppData\Local\Temp\ccKV8tJ7.s:28810  .debug_str:000000000001b065 .LASF3732
C:\Users\SOLDER~1\AppData\Local\Temp\ccKV8tJ7.s:25088  .debug_str:000000000000bef9 .LASF3733
C:\Users\SOLDER~1\AppData\Local\Temp\ccKV8tJ7.s:28578  .debug_str:000000000001a175 .LASF3734
C:\Users\SOLDER~1\AppData\Local\Temp\ccKV8tJ7.s:25016  .debug_str:000000000000ba43 .LASF3735
C:\Users\SOLDER~1\AppData\Local\Temp\ccKV8tJ7.s:23536  .debug_str:00000000000059ad .LASF3736
C:\Users\SOLDER~1\AppData\Local\Temp\ccKV8tJ7.s:26066  .debug_str:000000000000ff9c .LASF3737
C:\Users\SOLDER~1\AppData\Local\Temp\ccKV8tJ7.s:23840  .debug_str:0000000000006dc8 .LASF3738
C:\Users\SOLDER~1\AppData\Local\Temp\ccKV8tJ7.s:22948  .debug_str:0000000000003570 .LASF3739
C:\Users\SOLDER~1\AppData\Local\Temp\ccKV8tJ7.s:29928  .debug_str:000000000001f94b .LASF3740
C:\Users\SOLDER~1\AppData\Local\Temp\ccKV8tJ7.s:30024  .debug_str:000000000001ff58 .LASF3741
C:\Users\SOLDER~1\AppData\Local\Temp\ccKV8tJ7.s:25532  .debug_str:000000000000dc4b .LASF3742
C:\Users\SOLDER~1\AppData\Local\Temp\ccKV8tJ7.s:33588  .debug_str:000000000002e6b2 .LASF3743
C:\Users\SOLDER~1\AppData\Local\Temp\ccKV8tJ7.s:23530  .debug_str:000000000000594b .LASF3744
C:\Users\SOLDER~1\AppData\Local\Temp\ccKV8tJ7.s:32554  .debug_str:000000000002a3c0 .LASF3745
C:\Users\SOLDER~1\AppData\Local\Temp\ccKV8tJ7.s:25580  .debug_str:000000000000df82 .LASF3746
C:\Users\SOLDER~1\AppData\Local\Temp\ccKV8tJ7.s:30778  .debug_str:0000000000022f6e .LASF3747
C:\Users\SOLDER~1\AppData\Local\Temp\ccKV8tJ7.s:26874  .debug_str:000000000001322b .LASF3748
C:\Users\SOLDER~1\AppData\Local\Temp\ccKV8tJ7.s:25330  .debug_str:000000000000cf65 .LASF3749
C:\Users\SOLDER~1\AppData\Local\Temp\ccKV8tJ7.s:32708  .debug_str:000000000002add8 .LASF3750
C:\Users\SOLDER~1\AppData\Local\Temp\ccKV8tJ7.s:28996  .debug_str:000000000001bbb6 .LASF3751
C:\Users\SOLDER~1\AppData\Local\Temp\ccKV8tJ7.s:26086  .debug_str:00000000000100e6 .LASF3752
C:\Users\SOLDER~1\AppData\Local\Temp\ccKV8tJ7.s:29604  .debug_str:000000000001e3e7 .LASF3753
C:\Users\SOLDER~1\AppData\Local\Temp\ccKV8tJ7.s:26048  .debug_str:000000000000fe63 .LASF3754
C:\Users\SOLDER~1\AppData\Local\Temp\ccKV8tJ7.s:28588  .debug_str:000000000001a227 .LASF3755
C:\Users\SOLDER~1\AppData\Local\Temp\ccKV8tJ7.s:28830  .debug_str:000000000001b1bf .LASF3756
C:\Users\SOLDER~1\AppData\Local\Temp\ccKV8tJ7.s:29342  .debug_str:000000000001d2e4 .LASF3757
C:\Users\SOLDER~1\AppData\Local\Temp\ccKV8tJ7.s:28166  .debug_str:000000000001872b .LASF3758
C:\Users\SOLDER~1\AppData\Local\Temp\ccKV8tJ7.s:22720  .debug_str:0000000000002699 .LASF3759
C:\Users\SOLDER~1\AppData\Local\Temp\ccKV8tJ7.s:23440  .debug_str:000000000000537f .LASF3760
C:\Users\SOLDER~1\AppData\Local\Temp\ccKV8tJ7.s:33152  .debug_str:000000000002cad0 .LASF3761
C:\Users\SOLDER~1\AppData\Local\Temp\ccKV8tJ7.s:33382  .debug_str:000000000002d9ba .LASF3762
C:\Users\SOLDER~1\AppData\Local\Temp\ccKV8tJ7.s:22420  .debug_str:0000000000001325 .LASF3763
C:\Users\SOLDER~1\AppData\Local\Temp\ccKV8tJ7.s:28222  .debug_str:0000000000018ab7 .LASF3764
C:\Users\SOLDER~1\AppData\Local\Temp\ccKV8tJ7.s:26358  .debug_str:00000000000111b9 .LASF3765
C:\Users\SOLDER~1\AppData\Local\Temp\ccKV8tJ7.s:31230  .debug_str:0000000000024cec .LASF3766
C:\Users\SOLDER~1\AppData\Local\Temp\ccKV8tJ7.s:24880  .debug_str:000000000000b193 .LASF3767
C:\Users\SOLDER~1\AppData\Local\Temp\ccKV8tJ7.s:30512  .debug_str:0000000000021ec0 .LASF3768
C:\Users\SOLDER~1\AppData\Local\Temp\ccKV8tJ7.s:22698  .debug_str:0000000000002548 .LASF3769
C:\Users\SOLDER~1\AppData\Local\Temp\ccKV8tJ7.s:32022  .debug_str:00000000000280c8 .LASF3770
C:\Users\SOLDER~1\AppData\Local\Temp\ccKV8tJ7.s:22368  .debug_str:0000000000000fd9 .LASF3771
C:\Users\SOLDER~1\AppData\Local\Temp\ccKV8tJ7.s:31082  .debug_str:000000000002433c .LASF3772
C:\Users\SOLDER~1\AppData\Local\Temp\ccKV8tJ7.s:26992  .debug_str:0000000000013a7e .LASF3773
C:\Users\SOLDER~1\AppData\Local\Temp\ccKV8tJ7.s:32428  .debug_str:0000000000029b8f .LASF3774
C:\Users\SOLDER~1\AppData\Local\Temp\ccKV8tJ7.s:29834  .debug_str:000000000001f2e3 .LASF3775
C:\Users\SOLDER~1\AppData\Local\Temp\ccKV8tJ7.s:25412  .debug_str:000000000000d49c .LASF3776
C:\Users\SOLDER~1\AppData\Local\Temp\ccKV8tJ7.s:23956  .debug_str:000000000000756b .LASF3777
C:\Users\SOLDER~1\AppData\Local\Temp\ccKV8tJ7.s:31730  .debug_str:0000000000026df0 .LASF3778
C:\Users\SOLDER~1\AppData\Local\Temp\ccKV8tJ7.s:30018  .debug_str:000000000001fefe .LASF3779
C:\Users\SOLDER~1\AppData\Local\Temp\ccKV8tJ7.s:30286  .debug_str:0000000000021043 .LASF3780
C:\Users\SOLDER~1\AppData\Local\Temp\ccKV8tJ7.s:31198  .debug_str:0000000000024abd .LASF3781
C:\Users\SOLDER~1\AppData\Local\Temp\ccKV8tJ7.s:23138  .debug_str:00000000000040e7 .LASF3782
C:\Users\SOLDER~1\AppData\Local\Temp\ccKV8tJ7.s:27278  .debug_str:0000000000014e34 .LASF3783
GAS LISTING C:\Users\SOLDER~1\AppData\Local\Temp\ccKV8tJ7.s 			page 156


C:\Users\SOLDER~1\AppData\Local\Temp\ccKV8tJ7.s:25862  .debug_str:000000000000f1df .LASF3784
C:\Users\SOLDER~1\AppData\Local\Temp\ccKV8tJ7.s:23808  .debug_str:0000000000006ba6 .LASF3785
C:\Users\SOLDER~1\AppData\Local\Temp\ccKV8tJ7.s:28100  .debug_str:00000000000182e9 .LASF3786
C:\Users\SOLDER~1\AppData\Local\Temp\ccKV8tJ7.s:33362  .debug_str:000000000002d87e .LASF3787
C:\Users\SOLDER~1\AppData\Local\Temp\ccKV8tJ7.s:31204  .debug_str:0000000000024b20 .LASF3788
C:\Users\SOLDER~1\AppData\Local\Temp\ccKV8tJ7.s:23588  .debug_str:0000000000005cfa .LASF3789
C:\Users\SOLDER~1\AppData\Local\Temp\ccKV8tJ7.s:24736  .debug_str:000000000000a83b .LASF3790
C:\Users\SOLDER~1\AppData\Local\Temp\ccKV8tJ7.s:32260  .debug_str:00000000000290aa .LASF3791
C:\Users\SOLDER~1\AppData\Local\Temp\ccKV8tJ7.s:31856  .debug_str:000000000002761c .LASF3792
C:\Users\SOLDER~1\AppData\Local\Temp\ccKV8tJ7.s:29432  .debug_str:000000000001d8fd .LASF3793
C:\Users\SOLDER~1\AppData\Local\Temp\ccKV8tJ7.s:33260  .debug_str:000000000002d18e .LASF3794
C:\Users\SOLDER~1\AppData\Local\Temp\ccKV8tJ7.s:31784  .debug_str:000000000002718c .LASF3795
C:\Users\SOLDER~1\AppData\Local\Temp\ccKV8tJ7.s:24618  .debug_str:000000000000a031 .LASF3796
C:\Users\SOLDER~1\AppData\Local\Temp\ccKV8tJ7.s:26088  .debug_str:000000000001010a .LASF3797
C:\Users\SOLDER~1\AppData\Local\Temp\ccKV8tJ7.s:32046  .debug_str:0000000000028265 .LASF3798
C:\Users\SOLDER~1\AppData\Local\Temp\ccKV8tJ7.s:32654  .debug_str:000000000002aa79 .LASF3799
C:\Users\SOLDER~1\AppData\Local\Temp\ccKV8tJ7.s:29064  .debug_str:000000000001c02c .LASF3800
C:\Users\SOLDER~1\AppData\Local\Temp\ccKV8tJ7.s:30330  .debug_str:0000000000021302 .LASF3801
C:\Users\SOLDER~1\AppData\Local\Temp\ccKV8tJ7.s:27964  .debug_str:00000000000179ec .LASF3802
C:\Users\SOLDER~1\AppData\Local\Temp\ccKV8tJ7.s:32368  .debug_str:000000000002978a .LASF3803
C:\Users\SOLDER~1\AppData\Local\Temp\ccKV8tJ7.s:30082  .debug_str:0000000000020313 .LASF3804
C:\Users\SOLDER~1\AppData\Local\Temp\ccKV8tJ7.s:29186  .debug_str:000000000001c843 .LASF3805
C:\Users\SOLDER~1\AppData\Local\Temp\ccKV8tJ7.s:33568  .debug_str:000000000002e585 .LASF3806
C:\Users\SOLDER~1\AppData\Local\Temp\ccKV8tJ7.s:32998  .debug_str:000000000002c08a .LASF3807
C:\Users\SOLDER~1\AppData\Local\Temp\ccKV8tJ7.s:22288  .debug_str:0000000000000a60 .LASF3808
C:\Users\SOLDER~1\AppData\Local\Temp\ccKV8tJ7.s:27414  .debug_str:00000000000156af .LASF3809
C:\Users\SOLDER~1\AppData\Local\Temp\ccKV8tJ7.s:27732  .debug_str:0000000000016aa8 .LASF3810
C:\Users\SOLDER~1\AppData\Local\Temp\ccKV8tJ7.s:33758  .debug_str:000000000002f18b .LASF3811
C:\Users\SOLDER~1\AppData\Local\Temp\ccKV8tJ7.s:27536  .debug_str:0000000000015e72 .LASF3812
C:\Users\SOLDER~1\AppData\Local\Temp\ccKV8tJ7.s:24214  .debug_str:00000000000085fa .LASF3813
C:\Users\SOLDER~1\AppData\Local\Temp\ccKV8tJ7.s:23166  .debug_str:00000000000042ab .LASF3814
C:\Users\SOLDER~1\AppData\Local\Temp\ccKV8tJ7.s:24402  .debug_str:0000000000009266 .LASF3815
C:\Users\SOLDER~1\AppData\Local\Temp\ccKV8tJ7.s:27512  .debug_str:0000000000015cf9 .LASF3816
C:\Users\SOLDER~1\AppData\Local\Temp\ccKV8tJ7.s:24234  .debug_str:0000000000008742 .LASF3817
C:\Users\SOLDER~1\AppData\Local\Temp\ccKV8tJ7.s:25470  .debug_str:000000000000d867 .LASF3818
C:\Users\SOLDER~1\AppData\Local\Temp\ccKV8tJ7.s:23344  .debug_str:0000000000004db5 .LASF3819
C:\Users\SOLDER~1\AppData\Local\Temp\ccKV8tJ7.s:31270  .debug_str:0000000000024f66 .LASF3820
C:\Users\SOLDER~1\AppData\Local\Temp\ccKV8tJ7.s:26730  .debug_str:00000000000128e3 .LASF3821
C:\Users\SOLDER~1\AppData\Local\Temp\ccKV8tJ7.s:26062  .debug_str:000000000000ff55 .LASF3822
C:\Users\SOLDER~1\AppData\Local\Temp\ccKV8tJ7.s:29332  .debug_str:000000000001d23a .LASF3823
C:\Users\SOLDER~1\AppData\Local\Temp\ccKV8tJ7.s:32592  .debug_str:000000000002a633 .LASF3824
C:\Users\SOLDER~1\AppData\Local\Temp\ccKV8tJ7.s:24370  .debug_str:0000000000009026 .LASF3825
C:\Users\SOLDER~1\AppData\Local\Temp\ccKV8tJ7.s:30516  .debug_str:0000000000021ef3 .LASF3826
C:\Users\SOLDER~1\AppData\Local\Temp\ccKV8tJ7.s:24602  .debug_str:0000000000009f38 .LASF3827
C:\Users\SOLDER~1\AppData\Local\Temp\ccKV8tJ7.s:24004  .debug_str:0000000000007840 .LASF3828
C:\Users\SOLDER~1\AppData\Local\Temp\ccKV8tJ7.s:25232  .debug_str:000000000000c8c3 .LASF3829
C:\Users\SOLDER~1\AppData\Local\Temp\ccKV8tJ7.s:25220  .debug_str:000000000000c7e7 .LASF3830
C:\Users\SOLDER~1\AppData\Local\Temp\ccKV8tJ7.s:22854  .debug_str:0000000000002f43 .LASF3831
C:\Users\SOLDER~1\AppData\Local\Temp\ccKV8tJ7.s:25022  .debug_str:000000000000baa1 .LASF3832
C:\Users\SOLDER~1\AppData\Local\Temp\ccKV8tJ7.s:31010  .debug_str:0000000000023eb6 .LASF3833
C:\Users\SOLDER~1\AppData\Local\Temp\ccKV8tJ7.s:24150  .debug_str:00000000000081dc .LASF3834
C:\Users\SOLDER~1\AppData\Local\Temp\ccKV8tJ7.s:25564  .debug_str:000000000000de7b .LASF3835
C:\Users\SOLDER~1\AppData\Local\Temp\ccKV8tJ7.s:32870  .debug_str:000000000002b889 .LASF3836
C:\Users\SOLDER~1\AppData\Local\Temp\ccKV8tJ7.s:30928  .debug_str:000000000002394f .LASF3837
C:\Users\SOLDER~1\AppData\Local\Temp\ccKV8tJ7.s:23228  .debug_str:0000000000004680 .LASF3838
C:\Users\SOLDER~1\AppData\Local\Temp\ccKV8tJ7.s:31194  .debug_str:0000000000024a76 .LASF3839
C:\Users\SOLDER~1\AppData\Local\Temp\ccKV8tJ7.s:24164  .debug_str:00000000000082c4 .LASF3840
GAS LISTING C:\Users\SOLDER~1\AppData\Local\Temp\ccKV8tJ7.s 			page 157


C:\Users\SOLDER~1\AppData\Local\Temp\ccKV8tJ7.s:23184  .debug_str:00000000000043c9 .LASF3841
C:\Users\SOLDER~1\AppData\Local\Temp\ccKV8tJ7.s:25286  .debug_str:000000000000cc61 .LASF3842
C:\Users\SOLDER~1\AppData\Local\Temp\ccKV8tJ7.s:32436  .debug_str:0000000000029c26 .LASF3843
C:\Users\SOLDER~1\AppData\Local\Temp\ccKV8tJ7.s:24716  .debug_str:000000000000a6f3 .LASF3844
C:\Users\SOLDER~1\AppData\Local\Temp\ccKV8tJ7.s:30754  .debug_str:0000000000022dc1 .LASF3845
C:\Users\SOLDER~1\AppData\Local\Temp\ccKV8tJ7.s:29322  .debug_str:000000000001d1ad .LASF3846
C:\Users\SOLDER~1\AppData\Local\Temp\ccKV8tJ7.s:31066  .debug_str:000000000002422a .LASF3847
C:\Users\SOLDER~1\AppData\Local\Temp\ccKV8tJ7.s:26276  .debug_str:0000000000010ce0 .LASF3848
C:\Users\SOLDER~1\AppData\Local\Temp\ccKV8tJ7.s:27672  .debug_str:0000000000016737 .LASF3849
C:\Users\SOLDER~1\AppData\Local\Temp\ccKV8tJ7.s:23604  .debug_str:0000000000005dea .LASF3850
C:\Users\SOLDER~1\AppData\Local\Temp\ccKV8tJ7.s:25128  .debug_str:000000000000c18c .LASF3851
C:\Users\SOLDER~1\AppData\Local\Temp\ccKV8tJ7.s:24876  .debug_str:000000000000b15e .LASF3852
C:\Users\SOLDER~1\AppData\Local\Temp\ccKV8tJ7.s:24908  .debug_str:000000000000b351 .LASF3853
C:\Users\SOLDER~1\AppData\Local\Temp\ccKV8tJ7.s:22864  .debug_str:000000000000300c .LASF3854
C:\Users\SOLDER~1\AppData\Local\Temp\ccKV8tJ7.s:28412  .debug_str:0000000000019766 .LASF3855
C:\Users\SOLDER~1\AppData\Local\Temp\ccKV8tJ7.s:25560  .debug_str:000000000000de40 .LASF3856
C:\Users\SOLDER~1\AppData\Local\Temp\ccKV8tJ7.s:33334  .debug_str:000000000002d68e .LASF3857
C:\Users\SOLDER~1\AppData\Local\Temp\ccKV8tJ7.s:33032  .debug_str:000000000002c2b3 .LASF3858
C:\Users\SOLDER~1\AppData\Local\Temp\ccKV8tJ7.s:31442  .debug_str:0000000000025a66 .LASF3859
C:\Users\SOLDER~1\AppData\Local\Temp\ccKV8tJ7.s:29672  .debug_str:000000000001e81b .LASF3860
C:\Users\SOLDER~1\AppData\Local\Temp\ccKV8tJ7.s:22318  .debug_str:0000000000000c97 .LASF3861
C:\Users\SOLDER~1\AppData\Local\Temp\ccKV8tJ7.s:32494  .debug_str:0000000000029fa8 .LASF3862
C:\Users\SOLDER~1\AppData\Local\Temp\ccKV8tJ7.s:23026  .debug_str:0000000000003a2d .LASF3863
C:\Users\SOLDER~1\AppData\Local\Temp\ccKV8tJ7.s:33408  .debug_str:000000000002db53 .LASF3864
C:\Users\SOLDER~1\AppData\Local\Temp\ccKV8tJ7.s:25718  .debug_str:000000000000e8da .LASF3865
C:\Users\SOLDER~1\AppData\Local\Temp\ccKV8tJ7.s:24874  .debug_str:000000000000b13e .LASF3866
C:\Users\SOLDER~1\AppData\Local\Temp\ccKV8tJ7.s:26060  .debug_str:000000000000ff35 .LASF3867
C:\Users\SOLDER~1\AppData\Local\Temp\ccKV8tJ7.s:25554  .debug_str:000000000000dde3 .LASF3868
C:\Users\SOLDER~1\AppData\Local\Temp\ccKV8tJ7.s:29208  .debug_str:000000000001c9dc .LASF3869
C:\Users\SOLDER~1\AppData\Local\Temp\ccKV8tJ7.s:25710  .debug_str:000000000000e84e .LASF3870
C:\Users\SOLDER~1\AppData\Local\Temp\ccKV8tJ7.s:25628  .debug_str:000000000000e2f1 .LASF3871
C:\Users\SOLDER~1\AppData\Local\Temp\ccKV8tJ7.s:33512  .debug_str:000000000002e204 .LASF3872
C:\Users\SOLDER~1\AppData\Local\Temp\ccKV8tJ7.s:28250  .debug_str:0000000000018c8b .LASF3873
C:\Users\SOLDER~1\AppData\Local\Temp\ccKV8tJ7.s:33248  .debug_str:000000000002d0d5 .LASF3874
C:\Users\SOLDER~1\AppData\Local\Temp\ccKV8tJ7.s:32326  .debug_str:00000000000294c6 .LASF3875
C:\Users\SOLDER~1\AppData\Local\Temp\ccKV8tJ7.s:24050  .debug_str:0000000000007b3a .LASF3876
C:\Users\SOLDER~1\AppData\Local\Temp\ccKV8tJ7.s:23116  .debug_str:0000000000003f84 .LASF3877
C:\Users\SOLDER~1\AppData\Local\Temp\ccKV8tJ7.s:28376  .debug_str:00000000000194d8 .LASF3878
C:\Users\SOLDER~1\AppData\Local\Temp\ccKV8tJ7.s:25140  .debug_str:000000000000c25e .LASF3879
C:\Users\SOLDER~1\AppData\Local\Temp\ccKV8tJ7.s:25222  .debug_str:000000000000c809 .LASF3880
C:\Users\SOLDER~1\AppData\Local\Temp\ccKV8tJ7.s:31278  .debug_str:0000000000024fe0 .LASF3881
C:\Users\SOLDER~1\AppData\Local\Temp\ccKV8tJ7.s:25968  .debug_str:000000000000f8a4 .LASF3882
C:\Users\SOLDER~1\AppData\Local\Temp\ccKV8tJ7.s:22164  .debug_str:000000000000015d .LASF3883
C:\Users\SOLDER~1\AppData\Local\Temp\ccKV8tJ7.s:32944  .debug_str:000000000002bd2c .LASF3884
C:\Users\SOLDER~1\AppData\Local\Temp\ccKV8tJ7.s:32358  .debug_str:00000000000296cf .LASF3885
C:\Users\SOLDER~1\AppData\Local\Temp\ccKV8tJ7.s:25598  .debug_str:000000000000e0b4 .LASF3886
C:\Users\SOLDER~1\AppData\Local\Temp\ccKV8tJ7.s:30246  .debug_str:0000000000020db2 .LASF3887
C:\Users\SOLDER~1\AppData\Local\Temp\ccKV8tJ7.s:22298  .debug_str:0000000000000b07 .LASF3888
C:\Users\SOLDER~1\AppData\Local\Temp\ccKV8tJ7.s:33598  .debug_str:000000000002e747 .LASF3889
C:\Users\SOLDER~1\AppData\Local\Temp\ccKV8tJ7.s:24864  .debug_str:000000000000b096 .LASF3890
C:\Users\SOLDER~1\AppData\Local\Temp\ccKV8tJ7.s:26136  .debug_str:00000000000103df .LASF3891
C:\Users\SOLDER~1\AppData\Local\Temp\ccKV8tJ7.s:33086  .debug_str:000000000002c686 .LASF3892
C:\Users\SOLDER~1\AppData\Local\Temp\ccKV8tJ7.s:31942  .debug_str:0000000000027bc0 .LASF3893
C:\Users\SOLDER~1\AppData\Local\Temp\ccKV8tJ7.s:29352  .debug_str:000000000001d370 .LASF3894
C:\Users\SOLDER~1\AppData\Local\Temp\ccKV8tJ7.s:28336  .debug_str:0000000000019263 .LASF3895
C:\Users\SOLDER~1\AppData\Local\Temp\ccKV8tJ7.s:30334  .debug_str:0000000000021338 .LASF3896
C:\Users\SOLDER~1\AppData\Local\Temp\ccKV8tJ7.s:24518  .debug_str:00000000000099d8 .LASF3897
GAS LISTING C:\Users\SOLDER~1\AppData\Local\Temp\ccKV8tJ7.s 			page 158


C:\Users\SOLDER~1\AppData\Local\Temp\ccKV8tJ7.s:32070  .debug_str:000000000002841c .LASF3898
C:\Users\SOLDER~1\AppData\Local\Temp\ccKV8tJ7.s:22564  .debug_str:0000000000001c5b .LASF3899
C:\Users\SOLDER~1\AppData\Local\Temp\ccKV8tJ7.s:27934  .debug_str:00000000000177e4 .LASF3900
C:\Users\SOLDER~1\AppData\Local\Temp\ccKV8tJ7.s:32788  .debug_str:000000000002b306 .LASF3901
C:\Users\SOLDER~1\AppData\Local\Temp\ccKV8tJ7.s:33612  .debug_str:000000000002e842 .LASF3902
C:\Users\SOLDER~1\AppData\Local\Temp\ccKV8tJ7.s:25854  .debug_str:000000000000f174 .LASF3903
C:\Users\SOLDER~1\AppData\Local\Temp\ccKV8tJ7.s:27194  .debug_str:00000000000148a4 .LASF3904
C:\Users\SOLDER~1\AppData\Local\Temp\ccKV8tJ7.s:29256  .debug_str:000000000001cd03 .LASF3905
C:\Users\SOLDER~1\AppData\Local\Temp\ccKV8tJ7.s:31210  .debug_str:0000000000024ba4 .LASF3906
C:\Users\SOLDER~1\AppData\Local\Temp\ccKV8tJ7.s:32288  .debug_str:0000000000029242 .LASF3907
C:\Users\SOLDER~1\AppData\Local\Temp\ccKV8tJ7.s:29626  .debug_str:000000000001e544 .LASF3908
C:\Users\SOLDER~1\AppData\Local\Temp\ccKV8tJ7.s:33610  .debug_str:000000000002e81f .LASF3909
C:\Users\SOLDER~1\AppData\Local\Temp\ccKV8tJ7.s:27584  .debug_str:0000000000016183 .LASF3910
C:\Users\SOLDER~1\AppData\Local\Temp\ccKV8tJ7.s:33468  .debug_str:000000000002df38 .LASF3911
C:\Users\SOLDER~1\AppData\Local\Temp\ccKV8tJ7.s:28134  .debug_str:000000000001851f .LASF3912
C:\Users\SOLDER~1\AppData\Local\Temp\ccKV8tJ7.s:32118  .debug_str:0000000000028761 .LASF3913
C:\Users\SOLDER~1\AppData\Local\Temp\ccKV8tJ7.s:23250  .debug_str:00000000000047f6 .LASF3914
C:\Users\SOLDER~1\AppData\Local\Temp\ccKV8tJ7.s:28640  .debug_str:000000000001a558 .LASF3915
C:\Users\SOLDER~1\AppData\Local\Temp\ccKV8tJ7.s:29866  .debug_str:000000000001f517 .LASF3916
C:\Users\SOLDER~1\AppData\Local\Temp\ccKV8tJ7.s:30346  .debug_str:0000000000021405 .LASF3917
C:\Users\SOLDER~1\AppData\Local\Temp\ccKV8tJ7.s:27462  .debug_str:00000000000159c8 .LASF3918
C:\Users\SOLDER~1\AppData\Local\Temp\ccKV8tJ7.s:31634  .debug_str:000000000002678a .LASF3919
C:\Users\SOLDER~1\AppData\Local\Temp\ccKV8tJ7.s:32566  .debug_str:000000000002a482 .LASF3920
C:\Users\SOLDER~1\AppData\Local\Temp\ccKV8tJ7.s:31512  .debug_str:0000000000025f0b .LASF3921
C:\Users\SOLDER~1\AppData\Local\Temp\ccKV8tJ7.s:23920  .debug_str:0000000000007330 .LASF3922
C:\Users\SOLDER~1\AppData\Local\Temp\ccKV8tJ7.s:30436  .debug_str:00000000000219d7 .LASF3923
C:\Users\SOLDER~1\AppData\Local\Temp\ccKV8tJ7.s:26364  .debug_str:000000000001120e .LASF3924
C:\Users\SOLDER~1\AppData\Local\Temp\ccKV8tJ7.s:30278  .debug_str:0000000000020fb5 .LASF3925
C:\Users\SOLDER~1\AppData\Local\Temp\ccKV8tJ7.s:23400  .debug_str:00000000000050ff .LASF3926
C:\Users\SOLDER~1\AppData\Local\Temp\ccKV8tJ7.s:26916  .debug_str:000000000001351e .LASF3927
C:\Users\SOLDER~1\AppData\Local\Temp\ccKV8tJ7.s:24536  .debug_str:0000000000009af0 .LASF3928
C:\Users\SOLDER~1\AppData\Local\Temp\ccKV8tJ7.s:22992  .debug_str:0000000000003812 .LASF3929
C:\Users\SOLDER~1\AppData\Local\Temp\ccKV8tJ7.s:24030  .debug_str:00000000000079e7 .LASF3930
C:\Users\SOLDER~1\AppData\Local\Temp\ccKV8tJ7.s:29880  .debug_str:000000000001f5fe .LASF3931
C:\Users\SOLDER~1\AppData\Local\Temp\ccKV8tJ7.s:29354  .debug_str:000000000001d387 .LASF3932
C:\Users\SOLDER~1\AppData\Local\Temp\ccKV8tJ7.s:32136  .debug_str:000000000002886c .LASF3933
C:\Users\SOLDER~1\AppData\Local\Temp\ccKV8tJ7.s:31694  .debug_str:0000000000026b66 .LASF3934
C:\Users\SOLDER~1\AppData\Local\Temp\ccKV8tJ7.s:24530  .debug_str:0000000000009a93 .LASF3935
C:\Users\SOLDER~1\AppData\Local\Temp\ccKV8tJ7.s:25752  .debug_str:000000000000eb3f .LASF3936
C:\Users\SOLDER~1\AppData\Local\Temp\ccKV8tJ7.s:27538  .debug_str:0000000000015e94 .LASF3937
C:\Users\SOLDER~1\AppData\Local\Temp\ccKV8tJ7.s:23462  .debug_str:00000000000054c6 .LASF3938
C:\Users\SOLDER~1\AppData\Local\Temp\ccKV8tJ7.s:24210  .debug_str:00000000000085a5 .LASF3939
C:\Users\SOLDER~1\AppData\Local\Temp\ccKV8tJ7.s:32638  .debug_str:000000000002a978 .LASF3940
C:\Users\SOLDER~1\AppData\Local\Temp\ccKV8tJ7.s:28084  .debug_str:00000000000181b8 .LASF3941
C:\Users\SOLDER~1\AppData\Local\Temp\ccKV8tJ7.s:33820  .debug_str:000000000002f538 .LASF3942
C:\Users\SOLDER~1\AppData\Local\Temp\ccKV8tJ7.s:30350  .debug_str:000000000002144b .LASF3943
C:\Users\SOLDER~1\AppData\Local\Temp\ccKV8tJ7.s:22752  .debug_str:00000000000028b8 .LASF3944
C:\Users\SOLDER~1\AppData\Local\Temp\ccKV8tJ7.s:29108  .debug_str:000000000001c303 .LASF3945
C:\Users\SOLDER~1\AppData\Local\Temp\ccKV8tJ7.s:24162  .debug_str:00000000000082ab .LASF3946
C:\Users\SOLDER~1\AppData\Local\Temp\ccKV8tJ7.s:30218  .debug_str:0000000000020be9 .LASF3947
C:\Users\SOLDER~1\AppData\Local\Temp\ccKV8tJ7.s:31386  .debug_str:00000000000256cd .LASF3948
C:\Users\SOLDER~1\AppData\Local\Temp\ccKV8tJ7.s:27440  .debug_str:0000000000015867 .LASF3949
C:\Users\SOLDER~1\AppData\Local\Temp\ccKV8tJ7.s:22422  .debug_str:0000000000001338 .LASF3950
C:\Users\SOLDER~1\AppData\Local\Temp\ccKV8tJ7.s:30974  .debug_str:0000000000023c5d .LASF3951
C:\Users\SOLDER~1\AppData\Local\Temp\ccKV8tJ7.s:23122  .debug_str:0000000000003fdd .LASF3952
C:\Users\SOLDER~1\AppData\Local\Temp\ccKV8tJ7.s:26098  .debug_str:00000000000101a7 .LASF3953
C:\Users\SOLDER~1\AppData\Local\Temp\ccKV8tJ7.s:27542  .debug_str:0000000000015ed5 .LASF3954
GAS LISTING C:\Users\SOLDER~1\AppData\Local\Temp\ccKV8tJ7.s 			page 159


C:\Users\SOLDER~1\AppData\Local\Temp\ccKV8tJ7.s:24102  .debug_str:0000000000007ebd .LASF3955
C:\Users\SOLDER~1\AppData\Local\Temp\ccKV8tJ7.s:22468  .debug_str:0000000000001645 .LASF3956
C:\Users\SOLDER~1\AppData\Local\Temp\ccKV8tJ7.s:33822  .debug_str:000000000002f54e .LASF3957
C:\Users\SOLDER~1\AppData\Local\Temp\ccKV8tJ7.s:26660  .debug_str:0000000000012498 .LASF3958
C:\Users\SOLDER~1\AppData\Local\Temp\ccKV8tJ7.s:27896  .debug_str:000000000001755f .LASF3959
C:\Users\SOLDER~1\AppData\Local\Temp\ccKV8tJ7.s:25632  .debug_str:000000000000e336 .LASF3960
C:\Users\SOLDER~1\AppData\Local\Temp\ccKV8tJ7.s:28164  .debug_str:0000000000018703 .LASF3961
C:\Users\SOLDER~1\AppData\Local\Temp\ccKV8tJ7.s:31400  .debug_str:00000000000257c5 .LASF3962
C:\Users\SOLDER~1\AppData\Local\Temp\ccKV8tJ7.s:25630  .debug_str:000000000000e30f .LASF3963
C:\Users\SOLDER~1\AppData\Local\Temp\ccKV8tJ7.s:25764  .debug_str:000000000000ebf5 .LASF3964
C:\Users\SOLDER~1\AppData\Local\Temp\ccKV8tJ7.s:30280  .debug_str:0000000000020fd5 .LASF3965
C:\Users\SOLDER~1\AppData\Local\Temp\ccKV8tJ7.s:30344  .debug_str:00000000000213dd .LASF3966
C:\Users\SOLDER~1\AppData\Local\Temp\ccKV8tJ7.s:29292  .debug_str:000000000001cf94 .LASF3967
C:\Users\SOLDER~1\AppData\Local\Temp\ccKV8tJ7.s:31112  .debug_str:000000000002453b .LASF3968
C:\Users\SOLDER~1\AppData\Local\Temp\ccKV8tJ7.s:28044  .debug_str:0000000000017f05 .LASF3969
C:\Users\SOLDER~1\AppData\Local\Temp\ccKV8tJ7.s:25210  .debug_str:000000000000c73a .LASF3970
C:\Users\SOLDER~1\AppData\Local\Temp\ccKV8tJ7.s:24762  .debug_str:000000000000a9f1 .LASF3971
C:\Users\SOLDER~1\AppData\Local\Temp\ccKV8tJ7.s:23260  .debug_str:00000000000048a3 .LASF3972
C:\Users\SOLDER~1\AppData\Local\Temp\ccKV8tJ7.s:31648  .debug_str:0000000000026879 .LASF3973
C:\Users\SOLDER~1\AppData\Local\Temp\ccKV8tJ7.s:26020  .debug_str:000000000000fc60 .LASF3974
C:\Users\SOLDER~1\AppData\Local\Temp\ccKV8tJ7.s:26222  .debug_str:0000000000010941 .LASF3975
C:\Users\SOLDER~1\AppData\Local\Temp\ccKV8tJ7.s:22278  .debug_str:00000000000009b4 .LASF3976
C:\Users\SOLDER~1\AppData\Local\Temp\ccKV8tJ7.s:23822  .debug_str:0000000000006c84 .LASF3977
C:\Users\SOLDER~1\AppData\Local\Temp\ccKV8tJ7.s:33704  .debug_str:000000000002edf9 .LASF3978
C:\Users\SOLDER~1\AppData\Local\Temp\ccKV8tJ7.s:24696  .debug_str:000000000000a55d .LASF3979
C:\Users\SOLDER~1\AppData\Local\Temp\ccKV8tJ7.s:27810  .debug_str:0000000000016f6e .LASF3980
C:\Users\SOLDER~1\AppData\Local\Temp\ccKV8tJ7.s:31818  .debug_str:0000000000027390 .LASF3981
C:\Users\SOLDER~1\AppData\Local\Temp\ccKV8tJ7.s:28862  .debug_str:000000000001b382 .LASF3982
C:\Users\SOLDER~1\AppData\Local\Temp\ccKV8tJ7.s:32256  .debug_str:000000000002906a .LASF3983
C:\Users\SOLDER~1\AppData\Local\Temp\ccKV8tJ7.s:27978  .debug_str:0000000000017ab2 .LASF3984
C:\Users\SOLDER~1\AppData\Local\Temp\ccKV8tJ7.s:31812  .debug_str:0000000000027325 .LASF3985
C:\Users\SOLDER~1\AppData\Local\Temp\ccKV8tJ7.s:24256  .debug_str:0000000000008886 .LASF3986
C:\Users\SOLDER~1\AppData\Local\Temp\ccKV8tJ7.s:23772  .debug_str:000000000000696b .LASF3987
C:\Users\SOLDER~1\AppData\Local\Temp\ccKV8tJ7.s:29494  .debug_str:000000000001dcd1 .LASF3988
C:\Users\SOLDER~1\AppData\Local\Temp\ccKV8tJ7.s:23948  .debug_str:00000000000074fd .LASF3989
C:\Users\SOLDER~1\AppData\Local\Temp\ccKV8tJ7.s:31674  .debug_str:0000000000026a44 .LASF3990
C:\Users\SOLDER~1\AppData\Local\Temp\ccKV8tJ7.s:23114  .debug_str:0000000000003f67 .LASF3991
C:\Users\SOLDER~1\AppData\Local\Temp\ccKV8tJ7.s:31104  .debug_str:00000000000244b8 .LASF3992
C:\Users\SOLDER~1\AppData\Local\Temp\ccKV8tJ7.s:23112  .debug_str:0000000000003f4b .LASF3993
C:\Users\SOLDER~1\AppData\Local\Temp\ccKV8tJ7.s:24954  .debug_str:000000000000b658 .LASF3994
C:\Users\SOLDER~1\AppData\Local\Temp\ccKV8tJ7.s:25236  .debug_str:000000000000c909 .LASF3995
C:\Users\SOLDER~1\AppData\Local\Temp\ccKV8tJ7.s:31188  .debug_str:0000000000024a07 .LASF3996
C:\Users\SOLDER~1\AppData\Local\Temp\ccKV8tJ7.s:32798  .debug_str:000000000002b3a7 .LASF3997
C:\Users\SOLDER~1\AppData\Local\Temp\ccKV8tJ7.s:24398  .debug_str:0000000000009244 .LASF3998
C:\Users\SOLDER~1\AppData\Local\Temp\ccKV8tJ7.s:26718  .debug_str:000000000001283f .LASF3999
C:\Users\SOLDER~1\AppData\Local\Temp\ccKV8tJ7.s:27206  .debug_str:0000000000014955 .LASF4000
C:\Users\SOLDER~1\AppData\Local\Temp\ccKV8tJ7.s:32028  .debug_str:0000000000028123 .LASF4001
C:\Users\SOLDER~1\AppData\Local\Temp\ccKV8tJ7.s:33622  .debug_str:000000000002e8d9 .LASF4002
C:\Users\SOLDER~1\AppData\Local\Temp\ccKV8tJ7.s:22688  .debug_str:00000000000024a4 .LASF4003
C:\Users\SOLDER~1\AppData\Local\Temp\ccKV8tJ7.s:27678  .debug_str:0000000000016782 .LASF4004
C:\Users\SOLDER~1\AppData\Local\Temp\ccKV8tJ7.s:31120  .debug_str:00000000000245b4 .LASF4005
C:\Users\SOLDER~1\AppData\Local\Temp\ccKV8tJ7.s:32372  .debug_str:00000000000297c4 .LASF4006
C:\Users\SOLDER~1\AppData\Local\Temp\ccKV8tJ7.s:23456  .debug_str:0000000000005477 .LASF4007
C:\Users\SOLDER~1\AppData\Local\Temp\ccKV8tJ7.s:24136  .debug_str:000000000000810f .LASF4008
C:\Users\SOLDER~1\AppData\Local\Temp\ccKV8tJ7.s:22384  .debug_str:00000000000010c8 .LASF4009
C:\Users\SOLDER~1\AppData\Local\Temp\ccKV8tJ7.s:32226  .debug_str:0000000000028e77 .LASF4010
C:\Users\SOLDER~1\AppData\Local\Temp\ccKV8tJ7.s:22350  .debug_str:0000000000000ec3 .LASF4011
GAS LISTING C:\Users\SOLDER~1\AppData\Local\Temp\ccKV8tJ7.s 			page 160


C:\Users\SOLDER~1\AppData\Local\Temp\ccKV8tJ7.s:32714  .debug_str:000000000002ae3d .LASF4012
C:\Users\SOLDER~1\AppData\Local\Temp\ccKV8tJ7.s:32248  .debug_str:0000000000028fdd .LASF4013
C:\Users\SOLDER~1\AppData\Local\Temp\ccKV8tJ7.s:28632  .debug_str:000000000001a4da .LASF4014
C:\Users\SOLDER~1\AppData\Local\Temp\ccKV8tJ7.s:24748  .debug_str:000000000000a901 .LASF4015
C:\Users\SOLDER~1\AppData\Local\Temp\ccKV8tJ7.s:22602  .debug_str:0000000000001ee6 .LASF4016
C:\Users\SOLDER~1\AppData\Local\Temp\ccKV8tJ7.s:33296  .debug_str:000000000002d3da .LASF4017
C:\Users\SOLDER~1\AppData\Local\Temp\ccKV8tJ7.s:29968  .debug_str:000000000001fc03 .LASF4018
C:\Users\SOLDER~1\AppData\Local\Temp\ccKV8tJ7.s:22206  .debug_str:0000000000000438 .LASF4019
C:\Users\SOLDER~1\AppData\Local\Temp\ccKV8tJ7.s:25198  .debug_str:000000000000c683 .LASF4020
C:\Users\SOLDER~1\AppData\Local\Temp\ccKV8tJ7.s:25032  .debug_str:000000000000bb57 .LASF4021
C:\Users\SOLDER~1\AppData\Local\Temp\ccKV8tJ7.s:31162  .debug_str:0000000000024873 .LASF4022
C:\Users\SOLDER~1\AppData\Local\Temp\ccKV8tJ7.s:31526  .debug_str:000000000002601c .LASF4023
C:\Users\SOLDER~1\AppData\Local\Temp\ccKV8tJ7.s:32162  .debug_str:0000000000028a23 .LASF4024
C:\Users\SOLDER~1\AppData\Local\Temp\ccKV8tJ7.s:23150  .debug_str:00000000000041c2 .LASF4025
C:\Users\SOLDER~1\AppData\Local\Temp\ccKV8tJ7.s:29784  .debug_str:000000000001efa6 .LASF4026
C:\Users\SOLDER~1\AppData\Local\Temp\ccKV8tJ7.s:27306  .debug_str:0000000000014ff3 .LASF4027
C:\Users\SOLDER~1\AppData\Local\Temp\ccKV8tJ7.s:33682  .debug_str:000000000002ec9d .LASF4028
C:\Users\SOLDER~1\AppData\Local\Temp\ccKV8tJ7.s:23010  .debug_str:0000000000003930 .LASF4029
C:\Users\SOLDER~1\AppData\Local\Temp\ccKV8tJ7.s:28986  .debug_str:000000000001bb3b .LASF4030
C:\Users\SOLDER~1\AppData\Local\Temp\ccKV8tJ7.s:31698  .debug_str:0000000000026bb3 .LASF4031
C:\Users\SOLDER~1\AppData\Local\Temp\ccKV8tJ7.s:26130  .debug_str:0000000000010381 .LASF4032
C:\Users\SOLDER~1\AppData\Local\Temp\ccKV8tJ7.s:30900  .debug_str:000000000002375b .LASF4033
C:\Users\SOLDER~1\AppData\Local\Temp\ccKV8tJ7.s:25034  .debug_str:000000000000bb74 .LASF4034
C:\Users\SOLDER~1\AppData\Local\Temp\ccKV8tJ7.s:32572  .debug_str:000000000002a4e9 .LASF4035
C:\Users\SOLDER~1\AppData\Local\Temp\ccKV8tJ7.s:24486  .debug_str:00000000000097db .LASF4036
C:\Users\SOLDER~1\AppData\Local\Temp\ccKV8tJ7.s:23322  .debug_str:0000000000004c6d .LASF4037
C:\Users\SOLDER~1\AppData\Local\Temp\ccKV8tJ7.s:28142  .debug_str:00000000000185ab .LASF4038
C:\Users\SOLDER~1\AppData\Local\Temp\ccKV8tJ7.s:24226  .debug_str:00000000000086d6 .LASF4039
C:\Users\SOLDER~1\AppData\Local\Temp\ccKV8tJ7.s:30310  .debug_str:00000000000211b3 .LASF4040
C:\Users\SOLDER~1\AppData\Local\Temp\ccKV8tJ7.s:33428  .debug_str:000000000002dc90 .LASF4041
C:\Users\SOLDER~1\AppData\Local\Temp\ccKV8tJ7.s:25848  .debug_str:000000000000f11f .LASF4042
C:\Users\SOLDER~1\AppData\Local\Temp\ccKV8tJ7.s:33536  .debug_str:000000000002e36b .LASF4043
C:\Users\SOLDER~1\AppData\Local\Temp\ccKV8tJ7.s:30066  .debug_str:0000000000020214 .LASF4044
C:\Users\SOLDER~1\AppData\Local\Temp\ccKV8tJ7.s:23516  .debug_str:0000000000005869 .LASF4045
C:\Users\SOLDER~1\AppData\Local\Temp\ccKV8tJ7.s:29502  .debug_str:000000000001dd13 .LASF4046
C:\Users\SOLDER~1\AppData\Local\Temp\ccKV8tJ7.s:23508  .debug_str:00000000000057dc .LASF4047
C:\Users\SOLDER~1\AppData\Local\Temp\ccKV8tJ7.s:31374  .debug_str:000000000002562a .LASF4048
C:\Users\SOLDER~1\AppData\Local\Temp\ccKV8tJ7.s:26400  .debug_str:000000000001145c .LASF4049
C:\Users\SOLDER~1\AppData\Local\Temp\ccKV8tJ7.s:26972  .debug_str:00000000000138ef .LASF4050
C:\Users\SOLDER~1\AppData\Local\Temp\ccKV8tJ7.s:22820  .debug_str:0000000000002d10 .LASF4051
C:\Users\SOLDER~1\AppData\Local\Temp\ccKV8tJ7.s:27090  .debug_str:0000000000014176 .LASF4052
C:\Users\SOLDER~1\AppData\Local\Temp\ccKV8tJ7.s:26188  .debug_str:0000000000010744 .LASF4053
C:\Users\SOLDER~1\AppData\Local\Temp\ccKV8tJ7.s:26374  .debug_str:00000000000112c7 .LASF4054
C:\Users\SOLDER~1\AppData\Local\Temp\ccKV8tJ7.s:30766  .debug_str:0000000000022ea4 .LASF4055
C:\Users\SOLDER~1\AppData\Local\Temp\ccKV8tJ7.s:26296  .debug_str:0000000000010e05 .LASF4056
C:\Users\SOLDER~1\AppData\Local\Temp\ccKV8tJ7.s:22912  .debug_str:0000000000003302 .LASF4057
C:\Users\SOLDER~1\AppData\Local\Temp\ccKV8tJ7.s:26830  .debug_str:0000000000012f87 .LASF4058
C:\Users\SOLDER~1\AppData\Local\Temp\ccKV8tJ7.s:26744  .debug_str:00000000000129bc .LASF4059
C:\Users\SOLDER~1\AppData\Local\Temp\ccKV8tJ7.s:24390  .debug_str:00000000000091ad .LASF4060
C:\Users\SOLDER~1\AppData\Local\Temp\ccKV8tJ7.s:23602  .debug_str:0000000000005dcf .LASF4061
C:\Users\SOLDER~1\AppData\Local\Temp\ccKV8tJ7.s:30306  .debug_str:0000000000021189 .LASF4062
C:\Users\SOLDER~1\AppData\Local\Temp\ccKV8tJ7.s:27922  .debug_str:0000000000017721 .LASF4063
C:\Users\SOLDER~1\AppData\Local\Temp\ccKV8tJ7.s:30178  .debug_str:0000000000020935 .LASF4064
C:\Users\SOLDER~1\AppData\Local\Temp\ccKV8tJ7.s:30566  .debug_str:0000000000022232 .LASF4065
C:\Users\SOLDER~1\AppData\Local\Temp\ccKV8tJ7.s:30774  .debug_str:0000000000022f35 .LASF4066
C:\Users\SOLDER~1\AppData\Local\Temp\ccKV8tJ7.s:26694  .debug_str:00000000000126db .LASF4067
C:\Users\SOLDER~1\AppData\Local\Temp\ccKV8tJ7.s:30910  .debug_str:000000000002380a .LASF4068
GAS LISTING C:\Users\SOLDER~1\AppData\Local\Temp\ccKV8tJ7.s 			page 161


C:\Users\SOLDER~1\AppData\Local\Temp\ccKV8tJ7.s:23652  .debug_str:0000000000006155 .LASF4069
C:\Users\SOLDER~1\AppData\Local\Temp\ccKV8tJ7.s:31054  .debug_str:0000000000024178 .LASF4070
C:\Users\SOLDER~1\AppData\Local\Temp\ccKV8tJ7.s:28212  .debug_str:0000000000018a27 .LASF4071
C:\Users\SOLDER~1\AppData\Local\Temp\ccKV8tJ7.s:30546  .debug_str:00000000000220ec .LASF4072
C:\Users\SOLDER~1\AppData\Local\Temp\ccKV8tJ7.s:22648  .debug_str:00000000000021ec .LASF4073
C:\Users\SOLDER~1\AppData\Local\Temp\ccKV8tJ7.s:31684  .debug_str:0000000000026ada .LASF4074
C:\Users\SOLDER~1\AppData\Local\Temp\ccKV8tJ7.s:30656  .debug_str:0000000000022764 .LASF4075
C:\Users\SOLDER~1\AppData\Local\Temp\ccKV8tJ7.s:26822  .debug_str:0000000000012efb .LASF4076
C:\Users\SOLDER~1\AppData\Local\Temp\ccKV8tJ7.s:31482  .debug_str:0000000000025cf3 .LASF4077
C:\Users\SOLDER~1\AppData\Local\Temp\ccKV8tJ7.s:23052  .debug_str:0000000000003bd8 .LASF4078
C:\Users\SOLDER~1\AppData\Local\Temp\ccKV8tJ7.s:26006  .debug_str:000000000000fb6b .LASF4079
C:\Users\SOLDER~1\AppData\Local\Temp\ccKV8tJ7.s:24916  .debug_str:000000000000b3d7 .LASF4080
C:\Users\SOLDER~1\AppData\Local\Temp\ccKV8tJ7.s:23316  .debug_str:0000000000004c08 .LASF4081
C:\Users\SOLDER~1\AppData\Local\Temp\ccKV8tJ7.s:32024  .debug_str:00000000000280eb .LASF4082
C:\Users\SOLDER~1\AppData\Local\Temp\ccKV8tJ7.s:24490  .debug_str:0000000000009812 .LASF4083
C:\Users\SOLDER~1\AppData\Local\Temp\ccKV8tJ7.s:33026  .debug_str:000000000002c265 .LASF4084
C:\Users\SOLDER~1\AppData\Local\Temp\ccKV8tJ7.s:30908  .debug_str:00000000000237ed .LASF4085
C:\Users\SOLDER~1\AppData\Local\Temp\ccKV8tJ7.s:32198  .debug_str:0000000000028c64 .LASF4086
C:\Users\SOLDER~1\AppData\Local\Temp\ccKV8tJ7.s:29154  .debug_str:000000000001c658 .LASF4087
C:\Users\SOLDER~1\AppData\Local\Temp\ccKV8tJ7.s:27248  .debug_str:0000000000014c20 .LASF4088
C:\Users\SOLDER~1\AppData\Local\Temp\ccKV8tJ7.s:23134  .debug_str:000000000000409d .LASF4089
C:\Users\SOLDER~1\AppData\Local\Temp\ccKV8tJ7.s:28936  .debug_str:000000000001b826 .LASF4090
C:\Users\SOLDER~1\AppData\Local\Temp\ccKV8tJ7.s:32934  .debug_str:000000000002bc71 .LASF4091
C:\Users\SOLDER~1\AppData\Local\Temp\ccKV8tJ7.s:33788  .debug_str:000000000002f355 .LASF4092
C:\Users\SOLDER~1\AppData\Local\Temp\ccKV8tJ7.s:23918  .debug_str:0000000000007313 .LASF4093
C:\Users\SOLDER~1\AppData\Local\Temp\ccKV8tJ7.s:33238  .debug_str:000000000002d041 .LASF4094
C:\Users\SOLDER~1\AppData\Local\Temp\ccKV8tJ7.s:33500  .debug_str:000000000002e12a .LASF4095
C:\Users\SOLDER~1\AppData\Local\Temp\ccKV8tJ7.s:28130  .debug_str:00000000000184f1 .LASF4096
C:\Users\SOLDER~1\AppData\Local\Temp\ccKV8tJ7.s:22470  .debug_str:0000000000001660 .LASF4097
C:\Users\SOLDER~1\AppData\Local\Temp\ccKV8tJ7.s:23272  .debug_str:000000000000493b .LASF4098
C:\Users\SOLDER~1\AppData\Local\Temp\ccKV8tJ7.s:23100  .debug_str:0000000000003ee2 .LASF4099
C:\Users\SOLDER~1\AppData\Local\Temp\ccKV8tJ7.s:28940  .debug_str:000000000001b860 .LASF4100
C:\Users\SOLDER~1\AppData\Local\Temp\ccKV8tJ7.s:32790  .debug_str:000000000002b327 .LASF4101
C:\Users\SOLDER~1\AppData\Local\Temp\ccKV8tJ7.s:27284  .debug_str:0000000000014e8d .LASF4102
C:\Users\SOLDER~1\AppData\Local\Temp\ccKV8tJ7.s:23268  .debug_str:0000000000004908 .LASF4103
C:\Users\SOLDER~1\AppData\Local\Temp\ccKV8tJ7.s:25516  .debug_str:000000000000db6c .LASF4104
C:\Users\SOLDER~1\AppData\Local\Temp\ccKV8tJ7.s:24690  .debug_str:000000000000a50b .LASF4105
C:\Users\SOLDER~1\AppData\Local\Temp\ccKV8tJ7.s:24610  .debug_str:0000000000009fb7 .LASF4106
C:\Users\SOLDER~1\AppData\Local\Temp\ccKV8tJ7.s:33422  .debug_str:000000000002dc1d .LASF4107
C:\Users\SOLDER~1\AppData\Local\Temp\ccKV8tJ7.s:28266  .debug_str:0000000000018dc0 .LASF4108
C:\Users\SOLDER~1\AppData\Local\Temp\ccKV8tJ7.s:33676  .debug_str:000000000002ec3d .LASF4109
C:\Users\SOLDER~1\AppData\Local\Temp\ccKV8tJ7.s:23108  .debug_str:0000000000003f26 .LASF4110
C:\Users\SOLDER~1\AppData\Local\Temp\ccKV8tJ7.s:30714  .debug_str:0000000000022b3d .LASF4111
C:\Users\SOLDER~1\AppData\Local\Temp\ccKV8tJ7.s:26206  .debug_str:000000000001085a .LASF4112
C:\Users\SOLDER~1\AppData\Local\Temp\ccKV8tJ7.s:28220  .debug_str:0000000000018aa0 .LASF4113
C:\Users\SOLDER~1\AppData\Local\Temp\ccKV8tJ7.s:30452  .debug_str:0000000000021afd .LASF4114
C:\Users\SOLDER~1\AppData\Local\Temp\ccKV8tJ7.s:28458  .debug_str:0000000000019a61 .LASF4115
C:\Users\SOLDER~1\AppData\Local\Temp\ccKV8tJ7.s:25678  .debug_str:000000000000e662 .LASF4116
C:\Users\SOLDER~1\AppData\Local\Temp\ccKV8tJ7.s:33450  .debug_str:000000000002de09 .LASF4117
C:\Users\SOLDER~1\AppData\Local\Temp\ccKV8tJ7.s:24550  .debug_str:0000000000009bb6 .LASF4118
C:\Users\SOLDER~1\AppData\Local\Temp\ccKV8tJ7.s:23842  .debug_str:0000000000006deb .LASF4119
C:\Users\SOLDER~1\AppData\Local\Temp\ccKV8tJ7.s:31946  .debug_str:0000000000027c07 .LASF4120
C:\Users\SOLDER~1\AppData\Local\Temp\ccKV8tJ7.s:26344  .debug_str:00000000000110d2 .LASF4121
C:\Users\SOLDER~1\AppData\Local\Temp\ccKV8tJ7.s:23438  .debug_str:000000000000536d .LASF4122
C:\Users\SOLDER~1\AppData\Local\Temp\ccKV8tJ7.s:23774  .debug_str:0000000000006986 .LASF4123
C:\Users\SOLDER~1\AppData\Local\Temp\ccKV8tJ7.s:27532  .debug_str:0000000000015e2f .LASF4124
C:\Users\SOLDER~1\AppData\Local\Temp\ccKV8tJ7.s:24934  .debug_str:000000000000b50f .LASF4125
GAS LISTING C:\Users\SOLDER~1\AppData\Local\Temp\ccKV8tJ7.s 			page 162


C:\Users\SOLDER~1\AppData\Local\Temp\ccKV8tJ7.s:22580  .debug_str:0000000000001d82 .LASF4126
C:\Users\SOLDER~1\AppData\Local\Temp\ccKV8tJ7.s:27324  .debug_str:000000000001510c .LASF4127
C:\Users\SOLDER~1\AppData\Local\Temp\ccKV8tJ7.s:25080  .debug_str:000000000000be73 .LASF4128
C:\Users\SOLDER~1\AppData\Local\Temp\ccKV8tJ7.s:32564  .debug_str:000000000002a470 .LASF4129
C:\Users\SOLDER~1\AppData\Local\Temp\ccKV8tJ7.s:22748  .debug_str:000000000000287a .LASF4130
C:\Users\SOLDER~1\AppData\Local\Temp\ccKV8tJ7.s:24722  .debug_str:000000000000a75f .LASF4131
C:\Users\SOLDER~1\AppData\Local\Temp\ccKV8tJ7.s:29542  .debug_str:000000000001dfb3 .LASF4132
C:\Users\SOLDER~1\AppData\Local\Temp\ccKV8tJ7.s:25364  .debug_str:000000000000d1b5 .LASF4133
C:\Users\SOLDER~1\AppData\Local\Temp\ccKV8tJ7.s:24928  .debug_str:000000000000b49e .LASF4134
C:\Users\SOLDER~1\AppData\Local\Temp\ccKV8tJ7.s:26140  .debug_str:000000000001041b .LASF4135
C:\Users\SOLDER~1\AppData\Local\Temp\ccKV8tJ7.s:31918  .debug_str:0000000000027a2c .LASF4136
C:\Users\SOLDER~1\AppData\Local\Temp\ccKV8tJ7.s:30940  .debug_str:0000000000023a38 .LASF4137
C:\Users\SOLDER~1\AppData\Local\Temp\ccKV8tJ7.s:33730  .debug_str:000000000002efcb .LASF4138
C:\Users\SOLDER~1\AppData\Local\Temp\ccKV8tJ7.s:27210  .debug_str:000000000001498d .LASF4139
C:\Users\SOLDER~1\AppData\Local\Temp\ccKV8tJ7.s:23978  .debug_str:00000000000076cd .LASF4140
C:\Users\SOLDER~1\AppData\Local\Temp\ccKV8tJ7.s:31008  .debug_str:0000000000023e98 .LASF4141
C:\Users\SOLDER~1\AppData\Local\Temp\ccKV8tJ7.s:24132  .debug_str:00000000000080de .LASF4142
C:\Users\SOLDER~1\AppData\Local\Temp\ccKV8tJ7.s:32598  .debug_str:000000000002a699 .LASF4143
C:\Users\SOLDER~1\AppData\Local\Temp\ccKV8tJ7.s:31158  .debug_str:0000000000024847 .LASF4144
C:\Users\SOLDER~1\AppData\Local\Temp\ccKV8tJ7.s:27364  .debug_str:0000000000015379 .LASF4145
C:\Users\SOLDER~1\AppData\Local\Temp\ccKV8tJ7.s:25664  .debug_str:000000000000e578 .LASF4146
C:\Users\SOLDER~1\AppData\Local\Temp\ccKV8tJ7.s:24752  .debug_str:000000000000a94b .LASF4147
C:\Users\SOLDER~1\AppData\Local\Temp\ccKV8tJ7.s:30942  .debug_str:0000000000023a4b .LASF4148
C:\Users\SOLDER~1\AppData\Local\Temp\ccKV8tJ7.s:22848  .debug_str:0000000000002eef .LASF4149
C:\Users\SOLDER~1\AppData\Local\Temp\ccKV8tJ7.s:30194  .debug_str:0000000000020a60 .LASF4150
C:\Users\SOLDER~1\AppData\Local\Temp\ccKV8tJ7.s:33018  .debug_str:000000000002c1d3 .LASF4151
C:\Users\SOLDER~1\AppData\Local\Temp\ccKV8tJ7.s:30426  .debug_str:000000000002193a .LASF4152
C:\Users\SOLDER~1\AppData\Local\Temp\ccKV8tJ7.s:29088  .debug_str:000000000001c1dc .LASF4153
C:\Users\SOLDER~1\AppData\Local\Temp\ccKV8tJ7.s:23286  .debug_str:0000000000004a02 .LASF4154
C:\Users\SOLDER~1\AppData\Local\Temp\ccKV8tJ7.s:22706  .debug_str:00000000000025d5 .LASF4155
C:\Users\SOLDER~1\AppData\Local\Temp\ccKV8tJ7.s:24806  .debug_str:000000000000aca1 .LASF4156
C:\Users\SOLDER~1\AppData\Local\Temp\ccKV8tJ7.s:28204  .debug_str:00000000000189a8 .LASF4157
C:\Users\SOLDER~1\AppData\Local\Temp\ccKV8tJ7.s:32668  .debug_str:000000000002ab52 .LASF4158
C:\Users\SOLDER~1\AppData\Local\Temp\ccKV8tJ7.s:30658  .debug_str:000000000002277f .LASF4159
C:\Users\SOLDER~1\AppData\Local\Temp\ccKV8tJ7.s:28486  .debug_str:0000000000019c01 .LASF4160
C:\Users\SOLDER~1\AppData\Local\Temp\ccKV8tJ7.s:22744  .debug_str:0000000000002836 .LASF4161
C:\Users\SOLDER~1\AppData\Local\Temp\ccKV8tJ7.s:26658  .debug_str:000000000001247a .LASF4162
C:\Users\SOLDER~1\AppData\Local\Temp\ccKV8tJ7.s:30174  .debug_str:00000000000208f5 .LASF4163
C:\Users\SOLDER~1\AppData\Local\Temp\ccKV8tJ7.s:27696  .debug_str:000000000001688f .LASF4164
C:\Users\SOLDER~1\AppData\Local\Temp\ccKV8tJ7.s:24754  .debug_str:000000000000a96b .LASF4165
C:\Users\SOLDER~1\AppData\Local\Temp\ccKV8tJ7.s:30984  .debug_str:0000000000023d1c .LASF4166
C:\Users\SOLDER~1\AppData\Local\Temp\ccKV8tJ7.s:24636  .debug_str:000000000000a17b .LASF4167
C:\Users\SOLDER~1\AppData\Local\Temp\ccKV8tJ7.s:32076  .debug_str:0000000000028475 .LASF4168
C:\Users\SOLDER~1\AppData\Local\Temp\ccKV8tJ7.s:29820  .debug_str:000000000001f205 .LASF4169
C:\Users\SOLDER~1\AppData\Local\Temp\ccKV8tJ7.s:32984  .debug_str:000000000002bfbc .LASF4170
C:\Users\SOLDER~1\AppData\Local\Temp\ccKV8tJ7.s:29034  .debug_str:000000000001be60 .LASF4171
C:\Users\SOLDER~1\AppData\Local\Temp\ccKV8tJ7.s:32290  .debug_str:0000000000029267 .LASF4172
C:\Users\SOLDER~1\AppData\Local\Temp\ccKV8tJ7.s:33378  .debug_str:000000000002d977 .LASF4173
C:\Users\SOLDER~1\AppData\Local\Temp\ccKV8tJ7.s:23360  .debug_str:0000000000004ea2 .LASF4174
C:\Users\SOLDER~1\AppData\Local\Temp\ccKV8tJ7.s:33626  .debug_str:000000000002e904 .LASF4175
C:\Users\SOLDER~1\AppData\Local\Temp\ccKV8tJ7.s:29960  .debug_str:000000000001fb85 .LASF4176
C:\Users\SOLDER~1\AppData\Local\Temp\ccKV8tJ7.s:31960  .debug_str:0000000000027ced .LASF4177
C:\Users\SOLDER~1\AppData\Local\Temp\ccKV8tJ7.s:31456  .debug_str:0000000000025b56 .LASF4178
C:\Users\SOLDER~1\AppData\Local\Temp\ccKV8tJ7.s:25914  .debug_str:000000000000f518 .LASF4179
C:\Users\SOLDER~1\AppData\Local\Temp\ccKV8tJ7.s:28556  .debug_str:000000000001a039 .LASF4180
C:\Users\SOLDER~1\AppData\Local\Temp\ccKV8tJ7.s:23598  .debug_str:0000000000005d8c .LASF4181
C:\Users\SOLDER~1\AppData\Local\Temp\ccKV8tJ7.s:23210  .debug_str:000000000000453e .LASF4182
GAS LISTING C:\Users\SOLDER~1\AppData\Local\Temp\ccKV8tJ7.s 			page 163


C:\Users\SOLDER~1\AppData\Local\Temp\ccKV8tJ7.s:23874  .debug_str:000000000000703c .LASF4183
C:\Users\SOLDER~1\AppData\Local\Temp\ccKV8tJ7.s:31346  .debug_str:0000000000025472 .LASF4184
C:\Users\SOLDER~1\AppData\Local\Temp\ccKV8tJ7.s:27098  .debug_str:00000000000141de .LASF4185
C:\Users\SOLDER~1\AppData\Local\Temp\ccKV8tJ7.s:33520  .debug_str:000000000002e27e .LASF4186
C:\Users\SOLDER~1\AppData\Local\Temp\ccKV8tJ7.s:30544  .debug_str:00000000000220d0 .LASF4187
C:\Users\SOLDER~1\AppData\Local\Temp\ccKV8tJ7.s:24084  .debug_str:0000000000007d86 .LASF4188
C:\Users\SOLDER~1\AppData\Local\Temp\ccKV8tJ7.s:29742  .debug_str:000000000001ecca .LASF4189
C:\Users\SOLDER~1\AppData\Local\Temp\ccKV8tJ7.s:23984  .debug_str:000000000000772b .LASF4190
C:\Users\SOLDER~1\AppData\Local\Temp\ccKV8tJ7.s:31878  .debug_str:000000000002778a .LASF4191
C:\Users\SOLDER~1\AppData\Local\Temp\ccKV8tJ7.s:32336  .debug_str:000000000002955a .LASF4192
C:\Users\SOLDER~1\AppData\Local\Temp\ccKV8tJ7.s:22630  .debug_str:00000000000020aa .LASF4193
C:\Users\SOLDER~1\AppData\Local\Temp\ccKV8tJ7.s:31418  .debug_str:00000000000258eb .LASF4194
C:\Users\SOLDER~1\AppData\Local\Temp\ccKV8tJ7.s:25260  .debug_str:000000000000caa3 .LASF4195
C:\Users\SOLDER~1\AppData\Local\Temp\ccKV8tJ7.s:29006  .debug_str:000000000001bc5d .LASF4196
C:\Users\SOLDER~1\AppData\Local\Temp\ccKV8tJ7.s:22270  .debug_str:000000000000092d .LASF4197
C:\Users\SOLDER~1\AppData\Local\Temp\ccKV8tJ7.s:27082  .debug_str:00000000000140df .LASF4198
C:\Users\SOLDER~1\AppData\Local\Temp\ccKV8tJ7.s:27064  .debug_str:0000000000013fa5 .LASF4199
C:\Users\SOLDER~1\AppData\Local\Temp\ccKV8tJ7.s:24770  .debug_str:000000000000aa86 .LASF4200
C:\Users\SOLDER~1\AppData\Local\Temp\ccKV8tJ7.s:24572  .debug_str:0000000000009d2f .LASF4201
C:\Users\SOLDER~1\AppData\Local\Temp\ccKV8tJ7.s:24872  .debug_str:000000000000b120 .LASF4202
C:\Users\SOLDER~1\AppData\Local\Temp\ccKV8tJ7.s:26240  .debug_str:0000000000010a8d .LASF4203
C:\Users\SOLDER~1\AppData\Local\Temp\ccKV8tJ7.s:24774  .debug_str:000000000000aac8 .LASF4204
C:\Users\SOLDER~1\AppData\Local\Temp\ccKV8tJ7.s:27042  .debug_str:0000000000013e17 .LASF4205
C:\Users\SOLDER~1\AppData\Local\Temp\ccKV8tJ7.s:28364  .debug_str:0000000000019412 .LASF4206
C:\Users\SOLDER~1\AppData\Local\Temp\ccKV8tJ7.s:23664  .debug_str:0000000000006216 .LASF4207
C:\Users\SOLDER~1\AppData\Local\Temp\ccKV8tJ7.s:26918  .debug_str:000000000001353d .LASF4208
C:\Users\SOLDER~1\AppData\Local\Temp\ccKV8tJ7.s:24220  .debug_str:0000000000008656 .LASF4209
C:\Users\SOLDER~1\AppData\Local\Temp\ccKV8tJ7.s:32446  .debug_str:0000000000029cc1 .LASF4210
C:\Users\SOLDER~1\AppData\Local\Temp\ccKV8tJ7.s:32444  .debug_str:0000000000029ca3 .LASF4211
C:\Users\SOLDER~1\AppData\Local\Temp\ccKV8tJ7.s:22532  .debug_str:0000000000001a36 .LASF4212
C:\Users\SOLDER~1\AppData\Local\Temp\ccKV8tJ7.s:30376  .debug_str:000000000002161a .LASF4213
C:\Users\SOLDER~1\AppData\Local\Temp\ccKV8tJ7.s:31994  .debug_str:0000000000027f0c .LASF4214
C:\Users\SOLDER~1\AppData\Local\Temp\ccKV8tJ7.s:24184  .debug_str:0000000000008417 .LASF4215
C:\Users\SOLDER~1\AppData\Local\Temp\ccKV8tJ7.s:27470  .debug_str:0000000000015a4f .LASF4216
C:\Users\SOLDER~1\AppData\Local\Temp\ccKV8tJ7.s:27906  .debug_str:00000000000175f7 .LASF4217
C:\Users\SOLDER~1\AppData\Local\Temp\ccKV8tJ7.s:22194  .debug_str:0000000000000365 .LASF4218
C:\Users\SOLDER~1\AppData\Local\Temp\ccKV8tJ7.s:27200  .debug_str:00000000000148fe .LASF4219
C:\Users\SOLDER~1\AppData\Local\Temp\ccKV8tJ7.s:32214  .debug_str:0000000000028d96 .LASF4220
C:\Users\SOLDER~1\AppData\Local\Temp\ccKV8tJ7.s:33286  .debug_str:000000000002d347 .LASF4221
C:\Users\SOLDER~1\AppData\Local\Temp\ccKV8tJ7.s:32544  .debug_str:000000000002a2f8 .LASF4222
C:\Users\SOLDER~1\AppData\Local\Temp\ccKV8tJ7.s:29990  .debug_str:000000000001fd53 .LASF4223
C:\Users\SOLDER~1\AppData\Local\Temp\ccKV8tJ7.s:32466  .debug_str:0000000000029df2 .LASF4224
C:\Users\SOLDER~1\AppData\Local\Temp\ccKV8tJ7.s:28228  .debug_str:0000000000018b31 .LASF4225
C:\Users\SOLDER~1\AppData\Local\Temp\ccKV8tJ7.s:26232  .debug_str:00000000000109f6 .LASF4226
C:\Users\SOLDER~1\AppData\Local\Temp\ccKV8tJ7.s:24888  .debug_str:000000000000b1f3 .LASF4227
C:\Users\SOLDER~1\AppData\Local\Temp\ccKV8tJ7.s:24968  .debug_str:000000000000b739 .LASF4228
C:\Users\SOLDER~1\AppData\Local\Temp\ccKV8tJ7.s:27336  .debug_str:00000000000151b7 .LASF4229
C:\Users\SOLDER~1\AppData\Local\Temp\ccKV8tJ7.s:24830  .debug_str:000000000000ae6d .LASF4230
C:\Users\SOLDER~1\AppData\Local\Temp\ccKV8tJ7.s:24146  .debug_str:00000000000081a8 .LASF4231
C:\Users\SOLDER~1\AppData\Local\Temp\ccKV8tJ7.s:28718  .debug_str:000000000001aa63 .LASF4232
C:\Users\SOLDER~1\AppData\Local\Temp\ccKV8tJ7.s:26278  .debug_str:0000000000010cf3 .LASF4233
C:\Users\SOLDER~1\AppData\Local\Temp\ccKV8tJ7.s:32850  .debug_str:000000000002b729 .LASF4234
C:\Users\SOLDER~1\AppData\Local\Temp\ccKV8tJ7.s:24160  .debug_str:0000000000008297 .LASF4235
C:\Users\SOLDER~1\AppData\Local\Temp\ccKV8tJ7.s:26834  .debug_str:0000000000012fac .LASF4236
C:\Users\SOLDER~1\AppData\Local\Temp\ccKV8tJ7.s:23732  .debug_str:0000000000006694 .LASF4237
C:\Users\SOLDER~1\AppData\Local\Temp\ccKV8tJ7.s:22238  .debug_str:000000000000064d .LASF4238
C:\Users\SOLDER~1\AppData\Local\Temp\ccKV8tJ7.s:22904  .debug_str:000000000000328f .LASF4239
GAS LISTING C:\Users\SOLDER~1\AppData\Local\Temp\ccKV8tJ7.s 			page 164


C:\Users\SOLDER~1\AppData\Local\Temp\ccKV8tJ7.s:31150  .debug_str:00000000000247c5 .LASF4240
C:\Users\SOLDER~1\AppData\Local\Temp\ccKV8tJ7.s:22874  .debug_str:00000000000030a2 .LASF4241
C:\Users\SOLDER~1\AppData\Local\Temp\ccKV8tJ7.s:30054  .debug_str:000000000002015b .LASF4242
C:\Users\SOLDER~1\AppData\Local\Temp\ccKV8tJ7.s:25816  .debug_str:000000000000ef08 .LASF4243
C:\Users\SOLDER~1\AppData\Local\Temp\ccKV8tJ7.s:23932  .debug_str:00000000000073f2 .LASF4244
C:\Users\SOLDER~1\AppData\Local\Temp\ccKV8tJ7.s:30326  .debug_str:00000000000212c0 .LASF4245
C:\Users\SOLDER~1\AppData\Local\Temp\ccKV8tJ7.s:22812  .debug_str:0000000000002c81 .LASF4246
C:\Users\SOLDER~1\AppData\Local\Temp\ccKV8tJ7.s:29888  .debug_str:000000000001f689 .LASF4247
C:\Users\SOLDER~1\AppData\Local\Temp\ccKV8tJ7.s:26294  .debug_str:0000000000010de9 .LASF4248
C:\Users\SOLDER~1\AppData\Local\Temp\ccKV8tJ7.s:22670  .debug_str:000000000000235f .LASF4249
C:\Users\SOLDER~1\AppData\Local\Temp\ccKV8tJ7.s:27442  .debug_str:000000000001588a .LASF4250
C:\Users\SOLDER~1\AppData\Local\Temp\ccKV8tJ7.s:30262  .debug_str:0000000000020eb5 .LASF4251
C:\Users\SOLDER~1\AppData\Local\Temp\ccKV8tJ7.s:32768  .debug_str:000000000002b1b6 .LASF4252
C:\Users\SOLDER~1\AppData\Local\Temp\ccKV8tJ7.s:28006  .debug_str:0000000000017c9c .LASF4253
C:\Users\SOLDER~1\AppData\Local\Temp\ccKV8tJ7.s:27520  .debug_str:0000000000015d7a .LASF4254
C:\Users\SOLDER~1\AppData\Local\Temp\ccKV8tJ7.s:25762  .debug_str:000000000000ebd8 .LASF4255
C:\Users\SOLDER~1\AppData\Local\Temp\ccKV8tJ7.s:32470  .debug_str:0000000000029e2e .LASF4256
C:\Users\SOLDER~1\AppData\Local\Temp\ccKV8tJ7.s:23128  .debug_str:0000000000004044 .LASF4257
C:\Users\SOLDER~1\AppData\Local\Temp\ccKV8tJ7.s:30322  .debug_str:0000000000021281 .LASF4258
C:\Users\SOLDER~1\AppData\Local\Temp\ccKV8tJ7.s:23628  .debug_str:0000000000005f84 .LASF4259
C:\Users\SOLDER~1\AppData\Local\Temp\ccKV8tJ7.s:26512  .debug_str:0000000000011bb7 .LASF4260
C:\Users\SOLDER~1\AppData\Local\Temp\ccKV8tJ7.s:28362  .debug_str:00000000000193f4 .LASF4261
C:\Users\SOLDER~1\AppData\Local\Temp\ccKV8tJ7.s:31238  .debug_str:0000000000024d71 .LASF4262
C:\Users\SOLDER~1\AppData\Local\Temp\ccKV8tJ7.s:30488  .debug_str:0000000000021d34 .LASF4263
C:\Users\SOLDER~1\AppData\Local\Temp\ccKV8tJ7.s:31690  .debug_str:0000000000026b24 .LASF4264
C:\Users\SOLDER~1\AppData\Local\Temp\ccKV8tJ7.s:31992  .debug_str:0000000000027ef1 .LASF4265
C:\Users\SOLDER~1\AppData\Local\Temp\ccKV8tJ7.s:32806  .debug_str:000000000002b423 .LASF4266
C:\Users\SOLDER~1\AppData\Local\Temp\ccKV8tJ7.s:32284  .debug_str:0000000000029216 .LASF4267
C:\Users\SOLDER~1\AppData\Local\Temp\ccKV8tJ7.s:29462  .debug_str:000000000001dac0 .LASF4268
C:\Users\SOLDER~1\AppData\Local\Temp\ccKV8tJ7.s:22378  .debug_str:0000000000001068 .LASF4269
C:\Users\SOLDER~1\AppData\Local\Temp\ccKV8tJ7.s:30400  .debug_str:00000000000217a8 .LASF4270
C:\Users\SOLDER~1\AppData\Local\Temp\ccKV8tJ7.s:24134  .debug_str:00000000000080f2 .LASF4271
C:\Users\SOLDER~1\AppData\Local\Temp\ccKV8tJ7.s:23380  .debug_str:0000000000004fd4 .LASF4272
C:\Users\SOLDER~1\AppData\Local\Temp\ccKV8tJ7.s:31874  .debug_str:0000000000027750 .LASF4273
C:\Users\SOLDER~1\AppData\Local\Temp\ccKV8tJ7.s:22246  .debug_str:000000000000075b .LASF4274
C:\Users\SOLDER~1\AppData\Local\Temp\ccKV8tJ7.s:31464  .debug_str:0000000000025bbc .LASF4275
C:\Users\SOLDER~1\AppData\Local\Temp\ccKV8tJ7.s:23176  .debug_str:000000000000434d .LASF4276
C:\Users\SOLDER~1\AppData\Local\Temp\ccKV8tJ7.s:25482  .debug_str:000000000000d94e .LASF4277
C:\Users\SOLDER~1\AppData\Local\Temp\ccKV8tJ7.s:24180  .debug_str:00000000000083d6 .LASF4278
C:\Users\SOLDER~1\AppData\Local\Temp\ccKV8tJ7.s:33056  .debug_str:000000000002c45a .LASF4279
C:\Users\SOLDER~1\AppData\Local\Temp\ccKV8tJ7.s:26338  .debug_str:0000000000011071 .LASF4280
C:\Users\SOLDER~1\AppData\Local\Temp\ccKV8tJ7.s:22204  .debug_str:0000000000000417 .LASF4281
C:\Users\SOLDER~1\AppData\Local\Temp\ccKV8tJ7.s:24466  .debug_str:0000000000009687 .LASF4282
C:\Users\SOLDER~1\AppData\Local\Temp\ccKV8tJ7.s:27202  .debug_str:0000000000014911 .LASF4283
C:\Users\SOLDER~1\AppData\Local\Temp\ccKV8tJ7.s:23928  .debug_str:00000000000073c2 .LASF4284
C:\Users\SOLDER~1\AppData\Local\Temp\ccKV8tJ7.s:25188  .debug_str:000000000000c5b6 .LASF4285
C:\Users\SOLDER~1\AppData\Local\Temp\ccKV8tJ7.s:28194  .debug_str:0000000000018915 .LASF4286
C:\Users\SOLDER~1\AppData\Local\Temp\ccKV8tJ7.s:27112  .debug_str:00000000000142ca .LASF4287
C:\Users\SOLDER~1\AppData\Local\Temp\ccKV8tJ7.s:30588  .debug_str:000000000002238e .LASF4288
C:\Users\SOLDER~1\AppData\Local\Temp\ccKV8tJ7.s:29656  .debug_str:000000000001e720 .LASF4289
C:\Users\SOLDER~1\AppData\Local\Temp\ccKV8tJ7.s:26342  .debug_str:00000000000110b8 .LASF4290
C:\Users\SOLDER~1\AppData\Local\Temp\ccKV8tJ7.s:27406  .debug_str:0000000000015626 .LASF4291
C:\Users\SOLDER~1\AppData\Local\Temp\ccKV8tJ7.s:22434  .debug_str:0000000000001409 .LASF4292
C:\Users\SOLDER~1\AppData\Local\Temp\ccKV8tJ7.s:28496  .debug_str:0000000000019c7b .LASF4293
C:\Users\SOLDER~1\AppData\Local\Temp\ccKV8tJ7.s:29102  .debug_str:000000000001c2ae .LASF4294
C:\Users\SOLDER~1\AppData\Local\Temp\ccKV8tJ7.s:30312  .debug_str:00000000000211c5 .LASF4295
C:\Users\SOLDER~1\AppData\Local\Temp\ccKV8tJ7.s:31858  .debug_str:000000000002763f .LASF4296
GAS LISTING C:\Users\SOLDER~1\AppData\Local\Temp\ccKV8tJ7.s 			page 165


C:\Users\SOLDER~1\AppData\Local\Temp\ccKV8tJ7.s:25784  .debug_str:000000000000ecf5 .LASF4297
C:\Users\SOLDER~1\AppData\Local\Temp\ccKV8tJ7.s:26934  .debug_str:0000000000013656 .LASF4298
C:\Users\SOLDER~1\AppData\Local\Temp\ccKV8tJ7.s:23446  .debug_str:00000000000053e7 .LASF4299
C:\Users\SOLDER~1\AppData\Local\Temp\ccKV8tJ7.s:25558  .debug_str:000000000000de27 .LASF4300
C:\Users\SOLDER~1\AppData\Local\Temp\ccKV8tJ7.s:24268  .debug_str:0000000000008967 .LASF4301
C:\Users\SOLDER~1\AppData\Local\Temp\ccKV8tJ7.s:28114  .debug_str:00000000000183e4 .LASF4302
C:\Users\SOLDER~1\AppData\Local\Temp\ccKV8tJ7.s:33526  .debug_str:000000000002e2d3 .LASF4303
C:\Users\SOLDER~1\AppData\Local\Temp\ccKV8tJ7.s:22650  .debug_str:0000000000002207 .LASF4304
C:\Users\SOLDER~1\AppData\Local\Temp\ccKV8tJ7.s:27516  .debug_str:0000000000015d2a .LASF4305
C:\Users\SOLDER~1\AppData\Local\Temp\ccKV8tJ7.s:31654  .debug_str:00000000000268ed .LASF4306
C:\Users\SOLDER~1\AppData\Local\Temp\ccKV8tJ7.s:31354  .debug_str:00000000000254ea .LASF4307
C:\Users\SOLDER~1\AppData\Local\Temp\ccKV8tJ7.s:29828  .debug_str:000000000001f27f .LASF4308
C:\Users\SOLDER~1\AppData\Local\Temp\ccKV8tJ7.s:33644  .debug_str:000000000002ea27 .LASF4309
C:\Users\SOLDER~1\AppData\Local\Temp\ccKV8tJ7.s:25076  .debug_str:000000000000be3f .LASF4310
C:\Users\SOLDER~1\AppData\Local\Temp\ccKV8tJ7.s:26094  .debug_str:000000000001015f .LASF4311
C:\Users\SOLDER~1\AppData\Local\Temp\ccKV8tJ7.s:23492  .debug_str:0000000000005699 .LASF4312
C:\Users\SOLDER~1\AppData\Local\Temp\ccKV8tJ7.s:28992  .debug_str:000000000001bb82 .LASF4313
C:\Users\SOLDER~1\AppData\Local\Temp\ccKV8tJ7.s:22504  .debug_str:0000000000001890 .LASF4314
C:\Users\SOLDER~1\AppData\Local\Temp\ccKV8tJ7.s:27688  .debug_str:0000000000016817 .LASF4315
C:\Users\SOLDER~1\AppData\Local\Temp\ccKV8tJ7.s:27300  .debug_str:0000000000014f8e .LASF4316
C:\Users\SOLDER~1\AppData\Local\Temp\ccKV8tJ7.s:24046  .debug_str:0000000000007af3 .LASF4317
C:\Users\SOLDER~1\AppData\Local\Temp\ccKV8tJ7.s:27574  .debug_str:00000000000160e2 .LASF4318
C:\Users\SOLDER~1\AppData\Local\Temp\ccKV8tJ7.s:33330  .debug_str:000000000002d63b .LASF4319
C:\Users\SOLDER~1\AppData\Local\Temp\ccKV8tJ7.s:33004  .debug_str:000000000002c0ea .LASF4320
C:\Users\SOLDER~1\AppData\Local\Temp\ccKV8tJ7.s:32072  .debug_str:0000000000028433 .LASF4321
C:\Users\SOLDER~1\AppData\Local\Temp\ccKV8tJ7.s:30548  .debug_str:00000000000220fe .LASF4322
C:\Users\SOLDER~1\AppData\Local\Temp\ccKV8tJ7.s:33216  .debug_str:000000000002cecd .LASF4323
C:\Users\SOLDER~1\AppData\Local\Temp\ccKV8tJ7.s:22594  .debug_str:0000000000001e60 .LASF4324
C:\Users\SOLDER~1\AppData\Local\Temp\ccKV8tJ7.s:33608  .debug_str:000000000002e7fb .LASF4325
C:\Users\SOLDER~1\AppData\Local\Temp\ccKV8tJ7.s:26432  .debug_str:000000000001168d .LASF4326
C:\Users\SOLDER~1\AppData\Local\Temp\ccKV8tJ7.s:24090  .debug_str:0000000000007df4 .LASF4327
C:\Users\SOLDER~1\AppData\Local\Temp\ccKV8tJ7.s:33506  .debug_str:000000000002e195 .LASF4328
C:\Users\SOLDER~1\AppData\Local\Temp\ccKV8tJ7.s:30756  .debug_str:0000000000022de7 .LASF4329
C:\Users\SOLDER~1\AppData\Local\Temp\ccKV8tJ7.s:29958  .debug_str:000000000001fb6a .LASF4330
C:\Users\SOLDER~1\AppData\Local\Temp\ccKV8tJ7.s:29164  .debug_str:000000000001c6e6 .LASF4331
C:\Users\SOLDER~1\AppData\Local\Temp\ccKV8tJ7.s:26880  .debug_str:0000000000013295 .LASF4332
C:\Users\SOLDER~1\AppData\Local\Temp\ccKV8tJ7.s:25406  .debug_str:000000000000d43e .LASF4333
C:\Users\SOLDER~1\AppData\Local\Temp\ccKV8tJ7.s:26676  .debug_str:0000000000012580 .LASF4334
C:\Users\SOLDER~1\AppData\Local\Temp\ccKV8tJ7.s:29278  .debug_str:000000000001ce9b .LASF4335
C:\Users\SOLDER~1\AppData\Local\Temp\ccKV8tJ7.s:28820  .debug_str:000000000001b115 .LASF4336
C:\Users\SOLDER~1\AppData\Local\Temp\ccKV8tJ7.s:23692  .debug_str:00000000000063dc .LASF4337
C:\Users\SOLDER~1\AppData\Local\Temp\ccKV8tJ7.s:29652  .debug_str:000000000001e6e3 .LASF4338
C:\Users\SOLDER~1\AppData\Local\Temp\ccKV8tJ7.s:28506  .debug_str:0000000000019d28 .LASF4339
C:\Users\SOLDER~1\AppData\Local\Temp\ccKV8tJ7.s:29212  .debug_str:000000000001ca28 .LASF4340
C:\Users\SOLDER~1\AppData\Local\Temp\ccKV8tJ7.s:27996  .debug_str:0000000000017bef .LASF4341
C:\Users\SOLDER~1\AppData\Local\Temp\ccKV8tJ7.s:29458  .debug_str:000000000001da80 .LASF4342
C:\Users\SOLDER~1\AppData\Local\Temp\ccKV8tJ7.s:27804  .debug_str:0000000000016f14 .LASF4343
C:\Users\SOLDER~1\AppData\Local\Temp\ccKV8tJ7.s:27898  .debug_str:0000000000017585 .LASF4344
C:\Users\SOLDER~1\AppData\Local\Temp\ccKV8tJ7.s:31252  .debug_str:0000000000024e65 .LASF4345
C:\Users\SOLDER~1\AppData\Local\Temp\ccKV8tJ7.s:26708  .debug_str:00000000000127a3 .LASF4346
C:\Users\SOLDER~1\AppData\Local\Temp\ccKV8tJ7.s:26208  .debug_str:000000000001086a .LASF4347
C:\Users\SOLDER~1\AppData\Local\Temp\ccKV8tJ7.s:31154  .debug_str:0000000000024806 .LASF4348
C:\Users\SOLDER~1\AppData\Local\Temp\ccKV8tJ7.s:32958  .debug_str:000000000002be03 .LASF4349
C:\Users\SOLDER~1\AppData\Local\Temp\ccKV8tJ7.s:30794  .debug_str:0000000000023090 .LASF4350
C:\Users\SOLDER~1\AppData\Local\Temp\ccKV8tJ7.s:25834  .debug_str:000000000000f029 .LASF4351
C:\Users\SOLDER~1\AppData\Local\Temp\ccKV8tJ7.s:27642  .debug_str:000000000001653e .LASF4352
C:\Users\SOLDER~1\AppData\Local\Temp\ccKV8tJ7.s:22840  .debug_str:0000000000002e5f .LASF4353
GAS LISTING C:\Users\SOLDER~1\AppData\Local\Temp\ccKV8tJ7.s 			page 166


C:\Users\SOLDER~1\AppData\Local\Temp\ccKV8tJ7.s:28524  .debug_str:0000000000019e61 .LASF4354
C:\Users\SOLDER~1\AppData\Local\Temp\ccKV8tJ7.s:26878  .debug_str:000000000001326f .LASF4355
C:\Users\SOLDER~1\AppData\Local\Temp\ccKV8tJ7.s:28900  .debug_str:000000000001b5d8 .LASF4356
C:\Users\SOLDER~1\AppData\Local\Temp\ccKV8tJ7.s:30906  .debug_str:00000000000237c8 .LASF4357
C:\Users\SOLDER~1\AppData\Local\Temp\ccKV8tJ7.s:25566  .debug_str:000000000000de9c .LASF4358
C:\Users\SOLDER~1\AppData\Local\Temp\ccKV8tJ7.s:25942  .debug_str:000000000000f6ff .LASF4359
C:\Users\SOLDER~1\AppData\Local\Temp\ccKV8tJ7.s:32922  .debug_str:000000000002bb9e .LASF4360
C:\Users\SOLDER~1\AppData\Local\Temp\ccKV8tJ7.s:22922  .debug_str:000000000000339f .LASF4361
C:\Users\SOLDER~1\AppData\Local\Temp\ccKV8tJ7.s:24456  .debug_str:00000000000095fb .LASF4362
C:\Users\SOLDER~1\AppData\Local\Temp\ccKV8tJ7.s:23200  .debug_str:00000000000044a2 .LASF4363
C:\Users\SOLDER~1\AppData\Local\Temp\ccKV8tJ7.s:25078  .debug_str:000000000000be58 .LASF4364
C:\Users\SOLDER~1\AppData\Local\Temp\ccKV8tJ7.s:25366  .debug_str:000000000000d1c9 .LASF4365
C:\Users\SOLDER~1\AppData\Local\Temp\ccKV8tJ7.s:27932  .debug_str:00000000000177ca .LASF4366
C:\Users\SOLDER~1\AppData\Local\Temp\ccKV8tJ7.s:33666  .debug_str:000000000002eb93 .LASF4367
C:\Users\SOLDER~1\AppData\Local\Temp\ccKV8tJ7.s:25180  .debug_str:000000000000c525 .LASF4368
C:\Users\SOLDER~1\AppData\Local\Temp\ccKV8tJ7.s:30582  .debug_str:0000000000022326 .LASF4369
C:\Users\SOLDER~1\AppData\Local\Temp\ccKV8tJ7.s:31850  .debug_str:00000000000275c8 .LASF4370
C:\Users\SOLDER~1\AppData\Local\Temp\ccKV8tJ7.s:24186  .debug_str:0000000000008429 .LASF4371
C:\Users\SOLDER~1\AppData\Local\Temp\ccKV8tJ7.s:33396  .debug_str:000000000002daaa .LASF4372
C:\Users\SOLDER~1\AppData\Local\Temp\ccKV8tJ7.s:25342  .debug_str:000000000000d02d .LASF4373
C:\Users\SOLDER~1\AppData\Local\Temp\ccKV8tJ7.s:31900  .debug_str:0000000000027907 .LASF4374
C:\Users\SOLDER~1\AppData\Local\Temp\ccKV8tJ7.s:28374  .debug_str:00000000000194b4 .LASF4375
C:\Users\SOLDER~1\AppData\Local\Temp\ccKV8tJ7.s:27240  .debug_str:0000000000014b95 .LASF4376
C:\Users\SOLDER~1\AppData\Local\Temp\ccKV8tJ7.s:28648  .debug_str:000000000001a5c7 .LASF4377
C:\Users\SOLDER~1\AppData\Local\Temp\ccKV8tJ7.s:25414  .debug_str:000000000000d4bf .LASF4378
C:\Users\SOLDER~1\AppData\Local\Temp\ccKV8tJ7.s:29436  .debug_str:000000000001d937 .LASF4379
C:\Users\SOLDER~1\AppData\Local\Temp\ccKV8tJ7.s:31276  .debug_str:0000000000024fc3 .LASF4380
C:\Users\SOLDER~1\AppData\Local\Temp\ccKV8tJ7.s:24338  .debug_str:0000000000008e03 .LASF4381
C:\Users\SOLDER~1\AppData\Local\Temp\ccKV8tJ7.s:24728  .debug_str:000000000000a7c2 .LASF4382
C:\Users\SOLDER~1\AppData\Local\Temp\ccKV8tJ7.s:25304  .debug_str:000000000000cda6 .LASF4383
C:\Users\SOLDER~1\AppData\Local\Temp\ccKV8tJ7.s:32426  .debug_str:0000000000029b6c .LASF4384
C:\Users\SOLDER~1\AppData\Local\Temp\ccKV8tJ7.s:28916  .debug_str:000000000001b6cf .LASF4385
C:\Users\SOLDER~1\AppData\Local\Temp\ccKV8tJ7.s:25484  .debug_str:000000000000d96b .LASF4386
C:\Users\SOLDER~1\AppData\Local\Temp\ccKV8tJ7.s:22300  .debug_str:0000000000000b29 .LASF4387
C:\Users\SOLDER~1\AppData\Local\Temp\ccKV8tJ7.s:24306  .debug_str:0000000000008bb3 .LASF4388
C:\Users\SOLDER~1\AppData\Local\Temp\ccKV8tJ7.s:27134  .debug_str:0000000000014488 .LASF4389
C:\Users\SOLDER~1\AppData\Local\Temp\ccKV8tJ7.s:23220  .debug_str:00000000000045e5 .LASF4390
C:\Users\SOLDER~1\AppData\Local\Temp\ccKV8tJ7.s:23276  .debug_str:0000000000004971 .LASF4391
C:\Users\SOLDER~1\AppData\Local\Temp\ccKV8tJ7.s:33420  .debug_str:000000000002dc07 .LASF4392
C:\Users\SOLDER~1\AppData\Local\Temp\ccKV8tJ7.s:28240  .debug_str:0000000000018beb .LASF4393
C:\Users\SOLDER~1\AppData\Local\Temp\ccKV8tJ7.s:33546  .debug_str:000000000002e40e .LASF4394
C:\Users\SOLDER~1\AppData\Local\Temp\ccKV8tJ7.s:27680  .debug_str:0000000000016793 .LASF4395
C:\Users\SOLDER~1\AppData\Local\Temp\ccKV8tJ7.s:25394  .debug_str:000000000000d36c .LASF4396
C:\Users\SOLDER~1\AppData\Local\Temp\ccKV8tJ7.s:24974  .debug_str:000000000000b789 .LASF4397
C:\Users\SOLDER~1\AppData\Local\Temp\ccKV8tJ7.s:32178  .debug_str:0000000000028b25 .LASF4398
C:\Users\SOLDER~1\AppData\Local\Temp\ccKV8tJ7.s:23396  .debug_str:00000000000050bd .LASF4399
C:\Users\SOLDER~1\AppData\Local\Temp\ccKV8tJ7.s:27046  .debug_str:0000000000013e59 .LASF4400
C:\Users\SOLDER~1\AppData\Local\Temp\ccKV8tJ7.s:28542  .debug_str:0000000000019f7d .LASF4401
C:\Users\SOLDER~1\AppData\Local\Temp\ccKV8tJ7.s:28462  .debug_str:0000000000019a9f .LASF4402
C:\Users\SOLDER~1\AppData\Local\Temp\ccKV8tJ7.s:29346  .debug_str:000000000001d31f .LASF4403
C:\Users\SOLDER~1\AppData\Local\Temp\ccKV8tJ7.s:27102  .debug_str:000000000001421c .LASF4404
C:\Users\SOLDER~1\AppData\Local\Temp\ccKV8tJ7.s:30624  .debug_str:00000000000225b0 .LASF4405
C:\Users\SOLDER~1\AppData\Local\Temp\ccKV8tJ7.s:24310  .debug_str:0000000000008bfd .LASF4406
C:\Users\SOLDER~1\AppData\Local\Temp\ccKV8tJ7.s:26216  .debug_str:00000000000108e3 .LASF4407
C:\Users\SOLDER~1\AppData\Local\Temp\ccKV8tJ7.s:27716  .debug_str:00000000000169a5 .LASF4408
C:\Users\SOLDER~1\AppData\Local\Temp\ccKV8tJ7.s:30480  .debug_str:0000000000021ca3 .LASF4409
C:\Users\SOLDER~1\AppData\Local\Temp\ccKV8tJ7.s:28058  .debug_str:0000000000017ff1 .LASF4410
GAS LISTING C:\Users\SOLDER~1\AppData\Local\Temp\ccKV8tJ7.s 			page 167


C:\Users\SOLDER~1\AppData\Local\Temp\ccKV8tJ7.s:31222  .debug_str:0000000000024c68 .LASF4411
C:\Users\SOLDER~1\AppData\Local\Temp\ccKV8tJ7.s:31050  .debug_str:0000000000024135 .LASF4412
C:\Users\SOLDER~1\AppData\Local\Temp\ccKV8tJ7.s:31588  .debug_str:0000000000026454 .LASF4413
C:\Users\SOLDER~1\AppData\Local\Temp\ccKV8tJ7.s:26210  .debug_str:000000000001088e .LASF4414
C:\Users\SOLDER~1\AppData\Local\Temp\ccKV8tJ7.s:26260  .debug_str:0000000000010be1 .LASF4415
C:\Users\SOLDER~1\AppData\Local\Temp\ccKV8tJ7.s:22728  .debug_str:0000000000002722 .LASF4416
C:\Users\SOLDER~1\AppData\Local\Temp\ccKV8tJ7.s:27840  .debug_str:0000000000017163 .LASF4417
C:\Users\SOLDER~1\AppData\Local\Temp\ccKV8tJ7.s:23096  .debug_str:0000000000003e93 .LASF4418
C:\Users\SOLDER~1\AppData\Local\Temp\ccKV8tJ7.s:22732  .debug_str:0000000000002769 .LASF4419
C:\Users\SOLDER~1\AppData\Local\Temp\ccKV8tJ7.s:24664  .debug_str:000000000000a346 .LASF4420
C:\Users\SOLDER~1\AppData\Local\Temp\ccKV8tJ7.s:29366  .debug_str:000000000001d448 .LASF4421
C:\Users\SOLDER~1\AppData\Local\Temp\ccKV8tJ7.s:28482  .debug_str:0000000000019bb4 .LASF4422
C:\Users\SOLDER~1\AppData\Local\Temp\ccKV8tJ7.s:26586  .debug_str:0000000000011ff6 .LASF4423
C:\Users\SOLDER~1\AppData\Local\Temp\ccKV8tJ7.s:29522  .debug_str:000000000001de60 .LASF4424
C:\Users\SOLDER~1\AppData\Local\Temp\ccKV8tJ7.s:23610  .debug_str:0000000000005e48 .LASF4425
C:\Users\SOLDER~1\AppData\Local\Temp\ccKV8tJ7.s:22516  .debug_str:0000000000001917 .LASF4426
C:\Users\SOLDER~1\AppData\Local\Temp\ccKV8tJ7.s:23754  .debug_str:000000000000684c .LASF4427
C:\Users\SOLDER~1\AppData\Local\Temp\ccKV8tJ7.s:33744  .debug_str:000000000002f0b5 .LASF4428
C:\Users\SOLDER~1\AppData\Local\Temp\ccKV8tJ7.s:28742  .debug_str:000000000001abfb .LASF4429
C:\Users\SOLDER~1\AppData\Local\Temp\ccKV8tJ7.s:33466  .debug_str:000000000002df24 .LASF4430
C:\Users\SOLDER~1\AppData\Local\Temp\ccKV8tJ7.s:32480  .debug_str:0000000000029ecf .LASF4431
C:\Users\SOLDER~1\AppData\Local\Temp\ccKV8tJ7.s:28490  .debug_str:0000000000019c2a .LASF4432
C:\Users\SOLDER~1\AppData\Local\Temp\ccKV8tJ7.s:28752  .debug_str:000000000001ac94 .LASF4433
C:\Users\SOLDER~1\AppData\Local\Temp\ccKV8tJ7.s:26444  .debug_str:000000000001177a .LASF4434
C:\Users\SOLDER~1\AppData\Local\Temp\ccKV8tJ7.s:33274  .debug_str:000000000002d280 .LASF4435
C:\Users\SOLDER~1\AppData\Local\Temp\ccKV8tJ7.s:28456  .debug_str:0000000000019a50 .LASF4436
C:\Users\SOLDER~1\AppData\Local\Temp\ccKV8tJ7.s:32154  .debug_str:00000000000289a3 .LASF4437
C:\Users\SOLDER~1\AppData\Local\Temp\ccKV8tJ7.s:30792  .debug_str:000000000002307c .LASF4438
C:\Users\SOLDER~1\AppData\Local\Temp\ccKV8tJ7.s:25976  .debug_str:000000000000f931 .LASF4439
C:\Users\SOLDER~1\AppData\Local\Temp\ccKV8tJ7.s:31426  .debug_str:000000000002596f .LASF4440
C:\Users\SOLDER~1\AppData\Local\Temp\ccKV8tJ7.s:27786  .debug_str:0000000000016e2d .LASF4441
C:\Users\SOLDER~1\AppData\Local\Temp\ccKV8tJ7.s:32232  .debug_str:0000000000028ee1 .LASF4442
C:\Users\SOLDER~1\AppData\Local\Temp\ccKV8tJ7.s:27690  .debug_str:0000000000016839 .LASF4443
C:\Users\SOLDER~1\AppData\Local\Temp\ccKV8tJ7.s:25090  .debug_str:000000000000bf0e .LASF4444
C:\Users\SOLDER~1\AppData\Local\Temp\ccKV8tJ7.s:27474  .debug_str:0000000000015a94 .LASF4445
C:\Users\SOLDER~1\AppData\Local\Temp\ccKV8tJ7.s:28242  .debug_str:0000000000018c0b .LASF4446
C:\Users\SOLDER~1\AppData\Local\Temp\ccKV8tJ7.s:25282  .debug_str:000000000000cc28 .LASF4447
C:\Users\SOLDER~1\AppData\Local\Temp\ccKV8tJ7.s:29082  .debug_str:000000000001c170 .LASF4448
C:\Users\SOLDER~1\AppData\Local\Temp\ccKV8tJ7.s:30614  .debug_str:0000000000022514 .LASF4449
C:\Users\SOLDER~1\AppData\Local\Temp\ccKV8tJ7.s:32330  .debug_str:000000000002950f .LASF4450
C:\Users\SOLDER~1\AppData\Local\Temp\ccKV8tJ7.s:30354  .debug_str:0000000000021479 .LASF4451
C:\Users\SOLDER~1\AppData\Local\Temp\ccKV8tJ7.s:28846  .debug_str:000000000001b2b3 .LASF4452
C:\Users\SOLDER~1\AppData\Local\Temp\ccKV8tJ7.s:26976  .debug_str:0000000000013924 .LASF4453
C:\Users\SOLDER~1\AppData\Local\Temp\ccKV8tJ7.s:29328  .debug_str:000000000001d20b .LASF4454
C:\Users\SOLDER~1\AppData\Local\Temp\ccKV8tJ7.s:26612  .debug_str:00000000000121aa .LASF4455
C:\Users\SOLDER~1\AppData\Local\Temp\ccKV8tJ7.s:31764  .debug_str:0000000000027044 .LASF4456
C:\Users\SOLDER~1\AppData\Local\Temp\ccKV8tJ7.s:26074  .debug_str:0000000000010026 .LASF4457
C:\Users\SOLDER~1\AppData\Local\Temp\ccKV8tJ7.s:32588  .debug_str:000000000002a5fd .LASF4458
C:\Users\SOLDER~1\AppData\Local\Temp\ccKV8tJ7.s:31460  .debug_str:0000000000025b7f .LASF4459
C:\Users\SOLDER~1\AppData\Local\Temp\ccKV8tJ7.s:32514  .debug_str:000000000002a0ef .LASF4460
C:\Users\SOLDER~1\AppData\Local\Temp\ccKV8tJ7.s:26506  .debug_str:0000000000011b61 .LASF4461
C:\Users\SOLDER~1\AppData\Local\Temp\ccKV8tJ7.s:27848  .debug_str:00000000000171f6 .LASF4462
C:\Users\SOLDER~1\AppData\Local\Temp\ccKV8tJ7.s:28674  .debug_str:000000000001a7a1 .LASF4463
C:\Users\SOLDER~1\AppData\Local\Temp\ccKV8tJ7.s:31038  .debug_str:0000000000024057 .LASF4464
C:\Users\SOLDER~1\AppData\Local\Temp\ccKV8tJ7.s:29052  .debug_str:000000000001bf5c .LASF4465
C:\Users\SOLDER~1\AppData\Local\Temp\ccKV8tJ7.s:28646  .debug_str:000000000001a5b0 .LASF4466
C:\Users\SOLDER~1\AppData\Local\Temp\ccKV8tJ7.s:28344  .debug_str:00000000000192e7 .LASF4467
GAS LISTING C:\Users\SOLDER~1\AppData\Local\Temp\ccKV8tJ7.s 			page 168


C:\Users\SOLDER~1\AppData\Local\Temp\ccKV8tJ7.s:29236  .debug_str:000000000001cbb8 .LASF4468
C:\Users\SOLDER~1\AppData\Local\Temp\ccKV8tJ7.s:27764  .debug_str:0000000000016cc7 .LASF4469
C:\Users\SOLDER~1\AppData\Local\Temp\ccKV8tJ7.s:32234  .debug_str:0000000000028ef2 .LASF4470
C:\Users\SOLDER~1\AppData\Local\Temp\ccKV8tJ7.s:32992  .debug_str:000000000002c029 .LASF4471
C:\Users\SOLDER~1\AppData\Local\Temp\ccKV8tJ7.s:23332  .debug_str:0000000000004cfb .LASF4472
C:\Users\SOLDER~1\AppData\Local\Temp\ccKV8tJ7.s:33394  .debug_str:000000000002da93 .LASF4473
C:\Users\SOLDER~1\AppData\Local\Temp\ccKV8tJ7.s:26144  .debug_str:0000000000010450 .LASF4474
C:\Users\SOLDER~1\AppData\Local\Temp\ccKV8tJ7.s:32674  .debug_str:000000000002aba8 .LASF4475
C:\Users\SOLDER~1\AppData\Local\Temp\ccKV8tJ7.s:27928  .debug_str:000000000001778f .LASF4476
C:\Users\SOLDER~1\AppData\Local\Temp\ccKV8tJ7.s:29532  .debug_str:000000000001df00 .LASF4477
C:\Users\SOLDER~1\AppData\Local\Temp\ccKV8tJ7.s:33344  .debug_str:000000000002d753 .LASF4478
C:\Users\SOLDER~1\AppData\Local\Temp\ccKV8tJ7.s:30568  .debug_str:000000000002224f .LASF4479
C:\Users\SOLDER~1\AppData\Local\Temp\ccKV8tJ7.s:30496  .debug_str:0000000000021da7 .LASF4480
C:\Users\SOLDER~1\AppData\Local\Temp\ccKV8tJ7.s:26466  .debug_str:00000000000118ae .LASF4481
C:\Users\SOLDER~1\AppData\Local\Temp\ccKV8tJ7.s:33564  .debug_str:000000000002e546 .LASF4482
C:\Users\SOLDER~1\AppData\Local\Temp\ccKV8tJ7.s:24684  .debug_str:000000000000a486 .LASF4483
C:\Users\SOLDER~1\AppData\Local\Temp\ccKV8tJ7.s:32574  .debug_str:000000000002a506 .LASF4484
C:\Users\SOLDER~1\AppData\Local\Temp\ccKV8tJ7.s:23814  .debug_str:0000000000006bf6 .LASF4485
C:\Users\SOLDER~1\AppData\Local\Temp\ccKV8tJ7.s:28970  .debug_str:000000000001ba41 .LASF4486
C:\Users\SOLDER~1\AppData\Local\Temp\ccKV8tJ7.s:33336  .debug_str:000000000002d6b1 .LASF4487
C:\Users\SOLDER~1\AppData\Local\Temp\ccKV8tJ7.s:32898  .debug_str:000000000002ba18 .LASF4488
C:\Users\SOLDER~1\AppData\Local\Temp\ccKV8tJ7.s:28860  .debug_str:000000000001b36a .LASF4489
C:\Users\SOLDER~1\AppData\Local\Temp\ccKV8tJ7.s:26966  .debug_str:0000000000013894 .LASF4490
C:\Users\SOLDER~1\AppData\Local\Temp\ccKV8tJ7.s:27554  .debug_str:0000000000015f9a .LASF4491
C:\Users\SOLDER~1\AppData\Local\Temp\ccKV8tJ7.s:26722  .debug_str:000000000001287f .LASF4492
C:\Users\SOLDER~1\AppData\Local\Temp\ccKV8tJ7.s:32750  .debug_str:000000000002b068 .LASF4493
C:\Users\SOLDER~1\AppData\Local\Temp\ccKV8tJ7.s:27860  .debug_str:00000000000172b2 .LASF4494
C:\Users\SOLDER~1\AppData\Local\Temp\ccKV8tJ7.s:31486  .debug_str:0000000000025d38 .LASF4495
C:\Users\SOLDER~1\AppData\Local\Temp\ccKV8tJ7.s:27994  .debug_str:0000000000017bb6 .LASF4496
C:\Users\SOLDER~1\AppData\Local\Temp\ccKV8tJ7.s:30222  .debug_str:0000000000020c21 .LASF4497
C:\Users\SOLDER~1\AppData\Local\Temp\ccKV8tJ7.s:33424  .debug_str:000000000002dc36 .LASF4498
C:\Users\SOLDER~1\AppData\Local\Temp\ccKV8tJ7.s:27250  .debug_str:0000000000014c31 .LASF4499
C:\Users\SOLDER~1\AppData\Local\Temp\ccKV8tJ7.s:28402  .debug_str:000000000001969d .LASF4500
C:\Users\SOLDER~1\AppData\Local\Temp\ccKV8tJ7.s:29608  .debug_str:000000000001e40b .LASF4501
C:\Users\SOLDER~1\AppData\Local\Temp\ccKV8tJ7.s:30720  .debug_str:0000000000022b87 .LASF4502
C:\Users\SOLDER~1\AppData\Local\Temp\ccKV8tJ7.s:29130  .debug_str:000000000001c486 .LASF4503
C:\Users\SOLDER~1\AppData\Local\Temp\ccKV8tJ7.s:31974  .debug_str:0000000000027dba .LASF4504
C:\Users\SOLDER~1\AppData\Local\Temp\ccKV8tJ7.s:30762  .debug_str:0000000000022e4c .LASF4505
C:\Users\SOLDER~1\AppData\Local\Temp\ccKV8tJ7.s:22558  .debug_str:0000000000001be4 .LASF4506
C:\Users\SOLDER~1\AppData\Local\Temp\ccKV8tJ7.s:31516  .debug_str:0000000000025f5d .LASF4507
C:\Users\SOLDER~1\AppData\Local\Temp\ccKV8tJ7.s:23720  .debug_str:00000000000065a2 .LASF4508
C:\Users\SOLDER~1\AppData\Local\Temp\ccKV8tJ7.s:26422  .debug_str:00000000000115c0 .LASF4509
C:\Users\SOLDER~1\AppData\Local\Temp\ccKV8tJ7.s:28934  .debug_str:000000000001b80d .LASF4510
C:\Users\SOLDER~1\AppData\Local\Temp\ccKV8tJ7.s:23090  .debug_str:0000000000003e2b .LASF4511
C:\Users\SOLDER~1\AppData\Local\Temp\ccKV8tJ7.s:30492  .debug_str:0000000000021d70 .LASF4512
C:\Users\SOLDER~1\AppData\Local\Temp\ccKV8tJ7.s:30576  .debug_str:00000000000222c0 .LASF4513
C:\Users\SOLDER~1\AppData\Local\Temp\ccKV8tJ7.s:30068  .debug_str:0000000000020225 .LASF4514
C:\Users\SOLDER~1\AppData\Local\Temp\ccKV8tJ7.s:24546  .debug_str:0000000000009b83 .LASF4515
C:\Users\SOLDER~1\AppData\Local\Temp\ccKV8tJ7.s:27412  .debug_str:0000000000015696 .LASF4516
C:\Users\SOLDER~1\AppData\Local\Temp\ccKV8tJ7.s:29918  .debug_str:000000000001f880 .LASF4517
C:\Users\SOLDER~1\AppData\Local\Temp\ccKV8tJ7.s:33792  .debug_str:000000000002f383 .LASF4518
C:\Users\SOLDER~1\AppData\Local\Temp\ccKV8tJ7.s:29660  .debug_str:000000000001e75b .LASF4519
C:\Users\SOLDER~1\AppData\Local\Temp\ccKV8tJ7.s:22426  .debug_str:000000000000136b .LASF4520
C:\Users\SOLDER~1\AppData\Local\Temp\ccKV8tJ7.s:26180  .debug_str:00000000000106d5 .LASF4521
C:\Users\SOLDER~1\AppData\Local\Temp\ccKV8tJ7.s:25278  .debug_str:000000000000cbec .LASF4522
C:\Users\SOLDER~1\AppData\Local\Temp\ccKV8tJ7.s:31396  .debug_str:0000000000025767 .LASF4523
C:\Users\SOLDER~1\AppData\Local\Temp\ccKV8tJ7.s:25474  .debug_str:000000000000d8cb .LASF4524
GAS LISTING C:\Users\SOLDER~1\AppData\Local\Temp\ccKV8tJ7.s 			page 169


C:\Users\SOLDER~1\AppData\Local\Temp\ccKV8tJ7.s:32968  .debug_str:000000000002be9f .LASF4525
C:\Users\SOLDER~1\AppData\Local\Temp\ccKV8tJ7.s:28326  .debug_str:00000000000191b0 .LASF4526
C:\Users\SOLDER~1\AppData\Local\Temp\ccKV8tJ7.s:27338  .debug_str:00000000000151c9 .LASF4527
C:\Users\SOLDER~1\AppData\Local\Temp\ccKV8tJ7.s:31344  .debug_str:0000000000025458 .LASF4528
C:\Users\SOLDER~1\AppData\Local\Temp\ccKV8tJ7.s:32838  .debug_str:000000000002b617 .LASF4529
C:\Users\SOLDER~1\AppData\Local\Temp\ccKV8tJ7.s:24966  .debug_str:000000000000b71d .LASF4530
C:\Users\SOLDER~1\AppData\Local\Temp\ccKV8tJ7.s:31280  .debug_str:0000000000025006 .LASF4531
C:\Users\SOLDER~1\AppData\Local\Temp\ccKV8tJ7.s:24392  .debug_str:00000000000091be .LASF4532
C:\Users\SOLDER~1\AppData\Local\Temp\ccKV8tJ7.s:29380  .debug_str:000000000001d560 .LASF4533
C:\Users\SOLDER~1\AppData\Local\Temp\ccKV8tJ7.s:31586  .debug_str:000000000002641b .LASF4534
C:\Users\SOLDER~1\AppData\Local\Temp\ccKV8tJ7.s:33054  .debug_str:000000000002c421 .LASF4535
C:\Users\SOLDER~1\AppData\Local\Temp\ccKV8tJ7.s:27668  .debug_str:00000000000166d6 .LASF4536
C:\Users\SOLDER~1\AppData\Local\Temp\ccKV8tJ7.s:23284  .debug_str:00000000000049e8 .LASF4537
C:\Users\SOLDER~1\AppData\Local\Temp\ccKV8tJ7.s:25894  .debug_str:000000000000f3d5 .LASF4538
C:\Users\SOLDER~1\AppData\Local\Temp\ccKV8tJ7.s:26896  .debug_str:00000000000133c5 .LASF4539
C:\Users\SOLDER~1\AppData\Local\Temp\ccKV8tJ7.s:29234  .debug_str:000000000001cb7d .LASF4540
C:\Users\SOLDER~1\AppData\Local\Temp\ccKV8tJ7.s:29202  .debug_str:000000000001c949 .LASF4541
C:\Users\SOLDER~1\AppData\Local\Temp\ccKV8tJ7.s:27114  .debug_str:00000000000142ec .LASF4542
C:\Users\SOLDER~1\AppData\Local\Temp\ccKV8tJ7.s:33108  .debug_str:000000000002c806 .LASF4543
C:\Users\SOLDER~1\AppData\Local\Temp\ccKV8tJ7.s:33080  .debug_str:000000000002c602 .LASF4544
C:\Users\SOLDER~1\AppData\Local\Temp\ccKV8tJ7.s:31284  .debug_str:0000000000025062 .LASF4545
C:\Users\SOLDER~1\AppData\Local\Temp\ccKV8tJ7.s:25624  .debug_str:000000000000e293 .LASF4546
C:\Users\SOLDER~1\AppData\Local\Temp\ccKV8tJ7.s:23724  .debug_str:0000000000006600 .LASF4547
C:\Users\SOLDER~1\AppData\Local\Temp\ccKV8tJ7.s:23784  .debug_str:0000000000006a2b .LASF4548
C:\Users\SOLDER~1\AppData\Local\Temp\ccKV8tJ7.s:26870  .debug_str:00000000000131fb .LASF4549
C:\Users\SOLDER~1\AppData\Local\Temp\ccKV8tJ7.s:28668  .debug_str:000000000001a749 .LASF4550
C:\Users\SOLDER~1\AppData\Local\Temp\ccKV8tJ7.s:29098  .debug_str:000000000001c284 .LASF4551
C:\Users\SOLDER~1\AppData\Local\Temp\ccKV8tJ7.s:31506  .debug_str:0000000000025ebc .LASF4552
C:\Users\SOLDER~1\AppData\Local\Temp\ccKV8tJ7.s:32438  .debug_str:0000000000029c4c .LASF4553
C:\Users\SOLDER~1\AppData\Local\Temp\ccKV8tJ7.s:22156  .debug_str:000000000000010c .LASF4554
C:\Users\SOLDER~1\AppData\Local\Temp\ccKV8tJ7.s:30554  .debug_str:0000000000022155 .LASF4555
C:\Users\SOLDER~1\AppData\Local\Temp\ccKV8tJ7.s:30296  .debug_str:00000000000210e0 .LASF4556
C:\Users\SOLDER~1\AppData\Local\Temp\ccKV8tJ7.s:28168  .debug_str:000000000001874e .LASF4557
C:\Users\SOLDER~1\AppData\Local\Temp\ccKV8tJ7.s:32948  .debug_str:000000000002bd60 .LASF4558
C:\Users\SOLDER~1\AppData\Local\Temp\ccKV8tJ7.s:26118  .debug_str:00000000000102c1 .LASF4559
C:\Users\SOLDER~1\AppData\Local\Temp\ccKV8tJ7.s:26212  .debug_str:00000000000108af .LASF4560
C:\Users\SOLDER~1\AppData\Local\Temp\ccKV8tJ7.s:26316  .debug_str:0000000000010f3b .LASF4561
C:\Users\SOLDER~1\AppData\Local\Temp\ccKV8tJ7.s:26456  .debug_str:0000000000011834 .LASF4562
C:\Users\SOLDER~1\AppData\Local\Temp\ccKV8tJ7.s:26184  .debug_str:0000000000010718 .LASF4563
C:\Users\SOLDER~1\AppData\Local\Temp\ccKV8tJ7.s:24586  .debug_str:0000000000009e23 .LASF4564
C:\Users\SOLDER~1\AppData\Local\Temp\ccKV8tJ7.s:23952  .debug_str:0000000000007536 .LASF4565
C:\Users\SOLDER~1\AppData\Local\Temp\ccKV8tJ7.s:23240  .debug_str:0000000000004743 .LASF4566
C:\Users\SOLDER~1\AppData\Local\Temp\ccKV8tJ7.s:26628  .debug_str:00000000000122a4 .LASF4567
C:\Users\SOLDER~1\AppData\Local\Temp\ccKV8tJ7.s:31928  .debug_str:0000000000027ad3 .LASF4568
C:\Users\SOLDER~1\AppData\Local\Temp\ccKV8tJ7.s:27632  .debug_str:00000000000164ab .LASF4569
C:\Users\SOLDER~1\AppData\Local\Temp\ccKV8tJ7.s:29360  .debug_str:000000000001d3ed .LASF4570
C:\Users\SOLDER~1\AppData\Local\Temp\ccKV8tJ7.s:29552  .debug_str:000000000001e05f .LASF4571
C:\Users\SOLDER~1\AppData\Local\Temp\ccKV8tJ7.s:26348  .debug_str:0000000000011113 .LASF4572
C:\Users\SOLDER~1\AppData\Local\Temp\ccKV8tJ7.s:27954  .debug_str:0000000000017941 .LASF4573
C:\Users\SOLDER~1\AppData\Local\Temp\ccKV8tJ7.s:32952  .debug_str:000000000002bdad .LASF4574
C:\Users\SOLDER~1\AppData\Local\Temp\ccKV8tJ7.s:29544  .debug_str:000000000001dfd1 .LASF4575
C:\Users\SOLDER~1\AppData\Local\Temp\ccKV8tJ7.s:22704  .debug_str:00000000000025c3 .LASF4576
C:\Users\SOLDER~1\AppData\Local\Temp\ccKV8tJ7.s:24784  .debug_str:000000000000ab58 .LASF4577
C:\Users\SOLDER~1\AppData\Local\Temp\ccKV8tJ7.s:24738  .debug_str:000000000000a85e .LASF4578
C:\Users\SOLDER~1\AppData\Local\Temp\ccKV8tJ7.s:29112  .debug_str:000000000001c35f .LASF4579
C:\Users\SOLDER~1\AppData\Local\Temp\ccKV8tJ7.s:26262  .debug_str:0000000000010c01 .LASF4580
C:\Users\SOLDER~1\AppData\Local\Temp\ccKV8tJ7.s:29024  .debug_str:000000000001bdb1 .LASF4581
GAS LISTING C:\Users\SOLDER~1\AppData\Local\Temp\ccKV8tJ7.s 			page 170


C:\Users\SOLDER~1\AppData\Local\Temp\ccKV8tJ7.s:31984  .debug_str:0000000000027e65 .LASF4582
C:\Users\SOLDER~1\AppData\Local\Temp\ccKV8tJ7.s:25116  .debug_str:000000000000c0b2 .LASF4583
C:\Users\SOLDER~1\AppData\Local\Temp\ccKV8tJ7.s:23974  .debug_str:0000000000007692 .LASF4584
C:\Users\SOLDER~1\AppData\Local\Temp\ccKV8tJ7.s:28026  .debug_str:0000000000017dcf .LASF4585
C:\Users\SOLDER~1\AppData\Local\Temp\ccKV8tJ7.s:28958  .debug_str:000000000001b993 .LASF4586
C:\Users\SOLDER~1\AppData\Local\Temp\ccKV8tJ7.s:23500  .debug_str:0000000000005736 .LASF4587
C:\Users\SOLDER~1\AppData\Local\Temp\ccKV8tJ7.s:24070  .debug_str:0000000000007cac .LASF4588
C:\Users\SOLDER~1\AppData\Local\Temp\ccKV8tJ7.s:24278  .debug_str:00000000000089f7 .LASF4589
C:\Users\SOLDER~1\AppData\Local\Temp\ccKV8tJ7.s:29692  .debug_str:000000000001e952 .LASF4590
C:\Users\SOLDER~1\AppData\Local\Temp\ccKV8tJ7.s:33254  .debug_str:000000000002d12d .LASF4591
C:\Users\SOLDER~1\AppData\Local\Temp\ccKV8tJ7.s:23992  .debug_str:0000000000007788 .LASF4594
C:\Users\SOLDER~1\AppData\Local\Temp\ccKV8tJ7.s:28712  .debug_str:000000000001a9f5 .LASF4595
C:\Users\SOLDER~1\AppData\Local\Temp\ccKV8tJ7.s:26990  .debug_str:0000000000013a4a .LASF4596
C:\Users\SOLDER~1\AppData\Local\Temp\ccKV8tJ7.s:23752  .debug_str:0000000000006815 .LASF4597
C:\Users\SOLDER~1\AppData\Local\Temp\ccKV8tJ7.s:30504  .debug_str:0000000000021e2d .LASF4598
C:\Users\SOLDER~1\AppData\Local\Temp\ccKV8tJ7.s:27398  .debug_str:0000000000015594 .LASF4599
C:\Users\SOLDER~1\AppData\Local\Temp\ccKV8tJ7.s:32860  .debug_str:000000000002b7dd .LASF4600
C:\Users\SOLDER~1\AppData\Local\Temp\ccKV8tJ7.s:27746  .debug_str:0000000000016b92 .LASF4601
C:\Users\SOLDER~1\AppData\Local\Temp\ccKV8tJ7.s:25316  .debug_str:000000000000ce61 .LASF4602
C:\Users\SOLDER~1\AppData\Local\Temp\ccKV8tJ7.s:27116  .debug_str:0000000000014326 .LASF4603
C:\Users\SOLDER~1\AppData\Local\Temp\ccKV8tJ7.s:25980  .debug_str:000000000000f967 .LASF4604
C:\Users\SOLDER~1\AppData\Local\Temp\ccKV8tJ7.s:32582  .debug_str:000000000002a579 .LASF4605
C:\Users\SOLDER~1\AppData\Local\Temp\ccKV8tJ7.s:33700  .debug_str:000000000002eda1 .LASF4606
C:\Users\SOLDER~1\AppData\Local\Temp\ccKV8tJ7.s:31048  .debug_str:0000000000024101 .LASF4607
C:\Users\SOLDER~1\AppData\Local\Temp\ccKV8tJ7.s:24674  .debug_str:000000000000a3e0 .LASF4608
C:\Users\SOLDER~1\AppData\Local\Temp\ccKV8tJ7.s:26882  .debug_str:00000000000132ad .LASF4609
C:\Users\SOLDER~1\AppData\Local\Temp\ccKV8tJ7.s:31032  .debug_str:0000000000023fda .LASF4610
C:\Users\SOLDER~1\AppData\Local\Temp\ccKV8tJ7.s:23846  .debug_str:0000000000006e23 .LASF4611
C:\Users\SOLDER~1\AppData\Local\Temp\ccKV8tJ7.s:29942  .debug_str:000000000001fa50 .LASF4612
C:\Users\SOLDER~1\AppData\Local\Temp\ccKV8tJ7.s:23076  .debug_str:0000000000003d38 .LASF4613
C:\Users\SOLDER~1\AppData\Local\Temp\ccKV8tJ7.s:31696  .debug_str:0000000000026b80 .LASF4614
C:\Users\SOLDER~1\AppData\Local\Temp\ccKV8tJ7.s:24266  .debug_str:0000000000008933 .LASF4615
C:\Users\SOLDER~1\AppData\Local\Temp\ccKV8tJ7.s:31752  .debug_str:0000000000026f4e .LASF4616
C:\Users\SOLDER~1\AppData\Local\Temp\ccKV8tJ7.s:23854  .debug_str:0000000000006ecf .LASF4617
C:\Users\SOLDER~1\AppData\Local\Temp\ccKV8tJ7.s:22816  .debug_str:0000000000002cbe .LASF4618
C:\Users\SOLDER~1\AppData\Local\Temp\ccKV8tJ7.s:24900  .debug_str:000000000000b2c3 .LASF4619
C:\Users\SOLDER~1\AppData\Local\Temp\ccKV8tJ7.s:25024  .debug_str:000000000000bac3 .LASF4620
C:\Users\SOLDER~1\AppData\Local\Temp\ccKV8tJ7.s:23950  .debug_str:0000000000007518 .LASF4621
C:\Users\SOLDER~1\AppData\Local\Temp\ccKV8tJ7.s:27178  .debug_str:0000000000014790 .LASF4622
C:\Users\SOLDER~1\AppData\Local\Temp\ccKV8tJ7.s:28112  .debug_str:00000000000183c6 .LASF4623
C:\Users\SOLDER~1\AppData\Local\Temp\ccKV8tJ7.s:26114  .debug_str:0000000000010291 .LASF4624
C:\Users\SOLDER~1\AppData\Local\Temp\ccKV8tJ7.s:32740  .debug_str:000000000002afc0 .LASF4625
C:\Users\SOLDER~1\AppData\Local\Temp\ccKV8tJ7.s:27782  .debug_str:0000000000016deb .LASF4626
C:\Users\SOLDER~1\AppData\Local\Temp\ccKV8tJ7.s:29788  .debug_str:000000000001efe7 .LASF4627
C:\Users\SOLDER~1\AppData\Local\Temp\ccKV8tJ7.s:27092  .debug_str:0000000000014189 .LASF4628
C:\Users\SOLDER~1\AppData\Local\Temp\ccKV8tJ7.s:24458  .debug_str:0000000000009615 .LASF4629
C:\Users\SOLDER~1\AppData\Local\Temp\ccKV8tJ7.s:29676  .debug_str:000000000001e847 .LASF4630
C:\Users\SOLDER~1\AppData\Local\Temp\ccKV8tJ7.s:30674  .debug_str:0000000000022872 .LASF4631
C:\Users\SOLDER~1\AppData\Local\Temp\ccKV8tJ7.s:29488  .debug_str:000000000001dc61 .LASF4632
C:\Users\SOLDER~1\AppData\Local\Temp\ccKV8tJ7.s:33376  .debug_str:000000000002d958 .LASF4633
C:\Users\SOLDER~1\AppData\Local\Temp\ccKV8tJ7.s:30642  .debug_str:00000000000226b5 .LASF4634
C:\Users\SOLDER~1\AppData\Local\Temp\ccKV8tJ7.s:22160  .debug_str:0000000000000130 .LASF4635
C:\Users\SOLDER~1\AppData\Local\Temp\ccKV8tJ7.s:27890  .debug_str:00000000000174f9 .LASF4636
C:\Users\SOLDER~1\AppData\Local\Temp\ccKV8tJ7.s:26960  .debug_str:0000000000013825 .LASF4637
C:\Users\SOLDER~1\AppData\Local\Temp\ccKV8tJ7.s:26936  .debug_str:000000000001366f .LASF4638
C:\Users\SOLDER~1\AppData\Local\Temp\ccKV8tJ7.s:26938  .debug_str:00000000000136a0 .LASF4639
C:\Users\SOLDER~1\AppData\Local\Temp\ccKV8tJ7.s:32578  .debug_str:000000000002a534 .LASF4640
GAS LISTING C:\Users\SOLDER~1\AppData\Local\Temp\ccKV8tJ7.s 			page 171


C:\Users\SOLDER~1\AppData\Local\Temp\ccKV8tJ7.s:25224  .debug_str:000000000000c82d .LASF4641
C:\Users\SOLDER~1\AppData\Local\Temp\ccKV8tJ7.s:33814  .debug_str:000000000002f4e1 .LASF4642
C:\Users\SOLDER~1\AppData\Local\Temp\ccKV8tJ7.s:30630  .debug_str:0000000000022603 .LASF4643
C:\Users\SOLDER~1\AppData\Local\Temp\ccKV8tJ7.s:25452  .debug_str:000000000000d743 .LASF4644
C:\Users\SOLDER~1\AppData\Local\Temp\ccKV8tJ7.s:29594  .debug_str:000000000001e34e .LASF4645
C:\Users\SOLDER~1\AppData\Local\Temp\ccKV8tJ7.s:25486  .debug_str:000000000000d98e .LASF4646
C:\Users\SOLDER~1\AppData\Local\Temp\ccKV8tJ7.s:29030  .debug_str:000000000001be0b .LASF4647
C:\Users\SOLDER~1\AppData\Local\Temp\ccKV8tJ7.s:26072  .debug_str:000000000000fffd .LASF4648
C:\Users\SOLDER~1\AppData\Local\Temp\ccKV8tJ7.s:25320  .debug_str:000000000000ceb5 .LASF4649
C:\Users\SOLDER~1\AppData\Local\Temp\ccKV8tJ7.s:22590  .debug_str:0000000000001e17 .LASF4650
C:\Users\SOLDER~1\AppData\Local\Temp\ccKV8tJ7.s:25352  .debug_str:000000000000d0af .LASF4651
C:\Users\SOLDER~1\AppData\Local\Temp\ccKV8tJ7.s:28652  .debug_str:000000000001a60f .LASF4652
C:\Users\SOLDER~1\AppData\Local\Temp\ccKV8tJ7.s:30916  .debug_str:0000000000023865 .LASF4653
C:\Users\SOLDER~1\AppData\Local\Temp\ccKV8tJ7.s:27008  .debug_str:0000000000013ba3 .LASF4654
C:\Users\SOLDER~1\AppData\Local\Temp\ccKV8tJ7.s:24168  .debug_str:000000000000830d .LASF4655
C:\Users\SOLDER~1\AppData\Local\Temp\ccKV8tJ7.s:29110  .debug_str:000000000001c327 .LASF4656
C:\Users\SOLDER~1\AppData\Local\Temp\ccKV8tJ7.s:26040  .debug_str:000000000000fdc0 .LASF4657
C:\Users\SOLDER~1\AppData\Local\Temp\ccKV8tJ7.s:24568  .debug_str:0000000000009cc8 .LASF4658
C:\Users\SOLDER~1\AppData\Local\Temp\ccKV8tJ7.s:25296  .debug_str:000000000000cd0a .LASF4659
C:\Users\SOLDER~1\AppData\Local\Temp\ccKV8tJ7.s:32538  .debug_str:000000000002a27b .LASF4660
C:\Users\SOLDER~1\AppData\Local\Temp\ccKV8tJ7.s:29270  .debug_str:000000000001cdf2 .LASF4661
C:\Users\SOLDER~1\AppData\Local\Temp\ccKV8tJ7.s:28572  .debug_str:000000000001a11e .LASF4662
C:\Users\SOLDER~1\AppData\Local\Temp\ccKV8tJ7.s:22148  .debug_str:000000000000006c .LASF4663
C:\Users\SOLDER~1\AppData\Local\Temp\ccKV8tJ7.s:26548  .debug_str:0000000000011db8 .LASF4664
C:\Users\SOLDER~1\AppData\Local\Temp\ccKV8tJ7.s:28434  .debug_str:00000000000198dd .LASF4665
C:\Users\SOLDER~1\AppData\Local\Temp\ccKV8tJ7.s:33094  .debug_str:000000000002c71d .LASF4666
C:\Users\SOLDER~1\AppData\Local\Temp\ccKV8tJ7.s:22440  .debug_str:0000000000001463 .LASF4667
C:\Users\SOLDER~1\AppData\Local\Temp\ccKV8tJ7.s:22232  .debug_str:00000000000005de .LASF4668
C:\Users\SOLDER~1\AppData\Local\Temp\ccKV8tJ7.s:23742  .debug_str:0000000000006756 .LASF4669
C:\Users\SOLDER~1\AppData\Local\Temp\ccKV8tJ7.s:25634  .debug_str:000000000000e35e .LASF4670
C:\Users\SOLDER~1\AppData\Local\Temp\ccKV8tJ7.s:22572  .debug_str:0000000000001ce2 .LASF4671
C:\Users\SOLDER~1\AppData\Local\Temp\ccKV8tJ7.s:22476  .debug_str:00000000000016b4 .LASF4672
C:\Users\SOLDER~1\AppData\Local\Temp\ccKV8tJ7.s:29940  .debug_str:000000000001fa0f .LASF4673
C:\Users\SOLDER~1\AppData\Local\Temp\ccKV8tJ7.s:27170  .debug_str:00000000000146ef .LASF4674
C:\Users\SOLDER~1\AppData\Local\Temp\ccKV8tJ7.s:23242  .debug_str:0000000000004756 .LASF4675
C:\Users\SOLDER~1\AppData\Local\Temp\ccKV8tJ7.s:26690  .debug_str:0000000000012685 .LASF4676
C:\Users\SOLDER~1\AppData\Local\Temp\ccKV8tJ7.s:26018  .debug_str:000000000000fc31 .LASF4677
C:\Users\SOLDER~1\AppData\Local\Temp\ccKV8tJ7.s:24118  .debug_str:0000000000007fd0 .LASF4678
C:\Users\SOLDER~1\AppData\Local\Temp\ccKV8tJ7.s:31232  .debug_str:0000000000024d0f .LASF4679
C:\Users\SOLDER~1\AppData\Local\Temp\ccKV8tJ7.s:26902  .debug_str:000000000001343e .LASF4680
C:\Users\SOLDER~1\AppData\Local\Temp\ccKV8tJ7.s:22830  .debug_str:0000000000002dbd .LASF4681
C:\Users\SOLDER~1\AppData\Local\Temp\ccKV8tJ7.s:23748  .debug_str:00000000000067e2 .LASF4682
C:\Users\SOLDER~1\AppData\Local\Temp\ccKV8tJ7.s:22538  .debug_str:0000000000001a9a .LASF4683
C:\Users\SOLDER~1\AppData\Local\Temp\ccKV8tJ7.s:25190  .debug_str:000000000000c5d8 .LASF4684
C:\Users\SOLDER~1\AppData\Local\Temp\ccKV8tJ7.s:32534  .debug_str:000000000002a23d .LASF4685
C:\Users\SOLDER~1\AppData\Local\Temp\ccKV8tJ7.s:32004  .debug_str:0000000000027fa0 .LASF4686
C:\Users\SOLDER~1\AppData\Local\Temp\ccKV8tJ7.s:29428  .debug_str:000000000001d8ad .LASF4687
C:\Users\SOLDER~1\AppData\Local\Temp\ccKV8tJ7.s:32068  .debug_str:00000000000283f2 .LASF4688
C:\Users\SOLDER~1\AppData\Local\Temp\ccKV8tJ7.s:30030  .debug_str:000000000001ffb7 .LASF4689
C:\Users\SOLDER~1\AppData\Local\Temp\ccKV8tJ7.s:31514  .debug_str:0000000000025f2b .LASF4690
C:\Users\SOLDER~1\AppData\Local\Temp\ccKV8tJ7.s:22414  .debug_str:00000000000012ac .LASF4691
C:\Users\SOLDER~1\AppData\Local\Temp\ccKV8tJ7.s:29876  .debug_str:000000000001f5b7 .LASF4692
C:\Users\SOLDER~1\AppData\Local\Temp\ccKV8tJ7.s:30752  .debug_str:0000000000022da6 .LASF4693
C:\Users\SOLDER~1\AppData\Local\Temp\ccKV8tJ7.s:32332  .debug_str:0000000000029526 .LASF4694
C:\Users\SOLDER~1\AppData\Local\Temp\ccKV8tJ7.s:29470  .debug_str:000000000001db32 .LASF4695
C:\Users\SOLDER~1\AppData\Local\Temp\ccKV8tJ7.s:22512  .debug_str:00000000000018e8 .LASF4696
C:\Users\SOLDER~1\AppData\Local\Temp\ccKV8tJ7.s:27252  .debug_str:0000000000014c68 .LASF4697
GAS LISTING C:\Users\SOLDER~1\AppData\Local\Temp\ccKV8tJ7.s 			page 172


C:\Users\SOLDER~1\AppData\Local\Temp\ccKV8tJ7.s:24022  .debug_str:000000000000798d .LASF4698
C:\Users\SOLDER~1\AppData\Local\Temp\ccKV8tJ7.s:32828  .debug_str:000000000002b56c .LASF4699
C:\Users\SOLDER~1\AppData\Local\Temp\ccKV8tJ7.s:29290  .debug_str:000000000001cf79 .LASF4700
C:\Users\SOLDER~1\AppData\Local\Temp\ccKV8tJ7.s:24510  .debug_str:0000000000009964 .LASF4701
C:\Users\SOLDER~1\AppData\Local\Temp\ccKV8tJ7.s:33474  .debug_str:000000000002dfa9 .LASF4702
C:\Users\SOLDER~1\AppData\Local\Temp\ccKV8tJ7.s:22776  .debug_str:0000000000002a74 .LASF4703
C:\Users\SOLDER~1\AppData\Local\Temp\ccKV8tJ7.s:31236  .debug_str:0000000000024d55 .LASF4704
C:\Users\SOLDER~1\AppData\Local\Temp\ccKV8tJ7.s:28076  .debug_str:0000000000018136 .LASF4705
C:\Users\SOLDER~1\AppData\Local\Temp\ccKV8tJ7.s:32134  .debug_str:0000000000028850 .LASF4706
C:\Users\SOLDER~1\AppData\Local\Temp\ccKV8tJ7.s:26468  .debug_str:00000000000118c7 .LASF4707
C:\Users\SOLDER~1\AppData\Local\Temp\ccKV8tJ7.s:24970  .debug_str:000000000000b756 .LASF4708
C:\Users\SOLDER~1\AppData\Local\Temp\ccKV8tJ7.s:28150  .debug_str:0000000000018627 .LASF4709
C:\Users\SOLDER~1\AppData\Local\Temp\ccKV8tJ7.s:29174  .debug_str:000000000001c78b .LASF4710
C:\Users\SOLDER~1\AppData\Local\Temp\ccKV8tJ7.s:30162  .debug_str:0000000000020834 .LASF4711
C:\Users\SOLDER~1\AppData\Local\Temp\ccKV8tJ7.s:28012  .debug_str:0000000000017cf6 .LASF4712
C:\Users\SOLDER~1\AppData\Local\Temp\ccKV8tJ7.s:28812  .debug_str:000000000001b088 .LASF4713
C:\Users\SOLDER~1\AppData\Local\Temp\ccKV8tJ7.s:26202  .debug_str:0000000000010824 .LASF4714
C:\Users\SOLDER~1\AppData\Local\Temp\ccKV8tJ7.s:33722  .debug_str:000000000002ef45 .LASF4715
C:\Users\SOLDER~1\AppData\Local\Temp\ccKV8tJ7.s:32796  .debug_str:000000000002b38b .LASF4716
C:\Users\SOLDER~1\AppData\Local\Temp\ccKV8tJ7.s:31884  .debug_str:00000000000277ee .LASF4717
C:\Users\SOLDER~1\AppData\Local\Temp\ccKV8tJ7.s:32320  .debug_str:0000000000029463 .LASF4718
C:\Users\SOLDER~1\AppData\Local\Temp\ccKV8tJ7.s:22882  .debug_str:000000000000311f .LASF4719
C:\Users\SOLDER~1\AppData\Local\Temp\ccKV8tJ7.s:26594  .debug_str:0000000000012087 .LASF4720
C:\Users\SOLDER~1\AppData\Local\Temp\ccKV8tJ7.s:28358  .debug_str:00000000000193b7 .LASF4721
C:\Users\SOLDER~1\AppData\Local\Temp\ccKV8tJ7.s:22328  .debug_str:0000000000000d4d .LASF4722
C:\Users\SOLDER~1\AppData\Local\Temp\ccKV8tJ7.s:29822  .debug_str:000000000001f222 .LASF4723
C:\Users\SOLDER~1\AppData\Local\Temp\ccKV8tJ7.s:24438  .debug_str:00000000000094e8 .LASF4724
C:\Users\SOLDER~1\AppData\Local\Temp\ccKV8tJ7.s:29868  .debug_str:000000000001f532 .LASF4725
C:\Users\SOLDER~1\AppData\Local\Temp\ccKV8tJ7.s:28452  .debug_str:0000000000019a20 .LASF4726
C:\Users\SOLDER~1\AppData\Local\Temp\ccKV8tJ7.s:32138  .debug_str:000000000002888a .LASF4727
C:\Users\SOLDER~1\AppData\Local\Temp\ccKV8tJ7.s:24512  .debug_str:000000000000997f .LASF4728
C:\Users\SOLDER~1\AppData\Local\Temp\ccKV8tJ7.s:31772  .debug_str:00000000000270d0 .LASF4729
C:\Users\SOLDER~1\AppData\Local\Temp\ccKV8tJ7.s:30732  .debug_str:0000000000022c4f .LASF4730
C:\Users\SOLDER~1\AppData\Local\Temp\ccKV8tJ7.s:33156  .debug_str:000000000002cb0b .LASF4731
C:\Users\SOLDER~1\AppData\Local\Temp\ccKV8tJ7.s:30956  .debug_str:0000000000023b2b .LASF4732
C:\Users\SOLDER~1\AppData\Local\Temp\ccKV8tJ7.s:32000  .debug_str:0000000000027f5f .LASF4733
C:\Users\SOLDER~1\AppData\Local\Temp\ccKV8tJ7.s:32450  .debug_str:0000000000029d00 .LASF4734
C:\Users\SOLDER~1\AppData\Local\Temp\ccKV8tJ7.s:24940  .debug_str:000000000000b595 .LASF4735
C:\Users\SOLDER~1\AppData\Local\Temp\ccKV8tJ7.s:23620  .debug_str:0000000000005eeb .LASF4736
C:\Users\SOLDER~1\AppData\Local\Temp\ccKV8tJ7.s:22980  .debug_str:0000000000003745 .LASF4737
C:\Users\SOLDER~1\AppData\Local\Temp\ccKV8tJ7.s:31924  .debug_str:0000000000027a90 .LASF4738
C:\Users\SOLDER~1\AppData\Local\Temp\ccKV8tJ7.s:30252  .debug_str:0000000000020e14 .LASF4739
C:\Users\SOLDER~1\AppData\Local\Temp\ccKV8tJ7.s:23042  .debug_str:0000000000003b2b .LASF4740
C:\Users\SOLDER~1\AppData\Local\Temp\ccKV8tJ7.s:23146  .debug_str:0000000000004179 .LASF4741
C:\Users\SOLDER~1\AppData\Local\Temp\ccKV8tJ7.s:30976  .debug_str:0000000000023c82 .LASF4742
C:\Users\SOLDER~1\AppData\Local\Temp\ccKV8tJ7.s:31320  .debug_str:00000000000252c0 .LASF4743
C:\Users\SOLDER~1\AppData\Local\Temp\ccKV8tJ7.s:26828  .debug_str:0000000000012f5f .LASF4744
C:\Users\SOLDER~1\AppData\Local\Temp\ccKV8tJ7.s:22570  .debug_str:0000000000001cbc .LASF4745
C:\Users\SOLDER~1\AppData\Local\Temp\ccKV8tJ7.s:31500  .debug_str:0000000000025e48 .LASF4746
C:\Users\SOLDER~1\AppData\Local\Temp\ccKV8tJ7.s:25478  .debug_str:000000000000d90e .LASF4747
C:\Users\SOLDER~1\AppData\Local\Temp\ccKV8tJ7.s:22410  .debug_str:0000000000001276 .LASF4748
C:\Users\SOLDER~1\AppData\Local\Temp\ccKV8tJ7.s:30948  .debug_str:0000000000023aa7 .LASF4749
C:\Users\SOLDER~1\AppData\Local\Temp\ccKV8tJ7.s:32720  .debug_str:000000000002ae8a .LASF4750
C:\Users\SOLDER~1\AppData\Local\Temp\ccKV8tJ7.s:25910  .debug_str:000000000000f4e3 .LASF4751
C:\Users\SOLDER~1\AppData\Local\Temp\ccKV8tJ7.s:25092  .debug_str:000000000000bf21 .LASF4752
C:\Users\SOLDER~1\AppData\Local\Temp\ccKV8tJ7.s:31388  .debug_str:00000000000256e6 .LASF4753
C:\Users\SOLDER~1\AppData\Local\Temp\ccKV8tJ7.s:28320  .debug_str:0000000000019168 .LASF4754
GAS LISTING C:\Users\SOLDER~1\AppData\Local\Temp\ccKV8tJ7.s 			page 173


C:\Users\SOLDER~1\AppData\Local\Temp\ccKV8tJ7.s:22296  .debug_str:0000000000000aeb .LASF4755
C:\Users\SOLDER~1\AppData\Local\Temp\ccKV8tJ7.s:33796  .debug_str:000000000002f3c0 .LASF4756
C:\Users\SOLDER~1\AppData\Local\Temp\ccKV8tJ7.s:30644  .debug_str:00000000000226d4 .LASF4757
C:\Users\SOLDER~1\AppData\Local\Temp\ccKV8tJ7.s:31122  .debug_str:00000000000245cf .LASF4758
C:\Users\SOLDER~1\AppData\Local\Temp\ccKV8tJ7.s:23404  .debug_str:000000000000514f .LASF4759
C:\Users\SOLDER~1\AppData\Local\Temp\ccKV8tJ7.s:25932  .debug_str:000000000000f668 .LASF4760
C:\Users\SOLDER~1\AppData\Local\Temp\ccKV8tJ7.s:31384  .debug_str:00000000000256b0 .LASF4761
C:\Users\SOLDER~1\AppData\Local\Temp\ccKV8tJ7.s:28316  .debug_str:0000000000019128 .LASF4762
C:\Users\SOLDER~1\AppData\Local\Temp\ccKV8tJ7.s:25168  .debug_str:000000000000c447 .LASF4763
C:\Users\SOLDER~1\AppData\Local\Temp\ccKV8tJ7.s:24424  .debug_str:00000000000093e4 .LASF4764
C:\Users\SOLDER~1\AppData\Local\Temp\ccKV8tJ7.s:24348  .debug_str:0000000000008ebb .LASF4765
C:\Users\SOLDER~1\AppData\Local\Temp\ccKV8tJ7.s:27578  .debug_str:000000000001611f .LASF4766
C:\Users\SOLDER~1\AppData\Local\Temp\ccKV8tJ7.s:29896  .debug_str:000000000001f718 .LASF4767
C:\Users\SOLDER~1\AppData\Local\Temp\ccKV8tJ7.s:26768  .debug_str:0000000000012b59 .LASF4768
C:\Users\SOLDER~1\AppData\Local\Temp\ccKV8tJ7.s:33414  .debug_str:000000000002dba6 .LASF4769
C:\Users\SOLDER~1\AppData\Local\Temp\ccKV8tJ7.s:29962  .debug_str:000000000001fb98 .LASF4770
C:\Users\SOLDER~1\AppData\Local\Temp\ccKV8tJ7.s:25944  .debug_str:000000000000f722 .LASF4771
C:\Users\SOLDER~1\AppData\Local\Temp\ccKV8tJ7.s:25868  .debug_str:000000000000f249 .LASF4772
C:\Users\SOLDER~1\AppData\Local\Temp\ccKV8tJ7.s:22940  .debug_str:00000000000034ec .LASF4773
C:\Users\SOLDER~1\AppData\Local\Temp\ccKV8tJ7.s:31510  .debug_str:0000000000025eef .LASF4774
C:\Users\SOLDER~1\AppData\Local\Temp\ccKV8tJ7.s:22460  .debug_str:00000000000015c1 .LASF4775
C:\Users\SOLDER~1\AppData\Local\Temp\ccKV8tJ7.s:23064  .debug_str:0000000000003c90 .LASF4776
C:\Users\SOLDER~1\AppData\Local\Temp\ccKV8tJ7.s:29664  .debug_str:000000000001e78e .LASF4777
C:\Users\SOLDER~1\AppData\Local\Temp\ccKV8tJ7.s:23472  .debug_str:000000000000555f .LASF4778
C:\Users\SOLDER~1\AppData\Local\Temp\ccKV8tJ7.s:32804  .debug_str:000000000002b402 .LASF4779
C:\Users\SOLDER~1\AppData\Local\Temp\ccKV8tJ7.s:33068  .debug_str:000000000002c52e .LASF4780
C:\Users\SOLDER~1\AppData\Local\Temp\ccKV8tJ7.s:25706  .debug_str:000000000000e803 .LASF4781
C:\Users\SOLDER~1\AppData\Local\Temp\ccKV8tJ7.s:29898  .debug_str:000000000001f734 .LASF4782
C:\Users\SOLDER~1\AppData\Local\Temp\ccKV8tJ7.s:25606  .debug_str:000000000000e13c .LASF4783
C:\Users\SOLDER~1\AppData\Local\Temp\ccKV8tJ7.s:25006  .debug_str:000000000000b997 .LASF4784
C:\Users\SOLDER~1\AppData\Local\Temp\ccKV8tJ7.s:30304  .debug_str:0000000000021165 .LASF4785
C:\Users\SOLDER~1\AppData\Local\Temp\ccKV8tJ7.s:22586  .debug_str:0000000000001de3 .LASF4786
C:\Users\SOLDER~1\AppData\Local\Temp\ccKV8tJ7.s:28780  .debug_str:000000000001ae47 .LASF4787
C:\Users\SOLDER~1\AppData\Local\Temp\ccKV8tJ7.s:33712  .debug_str:000000000002ee7e .LASF4788
C:\Users\SOLDER~1\AppData\Local\Temp\ccKV8tJ7.s:24692  .debug_str:000000000000a524 .LASF4789
C:\Users\SOLDER~1\AppData\Local\Temp\ccKV8tJ7.s:33738  .debug_str:000000000002f057 .LASF4790
C:\Users\SOLDER~1\AppData\Local\Temp\ccKV8tJ7.s:30008  .debug_str:000000000001fe5c .LASF4791
C:\Users\SOLDER~1\AppData\Local\Temp\ccKV8tJ7.s:31846  .debug_str:0000000000027593 .LASF4792
C:\Users\SOLDER~1\AppData\Local\Temp\ccKV8tJ7.s:32060  .debug_str:0000000000028373 .LASF4793
C:\Users\SOLDER~1\AppData\Local\Temp\ccKV8tJ7.s:24764  .debug_str:000000000000aa17 .LASF4794
C:\Users\SOLDER~1\AppData\Local\Temp\ccKV8tJ7.s:24702  .debug_str:000000000000a5db .LASF4795
C:\Users\SOLDER~1\AppData\Local\Temp\ccKV8tJ7.s:32738  .debug_str:000000000002af99 .LASF4796
C:\Users\SOLDER~1\AppData\Local\Temp\ccKV8tJ7.s:27816  .debug_str:0000000000016fc9 .LASF4797
C:\Users\SOLDER~1\AppData\Local\Temp\ccKV8tJ7.s:22966  .debug_str:0000000000003658 .LASF4798
C:\Users\SOLDER~1\AppData\Local\Temp\ccKV8tJ7.s:25096  .debug_str:000000000000bf62 .LASF4799
C:\Users\SOLDER~1\AppData\Local\Temp\ccKV8tJ7.s:26220  .debug_str:0000000000010914 .LASF4800
C:\Users\SOLDER~1\AppData\Local\Temp\ccKV8tJ7.s:32408  .debug_str:0000000000029a26 .LASF4801
C:\Users\SOLDER~1\AppData\Local\Temp\ccKV8tJ7.s:23818  .debug_str:0000000000006c32 .LASF4802
C:\Users\SOLDER~1\AppData\Local\Temp\ccKV8tJ7.s:30686  .debug_str:0000000000022947 .LASF4803
C:\Users\SOLDER~1\AppData\Local\Temp\ccKV8tJ7.s:26030  .debug_str:000000000000fcfc .LASF4804
C:\Users\SOLDER~1\AppData\Local\Temp\ccKV8tJ7.s:30288  .debug_str:0000000000021066 .LASF4805
C:\Users\SOLDER~1\AppData\Local\Temp\ccKV8tJ7.s:33284  .debug_str:000000000002d322 .LASF4806
C:\Users\SOLDER~1\AppData\Local\Temp\ccKV8tJ7.s:23666  .debug_str:0000000000006229 .LASF4807
C:\Users\SOLDER~1\AppData\Local\Temp\ccKV8tJ7.s:31292  .debug_str:0000000000025106 .LASF4808
C:\Users\SOLDER~1\AppData\Local\Temp\ccKV8tJ7.s:24378  .debug_str:00000000000090b8 .LASF4809
C:\Users\SOLDER~1\AppData\Local\Temp\ccKV8tJ7.s:26044  .debug_str:000000000000fe1e .LASF4810
C:\Users\SOLDER~1\AppData\Local\Temp\ccKV8tJ7.s:28932  .debug_str:000000000001b7e8 .LASF4811
GAS LISTING C:\Users\SOLDER~1\AppData\Local\Temp\ccKV8tJ7.s 			page 174


C:\Users\SOLDER~1\AppData\Local\Temp\ccKV8tJ7.s:33550  .debug_str:000000000002e43f .LASF4812
C:\Users\SOLDER~1\AppData\Local\Temp\ccKV8tJ7.s:32856  .debug_str:000000000002b78b .LASF4813
C:\Users\SOLDER~1\AppData\Local\Temp\ccKV8tJ7.s:24190  .debug_str:0000000000008473 .LASF4814
C:\Users\SOLDER~1\AppData\Local\Temp\ccKV8tJ7.s:26346  .debug_str:00000000000110ef .LASF4815
C:\Users\SOLDER~1\AppData\Local\Temp\ccKV8tJ7.s:25402  .debug_str:000000000000d3f5 .LASF4816
C:\Users\SOLDER~1\AppData\Local\Temp\ccKV8tJ7.s:24318  .debug_str:0000000000008c94 .LASF4817
C:\Users\SOLDER~1\AppData\Local\Temp\ccKV8tJ7.s:22950  .debug_str:0000000000003585 .LASF4818
C:\Users\SOLDER~1\AppData\Local\Temp\ccKV8tJ7.s:22142  .debug_str:0000000000000000 .LASF4819
C:\Users\SOLDER~1\AppData\Local\Temp\ccKV8tJ7.s:29764  .debug_str:000000000001ee60 .LASF4820
C:\Users\SOLDER~1\AppData\Local\Temp\ccKV8tJ7.s:30434  .debug_str:00000000000219b4 .LASF4821
C:\Users\SOLDER~1\AppData\Local\Temp\ccKV8tJ7.s:33492  .debug_str:000000000002e0ac .LASF4822
C:\Users\SOLDER~1\AppData\Local\Temp\ccKV8tJ7.s:24354  .debug_str:0000000000008f08 .LASF4823
C:\Users\SOLDER~1\AppData\Local\Temp\ccKV8tJ7.s:23542  .debug_str:0000000000005a1a .LASF4824
C:\Users\SOLDER~1\AppData\Local\Temp\ccKV8tJ7.s:22306  .debug_str:0000000000000baa .LASF4825
C:\Users\SOLDER~1\AppData\Local\Temp\ccKV8tJ7.s:30872  .debug_str:0000000000023585 .LASF4826
C:\Users\SOLDER~1\AppData\Local\Temp\ccKV8tJ7.s:25748  .debug_str:000000000000eaf7 .LASF4827
C:\Users\SOLDER~1\AppData\Local\Temp\ccKV8tJ7.s:27836  .debug_str:0000000000017119 .LASF4828
C:\Users\SOLDER~1\AppData\Local\Temp\ccKV8tJ7.s:27956  .debug_str:0000000000017951 .LASF4829
C:\Users\SOLDER~1\AppData\Local\Temp\ccKV8tJ7.s:22734  .debug_str:0000000000002792 .LASF4830
C:\Users\SOLDER~1\AppData\Local\Temp\ccKV8tJ7.s:27320  .debug_str:00000000000150c1 .LASF4831
C:\Users\SOLDER~1\AppData\Local\Temp\ccKV8tJ7.s:32032  .debug_str:0000000000028164 .LASF4832
C:\Users\SOLDER~1\AppData\Local\Temp\ccKV8tJ7.s:27510  .debug_str:0000000000015ce1 .LASF4833
C:\Users\SOLDER~1\AppData\Local\Temp\ccKV8tJ7.s:22964  .debug_str:0000000000003640 .LASF4834
C:\Users\SOLDER~1\AppData\Local\Temp\ccKV8tJ7.s:30430  .debug_str:000000000002197a .LASF4835
C:\Users\SOLDER~1\AppData\Local\Temp\ccKV8tJ7.s:27168  .debug_str:00000000000146ce .LASF4836
C:\Users\SOLDER~1\AppData\Local\Temp\ccKV8tJ7.s:24228  .debug_str:00000000000086f4 .LASF4837
C:\Users\SOLDER~1\AppData\Local\Temp\ccKV8tJ7.s:25656  .debug_str:000000000000e4e9 .LASF4838
C:\Users\SOLDER~1\AppData\Local\Temp\ccKV8tJ7.s:30612  .debug_str:00000000000224f9 .LASF4839
C:\Users\SOLDER~1\AppData\Local\Temp\ccKV8tJ7.s:27464  .debug_str:00000000000159e0 .LASF4840
C:\Users\SOLDER~1\AppData\Local\Temp\ccKV8tJ7.s:28750  .debug_str:000000000001ac7a .LASF4841
C:\Users\SOLDER~1\AppData\Local\Temp\ccKV8tJ7.s:27776  .debug_str:0000000000016d8c .LASF4842
C:\Users\SOLDER~1\AppData\Local\Temp\ccKV8tJ7.s:23034  .debug_str:0000000000003abe .LASF4843
C:\Users\SOLDER~1\AppData\Local\Temp\ccKV8tJ7.s:27806  .debug_str:0000000000016f39 .LASF4844
C:\Users\SOLDER~1\AppData\Local\Temp\ccKV8tJ7.s:32384  .debug_str:0000000000029886 .LASF4845
C:\Users\SOLDER~1\AppData\Local\Temp\ccKV8tJ7.s:25526  .debug_str:000000000000dbf0 .LASF4846
C:\Users\SOLDER~1\AppData\Local\Temp\ccKV8tJ7.s:32170  .debug_str:0000000000028ab2 .LASF4847
C:\Users\SOLDER~1\AppData\Local\Temp\ccKV8tJ7.s:31800  .debug_str:0000000000027281 .LASF4848
C:\Users\SOLDER~1\AppData\Local\Temp\ccKV8tJ7.s:26974  .debug_str:0000000000013902 .LASF4849
C:\Users\SOLDER~1\AppData\Local\Temp\ccKV8tJ7.s:30188  .debug_str:00000000000209fc .LASF4850
C:\Users\SOLDER~1\AppData\Local\Temp\ccKV8tJ7.s:28724  .debug_str:000000000001aae4 .LASF4852
C:\Users\SOLDER~1\AppData\Local\Temp\ccKV8tJ7.s:30666  .debug_str:00000000000227ee .LASF4853
C:\Users\SOLDER~1\AppData\Local\Temp\ccKV8tJ7.s:22860  .debug_str:0000000000002fc8 .LASF4854
C:\Users\SOLDER~1\AppData\Local\Temp\ccKV8tJ7.s:26760  .debug_str:0000000000012ab5 .LASF4855
C:\Users\SOLDER~1\AppData\Local\Temp\ccKV8tJ7.s:25666  .debug_str:000000000000e598 .LASF4856
C:\Users\SOLDER~1\AppData\Local\Temp\ccKV8tJ7.s:28942  .debug_str:000000000001b872 .LASF4857
C:\Users\SOLDER~1\AppData\Local\Temp\ccKV8tJ7.s:24152  .debug_str:00000000000081fd .LASF4858
C:\Users\SOLDER~1\AppData\Local\Temp\ccKV8tJ7.s:30954  .debug_str:0000000000023afa .LASF4859
C:\Users\SOLDER~1\AppData\Local\Temp\ccKV8tJ7.s:32746  .debug_str:000000000002b029 .LASF4860
C:\Users\SOLDER~1\AppData\Local\Temp\ccKV8tJ7.s:23048  .debug_str:0000000000003b96 .LASF4861
C:\Users\SOLDER~1\AppData\Local\Temp\ccKV8tJ7.s:31762  .debug_str:000000000002701c .LASF4862
C:\Users\SOLDER~1\AppData\Local\Temp\ccKV8tJ7.s:30448  .debug_str:0000000000021ab3 .LASF4863
C:\Users\SOLDER~1\AppData\Local\Temp\ccKV8tJ7.s:23182  .debug_str:00000000000043a1 .LASF4864
C:\Users\SOLDER~1\AppData\Local\Temp\ccKV8tJ7.s:30768  .debug_str:0000000000022ec1 .LASF4865
C:\Users\SOLDER~1\AppData\Local\Temp\ccKV8tJ7.s:23016  .debug_str:0000000000003992 .LASF4866
C:\Users\SOLDER~1\AppData\Local\Temp\ccKV8tJ7.s:23202  .debug_str:00000000000044c6 .LASF4867
C:\Users\SOLDER~1\AppData\Local\Temp\ccKV8tJ7.s:25652  .debug_str:000000000000e49c .LASF4868
C:\Users\SOLDER~1\AppData\Local\Temp\ccKV8tJ7.s:32036  .debug_str:00000000000281a4 .LASF4869
GAS LISTING C:\Users\SOLDER~1\AppData\Local\Temp\ccKV8tJ7.s 			page 175


C:\Users\SOLDER~1\AppData\Local\Temp\ccKV8tJ7.s:23226  .debug_str:0000000000004658 .LASF4870
C:\Users\SOLDER~1\AppData\Local\Temp\ccKV8tJ7.s:22282  .debug_str:00000000000009f3 .LASF4871
C:\Users\SOLDER~1\AppData\Local\Temp\ccKV8tJ7.s:29848  .debug_str:000000000001f3cd .LASF4872
C:\Users\SOLDER~1\AppData\Local\Temp\ccKV8tJ7.s:24998  .debug_str:000000000000b8f9 .LASF4873
C:\Users\SOLDER~1\AppData\Local\Temp\ccKV8tJ7.s:31436  .debug_str:00000000000259e1 .LASF4874
C:\Users\SOLDER~1\AppData\Local\Temp\ccKV8tJ7.s:33448  .debug_str:000000000002ddd9 .LASF4875
C:\Users\SOLDER~1\AppData\Local\Temp\ccKV8tJ7.s:22724  .debug_str:00000000000026ca .LASF4876
C:\Users\SOLDER~1\AppData\Local\Temp\ccKV8tJ7.s:23222  .debug_str:0000000000004608 .LASF4877
C:\Users\SOLDER~1\AppData\Local\Temp\ccKV8tJ7.s:30314  .debug_str:00000000000211e7 .LASF4878
C:\Users\SOLDER~1\AppData\Local\Temp\ccKV8tJ7.s:32504  .debug_str:000000000002a02b .LASF4879
C:\Users\SOLDER~1\AppData\Local\Temp\ccKV8tJ7.s:32020  .debug_str:0000000000028091 .LASF4880
C:\Users\SOLDER~1\AppData\Local\Temp\ccKV8tJ7.s:31840  .debug_str:0000000000027520 .LASF4881
C:\Users\SOLDER~1\AppData\Local\Temp\ccKV8tJ7.s:32528  .debug_str:000000000002a1c6 .LASF4882
C:\Users\SOLDER~1\AppData\Local\Temp\ccKV8tJ7.s:27162  .debug_str:0000000000014668 .LASF4883
C:\Users\SOLDER~1\AppData\Local\Temp\ccKV8tJ7.s:32586  .debug_str:000000000002a5ce .LASF4884
C:\Users\SOLDER~1\AppData\Local\Temp\ccKV8tJ7.s:30104  .debug_str:0000000000020481 .LASF4885
C:\Users\SOLDER~1\AppData\Local\Temp\ccKV8tJ7.s:31206  .debug_str:0000000000024b43 .LASF4886
C:\Users\SOLDER~1\AppData\Local\Temp\ccKV8tJ7.s:26792  .debug_str:0000000000012cf0 .LASF4887
C:\Users\SOLDER~1\AppData\Local\Temp\ccKV8tJ7.s:22598  .debug_str:0000000000001e94 .LASF4888
C:\Users\SOLDER~1\AppData\Local\Temp\ccKV8tJ7.s:23420  .debug_str:0000000000005249 .LASF4889
C:\Users\SOLDER~1\AppData\Local\Temp\ccKV8tJ7.s:30474  .debug_str:0000000000021c56 .LASF4890
C:\Users\SOLDER~1\AppData\Local\Temp\ccKV8tJ7.s:31722  .debug_str:0000000000026d62 .LASF4891
C:\Users\SOLDER~1\AppData\Local\Temp\ccKV8tJ7.s:26352  .debug_str:0000000000011144 .LASF4892
C:\Users\SOLDER~1\AppData\Local\Temp\ccKV8tJ7.s:31136  .debug_str:00000000000246c5 .LASF4893
C:\Users\SOLDER~1\AppData\Local\Temp\ccKV8tJ7.s:28892  .debug_str:000000000001b549 .LASF4894
C:\Users\SOLDER~1\AppData\Local\Temp\ccKV8tJ7.s:26228  .debug_str:00000000000109ad .LASF4895
C:\Users\SOLDER~1\AppData\Local\Temp\ccKV8tJ7.s:33246  .debug_str:000000000002d0b2 .LASF4896
C:\Users\SOLDER~1\AppData\Local\Temp\ccKV8tJ7.s:31542  .debug_str:0000000000026109 .LASF4897
C:\Users\SOLDER~1\AppData\Local\Temp\ccKV8tJ7.s:25538  .debug_str:000000000000dca4 .LASF4898
C:\Users\SOLDER~1\AppData\Local\Temp\ccKV8tJ7.s:33514  .debug_str:000000000002e222 .LASF4899
C:\Users\SOLDER~1\AppData\Local\Temp\ccKV8tJ7.s:23908  .debug_str:0000000000007267 .LASF4900
C:\Users\SOLDER~1\AppData\Local\Temp\ccKV8tJ7.s:28318  .debug_str:0000000000019145 .LASF4901
C:\Users\SOLDER~1\AppData\Local\Temp\ccKV8tJ7.s:25266  .debug_str:000000000000cb1a .LASF4902
C:\Users\SOLDER~1\AppData\Local\Temp\ccKV8tJ7.s:31528  .debug_str:000000000002602c .LASF4903
C:\Users\SOLDER~1\AppData\Local\Temp\ccKV8tJ7.s:31926  .debug_str:0000000000027ab0 .LASF4904
C:\Users\SOLDER~1\AppData\Local\Temp\ccKV8tJ7.s:29506  .debug_str:000000000001dd4b .LASF4905
C:\Users\SOLDER~1\AppData\Local\Temp\ccKV8tJ7.s:22834  .debug_str:0000000000002e03 .LASF4906
C:\Users\SOLDER~1\AppData\Local\Temp\ccKV8tJ7.s:30136  .debug_str:0000000000020682 .LASF4907
C:\Users\SOLDER~1\AppData\Local\Temp\ccKV8tJ7.s:31314  .debug_str:000000000002525e .LASF4908
C:\Users\SOLDER~1\AppData\Local\Temp\ccKV8tJ7.s:30670  .debug_str:0000000000022834 .LASF4909
C:\Users\SOLDER~1\AppData\Local\Temp\ccKV8tJ7.s:24016  .debug_str:000000000000791b .LASF4910
C:\Users\SOLDER~1\AppData\Local\Temp\ccKV8tJ7.s:25274  .debug_str:000000000000cba7 .LASF4911
C:\Users\SOLDER~1\AppData\Local\Temp\ccKV8tJ7.s:27546  .debug_str:0000000000015f22 .LASF4912
C:\Users\SOLDER~1\AppData\Local\Temp\ccKV8tJ7.s:31254  .debug_str:0000000000024e89 .LASF4913
C:\Users\SOLDER~1\AppData\Local\Temp\ccKV8tJ7.s:32140  .debug_str:00000000000288a6 .LASF4914
C:\Users\SOLDER~1\AppData\Local\Temp\ccKV8tJ7.s:26430  .debug_str:000000000001166a .LASF4915
C:\Users\SOLDER~1\AppData\Local\Temp\ccKV8tJ7.s:22320  .debug_str:0000000000000cbb .LASF4916
C:\Users\SOLDER~1\AppData\Local\Temp\ccKV8tJ7.s:28760  .debug_str:000000000001ad03 .LASF4917
C:\Users\SOLDER~1\AppData\Local\Temp\ccKV8tJ7.s:28494  .debug_str:0000000000019c58 .LASF4918
C:\Users\SOLDER~1\AppData\Local\Temp\ccKV8tJ7.s:31350  .debug_str:00000000000254a8 .LASF4919
C:\Users\SOLDER~1\AppData\Local\Temp\ccKV8tJ7.s:27316  .debug_str:0000000000015079 .LASF4920
C:\Users\SOLDER~1\AppData\Local\Temp\ccKV8tJ7.s:31492  .debug_str:0000000000025da9 .LASF4921
C:\Users\SOLDER~1\AppData\Local\Temp\ccKV8tJ7.s:32322  .debug_str:000000000002947f .LASF4922
C:\Users\SOLDER~1\AppData\Local\Temp\ccKV8tJ7.s:24988  .debug_str:000000000000b860 .LASF4923
C:\Users\SOLDER~1\AppData\Local\Temp\ccKV8tJ7.s:23144  .debug_str:0000000000004156 .LASF4924
C:\Users\SOLDER~1\AppData\Local\Temp\ccKV8tJ7.s:28908  .debug_str:000000000001b64e .LASF4925
C:\Users\SOLDER~1\AppData\Local\Temp\ccKV8tJ7.s:30102  .debug_str:000000000002045e .LASF4926
GAS LISTING C:\Users\SOLDER~1\AppData\Local\Temp\ccKV8tJ7.s 			page 176


C:\Users\SOLDER~1\AppData\Local\Temp\ccKV8tJ7.s:26588  .debug_str:000000000001201f .LASF4927
C:\Users\SOLDER~1\AppData\Local\Temp\ccKV8tJ7.s:33678  .debug_str:000000000002ec56 .LASF4928
C:\Users\SOLDER~1\AppData\Local\Temp\ccKV8tJ7.s:25702  .debug_str:000000000000e7c6 .LASF4929
C:\Users\SOLDER~1\AppData\Local\Temp\ccKV8tJ7.s:32530  .debug_str:000000000002a1f5 .LASF4930
C:\Users\SOLDER~1\AppData\Local\Temp\ccKV8tJ7.s:33342  .debug_str:000000000002d72e .LASF4931
C:\Users\SOLDER~1\AppData\Local\Temp\ccKV8tJ7.s:29344  .debug_str:000000000001d2fa .LASF4932
C:\Users\SOLDER~1\AppData\Local\Temp\ccKV8tJ7.s:32820  .debug_str:000000000002b4d5 .LASF4933
C:\Users\SOLDER~1\AppData\Local\Temp\ccKV8tJ7.s:29426  .debug_str:000000000001d888 .LASF4934
C:\Users\SOLDER~1\AppData\Local\Temp\ccKV8tJ7.s:30074  .debug_str:0000000000020289 .LASF4935
C:\Users\SOLDER~1\AppData\Local\Temp\ccKV8tJ7.s:28330  .debug_str:00000000000191f0 .LASF4936
C:\Users\SOLDER~1\AppData\Local\Temp\ccKV8tJ7.s:27726  .debug_str:0000000000016a4e .LASF4937
C:\Users\SOLDER~1\AppData\Local\Temp\ccKV8tJ7.s:26416  .debug_str:0000000000011556 .LASF4938
C:\Users\SOLDER~1\AppData\Local\Temp\ccKV8tJ7.s:26626  .debug_str:000000000001227f .LASF4939
C:\Users\SOLDER~1\AppData\Local\Temp\ccKV8tJ7.s:27682  .debug_str:00000000000167b0 .LASF4940
C:\Users\SOLDER~1\AppData\Local\Temp\ccKV8tJ7.s:29700  .debug_str:000000000001e9e8 .LASF4941
C:\Users\SOLDER~1\AppData\Local\Temp\ccKV8tJ7.s:31370  .debug_str:00000000000255e0 .LASF4942
C:\Users\SOLDER~1\AppData\Local\Temp\ccKV8tJ7.s:30790  .debug_str:0000000000023057 .LASF4943
C:\Users\SOLDER~1\AppData\Local\Temp\ccKV8tJ7.s:30216  .debug_str:0000000000020bc4 .LASF4944
C:\Users\SOLDER~1\AppData\Local\Temp\ccKV8tJ7.s:30510  .debug_str:0000000000021e9b .LASF4945
C:\Users\SOLDER~1\AppData\Local\Temp\ccKV8tJ7.s:25724  .debug_str:000000000000e940 .LASF4946
C:\Users\SOLDER~1\AppData\Local\Temp\ccKV8tJ7.s:26786  .debug_str:0000000000012c6d .LASF4947
C:\Users\SOLDER~1\AppData\Local\Temp\ccKV8tJ7.s:26662  .debug_str:00000000000124b4 .LASF4948
C:\Users\SOLDER~1\AppData\Local\Temp\ccKV8tJ7.s:25396  .debug_str:000000000000d389 .LASF4949
C:\Users\SOLDER~1\AppData\Local\Temp\ccKV8tJ7.s:32238  .debug_str:0000000000028f1b .LASF4950
C:\Users\SOLDER~1\AppData\Local\Temp\ccKV8tJ7.s:22684  .debug_str:0000000000002452 .LASF4951
C:\Users\SOLDER~1\AppData\Local\Temp\ccKV8tJ7.s:32108  .debug_str:00000000000286a9 .LASF4952
C:\Users\SOLDER~1\AppData\Local\Temp\ccKV8tJ7.s:27394  .debug_str:0000000000015569 .LASF4953
C:\Users\SOLDER~1\AppData\Local\Temp\ccKV8tJ7.s:25002  .debug_str:000000000000b94b .LASF4954
C:\Users\SOLDER~1\AppData\Local\Temp\ccKV8tJ7.s:26124  .debug_str:0000000000010310 .LASF4955
C:\Users\SOLDER~1\AppData\Local\Temp\ccKV8tJ7.s:33402  .debug_str:000000000002db06 .LASF4956
C:\Users\SOLDER~1\AppData\Local\Temp\ccKV8tJ7.s:27346  .debug_str:000000000001524c .LASF4957
C:\Users\SOLDER~1\AppData\Local\Temp\ccKV8tJ7.s:30084  .debug_str:0000000000020336 .LASF4958
C:\Users\SOLDER~1\AppData\Local\Temp\ccKV8tJ7.s:29490  .debug_str:000000000001dc80 .LASF4959
C:\Users\SOLDER~1\AppData\Local\Temp\ccKV8tJ7.s:24562  .debug_str:0000000000009c6f .LASF4960
C:\Users\SOLDER~1\AppData\Local\Temp\ccKV8tJ7.s:31778  .debug_str:000000000002712b .LASF4961
C:\Users\SOLDER~1\AppData\Local\Temp\ccKV8tJ7.s:26160  .debug_str:000000000001057c .LASF4962
C:\Users\SOLDER~1\AppData\Local\Temp\ccKV8tJ7.s:24552  .debug_str:0000000000009bc9 .LASF4963
C:\Users\SOLDER~1\AppData\Local\Temp\ccKV8tJ7.s:27656  .debug_str:000000000001661a .LASF4964
C:\Users\SOLDER~1\AppData\Local\Temp\ccKV8tJ7.s:24898  .debug_str:000000000000b2a4 .LASF4965
C:\Users\SOLDER~1\AppData\Local\Temp\ccKV8tJ7.s:22492  .debug_str:00000000000017d6 .LASF4966
C:\Users\SOLDER~1\AppData\Local\Temp\ccKV8tJ7.s:24694  .debug_str:000000000000a53e .LASF4967
C:\Users\SOLDER~1\AppData\Local\Temp\ccKV8tJ7.s:25110  .debug_str:000000000000c057 .LASF4968
C:\Users\SOLDER~1\AppData\Local\Temp\ccKV8tJ7.s:31352  .debug_str:00000000000254cb .LASF4969
C:\Users\SOLDER~1\AppData\Local\Temp\ccKV8tJ7.s:28274  .debug_str:0000000000018e2e .LASF4970
C:\Users\SOLDER~1\AppData\Local\Temp\ccKV8tJ7.s:28736  .debug_str:000000000001ab94 .LASF4971
C:\Users\SOLDER~1\AppData\Local\Temp\ccKV8tJ7.s:23216  .debug_str:00000000000045ad .LASF4972
C:\Users\SOLDER~1\AppData\Local\Temp\ccKV8tJ7.s:29932  .debug_str:000000000001f97f .LASF4973
C:\Users\SOLDER~1\AppData\Local\Temp\ccKV8tJ7.s:26538  .debug_str:0000000000011d1d .LASF4974
C:\Users\SOLDER~1\AppData\Local\Temp\ccKV8tJ7.s:22444  .debug_str:00000000000014ad .LASF4975
C:\Users\SOLDER~1\AppData\Local\Temp\ccKV8tJ7.s:23018  .debug_str:00000000000039ba .LASF4976
C:\Users\SOLDER~1\AppData\Local\Temp\ccKV8tJ7.s:26360  .debug_str:00000000000111ce .LASF4977
C:\Users\SOLDER~1\AppData\Local\Temp\ccKV8tJ7.s:22784  .debug_str:0000000000002aec .LASF4978
C:\Users\SOLDER~1\AppData\Local\Temp\ccKV8tJ7.s:29906  .debug_str:000000000001f7c0 .LASF4979
C:\Users\SOLDER~1\AppData\Local\Temp\ccKV8tJ7.s:29218  .debug_str:000000000001ca7e .LASF4980
C:\Users\SOLDER~1\AppData\Local\Temp\ccKV8tJ7.s:33806  .debug_str:000000000002f468 .LASF4981
C:\Users\SOLDER~1\AppData\Local\Temp\ccKV8tJ7.s:30636  .debug_str:0000000000022662 .LASF4982
C:\Users\SOLDER~1\AppData\Local\Temp\ccKV8tJ7.s:26122  .debug_str:00000000000102f2 .LASF4983
GAS LISTING C:\Users\SOLDER~1\AppData\Local\Temp\ccKV8tJ7.s 			page 177


C:\Users\SOLDER~1\AppData\Local\Temp\ccKV8tJ7.s:26642  .debug_str:000000000001238e .LASF4984
C:\Users\SOLDER~1\AppData\Local\Temp\ccKV8tJ7.s:32264  .debug_str:00000000000290e0 .LASF4985
C:\Users\SOLDER~1\AppData\Local\Temp\ccKV8tJ7.s:28982  .debug_str:000000000001baf9 .LASF4986
C:\Users\SOLDER~1\AppData\Local\Temp\ccKV8tJ7.s:26898  .debug_str:00000000000133fe .LASF4987
C:\Users\SOLDER~1\AppData\Local\Temp\ccKV8tJ7.s:30482  .debug_str:0000000000021cc3 .LASF4988
C:\Users\SOLDER~1\AppData\Local\Temp\ccKV8tJ7.s:28180  .debug_str:00000000000187f3 .LASF4989
C:\Users\SOLDER~1\AppData\Local\Temp\ccKV8tJ7.s:29982  .debug_str:000000000001fcc2 .LASF4990
C:\Users\SOLDER~1\AppData\Local\Temp\ccKV8tJ7.s:30272  .debug_str:0000000000020f5a .LASF4991
C:\Users\SOLDER~1\AppData\Local\Temp\ccKV8tJ7.s:26946  .debug_str:0000000000013740 .LASF4992
C:\Users\SOLDER~1\AppData\Local\Temp\ccKV8tJ7.s:24440  .debug_str:0000000000009504 .LASF4993
C:\Users\SOLDER~1\AppData\Local\Temp\ccKV8tJ7.s:31052  .debug_str:0000000000024159 .LASF4994
C:\Users\SOLDER~1\AppData\Local\Temp\ccKV8tJ7.s:32212  .debug_str:0000000000028d77 .LASF4995
C:\Users\SOLDER~1\AppData\Local\Temp\ccKV8tJ7.s:30396  .debug_str:0000000000021762 .LASF4996
C:\Users\SOLDER~1\AppData\Local\Temp\ccKV8tJ7.s:30394  .debug_str:0000000000021743 .LASF4997
C:\Users\SOLDER~1\AppData\Local\Temp\ccKV8tJ7.s:22332  .debug_str:0000000000000da7 .LASF4998
C:\Users\SOLDER~1\AppData\Local\Temp\ccKV8tJ7.s:33812  .debug_str:000000000002f4c1 .LASF4999
C:\Users\SOLDER~1\AppData\Local\Temp\ccKV8tJ7.s:29326  .debug_str:000000000001d1e4 .LASF5000
C:\Users\SOLDER~1\AppData\Local\Temp\ccKV8tJ7.s:24580  .debug_str:0000000000009db1 .LASF5001
C:\Users\SOLDER~1\AppData\Local\Temp\ccKV8tJ7.s:26912  .debug_str:00000000000134cb .LASF5002
C:\Users\SOLDER~1\AppData\Local\Temp\ccKV8tJ7.s:33020  .debug_str:000000000002c1f1 .LASF5003
C:\Users\SOLDER~1\AppData\Local\Temp\ccKV8tJ7.s:24624  .debug_str:000000000000a0a0 .LASF5004
C:\Users\SOLDER~1\AppData\Local\Temp\ccKV8tJ7.s:26556  .debug_str:0000000000011e52 .LASF5005
C:\Users\SOLDER~1\AppData\Local\Temp\ccKV8tJ7.s:32560  .debug_str:000000000002a41d .LASF5006
C:\Users\SOLDER~1\AppData\Local\Temp\ccKV8tJ7.s:27058  .debug_str:0000000000013f40 .LASF5007
C:\Users\SOLDER~1\AppData\Local\Temp\ccKV8tJ7.s:22520  .debug_str:0000000000001964 .LASF5008
C:\Users\SOLDER~1\AppData\Local\Temp\ccKV8tJ7.s:27736  .debug_str:0000000000016aea .LASF5009
C:\Users\SOLDER~1\AppData\Local\Temp\ccKV8tJ7.s:25614  .debug_str:000000000000e1b4 .LASF5010
C:\Users\SOLDER~1\AppData\Local\Temp\ccKV8tJ7.s:24890  .debug_str:000000000000b206 .LASF5011
C:\Users\SOLDER~1\AppData\Local\Temp\ccKV8tJ7.s:25250  .debug_str:000000000000c9da .LASF5012
C:\Users\SOLDER~1\AppData\Local\Temp\ccKV8tJ7.s:22274  .debug_str:0000000000000968 .LASF5013
C:\Users\SOLDER~1\AppData\Local\Temp\ccKV8tJ7.s:29392  .debug_str:000000000001d646 .LASF5014
C:\Users\SOLDER~1\AppData\Local\Temp\ccKV8tJ7.s:22846  .debug_str:0000000000002ec7 .LASF5015
C:\Users\SOLDER~1\AppData\Local\Temp\ccKV8tJ7.s:24766  .debug_str:000000000000aa35 .LASF5016
C:\Users\SOLDER~1\AppData\Local\Temp\ccKV8tJ7.s:24066  .debug_str:0000000000007c56 .LASF5017
C:\Users\SOLDER~1\AppData\Local\Temp\ccKV8tJ7.s:26438  .debug_str:0000000000011706 .LASF5018
C:\Users\SOLDER~1\AppData\Local\Temp\ccKV8tJ7.s:29058  .debug_str:000000000001bfb6 .LASF5019
C:\Users\SOLDER~1\AppData\Local\Temp\ccKV8tJ7.s:25048  .debug_str:000000000000bc63 .LASF5020
C:\Users\SOLDER~1\AppData\Local\Temp\ccKV8tJ7.s:26982  .debug_str:0000000000013998 .LASF5021
C:\Users\SOLDER~1\AppData\Local\Temp\ccKV8tJ7.s:24316  .debug_str:0000000000008c6e .LASF5022
C:\Users\SOLDER~1\AppData\Local\Temp\ccKV8tJ7.s:32102  .debug_str:0000000000028636 .LASF5023
C:\Users\SOLDER~1\AppData\Local\Temp\ccKV8tJ7.s:26536  .debug_str:0000000000011cee .LASF5024
C:\Users\SOLDER~1\AppData\Local\Temp\ccKV8tJ7.s:23922  .debug_str:000000000000734a .LASF5025
C:\Users\SOLDER~1\AppData\Local\Temp\ccKV8tJ7.s:22568  .debug_str:0000000000001c95 .LASF5026
C:\Users\SOLDER~1\AppData\Local\Temp\ccKV8tJ7.s:30812  .debug_str:00000000000231c1 .LASF5027
C:\Users\SOLDER~1\AppData\Local\Temp\ccKV8tJ7.s:26492  .debug_str:0000000000011a5e .LASF5028
C:\Users\SOLDER~1\AppData\Local\Temp\ccKV8tJ7.s:24404  .debug_str:0000000000009285 .LASF5029
C:\Users\SOLDER~1\AppData\Local\Temp\ccKV8tJ7.s:32038  .debug_str:00000000000281cc .LASF5030
C:\Users\SOLDER~1\AppData\Local\Temp\ccKV8tJ7.s:31496  .debug_str:0000000000025dff .LASF5031
C:\Users\SOLDER~1\AppData\Local\Temp\ccKV8tJ7.s:31664  .debug_str:0000000000026982 .LASF5032
C:\Users\SOLDER~1\AppData\Local\Temp\ccKV8tJ7.s:33732  .debug_str:000000000002efe7 .LASF5033
C:\Users\SOLDER~1\AppData\Local\Temp\ccKV8tJ7.s:24946  .debug_str:000000000000b5e8 .LASF5034
C:\Users\SOLDER~1\AppData\Local\Temp\ccKV8tJ7.s:24582  .debug_str:0000000000009dd8 .LASF5035
C:\Users\SOLDER~1\AppData\Local\Temp\ccKV8tJ7.s:24292  .debug_str:0000000000008adc .LASF5036
C:\Users\SOLDER~1\AppData\Local\Temp\ccKV8tJ7.s:31034  .debug_str:000000000002400d .LASF5037
C:\Users\SOLDER~1\AppData\Local\Temp\ccKV8tJ7.s:24578  .debug_str:0000000000009d84 .LASF5038
C:\Users\SOLDER~1\AppData\Local\Temp\ccKV8tJ7.s:29816  .debug_str:000000000001f1c3 .LASF5039
C:\Users\SOLDER~1\AppData\Local\Temp\ccKV8tJ7.s:25052  .debug_str:000000000000bcb2 .LASF5040
GAS LISTING C:\Users\SOLDER~1\AppData\Local\Temp\ccKV8tJ7.s 			page 178


C:\Users\SOLDER~1\AppData\Local\Temp\ccKV8tJ7.s:24386  .debug_str:0000000000009152 .LASF5041
C:\Users\SOLDER~1\AppData\Local\Temp\ccKV8tJ7.s:32082  .debug_str:00000000000284d2 .LASF5042
C:\Users\SOLDER~1\AppData\Local\Temp\ccKV8tJ7.s:27184  .debug_str:00000000000147f1 .LASF5043
C:\Users\SOLDER~1\AppData\Local\Temp\ccKV8tJ7.s:32228  .debug_str:0000000000028e93 .LASF5044
C:\Users\SOLDER~1\AppData\Local\Temp\ccKV8tJ7.s:28896  .debug_str:000000000001b58f .LASF5045
C:\Users\SOLDER~1\AppData\Local\Temp\ccKV8tJ7.s:24122  .debug_str:0000000000008008 .LASF5046
C:\Users\SOLDER~1\AppData\Local\Temp\ccKV8tJ7.s:28476  .debug_str:0000000000019b56 .LASF5047
C:\Users\SOLDER~1\AppData\Local\Temp\ccKV8tJ7.s:22326  .debug_str:0000000000000d28 .LASF5048
C:\Users\SOLDER~1\AppData\Local\Temp\ccKV8tJ7.s:28998  .debug_str:000000000001bbcd .LASF5049
C:\Users\SOLDER~1\AppData\Local\Temp\ccKV8tJ7.s:31116  .debug_str:000000000002456d .LASF5050
C:\Users\SOLDER~1\AppData\Local\Temp\ccKV8tJ7.s:29238  .debug_str:000000000001cbcf .LASF5051
C:\Users\SOLDER~1\AppData\Local\Temp\ccKV8tJ7.s:30006  .debug_str:000000000001fe37 .LASF5052
C:\Users\SOLDER~1\AppData\Local\Temp\ccKV8tJ7.s:23044  .debug_str:0000000000003b4b .LASF5053
C:\Users\SOLDER~1\AppData\Local\Temp\ccKV8tJ7.s:22968  .debug_str:000000000000367d .LASF5054
C:\Users\SOLDER~1\AppData\Local\Temp\ccKV8tJ7.s:31504  .debug_str:0000000000025e9c .LASF5055
C:\Users\SOLDER~1\AppData\Local\Temp\ccKV8tJ7.s:29258  .debug_str:000000000001cd24 .LASF5056
C:\Users\SOLDER~1\AppData\Local\Temp\ccKV8tJ7.s:26640  .debug_str:000000000001236e .LASF5057
C:\Users\SOLDER~1\AppData\Local\Temp\ccKV8tJ7.s:32300  .debug_str:000000000002931d .LASF5058
C:\Users\SOLDER~1\AppData\Local\Temp\ccKV8tJ7.s:26166  .debug_str:00000000000105f1 .LASF5059
C:\Users\SOLDER~1\AppData\Local\Temp\ccKV8tJ7.s:23790  .debug_str:0000000000006a81 .LASF5060
C:\Users\SOLDER~1\AppData\Local\Temp\ccKV8tJ7.s:28808  .debug_str:000000000001b045 .LASF5061
C:\Users\SOLDER~1\AppData\Local\Temp\ccKV8tJ7.s:25014  .debug_str:000000000000ba23 .LASF5062
C:\Users\SOLDER~1\AppData\Local\Temp\ccKV8tJ7.s:29002  .debug_str:000000000001bc1a .LASF5063
C:\Users\SOLDER~1\AppData\Local\Temp\ccKV8tJ7.s:25922  .debug_str:000000000000f59c .LASF5064
C:\Users\SOLDER~1\AppData\Local\Temp\ccKV8tJ7.s:26142  .debug_str:000000000001042f .LASF5065
C:\Users\SOLDER~1\AppData\Local\Temp\ccKV8tJ7.s:25884  .debug_str:000000000000f341 .LASF5066
C:\Users\SOLDER~1\AppData\Local\Temp\ccKV8tJ7.s:33802  .debug_str:000000000002f423 .LASF5067
C:\Users\SOLDER~1\AppData\Local\Temp\ccKV8tJ7.s:25348  .debug_str:000000000000d080 .LASF5068
C:\Users\SOLDER~1\AppData\Local\Temp\ccKV8tJ7.s:26034  .debug_str:000000000000fd4b .LASF5069
C:\Users\SOLDER~1\AppData\Local\Temp\ccKV8tJ7.s:23136  .debug_str:00000000000040b8 .LASF5070
C:\Users\SOLDER~1\AppData\Local\Temp\ccKV8tJ7.s:31892  .debug_str:000000000002788a .LASF5071
C:\Users\SOLDER~1\AppData\Local\Temp\ccKV8tJ7.s:32954  .debug_str:000000000002bdbd .LASF5072
C:\Users\SOLDER~1\AppData\Local\Temp\ccKV8tJ7.s:23550  .debug_str:0000000000005aae .LASF5073
C:\Users\SOLDER~1\AppData\Local\Temp\ccKV8tJ7.s:28080  .debug_str:000000000001817c .LASF5074
C:\Users\SOLDER~1\AppData\Local\Temp\ccKV8tJ7.s:28838  .debug_str:000000000001b232 .LASF5075
C:\Users\SOLDER~1\AppData\Local\Temp\ccKV8tJ7.s:27822  .debug_str:0000000000017027 .LASF5076
C:\Users\SOLDER~1\AppData\Local\Temp\ccKV8tJ7.s:28148  .debug_str:0000000000018605 .LASF5077
C:\Users\SOLDER~1\AppData\Local\Temp\ccKV8tJ7.s:26798  .debug_str:0000000000012d6a .LASF5078
C:\Users\SOLDER~1\AppData\Local\Temp\ccKV8tJ7.s:32476  .debug_str:0000000000029e92 .LASF5079
C:\Users\SOLDER~1\AppData\Local\Temp\ccKV8tJ7.s:30526  .debug_str:0000000000021fa6 .LASF5080
C:\Users\SOLDER~1\AppData\Local\Temp\ccKV8tJ7.s:30560  .debug_str:00000000000221ae .LASF5081
C:\Users\SOLDER~1\AppData\Local\Temp\ccKV8tJ7.s:31890  .debug_str:0000000000027859 .LASF5082
C:\Users\SOLDER~1\AppData\Local\Temp\ccKV8tJ7.s:33786  .debug_str:000000000002f332 .LASF5083
C:\Users\SOLDER~1\AppData\Local\Temp\ccKV8tJ7.s:33718  .debug_str:000000000002ef02 .LASF5084
C:\Users\SOLDER~1\AppData\Local\Temp\ccKV8tJ7.s:27784  .debug_str:0000000000016e09 .LASF5085
C:\Users\SOLDER~1\AppData\Local\Temp\ccKV8tJ7.s:24516  .debug_str:00000000000099b4 .LASF5086
C:\Users\SOLDER~1\AppData\Local\Temp\ccKV8tJ7.s:27014  .debug_str:0000000000013c29 .LASF5087
C:\Users\SOLDER~1\AppData\Local\Temp\ccKV8tJ7.s:31940  .debug_str:0000000000027b9d .LASF5088
C:\Users\SOLDER~1\AppData\Local\Temp\ccKV8tJ7.s:28092  .debug_str:000000000001825d .LASF5089
C:\Users\SOLDER~1\AppData\Local\Temp\ccKV8tJ7.s:22454  .debug_str:0000000000001564 .LASF5090
C:\Users\SOLDER~1\AppData\Local\Temp\ccKV8tJ7.s:30236  .debug_str:0000000000020d0f .LASF5091
C:\Users\SOLDER~1\AppData\Local\Temp\ccKV8tJ7.s:29308  .debug_str:000000000001d090 .LASF5092
C:\Users\SOLDER~1\AppData\Local\Temp\ccKV8tJ7.s:24848  .debug_str:000000000000af8c .LASF5093
C:\Users\SOLDER~1\AppData\Local\Temp\ccKV8tJ7.s:31826  .debug_str:0000000000027428 .LASF5094
C:\Users\SOLDER~1\AppData\Local\Temp\ccKV8tJ7.s:30702  .debug_str:0000000000022a61 .LASF5095
C:\Users\SOLDER~1\AppData\Local\Temp\ccKV8tJ7.s:27374  .debug_str:0000000000015431 .LASF5096
C:\Users\SOLDER~1\AppData\Local\Temp\ccKV8tJ7.s:31568  .debug_str:00000000000262d8 .LASF5097
GAS LISTING C:\Users\SOLDER~1\AppData\Local\Temp\ccKV8tJ7.s 			page 179


C:\Users\SOLDER~1\AppData\Local\Temp\ccKV8tJ7.s:26394  .debug_str:00000000000113f1 .LASF5098
C:\Users\SOLDER~1\AppData\Local\Temp\ccKV8tJ7.s:33480  .debug_str:000000000002dfff .LASF5099
C:\Users\SOLDER~1\AppData\Local\Temp\ccKV8tJ7.s:29948  .debug_str:000000000001fabd .LASF5100
C:\Users\SOLDER~1\AppData\Local\Temp\ccKV8tJ7.s:30834  .debug_str:000000000002332f .LASF5101
C:\Users\SOLDER~1\AppData\Local\Temp\ccKV8tJ7.s:32362  .debug_str:0000000000029708 .LASF5102
C:\Users\SOLDER~1\AppData\Local\Temp\ccKV8tJ7.s:28366  .debug_str:0000000000019432 .LASF5103
C:\Users\SOLDER~1\AppData\Local\Temp\ccKV8tJ7.s:29134  .debug_str:000000000001c4e2 .LASF5104
C:\Users\SOLDER~1\AppData\Local\Temp\ccKV8tJ7.s:24322  .debug_str:0000000000008cde .LASF5105
C:\Users\SOLDER~1\AppData\Local\Temp\ccKV8tJ7.s:30072  .debug_str:0000000000020266 .LASF5106
C:\Users\SOLDER~1\AppData\Local\Temp\ccKV8tJ7.s:32206  .debug_str:0000000000028d06 .LASF5107
C:\Users\SOLDER~1\AppData\Local\Temp\ccKV8tJ7.s:30374  .debug_str:00000000000215f8 .LASF5108
C:\Users\SOLDER~1\AppData\Local\Temp\ccKV8tJ7.s:22428  .debug_str:0000000000001385 .LASF5109
C:\Users\SOLDER~1\AppData\Local\Temp\ccKV8tJ7.s:22146  .debug_str:0000000000000048 .LASF5110
C:\Users\SOLDER~1\AppData\Local\Temp\ccKV8tJ7.s:28984  .debug_str:000000000001bb17 .LASF5111
C:\Users\SOLDER~1\AppData\Local\Temp\ccKV8tJ7.s:33442  .debug_str:000000000002dd70 .LASF5112
C:\Users\SOLDER~1\AppData\Local\Temp\ccKV8tJ7.s:22174  .debug_str:00000000000001f5 .LASF5113
C:\Users\SOLDER~1\AppData\Local\Temp\ccKV8tJ7.s:24554  .debug_str:0000000000009be8 .LASF5114
C:\Users\SOLDER~1\AppData\Local\Temp\ccKV8tJ7.s:33826  .debug_str:000000000002f598 .LASF5115
C:\Users\SOLDER~1\AppData\Local\Temp\ccKV8tJ7.s:26608  .debug_str:000000000001215c .LASF5116
C:\Users\SOLDER~1\AppData\Local\Temp\ccKV8tJ7.s:28276  .debug_str:0000000000018e4d .LASF5117
C:\Users\SOLDER~1\AppData\Local\Temp\ccKV8tJ7.s:24068  .debug_str:0000000000007c84 .LASF5118
C:\Users\SOLDER~1\AppData\Local\Temp\ccKV8tJ7.s:24078  .debug_str:0000000000007d26 .LASF5119
C:\Users\SOLDER~1\AppData\Local\Temp\ccKV8tJ7.s:29786  .debug_str:000000000001efc2 .LASF5120
C:\Users\SOLDER~1\AppData\Local\Temp\ccKV8tJ7.s:33436  .debug_str:000000000002dd06 .LASF5121
C:\Users\SOLDER~1\AppData\Local\Temp\ccKV8tJ7.s:26304  .debug_str:0000000000010e65 .LASF5122
C:\Users\SOLDER~1\AppData\Local\Temp\ccKV8tJ7.s:29118  .debug_str:000000000001c3b4 .LASF5123
C:\Users\SOLDER~1\AppData\Local\Temp\ccKV8tJ7.s:27060  .debug_str:0000000000013f6b .LASF5124
C:\Users\SOLDER~1\AppData\Local\Temp\ccKV8tJ7.s:30206  .debug_str:0000000000020b0a .LASF5125
C:\Users\SOLDER~1\AppData\Local\Temp\ccKV8tJ7.s:27660  .debug_str:0000000000016652 .LASF5126
C:\Users\SOLDER~1\AppData\Local\Temp\ccKV8tJ7.s:26024  .debug_str:000000000000fc9b .LASF5127
C:\Users\SOLDER~1\AppData\Local\Temp\ccKV8tJ7.s:33764  .debug_str:000000000002f1d9 .LASF5128
C:\Users\SOLDER~1\AppData\Local\Temp\ccKV8tJ7.s:25314  .debug_str:000000000000ce3d .LASF5129
C:\Users\SOLDER~1\AppData\Local\Temp\ccKV8tJ7.s:29812  .debug_str:000000000001f174 .LASF5130
C:\Users\SOLDER~1\AppData\Local\Temp\ccKV8tJ7.s:22850  .debug_str:0000000000002f0b .LASF5131
C:\Users\SOLDER~1\AppData\Local\Temp\ccKV8tJ7.s:26398  .debug_str:0000000000011436 .LASF5132
C:\Users\SOLDER~1\AppData\Local\Temp\ccKV8tJ7.s:29580  .debug_str:000000000001e24d .LASF5133
C:\Users\SOLDER~1\AppData\Local\Temp\ccKV8tJ7.s:27290  .debug_str:0000000000014ee8 .LASF5134
C:\Users\SOLDER~1\AppData\Local\Temp\ccKV8tJ7.s:31450  .debug_str:0000000000025acc .LASF5135
C:\Users\SOLDER~1\AppData\Local\Temp\ccKV8tJ7.s:29086  .debug_str:000000000001c1a8 .LASF5136
C:\Users\SOLDER~1\AppData\Local\Temp\ccKV8tJ7.s:25472  .debug_str:000000000000d889 .LASF5137
C:\Users\SOLDER~1\AppData\Local\Temp\ccKV8tJ7.s:23638  .debug_str:0000000000006044 .LASF5138
C:\Users\SOLDER~1\AppData\Local\Temp\ccKV8tJ7.s:33716  .debug_str:000000000002eecb .LASF5139
C:\Users\SOLDER~1\AppData\Local\Temp\ccKV8tJ7.s:22430  .debug_str:00000000000013a8 .LASF5140
C:\Users\SOLDER~1\AppData\Local\Temp\ccKV8tJ7.s:25258  .debug_str:000000000000ca69 .LASF5141
C:\Users\SOLDER~1\AppData\Local\Temp\ccKV8tJ7.s:31880  .debug_str:000000000002779e .LASF5142
C:\Users\SOLDER~1\AppData\Local\Temp\ccKV8tJ7.s:28722  .debug_str:000000000001aaa4 .LASF5143
C:\Users\SOLDER~1\AppData\Local\Temp\ccKV8tJ7.s:24706  .debug_str:000000000000a61d .LASF5144
C:\Users\SOLDER~1\AppData\Local\Temp\ccKV8tJ7.s:22702  .debug_str:000000000000257d .LASF5145
C:\Users\SOLDER~1\AppData\Local\Temp\ccKV8tJ7.s:28798  .debug_str:000000000001af86 .LASF5146
C:\Users\SOLDER~1\AppData\Local\Temp\ccKV8tJ7.s:31544  .debug_str:000000000002612c .LASF5147
C:\Users\SOLDER~1\AppData\Local\Temp\ccKV8tJ7.s:24380  .debug_str:00000000000090dd .LASF5148
C:\Users\SOLDER~1\AppData\Local\Temp\ccKV8tJ7.s:31632  .debug_str:0000000000026755 .LASF5149
C:\Users\SOLDER~1\AppData\Local\Temp\ccKV8tJ7.s:23402  .debug_str:0000000000005117 .LASF5150
C:\Users\SOLDER~1\AppData\Local\Temp\ccKV8tJ7.s:22302  .debug_str:0000000000000b4c .LASF5151
C:\Users\SOLDER~1\AppData\Local\Temp\ccKV8tJ7.s:25262  .debug_str:000000000000cac3 .LASF5152
C:\Users\SOLDER~1\AppData\Local\Temp\ccKV8tJ7.s:26560  .debug_str:0000000000011e99 .LASF5153
C:\Users\SOLDER~1\AppData\Local\Temp\ccKV8tJ7.s:24850  .debug_str:000000000000afb3 .LASF5154
GAS LISTING C:\Users\SOLDER~1\AppData\Local\Temp\ccKV8tJ7.s 			page 180


C:\Users\SOLDER~1\AppData\Local\Temp\ccKV8tJ7.s:23686  .debug_str:0000000000006379 .LASF5155
C:\Users\SOLDER~1\AppData\Local\Temp\ccKV8tJ7.s:32104  .debug_str:000000000002865d .LASF5156
C:\Users\SOLDER~1\AppData\Local\Temp\ccKV8tJ7.s:30764  .debug_str:0000000000022e83 .LASF5157
C:\Users\SOLDER~1\AppData\Local\Temp\ccKV8tJ7.s:26978  .debug_str:000000000001393c .LASF5158
C:\Users\SOLDER~1\AppData\Local\Temp\ccKV8tJ7.s:30450  .debug_str:0000000000021adb .LASF5159
C:\Users\SOLDER~1\AppData\Local\Temp\ccKV8tJ7.s:31242  .debug_str:0000000000024db1 .LASF5160
C:\Users\SOLDER~1\AppData\Local\Temp\ccKV8tJ7.s:29262  .debug_str:000000000001cd6a .LASF5161
C:\Users\SOLDER~1\AppData\Local\Temp\ccKV8tJ7.s:27742  .debug_str:0000000000016b54 .LASF5162
C:\Users\SOLDER~1\AppData\Local\Temp\ccKV8tJ7.s:31084  .debug_str:000000000002435f .LASF5163
C:\Users\SOLDER~1\AppData\Local\Temp\ccKV8tJ7.s:33398  .debug_str:000000000002dac4 .LASF5164
C:\Users\SOLDER~1\AppData\Local\Temp\ccKV8tJ7.s:28618  .debug_str:000000000001a40c .LASF5165
C:\Users\SOLDER~1\AppData\Local\Temp\ccKV8tJ7.s:28956  .debug_str:000000000001b96b .LASF5166
C:\Users\SOLDER~1\AppData\Local\Temp\ccKV8tJ7.s:30238  .debug_str:0000000000020d30 .LASF5167
C:\Users\SOLDER~1\AppData\Local\Temp\ccKV8tJ7.s:29022  .debug_str:000000000001bd89 .LASF5168
C:\Users\SOLDER~1\AppData\Local\Temp\ccKV8tJ7.s:27838  .debug_str:000000000001713b .LASF5169
C:\Users\SOLDER~1\AppData\Local\Temp\ccKV8tJ7.s:31484  .debug_str:0000000000025d10 .LASF5170
C:\Users\SOLDER~1\AppData\Local\Temp\ccKV8tJ7.s:22496  .debug_str:000000000000181a .LASF5171
C:\Users\SOLDER~1\AppData\Local\Temp\ccKV8tJ7.s:26486  .debug_str:0000000000011a03 .LASF5172
C:\Users\SOLDER~1\AppData\Local\Temp\ccKV8tJ7.s:26494  .debug_str:0000000000011a88 .LASF5173
C:\Users\SOLDER~1\AppData\Local\Temp\ccKV8tJ7.s:24776  .debug_str:000000000000aae6 .LASF5174
C:\Users\SOLDER~1\AppData\Local\Temp\ccKV8tJ7.s:29748  .debug_str:000000000001ed33 .LASF5175
C:\Users\SOLDER~1\AppData\Local\Temp\ccKV8tJ7.s:24282  .debug_str:0000000000008a41 .LASF5176
C:\Users\SOLDER~1\AppData\Local\Temp\ccKV8tJ7.s:24154  .debug_str:000000000000822e .LASF5177
C:\Users\SOLDER~1\AppData\Local\Temp\ccKV8tJ7.s:23170  .debug_str:00000000000042e2 .LASF5178
C:\Users\SOLDER~1\AppData\Local\Temp\ccKV8tJ7.s:25428  .debug_str:000000000000d5b7 .LASF5179
C:\Users\SOLDER~1\AppData\Local\Temp\ccKV8tJ7.s:30276  .debug_str:0000000000020f90 .LASF5180
C:\Users\SOLDER~1\AppData\Local\Temp\ccKV8tJ7.s:25906  .debug_str:000000000000f4b1 .LASF5181
C:\Users\SOLDER~1\AppData\Local\Temp\ccKV8tJ7.s:22924  .debug_str:00000000000033c3 .LASF5182
C:\Users\SOLDER~1\AppData\Local\Temp\ccKV8tJ7.s:32736  .debug_str:000000000002af77 .LASF5183
C:\Users\SOLDER~1\AppData\Local\Temp\ccKV8tJ7.s:26224  .debug_str:0000000000010962 .LASF5184
C:\Users\SOLDER~1\AppData\Local\Temp\ccKV8tJ7.s:32546  .debug_str:000000000002a314 .LASF5185
C:\Users\SOLDER~1\AppData\Local\Temp\ccKV8tJ7.s:25988  .debug_str:000000000000fa09 .LASF5186
C:\Users\SOLDER~1\AppData\Local\Temp\ccKV8tJ7.s:22696  .debug_str:000000000000251a .LASF5187
C:\Users\SOLDER~1\AppData\Local\Temp\ccKV8tJ7.s:28634  .debug_str:000000000001a4f7 .LASF5188
C:\Users\SOLDER~1\AppData\Local\Temp\ccKV8tJ7.s:22972  .debug_str:00000000000036be .LASF5189
C:\Users\SOLDER~1\AppData\Local\Temp\ccKV8tJ7.s:23374  .debug_str:0000000000004f7d .LASF5190
C:\Users\SOLDER~1\AppData\Local\Temp\ccKV8tJ7.s:32636  .debug_str:000000000002a954 .LASF5191
C:\Users\SOLDER~1\AppData\Local\Temp\ccKV8tJ7.s:22192  .debug_str:0000000000000341 .LASF5192
C:\Users\SOLDER~1\AppData\Local\Temp\ccKV8tJ7.s:23880  .debug_str:00000000000070a6 .LASF5193
C:\Users\SOLDER~1\AppData\Local\Temp\ccKV8tJ7.s:32872  .debug_str:000000000002b8aa .LASF5194
C:\Users\SOLDER~1\AppData\Local\Temp\ccKV8tJ7.s:24772  .debug_str:000000000000aaa4 .LASF5195
C:\Users\SOLDER~1\AppData\Local\Temp\ccKV8tJ7.s:31636  .debug_str:00000000000267a9 .LASF5196
C:\Users\SOLDER~1\AppData\Local\Temp\ccKV8tJ7.s:33000  .debug_str:000000000002c0a2 .LASF5197
C:\Users\SOLDER~1\AppData\Local\Temp\ccKV8tJ7.s:26170  .debug_str:000000000001062b .LASF5198
C:\Users\SOLDER~1\AppData\Local\Temp\ccKV8tJ7.s:25162  .debug_str:000000000000c3d1 .LASF5199
C:\Users\SOLDER~1\AppData\Local\Temp\ccKV8tJ7.s:31300  .debug_str:0000000000025175 .LASF5200
C:\Users\SOLDER~1\AppData\Local\Temp\ccKV8tJ7.s:22716  .debug_str:0000000000002661 .LASF5201
C:\Users\SOLDER~1\AppData\Local\Temp\ccKV8tJ7.s:25716  .debug_str:000000000000e8b5 .LASF5202
C:\Users\SOLDER~1\AppData\Local\Temp\ccKV8tJ7.s:33632  .debug_str:000000000002e96f .LASF5203
C:\Users\SOLDER~1\AppData\Local\Temp\ccKV8tJ7.s:26420  .debug_str:0000000000011594 .LASF5204
C:\Users\SOLDER~1\AppData\Local\Temp\ccKV8tJ7.s:29320  .debug_str:000000000001d181 .LASF5205
C:\Users\SOLDER~1\AppData\Local\Temp\ccKV8tJ7.s:28030  .debug_str:0000000000017e09 .LASF5206
C:\Users\SOLDER~1\AppData\Local\Temp\ccKV8tJ7.s:26068  .debug_str:000000000000ffb1 .LASF5207
C:\Users\SOLDER~1\AppData\Local\Temp\ccKV8tJ7.s:33600  .debug_str:000000000002e75d .LASF5208
C:\Users\SOLDER~1\AppData\Local\Temp\ccKV8tJ7.s:29666  .debug_str:000000000001e7b4 .LASF5209
C:\Users\SOLDER~1\AppData\Local\Temp\ccKV8tJ7.s:22438  .debug_str:000000000000143c .LASF5210
C:\Users\SOLDER~1\AppData\Local\Temp\ccKV8tJ7.s:27522  .debug_str:0000000000015d97 .LASF5211
GAS LISTING C:\Users\SOLDER~1\AppData\Local\Temp\ccKV8tJ7.s 			page 181


C:\Users\SOLDER~1\AppData\Local\Temp\ccKV8tJ7.s:31816  .debug_str:0000000000027368 .LASF5212
C:\Users\SOLDER~1\AppData\Local\Temp\ccKV8tJ7.s:26622  .debug_str:0000000000012230 .LASF5213
C:\Users\SOLDER~1\AppData\Local\Temp\ccKV8tJ7.s:32052  .debug_str:00000000000282de .LASF5214
C:\Users\SOLDER~1\AppData\Local\Temp\ccKV8tJ7.s:22526  .debug_str:00000000000019c7 .LASF5215
C:\Users\SOLDER~1\AppData\Local\Temp\ccKV8tJ7.s:30688  .debug_str:000000000002296d .LASF5216
C:\Users\SOLDER~1\AppData\Local\Temp\ccKV8tJ7.s:28612  .debug_str:000000000001a3a6 .LASF5217
C:\Users\SOLDER~1\AppData\Local\Temp\ccKV8tJ7.s:27544  .debug_str:0000000000015efd .LASF5218
C:\Users\SOLDER~1\AppData\Local\Temp\ccKV8tJ7.s:24786  .debug_str:000000000000ab69 .LASF5219
C:\Users\SOLDER~1\AppData\Local\Temp\ccKV8tJ7.s:22280  .debug_str:00000000000009cd .LASF5220
C:\Users\SOLDER~1\AppData\Local\Temp\ccKV8tJ7.s:29774  .debug_str:000000000001ef03 .LASF5221
C:\Users\SOLDER~1\AppData\Local\Temp\ccKV8tJ7.s:32594  .debug_str:000000000002a655 .LASF5222
C:\Users\SOLDER~1\AppData\Local\Temp\ccKV8tJ7.s:27974  .debug_str:0000000000017a7b .LASF5223
C:\Users\SOLDER~1\AppData\Local\Temp\ccKV8tJ7.s:26134  .debug_str:00000000000103c1 .LASF5224
C:\Users\SOLDER~1\AppData\Local\Temp\ccKV8tJ7.s:22844  .debug_str:0000000000002ea9 .LASF5225
C:\Users\SOLDER~1\AppData\Local\Temp\ccKV8tJ7.s:23990  .debug_str:000000000000776d .LASF5226
C:\Users\SOLDER~1\AppData\Local\Temp\ccKV8tJ7.s:29550  .debug_str:000000000001e032 .LASF5227
C:\Users\SOLDER~1\AppData\Local\Temp\ccKV8tJ7.s:24088  .debug_str:0000000000007dc7 .LASF5228
C:\Users\SOLDER~1\AppData\Local\Temp\ccKV8tJ7.s:29210  .debug_str:000000000001c9fb .LASF5229
C:\Users\SOLDER~1\AppData\Local\Temp\ccKV8tJ7.s:22916  .debug_str:0000000000003343 .LASF5230
C:\Users\SOLDER~1\AppData\Local\Temp\ccKV8tJ7.s:23524  .debug_str:00000000000058da .LASF5231
C:\Users\SOLDER~1\AppData\Local\Temp\ccKV8tJ7.s:29194  .debug_str:000000000001c8c4 .LASF5232
C:\Users\SOLDER~1\AppData\Local\Temp\ccKV8tJ7.s:22934  .debug_str:000000000000347e .LASF5233
C:\Users\SOLDER~1\AppData\Local\Temp\ccKV8tJ7.s:33144  .debug_str:000000000002ca5b .LASF5234
C:\Users\SOLDER~1\AppData\Local\Temp\ccKV8tJ7.s:25856  .debug_str:000000000000f198 .LASF5235
C:\Users\SOLDER~1\AppData\Local\Temp\ccKV8tJ7.s:26236  .debug_str:0000000000010a4d .LASF5236
C:\Users\SOLDER~1\AppData\Local\Temp\ccKV8tJ7.s:23120  .debug_str:0000000000003fb1 .LASF5237
C:\Users\SOLDER~1\AppData\Local\Temp\ccKV8tJ7.s:23496  .debug_str:00000000000056e6 .LASF5238
C:\Users\SOLDER~1\AppData\Local\Temp\ccKV8tJ7.s:22360  .debug_str:0000000000000f45 .LASF5239
C:\Users\SOLDER~1\AppData\Local\Temp\ccKV8tJ7.s:26968  .debug_str:00000000000138ac .LASF5240
C:\Users\SOLDER~1\AppData\Local\Temp\ccKV8tJ7.s:30902  .debug_str:0000000000023778 .LASF5241
C:\Users\SOLDER~1\AppData\Local\Temp\ccKV8tJ7.s:28384  .debug_str:0000000000019568 .LASF5242
C:\Users\SOLDER~1\AppData\Local\Temp\ccKV8tJ7.s:27828  .debug_str:0000000000017091 .LASF5243
C:\Users\SOLDER~1\AppData\Local\Temp\ccKV8tJ7.s:25790  .debug_str:000000000000ed53 .LASF5244
C:\Users\SOLDER~1\AppData\Local\Temp\ccKV8tJ7.s:23876  .debug_str:0000000000007059 .LASF5245
C:\Users\SOLDER~1\AppData\Local\Temp\ccKV8tJ7.s:24130  .debug_str:00000000000080b4 .LASF5246
C:\Users\SOLDER~1\AppData\Local\Temp\ccKV8tJ7.s:32380  .debug_str:000000000002983a .LASF5247
C:\Users\SOLDER~1\AppData\Local\Temp\ccKV8tJ7.s:27722  .debug_str:00000000000169fd .LASF5248
C:\Users\SOLDER~1\AppData\Local\Temp\ccKV8tJ7.s:25252  .debug_str:000000000000ca05 .LASF5249
C:\Users\SOLDER~1\AppData\Local\Temp\ccKV8tJ7.s:31044  .debug_str:00000000000240b0 .LASF5250
C:\Users\SOLDER~1\AppData\Local\Temp\ccKV8tJ7.s:29128  .debug_str:000000000001c45a .LASF5251
C:\Users\SOLDER~1\AppData\Local\Temp\ccKV8tJ7.s:29336  .debug_str:000000000001d281 .LASF5252
C:\Users\SOLDER~1\AppData\Local\Temp\ccKV8tJ7.s:26382  .debug_str:0000000000011347 .LASF5253
C:\Users\SOLDER~1\AppData\Local\Temp\ccKV8tJ7.s:24922  .debug_str:000000000000b439 .LASF5254
C:\Users\SOLDER~1\AppData\Local\Temp\ccKV8tJ7.s:29644  .debug_str:000000000001e654 .LASF5255
C:\Users\SOLDER~1\AppData\Local\Temp\ccKV8tJ7.s:30012  .debug_str:000000000001fe8f .LASF5256
C:\Users\SOLDER~1\AppData\Local\Temp\ccKV8tJ7.s:24544  .debug_str:0000000000009b58 .LASF5257
C:\Users\SOLDER~1\AppData\Local\Temp\ccKV8tJ7.s:32848  .debug_str:000000000002b6fe .LASF5258
C:\Users\SOLDER~1\AppData\Local\Temp\ccKV8tJ7.s:31628  .debug_str:0000000000026705 .LASF5259
C:\Users\SOLDER~1\AppData\Local\Temp\ccKV8tJ7.s:22614  .debug_str:0000000000001fab .LASF5260
C:\Users\SOLDER~1\AppData\Local\Temp\ccKV8tJ7.s:26886  .debug_str:0000000000013319 .LASF5261
C:\Users\SOLDER~1\AppData\Local\Temp\ccKV8tJ7.s:23180  .debug_str:0000000000004375 .LASF5262
C:\Users\SOLDER~1\AppData\Local\Temp\ccKV8tJ7.s:26942  .debug_str:00000000000136ef .LASF5263
C:\Users\SOLDER~1\AppData\Local\Temp\ccKV8tJ7.s:24660  .debug_str:000000000000a2f0 .LASF5264
C:\Users\SOLDER~1\AppData\Local\Temp\ccKV8tJ7.s:30694  .debug_str:00000000000229df .LASF5265
C:\Users\SOLDER~1\AppData\Local\Temp\ccKV8tJ7.s:27586  .debug_str:000000000001619e .LASF5266
C:\Users\SOLDER~1\AppData\Local\Temp\ccKV8tJ7.s:32508  .debug_str:000000000002a07b .LASF5267
C:\Users\SOLDER~1\AppData\Local\Temp\ccKV8tJ7.s:28282  .debug_str:0000000000018ec3 .LASF5268
GAS LISTING C:\Users\SOLDER~1\AppData\Local\Temp\ccKV8tJ7.s 			page 182


C:\Users\SOLDER~1\AppData\Local\Temp\ccKV8tJ7.s:31956  .debug_str:0000000000027c9d .LASF5269
C:\Users\SOLDER~1\AppData\Local\Temp\ccKV8tJ7.s:29752  .debug_str:000000000001ed8a .LASF5270
C:\Users\SOLDER~1\AppData\Local\Temp\ccKV8tJ7.s:26736  .debug_str:0000000000012927 .LASF5271
C:\Users\SOLDER~1\AppData\Local\Temp\ccKV8tJ7.s:27912  .debug_str:000000000001764e .LASF5272
C:\Users\SOLDER~1\AppData\Local\Temp\ccKV8tJ7.s:29404  .debug_str:000000000001d718 .LASF5273
C:\Users\SOLDER~1\AppData\Local\Temp\ccKV8tJ7.s:22524  .debug_str:000000000000199c .LASF5274
C:\Users\SOLDER~1\AppData\Local\Temp\ccKV8tJ7.s:30964  .debug_str:0000000000023bb4 .LASF5275
C:\Users\SOLDER~1\AppData\Local\Temp\ccKV8tJ7.s:27450  .debug_str:00000000000158f5 .LASF5276
C:\Users\SOLDER~1\AppData\Local\Temp\ccKV8tJ7.s:23858  .debug_str:0000000000006f2b .LASF5277
C:\Users\SOLDER~1\AppData\Local\Temp\ccKV8tJ7.s:23406  .debug_str:000000000000516b .LASF5278
C:\Users\SOLDER~1\AppData\Local\Temp\ccKV8tJ7.s:26292  .debug_str:0000000000010dbe .LASF5279
C:\Users\SOLDER~1\AppData\Local\Temp\ccKV8tJ7.s:24388  .debug_str:0000000000009182 .LASF5280
C:\Users\SOLDER~1\AppData\Local\Temp\ccKV8tJ7.s:31334  .debug_str:00000000000253ae .LASF5281
C:\Users\SOLDER~1\AppData\Local\Temp\ccKV8tJ7.s:32386  .debug_str:00000000000298a8 .LASF5282
C:\Users\SOLDER~1\AppData\Local\Temp\ccKV8tJ7.s:23528  .debug_str:0000000000005920 .LASF5283
C:\Users\SOLDER~1\AppData\Local\Temp\ccKV8tJ7.s:27580  .debug_str:000000000001613c .LASF5284
C:\Users\SOLDER~1\AppData\Local\Temp\ccKV8tJ7.s:25144  .debug_str:000000000000c2a9 .LASF5285
C:\Users\SOLDER~1\AppData\Local\Temp\ccKV8tJ7.s:24038  .debug_str:0000000000007a65 .LASF5286
C:\Users\SOLDER~1\AppData\Local\Temp\ccKV8tJ7.s:23914  .debug_str:00000000000072cc .LASF5287
C:\Users\SOLDER~1\AppData\Local\Temp\ccKV8tJ7.s:30542  .debug_str:00000000000220b1 .LASF5288
C:\Users\SOLDER~1\AppData\Local\Temp\ccKV8tJ7.s:28532  .debug_str:0000000000019ee3 .LASF5289
C:\Users\SOLDER~1\AppData\Local\Temp\ccKV8tJ7.s:31968  .debug_str:0000000000027d5f .LASF5290
C:\Users\SOLDER~1\AppData\Local\Temp\ccKV8tJ7.s:33804  .debug_str:000000000002f444 .LASF5291
C:\Users\SOLDER~1\AppData\Local\Temp\ccKV8tJ7.s:30758  .debug_str:0000000000022e0a .LASF5292
C:\Users\SOLDER~1\AppData\Local\Temp\ccKV8tJ7.s:33268  .debug_str:000000000002d210 .LASF5293
C:\Users\SOLDER~1\AppData\Local\Temp\ccKV8tJ7.s:22996  .debug_str:0000000000003855 .LASF5294
C:\Users\SOLDER~1\AppData\Local\Temp\ccKV8tJ7.s:32910  .debug_str:000000000002bad1 .LASF5295
C:\Users\SOLDER~1\AppData\Local\Temp\ccKV8tJ7.s:33348  .debug_str:000000000002d792 .LASF5296
C:\Users\SOLDER~1\AppData\Local\Temp\ccKV8tJ7.s:28054  .debug_str:0000000000017faf .LASF5297
C:\Users\SOLDER~1\AppData\Local\Temp\ccKV8tJ7.s:22884  .debug_str:000000000000313b .LASF5298
C:\Users\SOLDER~1\AppData\Local\Temp\ccKV8tJ7.s:25268  .debug_str:000000000000cb3d .LASF5299
C:\Users\SOLDER~1\AppData\Local\Temp\ccKV8tJ7.s:32978  .debug_str:000000000002bf52 .LASF5300
C:\Users\SOLDER~1\AppData\Local\Temp\ccKV8tJ7.s:32360  .debug_str:00000000000296e7 .LASF5301
C:\Users\SOLDER~1\AppData\Local\Temp\ccKV8tJ7.s:33300  .debug_str:000000000002d417 .LASF5302
C:\Users\SOLDER~1\AppData\Local\Temp\ccKV8tJ7.s:30678  .debug_str:00000000000228b6 .LASF5303
C:\Users\SOLDER~1\AppData\Local\Temp\ccKV8tJ7.s:26372  .debug_str:0000000000011299 .LASF5304
C:\Users\SOLDER~1\AppData\Local\Temp\ccKV8tJ7.s:23518  .debug_str:0000000000005884 .LASF5305
C:\Users\SOLDER~1\AppData\Local\Temp\ccKV8tJ7.s:32938  .debug_str:000000000002bcbc .LASF5306
C:\Users\SOLDER~1\AppData\Local\Temp\ccKV8tJ7.s:27484  .debug_str:0000000000015b38 .LASF5307
C:\Users\SOLDER~1\AppData\Local\Temp\ccKV8tJ7.s:27174  .debug_str:000000000001474d .LASF5308
C:\Users\SOLDER~1\AppData\Local\Temp\ccKV8tJ7.s:32116  .debug_str:0000000000028740 .LASF5309
C:\Users\SOLDER~1\AppData\Local\Temp\ccKV8tJ7.s:22946  .debug_str:000000000000354f .LASF5310
C:\Users\SOLDER~1\AppData\Local\Temp\ccKV8tJ7.s:27096  .debug_str:00000000000141bd .LASF5311
C:\Users\SOLDER~1\AppData\Local\Temp\ccKV8tJ7.s:28626  .debug_str:000000000001a474 .LASF5312
C:\Users\SOLDER~1\AppData\Local\Temp\ccKV8tJ7.s:22852  .debug_str:0000000000002f31 .LASF5313
C:\Users\SOLDER~1\AppData\Local\Temp\ccKV8tJ7.s:24098  .debug_str:0000000000007e7c .LASF5314
C:\Users\SOLDER~1\AppData\Local\Temp\ccKV8tJ7.s:28606  .debug_str:000000000001a358 .LASF5315
C:\Users\SOLDER~1\AppData\Local\Temp\ccKV8tJ7.s:27636  .debug_str:00000000000164e4 .LASF5316
C:\Users\SOLDER~1\AppData\Local\Temp\ccKV8tJ7.s:31248  .debug_str:0000000000024e12 .LASF5317
C:\Users\SOLDER~1\AppData\Local\Temp\ccKV8tJ7.s:26638  .debug_str:000000000001234e .LASF5318
C:\Users\SOLDER~1\AppData\Local\Temp\ccKV8tJ7.s:33046  .debug_str:000000000002c3a4 .LASF5319
C:\Users\SOLDER~1\AppData\Local\Temp\ccKV8tJ7.s:27186  .debug_str:0000000000014821 .LASF5320
C:\Users\SOLDER~1\AppData\Local\Temp\ccKV8tJ7.s:25426  .debug_str:000000000000d597 .LASF5321
C:\Users\SOLDER~1\AppData\Local\Temp\ccKV8tJ7.s:33174  .debug_str:000000000002cc35 .LASF5322
C:\Users\SOLDER~1\AppData\Local\Temp\ccKV8tJ7.s:31494  .debug_str:0000000000025dcc .LASF5323
C:\Users\SOLDER~1\AppData\Local\Temp\ccKV8tJ7.s:26582  .debug_str:0000000000011fc2 .LASF5324
C:\Users\SOLDER~1\AppData\Local\Temp\ccKV8tJ7.s:23298  .debug_str:0000000000004ac6 .LASF5325
GAS LISTING C:\Users\SOLDER~1\AppData\Local\Temp\ccKV8tJ7.s 			page 183


C:\Users\SOLDER~1\AppData\Local\Temp\ccKV8tJ7.s:23486  .debug_str:0000000000005627 .LASF5326
C:\Users\SOLDER~1\AppData\Local\Temp\ccKV8tJ7.s:28584  .debug_str:000000000001a1d9 .LASF5327
C:\Users\SOLDER~1\AppData\Local\Temp\ccKV8tJ7.s:30760  .debug_str:0000000000022e2a .LASF5328
C:\Users\SOLDER~1\AppData\Local\Temp\ccKV8tJ7.s:22418  .debug_str:0000000000001301 .LASF5329
C:\Users\SOLDER~1\AppData\Local\Temp\ccKV8tJ7.s:26002  .debug_str:000000000000fb31 .LASF5330
C:\Users\SOLDER~1\AppData\Local\Temp\ccKV8tJ7.s:31470  .debug_str:0000000000025c1e .LASF5331
C:\Users\SOLDER~1\AppData\Local\Temp\ccKV8tJ7.s:22208  .debug_str:0000000000000453 .LASF5332
C:\Users\SOLDER~1\AppData\Local\Temp\ccKV8tJ7.s:27452  .debug_str:0000000000015922 .LASF5333
C:\Users\SOLDER~1\AppData\Local\Temp\ccKV8tJ7.s:33828  .debug_str:000000000002f5be .LASF5334
C:\Users\SOLDER~1\AppData\Local\Temp\ccKV8tJ7.s:28438  .debug_str:000000000001993b .LASF5335
C:\Users\SOLDER~1\AppData\Local\Temp\ccKV8tJ7.s:33106  .debug_str:000000000002c7e6 .LASF5336
C:\Users\SOLDER~1\AppData\Local\Temp\ccKV8tJ7.s:28418  .debug_str:00000000000197cb .LASF5337
C:\Users\SOLDER~1\AppData\Local\Temp\ccKV8tJ7.s:26154  .debug_str:0000000000010505 .LASF5338
C:\Users\SOLDER~1\AppData\Local\Temp\ccKV8tJ7.s:24054  .debug_str:0000000000007b7f .LASF5339
C:\Users\SOLDER~1\AppData\Local\Temp\ccKV8tJ7.s:26846  .debug_str:0000000000013076 .LASF5340
C:\Users\SOLDER~1\AppData\Local\Temp\ccKV8tJ7.s:30088  .debug_str:0000000000020372 .LASF5341
C:\Users\SOLDER~1\AppData\Local\Temp\ccKV8tJ7.s:33606  .debug_str:000000000002e7cf .LASF5342
C:\Users\SOLDER~1\AppData\Local\Temp\ccKV8tJ7.s:25026  .debug_str:000000000000bae1 .LASF5343
C:\Users\SOLDER~1\AppData\Local\Temp\ccKV8tJ7.s:28786  .debug_str:000000000001aec3 .LASF5344
C:\Users\SOLDER~1\AppData\Local\Temp\ccKV8tJ7.s:33312  .debug_str:000000000002d4f0 .LASF5345
C:\Users\SOLDER~1\AppData\Local\Temp\ccKV8tJ7.s:31212  .debug_str:0000000000024bc0 .LASF5346
C:\Users\SOLDER~1\AppData\Local\Temp\ccKV8tJ7.s:28706  .debug_str:000000000001a985 .LASF5347
C:\Users\SOLDER~1\AppData\Local\Temp\ccKV8tJ7.s:29414  .debug_str:000000000001d7c7 .LASF5348
C:\Users\SOLDER~1\AppData\Local\Temp\ccKV8tJ7.s:24982  .debug_str:000000000000b7fd .LASF5349
C:\Users\SOLDER~1\AppData\Local\Temp\ccKV8tJ7.s:28188  .debug_str:0000000000018891 .LASF5350
C:\Users\SOLDER~1\AppData\Local\Temp\ccKV8tJ7.s:31986  .debug_str:0000000000027e7c .LASF5351
C:\Users\SOLDER~1\AppData\Local\Temp\ccKV8tJ7.s:26050  .debug_str:000000000000fe86 .LASF5352
C:\Users\SOLDER~1\AppData\Local\Temp\ccKV8tJ7.s:28264  .debug_str:0000000000018d9c .LASF5353
C:\Users\SOLDER~1\AppData\Local\Temp\ccKV8tJ7.s:27246  .debug_str:0000000000014bf7 .LASF5354
C:\Users\SOLDER~1\AppData\Local\Temp\ccKV8tJ7.s:32928  .debug_str:000000000002bc0a .LASF5355
C:\Users\SOLDER~1\AppData\Local\Temp\ccKV8tJ7.s:33392  .debug_str:000000000002da6d .LASF5356
C:\Users\SOLDER~1\AppData\Local\Temp\ccKV8tJ7.s:33232  .debug_str:000000000002cfd5 .LASF5357
C:\Users\SOLDER~1\AppData\Local\Temp\ccKV8tJ7.s:23624  .debug_str:0000000000005f3a .LASF5358
C:\Users\SOLDER~1\AppData\Local\Temp\ccKV8tJ7.s:31310  .debug_str:000000000002521e .LASF5359
C:\Users\SOLDER~1\AppData\Local\Temp\ccKV8tJ7.s:24790  .debug_str:000000000000abb7 .LASF5360
C:\Users\SOLDER~1\AppData\Local\Temp\ccKV8tJ7.s:24734  .debug_str:000000000000a811 .LASF5361
C:\Users\SOLDER~1\AppData\Local\Temp\ccKV8tJ7.s:28446  .debug_str:00000000000199cc .LASF5362
C:\Users\SOLDER~1\AppData\Local\Temp\ccKV8tJ7.s:31908  .debug_str:0000000000027994 .LASF5363
C:\Users\SOLDER~1\AppData\Local\Temp\ccKV8tJ7.s:25234  .debug_str:000000000000c8e5 .LASF5364
C:\Users\SOLDER~1\AppData\Local\Temp\ccKV8tJ7.s:26368  .debug_str:0000000000011250 .LASF5365
C:\Users\SOLDER~1\AppData\Local\Temp\ccKV8tJ7.s:24760  .debug_str:000000000000a9cd .LASF5366
C:\Users\SOLDER~1\AppData\Local\Temp\ccKV8tJ7.s:33264  .debug_str:000000000002d1d4 .LASF5367
C:\Users\SOLDER~1\AppData\Local\Temp\ccKV8tJ7.s:25962  .debug_str:000000000000f852 .LASF5368
C:\Users\SOLDER~1\AppData\Local\Temp\ccKV8tJ7.s:30804  .debug_str:000000000002313d .LASF5369
C:\Users\SOLDER~1\AppData\Local\Temp\ccKV8tJ7.s:29220  .debug_str:000000000001ca9e .LASF5370
C:\Users\SOLDER~1\AppData\Local\Temp\ccKV8tJ7.s:24296  .debug_str:0000000000008b32 .LASF5371
C:\Users\SOLDER~1\AppData\Local\Temp\ccKV8tJ7.s:32142  .debug_str:00000000000288c9 .LASF5372
C:\Users\SOLDER~1\AppData\Local\Temp\ccKV8tJ7.s:33530  .debug_str:000000000002e300 .LASF5373
C:\Users\SOLDER~1\AppData\Local\Temp\ccKV8tJ7.s:23490  .debug_str:0000000000005674 .LASF5374
C:\Users\SOLDER~1\AppData\Local\Temp\ccKV8tJ7.s:27190  .debug_str:0000000000014869 .LASF5375
C:\Users\SOLDER~1\AppData\Local\Temp\ccKV8tJ7.s:32940  .debug_str:000000000002bcdd .LASF5376
C:\Users\SOLDER~1\AppData\Local\Temp\ccKV8tJ7.s:33332  .debug_str:000000000002d661 .LASF5377
C:\Users\SOLDER~1\AppData\Local\Temp\ccKV8tJ7.s:26442  .debug_str:000000000001175f .LASF5378
C:\Users\SOLDER~1\AppData\Local\Temp\ccKV8tJ7.s:23278  .debug_str:0000000000004994 .LASF5379
C:\Users\SOLDER~1\AppData\Local\Temp\ccKV8tJ7.s:22926  .debug_str:00000000000033e6 .LASF5380
C:\Users\SOLDER~1\AppData\Local\Temp\ccKV8tJ7.s:28952  .debug_str:000000000001b923 .LASF5381
C:\Users\SOLDER~1\AppData\Local\Temp\ccKV8tJ7.s:32278  .debug_str:00000000000291bf .LASF5382
GAS LISTING C:\Users\SOLDER~1\AppData\Local\Temp\ccKV8tJ7.s 			page 184


C:\Users\SOLDER~1\AppData\Local\Temp\ccKV8tJ7.s:24730  .debug_str:000000000000a7d9 .LASF5383
C:\Users\SOLDER~1\AppData\Local\Temp\ccKV8tJ7.s:25996  .debug_str:000000000000facf .LASF5384
C:\Users\SOLDER~1\AppData\Local\Temp\ccKV8tJ7.s:29382  .debug_str:000000000001d59b .LASF5385
C:\Users\SOLDER~1\AppData\Local\Temp\ccKV8tJ7.s:30256  .debug_str:0000000000020e4f .LASF5386
C:\Users\SOLDER~1\AppData\Local\Temp\ccKV8tJ7.s:24596  .debug_str:0000000000009ecd .LASF5387
C:\Users\SOLDER~1\AppData\Local\Temp\ccKV8tJ7.s:22548  .debug_str:0000000000001b4b .LASF5388
C:\Users\SOLDER~1\AppData\Local\Temp\ccKV8tJ7.s:28508  .debug_str:0000000000019d4b .LASF5389
C:\Users\SOLDER~1\AppData\Local\Temp\ccKV8tJ7.s:23306  .debug_str:0000000000004b53 .LASF5390
C:\Users\SOLDER~1\AppData\Local\Temp\ccKV8tJ7.s:33104  .debug_str:000000000002c7c3 .LASF5391
C:\Users\SOLDER~1\AppData\Local\Temp\ccKV8tJ7.s:30134  .debug_str:0000000000020662 .LASF5392
C:\Users\SOLDER~1\AppData\Local\Temp\ccKV8tJ7.s:30628  .debug_str:00000000000225e0 .LASF5393
C:\Users\SOLDER~1\AppData\Local\Temp\ccKV8tJ7.s:27686  .debug_str:00000000000167f6 .LASF5394
C:\Users\SOLDER~1\AppData\Local\Temp\ccKV8tJ7.s:26190  .debug_str:0000000000010761 .LASF5395
C:\Users\SOLDER~1\AppData\Local\Temp\ccKV8tJ7.s:27548  .debug_str:0000000000015f45 .LASF5396
C:\Users\SOLDER~1\AppData\Local\Temp\ccKV8tJ7.s:26518  .debug_str:0000000000011c0c .LASF5397
C:\Users\SOLDER~1\AppData\Local\Temp\ccKV8tJ7.s:31574  .debug_str:000000000002633c .LASF5398
C:\Users\SOLDER~1\AppData\Local\Temp\ccKV8tJ7.s:26070  .debug_str:000000000000ffd8 .LASF5399
C:\Users\SOLDER~1\AppData\Local\Temp\ccKV8tJ7.s:24932  .debug_str:000000000000b4e8 .LASF5400
C:\Users\SOLDER~1\AppData\Local\Temp\ccKV8tJ7.s:26844  .debug_str:0000000000013051 .LASF5401
C:\Users\SOLDER~1\AppData\Local\Temp\ccKV8tJ7.s:25898  .debug_str:000000000000f431 .LASF5402
C:\Users\SOLDER~1\AppData\Local\Temp\ccKV8tJ7.s:23024  .debug_str:0000000000003a0a .LASF5403
C:\Users\SOLDER~1\AppData\Local\Temp\ccKV8tJ7.s:24712  .debug_str:000000000000a6a7 .LASF5404
C:\Users\SOLDER~1\AppData\Local\Temp\ccKV8tJ7.s:25468  .debug_str:000000000000d83e .LASF5405
C:\Users\SOLDER~1\AppData\Local\Temp\ccKV8tJ7.s:24648  .debug_str:000000000000a252 .LASF5406
C:\Users\SOLDER~1\AppData\Local\Temp\ccKV8tJ7.s:24560  .debug_str:0000000000009c4e .LASF5407
C:\Users\SOLDER~1\AppData\Local\Temp\ccKV8tJ7.s:33064  .debug_str:000000000002c4e7 .LASF5408
C:\Users\SOLDER~1\AppData\Local\Temp\ccKV8tJ7.s:27820  .debug_str:0000000000017006 .LASF5409
C:\Users\SOLDER~1\AppData\Local\Temp\ccKV8tJ7.s:28620  .debug_str:000000000001a41e .LASF5410
C:\Users\SOLDER~1\AppData\Local\Temp\ccKV8tJ7.s:27428  .debug_str:000000000001579d .LASF5411
C:\Users\SOLDER~1\AppData\Local\Temp\ccKV8tJ7.s:30494  .debug_str:0000000000021d87 .LASF5412
C:\Users\SOLDER~1\AppData\Local\Temp\ccKV8tJ7.s:31626  .debug_str:00000000000266df .LASF5413
C:\Users\SOLDER~1\AppData\Local\Temp\ccKV8tJ7.s:25012  .debug_str:000000000000b9fb .LASF5414
C:\Users\SOLDER~1\AppData\Local\Temp\ccKV8tJ7.s:23850  .debug_str:0000000000006e77 .LASF5415
C:\Users\SOLDER~1\AppData\Local\Temp\ccKV8tJ7.s:24432  .debug_str:000000000000947a .LASF5416
C:\Users\SOLDER~1\AppData\Local\Temp\ccKV8tJ7.s:25020  .debug_str:000000000000ba6f .LASF5417
C:\Users\SOLDER~1\AppData\Local\Temp\ccKV8tJ7.s:25954  .debug_str:000000000000f7c1 .LASF5418
C:\Users\SOLDER~1\AppData\Local\Temp\ccKV8tJ7.s:28744  .debug_str:000000000001ac0f .LASF5419
C:\Users\SOLDER~1\AppData\Local\Temp\ccKV8tJ7.s:29368  .debug_str:000000000001d471 .LASF5420
C:\Users\SOLDER~1\AppData\Local\Temp\ccKV8tJ7.s:33188  .debug_str:000000000002cd10 .LASF5421
C:\Users\SOLDER~1\AppData\Local\Temp\ccKV8tJ7.s:32732  .debug_str:000000000002af3a .LASF5422
C:\Users\SOLDER~1\AppData\Local\Temp\ccKV8tJ7.s:29284  .debug_str:000000000001cf06 .LASF5423
C:\Users\SOLDER~1\AppData\Local\Temp\ccKV8tJ7.s:25994  .debug_str:000000000000faa3 .LASF5424
C:\Users\SOLDER~1\AppData\Local\Temp\ccKV8tJ7.s:27826  .debug_str:0000000000017066 .LASF5425
C:\Users\SOLDER~1\AppData\Local\Temp\ccKV8tJ7.s:25334  .debug_str:000000000000cfa6 .LASF5426
C:\Users\SOLDER~1\AppData\Local\Temp\ccKV8tJ7.s:24558  .debug_str:0000000000009c2b .LASF5427
C:\Users\SOLDER~1\AppData\Local\Temp\ccKV8tJ7.s:31452  .debug_str:0000000000025aef .LASF5428
C:\Users\SOLDER~1\AppData\Local\Temp\ccKV8tJ7.s:26076  .debug_str:000000000001003b .LASF5429
C:\Users\SOLDER~1\AppData\Local\Temp\ccKV8tJ7.s:33508  .debug_str:000000000002e1af .LASF5430
C:\Users\SOLDER~1\AppData\Local\Temp\ccKV8tJ7.s:29744  .debug_str:000000000001ece8 .LASF5431
C:\Users\SOLDER~1\AppData\Local\Temp\ccKV8tJ7.s:22290  .debug_str:0000000000000a85 .LASF5432
C:\Users\SOLDER~1\AppData\Local\Temp\ccKV8tJ7.s:27026  .debug_str:0000000000013d0d .LASF5433
C:\Users\SOLDER~1\AppData\Local\Temp\ccKV8tJ7.s:24894  .debug_str:000000000000b253 .LASF5434
C:\Users\SOLDER~1\AppData\Local\Temp\ccKV8tJ7.s:28776  .debug_str:000000000001adf4 .LASF5435
C:\Users\SOLDER~1\AppData\Local\Temp\ccKV8tJ7.s:24994  .debug_str:000000000000b8bc .LASF5436
C:\Users\SOLDER~1\AppData\Local\Temp\ccKV8tJ7.s:27858  .debug_str:000000000001728f .LASF5437
C:\Users\SOLDER~1\AppData\Local\Temp\ccKV8tJ7.s:32634  .debug_str:000000000002a931 .LASF5438
C:\Users\SOLDER~1\AppData\Local\Temp\ccKV8tJ7.s:25728  .debug_str:000000000000e980 .LASF5439
GAS LISTING C:\Users\SOLDER~1\AppData\Local\Temp\ccKV8tJ7.s 			page 185


C:\Users\SOLDER~1\AppData\Local\Temp\ccKV8tJ7.s:29000  .debug_str:000000000001bbf2 .LASF5440
C:\Users\SOLDER~1\AppData\Local\Temp\ccKV8tJ7.s:25476  .debug_str:000000000000d8e5 .LASF5441
C:\Users\SOLDER~1\AppData\Local\Temp\ccKV8tJ7.s:31760  .debug_str:0000000000026ff4 .LASF5442
C:\Users\SOLDER~1\AppData\Local\Temp\ccKV8tJ7.s:31096  .debug_str:0000000000024421 .LASF5443
C:\Users\SOLDER~1\AppData\Local\Temp\ccKV8tJ7.s:33036  .debug_str:000000000002c2f0 .LASF5444
C:\Users\SOLDER~1\AppData\Local\Temp\ccKV8tJ7.s:25360  .debug_str:000000000000d14b .LASF5445
C:\Users\SOLDER~1\AppData\Local\Temp\ccKV8tJ7.s:31040  .debug_str:000000000002406e .LASF5446
C:\Users\SOLDER~1\AppData\Local\Temp\ccKV8tJ7.s:28196  .debug_str:000000000001892d .LASF5447
C:\Users\SOLDER~1\AppData\Local\Temp\ccKV8tJ7.s:33780  .debug_str:000000000002f2cd .LASF5448
C:\Users\SOLDER~1\AppData\Local\Temp\ccKV8tJ7.s:28802  .debug_str:000000000001afe2 .LASF5449
C:\Users\SOLDER~1\AppData\Local\Temp\ccKV8tJ7.s:26158  .debug_str:0000000000010551 .LASF5450
C:\Users\SOLDER~1\AppData\Local\Temp\ccKV8tJ7.s:23428  .debug_str:00000000000052d1 .LASF5451
C:\Users\SOLDER~1\AppData\Local\Temp\ccKV8tJ7.s:24750  .debug_str:000000000000a91d .LASF5452
C:\Users\SOLDER~1\AppData\Local\Temp\ccKV8tJ7.s:27156  .debug_str:00000000000145f1 .LASF5453
C:\Users\SOLDER~1\AppData\Local\Temp\ccKV8tJ7.s:25400  .debug_str:000000000000d3d3 .LASF5454
C:\Users\SOLDER~1\AppData\Local\Temp\ccKV8tJ7.s:30408  .debug_str:0000000000021823 .LASF5455
C:\Users\SOLDER~1\AppData\Local\Temp\ccKV8tJ7.s:30176  .debug_str:0000000000020913 .LASF5456
C:\Users\SOLDER~1\AppData\Local\Temp\ccKV8tJ7.s:27242  .debug_str:0000000000014baf .LASF5457
C:\Users\SOLDER~1\AppData\Local\Temp\ccKV8tJ7.s:26470  .debug_str:00000000000118e3 .LASF5458
C:\Users\SOLDER~1\AppData\Local\Temp\ccKV8tJ7.s:30418  .debug_str:00000000000218c6 .LASF5459
C:\Users\SOLDER~1\AppData\Local\Temp\ccKV8tJ7.s:30338  .debug_str:0000000000021379 .LASF5460
C:\Users\SOLDER~1\AppData\Local\Temp\ccKV8tJ7.s:23862  .debug_str:0000000000006f69 .LASF5461
C:\Users\SOLDER~1\AppData\Local\Temp\ccKV8tJ7.s:26146  .debug_str:0000000000010467 .LASF5462
C:\Users\SOLDER~1\AppData\Local\Temp\ccKV8tJ7.s:32074  .debug_str:0000000000028457 .LASF5463
C:\Users\SOLDER~1\AppData\Local\Temp\ccKV8tJ7.s:32632  .debug_str:000000000002a90f .LASF5464
C:\Users\SOLDER~1\AppData\Local\Temp\ccKV8tJ7.s:29080  .debug_str:000000000001c150 .LASF5465
C:\Users\SOLDER~1\AppData\Local\Temp\ccKV8tJ7.s:33594  .debug_str:000000000002e704 .LASF5466
C:\Users\SOLDER~1\AppData\Local\Temp\ccKV8tJ7.s:33072  .debug_str:000000000002c574 .LASF5467
C:\Users\SOLDER~1\AppData\Local\Temp\ccKV8tJ7.s:30912  .debug_str:000000000002381e .LASF5468
C:\Users\SOLDER~1\AppData\Local\Temp\ccKV8tJ7.s:22506  .debug_str:00000000000018a8 .LASF5469
C:\Users\SOLDER~1\AppData\Local\Temp\ccKV8tJ7.s:26924  .debug_str:00000000000135ab .LASF5470
C:\Users\SOLDER~1\AppData\Local\Temp\ccKV8tJ7.s:26634  .debug_str:0000000000012305 .LASF5471
C:\Users\SOLDER~1\AppData\Local\Temp\ccKV8tJ7.s:26162  .debug_str:000000000001059b .LASF5472
C:\Users\SOLDER~1\AppData\Local\Temp\ccKV8tJ7.s:22632  .debug_str:00000000000020be .LASF5473
C:\Users\SOLDER~1\AppData\Local\Temp\ccKV8tJ7.s:22362  .debug_str:0000000000000f78 .LASF5474
C:\Users\SOLDER~1\AppData\Local\Temp\ccKV8tJ7.s:30042  .debug_str:0000000000020095 .LASF5475
C:\Users\SOLDER~1\AppData\Local\Temp\ccKV8tJ7.s:33338  .debug_str:000000000002d6e6 .LASF5476
C:\Users\SOLDER~1\AppData\Local\Temp\ccKV8tJ7.s:29802  .debug_str:000000000001f0c2 .LASF5477
C:\Users\SOLDER~1\AppData\Local\Temp\ccKV8tJ7.s:31178  .debug_str:0000000000024980 .LASF5478
C:\Users\SOLDER~1\AppData\Local\Temp\ccKV8tJ7.s:23878  .debug_str:0000000000007082 .LASF5479
C:\Users\SOLDER~1\AppData\Local\Temp\ccKV8tJ7.s:29132  .debug_str:000000000001c4be .LASF5480
C:\Users\SOLDER~1\AppData\Local\Temp\ccKV8tJ7.s:26788  .debug_str:0000000000012c92 .LASF5481
C:\Users\SOLDER~1\AppData\Local\Temp\ccKV8tJ7.s:33752  .debug_str:000000000002f12c .LASF5482
C:\Users\SOLDER~1\AppData\Local\Temp\ccKV8tJ7.s:25480  .debug_str:000000000000d92a .LASF5483
C:\Users\SOLDER~1\AppData\Local\Temp\ccKV8tJ7.s:30706  .debug_str:0000000000022ab1 .LASF5484
C:\Users\SOLDER~1\AppData\Local\Temp\ccKV8tJ7.s:25410  .debug_str:000000000000d46c .LASF5485
C:\Users\SOLDER~1\AppData\Local\Temp\ccKV8tJ7.s:31712  .debug_str:0000000000026c99 .LASF5486
C:\Users\SOLDER~1\AppData\Local\Temp\ccKV8tJ7.s:25422  .debug_str:000000000000d54a .LASF5487
C:\Users\SOLDER~1\AppData\Local\Temp\ccKV8tJ7.s:32552  .debug_str:000000000002a38f .LASF5488
C:\Users\SOLDER~1\AppData\Local\Temp\ccKV8tJ7.s:32926  .debug_str:000000000002bbd9 .LASF5489
C:\Users\SOLDER~1\AppData\Local\Temp\ccKV8tJ7.s:30734  .debug_str:0000000000022c6b .LASF5490
C:\Users\SOLDER~1\AppData\Local\Temp\ccKV8tJ7.s:31978  .debug_str:0000000000027e09 .LASF5491
C:\Users\SOLDER~1\AppData\Local\Temp\ccKV8tJ7.s:25990  .debug_str:000000000000fa37 .LASF5492
C:\Users\SOLDER~1\AppData\Local\Temp\ccKV8tJ7.s:33510  .debug_str:000000000002e1d3 .LASF5493
C:\Users\SOLDER~1\AppData\Local\Temp\ccKV8tJ7.s:28184  .debug_str:0000000000018836 .LASF5494
C:\Users\SOLDER~1\AppData\Local\Temp\ccKV8tJ7.s:27224  .debug_str:0000000000014a72 .LASF5495
C:\Users\SOLDER~1\AppData\Local\Temp\ccKV8tJ7.s:27020  .debug_str:0000000000013c8d .LASF5496
GAS LISTING C:\Users\SOLDER~1\AppData\Local\Temp\ccKV8tJ7.s 			page 186


C:\Users\SOLDER~1\AppData\Local\Temp\ccKV8tJ7.s:24614  .debug_str:0000000000009fee .LASF5497
C:\Users\SOLDER~1\AppData\Local\Temp\ccKV8tJ7.s:29400  .debug_str:000000000001d6cf .LASF5498
C:\Users\SOLDER~1\AppData\Local\Temp\ccKV8tJ7.s:24744  .debug_str:000000000000a8a8 .LASF5499
C:\Users\SOLDER~1\AppData\Local\Temp\ccKV8tJ7.s:31580  .debug_str:00000000000263a0 .LASF5500
C:\Users\SOLDER~1\AppData\Local\Temp\ccKV8tJ7.s:22856  .debug_str:0000000000002f67 .LASF5501
C:\Users\SOLDER~1\AppData\Local\Temp\ccKV8tJ7.s:23292  .debug_str:0000000000004a59 .LASF5502
C:\Users\SOLDER~1\AppData\Local\Temp\ccKV8tJ7.s:24862  .debug_str:000000000000b074 .LASF5503
C:\Users\SOLDER~1\AppData\Local\Temp\ccKV8tJ7.s:28392  .debug_str:00000000000195fb .LASF5504
C:\Users\SOLDER~1\AppData\Local\Temp\ccKV8tJ7.s:25434  .debug_str:000000000000d623 .LASF5505
C:\Users\SOLDER~1\AppData\Local\Temp\ccKV8tJ7.s:30990  .debug_str:0000000000023d68 .LASF5506
C:\Users\SOLDER~1\AppData\Local\Temp\ccKV8tJ7.s:32146  .debug_str:0000000000028908 .LASF5507
C:\Users\SOLDER~1\AppData\Local\Temp\ccKV8tJ7.s:24892  .debug_str:000000000000b234 .LASF5508
C:\Users\SOLDER~1\AppData\Local\Temp\ccKV8tJ7.s:29518  .debug_str:000000000001de1e .LASF5509
C:\Users\SOLDER~1\AppData\Local\Temp\ccKV8tJ7.s:32080  .debug_str:00000000000284ad .LASF5510
C:\Users\SOLDER~1\AppData\Local\Temp\ccKV8tJ7.s:29250  .debug_str:000000000001cc9b .LASF5511
C:\Users\SOLDER~1\AppData\Local\Temp\ccKV8tJ7.s:33714  .debug_str:000000000002eea5 .LASF5512
C:\Users\SOLDER~1\AppData\Local\Temp\ccKV8tJ7.s:32778  .debug_str:000000000002b262 .LASF5513
C:\Users\SOLDER~1\AppData\Local\Temp\ccKV8tJ7.s:33048  .debug_str:000000000002c3c3 .LASF5514
C:\Users\SOLDER~1\AppData\Local\Temp\ccKV8tJ7.s:28444  .debug_str:00000000000199ad .LASF5515
C:\Users\SOLDER~1\AppData\Local\Temp\ccKV8tJ7.s:23810  .debug_str:0000000000006bbe .LASF5516
C:\Users\SOLDER~1\AppData\Local\Temp\ccKV8tJ7.s:22380  .debug_str:0000000000001083 .LASF5517
C:\Users\SOLDER~1\AppData\Local\Temp\ccKV8tJ7.s:30788  .debug_str:0000000000023035 .LASF5518
C:\Users\SOLDER~1\AppData\Local\Temp\ccKV8tJ7.s:22286  .debug_str:0000000000000a3f .LASF5519
C:\Users\SOLDER~1\AppData\Local\Temp\ccKV8tJ7.s:27050  .debug_str:0000000000013e9f .LASF5520
C:\Users\SOLDER~1\AppData\Local\Temp\ccKV8tJ7.s:26412  .debug_str:0000000000011512 .LASF5521
C:\Users\SOLDER~1\AppData\Local\Temp\ccKV8tJ7.s:31250  .debug_str:0000000000024e34 .LASF5522
C:\Users\SOLDER~1\AppData\Local\Temp\ccKV8tJ7.s:22400  .debug_str:00000000000011c6 .LASF5523
C:\Users\SOLDER~1\AppData\Local\Temp\ccKV8tJ7.s:27886  .debug_str:00000000000174a3 .LASF5524
C:\Users\SOLDER~1\AppData\Local\Temp\ccKV8tJ7.s:29092  .debug_str:000000000001c21f .LASF5525
C:\Users\SOLDER~1\AppData\Local\Temp\ccKV8tJ7.s:23970  .debug_str:000000000000763b .LASF5526
C:\Users\SOLDER~1\AppData\Local\Temp\ccKV8tJ7.s:25732  .debug_str:000000000000e9c8 .LASF5527
C:\Users\SOLDER~1\AppData\Local\Temp\ccKV8tJ7.s:26762  .debug_str:0000000000012adb .LASF5528
C:\Users\SOLDER~1\AppData\Local\Temp\ccKV8tJ7.s:28586  .debug_str:000000000001a1fc .LASF5529
C:\Users\SOLDER~1\AppData\Local\Temp\ccKV8tJ7.s:28440  .debug_str:000000000001995b .LASF5530
C:\Users\SOLDER~1\AppData\Local\Temp\ccKV8tJ7.s:28704  .debug_str:000000000001a95e .LASF5531
C:\Users\SOLDER~1\AppData\Local\Temp\ccKV8tJ7.s:29924  .debug_str:000000000001f8ff .LASF5532
C:\Users\SOLDER~1\AppData\Local\Temp\ccKV8tJ7.s:26654  .debug_str:0000000000012430 .LASF5533
C:\Users\SOLDER~1\AppData\Local\Temp\ccKV8tJ7.s:32824  .debug_str:000000000002b51d .LASF5534
C:\Users\SOLDER~1\AppData\Local\Temp\ccKV8tJ7.s:24366  .debug_str:0000000000008fda .LASF5535
C:\Users\SOLDER~1\AppData\Local\Temp\ccKV8tJ7.s:30398  .debug_str:0000000000021781 .LASF5536
C:\Users\SOLDER~1\AppData\Local\Temp\ccKV8tJ7.s:26056  .debug_str:000000000000feee .LASF5537
C:\Users\SOLDER~1\AppData\Local\Temp\ccKV8tJ7.s:24746  .debug_str:000000000000a8da .LASF5538
C:\Users\SOLDER~1\AppData\Local\Temp\ccKV8tJ7.s:28288  .debug_str:0000000000018f31 .LASF5539
C:\Users\SOLDER~1\AppData\Local\Temp\ccKV8tJ7.s:23590  .debug_str:0000000000005d0f .LASF5540
C:\Users\SOLDER~1\AppData\Local\Temp\ccKV8tJ7.s:24000  .debug_str:00000000000077f2 .LASF5541
C:\Users\SOLDER~1\AppData\Local\Temp\ccKV8tJ7.s:24662  .debug_str:000000000000a31b .LASF5542
C:\Users\SOLDER~1\AppData\Local\Temp\ccKV8tJ7.s:30862  .debug_str:00000000000234cd .LASF5543
C:\Users\SOLDER~1\AppData\Local\Temp\ccKV8tJ7.s:29508  .debug_str:000000000001dd6e .LASF5544
C:\Users\SOLDER~1\AppData\Local\Temp\ccKV8tJ7.s:22250  .debug_str:000000000000079c .LASF5545
C:\Users\SOLDER~1\AppData\Local\Temp\ccKV8tJ7.s:26280  .debug_str:0000000000010d07 .LASF5546
C:\Users\SOLDER~1\AppData\Local\Temp\ccKV8tJ7.s:33364  .debug_str:000000000002d893 .LASF5547
C:\Users\SOLDER~1\AppData\Local\Temp\ccKV8tJ7.s:23346  .debug_str:0000000000004dd7 .LASF5548
C:\Users\SOLDER~1\AppData\Local\Temp\ccKV8tJ7.s:31074  .debug_str:00000000000242a3 .LASF5549
C:\Users\SOLDER~1\AppData\Local\Temp\ccKV8tJ7.s:32034  .debug_str:000000000002817c .LASF5550
C:\Users\SOLDER~1\AppData\Local\Temp\ccKV8tJ7.s:30580  .debug_str:00000000000222fd .LASF5551
C:\Users\SOLDER~1\AppData\Local\Temp\ccKV8tJ7.s:30532  .debug_str:0000000000022000 .LASF5552
C:\Users\SOLDER~1\AppData\Local\Temp\ccKV8tJ7.s:30128  .debug_str:0000000000020602 .LASF5553
GAS LISTING C:\Users\SOLDER~1\AppData\Local\Temp\ccKV8tJ7.s 			page 187


C:\Users\SOLDER~1\AppData\Local\Temp\ccKV8tJ7.s:22582  .debug_str:0000000000001da0 .LASF5554
C:\Users\SOLDER~1\AppData\Local\Temp\ccKV8tJ7.s:32310  .debug_str:00000000000293bf .LASF5555
C:\Users\SOLDER~1\AppData\Local\Temp\ccKV8tJ7.s:29376  .debug_str:000000000001d51e .LASF5556
C:\Users\SOLDER~1\AppData\Local\Temp\ccKV8tJ7.s:33308  .debug_str:000000000002d4a1 .LASF5557
C:\Users\SOLDER~1\AppData\Local\Temp\ccKV8tJ7.s:23816  .debug_str:0000000000006c0b .LASF5558
C:\Users\SOLDER~1\AppData\Local\Temp\ccKV8tJ7.s:25142  .debug_str:000000000000c282 .LASF5559
C:\Users\SOLDER~1\AppData\Local\Temp\ccKV8tJ7.s:32548  .debug_str:000000000002a342 .LASF5560
C:\Users\SOLDER~1\AppData\Local\Temp\ccKV8tJ7.s:28292  .debug_str:0000000000018f6c .LASF5561
C:\Users\SOLDER~1\AppData\Local\Temp\ccKV8tJ7.s:31192  .debug_str:0000000000024a48 .LASF5562
C:\Users\SOLDER~1\AppData\Local\Temp\ccKV8tJ7.s:29560  .debug_str:000000000001e0e1 .LASF5563
C:\Users\SOLDER~1\AppData\Local\Temp\ccKV8tJ7.s:27832  .debug_str:00000000000170d0 .LASF5564
C:\Users\SOLDER~1\AppData\Local\Temp\ccKV8tJ7.s:23474  .debug_str:0000000000005585 .LASF5565
C:\Users\SOLDER~1\AppData\Local\Temp\ccKV8tJ7.s:27692  .debug_str:000000000001684a .LASF5566
C:\Users\SOLDER~1\AppData\Local\Temp\ccKV8tJ7.s:31706  .debug_str:0000000000026c30 .LASF5567
C:\Users\SOLDER~1\AppData\Local\Temp\ccKV8tJ7.s:28296  .debug_str:0000000000018fb9 .LASF5568
C:\Users\SOLDER~1\AppData\Local\Temp\ccKV8tJ7.s:28850  .debug_str:000000000001b2f1 .LASF5569
C:\Users\SOLDER~1\AppData\Local\Temp\ccKV8tJ7.s:22242  .debug_str:0000000000000721 .LASF5570
C:\Users\SOLDER~1\AppData\Local\Temp\ccKV8tJ7.s:24782  .debug_str:000000000000ab36 .LASF5571
C:\Users\SOLDER~1\AppData\Local\Temp\ccKV8tJ7.s:29622  .debug_str:000000000001e4fb .LASF5572
C:\Users\SOLDER~1\AppData\Local\Temp\ccKV8tJ7.s:26740  .debug_str:0000000000012977 .LASF5573
C:\Users\SOLDER~1\AppData\Local\Temp\ccKV8tJ7.s:26998  .debug_str:0000000000013ad4 .LASF5574
C:\Users\SOLDER~1\AppData\Local\Temp\ccKV8tJ7.s:25176  .debug_str:000000000000c4da .LASF5575
C:\Users\SOLDER~1\AppData\Local\Temp\ccKV8tJ7.s:30340  .debug_str:0000000000021397 .LASF5576
C:\Users\SOLDER~1\AppData\Local\Temp\ccKV8tJ7.s:27920  .debug_str:00000000000176e9 .LASF5577
C:\Users\SOLDER~1\AppData\Local\Temp\ccKV8tJ7.s:32224  .debug_str:0000000000028e3f .LASF5578
C:\Users\SOLDER~1\AppData\Local\Temp\ccKV8tJ7.s:27926  .debug_str:0000000000017757 .LASF5579
C:\Users\SOLDER~1\AppData\Local\Temp\ccKV8tJ7.s:33540  .debug_str:000000000002e3ad .LASF5580
C:\Users\SOLDER~1\AppData\Local\Temp\ccKV8tJ7.s:27700  .debug_str:00000000000168b3 .LASF5581
C:\Users\SOLDER~1\AppData\Local\Temp\ccKV8tJ7.s:29314  .debug_str:000000000001d103 .LASF5582
C:\Users\SOLDER~1\AppData\Local\Temp\ccKV8tJ7.s:30938  .debug_str:0000000000023a00 .LASF5583
C:\Users\SOLDER~1\AppData\Local\Temp\ccKV8tJ7.s:30040  .debug_str:000000000002005d .LASF5584
C:\Users\SOLDER~1\AppData\Local\Temp\ccKV8tJ7.s:28192  .debug_str:00000000000188db .LASF5585
C:\Users\SOLDER~1\AppData\Local\Temp\ccKV8tJ7.s:24222  .debug_str:0000000000008674 .LASF5586
C:\Users\SOLDER~1\AppData\Local\Temp\ccKV8tJ7.s:26980  .debug_str:000000000001395e .LASF5587
C:\Users\SOLDER~1\AppData\Local\Temp\ccKV8tJ7.s:30498  .debug_str:0000000000021dc0 .LASF5588
C:\Users\SOLDER~1\AppData\Local\Temp\ccKV8tJ7.s:32842  .debug_str:000000000002b67a .LASF5589
C:\Users\SOLDER~1\AppData\Local\Temp\ccKV8tJ7.s:24700  .debug_str:000000000000a5a1 .LASF5590
C:\Users\SOLDER~1\AppData\Local\Temp\ccKV8tJ7.s:30364  .debug_str:0000000000021521 .LASF5591
C:\Users\SOLDER~1\AppData\Local\Temp\ccKV8tJ7.s:26808  .debug_str:0000000000012e01 .LASF5592
C:\Users\SOLDER~1\AppData\Local\Temp\ccKV8tJ7.s:31208  .debug_str:0000000000024b6a .LASF5593
C:\Users\SOLDER~1\AppData\Local\Temp\ccKV8tJ7.s:27296  .debug_str:0000000000014f58 .LASF5594
C:\Users\SOLDER~1\AppData\Local\Temp\ccKV8tJ7.s:30750  .debug_str:0000000000022d7f .LASF5595
C:\Users\SOLDER~1\AppData\Local\Temp\ccKV8tJ7.s:33754  .debug_str:000000000002f150 .LASF5596
C:\Users\SOLDER~1\AppData\Local\Temp\ccKV8tJ7.s:33100  .debug_str:000000000002c78a .LASF5597
C:\Users\SOLDER~1\AppData\Local\Temp\ccKV8tJ7.s:32402  .debug_str:00000000000299ae .LASF5598
C:\Users\SOLDER~1\AppData\Local\Temp\ccKV8tJ7.s:23828  .debug_str:0000000000006ce4 .LASF5599
C:\Users\SOLDER~1\AppData\Local\Temp\ccKV8tJ7.s:27294  .debug_str:0000000000014f32 .LASF5600
C:\Users\SOLDER~1\AppData\Local\Temp\ccKV8tJ7.s:23824  .debug_str:0000000000006ca7 .LASF5601
C:\Users\SOLDER~1\AppData\Local\Temp\ccKV8tJ7.s:30886  .debug_str:0000000000023678 .LASF5602
C:\Users\SOLDER~1\AppData\Local\Temp\ccKV8tJ7.s:32920  .debug_str:000000000002bb7a .LASF5603
C:\Users\SOLDER~1\AppData\Local\Temp\ccKV8tJ7.s:22942  .debug_str:0000000000003508 .LASF5604
C:\Users\SOLDER~1\AppData\Local\Temp\ccKV8tJ7.s:32904  .debug_str:000000000002ba6c .LASF5605
C:\Users\SOLDER~1\AppData\Local\Temp\ccKV8tJ7.s:22880  .debug_str:00000000000030ed .LASF5606
C:\Users\SOLDER~1\AppData\Local\Temp\ccKV8tJ7.s:26164  .debug_str:00000000000105c0 .LASF5607
C:\Users\SOLDER~1\AppData\Local\Temp\ccKV8tJ7.s:23788  .debug_str:0000000000006a50 .LASF5608
C:\Users\SOLDER~1\AppData\Local\Temp\ccKV8tJ7.s:23494  .debug_str:00000000000056b1 .LASF5609
C:\Users\SOLDER~1\AppData\Local\Temp\ccKV8tJ7.s:22726  .debug_str:00000000000026fb .LASF5610
GAS LISTING C:\Users\SOLDER~1\AppData\Local\Temp\ccKV8tJ7.s 			page 188


C:\Users\SOLDER~1\AppData\Local\Temp\ccKV8tJ7.s:22944  .debug_str:0000000000003529 .LASF5611
C:\Users\SOLDER~1\AppData\Local\Temp\ccKV8tJ7.s:26310  .debug_str:0000000000010ec9 .LASF5612
C:\Users\SOLDER~1\AppData\Local\Temp\ccKV8tJ7.s:24408  .debug_str:00000000000092b8 .LASF5613
C:\Users\SOLDER~1\AppData\Local\Temp\ccKV8tJ7.s:23498  .debug_str:0000000000005712 .LASF5614
C:\Users\SOLDER~1\AppData\Local\Temp\ccKV8tJ7.s:31556  .debug_str:000000000002620f .LASF5615
C:\Users\SOLDER~1\AppData\Local\Temp\ccKV8tJ7.s:25318  .debug_str:000000000000ce8c .LASF5616
C:\Users\SOLDER~1\AppData\Local\Temp\ccKV8tJ7.s:23872  .debug_str:0000000000007014 .LASF5617
C:\Users\SOLDER~1\AppData\Local\Temp\ccKV8tJ7.s:33838  .debug_str:000000000002f65f .LASF5618
C:\Users\SOLDER~1\AppData\Local\Temp\ccKV8tJ7.s:24206  .debug_str:0000000000008570 .LASF5619
C:\Users\SOLDER~1\AppData\Local\Temp\ccKV8tJ7.s:23886  .debug_str:0000000000007102 .LASF5620
C:\Users\SOLDER~1\AppData\Local\Temp\ccKV8tJ7.s:27604  .debug_str:00000000000162e5 .LASF5621
C:\Users\SOLDER~1\AppData\Local\Temp\ccKV8tJ7.s:33650  .debug_str:000000000002ea82 .LASF5622
C:\Users\SOLDER~1\AppData\Local\Temp\ccKV8tJ7.s:33256  .debug_str:000000000002d148 .LASF5623
C:\Users\SOLDER~1\AppData\Local\Temp\ccKV8tJ7.s:27424  .debug_str:0000000000015758 .LASF5624
C:\Users\SOLDER~1\AppData\Local\Temp\ccKV8tJ7.s:33438  .debug_str:000000000002dd2a .LASF5625
C:\Users\SOLDER~1\AppData\Local\Temp\ccKV8tJ7.s:29870  .debug_str:000000000001f54e .LASF5626
C:\Users\SOLDER~1\AppData\Local\Temp\ccKV8tJ7.s:24434  .debug_str:00000000000094ac .LASF5627
C:\Users\SOLDER~1\AppData\Local\Temp\ccKV8tJ7.s:31058  .debug_str:00000000000241ad .LASF5628
C:\Users\SOLDER~1\AppData\Local\Temp\ccKV8tJ7.s:30564  .debug_str:0000000000022213 .LASF5629
C:\Users\SOLDER~1\AppData\Local\Temp\ccKV8tJ7.s:22958  .debug_str:00000000000035ed .LASF5630
C:\Users\SOLDER~1\AppData\Local\Temp\ccKV8tJ7.s:28890  .debug_str:000000000001b526 .LASF5631
C:\Users\SOLDER~1\AppData\Local\Temp\ccKV8tJ7.s:27350  .debug_str:0000000000015296 .LASF5632
C:\Users\SOLDER~1\AppData\Local\Temp\ccKV8tJ7.s:29356  .debug_str:000000000001d39e .LASF5633
C:\Users\SOLDER~1\AppData\Local\Temp\ccKV8tJ7.s:33060  .debug_str:000000000002c495 .LASF5634
C:\Users\SOLDER~1\AppData\Local\Temp\ccKV8tJ7.s:31410  .debug_str:0000000000025856 .LASF5635
C:\Users\SOLDER~1\AppData\Local\Temp\ccKV8tJ7.s:28792  .debug_str:000000000001af26 .LASF5636
C:\Users\SOLDER~1\AppData\Local\Temp\ccKV8tJ7.s:28784  .debug_str:000000000001ae98 .LASF5637
C:\Users\SOLDER~1\AppData\Local\Temp\ccKV8tJ7.s:29138  .debug_str:000000000001c524 .LASF5638
C:\Users\SOLDER~1\AppData\Local\Temp\ccKV8tJ7.s:27282  .debug_str:0000000000014e6b .LASF5639
C:\Users\SOLDER~1\AppData\Local\Temp\ccKV8tJ7.s:26710  .debug_str:00000000000127bd .LASF5640
C:\Users\SOLDER~1\AppData\Local\Temp\ccKV8tJ7.s:28790  .debug_str:000000000001af04 .LASF5641
C:\Users\SOLDER~1\AppData\Local\Temp\ccKV8tJ7.s:33652  .debug_str:000000000002eaa5 .LASF5642
C:\Users\SOLDER~1\AppData\Local\Temp\ccKV8tJ7.s:33562  .debug_str:000000000002e523 .LASF5643
C:\Users\SOLDER~1\AppData\Local\Temp\ccKV8tJ7.s:26132  .debug_str:000000000001039e .LASF5644
C:\Users\SOLDER~1\AppData\Local\Temp\ccKV8tJ7.s:32908  .debug_str:000000000002baaf .LASF5645
C:\Users\SOLDER~1\AppData\Local\Temp\ccKV8tJ7.s:29564  .debug_str:000000000001e132 .LASF5646
C:\Users\SOLDER~1\AppData\Local\Temp\ccKV8tJ7.s:26532  .debug_str:0000000000011ca8 .LASF5647
C:\Users\SOLDER~1\AppData\Local\Temp\ccKV8tJ7.s:24048  .debug_str:0000000000007b19 .LASF5648
C:\Users\SOLDER~1\AppData\Local\Temp\ccKV8tJ7.s:22404  .debug_str:0000000000001218 .LASF5649
C:\Users\SOLDER~1\AppData\Local\Temp\ccKV8tJ7.s:31100  .debug_str:000000000002446e .LASF5650
C:\Users\SOLDER~1\AppData\Local\Temp\ccKV8tJ7.s:29944  .debug_str:000000000001fa83 .LASF5651
C:\Users\SOLDER~1\AppData\Local\Temp\ccKV8tJ7.s:24314  .debug_str:0000000000008c46 .LASF5652
C:\Users\SOLDER~1\AppData\Local\Temp\ccKV8tJ7.s:23532  .debug_str:000000000000596f .LASF5653
C:\Users\SOLDER~1\AppData\Local\Temp\ccKV8tJ7.s:33132  .debug_str:000000000002c991 .LASF5654
C:\Users\SOLDER~1\AppData\Local\Temp\ccKV8tJ7.s:25106  .debug_str:000000000000c010 .LASF5655
C:\Users\SOLDER~1\AppData\Local\Temp\ccKV8tJ7.s:25306  .debug_str:000000000000cdc7 .LASF5656
C:\Users\SOLDER~1\AppData\Local\Temp\ccKV8tJ7.s:29478  .debug_str:000000000001dbbd .LASF5657
C:\Users\SOLDER~1\AppData\Local\Temp\ccKV8tJ7.s:28864  .debug_str:000000000001b393 .LASF5658
C:\Users\SOLDER~1\AppData\Local\Temp\ccKV8tJ7.s:28328  .debug_str:00000000000191ca .LASF5659
C:\Users\SOLDER~1\AppData\Local\Temp\ccKV8tJ7.s:32676  .debug_str:000000000002abdd .LASF5660
C:\Users\SOLDER~1\AppData\Local\Temp\ccKV8tJ7.s:29952  .debug_str:000000000001faff .LASF5661
C:\Users\SOLDER~1\AppData\Local\Temp\ccKV8tJ7.s:30184  .debug_str:00000000000209ae .LASF5662
C:\Users\SOLDER~1\AppData\Local\Temp\ccKV8tJ7.s:29710  .debug_str:000000000001eaa5 .LASF5663
C:\Users\SOLDER~1\AppData\Local\Temp\ccKV8tJ7.s:30782  .debug_str:0000000000022fbf .LASF5664
C:\Users\SOLDER~1\AppData\Local\Temp\ccKV8tJ7.s:32430  .debug_str:0000000000029bb2 .LASF5665
C:\Users\SOLDER~1\AppData\Local\Temp\ccKV8tJ7.s:26884  .debug_str:00000000000132ec .LASF5666
C:\Users\SOLDER~1\AppData\Local\Temp\ccKV8tJ7.s:28018  .debug_str:0000000000017d54 .LASF5667
GAS LISTING C:\Users\SOLDER~1\AppData\Local\Temp\ccKV8tJ7.s 			page 189


C:\Users\SOLDER~1\AppData\Local\Temp\ccKV8tJ7.s:31950  .debug_str:0000000000027c3c .LASF5668
C:\Users\SOLDER~1\AppData\Local\Temp\ccKV8tJ7.s:30808  .debug_str:0000000000023186 .LASF5669
C:\Users\SOLDER~1\AppData\Local\Temp\ccKV8tJ7.s:32770  .debug_str:000000000002b1d3 .LASF5670
C:\Users\SOLDER~1\AppData\Local\Temp\ccKV8tJ7.s:31106  .debug_str:00000000000244ca .LASF5671
C:\Users\SOLDER~1\AppData\Local\Temp\ccKV8tJ7.s:26592  .debug_str:0000000000012059 .LASF5672
C:\Users\SOLDER~1\AppData\Local\Temp\ccKV8tJ7.s:31174  .debug_str:0000000000024931 .LASF5673
C:\Users\SOLDER~1\AppData\Local\Temp\ccKV8tJ7.s:32936  .debug_str:000000000002bc8e .LASF5674
C:\Users\SOLDER~1\AppData\Local\Temp\ccKV8tJ7.s:27056  .debug_str:0000000000013f12 .LASF5675
C:\Users\SOLDER~1\AppData\Local\Temp\ccKV8tJ7.s:24632  .debug_str:000000000000a135 .LASF5676
C:\Users\SOLDER~1\AppData\Local\Temp\ccKV8tJ7.s:31932  .debug_str:0000000000027b0a .LASF5677
C:\Users\SOLDER~1\AppData\Local\Temp\ccKV8tJ7.s:24814  .debug_str:000000000000ad22 .LASF5678
C:\Users\SOLDER~1\AppData\Local\Temp\ccKV8tJ7.s:30742  .debug_str:0000000000022cfa .LASF5679
C:\Users\SOLDER~1\AppData\Local\Temp\ccKV8tJ7.s:29144  .debug_str:000000000001c596 .LASF5680
C:\Users\SOLDER~1\AppData\Local\Temp\ccKV8tJ7.s:32242  .debug_str:0000000000028f69 .LASF5681
C:\Users\SOLDER~1\AppData\Local\Temp\ccKV8tJ7.s:30932  .debug_str:0000000000023988 .LASF5682
C:\Users\SOLDER~1\AppData\Local\Temp\ccKV8tJ7.s:23634  .debug_str:0000000000005fed .LASF5683
C:\Users\SOLDER~1\AppData\Local\Temp\ccKV8tJ7.s:24846  .debug_str:000000000000af5e .LASF5684
C:\Users\SOLDER~1\AppData\Local\Temp\ccKV8tJ7.s:27960  .debug_str:0000000000017998 .LASF5685
C:\Users\SOLDER~1\AppData\Local\Temp\ccKV8tJ7.s:27560  .debug_str:0000000000015fe9 .LASF5686
C:\Users\SOLDER~1\AppData\Local\Temp\ccKV8tJ7.s:31246  .debug_str:0000000000024de4 .LASF5687
C:\Users\SOLDER~1\AppData\Local\Temp\ccKV8tJ7.s:32114  .debug_str:0000000000028712 .LASF5688
C:\Users\SOLDER~1\AppData\Local\Temp\ccKV8tJ7.s:27122  .debug_str:0000000000014399 .LASF5689
C:\Users\SOLDER~1\AppData\Local\Temp\ccKV8tJ7.s:32150  .debug_str:0000000000028950 .LASF5690
C:\Users\SOLDER~1\AppData\Local\Temp\ccKV8tJ7.s:32492  .debug_str:0000000000029f75 .LASF5691
C:\Users\SOLDER~1\AppData\Local\Temp\ccKV8tJ7.s:27084  .debug_str:00000000000140fb .LASF5692
C:\Users\SOLDER~1\AppData\Local\Temp\ccKV8tJ7.s:31110  .debug_str:000000000002451d .LASF5693
C:\Users\SOLDER~1\AppData\Local\Temp\ccKV8tJ7.s:27164  .debug_str:000000000001469b .LASF5694
C:\Users\SOLDER~1\AppData\Local\Temp\ccKV8tJ7.s:27850  .debug_str:000000000001720c .LASF5695
C:\Users\SOLDER~1\AppData\Local\Temp\ccKV8tJ7.s:27434  .debug_str:0000000000015808 .LASF5696
C:\Users\SOLDER~1\AppData\Local\Temp\ccKV8tJ7.s:28520  .debug_str:0000000000019e19 .LASF5697
C:\Users\SOLDER~1\AppData\Local\Temp\ccKV8tJ7.s:25246  .debug_str:000000000000c995 .LASF5698
C:\Users\SOLDER~1\AppData\Local\Temp\ccKV8tJ7.s:31866  .debug_str:00000000000276cb .LASF5699
C:\Users\SOLDER~1\AppData\Local\Temp\ccKV8tJ7.s:32896  .debug_str:000000000002b9f4 .LASF5700
C:\Users\SOLDER~1\AppData\Local\Temp\ccKV8tJ7.s:30156  .debug_str:00000000000207cb .LASF5701
C:\Users\SOLDER~1\AppData\Local\Temp\ccKV8tJ7.s:26876  .debug_str:000000000001324f .LASF5702
C:\Users\SOLDER~1\AppData\Local\Temp\ccKV8tJ7.s:24342  .debug_str:0000000000008e4d .LASF5703
C:\Users\SOLDER~1\AppData\Local\Temp\ccKV8tJ7.s:30148  .debug_str:0000000000020746 .LASF5704
C:\Users\SOLDER~1\AppData\Local\Temp\ccKV8tJ7.s:27230  .debug_str:0000000000014ac4 .LASF5705
C:\Users\SOLDER~1\AppData\Local\Temp\ccKV8tJ7.s:28814  .debug_str:000000000001b0a4 .LASF5706
C:\Users\SOLDER~1\AppData\Local\Temp\ccKV8tJ7.s:26104  .debug_str:00000000000101f3 .LASF5707
C:\Users\SOLDER~1\AppData\Local\Temp\ccKV8tJ7.s:31756  .debug_str:0000000000026fa7 .LASF5708
C:\Users\SOLDER~1\AppData\Local\Temp\ccKV8tJ7.s:27218  .debug_str:0000000000014a10 .LASF5709
C:\Users\SOLDER~1\AppData\Local\Temp\ccKV8tJ7.s:22676  .debug_str:00000000000023b8 .LASF5710
C:\Users\SOLDER~1\AppData\Local\Temp\ccKV8tJ7.s:22432  .debug_str:00000000000013de .LASF5711
                           .group:0000000000000000 wm4.0.cc27e0d2094b492664a2491ca1ae43b0
                           .group:0000000000000000 wm4.ch32v20x.h.13.a030255a3e90e7179ae3b08da8e2408d
                           .group:0000000000000000 wm4._newlib_version.h.4.529115dae5e4f67702b1de0b6e841f38
                           .group:0000000000000000 wm4.features.h.33.3e67abe6fb64142d4f6fa9496796153c
                           .group:0000000000000000 wm4._default_types.h.15.247e5cd201eca3442cbf5404108c4935
                           .group:0000000000000000 wm4._intsup.h.10.48bafbb683905c4daa4565a85aeeb264
                           .group:0000000000000000 wm4._stdint.h.10.c24fa3af3bc1706662bb5593a907e841
                           .group:0000000000000000 wm4.stdint.h.23.d53047a68f4a85177f80b422d52785ed
                           .group:0000000000000000 wm4.core_riscv.h.11.151d7acb41e203dcc664023294f59bdc
                           .group:0000000000000000 wm4.ch32v20x.h.153.1d8393f26361703471ea96fe9aa4b4f9
                           .group:0000000000000000 wm4.ch32v20x_adc.h.56.f131972e7ce35efbe3b5c47a075d6d1b
                           .group:0000000000000000 wm4.ch32v20x_bkp.h.14.0a7965eb5be5000a494c3059b6f0eca5
                           .group:0000000000000000 wm4.ch32v20x_can.h.14.aa1dae2c28cbaf083875b4b61810c3c7
GAS LISTING C:\Users\SOLDER~1\AppData\Local\Temp\ccKV8tJ7.s 			page 190


                           .group:0000000000000000 wm4.ch32v20x_dbgmcu.h.14.26ef95879978d9caaa154b373f3a512b
                           .group:0000000000000000 wm4.ch32v20x_dma.h.14.425a907348dd0134bf6e82c73bbd3df8
                           .group:0000000000000000 wm4.ch32v20x_exti.h.14.f67190d3fb91aa9aecce0f4d5a543221
                           .group:0000000000000000 wm4.ch32v20x_gpio.h.14.bdb7f79cce0dffbc24dc81ea80f90bd2
                           .group:0000000000000000 wm4.ch32v20x_i2c.h.14.101eb625c9d2afac400f4e8ac2e9fb1d
                           .group:0000000000000000 wm4.ch32v20x_iwdg.h.14.26025d04ceeb3151185969ed5850fbb4
                           .group:0000000000000000 wm4.ch32v20x_pwr.h.14.8eaa3508938f71b27f140895c21602e6
                           .group:0000000000000000 wm4.ch32v20x_rcc.h.13.18c6b8696a30372de01acaf3c246ecb8
                           .group:0000000000000000 wm4.ch32v20x_rtc.h.14.eb8734f5dd75abcf831b4f12ec49aebe
                           .group:0000000000000000 wm4.ch32v20x_spi.h.14.f12b1f237c615e7304ae62cc2e2c3c1a
                           .group:0000000000000000 wm4.ch32v20x_tim.h.14.35d11fab62898d9d661122ade86d8a6c
                           .group:0000000000000000 wm4.ch32v20x_usart.h.14.9d28c7ec28f2121810b69a55079cd38f
                           .group:0000000000000000 wm4.ch32v20x_wwdg.h.14.49bada437175894a4dce7e12e4216bc9
                           .group:0000000000000000 wm4.ch32v20x_misc.h.14.f3992cf724c30ec0bea268444ffdb6e0
                           .group:0000000000000000 wm4.ch32v20x_flash.h.33.3cdaba62eee92aadd1cf0c40d8bed4ed

NO UNDEFINED SYMBOLS
