GAS LISTING C:\Users\SOLDER~1\AppData\Local\Temp\ccKV8tJ7.s 			page 1


   1              		.file	"ch32v20x_flash.c"
   2              		.option nopic
   3              		.attribute arch, "rv32i2p0_m2p0_a2p0_c2p0_xw"
   4              		.attribute unaligned_access, 0
   5              		.attribute stack_align, 16
   6              		.text
   7              	.Ltext0:
   8              		.cfi_sections	.debug_frame
   9              		.file 0 "C:\\Users\\Solderingiron\\Documents\\GitHub\\VSC-make-example\\VSC_CH32V203C8T6" "Drivers
  10              		.section	.text.FLASH_Unlock,"ax",@progbits
  11              		.align	1
  12              		.globl	FLASH_Unlock
  14              	FLASH_Unlock:
  15              	.LFB16:
  16              		.file 1 "Drivers/src/ch32v20x_flash.c"
   1:Drivers/src/ch32v20x_flash.c **** /********************************** (C) COPYRIGHT  *******************************
   2:Drivers/src/ch32v20x_flash.c ****  * File Name          : ch32v20x_flash.c
   3:Drivers/src/ch32v20x_flash.c ****  * Author             : WCH
   4:Drivers/src/ch32v20x_flash.c ****  * Version            : V1.0.0
   5:Drivers/src/ch32v20x_flash.c ****  * Date               : 2021/06/06
   6:Drivers/src/ch32v20x_flash.c ****  * Description        : This file provides all the FLASH firmware functions.
   7:Drivers/src/ch32v20x_flash.c **** *********************************************************************************
   8:Drivers/src/ch32v20x_flash.c **** * Copyright (c) 2021 Nanjing Qinheng Microelectronics Co., Ltd.
   9:Drivers/src/ch32v20x_flash.c **** * Attention: This software (modified or not) and binary are used for 
  10:Drivers/src/ch32v20x_flash.c **** * microcontroller manufactured by Nanjing Qinheng Microelectronics.
  11:Drivers/src/ch32v20x_flash.c **** *******************************************************************************/
  12:Drivers/src/ch32v20x_flash.c **** #include "ch32v20x_flash.h"
  13:Drivers/src/ch32v20x_flash.c **** 
  14:Drivers/src/ch32v20x_flash.c **** /* Flash Control Register bits */
  15:Drivers/src/ch32v20x_flash.c **** #define CR_PG_Set                  ((uint32_t)0x00000001)
  16:Drivers/src/ch32v20x_flash.c **** #define CR_PG_Reset                ((uint32_t)0xFFFFFFFE)
  17:Drivers/src/ch32v20x_flash.c **** #define CR_PER_Set                 ((uint32_t)0x00000002)
  18:Drivers/src/ch32v20x_flash.c **** #define CR_PER_Reset               ((uint32_t)0xFFFFFFFD)
  19:Drivers/src/ch32v20x_flash.c **** #define CR_MER_Set                 ((uint32_t)0x00000004)
  20:Drivers/src/ch32v20x_flash.c **** #define CR_MER_Reset               ((uint32_t)0xFFFFFFFB)
  21:Drivers/src/ch32v20x_flash.c **** #define CR_OPTPG_Set               ((uint32_t)0x00000010)
  22:Drivers/src/ch32v20x_flash.c **** #define CR_OPTPG_Reset             ((uint32_t)0xFFFFFFEF)
  23:Drivers/src/ch32v20x_flash.c **** #define CR_OPTER_Set               ((uint32_t)0x00000020)
  24:Drivers/src/ch32v20x_flash.c **** #define CR_OPTER_Reset             ((uint32_t)0xFFFFFFDF)
  25:Drivers/src/ch32v20x_flash.c **** #define CR_STRT_Set                ((uint32_t)0x00000040)
  26:Drivers/src/ch32v20x_flash.c **** #define CR_LOCK_Set                ((uint32_t)0x00000080)
  27:Drivers/src/ch32v20x_flash.c **** #define CR_FAST_LOCK_Set           ((uint32_t)0x00008000)
  28:Drivers/src/ch32v20x_flash.c **** #define CR_PAGE_PG                 ((uint32_t)0x00010000)
  29:Drivers/src/ch32v20x_flash.c **** #define CR_PAGE_ER                 ((uint32_t)0x00020000)
  30:Drivers/src/ch32v20x_flash.c **** #define CR_BER32                   ((uint32_t)0x00040000)
  31:Drivers/src/ch32v20x_flash.c **** #define CR_BER64                   ((uint32_t)0x00080000)
  32:Drivers/src/ch32v20x_flash.c **** #define CR_PG_STRT                 ((uint32_t)0x00200000)
  33:Drivers/src/ch32v20x_flash.c **** 
  34:Drivers/src/ch32v20x_flash.c **** /* FLASH Status Register bits */
  35:Drivers/src/ch32v20x_flash.c **** #define SR_BSY                     ((uint32_t)0x00000001)
  36:Drivers/src/ch32v20x_flash.c **** #define SR_WR_BSY                  ((uint32_t)0x00000002)
  37:Drivers/src/ch32v20x_flash.c **** #define SR_WRPRTERR                ((uint32_t)0x00000010)
  38:Drivers/src/ch32v20x_flash.c **** #define SR_EOP                     ((uint32_t)0x00000020)
  39:Drivers/src/ch32v20x_flash.c **** 
  40:Drivers/src/ch32v20x_flash.c **** /* FLASH Mask */
  41:Drivers/src/ch32v20x_flash.c **** #define RDPRT_Mask                 ((uint32_t)0x00000002)
  42:Drivers/src/ch32v20x_flash.c **** #define WRP0_Mask                  ((uint32_t)0x000000FF)
GAS LISTING C:\Users\SOLDER~1\AppData\Local\Temp\ccKV8tJ7.s 			page 2


  43:Drivers/src/ch32v20x_flash.c **** #define WRP1_Mask                  ((uint32_t)0x0000FF00)
  44:Drivers/src/ch32v20x_flash.c **** #define WRP2_Mask                  ((uint32_t)0x00FF0000)
  45:Drivers/src/ch32v20x_flash.c **** #define WRP3_Mask                  ((uint32_t)0xFF000000)
  46:Drivers/src/ch32v20x_flash.c **** #define OB_USER_BFB2               ((uint16_t)0x0008)
  47:Drivers/src/ch32v20x_flash.c **** 
  48:Drivers/src/ch32v20x_flash.c **** /* FLASH Keys */
  49:Drivers/src/ch32v20x_flash.c **** #define RDP_Key                    ((uint16_t)0x00A5)
  50:Drivers/src/ch32v20x_flash.c **** #define FLASH_KEY1                 ((uint32_t)0x45670123)
  51:Drivers/src/ch32v20x_flash.c **** #define FLASH_KEY2                 ((uint32_t)0xCDEF89AB)
  52:Drivers/src/ch32v20x_flash.c **** 
  53:Drivers/src/ch32v20x_flash.c **** /* FLASH BANK address */
  54:Drivers/src/ch32v20x_flash.c **** #define FLASH_BANK1_END_ADDRESS    ((uint32_t)0x807FFFF)
  55:Drivers/src/ch32v20x_flash.c **** 
  56:Drivers/src/ch32v20x_flash.c **** /* EEPROM address */
  57:Drivers/src/ch32v20x_flash.c **** #define EEPROM_ADDRESS             ((uint32_t)0x8070000)
  58:Drivers/src/ch32v20x_flash.c **** 
  59:Drivers/src/ch32v20x_flash.c **** /* Delay definition */
  60:Drivers/src/ch32v20x_flash.c **** #define EraseTimeout               ((uint32_t)0x000B0000)
  61:Drivers/src/ch32v20x_flash.c **** #define ProgramTimeout             ((uint32_t)0x00005000)
  62:Drivers/src/ch32v20x_flash.c **** 
  63:Drivers/src/ch32v20x_flash.c **** /*********************************************************************
  64:Drivers/src/ch32v20x_flash.c ****  * @fn      FLASH_Unlock
  65:Drivers/src/ch32v20x_flash.c ****  *
  66:Drivers/src/ch32v20x_flash.c ****  * @brief   Unlocks the FLASH Program Erase Controller.
  67:Drivers/src/ch32v20x_flash.c ****  *
  68:Drivers/src/ch32v20x_flash.c ****  * @return  none
  69:Drivers/src/ch32v20x_flash.c ****  */
  70:Drivers/src/ch32v20x_flash.c **** void FLASH_Unlock(void)
  71:Drivers/src/ch32v20x_flash.c **** {
  17              		.loc 1 71 1
  18              		.cfi_startproc
  19 0000 4111     		addi	sp,sp,-16
  20              		.cfi_def_cfa_offset 16
  21 0002 22C6     		sw	s0,12(sp)
  22              		.cfi_offset 8, -4
  23 0004 0008     		addi	s0,sp,16
  24              		.cfi_def_cfa 8, 0
  72:Drivers/src/ch32v20x_flash.c ****     /* Authorize the FPEC of Bank1 Access */
  73:Drivers/src/ch32v20x_flash.c ****     FLASH->KEYR = FLASH_KEY1;
  25              		.loc 1 73 10
  26 0006 B7270240 		li	a5,1073881088
  27              		.loc 1 73 17
  28 000a 37076745 		li	a4,1164378112
  29 000e 13073712 		addi	a4,a4,291
  30 0012 D8C3     		sw	a4,4(a5)
  74:Drivers/src/ch32v20x_flash.c ****     FLASH->KEYR = FLASH_KEY2;
  31              		.loc 1 74 10
  32 0014 B7270240 		li	a5,1073881088
  33              		.loc 1 74 17
  34 0018 3797EFCD 		li	a4,-839938048
  35 001c 1307B79A 		addi	a4,a4,-1621
  36 0020 D8C3     		sw	a4,4(a5)
  75:Drivers/src/ch32v20x_flash.c **** }
  37              		.loc 1 75 1
  38 0022 0100     		nop
  39 0024 3244     		lw	s0,12(sp)
  40              		.cfi_restore 8
GAS LISTING C:\Users\SOLDER~1\AppData\Local\Temp\ccKV8tJ7.s 			page 3


  41              		.cfi_def_cfa 2, 16
  42 0026 4101     		addi	sp,sp,16
  43              		.cfi_def_cfa_offset 0
  44 0028 8280     		jr	ra
  45              		.cfi_endproc
  46              	.LFE16:
  48              		.section	.text.FLASH_UnlockBank1,"ax",@progbits
  49              		.align	1
  50              		.globl	FLASH_UnlockBank1
  52              	FLASH_UnlockBank1:
  53              	.LFB17:
  76:Drivers/src/ch32v20x_flash.c **** 
  77:Drivers/src/ch32v20x_flash.c **** /*********************************************************************
  78:Drivers/src/ch32v20x_flash.c ****  * @fn      FLASH_UnlockBank1
  79:Drivers/src/ch32v20x_flash.c ****  *
  80:Drivers/src/ch32v20x_flash.c ****  * @brief   Unlocks the FLASH Bank1 Program Erase Controller.
  81:Drivers/src/ch32v20x_flash.c ****  *          equivalent to FLASH_Unlock function.
  82:Drivers/src/ch32v20x_flash.c ****  *
  83:Drivers/src/ch32v20x_flash.c ****  * @return  none
  84:Drivers/src/ch32v20x_flash.c ****  */
  85:Drivers/src/ch32v20x_flash.c **** void FLASH_UnlockBank1(void)
  86:Drivers/src/ch32v20x_flash.c **** {
  54              		.loc 1 86 1
  55              		.cfi_startproc
  56 0000 4111     		addi	sp,sp,-16
  57              		.cfi_def_cfa_offset 16
  58 0002 22C6     		sw	s0,12(sp)
  59              		.cfi_offset 8, -4
  60 0004 0008     		addi	s0,sp,16
  61              		.cfi_def_cfa 8, 0
  87:Drivers/src/ch32v20x_flash.c ****     FLASH->KEYR = FLASH_KEY1;
  62              		.loc 1 87 10
  63 0006 B7270240 		li	a5,1073881088
  64              		.loc 1 87 17
  65 000a 37076745 		li	a4,1164378112
  66 000e 13073712 		addi	a4,a4,291
  67 0012 D8C3     		sw	a4,4(a5)
  88:Drivers/src/ch32v20x_flash.c ****     FLASH->KEYR = FLASH_KEY2;
  68              		.loc 1 88 10
  69 0014 B7270240 		li	a5,1073881088
  70              		.loc 1 88 17
  71 0018 3797EFCD 		li	a4,-839938048
  72 001c 1307B79A 		addi	a4,a4,-1621
  73 0020 D8C3     		sw	a4,4(a5)
  89:Drivers/src/ch32v20x_flash.c **** }
  74              		.loc 1 89 1
  75 0022 0100     		nop
  76 0024 3244     		lw	s0,12(sp)
  77              		.cfi_restore 8
  78              		.cfi_def_cfa 2, 16
  79 0026 4101     		addi	sp,sp,16
  80              		.cfi_def_cfa_offset 0
  81 0028 8280     		jr	ra
  82              		.cfi_endproc
  83              	.LFE17:
  85              		.section	.text.FLASH_Lock,"ax",@progbits
  86              		.align	1
GAS LISTING C:\Users\SOLDER~1\AppData\Local\Temp\ccKV8tJ7.s 			page 4


  87              		.globl	FLASH_Lock
  89              	FLASH_Lock:
  90              	.LFB18:
  90:Drivers/src/ch32v20x_flash.c **** 
  91:Drivers/src/ch32v20x_flash.c **** /*********************************************************************
  92:Drivers/src/ch32v20x_flash.c ****  * @fn      FLASH_Lock
  93:Drivers/src/ch32v20x_flash.c ****  *
  94:Drivers/src/ch32v20x_flash.c ****  * @brief   Locks the FLASH Program Erase Controller.
  95:Drivers/src/ch32v20x_flash.c ****  *
  96:Drivers/src/ch32v20x_flash.c ****  * @return  none
  97:Drivers/src/ch32v20x_flash.c ****  */
  98:Drivers/src/ch32v20x_flash.c **** void FLASH_Lock(void)
  99:Drivers/src/ch32v20x_flash.c **** {
  91              		.loc 1 99 1
  92              		.cfi_startproc
  93 0000 4111     		addi	sp,sp,-16
  94              		.cfi_def_cfa_offset 16
  95 0002 22C6     		sw	s0,12(sp)
  96              		.cfi_offset 8, -4
  97 0004 0008     		addi	s0,sp,16
  98              		.cfi_def_cfa 8, 0
 100:Drivers/src/ch32v20x_flash.c ****     FLASH->CTLR |= CR_LOCK_Set;
  99              		.loc 1 100 10
 100 0006 B7270240 		li	a5,1073881088
 101 000a 984B     		lw	a4,16(a5)
 102 000c B7270240 		li	a5,1073881088
 103              		.loc 1 100 17
 104 0010 13670708 		ori	a4,a4,128
 105 0014 98CB     		sw	a4,16(a5)
 101:Drivers/src/ch32v20x_flash.c **** }
 106              		.loc 1 101 1
 107 0016 0100     		nop
 108 0018 3244     		lw	s0,12(sp)
 109              		.cfi_restore 8
 110              		.cfi_def_cfa 2, 16
 111 001a 4101     		addi	sp,sp,16
 112              		.cfi_def_cfa_offset 0
 113 001c 8280     		jr	ra
 114              		.cfi_endproc
 115              	.LFE18:
 117              		.section	.text.FLASH_LockBank1,"ax",@progbits
 118              		.align	1
 119              		.globl	FLASH_LockBank1
 121              	FLASH_LockBank1:
 122              	.LFB19:
 102:Drivers/src/ch32v20x_flash.c **** 
 103:Drivers/src/ch32v20x_flash.c **** /*********************************************************************
 104:Drivers/src/ch32v20x_flash.c ****  * @fn      FLASH_LockBank1
 105:Drivers/src/ch32v20x_flash.c ****  *
 106:Drivers/src/ch32v20x_flash.c ****  * @brief   Locks the FLASH Bank1 Program Erase Controller.
 107:Drivers/src/ch32v20x_flash.c ****  *
 108:Drivers/src/ch32v20x_flash.c ****  * @return  none
 109:Drivers/src/ch32v20x_flash.c ****  */
 110:Drivers/src/ch32v20x_flash.c **** void FLASH_LockBank1(void)
 111:Drivers/src/ch32v20x_flash.c **** {
 123              		.loc 1 111 1
 124              		.cfi_startproc
GAS LISTING C:\Users\SOLDER~1\AppData\Local\Temp\ccKV8tJ7.s 			page 5


 125 0000 4111     		addi	sp,sp,-16
 126              		.cfi_def_cfa_offset 16
 127 0002 22C6     		sw	s0,12(sp)
 128              		.cfi_offset 8, -4
 129 0004 0008     		addi	s0,sp,16
 130              		.cfi_def_cfa 8, 0
 112:Drivers/src/ch32v20x_flash.c ****     FLASH->CTLR |= CR_LOCK_Set;
 131              		.loc 1 112 10
 132 0006 B7270240 		li	a5,1073881088
 133 000a 984B     		lw	a4,16(a5)
 134 000c B7270240 		li	a5,1073881088
 135              		.loc 1 112 17
 136 0010 13670708 		ori	a4,a4,128
 137 0014 98CB     		sw	a4,16(a5)
 113:Drivers/src/ch32v20x_flash.c **** }
 138              		.loc 1 113 1
 139 0016 0100     		nop
 140 0018 3244     		lw	s0,12(sp)
 141              		.cfi_restore 8
 142              		.cfi_def_cfa 2, 16
 143 001a 4101     		addi	sp,sp,16
 144              		.cfi_def_cfa_offset 0
 145 001c 8280     		jr	ra
 146              		.cfi_endproc
 147              	.LFE19:
 149              		.section	.text.FLASH_ErasePage,"ax",@progbits
 150              		.align	1
 151              		.globl	FLASH_ErasePage
 153              	FLASH_ErasePage:
 154              	.LFB20:
 114:Drivers/src/ch32v20x_flash.c **** 
 115:Drivers/src/ch32v20x_flash.c **** /*********************************************************************
 116:Drivers/src/ch32v20x_flash.c ****  * @fn      FLASH_ErasePage
 117:Drivers/src/ch32v20x_flash.c ****  *
 118:Drivers/src/ch32v20x_flash.c ****  * @brief   Erases a specified FLASH page(page size 4KB).
 119:Drivers/src/ch32v20x_flash.c ****  *
 120:Drivers/src/ch32v20x_flash.c ****  * @param   Page_Address - The page address to be erased.
 121:Drivers/src/ch32v20x_flash.c ****  *
 122:Drivers/src/ch32v20x_flash.c ****  * @return  FLASH Status - The returned value can be: FLASH_BUSY, FLASH_ERROR_PG,
 123:Drivers/src/ch32v20x_flash.c ****  *        FLASH_ERROR_WRP, FLASH_COMPLETE or FLASH_TIMEOUT.
 124:Drivers/src/ch32v20x_flash.c ****  */
 125:Drivers/src/ch32v20x_flash.c **** FLASH_Status FLASH_ErasePage(uint32_t Page_Address)
 126:Drivers/src/ch32v20x_flash.c **** {
 155              		.loc 1 126 1
 156              		.cfi_startproc
 157 0000 7971     		addi	sp,sp,-48
 158              		.cfi_def_cfa_offset 48
 159 0002 06D6     		sw	ra,44(sp)
 160 0004 22D4     		sw	s0,40(sp)
 161              		.cfi_offset 1, -4
 162              		.cfi_offset 8, -8
 163 0006 0018     		addi	s0,sp,48
 164              		.cfi_def_cfa 8, 0
 165 0008 232EA4FC 		sw	a0,-36(s0)
 127:Drivers/src/ch32v20x_flash.c ****     FLASH_Status status = FLASH_COMPLETE;
 166              		.loc 1 127 18
 167 000c 9147     		li	a5,4
GAS LISTING C:\Users\SOLDER~1\AppData\Local\Temp\ccKV8tJ7.s 			page 6


 168 000e 2326F4FE 		sw	a5,-20(s0)
 128:Drivers/src/ch32v20x_flash.c **** 
 129:Drivers/src/ch32v20x_flash.c ****     status = FLASH_WaitForLastOperation(EraseTimeout);
 169              		.loc 1 129 14
 170 0012 37050B00 		li	a0,720896
 171 0016 97000000 		call	FLASH_WaitForLastOperation
 171      E7800000 
 172 001e 2326A4FE 		sw	a0,-20(s0)
 130:Drivers/src/ch32v20x_flash.c **** 
 131:Drivers/src/ch32v20x_flash.c ****     if(status == FLASH_COMPLETE)
 173              		.loc 1 131 7
 174 0022 0327C4FE 		lw	a4,-20(s0)
 175 0026 9147     		li	a5,4
 176 0028 6316F704 		bne	a4,a5,.L6
 132:Drivers/src/ch32v20x_flash.c ****     {
 133:Drivers/src/ch32v20x_flash.c ****         FLASH->CTLR |= CR_PER_Set;
 177              		.loc 1 133 14
 178 002c B7270240 		li	a5,1073881088
 179 0030 984B     		lw	a4,16(a5)
 180 0032 B7270240 		li	a5,1073881088
 181              		.loc 1 133 21
 182 0036 13672700 		ori	a4,a4,2
 183 003a 98CB     		sw	a4,16(a5)
 134:Drivers/src/ch32v20x_flash.c ****         FLASH->ADDR = Page_Address;
 184              		.loc 1 134 14
 185 003c B7270240 		li	a5,1073881088
 186              		.loc 1 134 21
 187 0040 0327C4FD 		lw	a4,-36(s0)
 188 0044 D8CB     		sw	a4,20(a5)
 135:Drivers/src/ch32v20x_flash.c ****         FLASH->CTLR |= CR_STRT_Set;
 189              		.loc 1 135 14
 190 0046 B7270240 		li	a5,1073881088
 191 004a 984B     		lw	a4,16(a5)
 192 004c B7270240 		li	a5,1073881088
 193              		.loc 1 135 21
 194 0050 13670704 		ori	a4,a4,64
 195 0054 98CB     		sw	a4,16(a5)
 136:Drivers/src/ch32v20x_flash.c **** 
 137:Drivers/src/ch32v20x_flash.c ****         status = FLASH_WaitForLastOperation(EraseTimeout);
 196              		.loc 1 137 18
 197 0056 37050B00 		li	a0,720896
 198 005a 97000000 		call	FLASH_WaitForLastOperation
 198      E7800000 
 199 0062 2326A4FE 		sw	a0,-20(s0)
 138:Drivers/src/ch32v20x_flash.c **** 
 139:Drivers/src/ch32v20x_flash.c ****         FLASH->CTLR &= CR_PER_Reset;
 200              		.loc 1 139 14
 201 0066 B7270240 		li	a5,1073881088
 202 006a 984B     		lw	a4,16(a5)
 203 006c B7270240 		li	a5,1073881088
 204              		.loc 1 139 21
 205 0070 759B     		andi	a4,a4,-3
 206 0072 98CB     		sw	a4,16(a5)
 207              	.L6:
 140:Drivers/src/ch32v20x_flash.c ****     }
 141:Drivers/src/ch32v20x_flash.c **** 
 142:Drivers/src/ch32v20x_flash.c ****     return status;
GAS LISTING C:\Users\SOLDER~1\AppData\Local\Temp\ccKV8tJ7.s 			page 7


 208              		.loc 1 142 12
 209 0074 8327C4FE 		lw	a5,-20(s0)
 143:Drivers/src/ch32v20x_flash.c **** }
 210              		.loc 1 143 1
 211 0078 3E85     		mv	a0,a5
 212 007a B250     		lw	ra,44(sp)
 213              		.cfi_restore 1
 214 007c 2254     		lw	s0,40(sp)
 215              		.cfi_restore 8
 216              		.cfi_def_cfa 2, 48
 217 007e 4561     		addi	sp,sp,48
 218              		.cfi_def_cfa_offset 0
 219 0080 8280     		jr	ra
 220              		.cfi_endproc
 221              	.LFE20:
 223              		.section	.text.FLASH_EraseAllPages,"ax",@progbits
 224              		.align	1
 225              		.globl	FLASH_EraseAllPages
 227              	FLASH_EraseAllPages:
 228              	.LFB21:
 144:Drivers/src/ch32v20x_flash.c **** 
 145:Drivers/src/ch32v20x_flash.c **** /*********************************************************************
 146:Drivers/src/ch32v20x_flash.c ****  * @fn      FLASH_EraseAllPages
 147:Drivers/src/ch32v20x_flash.c ****  *
 148:Drivers/src/ch32v20x_flash.c ****  * @brief   Erases all FLASH pages.
 149:Drivers/src/ch32v20x_flash.c ****  *
 150:Drivers/src/ch32v20x_flash.c ****  * @return  FLASH Status - The returned value can be: FLASH_BUSY, FLASH_ERROR_PG,
 151:Drivers/src/ch32v20x_flash.c ****  *        FLASH_ERROR_WRP, FLASH_COMPLETE or FLASH_TIMEOUT.
 152:Drivers/src/ch32v20x_flash.c ****  */
 153:Drivers/src/ch32v20x_flash.c **** FLASH_Status FLASH_EraseAllPages(void)
 154:Drivers/src/ch32v20x_flash.c **** {
 229              		.loc 1 154 1
 230              		.cfi_startproc
 231 0000 0111     		addi	sp,sp,-32
 232              		.cfi_def_cfa_offset 32
 233 0002 06CE     		sw	ra,28(sp)
 234 0004 22CC     		sw	s0,24(sp)
 235              		.cfi_offset 1, -4
 236              		.cfi_offset 8, -8
 237 0006 0010     		addi	s0,sp,32
 238              		.cfi_def_cfa 8, 0
 155:Drivers/src/ch32v20x_flash.c ****     FLASH_Status status = FLASH_COMPLETE;
 239              		.loc 1 155 18
 240 0008 9147     		li	a5,4
 241 000a 2326F4FE 		sw	a5,-20(s0)
 156:Drivers/src/ch32v20x_flash.c **** 
 157:Drivers/src/ch32v20x_flash.c ****     status = FLASH_WaitForLastOperation(EraseTimeout);
 242              		.loc 1 157 14
 243 000e 37050B00 		li	a0,720896
 244 0012 97000000 		call	FLASH_WaitForLastOperation
 244      E7800000 
 245 001a 2326A4FE 		sw	a0,-20(s0)
 158:Drivers/src/ch32v20x_flash.c ****     if(status == FLASH_COMPLETE)
 246              		.loc 1 158 7
 247 001e 0327C4FE 		lw	a4,-20(s0)
 248 0022 9147     		li	a5,4
 249 0024 6311F704 		bne	a4,a5,.L9
GAS LISTING C:\Users\SOLDER~1\AppData\Local\Temp\ccKV8tJ7.s 			page 8


 159:Drivers/src/ch32v20x_flash.c ****     {
 160:Drivers/src/ch32v20x_flash.c ****         FLASH->CTLR |= CR_MER_Set;
 250              		.loc 1 160 14
 251 0028 B7270240 		li	a5,1073881088
 252 002c 984B     		lw	a4,16(a5)
 253 002e B7270240 		li	a5,1073881088
 254              		.loc 1 160 21
 255 0032 13674700 		ori	a4,a4,4
 256 0036 98CB     		sw	a4,16(a5)
 161:Drivers/src/ch32v20x_flash.c ****         FLASH->CTLR |= CR_STRT_Set;
 257              		.loc 1 161 14
 258 0038 B7270240 		li	a5,1073881088
 259 003c 984B     		lw	a4,16(a5)
 260 003e B7270240 		li	a5,1073881088
 261              		.loc 1 161 21
 262 0042 13670704 		ori	a4,a4,64
 263 0046 98CB     		sw	a4,16(a5)
 162:Drivers/src/ch32v20x_flash.c **** 
 163:Drivers/src/ch32v20x_flash.c ****         status = FLASH_WaitForLastOperation(EraseTimeout);
 264              		.loc 1 163 18
 265 0048 37050B00 		li	a0,720896
 266 004c 97000000 		call	FLASH_WaitForLastOperation
 266      E7800000 
 267 0054 2326A4FE 		sw	a0,-20(s0)
 164:Drivers/src/ch32v20x_flash.c **** 
 165:Drivers/src/ch32v20x_flash.c ****         FLASH->CTLR &= CR_MER_Reset;
 268              		.loc 1 165 14
 269 0058 B7270240 		li	a5,1073881088
 270 005c 984B     		lw	a4,16(a5)
 271 005e B7270240 		li	a5,1073881088
 272              		.loc 1 165 21
 273 0062 6D9B     		andi	a4,a4,-5
 274 0064 98CB     		sw	a4,16(a5)
 275              	.L9:
 166:Drivers/src/ch32v20x_flash.c ****     }
 167:Drivers/src/ch32v20x_flash.c **** 
 168:Drivers/src/ch32v20x_flash.c ****     return status;
 276              		.loc 1 168 12
 277 0066 8327C4FE 		lw	a5,-20(s0)
 169:Drivers/src/ch32v20x_flash.c **** }
 278              		.loc 1 169 1
 279 006a 3E85     		mv	a0,a5
 280 006c F240     		lw	ra,28(sp)
 281              		.cfi_restore 1
 282 006e 6244     		lw	s0,24(sp)
 283              		.cfi_restore 8
 284              		.cfi_def_cfa 2, 32
 285 0070 0561     		addi	sp,sp,32
 286              		.cfi_def_cfa_offset 0
 287 0072 8280     		jr	ra
 288              		.cfi_endproc
 289              	.LFE21:
 291              		.section	.text.FLASH_EraseAllBank1Pages,"ax",@progbits
 292              		.align	1
 293              		.globl	FLASH_EraseAllBank1Pages
 295              	FLASH_EraseAllBank1Pages:
 296              	.LFB22:
GAS LISTING C:\Users\SOLDER~1\AppData\Local\Temp\ccKV8tJ7.s 			page 9


 170:Drivers/src/ch32v20x_flash.c **** 
 171:Drivers/src/ch32v20x_flash.c **** /*********************************************************************
 172:Drivers/src/ch32v20x_flash.c ****  * @fn      FLASH_EraseAllBank1Pages
 173:Drivers/src/ch32v20x_flash.c ****  *
 174:Drivers/src/ch32v20x_flash.c ****  * @brief   Erases all Bank1 FLASH pages.
 175:Drivers/src/ch32v20x_flash.c ****  *
 176:Drivers/src/ch32v20x_flash.c ****  * @return  FLASH Status - The returned value can be: FLASH_BUSY, FLASH_ERROR_PG,
 177:Drivers/src/ch32v20x_flash.c ****  *        FLASH_ERROR_WRP, FLASH_COMPLETE or FLASH_TIMEOUT.
 178:Drivers/src/ch32v20x_flash.c ****  */
 179:Drivers/src/ch32v20x_flash.c **** FLASH_Status FLASH_EraseAllBank1Pages(void)
 180:Drivers/src/ch32v20x_flash.c **** {
 297              		.loc 1 180 1
 298              		.cfi_startproc
 299 0000 0111     		addi	sp,sp,-32
 300              		.cfi_def_cfa_offset 32
 301 0002 06CE     		sw	ra,28(sp)
 302 0004 22CC     		sw	s0,24(sp)
 303              		.cfi_offset 1, -4
 304              		.cfi_offset 8, -8
 305 0006 0010     		addi	s0,sp,32
 306              		.cfi_def_cfa 8, 0
 181:Drivers/src/ch32v20x_flash.c ****     FLASH_Status status = FLASH_COMPLETE;
 307              		.loc 1 181 18
 308 0008 9147     		li	a5,4
 309 000a 2326F4FE 		sw	a5,-20(s0)
 182:Drivers/src/ch32v20x_flash.c ****     status = FLASH_WaitForLastBank1Operation(EraseTimeout);
 310              		.loc 1 182 14
 311 000e 37050B00 		li	a0,720896
 312 0012 97000000 		call	FLASH_WaitForLastBank1Operation
 312      E7800000 
 313 001a 2326A4FE 		sw	a0,-20(s0)
 183:Drivers/src/ch32v20x_flash.c **** 
 184:Drivers/src/ch32v20x_flash.c ****     if(status == FLASH_COMPLETE)
 314              		.loc 1 184 7
 315 001e 0327C4FE 		lw	a4,-20(s0)
 316 0022 9147     		li	a5,4
 317 0024 6311F704 		bne	a4,a5,.L12
 185:Drivers/src/ch32v20x_flash.c ****     {
 186:Drivers/src/ch32v20x_flash.c ****         FLASH->CTLR |= CR_MER_Set;
 318              		.loc 1 186 14
 319 0028 B7270240 		li	a5,1073881088
 320 002c 984B     		lw	a4,16(a5)
 321 002e B7270240 		li	a5,1073881088
 322              		.loc 1 186 21
 323 0032 13674700 		ori	a4,a4,4
 324 0036 98CB     		sw	a4,16(a5)
 187:Drivers/src/ch32v20x_flash.c ****         FLASH->CTLR |= CR_STRT_Set;
 325              		.loc 1 187 14
 326 0038 B7270240 		li	a5,1073881088
 327 003c 984B     		lw	a4,16(a5)
 328 003e B7270240 		li	a5,1073881088
 329              		.loc 1 187 21
 330 0042 13670704 		ori	a4,a4,64
 331 0046 98CB     		sw	a4,16(a5)
 188:Drivers/src/ch32v20x_flash.c **** 
 189:Drivers/src/ch32v20x_flash.c ****         status = FLASH_WaitForLastBank1Operation(EraseTimeout);
 332              		.loc 1 189 18
GAS LISTING C:\Users\SOLDER~1\AppData\Local\Temp\ccKV8tJ7.s 			page 10


 333 0048 37050B00 		li	a0,720896
 334 004c 97000000 		call	FLASH_WaitForLastBank1Operation
 334      E7800000 
 335 0054 2326A4FE 		sw	a0,-20(s0)
 190:Drivers/src/ch32v20x_flash.c **** 
 191:Drivers/src/ch32v20x_flash.c ****         FLASH->CTLR &= CR_MER_Reset;
 336              		.loc 1 191 14
 337 0058 B7270240 		li	a5,1073881088
 338 005c 984B     		lw	a4,16(a5)
 339 005e B7270240 		li	a5,1073881088
 340              		.loc 1 191 21
 341 0062 6D9B     		andi	a4,a4,-5
 342 0064 98CB     		sw	a4,16(a5)
 343              	.L12:
 192:Drivers/src/ch32v20x_flash.c ****     }
 193:Drivers/src/ch32v20x_flash.c ****     return status;
 344              		.loc 1 193 12
 345 0066 8327C4FE 		lw	a5,-20(s0)
 194:Drivers/src/ch32v20x_flash.c **** }
 346              		.loc 1 194 1
 347 006a 3E85     		mv	a0,a5
 348 006c F240     		lw	ra,28(sp)
 349              		.cfi_restore 1
 350 006e 6244     		lw	s0,24(sp)
 351              		.cfi_restore 8
 352              		.cfi_def_cfa 2, 32
 353 0070 0561     		addi	sp,sp,32
 354              		.cfi_def_cfa_offset 0
 355 0072 8280     		jr	ra
 356              		.cfi_endproc
 357              	.LFE22:
 359              		.section	.text.FLASH_EraseOptionBytes,"ax",@progbits
 360              		.align	1
 361              		.globl	FLASH_EraseOptionBytes
 363              	FLASH_EraseOptionBytes:
 364              	.LFB23:
 195:Drivers/src/ch32v20x_flash.c **** 
 196:Drivers/src/ch32v20x_flash.c **** /*********************************************************************
 197:Drivers/src/ch32v20x_flash.c ****  * @fn      FLASH_EraseOptionBytes
 198:Drivers/src/ch32v20x_flash.c ****  *
 199:Drivers/src/ch32v20x_flash.c ****  * @brief   Erases the FLASH option bytes.
 200:Drivers/src/ch32v20x_flash.c ****  *
 201:Drivers/src/ch32v20x_flash.c ****  * @return  FLASH Status - The returned value can be: FLASH_BUSY, FLASH_ERROR_PG,
 202:Drivers/src/ch32v20x_flash.c ****  *        FLASH_ERROR_WRP, FLASH_COMPLETE or FLASH_TIMEOUT.
 203:Drivers/src/ch32v20x_flash.c ****  */
 204:Drivers/src/ch32v20x_flash.c **** FLASH_Status FLASH_EraseOptionBytes(void)
 205:Drivers/src/ch32v20x_flash.c **** {
 365              		.loc 1 205 1
 366              		.cfi_startproc
 367 0000 0111     		addi	sp,sp,-32
 368              		.cfi_def_cfa_offset 32
 369 0002 06CE     		sw	ra,28(sp)
 370 0004 22CC     		sw	s0,24(sp)
 371              		.cfi_offset 1, -4
 372              		.cfi_offset 8, -8
 373 0006 0010     		addi	s0,sp,32
 374              		.cfi_def_cfa 8, 0
GAS LISTING C:\Users\SOLDER~1\AppData\Local\Temp\ccKV8tJ7.s 			page 11


 206:Drivers/src/ch32v20x_flash.c ****     uint16_t     rdptmp = RDP_Key;
 375              		.loc 1 206 18
 376 0008 9307500A 		li	a5,165
 377 000c 2317F4FE 		sh	a5,-18(s0)
 207:Drivers/src/ch32v20x_flash.c ****     uint32_t     Address = 0x1FFFF800;
 378              		.loc 1 207 18
 379 0010 B7070020 		li	a5,536870912
 380 0014 93870780 		addi	a5,a5,-2048
 381 0018 2322F4FE 		sw	a5,-28(s0)
 208:Drivers/src/ch32v20x_flash.c ****     __IO uint8_t i;
 209:Drivers/src/ch32v20x_flash.c **** 
 210:Drivers/src/ch32v20x_flash.c ****     FLASH_Status status = FLASH_COMPLETE;
 382              		.loc 1 210 18
 383 001c 9147     		li	a5,4
 384 001e 2324F4FE 		sw	a5,-24(s0)
 211:Drivers/src/ch32v20x_flash.c ****     if(FLASH_GetReadOutProtectionStatus() != RESET)
 385              		.loc 1 211 8
 386 0022 97000000 		call	FLASH_GetReadOutProtectionStatus
 386      E7800000 
 387 002a AA87     		mv	a5,a0
 388              		.loc 1 211 7
 389 002c 99C3     		beq	a5,zero,.L15
 212:Drivers/src/ch32v20x_flash.c ****     {
 213:Drivers/src/ch32v20x_flash.c ****         rdptmp = 0x00;
 390              		.loc 1 213 16
 391 002e 231704FE 		sh	zero,-18(s0)
 392              	.L15:
 214:Drivers/src/ch32v20x_flash.c ****     }
 215:Drivers/src/ch32v20x_flash.c ****     status = FLASH_WaitForLastOperation(EraseTimeout);
 393              		.loc 1 215 14
 394 0032 37050B00 		li	a0,720896
 395 0036 97000000 		call	FLASH_WaitForLastOperation
 395      E7800000 
 396 003e 2324A4FE 		sw	a0,-24(s0)
 216:Drivers/src/ch32v20x_flash.c ****     if(status == FLASH_COMPLETE)
 397              		.loc 1 216 7
 398 0042 032784FE 		lw	a4,-24(s0)
 399 0046 9147     		li	a5,4
 400 0048 6319F712 		bne	a4,a5,.L16
 217:Drivers/src/ch32v20x_flash.c ****     {
 218:Drivers/src/ch32v20x_flash.c ****         FLASH->OBKEYR = FLASH_KEY1;
 401              		.loc 1 218 14
 402 004c B7270240 		li	a5,1073881088
 403              		.loc 1 218 23
 404 0050 37076745 		li	a4,1164378112
 405 0054 13073712 		addi	a4,a4,291
 406 0058 98C7     		sw	a4,8(a5)
 219:Drivers/src/ch32v20x_flash.c ****         FLASH->OBKEYR = FLASH_KEY2;
 407              		.loc 1 219 14
 408 005a B7270240 		li	a5,1073881088
 409              		.loc 1 219 23
 410 005e 3797EFCD 		li	a4,-839938048
 411 0062 1307B79A 		addi	a4,a4,-1621
 412 0066 98C7     		sw	a4,8(a5)
 220:Drivers/src/ch32v20x_flash.c **** 
 221:Drivers/src/ch32v20x_flash.c ****         FLASH->CTLR |= CR_OPTER_Set;
 413              		.loc 1 221 14
GAS LISTING C:\Users\SOLDER~1\AppData\Local\Temp\ccKV8tJ7.s 			page 12


 414 0068 B7270240 		li	a5,1073881088
 415 006c 984B     		lw	a4,16(a5)
 416 006e B7270240 		li	a5,1073881088
 417              		.loc 1 221 21
 418 0072 13670702 		ori	a4,a4,32
 419 0076 98CB     		sw	a4,16(a5)
 222:Drivers/src/ch32v20x_flash.c ****         FLASH->CTLR |= CR_STRT_Set;
 420              		.loc 1 222 14
 421 0078 B7270240 		li	a5,1073881088
 422 007c 984B     		lw	a4,16(a5)
 423 007e B7270240 		li	a5,1073881088
 424              		.loc 1 222 21
 425 0082 13670704 		ori	a4,a4,64
 426 0086 98CB     		sw	a4,16(a5)
 223:Drivers/src/ch32v20x_flash.c ****         status = FLASH_WaitForLastOperation(EraseTimeout);
 427              		.loc 1 223 18
 428 0088 37050B00 		li	a0,720896
 429 008c 97000000 		call	FLASH_WaitForLastOperation
 429      E7800000 
 430 0094 2324A4FE 		sw	a0,-24(s0)
 224:Drivers/src/ch32v20x_flash.c **** 
 225:Drivers/src/ch32v20x_flash.c ****         if(status == FLASH_COMPLETE)
 431              		.loc 1 225 11
 432 0098 032784FE 		lw	a4,-24(s0)
 433 009c 9147     		li	a5,4
 434 009e 631DF704 		bne	a4,a5,.L17
 226:Drivers/src/ch32v20x_flash.c ****         {
 227:Drivers/src/ch32v20x_flash.c ****             FLASH->CTLR &= CR_OPTER_Reset;
 435              		.loc 1 227 18
 436 00a2 B7270240 		li	a5,1073881088
 437 00a6 984B     		lw	a4,16(a5)
 438 00a8 B7270240 		li	a5,1073881088
 439              		.loc 1 227 25
 440 00ac 1377F7FD 		andi	a4,a4,-33
 441 00b0 98CB     		sw	a4,16(a5)
 228:Drivers/src/ch32v20x_flash.c ****             FLASH->CTLR |= CR_OPTPG_Set;
 442              		.loc 1 228 18
 443 00b2 B7270240 		li	a5,1073881088
 444 00b6 984B     		lw	a4,16(a5)
 445 00b8 B7270240 		li	a5,1073881088
 446              		.loc 1 228 25
 447 00bc 13670701 		ori	a4,a4,16
 448 00c0 98CB     		sw	a4,16(a5)
 229:Drivers/src/ch32v20x_flash.c ****             OB->RDPR = (uint16_t)rdptmp;
 449              		.loc 1 229 15
 450 00c2 B7070020 		li	a5,536870912
 451 00c6 93870780 		addi	a5,a5,-2048
 452              		.loc 1 229 22
 453 00ca 0357E4FE 		lhu	a4,-18(s0)
 454 00ce 9AA3     		sh	a4,0(a5)
 230:Drivers/src/ch32v20x_flash.c ****             status = FLASH_WaitForLastOperation(ProgramTimeout);
 455              		.loc 1 230 22
 456 00d0 1565     		li	a0,20480
 457 00d2 97000000 		call	FLASH_WaitForLastOperation
 457      E7800000 
 458 00da 2324A4FE 		sw	a0,-24(s0)
 231:Drivers/src/ch32v20x_flash.c **** 
GAS LISTING C:\Users\SOLDER~1\AppData\Local\Temp\ccKV8tJ7.s 			page 13


 232:Drivers/src/ch32v20x_flash.c ****             if(status != FLASH_TIMEOUT)
 459              		.loc 1 232 15
 460 00de 032784FE 		lw	a4,-24(s0)
 461 00e2 9547     		li	a5,5
 462 00e4 6306F702 		beq	a4,a5,.L18
 233:Drivers/src/ch32v20x_flash.c ****             {
 234:Drivers/src/ch32v20x_flash.c ****                 FLASH->CTLR &= CR_OPTPG_Reset;
 463              		.loc 1 234 22
 464 00e8 B7270240 		li	a5,1073881088
 465 00ec 984B     		lw	a4,16(a5)
 466 00ee B7270240 		li	a5,1073881088
 467              		.loc 1 234 29
 468 00f2 3D9B     		andi	a4,a4,-17
 469 00f4 98CB     		sw	a4,16(a5)
 470 00f6 29A8     		j	.L18
 471              	.L17:
 235:Drivers/src/ch32v20x_flash.c ****             }
 236:Drivers/src/ch32v20x_flash.c ****         }
 237:Drivers/src/ch32v20x_flash.c ****         else
 238:Drivers/src/ch32v20x_flash.c ****         {
 239:Drivers/src/ch32v20x_flash.c ****             if(status != FLASH_TIMEOUT)
 472              		.loc 1 239 15
 473 00f8 032784FE 		lw	a4,-24(s0)
 474 00fc 9547     		li	a5,5
 475 00fe 6309F700 		beq	a4,a5,.L18
 240:Drivers/src/ch32v20x_flash.c ****             {
 241:Drivers/src/ch32v20x_flash.c ****                 FLASH->CTLR &= CR_OPTPG_Reset;
 476              		.loc 1 241 22
 477 0102 B7270240 		li	a5,1073881088
 478 0106 984B     		lw	a4,16(a5)
 479 0108 B7270240 		li	a5,1073881088
 480              		.loc 1 241 29
 481 010c 3D9B     		andi	a4,a4,-17
 482 010e 98CB     		sw	a4,16(a5)
 483              	.L18:
 242:Drivers/src/ch32v20x_flash.c ****             }
 243:Drivers/src/ch32v20x_flash.c ****         }
 244:Drivers/src/ch32v20x_flash.c **** 
 245:Drivers/src/ch32v20x_flash.c ****         /* Write 0xFF */
 246:Drivers/src/ch32v20x_flash.c ****         FLASH->CTLR |= CR_OPTPG_Set;
 484              		.loc 1 246 14
 485 0110 B7270240 		li	a5,1073881088
 486 0114 984B     		lw	a4,16(a5)
 487 0116 B7270240 		li	a5,1073881088
 488              		.loc 1 246 21
 489 011a 13670701 		ori	a4,a4,16
 490 011e 98CB     		sw	a4,16(a5)
 247:Drivers/src/ch32v20x_flash.c **** 
 248:Drivers/src/ch32v20x_flash.c ****         for(i = 0; i < 8; i++){
 491              		.loc 1 248 15
 492 0120 A30104FE 		sb	zero,-29(s0)
 493              		.loc 1 248 9
 494 0124 2DA8     		j	.L19
 495              	.L21:
 249:Drivers/src/ch32v20x_flash.c ****             *(uint16_t *)(Address + 2 * i) = 0x00FF;
 496              		.loc 1 249 39
 497 0126 834734FE 		lbu	a5,-29(s0)
GAS LISTING C:\Users\SOLDER~1\AppData\Local\Temp\ccKV8tJ7.s 			page 14


 498 012a 93F7F70F 		andi	a5,a5,0xff
 499 012e 8607     		slli	a5,a5,1
 500 0130 3E87     		mv	a4,a5
 501              		.loc 1 249 35
 502 0132 832744FE 		lw	a5,-28(s0)
 503 0136 BA97     		add	a5,a4,a5
 504              		.loc 1 249 14
 505 0138 3E87     		mv	a4,a5
 506              		.loc 1 249 44
 507 013a 9307F00F 		li	a5,255
 508 013e 1EA3     		sh	a5,0(a4)
 250:Drivers/src/ch32v20x_flash.c ****             while(FLASH->STATR & SR_BSY);
 509              		.loc 1 250 18
 510 0140 0100     		nop
 511              	.L20:
 512              		.loc 1 250 24 discriminator 1
 513 0142 B7270240 		li	a5,1073881088
 514 0146 DC47     		lw	a5,12(a5)
 515              		.loc 1 250 32 discriminator 1
 516 0148 858B     		andi	a5,a5,1
 517              		.loc 1 250 19 discriminator 1
 518 014a E5FF     		bne	a5,zero,.L20
 248:Drivers/src/ch32v20x_flash.c ****             *(uint16_t *)(Address + 2 * i) = 0x00FF;
 519              		.loc 1 248 28 discriminator 2
 520 014c 834734FE 		lbu	a5,-29(s0)
 521 0150 93F7F70F 		andi	a5,a5,0xff
 522 0154 8507     		addi	a5,a5,1
 523 0156 93F7F70F 		andi	a5,a5,0xff
 524 015a A301F4FE 		sb	a5,-29(s0)
 525              	.L19:
 248:Drivers/src/ch32v20x_flash.c ****             *(uint16_t *)(Address + 2 * i) = 0x00FF;
 526              		.loc 1 248 22 discriminator 1
 527 015e 834734FE 		lbu	a5,-29(s0)
 528 0162 13F7F70F 		andi	a4,a5,0xff
 529 0166 9D47     		li	a5,7
 530 0168 E3FFE7FA 		bleu	a4,a5,.L21
 251:Drivers/src/ch32v20x_flash.c ****         }
 252:Drivers/src/ch32v20x_flash.c **** 
 253:Drivers/src/ch32v20x_flash.c ****         FLASH->CTLR &= ~CR_OPTPG_Set;
 531              		.loc 1 253 14
 532 016c B7270240 		li	a5,1073881088
 533 0170 984B     		lw	a4,16(a5)
 534 0172 B7270240 		li	a5,1073881088
 535              		.loc 1 253 21
 536 0176 3D9B     		andi	a4,a4,-17
 537 0178 98CB     		sw	a4,16(a5)
 538              	.L16:
 254:Drivers/src/ch32v20x_flash.c ****     }
 255:Drivers/src/ch32v20x_flash.c ****     return status;
 539              		.loc 1 255 12
 540 017a 832784FE 		lw	a5,-24(s0)
 256:Drivers/src/ch32v20x_flash.c **** }
 541              		.loc 1 256 1
 542 017e 3E85     		mv	a0,a5
 543 0180 F240     		lw	ra,28(sp)
 544              		.cfi_restore 1
 545 0182 6244     		lw	s0,24(sp)
GAS LISTING C:\Users\SOLDER~1\AppData\Local\Temp\ccKV8tJ7.s 			page 15


 546              		.cfi_restore 8
 547              		.cfi_def_cfa 2, 32
 548 0184 0561     		addi	sp,sp,32
 549              		.cfi_def_cfa_offset 0
 550 0186 8280     		jr	ra
 551              		.cfi_endproc
 552              	.LFE23:
 554              		.section	.text.FLASH_ProgramWord,"ax",@progbits
 555              		.align	1
 556              		.globl	FLASH_ProgramWord
 558              	FLASH_ProgramWord:
 559              	.LFB24:
 257:Drivers/src/ch32v20x_flash.c **** 
 258:Drivers/src/ch32v20x_flash.c **** /*********************************************************************
 259:Drivers/src/ch32v20x_flash.c ****  * @fn      FLASH_ProgramWord
 260:Drivers/src/ch32v20x_flash.c ****  *
 261:Drivers/src/ch32v20x_flash.c ****  * @brief   Programs a word at a specified address.
 262:Drivers/src/ch32v20x_flash.c ****  *
 263:Drivers/src/ch32v20x_flash.c ****  * @param   Address - specifies the address to be programmed.
 264:Drivers/src/ch32v20x_flash.c ****  *          Data - specifies the data to be programmed.
 265:Drivers/src/ch32v20x_flash.c ****  *
 266:Drivers/src/ch32v20x_flash.c ****  * @return  FLASH Status - The returned value can be: FLASH_BUSY, FLASH_ERROR_PG,
 267:Drivers/src/ch32v20x_flash.c ****  *        FLASH_ERROR_WRP, FLASH_COMPLETE or FLASH_TIMEOUT.
 268:Drivers/src/ch32v20x_flash.c ****  */
 269:Drivers/src/ch32v20x_flash.c **** FLASH_Status FLASH_ProgramWord(uint32_t Address, uint32_t Data)
 270:Drivers/src/ch32v20x_flash.c **** {
 560              		.loc 1 270 1
 561              		.cfi_startproc
 562 0000 7971     		addi	sp,sp,-48
 563              		.cfi_def_cfa_offset 48
 564 0002 06D6     		sw	ra,44(sp)
 565 0004 22D4     		sw	s0,40(sp)
 566              		.cfi_offset 1, -4
 567              		.cfi_offset 8, -8
 568 0006 0018     		addi	s0,sp,48
 569              		.cfi_def_cfa 8, 0
 570 0008 232EA4FC 		sw	a0,-36(s0)
 571 000c 232CB4FC 		sw	a1,-40(s0)
 271:Drivers/src/ch32v20x_flash.c ****     FLASH_Status  status = FLASH_COMPLETE;
 572              		.loc 1 271 19
 573 0010 9147     		li	a5,4
 574 0012 2326F4FE 		sw	a5,-20(s0)
 272:Drivers/src/ch32v20x_flash.c ****     __IO uint32_t tmp = 0;
 575              		.loc 1 272 19
 576 0016 232404FE 		sw	zero,-24(s0)
 273:Drivers/src/ch32v20x_flash.c **** 
 274:Drivers/src/ch32v20x_flash.c ****     status = FLASH_WaitForLastOperation(ProgramTimeout);
 577              		.loc 1 274 14
 578 001a 1565     		li	a0,20480
 579 001c 97000000 		call	FLASH_WaitForLastOperation
 579      E7800000 
 580 0024 2326A4FE 		sw	a0,-20(s0)
 275:Drivers/src/ch32v20x_flash.c **** 
 276:Drivers/src/ch32v20x_flash.c ****     if(status == FLASH_COMPLETE)
 581              		.loc 1 276 7
 582 0028 0327C4FE 		lw	a4,-20(s0)
 583 002c 9147     		li	a5,4
GAS LISTING C:\Users\SOLDER~1\AppData\Local\Temp\ccKV8tJ7.s 			page 16


 584 002e 6310F708 		bne	a4,a5,.L24
 277:Drivers/src/ch32v20x_flash.c ****     {
 278:Drivers/src/ch32v20x_flash.c ****         FLASH->CTLR |= CR_PG_Set;
 585              		.loc 1 278 14
 586 0032 B7270240 		li	a5,1073881088
 587 0036 984B     		lw	a4,16(a5)
 588 0038 B7270240 		li	a5,1073881088
 589              		.loc 1 278 21
 590 003c 13671700 		ori	a4,a4,1
 591 0040 98CB     		sw	a4,16(a5)
 279:Drivers/src/ch32v20x_flash.c **** 
 280:Drivers/src/ch32v20x_flash.c ****         *(__IO uint16_t *)Address = (uint16_t)Data;
 592              		.loc 1 280 10
 593 0042 8327C4FD 		lw	a5,-36(s0)
 594              		.loc 1 280 37
 595 0046 032784FD 		lw	a4,-40(s0)
 596 004a 4207     		slli	a4,a4,16
 597 004c 4183     		srli	a4,a4,16
 598              		.loc 1 280 35
 599 004e 9AA3     		sh	a4,0(a5)
 281:Drivers/src/ch32v20x_flash.c ****         status = FLASH_WaitForLastOperation(ProgramTimeout);
 600              		.loc 1 281 18
 601 0050 1565     		li	a0,20480
 602 0052 97000000 		call	FLASH_WaitForLastOperation
 602      E7800000 
 603 005a 2326A4FE 		sw	a0,-20(s0)
 282:Drivers/src/ch32v20x_flash.c **** 
 283:Drivers/src/ch32v20x_flash.c ****         if(status == FLASH_COMPLETE)
 604              		.loc 1 283 11
 605 005e 0327C4FE 		lw	a4,-20(s0)
 606 0062 9147     		li	a5,4
 607 0064 631EF702 		bne	a4,a5,.L25
 284:Drivers/src/ch32v20x_flash.c ****         {
 285:Drivers/src/ch32v20x_flash.c ****             tmp = Address + 2;
 608              		.loc 1 285 27
 609 0068 8327C4FD 		lw	a5,-36(s0)
 610 006c 8907     		addi	a5,a5,2
 611              		.loc 1 285 17
 612 006e 2324F4FE 		sw	a5,-24(s0)
 286:Drivers/src/ch32v20x_flash.c ****             *(__IO uint16_t *)tmp = Data >> 16;
 613              		.loc 1 286 42
 614 0072 832784FD 		lw	a5,-40(s0)
 615 0076 C183     		srli	a5,a5,16
 616              		.loc 1 286 14
 617 0078 032784FE 		lw	a4,-24(s0)
 618              		.loc 1 286 35
 619 007c C207     		slli	a5,a5,16
 620 007e C183     		srli	a5,a5,16
 621 0080 1EA3     		sh	a5,0(a4)
 287:Drivers/src/ch32v20x_flash.c ****             status = FLASH_WaitForLastOperation(ProgramTimeout);
 622              		.loc 1 287 22
 623 0082 1565     		li	a0,20480
 624 0084 97000000 		call	FLASH_WaitForLastOperation
 624      E7800000 
 625 008c 2326A4FE 		sw	a0,-20(s0)
 288:Drivers/src/ch32v20x_flash.c ****             FLASH->CTLR &= CR_PG_Reset;
 626              		.loc 1 288 18
GAS LISTING C:\Users\SOLDER~1\AppData\Local\Temp\ccKV8tJ7.s 			page 17


 627 0090 B7270240 		li	a5,1073881088
 628 0094 984B     		lw	a4,16(a5)
 629 0096 B7270240 		li	a5,1073881088
 630              		.loc 1 288 25
 631 009a 799B     		andi	a4,a4,-2
 632 009c 98CB     		sw	a4,16(a5)
 633 009e 01A8     		j	.L24
 634              	.L25:
 289:Drivers/src/ch32v20x_flash.c ****         }
 290:Drivers/src/ch32v20x_flash.c ****         else
 291:Drivers/src/ch32v20x_flash.c ****         {
 292:Drivers/src/ch32v20x_flash.c ****             FLASH->CTLR &= CR_PG_Reset;
 635              		.loc 1 292 18
 636 00a0 B7270240 		li	a5,1073881088
 637 00a4 984B     		lw	a4,16(a5)
 638 00a6 B7270240 		li	a5,1073881088
 639              		.loc 1 292 25
 640 00aa 799B     		andi	a4,a4,-2
 641 00ac 98CB     		sw	a4,16(a5)
 642              	.L24:
 293:Drivers/src/ch32v20x_flash.c ****         }
 294:Drivers/src/ch32v20x_flash.c ****     }
 295:Drivers/src/ch32v20x_flash.c **** 
 296:Drivers/src/ch32v20x_flash.c ****     return status;
 643              		.loc 1 296 12
 644 00ae 8327C4FE 		lw	a5,-20(s0)
 297:Drivers/src/ch32v20x_flash.c **** }
 645              		.loc 1 297 1
 646 00b2 3E85     		mv	a0,a5
 647 00b4 B250     		lw	ra,44(sp)
 648              		.cfi_restore 1
 649 00b6 2254     		lw	s0,40(sp)
 650              		.cfi_restore 8
 651              		.cfi_def_cfa 2, 48
 652 00b8 4561     		addi	sp,sp,48
 653              		.cfi_def_cfa_offset 0
 654 00ba 8280     		jr	ra
 655              		.cfi_endproc
 656              	.LFE24:
 658              		.section	.text.FLASH_ProgramHalfWord,"ax",@progbits
 659              		.align	1
 660              		.globl	FLASH_ProgramHalfWord
 662              	FLASH_ProgramHalfWord:
 663              	.LFB25:
 298:Drivers/src/ch32v20x_flash.c **** 
 299:Drivers/src/ch32v20x_flash.c **** /*********************************************************************
 300:Drivers/src/ch32v20x_flash.c ****  * @fn      FLASH_ProgramHalfWord
 301:Drivers/src/ch32v20x_flash.c ****  *
 302:Drivers/src/ch32v20x_flash.c ****  * @brief   Programs a half word at a specified address.
 303:Drivers/src/ch32v20x_flash.c ****  *
 304:Drivers/src/ch32v20x_flash.c ****  * @param   Address - specifies the address to be programmed.
 305:Drivers/src/ch32v20x_flash.c ****  *          Data - specifies the data to be programmed.
 306:Drivers/src/ch32v20x_flash.c ****  *
 307:Drivers/src/ch32v20x_flash.c ****  * @return  FLASH Status - The returned value can be: FLASH_BUSY, FLASH_ERROR_PG,
 308:Drivers/src/ch32v20x_flash.c ****  *        FLASH_ERROR_WRP, FLASH_COMPLETE or FLASH_TIMEOUT.
 309:Drivers/src/ch32v20x_flash.c ****  */
 310:Drivers/src/ch32v20x_flash.c **** FLASH_Status FLASH_ProgramHalfWord(uint32_t Address, uint16_t Data)
GAS LISTING C:\Users\SOLDER~1\AppData\Local\Temp\ccKV8tJ7.s 			page 18


 311:Drivers/src/ch32v20x_flash.c **** {
 664              		.loc 1 311 1
 665              		.cfi_startproc
 666 0000 7971     		addi	sp,sp,-48
 667              		.cfi_def_cfa_offset 48
 668 0002 06D6     		sw	ra,44(sp)
 669 0004 22D4     		sw	s0,40(sp)
 670              		.cfi_offset 1, -4
 671              		.cfi_offset 8, -8
 672 0006 0018     		addi	s0,sp,48
 673              		.cfi_def_cfa 8, 0
 674 0008 232EA4FC 		sw	a0,-36(s0)
 675 000c AE87     		mv	a5,a1
 676 000e 231DF4FC 		sh	a5,-38(s0)
 312:Drivers/src/ch32v20x_flash.c ****     FLASH_Status status = FLASH_COMPLETE;
 677              		.loc 1 312 18
 678 0012 9147     		li	a5,4
 679 0014 2326F4FE 		sw	a5,-20(s0)
 313:Drivers/src/ch32v20x_flash.c **** 
 314:Drivers/src/ch32v20x_flash.c ****     status = FLASH_WaitForLastOperation(ProgramTimeout);
 680              		.loc 1 314 14
 681 0018 1565     		li	a0,20480
 682 001a 97000000 		call	FLASH_WaitForLastOperation
 682      E7800000 
 683 0022 2326A4FE 		sw	a0,-20(s0)
 315:Drivers/src/ch32v20x_flash.c **** 
 316:Drivers/src/ch32v20x_flash.c ****     if(status == FLASH_COMPLETE)
 684              		.loc 1 316 7
 685 0026 0327C4FE 		lw	a4,-20(s0)
 686 002a 9147     		li	a5,4
 687 002c 631DF702 		bne	a4,a5,.L28
 317:Drivers/src/ch32v20x_flash.c ****     {
 318:Drivers/src/ch32v20x_flash.c ****         FLASH->CTLR |= CR_PG_Set;
 688              		.loc 1 318 14
 689 0030 B7270240 		li	a5,1073881088
 690 0034 984B     		lw	a4,16(a5)
 691 0036 B7270240 		li	a5,1073881088
 692              		.loc 1 318 21
 693 003a 13671700 		ori	a4,a4,1
 694 003e 98CB     		sw	a4,16(a5)
 319:Drivers/src/ch32v20x_flash.c ****         *(__IO uint16_t *)Address = Data;
 695              		.loc 1 319 10
 696 0040 8327C4FD 		lw	a5,-36(s0)
 697              		.loc 1 319 35
 698 0044 0357A4FD 		lhu	a4,-38(s0)
 699 0048 9AA3     		sh	a4,0(a5)
 320:Drivers/src/ch32v20x_flash.c ****         status = FLASH_WaitForLastOperation(ProgramTimeout);
 700              		.loc 1 320 18
 701 004a 1565     		li	a0,20480
 702 004c 97000000 		call	FLASH_WaitForLastOperation
 702      E7800000 
 703 0054 2326A4FE 		sw	a0,-20(s0)
 321:Drivers/src/ch32v20x_flash.c ****         FLASH->CTLR &= CR_PG_Reset;
 704              		.loc 1 321 14
 705 0058 B7270240 		li	a5,1073881088
 706 005c 984B     		lw	a4,16(a5)
 707 005e B7270240 		li	a5,1073881088
GAS LISTING C:\Users\SOLDER~1\AppData\Local\Temp\ccKV8tJ7.s 			page 19


 708              		.loc 1 321 21
 709 0062 799B     		andi	a4,a4,-2
 710 0064 98CB     		sw	a4,16(a5)
 711              	.L28:
 322:Drivers/src/ch32v20x_flash.c ****     }
 323:Drivers/src/ch32v20x_flash.c **** 
 324:Drivers/src/ch32v20x_flash.c ****     return status;
 712              		.loc 1 324 12
 713 0066 8327C4FE 		lw	a5,-20(s0)
 325:Drivers/src/ch32v20x_flash.c **** }
 714              		.loc 1 325 1
 715 006a 3E85     		mv	a0,a5
 716 006c B250     		lw	ra,44(sp)
 717              		.cfi_restore 1
 718 006e 2254     		lw	s0,40(sp)
 719              		.cfi_restore 8
 720              		.cfi_def_cfa 2, 48
 721 0070 4561     		addi	sp,sp,48
 722              		.cfi_def_cfa_offset 0
 723 0072 8280     		jr	ra
 724              		.cfi_endproc
 725              	.LFE25:
 727              		.section	.text.FLASH_ProgramOptionByteData,"ax",@progbits
 728              		.align	1
 729              		.globl	FLASH_ProgramOptionByteData
 731              	FLASH_ProgramOptionByteData:
 732              	.LFB26:
 326:Drivers/src/ch32v20x_flash.c **** 
 327:Drivers/src/ch32v20x_flash.c **** /*********************************************************************
 328:Drivers/src/ch32v20x_flash.c ****  * @fn      FLASH_ProgramOptionByteData
 329:Drivers/src/ch32v20x_flash.c ****  *
 330:Drivers/src/ch32v20x_flash.c ****  * @brief   Programs a half word at a specified Option Byte Data address.
 331:Drivers/src/ch32v20x_flash.c ****  *
 332:Drivers/src/ch32v20x_flash.c ****  * @param   Address - specifies the address to be programmed.
 333:Drivers/src/ch32v20x_flash.c ****  *          Data - specifies the data to be programmed.
 334:Drivers/src/ch32v20x_flash.c ****  *
 335:Drivers/src/ch32v20x_flash.c ****  * @return  FLASH Status - The returned value can be: FLASH_BUSY, FLASH_ERROR_PG,
 336:Drivers/src/ch32v20x_flash.c ****  *        FLASH_ERROR_WRP, FLASH_COMPLETE or FLASH_TIMEOUT.
 337:Drivers/src/ch32v20x_flash.c ****  */
 338:Drivers/src/ch32v20x_flash.c **** FLASH_Status FLASH_ProgramOptionByteData(uint32_t Address, uint8_t Data)
 339:Drivers/src/ch32v20x_flash.c **** {
 733              		.loc 1 339 1
 734              		.cfi_startproc
 735 0000 3971     		addi	sp,sp,-64
 736              		.cfi_def_cfa_offset 64
 737 0002 06DE     		sw	ra,60(sp)
 738 0004 22DC     		sw	s0,56(sp)
 739              		.cfi_offset 1, -4
 740              		.cfi_offset 8, -8
 741 0006 8000     		addi	s0,sp,64
 742              		.cfi_def_cfa 8, 0
 743 0008 2326A4FC 		sw	a0,-52(s0)
 744 000c AE87     		mv	a5,a1
 745 000e A305F4FC 		sb	a5,-53(s0)
 340:Drivers/src/ch32v20x_flash.c ****     FLASH_Status status = FLASH_COMPLETE;
 746              		.loc 1 340 18
 747 0012 9147     		li	a5,4
GAS LISTING C:\Users\SOLDER~1\AppData\Local\Temp\ccKV8tJ7.s 			page 20


 748 0014 2326F4FE 		sw	a5,-20(s0)
 341:Drivers/src/ch32v20x_flash.c ****     uint32_t     Addr = 0x1FFFF800;
 749              		.loc 1 341 18
 750 0018 B7070020 		li	a5,536870912
 751 001c 93870780 		addi	a5,a5,-2048
 752 0020 2324F4FE 		sw	a5,-24(s0)
 342:Drivers/src/ch32v20x_flash.c ****     __IO uint8_t i;
 343:Drivers/src/ch32v20x_flash.c ****     uint16_t     pbuf[8];
 344:Drivers/src/ch32v20x_flash.c **** 
 345:Drivers/src/ch32v20x_flash.c ****     status = FLASH_WaitForLastOperation(ProgramTimeout);
 753              		.loc 1 345 14
 754 0024 1565     		li	a0,20480
 755 0026 97000000 		call	FLASH_WaitForLastOperation
 755      E7800000 
 756 002e 2326A4FE 		sw	a0,-20(s0)
 346:Drivers/src/ch32v20x_flash.c ****     if(status == FLASH_COMPLETE)
 757              		.loc 1 346 7
 758 0032 0327C4FE 		lw	a4,-20(s0)
 759 0036 9147     		li	a5,4
 760 0038 6317F716 		bne	a4,a5,.L31
 347:Drivers/src/ch32v20x_flash.c ****     {
 348:Drivers/src/ch32v20x_flash.c ****         FLASH->OBKEYR = FLASH_KEY1;
 761              		.loc 1 348 14
 762 003c B7270240 		li	a5,1073881088
 763              		.loc 1 348 23
 764 0040 37076745 		li	a4,1164378112
 765 0044 13073712 		addi	a4,a4,291
 766 0048 98C7     		sw	a4,8(a5)
 349:Drivers/src/ch32v20x_flash.c ****         FLASH->OBKEYR = FLASH_KEY2;
 767              		.loc 1 349 14
 768 004a B7270240 		li	a5,1073881088
 769              		.loc 1 349 23
 770 004e 3797EFCD 		li	a4,-839938048
 771 0052 1307B79A 		addi	a4,a4,-1621
 772 0056 98C7     		sw	a4,8(a5)
 350:Drivers/src/ch32v20x_flash.c **** 
 351:Drivers/src/ch32v20x_flash.c ****         /* Read optionbytes */
 352:Drivers/src/ch32v20x_flash.c ****         for(i = 0; i < 8; i++){
 773              		.loc 1 352 15
 774 0058 A30304FE 		sb	zero,-25(s0)
 775              		.loc 1 352 9
 776 005c 35A8     		j	.L32
 777              	.L33:
 353:Drivers/src/ch32v20x_flash.c ****             pbuf[i] = *(uint16_t *)(Addr + 2 * i);
 778              		.loc 1 353 46 discriminator 3
 779 005e 834774FE 		lbu	a5,-25(s0)
 780 0062 93F7F70F 		andi	a5,a5,0xff
 781 0066 8607     		slli	a5,a5,1
 782 0068 3E87     		mv	a4,a5
 783              		.loc 1 353 42 discriminator 3
 784 006a 832784FE 		lw	a5,-24(s0)
 785 006e BA97     		add	a5,a4,a5
 786              		.loc 1 353 24 discriminator 3
 787 0070 3E87     		mv	a4,a5
 788              		.loc 1 353 17 discriminator 3
 789 0072 834774FE 		lbu	a5,-25(s0)
 790 0076 93F7F70F 		andi	a5,a5,0xff
GAS LISTING C:\Users\SOLDER~1\AppData\Local\Temp\ccKV8tJ7.s 			page 21


 791              		.loc 1 353 23 discriminator 3
 792 007a 1A23     		lhu	a4,0(a4)
 793              		.loc 1 353 21 discriminator 3
 794 007c 8607     		slli	a5,a5,1
 795 007e C117     		addi	a5,a5,-16
 796 0080 A297     		add	a5,a5,s0
 797 0082 2392E7FE 		sh	a4,-28(a5)
 352:Drivers/src/ch32v20x_flash.c ****             pbuf[i] = *(uint16_t *)(Addr + 2 * i);
 798              		.loc 1 352 28 discriminator 3
 799 0086 834774FE 		lbu	a5,-25(s0)
 800 008a 93F7F70F 		andi	a5,a5,0xff
 801 008e 8507     		addi	a5,a5,1
 802 0090 93F7F70F 		andi	a5,a5,0xff
 803 0094 A303F4FE 		sb	a5,-25(s0)
 804              	.L32:
 352:Drivers/src/ch32v20x_flash.c ****             pbuf[i] = *(uint16_t *)(Addr + 2 * i);
 805              		.loc 1 352 22 discriminator 1
 806 0098 834774FE 		lbu	a5,-25(s0)
 807 009c 13F7F70F 		andi	a4,a5,0xff
 808 00a0 9D47     		li	a5,7
 809 00a2 E3FEE7FA 		bleu	a4,a5,.L33
 354:Drivers/src/ch32v20x_flash.c ****         }
 355:Drivers/src/ch32v20x_flash.c **** 
 356:Drivers/src/ch32v20x_flash.c ****         /* Erase optionbytes */
 357:Drivers/src/ch32v20x_flash.c ****         FLASH->CTLR |= CR_OPTER_Set;
 810              		.loc 1 357 14
 811 00a6 B7270240 		li	a5,1073881088
 812 00aa 984B     		lw	a4,16(a5)
 813 00ac B7270240 		li	a5,1073881088
 814              		.loc 1 357 21
 815 00b0 13670702 		ori	a4,a4,32
 816 00b4 98CB     		sw	a4,16(a5)
 358:Drivers/src/ch32v20x_flash.c ****         FLASH->CTLR |= CR_STRT_Set;
 817              		.loc 1 358 14
 818 00b6 B7270240 		li	a5,1073881088
 819 00ba 984B     		lw	a4,16(a5)
 820 00bc B7270240 		li	a5,1073881088
 821              		.loc 1 358 21
 822 00c0 13670704 		ori	a4,a4,64
 823 00c4 98CB     		sw	a4,16(a5)
 359:Drivers/src/ch32v20x_flash.c ****         while(FLASH->STATR & SR_BSY);
 824              		.loc 1 359 14
 825 00c6 0100     		nop
 826              	.L34:
 827              		.loc 1 359 20 discriminator 1
 828 00c8 B7270240 		li	a5,1073881088
 829 00cc DC47     		lw	a5,12(a5)
 830              		.loc 1 359 28 discriminator 1
 831 00ce 858B     		andi	a5,a5,1
 832              		.loc 1 359 15 discriminator 1
 833 00d0 E5FF     		bne	a5,zero,.L34
 360:Drivers/src/ch32v20x_flash.c ****         FLASH->CTLR &= ~CR_OPTER_Set;
 834              		.loc 1 360 14
 835 00d2 B7270240 		li	a5,1073881088
 836 00d6 984B     		lw	a4,16(a5)
 837 00d8 B7270240 		li	a5,1073881088
 838              		.loc 1 360 21
GAS LISTING C:\Users\SOLDER~1\AppData\Local\Temp\ccKV8tJ7.s 			page 22


 839 00dc 1377F7FD 		andi	a4,a4,-33
 840 00e0 98CB     		sw	a4,16(a5)
 361:Drivers/src/ch32v20x_flash.c **** 
 362:Drivers/src/ch32v20x_flash.c ****         /* Write optionbytes */
 363:Drivers/src/ch32v20x_flash.c ****         pbuf[((Address - 0x1FFFF800) / 2)] = ((((uint16_t) ~(Data)) << 8) | ((uint16_t)Data));
 841              		.loc 1 363 49
 842 00e2 8347B4FC 		lbu	a5,-53(s0)
 843 00e6 C207     		slli	a5,a5,16
 844 00e8 C183     		srli	a5,a5,16
 845 00ea 93C7F7FF 		not	a5,a5
 846 00ee C207     		slli	a5,a5,16
 847 00f0 C183     		srli	a5,a5,16
 848              		.loc 1 363 69
 849 00f2 A207     		slli	a5,a5,8
 850              		.loc 1 363 75
 851 00f4 13970701 		slli	a4,a5,16
 852 00f8 4187     		srai	a4,a4,16
 853 00fa 8347B4FC 		lbu	a5,-53(s0)
 854 00fe C207     		slli	a5,a5,16
 855 0100 C187     		srai	a5,a5,16
 856 0102 D98F     		or	a5,a4,a5
 857 0104 93960701 		slli	a3,a5,16
 858 0108 C186     		srai	a3,a3,16
 859              		.loc 1 363 24
 860 010a 0327C4FC 		lw	a4,-52(s0)
 861 010e B71700E0 		li	a5,-536866816
 862 0112 93870780 		addi	a5,a5,-2048
 863 0116 BA97     		add	a5,a4,a5
 864              		.loc 1 363 38
 865 0118 8583     		srli	a5,a5,1
 866              		.loc 1 363 75
 867 011a 13970601 		slli	a4,a3,16
 868 011e 4183     		srli	a4,a4,16
 869              		.loc 1 363 44
 870 0120 8607     		slli	a5,a5,1
 871 0122 C117     		addi	a5,a5,-16
 872 0124 A297     		add	a5,a5,s0
 873 0126 2392E7FE 		sh	a4,-28(a5)
 364:Drivers/src/ch32v20x_flash.c **** 
 365:Drivers/src/ch32v20x_flash.c ****         FLASH->CTLR |= CR_OPTPG_Set;
 874              		.loc 1 365 14
 875 012a B7270240 		li	a5,1073881088
 876 012e 984B     		lw	a4,16(a5)
 877 0130 B7270240 		li	a5,1073881088
 878              		.loc 1 365 21
 879 0134 13670701 		ori	a4,a4,16
 880 0138 98CB     		sw	a4,16(a5)
 366:Drivers/src/ch32v20x_flash.c **** 
 367:Drivers/src/ch32v20x_flash.c ****         for(i = 0; i < 8; i++){
 881              		.loc 1 367 15
 882 013a A30304FE 		sb	zero,-25(s0)
 883              		.loc 1 367 9
 884 013e B1A0     		j	.L35
 885              	.L37:
 368:Drivers/src/ch32v20x_flash.c ****             *(uint16_t *)(Addr + 2 * i) = pbuf[i];
 886              		.loc 1 368 47
 887 0140 834774FE 		lbu	a5,-25(s0)
GAS LISTING C:\Users\SOLDER~1\AppData\Local\Temp\ccKV8tJ7.s 			page 23


 888 0144 93F7F70F 		andi	a5,a5,0xff
 889 0148 BE86     		mv	a3,a5
 890              		.loc 1 368 36
 891 014a 834774FE 		lbu	a5,-25(s0)
 892 014e 93F7F70F 		andi	a5,a5,0xff
 893 0152 8607     		slli	a5,a5,1
 894 0154 3E87     		mv	a4,a5
 895              		.loc 1 368 32
 896 0156 832784FE 		lw	a5,-24(s0)
 897 015a BA97     		add	a5,a4,a5
 898              		.loc 1 368 14
 899 015c 3E87     		mv	a4,a5
 900              		.loc 1 368 47
 901 015e 93971600 		slli	a5,a3,1
 902 0162 C117     		addi	a5,a5,-16
 903 0164 A297     		add	a5,a5,s0
 904 0166 83D747FE 		lhu	a5,-28(a5)
 905              		.loc 1 368 41
 906 016a 1EA3     		sh	a5,0(a4)
 369:Drivers/src/ch32v20x_flash.c ****             while(FLASH->STATR & SR_BSY) ;
 907              		.loc 1 369 18
 908 016c 0100     		nop
 909              	.L36:
 910              		.loc 1 369 24 discriminator 1
 911 016e B7270240 		li	a5,1073881088
 912 0172 DC47     		lw	a5,12(a5)
 913              		.loc 1 369 32 discriminator 1
 914 0174 858B     		andi	a5,a5,1
 915              		.loc 1 369 19 discriminator 1
 916 0176 E5FF     		bne	a5,zero,.L36
 367:Drivers/src/ch32v20x_flash.c ****             *(uint16_t *)(Addr + 2 * i) = pbuf[i];
 917              		.loc 1 367 28 discriminator 2
 918 0178 834774FE 		lbu	a5,-25(s0)
 919 017c 93F7F70F 		andi	a5,a5,0xff
 920 0180 8507     		addi	a5,a5,1
 921 0182 93F7F70F 		andi	a5,a5,0xff
 922 0186 A303F4FE 		sb	a5,-25(s0)
 923              	.L35:
 367:Drivers/src/ch32v20x_flash.c ****             *(uint16_t *)(Addr + 2 * i) = pbuf[i];
 924              		.loc 1 367 22 discriminator 1
 925 018a 834774FE 		lbu	a5,-25(s0)
 926 018e 13F7F70F 		andi	a4,a5,0xff
 927 0192 9D47     		li	a5,7
 928 0194 E3F6E7FA 		bleu	a4,a5,.L37
 370:Drivers/src/ch32v20x_flash.c ****         }
 371:Drivers/src/ch32v20x_flash.c **** 
 372:Drivers/src/ch32v20x_flash.c ****         FLASH->CTLR &= ~CR_OPTPG_Set;
 929              		.loc 1 372 14
 930 0198 B7270240 		li	a5,1073881088
 931 019c 984B     		lw	a4,16(a5)
 932 019e B7270240 		li	a5,1073881088
 933              		.loc 1 372 21
 934 01a2 3D9B     		andi	a4,a4,-17
 935 01a4 98CB     		sw	a4,16(a5)
 936              	.L31:
 373:Drivers/src/ch32v20x_flash.c ****     }
 374:Drivers/src/ch32v20x_flash.c **** 
GAS LISTING C:\Users\SOLDER~1\AppData\Local\Temp\ccKV8tJ7.s 			page 24


 375:Drivers/src/ch32v20x_flash.c ****     return status;
 937              		.loc 1 375 12
 938 01a6 8327C4FE 		lw	a5,-20(s0)
 376:Drivers/src/ch32v20x_flash.c **** }
 939              		.loc 1 376 1
 940 01aa 3E85     		mv	a0,a5
 941 01ac F250     		lw	ra,60(sp)
 942              		.cfi_restore 1
 943 01ae 6254     		lw	s0,56(sp)
 944              		.cfi_restore 8
 945              		.cfi_def_cfa 2, 64
 946 01b0 2161     		addi	sp,sp,64
 947              		.cfi_def_cfa_offset 0
 948 01b2 8280     		jr	ra
 949              		.cfi_endproc
 950              	.LFE26:
 952              		.section	.text.FLASH_EnableWriteProtection,"ax",@progbits
 953              		.align	1
 954              		.globl	FLASH_EnableWriteProtection
 956              	FLASH_EnableWriteProtection:
 957              	.LFB27:
 377:Drivers/src/ch32v20x_flash.c **** 
 378:Drivers/src/ch32v20x_flash.c **** /*********************************************************************
 379:Drivers/src/ch32v20x_flash.c ****  * @fn      FLASH_EnableWriteProtection
 380:Drivers/src/ch32v20x_flash.c ****  *
 381:Drivers/src/ch32v20x_flash.c ****  * @brief   Write protects the desired sectors
 382:Drivers/src/ch32v20x_flash.c ****  *
 383:Drivers/src/ch32v20x_flash.c ****  * @param   FLASH_Sectors - specifies the address of the pages to be write protected.
 384:Drivers/src/ch32v20x_flash.c ****  *
 385:Drivers/src/ch32v20x_flash.c ****  * @return  FLASH Status - The returned value can be: FLASH_BUSY, FLASH_ERROR_PG,
 386:Drivers/src/ch32v20x_flash.c ****  *        FLASH_ERROR_WRP, FLASH_COMPLETE or FLASH_TIMEOUT.
 387:Drivers/src/ch32v20x_flash.c ****  */
 388:Drivers/src/ch32v20x_flash.c **** FLASH_Status FLASH_EnableWriteProtection(uint32_t FLASH_Sectors)
 389:Drivers/src/ch32v20x_flash.c **** {
 958              		.loc 1 389 1
 959              		.cfi_startproc
 960 0000 5D71     		addi	sp,sp,-80
 961              		.cfi_def_cfa_offset 80
 962 0002 86C6     		sw	ra,76(sp)
 963 0004 A2C4     		sw	s0,72(sp)
 964              		.cfi_offset 1, -4
 965              		.cfi_offset 8, -8
 966 0006 8008     		addi	s0,sp,80
 967              		.cfi_def_cfa 8, 0
 968 0008 232EA4FA 		sw	a0,-68(s0)
 390:Drivers/src/ch32v20x_flash.c ****     uint16_t     WRP0_Data = 0xFFFF, WRP1_Data = 0xFFFF, WRP2_Data = 0xFFFF, WRP3_Data = 0xFFFF;
 969              		.loc 1 390 18
 970 000c FD57     		li	a5,-1
 971 000e 2317F4FE 		sh	a5,-18(s0)
 972              		.loc 1 390 38
 973 0012 FD57     		li	a5,-1
 974 0014 2316F4FE 		sh	a5,-20(s0)
 975              		.loc 1 390 58
 976 0018 FD57     		li	a5,-1
 977 001a 2315F4FE 		sh	a5,-22(s0)
 978              		.loc 1 390 78
 979 001e FD57     		li	a5,-1
GAS LISTING C:\Users\SOLDER~1\AppData\Local\Temp\ccKV8tJ7.s 			page 25


 980 0020 2314F4FE 		sh	a5,-24(s0)
 391:Drivers/src/ch32v20x_flash.c ****     FLASH_Status status = FLASH_COMPLETE;
 981              		.loc 1 391 18
 982 0024 9147     		li	a5,4
 983 0026 2322F4FE 		sw	a5,-28(s0)
 392:Drivers/src/ch32v20x_flash.c ****     uint32_t     Addr = 0x1FFFF800;
 984              		.loc 1 392 18
 985 002a B7070020 		li	a5,536870912
 986 002e 93870780 		addi	a5,a5,-2048
 987 0032 2320F4FE 		sw	a5,-32(s0)
 393:Drivers/src/ch32v20x_flash.c ****     __IO uint8_t i;
 394:Drivers/src/ch32v20x_flash.c ****     uint16_t     pbuf[8];
 395:Drivers/src/ch32v20x_flash.c **** 
 396:Drivers/src/ch32v20x_flash.c ****     FLASH_Sectors = (uint32_t)(~FLASH_Sectors);
 988              		.loc 1 396 19
 989 0036 8327C4FB 		lw	a5,-68(s0)
 990 003a 93C7F7FF 		not	a5,a5
 991 003e 232EF4FA 		sw	a5,-68(s0)
 397:Drivers/src/ch32v20x_flash.c ****     WRP0_Data = (uint16_t)(FLASH_Sectors & WRP0_Mask);
 992              		.loc 1 397 17
 993 0042 8327C4FB 		lw	a5,-68(s0)
 994 0046 C207     		slli	a5,a5,16
 995 0048 C183     		srli	a5,a5,16
 996              		.loc 1 397 15
 997 004a 93F7F70F 		andi	a5,a5,255
 998 004e 2317F4FE 		sh	a5,-18(s0)
 398:Drivers/src/ch32v20x_flash.c ****     WRP1_Data = (uint16_t)((FLASH_Sectors & WRP1_Mask) >> 8);
 999              		.loc 1 398 56
 1000 0052 8327C4FB 		lw	a5,-68(s0)
 1001 0056 A183     		srli	a5,a5,8
 1002              		.loc 1 398 17
 1003 0058 C207     		slli	a5,a5,16
 1004 005a C183     		srli	a5,a5,16
 1005              		.loc 1 398 15
 1006 005c 93F7F70F 		andi	a5,a5,255
 1007 0060 2316F4FE 		sh	a5,-20(s0)
 399:Drivers/src/ch32v20x_flash.c ****     WRP2_Data = (uint16_t)((FLASH_Sectors & WRP2_Mask) >> 16);
 1008              		.loc 1 399 56
 1009 0064 8327C4FB 		lw	a5,-68(s0)
 1010 0068 C183     		srli	a5,a5,16
 1011              		.loc 1 399 17
 1012 006a C207     		slli	a5,a5,16
 1013 006c C183     		srli	a5,a5,16
 1014              		.loc 1 399 15
 1015 006e 93F7F70F 		andi	a5,a5,255
 1016 0072 2315F4FE 		sh	a5,-22(s0)
 400:Drivers/src/ch32v20x_flash.c ****     WRP3_Data = (uint16_t)((FLASH_Sectors & WRP3_Mask) >> 24);
 1017              		.loc 1 400 56
 1018 0076 8327C4FB 		lw	a5,-68(s0)
 1019 007a E183     		srli	a5,a5,24
 1020              		.loc 1 400 15
 1021 007c 2314F4FE 		sh	a5,-24(s0)
 401:Drivers/src/ch32v20x_flash.c **** 
 402:Drivers/src/ch32v20x_flash.c ****     status = FLASH_WaitForLastOperation(ProgramTimeout);
 1022              		.loc 1 402 14
 1023 0080 1565     		li	a0,20480
 1024 0082 97000000 		call	FLASH_WaitForLastOperation
GAS LISTING C:\Users\SOLDER~1\AppData\Local\Temp\ccKV8tJ7.s 			page 26


 1024      E7800000 
 1025 008a 2322A4FE 		sw	a0,-28(s0)
 403:Drivers/src/ch32v20x_flash.c **** 
 404:Drivers/src/ch32v20x_flash.c ****     if(status == FLASH_COMPLETE)
 1026              		.loc 1 404 7
 1027 008e 032744FE 		lw	a4,-28(s0)
 1028 0092 9147     		li	a5,4
 1029 0094 6313F714 		bne	a4,a5,.L40
 405:Drivers/src/ch32v20x_flash.c ****     {
 406:Drivers/src/ch32v20x_flash.c ****         FLASH->OBKEYR = FLASH_KEY1;
 1030              		.loc 1 406 14
 1031 0098 B7270240 		li	a5,1073881088
 1032              		.loc 1 406 23
 1033 009c 37076745 		li	a4,1164378112
 1034 00a0 13073712 		addi	a4,a4,291
 1035 00a4 98C7     		sw	a4,8(a5)
 407:Drivers/src/ch32v20x_flash.c ****         FLASH->OBKEYR = FLASH_KEY2;
 1036              		.loc 1 407 14
 1037 00a6 B7270240 		li	a5,1073881088
 1038              		.loc 1 407 23
 1039 00aa 3797EFCD 		li	a4,-839938048
 1040 00ae 1307B79A 		addi	a4,a4,-1621
 1041 00b2 98C7     		sw	a4,8(a5)
 408:Drivers/src/ch32v20x_flash.c **** 
 409:Drivers/src/ch32v20x_flash.c ****         /* Read optionbytes */
 410:Drivers/src/ch32v20x_flash.c ****         for(i = 0; i < 8; i++){
 1042              		.loc 1 410 15
 1043 00b4 A30F04FC 		sb	zero,-33(s0)
 1044              		.loc 1 410 9
 1045 00b8 35A8     		j	.L41
 1046              	.L42:
 411:Drivers/src/ch32v20x_flash.c ****             pbuf[i] = *(uint16_t *)(Addr + 2 * i);
 1047              		.loc 1 411 46 discriminator 3
 1048 00ba 8347F4FD 		lbu	a5,-33(s0)
 1049 00be 93F7F70F 		andi	a5,a5,0xff
 1050 00c2 8607     		slli	a5,a5,1
 1051 00c4 3E87     		mv	a4,a5
 1052              		.loc 1 411 42 discriminator 3
 1053 00c6 832704FE 		lw	a5,-32(s0)
 1054 00ca BA97     		add	a5,a4,a5
 1055              		.loc 1 411 24 discriminator 3
 1056 00cc 3E87     		mv	a4,a5
 1057              		.loc 1 411 17 discriminator 3
 1058 00ce 8347F4FD 		lbu	a5,-33(s0)
 1059 00d2 93F7F70F 		andi	a5,a5,0xff
 1060              		.loc 1 411 23 discriminator 3
 1061 00d6 1A23     		lhu	a4,0(a4)
 1062              		.loc 1 411 21 discriminator 3
 1063 00d8 8607     		slli	a5,a5,1
 1064 00da C117     		addi	a5,a5,-16
 1065 00dc A297     		add	a5,a5,s0
 1066 00de 239EE7FC 		sh	a4,-36(a5)
 410:Drivers/src/ch32v20x_flash.c ****             pbuf[i] = *(uint16_t *)(Addr + 2 * i);
 1067              		.loc 1 410 28 discriminator 3
 1068 00e2 8347F4FD 		lbu	a5,-33(s0)
 1069 00e6 93F7F70F 		andi	a5,a5,0xff
 1070 00ea 8507     		addi	a5,a5,1
GAS LISTING C:\Users\SOLDER~1\AppData\Local\Temp\ccKV8tJ7.s 			page 27


 1071 00ec 93F7F70F 		andi	a5,a5,0xff
 1072 00f0 A30FF4FC 		sb	a5,-33(s0)
 1073              	.L41:
 410:Drivers/src/ch32v20x_flash.c ****             pbuf[i] = *(uint16_t *)(Addr + 2 * i);
 1074              		.loc 1 410 22 discriminator 1
 1075 00f4 8347F4FD 		lbu	a5,-33(s0)
 1076 00f8 13F7F70F 		andi	a4,a5,0xff
 1077 00fc 9D47     		li	a5,7
 1078 00fe E3FEE7FA 		bleu	a4,a5,.L42
 412:Drivers/src/ch32v20x_flash.c ****         }
 413:Drivers/src/ch32v20x_flash.c **** 
 414:Drivers/src/ch32v20x_flash.c ****         /* Erase optionbytes */
 415:Drivers/src/ch32v20x_flash.c ****         FLASH->CTLR |= CR_OPTER_Set;
 1079              		.loc 1 415 14
 1080 0102 B7270240 		li	a5,1073881088
 1081 0106 984B     		lw	a4,16(a5)
 1082 0108 B7270240 		li	a5,1073881088
 1083              		.loc 1 415 21
 1084 010c 13670702 		ori	a4,a4,32
 1085 0110 98CB     		sw	a4,16(a5)
 416:Drivers/src/ch32v20x_flash.c ****         FLASH->CTLR |= CR_STRT_Set;
 1086              		.loc 1 416 14
 1087 0112 B7270240 		li	a5,1073881088
 1088 0116 984B     		lw	a4,16(a5)
 1089 0118 B7270240 		li	a5,1073881088
 1090              		.loc 1 416 21
 1091 011c 13670704 		ori	a4,a4,64
 1092 0120 98CB     		sw	a4,16(a5)
 417:Drivers/src/ch32v20x_flash.c ****         while(FLASH->STATR & SR_BSY);
 1093              		.loc 1 417 14
 1094 0122 0100     		nop
 1095              	.L43:
 1096              		.loc 1 417 20 discriminator 1
 1097 0124 B7270240 		li	a5,1073881088
 1098 0128 DC47     		lw	a5,12(a5)
 1099              		.loc 1 417 28 discriminator 1
 1100 012a 858B     		andi	a5,a5,1
 1101              		.loc 1 417 15 discriminator 1
 1102 012c E5FF     		bne	a5,zero,.L43
 418:Drivers/src/ch32v20x_flash.c ****         FLASH->CTLR &= ~CR_OPTER_Set;
 1103              		.loc 1 418 14
 1104 012e B7270240 		li	a5,1073881088
 1105 0132 984B     		lw	a4,16(a5)
 1106 0134 B7270240 		li	a5,1073881088
 1107              		.loc 1 418 21
 1108 0138 1377F7FD 		andi	a4,a4,-33
 1109 013c 98CB     		sw	a4,16(a5)
 419:Drivers/src/ch32v20x_flash.c **** 
 420:Drivers/src/ch32v20x_flash.c ****         /* Write optionbytes */
 421:Drivers/src/ch32v20x_flash.c ****         pbuf[4] = WRP0_Data;
 1110              		.loc 1 421 17
 1111 013e 8357E4FE 		lhu	a5,-18(s0)
 1112 0142 231AF4FC 		sh	a5,-44(s0)
 422:Drivers/src/ch32v20x_flash.c ****         pbuf[5] = WRP1_Data;
 1113              		.loc 1 422 17
 1114 0146 8357C4FE 		lhu	a5,-20(s0)
 1115 014a 231BF4FC 		sh	a5,-42(s0)
GAS LISTING C:\Users\SOLDER~1\AppData\Local\Temp\ccKV8tJ7.s 			page 28


 423:Drivers/src/ch32v20x_flash.c ****         pbuf[6] = WRP2_Data;
 1116              		.loc 1 423 17
 1117 014e 8357A4FE 		lhu	a5,-22(s0)
 1118 0152 231CF4FC 		sh	a5,-40(s0)
 424:Drivers/src/ch32v20x_flash.c ****         pbuf[7] = WRP3_Data;
 1119              		.loc 1 424 17
 1120 0156 835784FE 		lhu	a5,-24(s0)
 1121 015a 231DF4FC 		sh	a5,-38(s0)
 425:Drivers/src/ch32v20x_flash.c **** 
 426:Drivers/src/ch32v20x_flash.c ****         FLASH->CTLR |= CR_OPTPG_Set;
 1122              		.loc 1 426 14
 1123 015e B7270240 		li	a5,1073881088
 1124 0162 984B     		lw	a4,16(a5)
 1125 0164 B7270240 		li	a5,1073881088
 1126              		.loc 1 426 21
 1127 0168 13670701 		ori	a4,a4,16
 1128 016c 98CB     		sw	a4,16(a5)
 427:Drivers/src/ch32v20x_flash.c ****         for(i = 0; i < 8; i++){
 1129              		.loc 1 427 15
 1130 016e A30F04FC 		sb	zero,-33(s0)
 1131              		.loc 1 427 9
 1132 0172 B1A0     		j	.L44
 1133              	.L46:
 428:Drivers/src/ch32v20x_flash.c ****             *(uint16_t *)(Addr + 2 * i) = pbuf[i];
 1134              		.loc 1 428 47
 1135 0174 8347F4FD 		lbu	a5,-33(s0)
 1136 0178 93F7F70F 		andi	a5,a5,0xff
 1137 017c BE86     		mv	a3,a5
 1138              		.loc 1 428 36
 1139 017e 8347F4FD 		lbu	a5,-33(s0)
 1140 0182 93F7F70F 		andi	a5,a5,0xff
 1141 0186 8607     		slli	a5,a5,1
 1142 0188 3E87     		mv	a4,a5
 1143              		.loc 1 428 32
 1144 018a 832704FE 		lw	a5,-32(s0)
 1145 018e BA97     		add	a5,a4,a5
 1146              		.loc 1 428 14
 1147 0190 3E87     		mv	a4,a5
 1148              		.loc 1 428 47
 1149 0192 93971600 		slli	a5,a3,1
 1150 0196 C117     		addi	a5,a5,-16
 1151 0198 A297     		add	a5,a5,s0
 1152 019a 83D7C7FD 		lhu	a5,-36(a5)
 1153              		.loc 1 428 41
 1154 019e 1EA3     		sh	a5,0(a4)
 429:Drivers/src/ch32v20x_flash.c ****             while(FLASH->STATR & SR_BSY);
 1155              		.loc 1 429 18
 1156 01a0 0100     		nop
 1157              	.L45:
 1158              		.loc 1 429 24 discriminator 1
 1159 01a2 B7270240 		li	a5,1073881088
 1160 01a6 DC47     		lw	a5,12(a5)
 1161              		.loc 1 429 32 discriminator 1
 1162 01a8 858B     		andi	a5,a5,1
 1163              		.loc 1 429 19 discriminator 1
 1164 01aa E5FF     		bne	a5,zero,.L45
 427:Drivers/src/ch32v20x_flash.c ****         for(i = 0; i < 8; i++){
GAS LISTING C:\Users\SOLDER~1\AppData\Local\Temp\ccKV8tJ7.s 			page 29


 1165              		.loc 1 427 28 discriminator 2
 1166 01ac 8347F4FD 		lbu	a5,-33(s0)
 1167 01b0 93F7F70F 		andi	a5,a5,0xff
 1168 01b4 8507     		addi	a5,a5,1
 1169 01b6 93F7F70F 		andi	a5,a5,0xff
 1170 01ba A30FF4FC 		sb	a5,-33(s0)
 1171              	.L44:
 427:Drivers/src/ch32v20x_flash.c ****         for(i = 0; i < 8; i++){
 1172              		.loc 1 427 22 discriminator 1
 1173 01be 8347F4FD 		lbu	a5,-33(s0)
 1174 01c2 13F7F70F 		andi	a4,a5,0xff
 1175 01c6 9D47     		li	a5,7
 1176 01c8 E3F6E7FA 		bleu	a4,a5,.L46
 430:Drivers/src/ch32v20x_flash.c ****         }
 431:Drivers/src/ch32v20x_flash.c ****         FLASH->CTLR &= ~CR_OPTPG_Set;
 1177              		.loc 1 431 14
 1178 01cc B7270240 		li	a5,1073881088
 1179 01d0 984B     		lw	a4,16(a5)
 1180 01d2 B7270240 		li	a5,1073881088
 1181              		.loc 1 431 21
 1182 01d6 3D9B     		andi	a4,a4,-17
 1183 01d8 98CB     		sw	a4,16(a5)
 1184              	.L40:
 432:Drivers/src/ch32v20x_flash.c ****     }
 433:Drivers/src/ch32v20x_flash.c ****     return status;
 1185              		.loc 1 433 12
 1186 01da 832744FE 		lw	a5,-28(s0)
 434:Drivers/src/ch32v20x_flash.c **** }
 1187              		.loc 1 434 1
 1188 01de 3E85     		mv	a0,a5
 1189 01e0 B640     		lw	ra,76(sp)
 1190              		.cfi_restore 1
 1191 01e2 2644     		lw	s0,72(sp)
 1192              		.cfi_restore 8
 1193              		.cfi_def_cfa 2, 80
 1194 01e4 6161     		addi	sp,sp,80
 1195              		.cfi_def_cfa_offset 0
 1196 01e6 8280     		jr	ra
 1197              		.cfi_endproc
 1198              	.LFE27:
 1200              		.section	.text.FLASH_ReadOutProtection,"ax",@progbits
 1201              		.align	1
 1202              		.globl	FLASH_ReadOutProtection
 1204              	FLASH_ReadOutProtection:
 1205              	.LFB28:
 435:Drivers/src/ch32v20x_flash.c **** 
 436:Drivers/src/ch32v20x_flash.c **** /*********************************************************************
 437:Drivers/src/ch32v20x_flash.c ****  * @fn      FLASH_ReadOutProtection
 438:Drivers/src/ch32v20x_flash.c ****  *
 439:Drivers/src/ch32v20x_flash.c ****  * @brief   Enables or disables the read out protection.
 440:Drivers/src/ch32v20x_flash.c ****  *
 441:Drivers/src/ch32v20x_flash.c ****  * @param   Newstate - new state of the ReadOut Protection(ENABLE or DISABLE).
 442:Drivers/src/ch32v20x_flash.c ****  *
 443:Drivers/src/ch32v20x_flash.c ****  * @return  FLASH Status - The returned value can be: FLASH_BUSY, FLASH_ERROR_PG,
 444:Drivers/src/ch32v20x_flash.c ****  *        FLASH_ERROR_WRP, FLASH_COMPLETE or FLASH_TIMEOUT.
 445:Drivers/src/ch32v20x_flash.c ****  */
 446:Drivers/src/ch32v20x_flash.c **** FLASH_Status FLASH_ReadOutProtection(FunctionalState NewState)
GAS LISTING C:\Users\SOLDER~1\AppData\Local\Temp\ccKV8tJ7.s 			page 30


 447:Drivers/src/ch32v20x_flash.c **** {
 1206              		.loc 1 447 1
 1207              		.cfi_startproc
 1208 0000 3971     		addi	sp,sp,-64
 1209              		.cfi_def_cfa_offset 64
 1210 0002 06DE     		sw	ra,60(sp)
 1211 0004 22DC     		sw	s0,56(sp)
 1212              		.cfi_offset 1, -4
 1213              		.cfi_offset 8, -8
 1214 0006 8000     		addi	s0,sp,64
 1215              		.cfi_def_cfa 8, 0
 1216 0008 2326A4FC 		sw	a0,-52(s0)
 448:Drivers/src/ch32v20x_flash.c ****     FLASH_Status status = FLASH_COMPLETE;
 1217              		.loc 1 448 18
 1218 000c 9147     		li	a5,4
 1219 000e 2326F4FE 		sw	a5,-20(s0)
 449:Drivers/src/ch32v20x_flash.c ****     uint32_t     Addr = 0x1FFFF800;
 1220              		.loc 1 449 18
 1221 0012 B7070020 		li	a5,536870912
 1222 0016 93870780 		addi	a5,a5,-2048
 1223 001a 2324F4FE 		sw	a5,-24(s0)
 450:Drivers/src/ch32v20x_flash.c ****     __IO uint8_t i;
 451:Drivers/src/ch32v20x_flash.c ****     uint16_t     pbuf[8];
 452:Drivers/src/ch32v20x_flash.c **** 
 453:Drivers/src/ch32v20x_flash.c ****     status = FLASH_WaitForLastOperation(EraseTimeout);
 1224              		.loc 1 453 14
 1225 001e 37050B00 		li	a0,720896
 1226 0022 97000000 		call	FLASH_WaitForLastOperation
 1226      E7800000 
 1227 002a 2326A4FE 		sw	a0,-20(s0)
 454:Drivers/src/ch32v20x_flash.c ****     if(status == FLASH_COMPLETE)
 1228              		.loc 1 454 7
 1229 002e 0327C4FE 		lw	a4,-20(s0)
 1230 0032 9147     		li	a5,4
 1231 0034 6310F714 		bne	a4,a5,.L49
 455:Drivers/src/ch32v20x_flash.c ****     {
 456:Drivers/src/ch32v20x_flash.c ****         FLASH->OBKEYR = FLASH_KEY1;
 1232              		.loc 1 456 14
 1233 0038 B7270240 		li	a5,1073881088
 1234              		.loc 1 456 23
 1235 003c 37076745 		li	a4,1164378112
 1236 0040 13073712 		addi	a4,a4,291
 1237 0044 98C7     		sw	a4,8(a5)
 457:Drivers/src/ch32v20x_flash.c ****         FLASH->OBKEYR = FLASH_KEY2;
 1238              		.loc 1 457 14
 1239 0046 B7270240 		li	a5,1073881088
 1240              		.loc 1 457 23
 1241 004a 3797EFCD 		li	a4,-839938048
 1242 004e 1307B79A 		addi	a4,a4,-1621
 1243 0052 98C7     		sw	a4,8(a5)
 458:Drivers/src/ch32v20x_flash.c **** 
 459:Drivers/src/ch32v20x_flash.c ****         /* Read optionbytes */
 460:Drivers/src/ch32v20x_flash.c ****         for(i = 0; i < 8; i++){
 1244              		.loc 1 460 15
 1245 0054 A30304FE 		sb	zero,-25(s0)
 1246              		.loc 1 460 9
 1247 0058 35A8     		j	.L50
GAS LISTING C:\Users\SOLDER~1\AppData\Local\Temp\ccKV8tJ7.s 			page 31


 1248              	.L51:
 461:Drivers/src/ch32v20x_flash.c ****             pbuf[i] = *(uint16_t *)(Addr + 2 * i);
 1249              		.loc 1 461 46 discriminator 3
 1250 005a 834774FE 		lbu	a5,-25(s0)
 1251 005e 93F7F70F 		andi	a5,a5,0xff
 1252 0062 8607     		slli	a5,a5,1
 1253 0064 3E87     		mv	a4,a5
 1254              		.loc 1 461 42 discriminator 3
 1255 0066 832784FE 		lw	a5,-24(s0)
 1256 006a BA97     		add	a5,a4,a5
 1257              		.loc 1 461 24 discriminator 3
 1258 006c 3E87     		mv	a4,a5
 1259              		.loc 1 461 17 discriminator 3
 1260 006e 834774FE 		lbu	a5,-25(s0)
 1261 0072 93F7F70F 		andi	a5,a5,0xff
 1262              		.loc 1 461 23 discriminator 3
 1263 0076 1A23     		lhu	a4,0(a4)
 1264              		.loc 1 461 21 discriminator 3
 1265 0078 8607     		slli	a5,a5,1
 1266 007a C117     		addi	a5,a5,-16
 1267 007c A297     		add	a5,a5,s0
 1268 007e 2392E7FE 		sh	a4,-28(a5)
 460:Drivers/src/ch32v20x_flash.c ****             pbuf[i] = *(uint16_t *)(Addr + 2 * i);
 1269              		.loc 1 460 28 discriminator 3
 1270 0082 834774FE 		lbu	a5,-25(s0)
 1271 0086 93F7F70F 		andi	a5,a5,0xff
 1272 008a 8507     		addi	a5,a5,1
 1273 008c 93F7F70F 		andi	a5,a5,0xff
 1274 0090 A303F4FE 		sb	a5,-25(s0)
 1275              	.L50:
 460:Drivers/src/ch32v20x_flash.c ****             pbuf[i] = *(uint16_t *)(Addr + 2 * i);
 1276              		.loc 1 460 22 discriminator 1
 1277 0094 834774FE 		lbu	a5,-25(s0)
 1278 0098 13F7F70F 		andi	a4,a5,0xff
 1279 009c 9D47     		li	a5,7
 1280 009e E3FEE7FA 		bleu	a4,a5,.L51
 462:Drivers/src/ch32v20x_flash.c ****         }
 463:Drivers/src/ch32v20x_flash.c **** 
 464:Drivers/src/ch32v20x_flash.c ****         /* Erase optionbytes */
 465:Drivers/src/ch32v20x_flash.c ****         FLASH->CTLR |= CR_OPTER_Set;
 1281              		.loc 1 465 14
 1282 00a2 B7270240 		li	a5,1073881088
 1283 00a6 984B     		lw	a4,16(a5)
 1284 00a8 B7270240 		li	a5,1073881088
 1285              		.loc 1 465 21
 1286 00ac 13670702 		ori	a4,a4,32
 1287 00b0 98CB     		sw	a4,16(a5)
 466:Drivers/src/ch32v20x_flash.c ****         FLASH->CTLR |= CR_STRT_Set;
 1288              		.loc 1 466 14
 1289 00b2 B7270240 		li	a5,1073881088
 1290 00b6 984B     		lw	a4,16(a5)
 1291 00b8 B7270240 		li	a5,1073881088
 1292              		.loc 1 466 21
 1293 00bc 13670704 		ori	a4,a4,64
 1294 00c0 98CB     		sw	a4,16(a5)
 467:Drivers/src/ch32v20x_flash.c ****         while(FLASH->STATR & SR_BSY);
 1295              		.loc 1 467 14
GAS LISTING C:\Users\SOLDER~1\AppData\Local\Temp\ccKV8tJ7.s 			page 32


 1296 00c2 0100     		nop
 1297              	.L52:
 1298              		.loc 1 467 20 discriminator 1
 1299 00c4 B7270240 		li	a5,1073881088
 1300 00c8 DC47     		lw	a5,12(a5)
 1301              		.loc 1 467 28 discriminator 1
 1302 00ca 858B     		andi	a5,a5,1
 1303              		.loc 1 467 15 discriminator 1
 1304 00cc E5FF     		bne	a5,zero,.L52
 468:Drivers/src/ch32v20x_flash.c ****         FLASH->CTLR &= ~CR_OPTER_Set;
 1305              		.loc 1 468 14
 1306 00ce B7270240 		li	a5,1073881088
 1307 00d2 984B     		lw	a4,16(a5)
 1308 00d4 B7270240 		li	a5,1073881088
 1309              		.loc 1 468 21
 1310 00d8 1377F7FD 		andi	a4,a4,-33
 1311 00dc 98CB     		sw	a4,16(a5)
 469:Drivers/src/ch32v20x_flash.c **** 
 470:Drivers/src/ch32v20x_flash.c ****         /* Write optionbytes */
 471:Drivers/src/ch32v20x_flash.c ****         if(NewState == DISABLE)
 1312              		.loc 1 471 11
 1313 00de 8327C4FC 		lw	a5,-52(s0)
 1314 00e2 99E7     		bne	a5,zero,.L53
 472:Drivers/src/ch32v20x_flash.c ****             pbuf[0] = 0x5AA5;
 1315              		.loc 1 472 21
 1316 00e4 9967     		li	a5,24576
 1317 00e6 938757AA 		addi	a5,a5,-1371
 1318 00ea 231AF4FC 		sh	a5,-44(s0)
 1319 00ee 29A0     		j	.L54
 1320              	.L53:
 473:Drivers/src/ch32v20x_flash.c ****         else
 474:Drivers/src/ch32v20x_flash.c ****             pbuf[0] = 0x00FF;
 1321              		.loc 1 474 21
 1322 00f0 9307F00F 		li	a5,255
 1323 00f4 231AF4FC 		sh	a5,-44(s0)
 1324              	.L54:
 475:Drivers/src/ch32v20x_flash.c **** 
 476:Drivers/src/ch32v20x_flash.c ****         FLASH->CTLR |= CR_OPTPG_Set;
 1325              		.loc 1 476 14
 1326 00f8 B7270240 		li	a5,1073881088
 1327 00fc 984B     		lw	a4,16(a5)
 1328 00fe B7270240 		li	a5,1073881088
 1329              		.loc 1 476 21
 1330 0102 13670701 		ori	a4,a4,16
 1331 0106 98CB     		sw	a4,16(a5)
 477:Drivers/src/ch32v20x_flash.c ****         for(i = 0; i < 8; i++){
 1332              		.loc 1 477 15
 1333 0108 A30304FE 		sb	zero,-25(s0)
 1334              		.loc 1 477 9
 1335 010c B1A0     		j	.L55
 1336              	.L57:
 478:Drivers/src/ch32v20x_flash.c ****             *(uint16_t *)(Addr + 2 * i) = pbuf[i];
 1337              		.loc 1 478 47
 1338 010e 834774FE 		lbu	a5,-25(s0)
 1339 0112 93F7F70F 		andi	a5,a5,0xff
 1340 0116 BE86     		mv	a3,a5
 1341              		.loc 1 478 36
GAS LISTING C:\Users\SOLDER~1\AppData\Local\Temp\ccKV8tJ7.s 			page 33


 1342 0118 834774FE 		lbu	a5,-25(s0)
 1343 011c 93F7F70F 		andi	a5,a5,0xff
 1344 0120 8607     		slli	a5,a5,1
 1345 0122 3E87     		mv	a4,a5
 1346              		.loc 1 478 32
 1347 0124 832784FE 		lw	a5,-24(s0)
 1348 0128 BA97     		add	a5,a4,a5
 1349              		.loc 1 478 14
 1350 012a 3E87     		mv	a4,a5
 1351              		.loc 1 478 47
 1352 012c 93971600 		slli	a5,a3,1
 1353 0130 C117     		addi	a5,a5,-16
 1354 0132 A297     		add	a5,a5,s0
 1355 0134 83D747FE 		lhu	a5,-28(a5)
 1356              		.loc 1 478 41
 1357 0138 1EA3     		sh	a5,0(a4)
 479:Drivers/src/ch32v20x_flash.c ****             while(FLASH->STATR & SR_BSY);
 1358              		.loc 1 479 18
 1359 013a 0100     		nop
 1360              	.L56:
 1361              		.loc 1 479 24 discriminator 1
 1362 013c B7270240 		li	a5,1073881088
 1363 0140 DC47     		lw	a5,12(a5)
 1364              		.loc 1 479 32 discriminator 1
 1365 0142 858B     		andi	a5,a5,1
 1366              		.loc 1 479 19 discriminator 1
 1367 0144 E5FF     		bne	a5,zero,.L56
 477:Drivers/src/ch32v20x_flash.c ****         for(i = 0; i < 8; i++){
 1368              		.loc 1 477 28 discriminator 2
 1369 0146 834774FE 		lbu	a5,-25(s0)
 1370 014a 93F7F70F 		andi	a5,a5,0xff
 1371 014e 8507     		addi	a5,a5,1
 1372 0150 93F7F70F 		andi	a5,a5,0xff
 1373 0154 A303F4FE 		sb	a5,-25(s0)
 1374              	.L55:
 477:Drivers/src/ch32v20x_flash.c ****         for(i = 0; i < 8; i++){
 1375              		.loc 1 477 22 discriminator 1
 1376 0158 834774FE 		lbu	a5,-25(s0)
 1377 015c 13F7F70F 		andi	a4,a5,0xff
 1378 0160 9D47     		li	a5,7
 1379 0162 E3F6E7FA 		bleu	a4,a5,.L57
 480:Drivers/src/ch32v20x_flash.c ****         }
 481:Drivers/src/ch32v20x_flash.c ****         FLASH->CTLR &= ~CR_OPTPG_Set;
 1380              		.loc 1 481 14
 1381 0166 B7270240 		li	a5,1073881088
 1382 016a 984B     		lw	a4,16(a5)
 1383 016c B7270240 		li	a5,1073881088
 1384              		.loc 1 481 21
 1385 0170 3D9B     		andi	a4,a4,-17
 1386 0172 98CB     		sw	a4,16(a5)
 1387              	.L49:
 482:Drivers/src/ch32v20x_flash.c ****     }
 483:Drivers/src/ch32v20x_flash.c ****     return status;
 1388              		.loc 1 483 12
 1389 0174 8327C4FE 		lw	a5,-20(s0)
 484:Drivers/src/ch32v20x_flash.c **** }
 1390              		.loc 1 484 1
GAS LISTING C:\Users\SOLDER~1\AppData\Local\Temp\ccKV8tJ7.s 			page 34


 1391 0178 3E85     		mv	a0,a5
 1392 017a F250     		lw	ra,60(sp)
 1393              		.cfi_restore 1
 1394 017c 6254     		lw	s0,56(sp)
 1395              		.cfi_restore 8
 1396              		.cfi_def_cfa 2, 64
 1397 017e 2161     		addi	sp,sp,64
 1398              		.cfi_def_cfa_offset 0
 1399 0180 8280     		jr	ra
 1400              		.cfi_endproc
 1401              	.LFE28:
 1403              		.section	.text.FLASH_UserOptionByteConfig,"ax",@progbits
 1404              		.align	1
 1405              		.globl	FLASH_UserOptionByteConfig
 1407              	FLASH_UserOptionByteConfig:
 1408              	.LFB29:
 485:Drivers/src/ch32v20x_flash.c **** 
 486:Drivers/src/ch32v20x_flash.c **** /*********************************************************************
 487:Drivers/src/ch32v20x_flash.c ****  * @fn      FLASH_UserOptionByteConfig
 488:Drivers/src/ch32v20x_flash.c ****  *
 489:Drivers/src/ch32v20x_flash.c ****  * @brief   Programs the FLASH User Option Byte - IWDG_SW / RST_STOP / RST_STDBY.
 490:Drivers/src/ch32v20x_flash.c ****  *
 491:Drivers/src/ch32v20x_flash.c ****  * @param   OB_IWDG - Selects the IWDG mode
 492:Drivers/src/ch32v20x_flash.c ****  *            OB_IWDG_SW - Software IWDG selected
 493:Drivers/src/ch32v20x_flash.c ****  *            OB_IWDG_HW - Hardware IWDG selected
 494:Drivers/src/ch32v20x_flash.c ****  *          OB_STOP - Reset event when entering STOP mode.
 495:Drivers/src/ch32v20x_flash.c ****  *            OB_STOP_NoRST - No reset generated when entering in STOP
 496:Drivers/src/ch32v20x_flash.c ****  *            OB_STOP_RST - Reset generated when entering in STOP
 497:Drivers/src/ch32v20x_flash.c ****  *          OB_STDBY - Reset event when entering Standby mode.
 498:Drivers/src/ch32v20x_flash.c ****  *            OB_STDBY_NoRST - No reset generated when entering in STANDBY
 499:Drivers/src/ch32v20x_flash.c ****  *            OB_STDBY_RST - Reset generated when entering in STANDBY
 500:Drivers/src/ch32v20x_flash.c ****  *
 501:Drivers/src/ch32v20x_flash.c ****  * @return  FLASH Status - The returned value can be: FLASH_BUSY, FLASH_ERROR_PG,
 502:Drivers/src/ch32v20x_flash.c ****  *        FLASH_ERROR_WRP, FLASH_COMPLETE or FLASH_TIMEOUT.
 503:Drivers/src/ch32v20x_flash.c ****  */
 504:Drivers/src/ch32v20x_flash.c **** FLASH_Status FLASH_UserOptionByteConfig(uint16_t OB_IWDG, uint16_t OB_STOP, uint16_t OB_STDBY)
 505:Drivers/src/ch32v20x_flash.c **** {
 1409              		.loc 1 505 1
 1410              		.cfi_startproc
 1411 0000 3971     		addi	sp,sp,-64
 1412              		.cfi_def_cfa_offset 64
 1413 0002 06DE     		sw	ra,60(sp)
 1414 0004 22DC     		sw	s0,56(sp)
 1415              		.cfi_offset 1, -4
 1416              		.cfi_offset 8, -8
 1417 0006 8000     		addi	s0,sp,64
 1418              		.cfi_def_cfa 8, 0
 1419 0008 AA87     		mv	a5,a0
 1420 000a AE86     		mv	a3,a1
 1421 000c 3287     		mv	a4,a2
 1422 000e 2317F4FC 		sh	a5,-50(s0)
 1423 0012 B687     		mv	a5,a3
 1424 0014 2316F4FC 		sh	a5,-52(s0)
 1425 0018 BA87     		mv	a5,a4
 1426 001a 2315F4FC 		sh	a5,-54(s0)
 506:Drivers/src/ch32v20x_flash.c ****     FLASH_Status status = FLASH_COMPLETE;
 1427              		.loc 1 506 18
GAS LISTING C:\Users\SOLDER~1\AppData\Local\Temp\ccKV8tJ7.s 			page 35


 1428 001e 9147     		li	a5,4
 1429 0020 2326F4FE 		sw	a5,-20(s0)
 507:Drivers/src/ch32v20x_flash.c ****     uint32_t     Addr = 0x1FFFF800;
 1430              		.loc 1 507 18
 1431 0024 B7070020 		li	a5,536870912
 1432 0028 93870780 		addi	a5,a5,-2048
 1433 002c 2324F4FE 		sw	a5,-24(s0)
 508:Drivers/src/ch32v20x_flash.c ****     __IO uint8_t i;
 509:Drivers/src/ch32v20x_flash.c ****     uint16_t     pbuf[8];
 510:Drivers/src/ch32v20x_flash.c **** 
 511:Drivers/src/ch32v20x_flash.c ****     FLASH->OBKEYR = FLASH_KEY1;
 1434              		.loc 1 511 10
 1435 0030 B7270240 		li	a5,1073881088
 1436              		.loc 1 511 19
 1437 0034 37076745 		li	a4,1164378112
 1438 0038 13073712 		addi	a4,a4,291
 1439 003c 98C7     		sw	a4,8(a5)
 512:Drivers/src/ch32v20x_flash.c ****     FLASH->OBKEYR = FLASH_KEY2;
 1440              		.loc 1 512 10
 1441 003e B7270240 		li	a5,1073881088
 1442              		.loc 1 512 19
 1443 0042 3797EFCD 		li	a4,-839938048
 1444 0046 1307B79A 		addi	a4,a4,-1621
 1445 004a 98C7     		sw	a4,8(a5)
 513:Drivers/src/ch32v20x_flash.c ****     status = FLASH_WaitForLastOperation(ProgramTimeout);
 1446              		.loc 1 513 14
 1447 004c 1565     		li	a0,20480
 1448 004e 97000000 		call	FLASH_WaitForLastOperation
 1448      E7800000 
 1449 0056 2326A4FE 		sw	a0,-20(s0)
 514:Drivers/src/ch32v20x_flash.c **** 
 515:Drivers/src/ch32v20x_flash.c ****     if(status == FLASH_COMPLETE)
 1450              		.loc 1 515 7
 1451 005a 0327C4FE 		lw	a4,-20(s0)
 1452 005e 9147     		li	a5,4
 1453 0060 6318F712 		bne	a4,a5,.L60
 516:Drivers/src/ch32v20x_flash.c ****     {
 517:Drivers/src/ch32v20x_flash.c ****         /* Read optionbytes */
 518:Drivers/src/ch32v20x_flash.c ****         for(i = 0; i < 8; i++){
 1454              		.loc 1 518 15
 1455 0064 A30304FE 		sb	zero,-25(s0)
 1456              		.loc 1 518 9
 1457 0068 35A8     		j	.L61
 1458              	.L62:
 519:Drivers/src/ch32v20x_flash.c ****             pbuf[i] = *(uint16_t *)(Addr + 2 * i);
 1459              		.loc 1 519 46 discriminator 3
 1460 006a 834774FE 		lbu	a5,-25(s0)
 1461 006e 93F7F70F 		andi	a5,a5,0xff
 1462 0072 8607     		slli	a5,a5,1
 1463 0074 3E87     		mv	a4,a5
 1464              		.loc 1 519 42 discriminator 3
 1465 0076 832784FE 		lw	a5,-24(s0)
 1466 007a BA97     		add	a5,a4,a5
 1467              		.loc 1 519 24 discriminator 3
 1468 007c 3E87     		mv	a4,a5
 1469              		.loc 1 519 17 discriminator 3
 1470 007e 834774FE 		lbu	a5,-25(s0)
GAS LISTING C:\Users\SOLDER~1\AppData\Local\Temp\ccKV8tJ7.s 			page 36


 1471 0082 93F7F70F 		andi	a5,a5,0xff
 1472              		.loc 1 519 23 discriminator 3
 1473 0086 1A23     		lhu	a4,0(a4)
 1474              		.loc 1 519 21 discriminator 3
 1475 0088 8607     		slli	a5,a5,1
 1476 008a C117     		addi	a5,a5,-16
 1477 008c A297     		add	a5,a5,s0
 1478 008e 2392E7FE 		sh	a4,-28(a5)
 518:Drivers/src/ch32v20x_flash.c ****             pbuf[i] = *(uint16_t *)(Addr + 2 * i);
 1479              		.loc 1 518 28 discriminator 3
 1480 0092 834774FE 		lbu	a5,-25(s0)
 1481 0096 93F7F70F 		andi	a5,a5,0xff
 1482 009a 8507     		addi	a5,a5,1
 1483 009c 93F7F70F 		andi	a5,a5,0xff
 1484 00a0 A303F4FE 		sb	a5,-25(s0)
 1485              	.L61:
 518:Drivers/src/ch32v20x_flash.c ****             pbuf[i] = *(uint16_t *)(Addr + 2 * i);
 1486              		.loc 1 518 22 discriminator 1
 1487 00a4 834774FE 		lbu	a5,-25(s0)
 1488 00a8 13F7F70F 		andi	a4,a5,0xff
 1489 00ac 9D47     		li	a5,7
 1490 00ae E3FEE7FA 		bleu	a4,a5,.L62
 520:Drivers/src/ch32v20x_flash.c ****         }
 521:Drivers/src/ch32v20x_flash.c **** 
 522:Drivers/src/ch32v20x_flash.c ****         /* Erase optionbytes */
 523:Drivers/src/ch32v20x_flash.c ****         FLASH->CTLR |= CR_OPTER_Set;
 1491              		.loc 1 523 14
 1492 00b2 B7270240 		li	a5,1073881088
 1493 00b6 984B     		lw	a4,16(a5)
 1494 00b8 B7270240 		li	a5,1073881088
 1495              		.loc 1 523 21
 1496 00bc 13670702 		ori	a4,a4,32
 1497 00c0 98CB     		sw	a4,16(a5)
 524:Drivers/src/ch32v20x_flash.c ****         FLASH->CTLR |= CR_STRT_Set;
 1498              		.loc 1 524 14
 1499 00c2 B7270240 		li	a5,1073881088
 1500 00c6 984B     		lw	a4,16(a5)
 1501 00c8 B7270240 		li	a5,1073881088
 1502              		.loc 1 524 21
 1503 00cc 13670704 		ori	a4,a4,64
 1504 00d0 98CB     		sw	a4,16(a5)
 525:Drivers/src/ch32v20x_flash.c ****         while(FLASH->STATR & SR_BSY);
 1505              		.loc 1 525 14
 1506 00d2 0100     		nop
 1507              	.L63:
 1508              		.loc 1 525 20 discriminator 1
 1509 00d4 B7270240 		li	a5,1073881088
 1510 00d8 DC47     		lw	a5,12(a5)
 1511              		.loc 1 525 28 discriminator 1
 1512 00da 858B     		andi	a5,a5,1
 1513              		.loc 1 525 15 discriminator 1
 1514 00dc E5FF     		bne	a5,zero,.L63
 526:Drivers/src/ch32v20x_flash.c ****         FLASH->CTLR &= ~CR_OPTER_Set;
 1515              		.loc 1 526 14
 1516 00de B7270240 		li	a5,1073881088
 1517 00e2 984B     		lw	a4,16(a5)
 1518 00e4 B7270240 		li	a5,1073881088
GAS LISTING C:\Users\SOLDER~1\AppData\Local\Temp\ccKV8tJ7.s 			page 37


 1519              		.loc 1 526 21
 1520 00e8 1377F7FD 		andi	a4,a4,-33
 1521 00ec 98CB     		sw	a4,16(a5)
 527:Drivers/src/ch32v20x_flash.c **** 
 528:Drivers/src/ch32v20x_flash.c ****         /* Write optionbytes */
 529:Drivers/src/ch32v20x_flash.c ****         pbuf[1] = OB_IWDG | (uint16_t)(OB_STOP | (uint16_t)(OB_STDBY | ((uint16_t)0xF8)));
 1522              		.loc 1 529 17
 1523 00ee 8357A4FC 		lhu	a5,-54(s0)
 1524 00f2 3E87     		mv	a4,a5
 1525 00f4 8357C4FC 		lhu	a5,-52(s0)
 1526 00f8 D98F     		or	a5,a4,a5
 1527 00fa C207     		slli	a5,a5,16
 1528 00fc C183     		srli	a5,a5,16
 1529 00fe 0357E4FC 		lhu	a4,-50(s0)
 1530 0102 D98F     		or	a5,a5,a4
 1531 0104 C207     		slli	a5,a5,16
 1532 0106 C183     		srli	a5,a5,16
 1533 0108 93E7870F 		ori	a5,a5,248
 1534 010c C207     		slli	a5,a5,16
 1535 010e C183     		srli	a5,a5,16
 1536 0110 231BF4FC 		sh	a5,-42(s0)
 530:Drivers/src/ch32v20x_flash.c **** 
 531:Drivers/src/ch32v20x_flash.c ****         FLASH->CTLR |= CR_OPTPG_Set;
 1537              		.loc 1 531 14
 1538 0114 B7270240 		li	a5,1073881088
 1539 0118 984B     		lw	a4,16(a5)
 1540 011a B7270240 		li	a5,1073881088
 1541              		.loc 1 531 21
 1542 011e 13670701 		ori	a4,a4,16
 1543 0122 98CB     		sw	a4,16(a5)
 532:Drivers/src/ch32v20x_flash.c ****         for(i = 0; i < 8; i++){
 1544              		.loc 1 532 15
 1545 0124 A30304FE 		sb	zero,-25(s0)
 1546              		.loc 1 532 9
 1547 0128 B1A0     		j	.L64
 1548              	.L66:
 533:Drivers/src/ch32v20x_flash.c ****             *(uint16_t *)(Addr + 2 * i) = pbuf[i];
 1549              		.loc 1 533 47
 1550 012a 834774FE 		lbu	a5,-25(s0)
 1551 012e 93F7F70F 		andi	a5,a5,0xff
 1552 0132 BE86     		mv	a3,a5
 1553              		.loc 1 533 36
 1554 0134 834774FE 		lbu	a5,-25(s0)
 1555 0138 93F7F70F 		andi	a5,a5,0xff
 1556 013c 8607     		slli	a5,a5,1
 1557 013e 3E87     		mv	a4,a5
 1558              		.loc 1 533 32
 1559 0140 832784FE 		lw	a5,-24(s0)
 1560 0144 BA97     		add	a5,a4,a5
 1561              		.loc 1 533 14
 1562 0146 3E87     		mv	a4,a5
 1563              		.loc 1 533 47
 1564 0148 93971600 		slli	a5,a3,1
 1565 014c C117     		addi	a5,a5,-16
 1566 014e A297     		add	a5,a5,s0
 1567 0150 83D747FE 		lhu	a5,-28(a5)
 1568              		.loc 1 533 41
GAS LISTING C:\Users\SOLDER~1\AppData\Local\Temp\ccKV8tJ7.s 			page 38


 1569 0154 1EA3     		sh	a5,0(a4)
 534:Drivers/src/ch32v20x_flash.c ****             while(FLASH->STATR & SR_BSY);
 1570              		.loc 1 534 18
 1571 0156 0100     		nop
 1572              	.L65:
 1573              		.loc 1 534 24 discriminator 1
 1574 0158 B7270240 		li	a5,1073881088
 1575 015c DC47     		lw	a5,12(a5)
 1576              		.loc 1 534 32 discriminator 1
 1577 015e 858B     		andi	a5,a5,1
 1578              		.loc 1 534 19 discriminator 1
 1579 0160 E5FF     		bne	a5,zero,.L65
 532:Drivers/src/ch32v20x_flash.c ****         for(i = 0; i < 8; i++){
 1580              		.loc 1 532 28 discriminator 2
 1581 0162 834774FE 		lbu	a5,-25(s0)
 1582 0166 93F7F70F 		andi	a5,a5,0xff
 1583 016a 8507     		addi	a5,a5,1
 1584 016c 93F7F70F 		andi	a5,a5,0xff
 1585 0170 A303F4FE 		sb	a5,-25(s0)
 1586              	.L64:
 532:Drivers/src/ch32v20x_flash.c ****         for(i = 0; i < 8; i++){
 1587              		.loc 1 532 22 discriminator 1
 1588 0174 834774FE 		lbu	a5,-25(s0)
 1589 0178 13F7F70F 		andi	a4,a5,0xff
 1590 017c 9D47     		li	a5,7
 1591 017e E3F6E7FA 		bleu	a4,a5,.L66
 535:Drivers/src/ch32v20x_flash.c ****         }
 536:Drivers/src/ch32v20x_flash.c ****         FLASH->CTLR &= ~CR_OPTPG_Set;
 1592              		.loc 1 536 14
 1593 0182 B7270240 		li	a5,1073881088
 1594 0186 984B     		lw	a4,16(a5)
 1595 0188 B7270240 		li	a5,1073881088
 1596              		.loc 1 536 21
 1597 018c 3D9B     		andi	a4,a4,-17
 1598 018e 98CB     		sw	a4,16(a5)
 1599              	.L60:
 537:Drivers/src/ch32v20x_flash.c ****     }
 538:Drivers/src/ch32v20x_flash.c ****     return status;
 1600              		.loc 1 538 12
 1601 0190 8327C4FE 		lw	a5,-20(s0)
 539:Drivers/src/ch32v20x_flash.c **** }
 1602              		.loc 1 539 1
 1603 0194 3E85     		mv	a0,a5
 1604 0196 F250     		lw	ra,60(sp)
 1605              		.cfi_restore 1
 1606 0198 6254     		lw	s0,56(sp)
 1607              		.cfi_restore 8
 1608              		.cfi_def_cfa 2, 64
 1609 019a 2161     		addi	sp,sp,64
 1610              		.cfi_def_cfa_offset 0
 1611 019c 8280     		jr	ra
 1612              		.cfi_endproc
 1613              	.LFE29:
 1615              		.section	.text.FLASH_GetUserOptionByte,"ax",@progbits
 1616              		.align	1
 1617              		.globl	FLASH_GetUserOptionByte
 1619              	FLASH_GetUserOptionByte:
GAS LISTING C:\Users\SOLDER~1\AppData\Local\Temp\ccKV8tJ7.s 			page 39


 1620              	.LFB30:
 540:Drivers/src/ch32v20x_flash.c **** 
 541:Drivers/src/ch32v20x_flash.c **** /*********************************************************************
 542:Drivers/src/ch32v20x_flash.c ****  * @fn      FLASH_GetUserOptionByte
 543:Drivers/src/ch32v20x_flash.c ****  *
 544:Drivers/src/ch32v20x_flash.c ****  * @brief   Returns the FLASH User Option Bytes values.
 545:Drivers/src/ch32v20x_flash.c ****  *
 546:Drivers/src/ch32v20x_flash.c ****  * @return  The FLASH User Option Bytes values:IWDG_SW(Bit0), RST_STOP(Bit1)
 547:Drivers/src/ch32v20x_flash.c ****  *        and RST_STDBY(Bit2).
 548:Drivers/src/ch32v20x_flash.c ****  */
 549:Drivers/src/ch32v20x_flash.c **** uint32_t FLASH_GetUserOptionByte(void)
 550:Drivers/src/ch32v20x_flash.c **** {
 1621              		.loc 1 550 1
 1622              		.cfi_startproc
 1623 0000 4111     		addi	sp,sp,-16
 1624              		.cfi_def_cfa_offset 16
 1625 0002 22C6     		sw	s0,12(sp)
 1626              		.cfi_offset 8, -4
 1627 0004 0008     		addi	s0,sp,16
 1628              		.cfi_def_cfa 8, 0
 551:Drivers/src/ch32v20x_flash.c ****     return (uint32_t)(FLASH->OBR >> 2);
 1629              		.loc 1 551 28
 1630 0006 B7270240 		li	a5,1073881088
 1631 000a DC4F     		lw	a5,28(a5)
 1632              		.loc 1 551 12
 1633 000c 8983     		srli	a5,a5,2
 552:Drivers/src/ch32v20x_flash.c **** }
 1634              		.loc 1 552 1
 1635 000e 3E85     		mv	a0,a5
 1636 0010 3244     		lw	s0,12(sp)
 1637              		.cfi_restore 8
 1638              		.cfi_def_cfa 2, 16
 1639 0012 4101     		addi	sp,sp,16
 1640              		.cfi_def_cfa_offset 0
 1641 0014 8280     		jr	ra
 1642              		.cfi_endproc
 1643              	.LFE30:
 1645              		.section	.text.FLASH_GetWriteProtectionOptionByte,"ax",@progbits
 1646              		.align	1
 1647              		.globl	FLASH_GetWriteProtectionOptionByte
 1649              	FLASH_GetWriteProtectionOptionByte:
 1650              	.LFB31:
 553:Drivers/src/ch32v20x_flash.c **** 
 554:Drivers/src/ch32v20x_flash.c **** /*********************************************************************
 555:Drivers/src/ch32v20x_flash.c ****  * @fn      FLASH_GetWriteProtectionOptionByte
 556:Drivers/src/ch32v20x_flash.c ****  *
 557:Drivers/src/ch32v20x_flash.c ****  * @brief   Returns the FLASH Write Protection Option Bytes Register value.
 558:Drivers/src/ch32v20x_flash.c ****  *
 559:Drivers/src/ch32v20x_flash.c ****  * @return  The FLASH Write Protection Option Bytes Register value.
 560:Drivers/src/ch32v20x_flash.c ****  */
 561:Drivers/src/ch32v20x_flash.c **** uint32_t FLASH_GetWriteProtectionOptionByte(void)
 562:Drivers/src/ch32v20x_flash.c **** {
 1651              		.loc 1 562 1
 1652              		.cfi_startproc
 1653 0000 4111     		addi	sp,sp,-16
 1654              		.cfi_def_cfa_offset 16
 1655 0002 22C6     		sw	s0,12(sp)
GAS LISTING C:\Users\SOLDER~1\AppData\Local\Temp\ccKV8tJ7.s 			page 40


 1656              		.cfi_offset 8, -4
 1657 0004 0008     		addi	s0,sp,16
 1658              		.cfi_def_cfa 8, 0
 563:Drivers/src/ch32v20x_flash.c ****     return (uint32_t)(FLASH->WPR);
 1659              		.loc 1 563 28
 1660 0006 B7270240 		li	a5,1073881088
 1661              		.loc 1 563 12
 1662 000a 9C53     		lw	a5,32(a5)
 564:Drivers/src/ch32v20x_flash.c **** }
 1663              		.loc 1 564 1
 1664 000c 3E85     		mv	a0,a5
 1665 000e 3244     		lw	s0,12(sp)
 1666              		.cfi_restore 8
 1667              		.cfi_def_cfa 2, 16
 1668 0010 4101     		addi	sp,sp,16
 1669              		.cfi_def_cfa_offset 0
 1670 0012 8280     		jr	ra
 1671              		.cfi_endproc
 1672              	.LFE31:
 1674              		.section	.text.FLASH_GetReadOutProtectionStatus,"ax",@progbits
 1675              		.align	1
 1676              		.globl	FLASH_GetReadOutProtectionStatus
 1678              	FLASH_GetReadOutProtectionStatus:
 1679              	.LFB32:
 565:Drivers/src/ch32v20x_flash.c **** 
 566:Drivers/src/ch32v20x_flash.c **** /*********************************************************************
 567:Drivers/src/ch32v20x_flash.c ****  * @fn      FLASH_GetReadOutProtectionStatus
 568:Drivers/src/ch32v20x_flash.c ****  *
 569:Drivers/src/ch32v20x_flash.c ****  * @brief   Checks whether the FLASH Read Out Protection Status is set or not.
 570:Drivers/src/ch32v20x_flash.c ****  *
 571:Drivers/src/ch32v20x_flash.c ****  * @return  FLASH ReadOut Protection Status(SET or RESET)
 572:Drivers/src/ch32v20x_flash.c ****  */
 573:Drivers/src/ch32v20x_flash.c **** FlagStatus FLASH_GetReadOutProtectionStatus(void)
 574:Drivers/src/ch32v20x_flash.c **** {
 1680              		.loc 1 574 1
 1681              		.cfi_startproc
 1682 0000 0111     		addi	sp,sp,-32
 1683              		.cfi_def_cfa_offset 32
 1684 0002 22CE     		sw	s0,28(sp)
 1685              		.cfi_offset 8, -4
 1686 0004 0010     		addi	s0,sp,32
 1687              		.cfi_def_cfa 8, 0
 575:Drivers/src/ch32v20x_flash.c ****     FlagStatus readoutstatus = RESET;
 1688              		.loc 1 575 16
 1689 0006 232604FE 		sw	zero,-20(s0)
 576:Drivers/src/ch32v20x_flash.c ****     if((FLASH->OBR & RDPRT_Mask) != (uint32_t)RESET)
 1690              		.loc 1 576 14
 1691 000a B7270240 		li	a5,1073881088
 1692 000e DC4F     		lw	a5,28(a5)
 1693              		.loc 1 576 20
 1694 0010 898B     		andi	a5,a5,2
 1695              		.loc 1 576 7
 1696 0012 89C7     		beq	a5,zero,.L73
 577:Drivers/src/ch32v20x_flash.c ****     {
 578:Drivers/src/ch32v20x_flash.c ****         readoutstatus = SET;
 1697              		.loc 1 578 23
 1698 0014 8547     		li	a5,1
GAS LISTING C:\Users\SOLDER~1\AppData\Local\Temp\ccKV8tJ7.s 			page 41


 1699 0016 2326F4FE 		sw	a5,-20(s0)
 1700 001a 19A0     		j	.L74
 1701              	.L73:
 579:Drivers/src/ch32v20x_flash.c ****     }
 580:Drivers/src/ch32v20x_flash.c ****     else
 581:Drivers/src/ch32v20x_flash.c ****     {
 582:Drivers/src/ch32v20x_flash.c ****         readoutstatus = RESET;
 1702              		.loc 1 582 23
 1703 001c 232604FE 		sw	zero,-20(s0)
 1704              	.L74:
 583:Drivers/src/ch32v20x_flash.c ****     }
 584:Drivers/src/ch32v20x_flash.c ****     return readoutstatus;
 1705              		.loc 1 584 12
 1706 0020 8327C4FE 		lw	a5,-20(s0)
 585:Drivers/src/ch32v20x_flash.c **** }
 1707              		.loc 1 585 1
 1708 0024 3E85     		mv	a0,a5
 1709 0026 7244     		lw	s0,28(sp)
 1710              		.cfi_restore 8
 1711              		.cfi_def_cfa 2, 32
 1712 0028 0561     		addi	sp,sp,32
 1713              		.cfi_def_cfa_offset 0
 1714 002a 8280     		jr	ra
 1715              		.cfi_endproc
 1716              	.LFE32:
 1718              		.section	.text.FLASH_ITConfig,"ax",@progbits
 1719              		.align	1
 1720              		.globl	FLASH_ITConfig
 1722              	FLASH_ITConfig:
 1723              	.LFB33:
 586:Drivers/src/ch32v20x_flash.c **** 
 587:Drivers/src/ch32v20x_flash.c **** /*********************************************************************
 588:Drivers/src/ch32v20x_flash.c ****  * @fn      FLASH_ITConfig
 589:Drivers/src/ch32v20x_flash.c ****  *
 590:Drivers/src/ch32v20x_flash.c ****  * @brief   Enables or disables the specified FLASH interrupts.
 591:Drivers/src/ch32v20x_flash.c ****  *
 592:Drivers/src/ch32v20x_flash.c ****  * @param   FLASH_IT - specifies the FLASH interrupt sources to be enabled or disabled.
 593:Drivers/src/ch32v20x_flash.c ****  *            FLASH_IT_ERROR - FLASH Error Interrupt
 594:Drivers/src/ch32v20x_flash.c ****  *            FLASH_IT_EOP - FLASH end of operation Interrupt
 595:Drivers/src/ch32v20x_flash.c ****  *          NewState - new state of the specified Flash interrupts(ENABLE or DISABLE).
 596:Drivers/src/ch32v20x_flash.c ****  *
 597:Drivers/src/ch32v20x_flash.c ****  * @return  FLASH Prefetch Buffer Status (SET or RESET).
 598:Drivers/src/ch32v20x_flash.c ****  */
 599:Drivers/src/ch32v20x_flash.c **** void FLASH_ITConfig(uint32_t FLASH_IT, FunctionalState NewState)
 600:Drivers/src/ch32v20x_flash.c **** {
 1724              		.loc 1 600 1
 1725              		.cfi_startproc
 1726 0000 0111     		addi	sp,sp,-32
 1727              		.cfi_def_cfa_offset 32
 1728 0002 22CE     		sw	s0,28(sp)
 1729              		.cfi_offset 8, -4
 1730 0004 0010     		addi	s0,sp,32
 1731              		.cfi_def_cfa 8, 0
 1732 0006 2326A4FE 		sw	a0,-20(s0)
 1733 000a 2324B4FE 		sw	a1,-24(s0)
 601:Drivers/src/ch32v20x_flash.c ****     if(NewState != DISABLE)
 1734              		.loc 1 601 7
GAS LISTING C:\Users\SOLDER~1\AppData\Local\Temp\ccKV8tJ7.s 			page 42


 1735 000e 832784FE 		lw	a5,-24(s0)
 1736 0012 99CB     		beq	a5,zero,.L77
 602:Drivers/src/ch32v20x_flash.c ****     {
 603:Drivers/src/ch32v20x_flash.c ****         FLASH->CTLR |= FLASH_IT;
 1737              		.loc 1 603 14
 1738 0014 B7270240 		li	a5,1073881088
 1739 0018 944B     		lw	a3,16(a5)
 1740 001a B7270240 		li	a5,1073881088
 1741              		.loc 1 603 21
 1742 001e 0327C4FE 		lw	a4,-20(s0)
 1743 0022 558F     		or	a4,a3,a4
 1744 0024 98CB     		sw	a4,16(a5)
 604:Drivers/src/ch32v20x_flash.c ****     }
 605:Drivers/src/ch32v20x_flash.c ****     else
 606:Drivers/src/ch32v20x_flash.c ****     {
 607:Drivers/src/ch32v20x_flash.c ****         FLASH->CTLR &= ~(uint32_t)FLASH_IT;
 608:Drivers/src/ch32v20x_flash.c ****     }
 609:Drivers/src/ch32v20x_flash.c **** }
 1745              		.loc 1 609 1
 1746 0026 21A8     		j	.L79
 1747              	.L77:
 607:Drivers/src/ch32v20x_flash.c ****     }
 1748              		.loc 1 607 14
 1749 0028 B7270240 		li	a5,1073881088
 1750 002c 944B     		lw	a3,16(a5)
 607:Drivers/src/ch32v20x_flash.c ****     }
 1751              		.loc 1 607 24
 1752 002e 8327C4FE 		lw	a5,-20(s0)
 1753 0032 13C7F7FF 		not	a4,a5
 607:Drivers/src/ch32v20x_flash.c ****     }
 1754              		.loc 1 607 14
 1755 0036 B7270240 		li	a5,1073881088
 607:Drivers/src/ch32v20x_flash.c ****     }
 1756              		.loc 1 607 21
 1757 003a 758F     		and	a4,a3,a4
 1758 003c 98CB     		sw	a4,16(a5)
 1759              	.L79:
 1760              		.loc 1 609 1
 1761 003e 0100     		nop
 1762 0040 7244     		lw	s0,28(sp)
 1763              		.cfi_restore 8
 1764              		.cfi_def_cfa 2, 32
 1765 0042 0561     		addi	sp,sp,32
 1766              		.cfi_def_cfa_offset 0
 1767 0044 8280     		jr	ra
 1768              		.cfi_endproc
 1769              	.LFE33:
 1771              		.section	.text.FLASH_GetFlagStatus,"ax",@progbits
 1772              		.align	1
 1773              		.globl	FLASH_GetFlagStatus
 1775              	FLASH_GetFlagStatus:
 1776              	.LFB34:
 610:Drivers/src/ch32v20x_flash.c **** 
 611:Drivers/src/ch32v20x_flash.c **** /*********************************************************************
 612:Drivers/src/ch32v20x_flash.c ****  * @fn      FLASH_GetFlagStatus
 613:Drivers/src/ch32v20x_flash.c ****  *
 614:Drivers/src/ch32v20x_flash.c ****  * @brief   Checks whether the specified FLASH flag is set or not.
GAS LISTING C:\Users\SOLDER~1\AppData\Local\Temp\ccKV8tJ7.s 			page 43


 615:Drivers/src/ch32v20x_flash.c ****  *
 616:Drivers/src/ch32v20x_flash.c ****  * @param   FLASH_FLAG - specifies the FLASH flag to check.
 617:Drivers/src/ch32v20x_flash.c ****  *            FLASH_FLAG_BSY - FLASH Busy flag
 618:Drivers/src/ch32v20x_flash.c ****  *            FLASH_FLAG_WRPRTERR - FLASH Write protected error flag
 619:Drivers/src/ch32v20x_flash.c ****  *            FLASH_FLAG_EOP - FLASH End of Operation flag
 620:Drivers/src/ch32v20x_flash.c ****  *            FLASH_FLAG_OPTERR - FLASH Option Byte error flag
 621:Drivers/src/ch32v20x_flash.c ****  *
 622:Drivers/src/ch32v20x_flash.c ****  * @return  The new state of FLASH_FLAG (SET or RESET).
 623:Drivers/src/ch32v20x_flash.c ****  */
 624:Drivers/src/ch32v20x_flash.c **** FlagStatus FLASH_GetFlagStatus(uint32_t FLASH_FLAG)
 625:Drivers/src/ch32v20x_flash.c **** {
 1777              		.loc 1 625 1
 1778              		.cfi_startproc
 1779 0000 7971     		addi	sp,sp,-48
 1780              		.cfi_def_cfa_offset 48
 1781 0002 22D6     		sw	s0,44(sp)
 1782              		.cfi_offset 8, -4
 1783 0004 0018     		addi	s0,sp,48
 1784              		.cfi_def_cfa 8, 0
 1785 0006 232EA4FC 		sw	a0,-36(s0)
 626:Drivers/src/ch32v20x_flash.c ****     FlagStatus bitstatus = RESET;
 1786              		.loc 1 626 16
 1787 000a 232604FE 		sw	zero,-20(s0)
 627:Drivers/src/ch32v20x_flash.c **** 
 628:Drivers/src/ch32v20x_flash.c ****     if(FLASH_FLAG == FLASH_FLAG_OPTERR)
 1788              		.loc 1 628 7
 1789 000e 0327C4FD 		lw	a4,-36(s0)
 1790 0012 8547     		li	a5,1
 1791 0014 631EF700 		bne	a4,a5,.L81
 629:Drivers/src/ch32v20x_flash.c ****     {
 630:Drivers/src/ch32v20x_flash.c ****         if((FLASH->OBR & FLASH_FLAG_OPTERR) != (uint32_t)RESET)
 1792              		.loc 1 630 18
 1793 0018 B7270240 		li	a5,1073881088
 1794 001c DC4F     		lw	a5,28(a5)
 1795              		.loc 1 630 24
 1796 001e 858B     		andi	a5,a5,1
 1797              		.loc 1 630 11
 1798 0020 89C7     		beq	a5,zero,.L82
 631:Drivers/src/ch32v20x_flash.c ****         {
 632:Drivers/src/ch32v20x_flash.c ****             bitstatus = SET;
 1799              		.loc 1 632 23
 1800 0022 8547     		li	a5,1
 1801 0024 2326F4FE 		sw	a5,-20(s0)
 1802 0028 0DA0     		j	.L83
 1803              	.L82:
 633:Drivers/src/ch32v20x_flash.c ****         }
 634:Drivers/src/ch32v20x_flash.c ****         else
 635:Drivers/src/ch32v20x_flash.c ****         {
 636:Drivers/src/ch32v20x_flash.c ****             bitstatus = RESET;
 1804              		.loc 1 636 23
 1805 002a 232604FE 		sw	zero,-20(s0)
 1806 002e 31A8     		j	.L83
 1807              	.L81:
 637:Drivers/src/ch32v20x_flash.c ****         }
 638:Drivers/src/ch32v20x_flash.c ****     }
 639:Drivers/src/ch32v20x_flash.c ****     else
 640:Drivers/src/ch32v20x_flash.c ****     {
GAS LISTING C:\Users\SOLDER~1\AppData\Local\Temp\ccKV8tJ7.s 			page 44


 641:Drivers/src/ch32v20x_flash.c ****         if((FLASH->STATR & FLASH_FLAG) != (uint32_t)RESET)
 1808              		.loc 1 641 18
 1809 0030 B7270240 		li	a5,1073881088
 1810 0034 D847     		lw	a4,12(a5)
 1811              		.loc 1 641 26
 1812 0036 8327C4FD 		lw	a5,-36(s0)
 1813 003a F98F     		and	a5,a4,a5
 1814              		.loc 1 641 11
 1815 003c 89C7     		beq	a5,zero,.L84
 642:Drivers/src/ch32v20x_flash.c ****         {
 643:Drivers/src/ch32v20x_flash.c ****             bitstatus = SET;
 1816              		.loc 1 643 23
 1817 003e 8547     		li	a5,1
 1818 0040 2326F4FE 		sw	a5,-20(s0)
 1819 0044 19A0     		j	.L83
 1820              	.L84:
 644:Drivers/src/ch32v20x_flash.c ****         }
 645:Drivers/src/ch32v20x_flash.c ****         else
 646:Drivers/src/ch32v20x_flash.c ****         {
 647:Drivers/src/ch32v20x_flash.c ****             bitstatus = RESET;
 1821              		.loc 1 647 23
 1822 0046 232604FE 		sw	zero,-20(s0)
 1823              	.L83:
 648:Drivers/src/ch32v20x_flash.c ****         }
 649:Drivers/src/ch32v20x_flash.c ****     }
 650:Drivers/src/ch32v20x_flash.c ****     return bitstatus;
 1824              		.loc 1 650 12
 1825 004a 8327C4FE 		lw	a5,-20(s0)
 651:Drivers/src/ch32v20x_flash.c **** }
 1826              		.loc 1 651 1
 1827 004e 3E85     		mv	a0,a5
 1828 0050 3254     		lw	s0,44(sp)
 1829              		.cfi_restore 8
 1830              		.cfi_def_cfa 2, 48
 1831 0052 4561     		addi	sp,sp,48
 1832              		.cfi_def_cfa_offset 0
 1833 0054 8280     		jr	ra
 1834              		.cfi_endproc
 1835              	.LFE34:
 1837              		.section	.text.FLASH_ClearFlag,"ax",@progbits
 1838              		.align	1
 1839              		.globl	FLASH_ClearFlag
 1841              	FLASH_ClearFlag:
 1842              	.LFB35:
 652:Drivers/src/ch32v20x_flash.c **** 
 653:Drivers/src/ch32v20x_flash.c **** /*********************************************************************
 654:Drivers/src/ch32v20x_flash.c ****  * @fn      FLASH_ClearFlag
 655:Drivers/src/ch32v20x_flash.c ****  *
 656:Drivers/src/ch32v20x_flash.c ****  * @brief   Clears the FLASH's pending flags.
 657:Drivers/src/ch32v20x_flash.c ****  *
 658:Drivers/src/ch32v20x_flash.c ****  * @param   FLASH_FLAG - specifies the FLASH flags to clear.
 659:Drivers/src/ch32v20x_flash.c ****  *            FLASH_FLAG_WRPRTERR - FLASH Write protected error flag
 660:Drivers/src/ch32v20x_flash.c ****  *            FLASH_FLAG_EOP - FLASH End of Operation flag
 661:Drivers/src/ch32v20x_flash.c ****  *
 662:Drivers/src/ch32v20x_flash.c ****  * @return  none
 663:Drivers/src/ch32v20x_flash.c ****  */
 664:Drivers/src/ch32v20x_flash.c **** void FLASH_ClearFlag(uint32_t FLASH_FLAG)
GAS LISTING C:\Users\SOLDER~1\AppData\Local\Temp\ccKV8tJ7.s 			page 45


 665:Drivers/src/ch32v20x_flash.c **** {
 1843              		.loc 1 665 1
 1844              		.cfi_startproc
 1845 0000 0111     		addi	sp,sp,-32
 1846              		.cfi_def_cfa_offset 32
 1847 0002 22CE     		sw	s0,28(sp)
 1848              		.cfi_offset 8, -4
 1849 0004 0010     		addi	s0,sp,32
 1850              		.cfi_def_cfa 8, 0
 1851 0006 2326A4FE 		sw	a0,-20(s0)
 666:Drivers/src/ch32v20x_flash.c ****     FLASH->STATR = FLASH_FLAG;
 1852              		.loc 1 666 10
 1853 000a B7270240 		li	a5,1073881088
 1854              		.loc 1 666 18
 1855 000e 0327C4FE 		lw	a4,-20(s0)
 1856 0012 D8C7     		sw	a4,12(a5)
 667:Drivers/src/ch32v20x_flash.c **** }
 1857              		.loc 1 667 1
 1858 0014 0100     		nop
 1859 0016 7244     		lw	s0,28(sp)
 1860              		.cfi_restore 8
 1861              		.cfi_def_cfa 2, 32
 1862 0018 0561     		addi	sp,sp,32
 1863              		.cfi_def_cfa_offset 0
 1864 001a 8280     		jr	ra
 1865              		.cfi_endproc
 1866              	.LFE35:
 1868              		.section	.text.FLASH_GetStatus,"ax",@progbits
 1869              		.align	1
 1870              		.globl	FLASH_GetStatus
 1872              	FLASH_GetStatus:
 1873              	.LFB36:
 668:Drivers/src/ch32v20x_flash.c **** 
 669:Drivers/src/ch32v20x_flash.c **** /*********************************************************************
 670:Drivers/src/ch32v20x_flash.c ****  * @fn      FLASH_GetStatus
 671:Drivers/src/ch32v20x_flash.c ****  *
 672:Drivers/src/ch32v20x_flash.c ****  * @brief   Returns the FLASH Status.
 673:Drivers/src/ch32v20x_flash.c ****  *
 674:Drivers/src/ch32v20x_flash.c ****  * @return  FLASH Status - The returned value can be: FLASH_BUSY, FLASH_ERROR_PG,
 675:Drivers/src/ch32v20x_flash.c ****  *        FLASH_ERROR_WRP or FLASH_COMPLETE.
 676:Drivers/src/ch32v20x_flash.c ****  */
 677:Drivers/src/ch32v20x_flash.c **** FLASH_Status FLASH_GetStatus(void)
 678:Drivers/src/ch32v20x_flash.c **** {
 1874              		.loc 1 678 1
 1875              		.cfi_startproc
 1876 0000 0111     		addi	sp,sp,-32
 1877              		.cfi_def_cfa_offset 32
 1878 0002 22CE     		sw	s0,28(sp)
 1879              		.cfi_offset 8, -4
 1880 0004 0010     		addi	s0,sp,32
 1881              		.cfi_def_cfa 8, 0
 679:Drivers/src/ch32v20x_flash.c ****     FLASH_Status flashstatus = FLASH_COMPLETE;
 1882              		.loc 1 679 18
 1883 0006 9147     		li	a5,4
 1884 0008 2326F4FE 		sw	a5,-20(s0)
 680:Drivers/src/ch32v20x_flash.c **** 
 681:Drivers/src/ch32v20x_flash.c ****     if((FLASH->STATR & FLASH_FLAG_BSY) == FLASH_FLAG_BSY)
GAS LISTING C:\Users\SOLDER~1\AppData\Local\Temp\ccKV8tJ7.s 			page 46


 1885              		.loc 1 681 14
 1886 000c B7270240 		li	a5,1073881088
 1887 0010 DC47     		lw	a5,12(a5)
 1888              		.loc 1 681 22
 1889 0012 13F71700 		andi	a4,a5,1
 1890              		.loc 1 681 7
 1891 0016 8547     		li	a5,1
 1892 0018 6316F700 		bne	a4,a5,.L88
 682:Drivers/src/ch32v20x_flash.c ****     {
 683:Drivers/src/ch32v20x_flash.c ****         flashstatus = FLASH_BUSY;
 1893              		.loc 1 683 21
 1894 001c 8547     		li	a5,1
 1895 001e 2326F4FE 		sw	a5,-20(s0)
 1896 0022 29A8     		j	.L89
 1897              	.L88:
 684:Drivers/src/ch32v20x_flash.c ****     }
 685:Drivers/src/ch32v20x_flash.c ****     else
 686:Drivers/src/ch32v20x_flash.c ****     {
 687:Drivers/src/ch32v20x_flash.c ****         if((FLASH->STATR & FLASH_FLAG_WRPRTERR) != 0)
 1898              		.loc 1 687 18
 1899 0024 B7270240 		li	a5,1073881088
 1900 0028 DC47     		lw	a5,12(a5)
 1901              		.loc 1 687 26
 1902 002a C18B     		andi	a5,a5,16
 1903              		.loc 1 687 11
 1904 002c 89C7     		beq	a5,zero,.L90
 688:Drivers/src/ch32v20x_flash.c ****         {
 689:Drivers/src/ch32v20x_flash.c ****             flashstatus = FLASH_ERROR_WRP;
 1905              		.loc 1 689 25
 1906 002e 8D47     		li	a5,3
 1907 0030 2326F4FE 		sw	a5,-20(s0)
 1908 0034 21A0     		j	.L89
 1909              	.L90:
 690:Drivers/src/ch32v20x_flash.c ****         }
 691:Drivers/src/ch32v20x_flash.c ****         else
 692:Drivers/src/ch32v20x_flash.c ****         {
 693:Drivers/src/ch32v20x_flash.c ****             flashstatus = FLASH_COMPLETE;
 1910              		.loc 1 693 25
 1911 0036 9147     		li	a5,4
 1912 0038 2326F4FE 		sw	a5,-20(s0)
 1913              	.L89:
 694:Drivers/src/ch32v20x_flash.c ****         }
 695:Drivers/src/ch32v20x_flash.c ****     }
 696:Drivers/src/ch32v20x_flash.c ****     return flashstatus;
 1914              		.loc 1 696 12
 1915 003c 8327C4FE 		lw	a5,-20(s0)
 697:Drivers/src/ch32v20x_flash.c **** }
 1916              		.loc 1 697 1
 1917 0040 3E85     		mv	a0,a5
 1918 0042 7244     		lw	s0,28(sp)
 1919              		.cfi_restore 8
 1920              		.cfi_def_cfa 2, 32
 1921 0044 0561     		addi	sp,sp,32
 1922              		.cfi_def_cfa_offset 0
 1923 0046 8280     		jr	ra
 1924              		.cfi_endproc
 1925              	.LFE36:
GAS LISTING C:\Users\SOLDER~1\AppData\Local\Temp\ccKV8tJ7.s 			page 47


 1927              		.section	.text.FLASH_GetBank1Status,"ax",@progbits
 1928              		.align	1
 1929              		.globl	FLASH_GetBank1Status
 1931              	FLASH_GetBank1Status:
 1932              	.LFB37:
 698:Drivers/src/ch32v20x_flash.c **** 
 699:Drivers/src/ch32v20x_flash.c **** /*********************************************************************
 700:Drivers/src/ch32v20x_flash.c ****  * @fn      FLASH_GetBank1Status
 701:Drivers/src/ch32v20x_flash.c ****  *
 702:Drivers/src/ch32v20x_flash.c ****  * @brief   Returns the FLASH Bank1 Status.
 703:Drivers/src/ch32v20x_flash.c ****  *
 704:Drivers/src/ch32v20x_flash.c ****  * @return  FLASH Status - The returned value can be: FLASH_BUSY, FLASH_ERROR_PG,
 705:Drivers/src/ch32v20x_flash.c ****  *        FLASH_ERROR_WRP or FLASH_COMPLETE.
 706:Drivers/src/ch32v20x_flash.c ****  */
 707:Drivers/src/ch32v20x_flash.c **** FLASH_Status FLASH_GetBank1Status(void)
 708:Drivers/src/ch32v20x_flash.c **** {
 1933              		.loc 1 708 1
 1934              		.cfi_startproc
 1935 0000 0111     		addi	sp,sp,-32
 1936              		.cfi_def_cfa_offset 32
 1937 0002 22CE     		sw	s0,28(sp)
 1938              		.cfi_offset 8, -4
 1939 0004 0010     		addi	s0,sp,32
 1940              		.cfi_def_cfa 8, 0
 709:Drivers/src/ch32v20x_flash.c ****     FLASH_Status flashstatus = FLASH_COMPLETE;
 1941              		.loc 1 709 18
 1942 0006 9147     		li	a5,4
 1943 0008 2326F4FE 		sw	a5,-20(s0)
 710:Drivers/src/ch32v20x_flash.c **** 
 711:Drivers/src/ch32v20x_flash.c ****     if((FLASH->STATR & FLASH_FLAG_BANK1_BSY) == FLASH_FLAG_BSY)
 1944              		.loc 1 711 14
 1945 000c B7270240 		li	a5,1073881088
 1946 0010 DC47     		lw	a5,12(a5)
 1947              		.loc 1 711 22
 1948 0012 13F71700 		andi	a4,a5,1
 1949              		.loc 1 711 7
 1950 0016 8547     		li	a5,1
 1951 0018 6316F700 		bne	a4,a5,.L93
 712:Drivers/src/ch32v20x_flash.c ****     {
 713:Drivers/src/ch32v20x_flash.c ****         flashstatus = FLASH_BUSY;
 1952              		.loc 1 713 21
 1953 001c 8547     		li	a5,1
 1954 001e 2326F4FE 		sw	a5,-20(s0)
 1955 0022 29A8     		j	.L94
 1956              	.L93:
 714:Drivers/src/ch32v20x_flash.c ****     }
 715:Drivers/src/ch32v20x_flash.c ****     else
 716:Drivers/src/ch32v20x_flash.c ****     {
 717:Drivers/src/ch32v20x_flash.c ****         if((FLASH->STATR & FLASH_FLAG_BANK1_WRPRTERR) != 0)
 1957              		.loc 1 717 18
 1958 0024 B7270240 		li	a5,1073881088
 1959 0028 DC47     		lw	a5,12(a5)
 1960              		.loc 1 717 26
 1961 002a C18B     		andi	a5,a5,16
 1962              		.loc 1 717 11
 1963 002c 89C7     		beq	a5,zero,.L95
 718:Drivers/src/ch32v20x_flash.c ****         {
GAS LISTING C:\Users\SOLDER~1\AppData\Local\Temp\ccKV8tJ7.s 			page 48


 719:Drivers/src/ch32v20x_flash.c ****             flashstatus = FLASH_ERROR_WRP;
 1964              		.loc 1 719 25
 1965 002e 8D47     		li	a5,3
 1966 0030 2326F4FE 		sw	a5,-20(s0)
 1967 0034 21A0     		j	.L94
 1968              	.L95:
 720:Drivers/src/ch32v20x_flash.c ****         }
 721:Drivers/src/ch32v20x_flash.c ****         else
 722:Drivers/src/ch32v20x_flash.c ****         {
 723:Drivers/src/ch32v20x_flash.c ****             flashstatus = FLASH_COMPLETE;
 1969              		.loc 1 723 25
 1970 0036 9147     		li	a5,4
 1971 0038 2326F4FE 		sw	a5,-20(s0)
 1972              	.L94:
 724:Drivers/src/ch32v20x_flash.c ****         }
 725:Drivers/src/ch32v20x_flash.c ****     }
 726:Drivers/src/ch32v20x_flash.c ****     return flashstatus;
 1973              		.loc 1 726 12
 1974 003c 8327C4FE 		lw	a5,-20(s0)
 727:Drivers/src/ch32v20x_flash.c **** }
 1975              		.loc 1 727 1
 1976 0040 3E85     		mv	a0,a5
 1977 0042 7244     		lw	s0,28(sp)
 1978              		.cfi_restore 8
 1979              		.cfi_def_cfa 2, 32
 1980 0044 0561     		addi	sp,sp,32
 1981              		.cfi_def_cfa_offset 0
 1982 0046 8280     		jr	ra
 1983              		.cfi_endproc
 1984              	.LFE37:
 1986              		.section	.text.FLASH_WaitForLastOperation,"ax",@progbits
 1987              		.align	1
 1988              		.globl	FLASH_WaitForLastOperation
 1990              	FLASH_WaitForLastOperation:
 1991              	.LFB38:
 728:Drivers/src/ch32v20x_flash.c **** 
 729:Drivers/src/ch32v20x_flash.c **** /*********************************************************************
 730:Drivers/src/ch32v20x_flash.c ****  * @fn      FLASH_WaitForLastOperation
 731:Drivers/src/ch32v20x_flash.c ****  *
 732:Drivers/src/ch32v20x_flash.c ****  * @brief   Waits for a Flash operation to complete or a TIMEOUT to occur.
 733:Drivers/src/ch32v20x_flash.c ****  *
 734:Drivers/src/ch32v20x_flash.c ****  * @param   Timeout - FLASH programming Timeout
 735:Drivers/src/ch32v20x_flash.c ****  *
 736:Drivers/src/ch32v20x_flash.c ****  * @return  FLASH Status - The returned value can be: FLASH_BUSY, FLASH_ERROR_PG,
 737:Drivers/src/ch32v20x_flash.c ****  *        FLASH_ERROR_WRP or FLASH_COMPLETE.
 738:Drivers/src/ch32v20x_flash.c ****  */
 739:Drivers/src/ch32v20x_flash.c **** FLASH_Status FLASH_WaitForLastOperation(uint32_t Timeout)
 740:Drivers/src/ch32v20x_flash.c **** {
 1992              		.loc 1 740 1
 1993              		.cfi_startproc
 1994 0000 7971     		addi	sp,sp,-48
 1995              		.cfi_def_cfa_offset 48
 1996 0002 06D6     		sw	ra,44(sp)
 1997 0004 22D4     		sw	s0,40(sp)
 1998              		.cfi_offset 1, -4
 1999              		.cfi_offset 8, -8
 2000 0006 0018     		addi	s0,sp,48
GAS LISTING C:\Users\SOLDER~1\AppData\Local\Temp\ccKV8tJ7.s 			page 49


 2001              		.cfi_def_cfa 8, 0
 2002 0008 232EA4FC 		sw	a0,-36(s0)
 741:Drivers/src/ch32v20x_flash.c ****     FLASH_Status status = FLASH_COMPLETE;
 2003              		.loc 1 741 18
 2004 000c 9147     		li	a5,4
 2005 000e 2326F4FE 		sw	a5,-20(s0)
 742:Drivers/src/ch32v20x_flash.c **** 
 743:Drivers/src/ch32v20x_flash.c ****     status = FLASH_GetBank1Status();
 2006              		.loc 1 743 14
 2007 0012 97000000 		call	FLASH_GetBank1Status
 2007      E7800000 
 2008 001a 2326A4FE 		sw	a0,-20(s0)
 744:Drivers/src/ch32v20x_flash.c ****     while((status == FLASH_BUSY) && (Timeout != 0x00))
 2009              		.loc 1 744 10
 2010 001e 21A8     		j	.L98
 2011              	.L100:
 745:Drivers/src/ch32v20x_flash.c ****     {
 746:Drivers/src/ch32v20x_flash.c ****         status = FLASH_GetBank1Status();
 2012              		.loc 1 746 18
 2013 0020 97000000 		call	FLASH_GetBank1Status
 2013      E7800000 
 2014 0028 2326A4FE 		sw	a0,-20(s0)
 747:Drivers/src/ch32v20x_flash.c ****         Timeout--;
 2015              		.loc 1 747 16
 2016 002c 8327C4FD 		lw	a5,-36(s0)
 2017 0030 FD17     		addi	a5,a5,-1
 2018 0032 232EF4FC 		sw	a5,-36(s0)
 2019              	.L98:
 744:Drivers/src/ch32v20x_flash.c ****     while((status == FLASH_BUSY) && (Timeout != 0x00))
 2020              		.loc 1 744 34
 2021 0036 0327C4FE 		lw	a4,-20(s0)
 2022 003a 8547     		li	a5,1
 2023 003c 6315F700 		bne	a4,a5,.L99
 744:Drivers/src/ch32v20x_flash.c ****     while((status == FLASH_BUSY) && (Timeout != 0x00))
 2024              		.loc 1 744 34 is_stmt 0 discriminator 1
 2025 0040 8327C4FD 		lw	a5,-36(s0)
 2026 0044 F1FF     		bne	a5,zero,.L100
 2027              	.L99:
 748:Drivers/src/ch32v20x_flash.c ****     }
 749:Drivers/src/ch32v20x_flash.c ****     if(Timeout == 0x00)
 2028              		.loc 1 749 7 is_stmt 1
 2029 0046 8327C4FD 		lw	a5,-36(s0)
 2030 004a 81E7     		bne	a5,zero,.L101
 750:Drivers/src/ch32v20x_flash.c ****     {
 751:Drivers/src/ch32v20x_flash.c ****         status = FLASH_TIMEOUT;
 2031              		.loc 1 751 16
 2032 004c 9547     		li	a5,5
 2033 004e 2326F4FE 		sw	a5,-20(s0)
 2034              	.L101:
 752:Drivers/src/ch32v20x_flash.c ****     }
 753:Drivers/src/ch32v20x_flash.c ****     return status;
 2035              		.loc 1 753 12
 2036 0052 8327C4FE 		lw	a5,-20(s0)
 754:Drivers/src/ch32v20x_flash.c **** }
 2037              		.loc 1 754 1
 2038 0056 3E85     		mv	a0,a5
 2039 0058 B250     		lw	ra,44(sp)
GAS LISTING C:\Users\SOLDER~1\AppData\Local\Temp\ccKV8tJ7.s 			page 50


 2040              		.cfi_restore 1
 2041 005a 2254     		lw	s0,40(sp)
 2042              		.cfi_restore 8
 2043              		.cfi_def_cfa 2, 48
 2044 005c 4561     		addi	sp,sp,48
 2045              		.cfi_def_cfa_offset 0
 2046 005e 8280     		jr	ra
 2047              		.cfi_endproc
 2048              	.LFE38:
 2050              		.section	.text.FLASH_WaitForLastBank1Operation,"ax",@progbits
 2051              		.align	1
 2052              		.globl	FLASH_WaitForLastBank1Operation
 2054              	FLASH_WaitForLastBank1Operation:
 2055              	.LFB39:
 755:Drivers/src/ch32v20x_flash.c **** 
 756:Drivers/src/ch32v20x_flash.c **** /*********************************************************************
 757:Drivers/src/ch32v20x_flash.c ****  * @fn      FLASH_WaitForLastBank1Operation
 758:Drivers/src/ch32v20x_flash.c ****  *
 759:Drivers/src/ch32v20x_flash.c ****  * @brief   Waits for a Flash operation on Bank1 to complete or a TIMEOUT to occur.
 760:Drivers/src/ch32v20x_flash.c ****  *
 761:Drivers/src/ch32v20x_flash.c ****  * @param   Timeout - FLASH programming Timeout
 762:Drivers/src/ch32v20x_flash.c ****  *
 763:Drivers/src/ch32v20x_flash.c ****  * @return  FLASH Status - The returned value can be: FLASH_BUSY, FLASH_ERROR_PG,
 764:Drivers/src/ch32v20x_flash.c ****  *        FLASH_ERROR_WRP or FLASH_COMPLETE.
 765:Drivers/src/ch32v20x_flash.c ****  */
 766:Drivers/src/ch32v20x_flash.c **** FLASH_Status FLASH_WaitForLastBank1Operation(uint32_t Timeout)
 767:Drivers/src/ch32v20x_flash.c **** {
 2056              		.loc 1 767 1
 2057              		.cfi_startproc
 2058 0000 7971     		addi	sp,sp,-48
 2059              		.cfi_def_cfa_offset 48
 2060 0002 06D6     		sw	ra,44(sp)
 2061 0004 22D4     		sw	s0,40(sp)
 2062              		.cfi_offset 1, -4
 2063              		.cfi_offset 8, -8
 2064 0006 0018     		addi	s0,sp,48
 2065              		.cfi_def_cfa 8, 0
 2066 0008 232EA4FC 		sw	a0,-36(s0)
 768:Drivers/src/ch32v20x_flash.c ****     FLASH_Status status = FLASH_COMPLETE;
 2067              		.loc 1 768 18
 2068 000c 9147     		li	a5,4
 2069 000e 2326F4FE 		sw	a5,-20(s0)
 769:Drivers/src/ch32v20x_flash.c **** 
 770:Drivers/src/ch32v20x_flash.c ****     status = FLASH_GetBank1Status();
 2070              		.loc 1 770 14
 2071 0012 97000000 		call	FLASH_GetBank1Status
 2071      E7800000 
 2072 001a 2326A4FE 		sw	a0,-20(s0)
 771:Drivers/src/ch32v20x_flash.c ****     while((status == FLASH_FLAG_BANK1_BSY) && (Timeout != 0x00))
 2073              		.loc 1 771 10
 2074 001e 21A8     		j	.L104
 2075              	.L106:
 772:Drivers/src/ch32v20x_flash.c ****     {
 773:Drivers/src/ch32v20x_flash.c ****         status = FLASH_GetBank1Status();
 2076              		.loc 1 773 18
 2077 0020 97000000 		call	FLASH_GetBank1Status
 2077      E7800000 
GAS LISTING C:\Users\SOLDER~1\AppData\Local\Temp\ccKV8tJ7.s 			page 51


 2078 0028 2326A4FE 		sw	a0,-20(s0)
 774:Drivers/src/ch32v20x_flash.c ****         Timeout--;
 2079              		.loc 1 774 16
 2080 002c 8327C4FD 		lw	a5,-36(s0)
 2081 0030 FD17     		addi	a5,a5,-1
 2082 0032 232EF4FC 		sw	a5,-36(s0)
 2083              	.L104:
 771:Drivers/src/ch32v20x_flash.c ****     while((status == FLASH_FLAG_BANK1_BSY) && (Timeout != 0x00))
 2084              		.loc 1 771 44
 2085 0036 0327C4FE 		lw	a4,-20(s0)
 2086 003a 8547     		li	a5,1
 2087 003c 6315F700 		bne	a4,a5,.L105
 771:Drivers/src/ch32v20x_flash.c ****     while((status == FLASH_FLAG_BANK1_BSY) && (Timeout != 0x00))
 2088              		.loc 1 771 44 is_stmt 0 discriminator 1
 2089 0040 8327C4FD 		lw	a5,-36(s0)
 2090 0044 F1FF     		bne	a5,zero,.L106
 2091              	.L105:
 775:Drivers/src/ch32v20x_flash.c ****     }
 776:Drivers/src/ch32v20x_flash.c ****     if(Timeout == 0x00)
 2092              		.loc 1 776 7 is_stmt 1
 2093 0046 8327C4FD 		lw	a5,-36(s0)
 2094 004a 81E7     		bne	a5,zero,.L107
 777:Drivers/src/ch32v20x_flash.c ****     {
 778:Drivers/src/ch32v20x_flash.c ****         status = FLASH_TIMEOUT;
 2095              		.loc 1 778 16
 2096 004c 9547     		li	a5,5
 2097 004e 2326F4FE 		sw	a5,-20(s0)
 2098              	.L107:
 779:Drivers/src/ch32v20x_flash.c ****     }
 780:Drivers/src/ch32v20x_flash.c ****     return status;
 2099              		.loc 1 780 12
 2100 0052 8327C4FE 		lw	a5,-20(s0)
 781:Drivers/src/ch32v20x_flash.c **** }
 2101              		.loc 1 781 1
 2102 0056 3E85     		mv	a0,a5
 2103 0058 B250     		lw	ra,44(sp)
 2104              		.cfi_restore 1
 2105 005a 2254     		lw	s0,40(sp)
 2106              		.cfi_restore 8
 2107              		.cfi_def_cfa 2, 48
 2108 005c 4561     		addi	sp,sp,48
 2109              		.cfi_def_cfa_offset 0
 2110 005e 8280     		jr	ra
 2111              		.cfi_endproc
 2112              	.LFE39:
 2114              		.section	.text.FLASH_Unlock_Fast,"ax",@progbits
 2115              		.align	1
 2116              		.globl	FLASH_Unlock_Fast
 2118              	FLASH_Unlock_Fast:
 2119              	.LFB40:
 782:Drivers/src/ch32v20x_flash.c **** 
 783:Drivers/src/ch32v20x_flash.c **** /*********************************************************************
 784:Drivers/src/ch32v20x_flash.c ****  * @fn      FLASH_Unlock_Fast
 785:Drivers/src/ch32v20x_flash.c ****  *
 786:Drivers/src/ch32v20x_flash.c ****  * @brief   Unlocks the Fast Program Erase Mode.
 787:Drivers/src/ch32v20x_flash.c ****  *
 788:Drivers/src/ch32v20x_flash.c ****  * @return  none
GAS LISTING C:\Users\SOLDER~1\AppData\Local\Temp\ccKV8tJ7.s 			page 52


 789:Drivers/src/ch32v20x_flash.c ****  */
 790:Drivers/src/ch32v20x_flash.c **** void FLASH_Unlock_Fast(void)
 791:Drivers/src/ch32v20x_flash.c **** {
 2120              		.loc 1 791 1
 2121              		.cfi_startproc
 2122 0000 4111     		addi	sp,sp,-16
 2123              		.cfi_def_cfa_offset 16
 2124 0002 22C6     		sw	s0,12(sp)
 2125              		.cfi_offset 8, -4
 2126 0004 0008     		addi	s0,sp,16
 2127              		.cfi_def_cfa 8, 0
 792:Drivers/src/ch32v20x_flash.c ****     /* Authorize the FPEC of Bank1 Access */
 793:Drivers/src/ch32v20x_flash.c ****     FLASH->KEYR = FLASH_KEY1;
 2128              		.loc 1 793 10
 2129 0006 B7270240 		li	a5,1073881088
 2130              		.loc 1 793 17
 2131 000a 37076745 		li	a4,1164378112
 2132 000e 13073712 		addi	a4,a4,291
 2133 0012 D8C3     		sw	a4,4(a5)
 794:Drivers/src/ch32v20x_flash.c ****     FLASH->KEYR = FLASH_KEY2;
 2134              		.loc 1 794 10
 2135 0014 B7270240 		li	a5,1073881088
 2136              		.loc 1 794 17
 2137 0018 3797EFCD 		li	a4,-839938048
 2138 001c 1307B79A 		addi	a4,a4,-1621
 2139 0020 D8C3     		sw	a4,4(a5)
 795:Drivers/src/ch32v20x_flash.c **** 
 796:Drivers/src/ch32v20x_flash.c ****     /* Fast program mode unlock */
 797:Drivers/src/ch32v20x_flash.c ****     FLASH->MODEKEYR = FLASH_KEY1;
 2140              		.loc 1 797 10
 2141 0022 B7270240 		li	a5,1073881088
 2142              		.loc 1 797 21
 2143 0026 37076745 		li	a4,1164378112
 2144 002a 13073712 		addi	a4,a4,291
 2145 002e D8D3     		sw	a4,36(a5)
 798:Drivers/src/ch32v20x_flash.c ****     FLASH->MODEKEYR = FLASH_KEY2;
 2146              		.loc 1 798 10
 2147 0030 B7270240 		li	a5,1073881088
 2148              		.loc 1 798 21
 2149 0034 3797EFCD 		li	a4,-839938048
 2150 0038 1307B79A 		addi	a4,a4,-1621
 2151 003c D8D3     		sw	a4,36(a5)
 799:Drivers/src/ch32v20x_flash.c **** }
 2152              		.loc 1 799 1
 2153 003e 0100     		nop
 2154 0040 3244     		lw	s0,12(sp)
 2155              		.cfi_restore 8
 2156              		.cfi_def_cfa 2, 16
 2157 0042 4101     		addi	sp,sp,16
 2158              		.cfi_def_cfa_offset 0
 2159 0044 8280     		jr	ra
 2160              		.cfi_endproc
 2161              	.LFE40:
 2163              		.section	.text.FLASH_Lock_Fast,"ax",@progbits
 2164              		.align	1
 2165              		.globl	FLASH_Lock_Fast
 2167              	FLASH_Lock_Fast:
GAS LISTING C:\Users\SOLDER~1\AppData\Local\Temp\ccKV8tJ7.s 			page 53


 2168              	.LFB41:
 800:Drivers/src/ch32v20x_flash.c **** 
 801:Drivers/src/ch32v20x_flash.c **** /*********************************************************************
 802:Drivers/src/ch32v20x_flash.c ****  * @fn      FLASH_Lock_Fast
 803:Drivers/src/ch32v20x_flash.c ****  *
 804:Drivers/src/ch32v20x_flash.c ****  * @brief   Locks the Fast Program Erase Mode.
 805:Drivers/src/ch32v20x_flash.c ****  *
 806:Drivers/src/ch32v20x_flash.c ****  * @return  none
 807:Drivers/src/ch32v20x_flash.c ****  */
 808:Drivers/src/ch32v20x_flash.c **** void FLASH_Lock_Fast(void)
 809:Drivers/src/ch32v20x_flash.c **** {
 2169              		.loc 1 809 1
 2170              		.cfi_startproc
 2171 0000 4111     		addi	sp,sp,-16
 2172              		.cfi_def_cfa_offset 16
 2173 0002 22C6     		sw	s0,12(sp)
 2174              		.cfi_offset 8, -4
 2175 0004 0008     		addi	s0,sp,16
 2176              		.cfi_def_cfa 8, 0
 810:Drivers/src/ch32v20x_flash.c ****     FLASH->CTLR |= CR_FAST_LOCK_Set;
 2177              		.loc 1 810 10
 2178 0006 B7270240 		li	a5,1073881088
 2179 000a 944B     		lw	a3,16(a5)
 2180 000c B7270240 		li	a5,1073881088
 2181              		.loc 1 810 17
 2182 0010 2167     		li	a4,32768
 2183 0012 558F     		or	a4,a3,a4
 2184 0014 98CB     		sw	a4,16(a5)
 811:Drivers/src/ch32v20x_flash.c **** }
 2185              		.loc 1 811 1
 2186 0016 0100     		nop
 2187 0018 3244     		lw	s0,12(sp)
 2188              		.cfi_restore 8
 2189              		.cfi_def_cfa 2, 16
 2190 001a 4101     		addi	sp,sp,16
 2191              		.cfi_def_cfa_offset 0
 2192 001c 8280     		jr	ra
 2193              		.cfi_endproc
 2194              	.LFE41:
 2196              		.section	.text.FLASH_ErasePage_Fast,"ax",@progbits
 2197              		.align	1
 2198              		.globl	FLASH_ErasePage_Fast
 2200              	FLASH_ErasePage_Fast:
 2201              	.LFB42:
 812:Drivers/src/ch32v20x_flash.c **** 
 813:Drivers/src/ch32v20x_flash.c **** /*********************************************************************
 814:Drivers/src/ch32v20x_flash.c ****  * @fn      FLASH_ErasePage_Fast
 815:Drivers/src/ch32v20x_flash.c ****  *
 816:Drivers/src/ch32v20x_flash.c ****  * @brief   Erases a specified FLASH page (1page = 256Byte).
 817:Drivers/src/ch32v20x_flash.c ****  *
 818:Drivers/src/ch32v20x_flash.c ****  * @param   Page_Address - The page address to be erased.
 819:Drivers/src/ch32v20x_flash.c ****  *
 820:Drivers/src/ch32v20x_flash.c ****  * @return  none
 821:Drivers/src/ch32v20x_flash.c ****  */
 822:Drivers/src/ch32v20x_flash.c **** void FLASH_ErasePage_Fast(uint32_t Page_Address)
 823:Drivers/src/ch32v20x_flash.c **** {
 2202              		.loc 1 823 1
GAS LISTING C:\Users\SOLDER~1\AppData\Local\Temp\ccKV8tJ7.s 			page 54


 2203              		.cfi_startproc
 2204 0000 0111     		addi	sp,sp,-32
 2205              		.cfi_def_cfa_offset 32
 2206 0002 22CE     		sw	s0,28(sp)
 2207              		.cfi_offset 8, -4
 2208 0004 0010     		addi	s0,sp,32
 2209              		.cfi_def_cfa 8, 0
 2210 0006 2326A4FE 		sw	a0,-20(s0)
 824:Drivers/src/ch32v20x_flash.c ****     Page_Address &= 0xFFFFFF00;
 2211              		.loc 1 824 18
 2212 000a 8327C4FE 		lw	a5,-20(s0)
 2213 000e 93F707F0 		andi	a5,a5,-256
 2214 0012 2326F4FE 		sw	a5,-20(s0)
 825:Drivers/src/ch32v20x_flash.c **** 
 826:Drivers/src/ch32v20x_flash.c ****     FLASH->CTLR |= CR_PAGE_ER;
 2215              		.loc 1 826 10
 2216 0016 B7270240 		li	a5,1073881088
 2217 001a 944B     		lw	a3,16(a5)
 2218 001c B7270240 		li	a5,1073881088
 2219              		.loc 1 826 17
 2220 0020 37070200 		li	a4,131072
 2221 0024 558F     		or	a4,a3,a4
 2222 0026 98CB     		sw	a4,16(a5)
 827:Drivers/src/ch32v20x_flash.c ****     FLASH->ADDR = Page_Address;
 2223              		.loc 1 827 10
 2224 0028 B7270240 		li	a5,1073881088
 2225              		.loc 1 827 17
 2226 002c 0327C4FE 		lw	a4,-20(s0)
 2227 0030 D8CB     		sw	a4,20(a5)
 828:Drivers/src/ch32v20x_flash.c ****     FLASH->CTLR |= CR_STRT_Set;
 2228              		.loc 1 828 10
 2229 0032 B7270240 		li	a5,1073881088
 2230 0036 984B     		lw	a4,16(a5)
 2231 0038 B7270240 		li	a5,1073881088
 2232              		.loc 1 828 17
 2233 003c 13670704 		ori	a4,a4,64
 2234 0040 98CB     		sw	a4,16(a5)
 829:Drivers/src/ch32v20x_flash.c ****     while(FLASH->STATR & SR_BSY);
 2235              		.loc 1 829 10
 2236 0042 0100     		nop
 2237              	.L112:
 2238              		.loc 1 829 16 discriminator 1
 2239 0044 B7270240 		li	a5,1073881088
 2240 0048 DC47     		lw	a5,12(a5)
 2241              		.loc 1 829 24 discriminator 1
 2242 004a 858B     		andi	a5,a5,1
 2243              		.loc 1 829 11 discriminator 1
 2244 004c E5FF     		bne	a5,zero,.L112
 830:Drivers/src/ch32v20x_flash.c ****     FLASH->CTLR &= ~CR_PAGE_ER;
 2245              		.loc 1 830 10
 2246 004e B7270240 		li	a5,1073881088
 2247 0052 944B     		lw	a3,16(a5)
 2248 0054 B7270240 		li	a5,1073881088
 2249              		.loc 1 830 17
 2250 0058 0177     		li	a4,-131072
 2251 005a 7D17     		addi	a4,a4,-1
 2252 005c 758F     		and	a4,a3,a4
GAS LISTING C:\Users\SOLDER~1\AppData\Local\Temp\ccKV8tJ7.s 			page 55


 2253 005e 98CB     		sw	a4,16(a5)
 831:Drivers/src/ch32v20x_flash.c **** }
 2254              		.loc 1 831 1
 2255 0060 0100     		nop
 2256 0062 7244     		lw	s0,28(sp)
 2257              		.cfi_restore 8
 2258              		.cfi_def_cfa 2, 32
 2259 0064 0561     		addi	sp,sp,32
 2260              		.cfi_def_cfa_offset 0
 2261 0066 8280     		jr	ra
 2262              		.cfi_endproc
 2263              	.LFE42:
 2265              		.section	.text.FLASH_EraseBlock_32K_Fast,"ax",@progbits
 2266              		.align	1
 2267              		.globl	FLASH_EraseBlock_32K_Fast
 2269              	FLASH_EraseBlock_32K_Fast:
 2270              	.LFB43:
 832:Drivers/src/ch32v20x_flash.c **** 
 833:Drivers/src/ch32v20x_flash.c **** /*********************************************************************
 834:Drivers/src/ch32v20x_flash.c ****  * @fn      FLASH_EraseBlock_32K_Fast
 835:Drivers/src/ch32v20x_flash.c ****  *
 836:Drivers/src/ch32v20x_flash.c ****  * @brief   Erases a specified FLASH Block (1Block = 32KByte).
 837:Drivers/src/ch32v20x_flash.c ****  *
 838:Drivers/src/ch32v20x_flash.c ****  * @param   Block_Address - The block address to be erased.
 839:Drivers/src/ch32v20x_flash.c ****  *
 840:Drivers/src/ch32v20x_flash.c ****  * @return  none
 841:Drivers/src/ch32v20x_flash.c ****  */
 842:Drivers/src/ch32v20x_flash.c **** void FLASH_EraseBlock_32K_Fast(uint32_t Block_Address)
 843:Drivers/src/ch32v20x_flash.c **** {
 2271              		.loc 1 843 1
 2272              		.cfi_startproc
 2273 0000 0111     		addi	sp,sp,-32
 2274              		.cfi_def_cfa_offset 32
 2275 0002 22CE     		sw	s0,28(sp)
 2276              		.cfi_offset 8, -4
 2277 0004 0010     		addi	s0,sp,32
 2278              		.cfi_def_cfa 8, 0
 2279 0006 2326A4FE 		sw	a0,-20(s0)
 844:Drivers/src/ch32v20x_flash.c ****     Block_Address &= 0xFFFF8000;
 2280              		.loc 1 844 19
 2281 000a 0327C4FE 		lw	a4,-20(s0)
 2282 000e E177     		li	a5,-32768
 2283 0010 F98F     		and	a5,a4,a5
 2284 0012 2326F4FE 		sw	a5,-20(s0)
 845:Drivers/src/ch32v20x_flash.c **** 
 846:Drivers/src/ch32v20x_flash.c ****     FLASH->CTLR |= CR_BER32;
 2285              		.loc 1 846 10
 2286 0016 B7270240 		li	a5,1073881088
 2287 001a 944B     		lw	a3,16(a5)
 2288 001c B7270240 		li	a5,1073881088
 2289              		.loc 1 846 17
 2290 0020 37070400 		li	a4,262144
 2291 0024 558F     		or	a4,a3,a4
 2292 0026 98CB     		sw	a4,16(a5)
 847:Drivers/src/ch32v20x_flash.c ****     FLASH->ADDR = Block_Address;
 2293              		.loc 1 847 10
 2294 0028 B7270240 		li	a5,1073881088
GAS LISTING C:\Users\SOLDER~1\AppData\Local\Temp\ccKV8tJ7.s 			page 56


 2295              		.loc 1 847 17
 2296 002c 0327C4FE 		lw	a4,-20(s0)
 2297 0030 D8CB     		sw	a4,20(a5)
 848:Drivers/src/ch32v20x_flash.c ****     FLASH->CTLR |= CR_STRT_Set;
 2298              		.loc 1 848 10
 2299 0032 B7270240 		li	a5,1073881088
 2300 0036 984B     		lw	a4,16(a5)
 2301 0038 B7270240 		li	a5,1073881088
 2302              		.loc 1 848 17
 2303 003c 13670704 		ori	a4,a4,64
 2304 0040 98CB     		sw	a4,16(a5)
 849:Drivers/src/ch32v20x_flash.c ****     while(FLASH->STATR & SR_BSY);
 2305              		.loc 1 849 10
 2306 0042 0100     		nop
 2307              	.L114:
 2308              		.loc 1 849 16 discriminator 1
 2309 0044 B7270240 		li	a5,1073881088
 2310 0048 DC47     		lw	a5,12(a5)
 2311              		.loc 1 849 24 discriminator 1
 2312 004a 858B     		andi	a5,a5,1
 2313              		.loc 1 849 11 discriminator 1
 2314 004c E5FF     		bne	a5,zero,.L114
 850:Drivers/src/ch32v20x_flash.c ****     FLASH->CTLR &= ~CR_BER32;
 2315              		.loc 1 850 10
 2316 004e B7270240 		li	a5,1073881088
 2317 0052 944B     		lw	a3,16(a5)
 2318 0054 B7270240 		li	a5,1073881088
 2319              		.loc 1 850 17
 2320 0058 3707FCFF 		li	a4,-262144
 2321 005c 7D17     		addi	a4,a4,-1
 2322 005e 758F     		and	a4,a3,a4
 2323 0060 98CB     		sw	a4,16(a5)
 851:Drivers/src/ch32v20x_flash.c **** }
 2324              		.loc 1 851 1
 2325 0062 0100     		nop
 2326 0064 7244     		lw	s0,28(sp)
 2327              		.cfi_restore 8
 2328              		.cfi_def_cfa 2, 32
 2329 0066 0561     		addi	sp,sp,32
 2330              		.cfi_def_cfa_offset 0
 2331 0068 8280     		jr	ra
 2332              		.cfi_endproc
 2333              	.LFE43:
 2335              		.section	.text.FLASH_EraseBlock_64K_Fast,"ax",@progbits
 2336              		.align	1
 2337              		.globl	FLASH_EraseBlock_64K_Fast
 2339              	FLASH_EraseBlock_64K_Fast:
 2340              	.LFB44:
 852:Drivers/src/ch32v20x_flash.c **** 
 853:Drivers/src/ch32v20x_flash.c **** /*********************************************************************
 854:Drivers/src/ch32v20x_flash.c ****  * @fn      FLASH_EraseBlock_64K_Fast
 855:Drivers/src/ch32v20x_flash.c ****  *
 856:Drivers/src/ch32v20x_flash.c ****  * @brief   Erases a specified FLASH Block (1Block = 64KByte).
 857:Drivers/src/ch32v20x_flash.c ****  *
 858:Drivers/src/ch32v20x_flash.c ****  * @param   Block_Address - The block address to be erased.
 859:Drivers/src/ch32v20x_flash.c ****  *
 860:Drivers/src/ch32v20x_flash.c ****  * @return  none
GAS LISTING C:\Users\SOLDER~1\AppData\Local\Temp\ccKV8tJ7.s 			page 57


 861:Drivers/src/ch32v20x_flash.c ****  */
 862:Drivers/src/ch32v20x_flash.c **** void FLASH_EraseBlock_64K_Fast(uint32_t Block_Address)
 863:Drivers/src/ch32v20x_flash.c **** {
 2341              		.loc 1 863 1
 2342              		.cfi_startproc
 2343 0000 0111     		addi	sp,sp,-32
 2344              		.cfi_def_cfa_offset 32
 2345 0002 22CE     		sw	s0,28(sp)
 2346              		.cfi_offset 8, -4
 2347 0004 0010     		addi	s0,sp,32
 2348              		.cfi_def_cfa 8, 0
 2349 0006 2326A4FE 		sw	a0,-20(s0)
 864:Drivers/src/ch32v20x_flash.c ****     Block_Address &= 0xFFFF0000;
 2350              		.loc 1 864 19
 2351 000a 0327C4FE 		lw	a4,-20(s0)
 2352 000e C177     		li	a5,-65536
 2353 0010 F98F     		and	a5,a4,a5
 2354 0012 2326F4FE 		sw	a5,-20(s0)
 865:Drivers/src/ch32v20x_flash.c **** 
 866:Drivers/src/ch32v20x_flash.c ****     FLASH->CTLR |= CR_BER64;
 2355              		.loc 1 866 10
 2356 0016 B7270240 		li	a5,1073881088
 2357 001a 944B     		lw	a3,16(a5)
 2358 001c B7270240 		li	a5,1073881088
 2359              		.loc 1 866 17
 2360 0020 37070800 		li	a4,524288
 2361 0024 558F     		or	a4,a3,a4
 2362 0026 98CB     		sw	a4,16(a5)
 867:Drivers/src/ch32v20x_flash.c ****     FLASH->ADDR = Block_Address;
 2363              		.loc 1 867 10
 2364 0028 B7270240 		li	a5,1073881088
 2365              		.loc 1 867 17
 2366 002c 0327C4FE 		lw	a4,-20(s0)
 2367 0030 D8CB     		sw	a4,20(a5)
 868:Drivers/src/ch32v20x_flash.c ****     FLASH->CTLR |= CR_STRT_Set;
 2368              		.loc 1 868 10
 2369 0032 B7270240 		li	a5,1073881088
 2370 0036 984B     		lw	a4,16(a5)
 2371 0038 B7270240 		li	a5,1073881088
 2372              		.loc 1 868 17
 2373 003c 13670704 		ori	a4,a4,64
 2374 0040 98CB     		sw	a4,16(a5)
 869:Drivers/src/ch32v20x_flash.c ****     while(FLASH->STATR & SR_BSY);
 2375              		.loc 1 869 10
 2376 0042 0100     		nop
 2377              	.L116:
 2378              		.loc 1 869 16 discriminator 1
 2379 0044 B7270240 		li	a5,1073881088
 2380 0048 DC47     		lw	a5,12(a5)
 2381              		.loc 1 869 24 discriminator 1
 2382 004a 858B     		andi	a5,a5,1
 2383              		.loc 1 869 11 discriminator 1
 2384 004c E5FF     		bne	a5,zero,.L116
 870:Drivers/src/ch32v20x_flash.c ****     FLASH->CTLR &= ~CR_BER64;
 2385              		.loc 1 870 10
 2386 004e B7270240 		li	a5,1073881088
 2387 0052 944B     		lw	a3,16(a5)
GAS LISTING C:\Users\SOLDER~1\AppData\Local\Temp\ccKV8tJ7.s 			page 58


 2388 0054 B7270240 		li	a5,1073881088
 2389              		.loc 1 870 17
 2390 0058 3707F8FF 		li	a4,-524288
 2391 005c 7D17     		addi	a4,a4,-1
 2392 005e 758F     		and	a4,a3,a4
 2393 0060 98CB     		sw	a4,16(a5)
 871:Drivers/src/ch32v20x_flash.c **** }
 2394              		.loc 1 871 1
 2395 0062 0100     		nop
 2396 0064 7244     		lw	s0,28(sp)
 2397              		.cfi_restore 8
 2398              		.cfi_def_cfa 2, 32
 2399 0066 0561     		addi	sp,sp,32
 2400              		.cfi_def_cfa_offset 0
 2401 0068 8280     		jr	ra
 2402              		.cfi_endproc
 2403              	.LFE44:
 2405              		.section	.text.FLASH_ProgramPage_Fast,"ax",@progbits
 2406              		.align	1
 2407              		.globl	FLASH_ProgramPage_Fast
 2409              	FLASH_ProgramPage_Fast:
 2410              	.LFB45:
 872:Drivers/src/ch32v20x_flash.c **** 
 873:Drivers/src/ch32v20x_flash.c **** /*********************************************************************
 874:Drivers/src/ch32v20x_flash.c ****  * @fn      FLASH_ProgramPage_Fast
 875:Drivers/src/ch32v20x_flash.c ****  *
 876:Drivers/src/ch32v20x_flash.c ****  * @brief   Program a specified FLASH page (1page = 256Byte).
 877:Drivers/src/ch32v20x_flash.c ****  *
 878:Drivers/src/ch32v20x_flash.c ****  * @param   Page_Address - The page address to be programed.
 879:Drivers/src/ch32v20x_flash.c ****  *
 880:Drivers/src/ch32v20x_flash.c ****  * @return  none
 881:Drivers/src/ch32v20x_flash.c ****  */
 882:Drivers/src/ch32v20x_flash.c **** void FLASH_ProgramPage_Fast(uint32_t Page_Address, uint32_t *pbuf)
 883:Drivers/src/ch32v20x_flash.c **** {
 2411              		.loc 1 883 1
 2412              		.cfi_startproc
 2413 0000 7971     		addi	sp,sp,-48
 2414              		.cfi_def_cfa_offset 48
 2415 0002 22D6     		sw	s0,44(sp)
 2416              		.cfi_offset 8, -4
 2417 0004 0018     		addi	s0,sp,48
 2418              		.cfi_def_cfa 8, 0
 2419 0006 232EA4FC 		sw	a0,-36(s0)
 2420 000a 232CB4FC 		sw	a1,-40(s0)
 884:Drivers/src/ch32v20x_flash.c ****     uint8_t size = 64;
 2421              		.loc 1 884 13
 2422 000e 93070004 		li	a5,64
 2423 0012 A307F4FE 		sb	a5,-17(s0)
 885:Drivers/src/ch32v20x_flash.c **** 
 886:Drivers/src/ch32v20x_flash.c ****     Page_Address &= 0xFFFFFF00;
 2424              		.loc 1 886 18
 2425 0016 8327C4FD 		lw	a5,-36(s0)
 2426 001a 93F707F0 		andi	a5,a5,-256
 2427 001e 232EF4FC 		sw	a5,-36(s0)
 887:Drivers/src/ch32v20x_flash.c **** 
 888:Drivers/src/ch32v20x_flash.c ****     FLASH->CTLR |= CR_PAGE_PG;
 2428              		.loc 1 888 10
GAS LISTING C:\Users\SOLDER~1\AppData\Local\Temp\ccKV8tJ7.s 			page 59


 2429 0022 B7270240 		li	a5,1073881088
 2430 0026 944B     		lw	a3,16(a5)
 2431 0028 B7270240 		li	a5,1073881088
 2432              		.loc 1 888 17
 2433 002c 4167     		li	a4,65536
 2434 002e 558F     		or	a4,a3,a4
 2435 0030 98CB     		sw	a4,16(a5)
 889:Drivers/src/ch32v20x_flash.c ****     while(FLASH->STATR & SR_BSY);
 2436              		.loc 1 889 10
 2437 0032 0100     		nop
 2438              	.L118:
 2439              		.loc 1 889 16 discriminator 1
 2440 0034 B7270240 		li	a5,1073881088
 2441 0038 DC47     		lw	a5,12(a5)
 2442              		.loc 1 889 24 discriminator 1
 2443 003a 858B     		andi	a5,a5,1
 2444              		.loc 1 889 11 discriminator 1
 2445 003c E5FF     		bne	a5,zero,.L118
 890:Drivers/src/ch32v20x_flash.c ****     while(FLASH->STATR & SR_WR_BSY);
 2446              		.loc 1 890 10
 2447 003e 0100     		nop
 2448              	.L119:
 2449              		.loc 1 890 16 discriminator 1
 2450 0040 B7270240 		li	a5,1073881088
 2451 0044 DC47     		lw	a5,12(a5)
 2452              		.loc 1 890 24 discriminator 1
 2453 0046 898B     		andi	a5,a5,2
 2454              		.loc 1 890 11 discriminator 1
 2455 0048 E5FF     		bne	a5,zero,.L119
 891:Drivers/src/ch32v20x_flash.c **** 
 892:Drivers/src/ch32v20x_flash.c ****     while(size)
 2456              		.loc 1 892 10
 2457 004a 25A8     		j	.L120
 2458              	.L122:
 893:Drivers/src/ch32v20x_flash.c ****     {
 894:Drivers/src/ch32v20x_flash.c ****         *(uint32_t *)Page_Address = *(uint32_t *)pbuf;
 2459              		.loc 1 894 10
 2460 004c 8327C4FD 		lw	a5,-36(s0)
 2461              		.loc 1 894 37
 2462 0050 032784FD 		lw	a4,-40(s0)
 2463 0054 1843     		lw	a4,0(a4)
 2464              		.loc 1 894 35
 2465 0056 98C3     		sw	a4,0(a5)
 895:Drivers/src/ch32v20x_flash.c ****         Page_Address += 4;
 2466              		.loc 1 895 22
 2467 0058 8327C4FD 		lw	a5,-36(s0)
 2468 005c 9107     		addi	a5,a5,4
 2469 005e 232EF4FC 		sw	a5,-36(s0)
 896:Drivers/src/ch32v20x_flash.c ****         pbuf += 1;
 2470              		.loc 1 896 14
 2471 0062 832784FD 		lw	a5,-40(s0)
 2472 0066 9107     		addi	a5,a5,4
 2473 0068 232CF4FC 		sw	a5,-40(s0)
 897:Drivers/src/ch32v20x_flash.c ****         size -= 1;
 2474              		.loc 1 897 14
 2475 006c 8347F4FE 		lbu	a5,-17(s0)
 2476 0070 FD17     		addi	a5,a5,-1
GAS LISTING C:\Users\SOLDER~1\AppData\Local\Temp\ccKV8tJ7.s 			page 60


 2477 0072 A307F4FE 		sb	a5,-17(s0)
 898:Drivers/src/ch32v20x_flash.c ****         while(FLASH->STATR & SR_WR_BSY);
 2478              		.loc 1 898 14
 2479 0076 0100     		nop
 2480              	.L121:
 2481              		.loc 1 898 20 discriminator 1
 2482 0078 B7270240 		li	a5,1073881088
 2483 007c DC47     		lw	a5,12(a5)
 2484              		.loc 1 898 28 discriminator 1
 2485 007e 898B     		andi	a5,a5,2
 2486              		.loc 1 898 15 discriminator 1
 2487 0080 E5FF     		bne	a5,zero,.L121
 2488              	.L120:
 892:Drivers/src/ch32v20x_flash.c ****     {
 2489              		.loc 1 892 11
 2490 0082 8347F4FE 		lbu	a5,-17(s0)
 2491 0086 F9F3     		bne	a5,zero,.L122
 899:Drivers/src/ch32v20x_flash.c ****     }
 900:Drivers/src/ch32v20x_flash.c **** 
 901:Drivers/src/ch32v20x_flash.c ****     FLASH->CTLR |= CR_PG_STRT;
 2492              		.loc 1 901 10
 2493 0088 B7270240 		li	a5,1073881088
 2494 008c 944B     		lw	a3,16(a5)
 2495 008e B7270240 		li	a5,1073881088
 2496              		.loc 1 901 17
 2497 0092 37072000 		li	a4,2097152
 2498 0096 558F     		or	a4,a3,a4
 2499 0098 98CB     		sw	a4,16(a5)
 902:Drivers/src/ch32v20x_flash.c ****     while(FLASH->STATR & SR_BSY);
 2500              		.loc 1 902 10
 2501 009a 0100     		nop
 2502              	.L123:
 2503              		.loc 1 902 16 discriminator 1
 2504 009c B7270240 		li	a5,1073881088
 2505 00a0 DC47     		lw	a5,12(a5)
 2506              		.loc 1 902 24 discriminator 1
 2507 00a2 858B     		andi	a5,a5,1
 2508              		.loc 1 902 11 discriminator 1
 2509 00a4 E5FF     		bne	a5,zero,.L123
 903:Drivers/src/ch32v20x_flash.c ****     FLASH->CTLR &= ~CR_PAGE_PG;
 2510              		.loc 1 903 10
 2511 00a6 B7270240 		li	a5,1073881088
 2512 00aa 944B     		lw	a3,16(a5)
 2513 00ac B7270240 		li	a5,1073881088
 2514              		.loc 1 903 17
 2515 00b0 4177     		li	a4,-65536
 2516 00b2 7D17     		addi	a4,a4,-1
 2517 00b4 758F     		and	a4,a3,a4
 2518 00b6 98CB     		sw	a4,16(a5)
 904:Drivers/src/ch32v20x_flash.c **** }
 2519              		.loc 1 904 1
 2520 00b8 0100     		nop
 2521 00ba 3254     		lw	s0,44(sp)
 2522              		.cfi_restore 8
 2523              		.cfi_def_cfa 2, 48
 2524 00bc 4561     		addi	sp,sp,48
 2525              		.cfi_def_cfa_offset 0
GAS LISTING C:\Users\SOLDER~1\AppData\Local\Temp\ccKV8tJ7.s 			page 61


 2526 00be 8280     		jr	ra
 2527              		.cfi_endproc
 2528              	.LFE45:
 2530              		.section	.text.FLASH_Access_Clock_Cfg,"ax",@progbits
 2531              		.align	1
 2532              		.globl	FLASH_Access_Clock_Cfg
 2534              	FLASH_Access_Clock_Cfg:
 2535              	.LFB46:
 905:Drivers/src/ch32v20x_flash.c **** 
 906:Drivers/src/ch32v20x_flash.c **** /*********************************************************************
 907:Drivers/src/ch32v20x_flash.c ****  * @fn      FLASH_Access_Clock_Cfg
 908:Drivers/src/ch32v20x_flash.c ****  *
 909:Drivers/src/ch32v20x_flash.c ****  * @brief   Config FLASH Access Clock(Need to unlock )
 910:Drivers/src/ch32v20x_flash.c ****  *
 911:Drivers/src/ch32v20x_flash.c ****  * @param   FLASH_Access_CLK -
 912:Drivers/src/ch32v20x_flash.c ****  *            FLASH_Access_SYSTEM_HALF - System clock/2
 913:Drivers/src/ch32v20x_flash.c ****  *            FLASH_Access_SYSTEM - System clock
 914:Drivers/src/ch32v20x_flash.c ****  *
 915:Drivers/src/ch32v20x_flash.c ****  * @return  none
 916:Drivers/src/ch32v20x_flash.c ****  */
 917:Drivers/src/ch32v20x_flash.c **** void FLASH_Access_Clock_Cfg(uint32_t FLASH_Access_CLK)
 918:Drivers/src/ch32v20x_flash.c **** {
 2536              		.loc 1 918 1
 2537              		.cfi_startproc
 2538 0000 0111     		addi	sp,sp,-32
 2539              		.cfi_def_cfa_offset 32
 2540 0002 22CE     		sw	s0,28(sp)
 2541              		.cfi_offset 8, -4
 2542 0004 0010     		addi	s0,sp,32
 2543              		.cfi_def_cfa 8, 0
 2544 0006 2326A4FE 		sw	a0,-20(s0)
 919:Drivers/src/ch32v20x_flash.c ****     FLASH->CTLR &= ~(1 << 25);
 2545              		.loc 1 919 10
 2546 000a B7270240 		li	a5,1073881088
 2547 000e 944B     		lw	a3,16(a5)
 2548 0010 B7270240 		li	a5,1073881088
 2549              		.loc 1 919 17
 2550 0014 370700FE 		li	a4,-33554432
 2551 0018 7D17     		addi	a4,a4,-1
 2552 001a 758F     		and	a4,a3,a4
 2553 001c 98CB     		sw	a4,16(a5)
 920:Drivers/src/ch32v20x_flash.c ****     FLASH->CTLR |= FLASH_Access_CLK;
 2554              		.loc 1 920 10
 2555 001e B7270240 		li	a5,1073881088
 2556 0022 944B     		lw	a3,16(a5)
 2557 0024 B7270240 		li	a5,1073881088
 2558              		.loc 1 920 17
 2559 0028 0327C4FE 		lw	a4,-20(s0)
 2560 002c 558F     		or	a4,a3,a4
 2561 002e 98CB     		sw	a4,16(a5)
 921:Drivers/src/ch32v20x_flash.c **** }
 2562              		.loc 1 921 1
 2563 0030 0100     		nop
 2564 0032 7244     		lw	s0,28(sp)
 2565              		.cfi_restore 8
 2566              		.cfi_def_cfa 2, 32
 2567 0034 0561     		addi	sp,sp,32
GAS LISTING C:\Users\SOLDER~1\AppData\Local\Temp\ccKV8tJ7.s 			page 62


 2568              		.cfi_def_cfa_offset 0
 2569 0036 8280     		jr	ra
 2570              		.cfi_endproc
 2571              	.LFE46:
 2573              		.section	.text.FLASH_Enhance_Mode,"ax",@progbits
 2574              		.align	1
 2575              		.globl	FLASH_Enhance_Mode
 2577              	FLASH_Enhance_Mode:
 2578              	.LFB47:
 922:Drivers/src/ch32v20x_flash.c **** 
 923:Drivers/src/ch32v20x_flash.c **** /*********************************************************************
 924:Drivers/src/ch32v20x_flash.c ****  * @fn      FLASH_Enhance_Mode
 925:Drivers/src/ch32v20x_flash.c ****  *
 926:Drivers/src/ch32v20x_flash.c ****  * @brief   Read FLASH Enhance Mode
 927:Drivers/src/ch32v20x_flash.c ****  *
 928:Drivers/src/ch32v20x_flash.c ****  * @param
 929:Drivers/src/ch32v20x_flash.c ****  *          Newstate - new state of the ReadOut Protection(ENABLE or DISABLE).
 930:Drivers/src/ch32v20x_flash.c ****  *
 931:Drivers/src/ch32v20x_flash.c ****  * @return  none
 932:Drivers/src/ch32v20x_flash.c ****  */
 933:Drivers/src/ch32v20x_flash.c **** void FLASH_Enhance_Mode(FunctionalState NewState)
 934:Drivers/src/ch32v20x_flash.c **** {
 2579              		.loc 1 934 1
 2580              		.cfi_startproc
 2581 0000 0111     		addi	sp,sp,-32
 2582              		.cfi_def_cfa_offset 32
 2583 0002 22CE     		sw	s0,28(sp)
 2584              		.cfi_offset 8, -4
 2585 0004 0010     		addi	s0,sp,32
 2586              		.cfi_def_cfa 8, 0
 2587 0006 2326A4FE 		sw	a0,-20(s0)
 935:Drivers/src/ch32v20x_flash.c ****     if(NewState)
 2588              		.loc 1 935 7
 2589 000a 8327C4FE 		lw	a5,-20(s0)
 2590 000e 99CB     		beq	a5,zero,.L126
 936:Drivers/src/ch32v20x_flash.c ****     {
 937:Drivers/src/ch32v20x_flash.c ****         FLASH->CTLR |= (1 << 24);
 2591              		.loc 1 937 14
 2592 0010 B7270240 		li	a5,1073881088
 2593 0014 944B     		lw	a3,16(a5)
 2594 0016 B7270240 		li	a5,1073881088
 2595              		.loc 1 937 21
 2596 001a 37070001 		li	a4,16777216
 2597 001e 558F     		or	a4,a3,a4
 2598 0020 98CB     		sw	a4,16(a5)
 938:Drivers/src/ch32v20x_flash.c ****     }
 939:Drivers/src/ch32v20x_flash.c ****     else
 940:Drivers/src/ch32v20x_flash.c ****     {
 941:Drivers/src/ch32v20x_flash.c ****         FLASH->CTLR &= ~(1 << 24);
 942:Drivers/src/ch32v20x_flash.c ****         FLASH->CTLR |= (1 << 22);
 943:Drivers/src/ch32v20x_flash.c ****     }
 944:Drivers/src/ch32v20x_flash.c **** }
 2599              		.loc 1 944 1
 2600 0022 25A0     		j	.L128
 2601              	.L126:
 941:Drivers/src/ch32v20x_flash.c ****         FLASH->CTLR |= (1 << 22);
 2602              		.loc 1 941 14
GAS LISTING C:\Users\SOLDER~1\AppData\Local\Temp\ccKV8tJ7.s 			page 63


 2603 0024 B7270240 		li	a5,1073881088
 2604 0028 944B     		lw	a3,16(a5)
 2605 002a B7270240 		li	a5,1073881088
 941:Drivers/src/ch32v20x_flash.c ****         FLASH->CTLR |= (1 << 22);
 2606              		.loc 1 941 21
 2607 002e 370700FF 		li	a4,-16777216
 2608 0032 7D17     		addi	a4,a4,-1
 2609 0034 758F     		and	a4,a3,a4
 2610 0036 98CB     		sw	a4,16(a5)
 942:Drivers/src/ch32v20x_flash.c ****     }
 2611              		.loc 1 942 14
 2612 0038 B7270240 		li	a5,1073881088
 2613 003c 944B     		lw	a3,16(a5)
 2614 003e B7270240 		li	a5,1073881088
 942:Drivers/src/ch32v20x_flash.c ****     }
 2615              		.loc 1 942 21
 2616 0042 37074000 		li	a4,4194304
 2617 0046 558F     		or	a4,a3,a4
 2618 0048 98CB     		sw	a4,16(a5)
 2619              	.L128:
 2620              		.loc 1 944 1
 2621 004a 0100     		nop
 2622 004c 7244     		lw	s0,28(sp)
 2623              		.cfi_restore 8
 2624              		.cfi_def_cfa 2, 32
 2625 004e 0561     		addi	sp,sp,32
 2626              		.cfi_def_cfa_offset 0
 2627 0050 8280     		jr	ra
 2628              		.cfi_endproc
 2629              	.LFE47:
 2631              		.section	.text.FLASH_GetMACAddress,"ax",@progbits
 2632              		.align	1
 2633              		.globl	FLASH_GetMACAddress
 2635              	FLASH_GetMACAddress:
 2636              	.LFB48:
 945:Drivers/src/ch32v20x_flash.c **** 
 946:Drivers/src/ch32v20x_flash.c **** /********************************************************************************
 947:Drivers/src/ch32v20x_flash.c ****  * @fn        FLASH_GetMACAddress
 948:Drivers/src/ch32v20x_flash.c ****  *
 949:Drivers/src/ch32v20x_flash.c ****  * @brief     Get MAC address
 950:Drivers/src/ch32v20x_flash.c ****  *
 951:Drivers/src/ch32v20x_flash.c ****  * @param     *Buffer: Mac address
 952:Drivers/src/ch32v20x_flash.c ****  *
 953:Drivers/src/ch32v20x_flash.c ****  * @return    None
 954:Drivers/src/ch32v20x_flash.c ****  */
 955:Drivers/src/ch32v20x_flash.c **** void FLASH_GetMACAddress(uint8_t *Buffer)
 956:Drivers/src/ch32v20x_flash.c **** {
 2637              		.loc 1 956 1
 2638              		.cfi_startproc
 2639 0000 7971     		addi	sp,sp,-48
 2640              		.cfi_def_cfa_offset 48
 2641 0002 22D6     		sw	s0,44(sp)
 2642              		.cfi_offset 8, -4
 2643 0004 0018     		addi	s0,sp,48
 2644              		.cfi_def_cfa 8, 0
 2645 0006 232EA4FC 		sw	a0,-36(s0)
 957:Drivers/src/ch32v20x_flash.c ****     uint32_t value;
GAS LISTING C:\Users\SOLDER~1\AppData\Local\Temp\ccKV8tJ7.s 			page 64


 958:Drivers/src/ch32v20x_flash.c **** 
 959:Drivers/src/ch32v20x_flash.c ****     value = *(uint32_t *)(0x1FFFF7E8);
 2646              		.loc 1 959 13
 2647 000a B7F7FF1F 		li	a5,536866816
 2648 000e 9387877E 		addi	a5,a5,2024
 2649              		.loc 1 959 11
 2650 0012 9C43     		lw	a5,0(a5)
 2651 0014 2326F4FE 		sw	a5,-20(s0)
 960:Drivers/src/ch32v20x_flash.c ****     Buffer[0] = value & 0xFF;
 2652              		.loc 1 960 15
 2653 0018 8327C4FE 		lw	a5,-20(s0)
 2654 001c 13F7F70F 		andi	a4,a5,0xff
 2655 0020 8327C4FD 		lw	a5,-36(s0)
 2656 0024 98A3     		sb	a4,0(a5)
 961:Drivers/src/ch32v20x_flash.c ****     Buffer[1] = (value >> 8) & 0xFF;
 2657              		.loc 1 961 24
 2658 0026 8327C4FE 		lw	a5,-20(s0)
 2659 002a 13D78700 		srli	a4,a5,8
 2660              		.loc 1 961 11
 2661 002e 8327C4FD 		lw	a5,-36(s0)
 2662 0032 8507     		addi	a5,a5,1
 2663              		.loc 1 961 15
 2664 0034 1377F70F 		andi	a4,a4,0xff
 2665 0038 98A3     		sb	a4,0(a5)
 962:Drivers/src/ch32v20x_flash.c ****     Buffer[2] = (value >> 16) & 0xFF;
 2666              		.loc 1 962 24
 2667 003a 8327C4FE 		lw	a5,-20(s0)
 2668 003e 13D70701 		srli	a4,a5,16
 2669              		.loc 1 962 11
 2670 0042 8327C4FD 		lw	a5,-36(s0)
 2671 0046 8907     		addi	a5,a5,2
 2672              		.loc 1 962 15
 2673 0048 1377F70F 		andi	a4,a4,0xff
 2674 004c 98A3     		sb	a4,0(a5)
 963:Drivers/src/ch32v20x_flash.c ****     Buffer[3] = (value >> 24) & 0xFF;
 2675              		.loc 1 963 24
 2676 004e 8327C4FE 		lw	a5,-20(s0)
 2677 0052 13D78701 		srli	a4,a5,24
 2678              		.loc 1 963 11
 2679 0056 8327C4FD 		lw	a5,-36(s0)
 2680 005a 8D07     		addi	a5,a5,3
 2681              		.loc 1 963 15
 2682 005c 1377F70F 		andi	a4,a4,0xff
 2683 0060 98A3     		sb	a4,0(a5)
 964:Drivers/src/ch32v20x_flash.c ****     value = *(uint32_t *)(0x1FFFF7EC);
 2684              		.loc 1 964 13
 2685 0062 B7F7FF1F 		li	a5,536866816
 2686 0066 9387C77E 		addi	a5,a5,2028
 2687              		.loc 1 964 11
 2688 006a 9C43     		lw	a5,0(a5)
 2689 006c 2326F4FE 		sw	a5,-20(s0)
 965:Drivers/src/ch32v20x_flash.c ****     Buffer[4] = value & 0xFF;
 2690              		.loc 1 965 11
 2691 0070 8327C4FD 		lw	a5,-36(s0)
 2692 0074 9107     		addi	a5,a5,4
 2693              		.loc 1 965 15
 2694 0076 0327C4FE 		lw	a4,-20(s0)
GAS LISTING C:\Users\SOLDER~1\AppData\Local\Temp\ccKV8tJ7.s 			page 65


 2695 007a 1377F70F 		andi	a4,a4,0xff
 2696 007e 98A3     		sb	a4,0(a5)
 966:Drivers/src/ch32v20x_flash.c ****     Buffer[5] = (value >> 8) & 0xFF;
 2697              		.loc 1 966 24
 2698 0080 8327C4FE 		lw	a5,-20(s0)
 2699 0084 13D78700 		srli	a4,a5,8
 2700              		.loc 1 966 11
 2701 0088 8327C4FD 		lw	a5,-36(s0)
 2702 008c 9507     		addi	a5,a5,5
 2703              		.loc 1 966 15
 2704 008e 1377F70F 		andi	a4,a4,0xff
 2705 0092 98A3     		sb	a4,0(a5)
 967:Drivers/src/ch32v20x_flash.c **** }
 2706              		.loc 1 967 1
 2707 0094 0100     		nop
 2708 0096 3254     		lw	s0,44(sp)
 2709              		.cfi_restore 8
 2710              		.cfi_def_cfa 2, 48
 2711 0098 4561     		addi	sp,sp,48
 2712              		.cfi_def_cfa_offset 0
 2713 009a 8280     		jr	ra
 2714              		.cfi_endproc
 2715              	.LFE48:
 2717              		.text
 2718              	.Letext0:
 2719              		.file 2 "c:\\dev_tools\\ch32_tools\\risc-v_embedded_gcc12\\riscv-none-elf\\include\\machine\\_defa
 2720              		.file 3 "c:\\dev_tools\\ch32_tools\\risc-v_embedded_gcc12\\riscv-none-elf\\include\\sys\\_stdint.h
 2721              		.file 4 "Drivers/inc/core_riscv.h"
 2722              		.file 5 "Drivers/inc/ch32v20x.h"
 2723              		.file 6 "Drivers/inc/ch32v20x_flash.h"
GAS LISTING C:\Users\SOLDER~1\AppData\Local\Temp\ccKV8tJ7.s 			page 66

