GAS LISTING C:\Users\SOLDER~1\AppData\Local\Temp\cc5HxSOu.s 			page 1


   1              		.file	"core_riscv.c"
   2              		.option nopic
   3              		.attribute arch, "rv32i2p0_m2p0_a2p0_c2p0_xw"
   4              		.attribute unaligned_access, 0
   5              		.attribute stack_align, 16
   6              		.text
   7              	.Ltext0:
   8              		.cfi_sections	.debug_frame
   9              		.file 0 "C:\\Users\\Solderingiron\\Documents\\GitHub\\VSC-make-example\\VSC_CH32V203C8T6" "Drivers
  10              		.section	.text.__get_MSTATUS,"ax",@progbits
  11              		.align	1
  12              		.globl	__get_MSTATUS
  14              	__get_MSTATUS:
  15              	.LFB0:
  16              		.file 1 "Drivers/src/core_riscv.c"
   1:Drivers/src/core_riscv.c **** /********************************** (C) COPYRIGHT  *******************************
   2:Drivers/src/core_riscv.c ****  * File Name          : core_riscv.c
   3:Drivers/src/core_riscv.c ****  * Author             : WCH
   4:Drivers/src/core_riscv.c ****  * Version            : V1.0.0
   5:Drivers/src/core_riscv.c ****  * Date               : 2021/06/06
   6:Drivers/src/core_riscv.c ****  * Description        : RISC-V Core Peripheral Access Layer Source File
   7:Drivers/src/core_riscv.c ****  * Copyright (c) 2021 Nanjing Qinheng Microelectronics Co., Ltd.
   8:Drivers/src/core_riscv.c ****  * SPDX-License-Identifier: Apache-2.0
   9:Drivers/src/core_riscv.c ****  *******************************************************************************/
  10:Drivers/src/core_riscv.c **** #include <stdint.h>
  11:Drivers/src/core_riscv.c **** 
  12:Drivers/src/core_riscv.c **** /* define compiler specific symbols */
  13:Drivers/src/core_riscv.c **** #if defined ( __CC_ARM   )
  14:Drivers/src/core_riscv.c ****   #define __ASM            __asm                                      /*!< asm keyword for ARM Comp
  15:Drivers/src/core_riscv.c ****   #define __INLINE         __inline                                   /*!< inline keyword for ARM C
  16:Drivers/src/core_riscv.c **** 
  17:Drivers/src/core_riscv.c **** #elif defined ( __ICCARM__ )
  18:Drivers/src/core_riscv.c ****   #define __ASM           __asm                                       /*!< asm keyword for IAR Comp
  19:Drivers/src/core_riscv.c ****   #define __INLINE        inline                                      /*!< inline keyword for IAR C
  20:Drivers/src/core_riscv.c **** 
  21:Drivers/src/core_riscv.c **** #elif defined   (  __GNUC__  )
  22:Drivers/src/core_riscv.c ****   #define __ASM            __asm                                      /*!< asm keyword for GNU Comp
  23:Drivers/src/core_riscv.c ****   #define __INLINE         inline                                     /*!< inline keyword for GNU C
  24:Drivers/src/core_riscv.c **** 
  25:Drivers/src/core_riscv.c **** #elif defined   (  __TASKING__  )
  26:Drivers/src/core_riscv.c ****   #define __ASM            __asm                                      /*!< asm keyword for TASKING 
  27:Drivers/src/core_riscv.c ****   #define __INLINE         inline                                     /*!< inline keyword for TASKI
  28:Drivers/src/core_riscv.c **** 
  29:Drivers/src/core_riscv.c **** #endif
  30:Drivers/src/core_riscv.c **** 
  31:Drivers/src/core_riscv.c **** 
  32:Drivers/src/core_riscv.c **** 
  33:Drivers/src/core_riscv.c **** /*********************************************************************
  34:Drivers/src/core_riscv.c ****  * @fn      __get_MSTATUS
  35:Drivers/src/core_riscv.c ****  *
  36:Drivers/src/core_riscv.c ****  * @brief   Return the Machine Status Register
  37:Drivers/src/core_riscv.c ****  *
  38:Drivers/src/core_riscv.c ****  * @return  mstatus value
  39:Drivers/src/core_riscv.c ****  */
  40:Drivers/src/core_riscv.c **** uint32_t __get_MSTATUS(void)
  41:Drivers/src/core_riscv.c **** {
  17              		.loc 1 41 1
GAS LISTING C:\Users\SOLDER~1\AppData\Local\Temp\cc5HxSOu.s 			page 2


  18              		.cfi_startproc
  19 0000 0111     		addi	sp,sp,-32
  20              		.cfi_def_cfa_offset 32
  21 0002 22CE     		sw	s0,28(sp)
  22              		.cfi_offset 8, -4
  23 0004 0010     		addi	s0,sp,32
  24              		.cfi_def_cfa 8, 0
  42:Drivers/src/core_riscv.c ****   uint32_t result;
  43:Drivers/src/core_riscv.c **** 
  44:Drivers/src/core_riscv.c ****   __ASM volatile ( "csrr %0," "mstatus" : "=r" (result) );
  25              		.loc 1 44 3
  26              	 #APP
  27              	# 44 "Drivers/src/core_riscv.c" 1
  45              	  return (result);
  28              		csrr a5,mstatus
  29              	# 0 "" 2
  30              	 #NO_APP
  31 000a 2326F4FE 		sw	a5,-20(s0)
  32              		.loc 1 45 10
  33 000e 8327C4FE 		lw	a5,-20(s0)
  46:Drivers/src/core_riscv.c **** }
  34              		.loc 1 46 1
  35 0012 3E85     		mv	a0,a5
  36 0014 7244     		lw	s0,28(sp)
  37              		.cfi_restore 8
  38              		.cfi_def_cfa 2, 32
  39 0016 0561     		addi	sp,sp,32
  40              		.cfi_def_cfa_offset 0
  41 0018 8280     		jr	ra
  42              		.cfi_endproc
  43              	.LFE0:
  45              		.section	.text.__set_MSTATUS,"ax",@progbits
  46              		.align	1
  47              		.globl	__set_MSTATUS
  49              	__set_MSTATUS:
  50              	.LFB1:
  47:Drivers/src/core_riscv.c **** 
  48:Drivers/src/core_riscv.c **** /*********************************************************************
  49:Drivers/src/core_riscv.c ****  * @fn      __set_MSTATUS
  50:Drivers/src/core_riscv.c ****  *
  51:Drivers/src/core_riscv.c ****  * @brief   Set the Machine Status Register
  52:Drivers/src/core_riscv.c ****  *
  53:Drivers/src/core_riscv.c ****  * @param   value  - set mstatus value
  54:Drivers/src/core_riscv.c ****  *
  55:Drivers/src/core_riscv.c ****  * @return  none
  56:Drivers/src/core_riscv.c ****  */
  57:Drivers/src/core_riscv.c **** void __set_MSTATUS(uint32_t value)
  58:Drivers/src/core_riscv.c **** {
  51              		.loc 1 58 1
  52              		.cfi_startproc
  53 0000 0111     		addi	sp,sp,-32
  54              		.cfi_def_cfa_offset 32
  55 0002 22CE     		sw	s0,28(sp)
  56              		.cfi_offset 8, -4
  57 0004 0010     		addi	s0,sp,32
  58              		.cfi_def_cfa 8, 0
  59 0006 2326A4FE 		sw	a0,-20(s0)
GAS LISTING C:\Users\SOLDER~1\AppData\Local\Temp\cc5HxSOu.s 			page 3


  59:Drivers/src/core_riscv.c ****   __ASM volatile ("csrw mstatus, %0" : : "r" (value) );
  60              		.loc 1 59 3
  61 000a 8327C4FE 		lw	a5,-20(s0)
  62              	 #APP
  63              	# 59 "Drivers/src/core_riscv.c" 1
  60              	}
  64              		csrw mstatus, a5
  65              	# 0 "" 2
  66              		.loc 1 60 1
  67              	 #NO_APP
  68 0012 0100     		nop
  69 0014 7244     		lw	s0,28(sp)
  70              		.cfi_restore 8
  71              		.cfi_def_cfa 2, 32
  72 0016 0561     		addi	sp,sp,32
  73              		.cfi_def_cfa_offset 0
  74 0018 8280     		jr	ra
  75              		.cfi_endproc
  76              	.LFE1:
  78              		.section	.text.__get_MISA,"ax",@progbits
  79              		.align	1
  80              		.globl	__get_MISA
  82              	__get_MISA:
  83              	.LFB2:
  61:Drivers/src/core_riscv.c **** 
  62:Drivers/src/core_riscv.c **** /*********************************************************************
  63:Drivers/src/core_riscv.c ****  * @fn      __get_MISA
  64:Drivers/src/core_riscv.c ****  *
  65:Drivers/src/core_riscv.c ****  * @brief   Return the Machine ISA Register
  66:Drivers/src/core_riscv.c ****  *
  67:Drivers/src/core_riscv.c ****  * @return  misa value
  68:Drivers/src/core_riscv.c ****  */
  69:Drivers/src/core_riscv.c **** uint32_t __get_MISA(void)
  70:Drivers/src/core_riscv.c **** {
  84              		.loc 1 70 1
  85              		.cfi_startproc
  86 0000 0111     		addi	sp,sp,-32
  87              		.cfi_def_cfa_offset 32
  88 0002 22CE     		sw	s0,28(sp)
  89              		.cfi_offset 8, -4
  90 0004 0010     		addi	s0,sp,32
  91              		.cfi_def_cfa 8, 0
  71:Drivers/src/core_riscv.c ****   uint32_t result;
  72:Drivers/src/core_riscv.c **** 
  73:Drivers/src/core_riscv.c ****   __ASM volatile ( "csrr %0," "misa" : "=r" (result) );
  92              		.loc 1 73 3
  93              	 #APP
  94              	# 73 "Drivers/src/core_riscv.c" 1
  74              	  return (result);
  95              		csrr a5,misa
  96              	# 0 "" 2
  97              	 #NO_APP
  98 000a 2326F4FE 		sw	a5,-20(s0)
  99              		.loc 1 74 10
 100 000e 8327C4FE 		lw	a5,-20(s0)
  75:Drivers/src/core_riscv.c **** }
 101              		.loc 1 75 1
GAS LISTING C:\Users\SOLDER~1\AppData\Local\Temp\cc5HxSOu.s 			page 4


 102 0012 3E85     		mv	a0,a5
 103 0014 7244     		lw	s0,28(sp)
 104              		.cfi_restore 8
 105              		.cfi_def_cfa 2, 32
 106 0016 0561     		addi	sp,sp,32
 107              		.cfi_def_cfa_offset 0
 108 0018 8280     		jr	ra
 109              		.cfi_endproc
 110              	.LFE2:
 112              		.section	.text.__set_MISA,"ax",@progbits
 113              		.align	1
 114              		.globl	__set_MISA
 116              	__set_MISA:
 117              	.LFB3:
  76:Drivers/src/core_riscv.c **** 
  77:Drivers/src/core_riscv.c **** /*********************************************************************
  78:Drivers/src/core_riscv.c ****  * @fn      __set_MISA
  79:Drivers/src/core_riscv.c ****  *
  80:Drivers/src/core_riscv.c ****  * @brief   Set the Machine ISA Register
  81:Drivers/src/core_riscv.c ****  *
  82:Drivers/src/core_riscv.c ****  * @param   value  - set misa value
  83:Drivers/src/core_riscv.c ****  *
  84:Drivers/src/core_riscv.c ****  * @return  none
  85:Drivers/src/core_riscv.c ****  */
  86:Drivers/src/core_riscv.c **** void __set_MISA(uint32_t value)
  87:Drivers/src/core_riscv.c **** {
 118              		.loc 1 87 1
 119              		.cfi_startproc
 120 0000 0111     		addi	sp,sp,-32
 121              		.cfi_def_cfa_offset 32
 122 0002 22CE     		sw	s0,28(sp)
 123              		.cfi_offset 8, -4
 124 0004 0010     		addi	s0,sp,32
 125              		.cfi_def_cfa 8, 0
 126 0006 2326A4FE 		sw	a0,-20(s0)
  88:Drivers/src/core_riscv.c ****   __ASM volatile ("csrw misa, %0" : : "r" (value) );
 127              		.loc 1 88 3
 128 000a 8327C4FE 		lw	a5,-20(s0)
 129              	 #APP
 130              	# 88 "Drivers/src/core_riscv.c" 1
  89              	}
 131              		csrw misa, a5
 132              	# 0 "" 2
 133              		.loc 1 89 1
 134              	 #NO_APP
 135 0012 0100     		nop
 136 0014 7244     		lw	s0,28(sp)
 137              		.cfi_restore 8
 138              		.cfi_def_cfa 2, 32
 139 0016 0561     		addi	sp,sp,32
 140              		.cfi_def_cfa_offset 0
 141 0018 8280     		jr	ra
 142              		.cfi_endproc
 143              	.LFE3:
 145              		.section	.text.__get_MIE,"ax",@progbits
 146              		.align	1
 147              		.globl	__get_MIE
GAS LISTING C:\Users\SOLDER~1\AppData\Local\Temp\cc5HxSOu.s 			page 5


 149              	__get_MIE:
 150              	.LFB4:
  90:Drivers/src/core_riscv.c **** 
  91:Drivers/src/core_riscv.c **** /*********************************************************************
  92:Drivers/src/core_riscv.c ****  * @fn      __get_MIE
  93:Drivers/src/core_riscv.c ****  *
  94:Drivers/src/core_riscv.c ****  * @brief   Return the Machine Interrupt Enable Register
  95:Drivers/src/core_riscv.c ****  *
  96:Drivers/src/core_riscv.c ****  * @return  mie value
  97:Drivers/src/core_riscv.c ****  */
  98:Drivers/src/core_riscv.c **** uint32_t __get_MIE(void)
  99:Drivers/src/core_riscv.c **** {
 151              		.loc 1 99 1
 152              		.cfi_startproc
 153 0000 0111     		addi	sp,sp,-32
 154              		.cfi_def_cfa_offset 32
 155 0002 22CE     		sw	s0,28(sp)
 156              		.cfi_offset 8, -4
 157 0004 0010     		addi	s0,sp,32
 158              		.cfi_def_cfa 8, 0
 100:Drivers/src/core_riscv.c ****   uint32_t result;
 101:Drivers/src/core_riscv.c **** 
 102:Drivers/src/core_riscv.c ****   __ASM volatile ( "csrr %0," "mie" : "=r" (result) );
 159              		.loc 1 102 3
 160              	 #APP
 161              	# 102 "Drivers/src/core_riscv.c" 1
 103              	  return (result);
 162              		csrr a5,mie
 163              	# 0 "" 2
 164              	 #NO_APP
 165 000a 2326F4FE 		sw	a5,-20(s0)
 166              		.loc 1 103 10
 167 000e 8327C4FE 		lw	a5,-20(s0)
 104:Drivers/src/core_riscv.c **** }
 168              		.loc 1 104 1
 169 0012 3E85     		mv	a0,a5
 170 0014 7244     		lw	s0,28(sp)
 171              		.cfi_restore 8
 172              		.cfi_def_cfa 2, 32
 173 0016 0561     		addi	sp,sp,32
 174              		.cfi_def_cfa_offset 0
 175 0018 8280     		jr	ra
 176              		.cfi_endproc
 177              	.LFE4:
 179              		.section	.text.__set_MIE,"ax",@progbits
 180              		.align	1
 181              		.globl	__set_MIE
 183              	__set_MIE:
 184              	.LFB5:
 105:Drivers/src/core_riscv.c **** 
 106:Drivers/src/core_riscv.c **** /*********************************************************************
 107:Drivers/src/core_riscv.c ****  * @fn      __set_MISA
 108:Drivers/src/core_riscv.c ****  *
 109:Drivers/src/core_riscv.c ****  * @brief   Set the Machine ISA Register
 110:Drivers/src/core_riscv.c ****  *
 111:Drivers/src/core_riscv.c ****  * @param   value  - set mie value
 112:Drivers/src/core_riscv.c ****  *
GAS LISTING C:\Users\SOLDER~1\AppData\Local\Temp\cc5HxSOu.s 			page 6


 113:Drivers/src/core_riscv.c ****  * @return  none
 114:Drivers/src/core_riscv.c ****  */
 115:Drivers/src/core_riscv.c **** void __set_MIE(uint32_t value)
 116:Drivers/src/core_riscv.c **** {
 185              		.loc 1 116 1
 186              		.cfi_startproc
 187 0000 0111     		addi	sp,sp,-32
 188              		.cfi_def_cfa_offset 32
 189 0002 22CE     		sw	s0,28(sp)
 190              		.cfi_offset 8, -4
 191 0004 0010     		addi	s0,sp,32
 192              		.cfi_def_cfa 8, 0
 193 0006 2326A4FE 		sw	a0,-20(s0)
 117:Drivers/src/core_riscv.c ****   __ASM volatile ("csrw mie, %0" : : "r" (value) );
 194              		.loc 1 117 3
 195 000a 8327C4FE 		lw	a5,-20(s0)
 196              	 #APP
 197              	# 117 "Drivers/src/core_riscv.c" 1
 118              	}
 198              		csrw mie, a5
 199              	# 0 "" 2
 200              		.loc 1 118 1
 201              	 #NO_APP
 202 0012 0100     		nop
 203 0014 7244     		lw	s0,28(sp)
 204              		.cfi_restore 8
 205              		.cfi_def_cfa 2, 32
 206 0016 0561     		addi	sp,sp,32
 207              		.cfi_def_cfa_offset 0
 208 0018 8280     		jr	ra
 209              		.cfi_endproc
 210              	.LFE5:
 212              		.section	.text.__get_MTVEC,"ax",@progbits
 213              		.align	1
 214              		.globl	__get_MTVEC
 216              	__get_MTVEC:
 217              	.LFB6:
 119:Drivers/src/core_riscv.c **** 
 120:Drivers/src/core_riscv.c **** /*********************************************************************
 121:Drivers/src/core_riscv.c ****  * @fn      __get_MTVEC
 122:Drivers/src/core_riscv.c ****  *
 123:Drivers/src/core_riscv.c ****  * @brief   Return the Machine Trap-Vector Base-Address Register
 124:Drivers/src/core_riscv.c ****  *
 125:Drivers/src/core_riscv.c ****  * @return  mtvec value
 126:Drivers/src/core_riscv.c ****  */
 127:Drivers/src/core_riscv.c **** uint32_t __get_MTVEC(void)
 128:Drivers/src/core_riscv.c **** {
 218              		.loc 1 128 1
 219              		.cfi_startproc
 220 0000 0111     		addi	sp,sp,-32
 221              		.cfi_def_cfa_offset 32
 222 0002 22CE     		sw	s0,28(sp)
 223              		.cfi_offset 8, -4
 224 0004 0010     		addi	s0,sp,32
 225              		.cfi_def_cfa 8, 0
 129:Drivers/src/core_riscv.c ****   uint32_t result;
 130:Drivers/src/core_riscv.c **** 
GAS LISTING C:\Users\SOLDER~1\AppData\Local\Temp\cc5HxSOu.s 			page 7


 131:Drivers/src/core_riscv.c ****   __ASM volatile ( "csrr %0," "mtvec" : "=r" (result) );
 226              		.loc 1 131 3
 227              	 #APP
 228              	# 131 "Drivers/src/core_riscv.c" 1
 132              	  return (result);
 229              		csrr a5,mtvec
 230              	# 0 "" 2
 231              	 #NO_APP
 232 000a 2326F4FE 		sw	a5,-20(s0)
 233              		.loc 1 132 10
 234 000e 8327C4FE 		lw	a5,-20(s0)
 133:Drivers/src/core_riscv.c **** }
 235              		.loc 1 133 1
 236 0012 3E85     		mv	a0,a5
 237 0014 7244     		lw	s0,28(sp)
 238              		.cfi_restore 8
 239              		.cfi_def_cfa 2, 32
 240 0016 0561     		addi	sp,sp,32
 241              		.cfi_def_cfa_offset 0
 242 0018 8280     		jr	ra
 243              		.cfi_endproc
 244              	.LFE6:
 246              		.section	.text.__set_MTVEC,"ax",@progbits
 247              		.align	1
 248              		.globl	__set_MTVEC
 250              	__set_MTVEC:
 251              	.LFB7:
 134:Drivers/src/core_riscv.c **** 
 135:Drivers/src/core_riscv.c **** /*********************************************************************
 136:Drivers/src/core_riscv.c ****  * @fn      __set_MTVEC
 137:Drivers/src/core_riscv.c ****  *
 138:Drivers/src/core_riscv.c ****  * @brief   Set the Machine Trap-Vector Base-Address Register
 139:Drivers/src/core_riscv.c ****  *
 140:Drivers/src/core_riscv.c ****  * @param   value  - set mtvec value
 141:Drivers/src/core_riscv.c ****  *
 142:Drivers/src/core_riscv.c ****  * @return  none
 143:Drivers/src/core_riscv.c ****  */
 144:Drivers/src/core_riscv.c **** void __set_MTVEC(uint32_t value)
 145:Drivers/src/core_riscv.c **** {
 252              		.loc 1 145 1
 253              		.cfi_startproc
 254 0000 0111     		addi	sp,sp,-32
 255              		.cfi_def_cfa_offset 32
 256 0002 22CE     		sw	s0,28(sp)
 257              		.cfi_offset 8, -4
 258 0004 0010     		addi	s0,sp,32
 259              		.cfi_def_cfa 8, 0
 260 0006 2326A4FE 		sw	a0,-20(s0)
 146:Drivers/src/core_riscv.c ****   __ASM volatile ("csrw mtvec, %0" : : "r" (value) );
 261              		.loc 1 146 3
 262 000a 8327C4FE 		lw	a5,-20(s0)
 263              	 #APP
 264              	# 146 "Drivers/src/core_riscv.c" 1
 147              	}
 265              		csrw mtvec, a5
 266              	# 0 "" 2
 267              		.loc 1 147 1
GAS LISTING C:\Users\SOLDER~1\AppData\Local\Temp\cc5HxSOu.s 			page 8


 268              	 #NO_APP
 269 0012 0100     		nop
 270 0014 7244     		lw	s0,28(sp)
 271              		.cfi_restore 8
 272              		.cfi_def_cfa 2, 32
 273 0016 0561     		addi	sp,sp,32
 274              		.cfi_def_cfa_offset 0
 275 0018 8280     		jr	ra
 276              		.cfi_endproc
 277              	.LFE7:
 279              		.section	.text.__get_MSCRATCH,"ax",@progbits
 280              		.align	1
 281              		.globl	__get_MSCRATCH
 283              	__get_MSCRATCH:
 284              	.LFB8:
 148:Drivers/src/core_riscv.c **** 
 149:Drivers/src/core_riscv.c **** /*********************************************************************
 150:Drivers/src/core_riscv.c ****  * @fn      __get_MSCRATCH
 151:Drivers/src/core_riscv.c ****  *
 152:Drivers/src/core_riscv.c ****  * @brief   Return the Machine Seratch Register
 153:Drivers/src/core_riscv.c ****  *
 154:Drivers/src/core_riscv.c ****  * @return  mscratch value
 155:Drivers/src/core_riscv.c ****  */
 156:Drivers/src/core_riscv.c **** uint32_t __get_MSCRATCH(void)
 157:Drivers/src/core_riscv.c **** {
 285              		.loc 1 157 1
 286              		.cfi_startproc
 287 0000 0111     		addi	sp,sp,-32
 288              		.cfi_def_cfa_offset 32
 289 0002 22CE     		sw	s0,28(sp)
 290              		.cfi_offset 8, -4
 291 0004 0010     		addi	s0,sp,32
 292              		.cfi_def_cfa 8, 0
 158:Drivers/src/core_riscv.c ****   uint32_t result;
 159:Drivers/src/core_riscv.c **** 
 160:Drivers/src/core_riscv.c ****   __ASM volatile ( "csrr %0," "mscratch" : "=r" (result) );
 293              		.loc 1 160 3
 294              	 #APP
 295              	# 160 "Drivers/src/core_riscv.c" 1
 161              	  return (result);
 296              		csrr a5,mscratch
 297              	# 0 "" 2
 298              	 #NO_APP
 299 000a 2326F4FE 		sw	a5,-20(s0)
 300              		.loc 1 161 10
 301 000e 8327C4FE 		lw	a5,-20(s0)
 162:Drivers/src/core_riscv.c **** }
 302              		.loc 1 162 1
 303 0012 3E85     		mv	a0,a5
 304 0014 7244     		lw	s0,28(sp)
 305              		.cfi_restore 8
 306              		.cfi_def_cfa 2, 32
 307 0016 0561     		addi	sp,sp,32
 308              		.cfi_def_cfa_offset 0
 309 0018 8280     		jr	ra
 310              		.cfi_endproc
 311              	.LFE8:
GAS LISTING C:\Users\SOLDER~1\AppData\Local\Temp\cc5HxSOu.s 			page 9


 313              		.section	.text.__set_MSCRATCH,"ax",@progbits
 314              		.align	1
 315              		.globl	__set_MSCRATCH
 317              	__set_MSCRATCH:
 318              	.LFB9:
 163:Drivers/src/core_riscv.c **** 
 164:Drivers/src/core_riscv.c **** /*********************************************************************
 165:Drivers/src/core_riscv.c ****  * @fn      __set_MSCRATCH
 166:Drivers/src/core_riscv.c ****  *
 167:Drivers/src/core_riscv.c ****  * @brief   Set the Machine Seratch Register
 168:Drivers/src/core_riscv.c ****  *
 169:Drivers/src/core_riscv.c ****  * @param   value  - set mscratch value
 170:Drivers/src/core_riscv.c ****  *
 171:Drivers/src/core_riscv.c ****  * @return  none
 172:Drivers/src/core_riscv.c ****  */
 173:Drivers/src/core_riscv.c **** void __set_MSCRATCH(uint32_t value)
 174:Drivers/src/core_riscv.c **** {
 319              		.loc 1 174 1
 320              		.cfi_startproc
 321 0000 0111     		addi	sp,sp,-32
 322              		.cfi_def_cfa_offset 32
 323 0002 22CE     		sw	s0,28(sp)
 324              		.cfi_offset 8, -4
 325 0004 0010     		addi	s0,sp,32
 326              		.cfi_def_cfa 8, 0
 327 0006 2326A4FE 		sw	a0,-20(s0)
 175:Drivers/src/core_riscv.c ****   __ASM volatile ("csrw mscratch, %0" : : "r" (value) );
 328              		.loc 1 175 3
 329 000a 8327C4FE 		lw	a5,-20(s0)
 330              	 #APP
 331              	# 175 "Drivers/src/core_riscv.c" 1
 176              	}
 332              		csrw mscratch, a5
 333              	# 0 "" 2
 334              		.loc 1 176 1
 335              	 #NO_APP
 336 0012 0100     		nop
 337 0014 7244     		lw	s0,28(sp)
 338              		.cfi_restore 8
 339              		.cfi_def_cfa 2, 32
 340 0016 0561     		addi	sp,sp,32
 341              		.cfi_def_cfa_offset 0
 342 0018 8280     		jr	ra
 343              		.cfi_endproc
 344              	.LFE9:
 346              		.section	.text.__get_MEPC,"ax",@progbits
 347              		.align	1
 348              		.globl	__get_MEPC
 350              	__get_MEPC:
 351              	.LFB10:
 177:Drivers/src/core_riscv.c **** 
 178:Drivers/src/core_riscv.c **** /*********************************************************************
 179:Drivers/src/core_riscv.c ****  * @fn      __get_MEPC
 180:Drivers/src/core_riscv.c ****  *
 181:Drivers/src/core_riscv.c ****  * @brief   Return the Machine Exception Program Register
 182:Drivers/src/core_riscv.c ****  *
 183:Drivers/src/core_riscv.c ****  * @return  mepc value
GAS LISTING C:\Users\SOLDER~1\AppData\Local\Temp\cc5HxSOu.s 			page 10


 184:Drivers/src/core_riscv.c ****  */
 185:Drivers/src/core_riscv.c **** uint32_t __get_MEPC(void)
 186:Drivers/src/core_riscv.c **** {
 352              		.loc 1 186 1
 353              		.cfi_startproc
 354 0000 0111     		addi	sp,sp,-32
 355              		.cfi_def_cfa_offset 32
 356 0002 22CE     		sw	s0,28(sp)
 357              		.cfi_offset 8, -4
 358 0004 0010     		addi	s0,sp,32
 359              		.cfi_def_cfa 8, 0
 187:Drivers/src/core_riscv.c ****   uint32_t result;
 188:Drivers/src/core_riscv.c **** 
 189:Drivers/src/core_riscv.c ****   __ASM volatile ( "csrr %0," "mepc" : "=r" (result) );
 360              		.loc 1 189 3
 361              	 #APP
 362              	# 189 "Drivers/src/core_riscv.c" 1
 190              	  return (result);
 363              		csrr a5,mepc
 364              	# 0 "" 2
 365              	 #NO_APP
 366 000a 2326F4FE 		sw	a5,-20(s0)
 367              		.loc 1 190 10
 368 000e 8327C4FE 		lw	a5,-20(s0)
 191:Drivers/src/core_riscv.c **** }
 369              		.loc 1 191 1
 370 0012 3E85     		mv	a0,a5
 371 0014 7244     		lw	s0,28(sp)
 372              		.cfi_restore 8
 373              		.cfi_def_cfa 2, 32
 374 0016 0561     		addi	sp,sp,32
 375              		.cfi_def_cfa_offset 0
 376 0018 8280     		jr	ra
 377              		.cfi_endproc
 378              	.LFE10:
 380              		.section	.text.__set_MEPC,"ax",@progbits
 381              		.align	1
 382              		.globl	__set_MEPC
 384              	__set_MEPC:
 385              	.LFB11:
 192:Drivers/src/core_riscv.c **** 
 193:Drivers/src/core_riscv.c **** /*********************************************************************
 194:Drivers/src/core_riscv.c ****  * @fn      __set_MEPC
 195:Drivers/src/core_riscv.c ****  *
 196:Drivers/src/core_riscv.c ****  * @brief   Set the Machine Exception Program Register
 197:Drivers/src/core_riscv.c ****  *
 198:Drivers/src/core_riscv.c ****  * @return  mepc value
 199:Drivers/src/core_riscv.c ****  */
 200:Drivers/src/core_riscv.c **** void __set_MEPC(uint32_t value)
 201:Drivers/src/core_riscv.c **** {
 386              		.loc 1 201 1
 387              		.cfi_startproc
 388 0000 0111     		addi	sp,sp,-32
 389              		.cfi_def_cfa_offset 32
 390 0002 22CE     		sw	s0,28(sp)
 391              		.cfi_offset 8, -4
 392 0004 0010     		addi	s0,sp,32
GAS LISTING C:\Users\SOLDER~1\AppData\Local\Temp\cc5HxSOu.s 			page 11


 393              		.cfi_def_cfa 8, 0
 394 0006 2326A4FE 		sw	a0,-20(s0)
 202:Drivers/src/core_riscv.c ****   __ASM volatile ("csrw mepc, %0" : : "r" (value) );
 395              		.loc 1 202 3
 396 000a 8327C4FE 		lw	a5,-20(s0)
 397              	 #APP
 398              	# 202 "Drivers/src/core_riscv.c" 1
 203              	}
 399              		csrw mepc, a5
 400              	# 0 "" 2
 401              		.loc 1 203 1
 402              	 #NO_APP
 403 0012 0100     		nop
 404 0014 7244     		lw	s0,28(sp)
 405              		.cfi_restore 8
 406              		.cfi_def_cfa 2, 32
 407 0016 0561     		addi	sp,sp,32
 408              		.cfi_def_cfa_offset 0
 409 0018 8280     		jr	ra
 410              		.cfi_endproc
 411              	.LFE11:
 413              		.section	.text.__get_MCAUSE,"ax",@progbits
 414              		.align	1
 415              		.globl	__get_MCAUSE
 417              	__get_MCAUSE:
 418              	.LFB12:
 204:Drivers/src/core_riscv.c **** 
 205:Drivers/src/core_riscv.c **** /*********************************************************************
 206:Drivers/src/core_riscv.c ****  * @fn      __get_MCAUSE
 207:Drivers/src/core_riscv.c ****  *
 208:Drivers/src/core_riscv.c ****  * @brief   Return the Machine Cause Register
 209:Drivers/src/core_riscv.c ****  *
 210:Drivers/src/core_riscv.c ****  * @return  mcause value
 211:Drivers/src/core_riscv.c ****  */
 212:Drivers/src/core_riscv.c **** uint32_t __get_MCAUSE(void)
 213:Drivers/src/core_riscv.c **** {
 419              		.loc 1 213 1
 420              		.cfi_startproc
 421 0000 0111     		addi	sp,sp,-32
 422              		.cfi_def_cfa_offset 32
 423 0002 22CE     		sw	s0,28(sp)
 424              		.cfi_offset 8, -4
 425 0004 0010     		addi	s0,sp,32
 426              		.cfi_def_cfa 8, 0
 214:Drivers/src/core_riscv.c ****   uint32_t result;
 215:Drivers/src/core_riscv.c **** 
 216:Drivers/src/core_riscv.c ****   __ASM volatile ( "csrr %0," "mcause" : "=r" (result) );
 427              		.loc 1 216 3
 428              	 #APP
 429              	# 216 "Drivers/src/core_riscv.c" 1
 217              	  return (result);
 430              		csrr a5,mcause
 431              	# 0 "" 2
 432              	 #NO_APP
 433 000a 2326F4FE 		sw	a5,-20(s0)
 434              		.loc 1 217 10
 435 000e 8327C4FE 		lw	a5,-20(s0)
GAS LISTING C:\Users\SOLDER~1\AppData\Local\Temp\cc5HxSOu.s 			page 12


 218:Drivers/src/core_riscv.c **** }
 436              		.loc 1 218 1
 437 0012 3E85     		mv	a0,a5
 438 0014 7244     		lw	s0,28(sp)
 439              		.cfi_restore 8
 440              		.cfi_def_cfa 2, 32
 441 0016 0561     		addi	sp,sp,32
 442              		.cfi_def_cfa_offset 0
 443 0018 8280     		jr	ra
 444              		.cfi_endproc
 445              	.LFE12:
 447              		.section	.text.__set_MCAUSE,"ax",@progbits
 448              		.align	1
 449              		.globl	__set_MCAUSE
 451              	__set_MCAUSE:
 452              	.LFB13:
 219:Drivers/src/core_riscv.c **** 
 220:Drivers/src/core_riscv.c **** /*********************************************************************
 221:Drivers/src/core_riscv.c ****  * @fn      __set_MEPC
 222:Drivers/src/core_riscv.c ****  *
 223:Drivers/src/core_riscv.c ****  * @brief   Set the Machine Cause Register
 224:Drivers/src/core_riscv.c ****  *
 225:Drivers/src/core_riscv.c ****  * @return  mcause value
 226:Drivers/src/core_riscv.c ****  */
 227:Drivers/src/core_riscv.c **** void __set_MCAUSE(uint32_t value)
 228:Drivers/src/core_riscv.c **** {
 453              		.loc 1 228 1
 454              		.cfi_startproc
 455 0000 0111     		addi	sp,sp,-32
 456              		.cfi_def_cfa_offset 32
 457 0002 22CE     		sw	s0,28(sp)
 458              		.cfi_offset 8, -4
 459 0004 0010     		addi	s0,sp,32
 460              		.cfi_def_cfa 8, 0
 461 0006 2326A4FE 		sw	a0,-20(s0)
 229:Drivers/src/core_riscv.c ****   __ASM volatile ("csrw mcause, %0" : : "r" (value) );
 462              		.loc 1 229 3
 463 000a 8327C4FE 		lw	a5,-20(s0)
 464              	 #APP
 465              	# 229 "Drivers/src/core_riscv.c" 1
 230              	}
 466              		csrw mcause, a5
 467              	# 0 "" 2
 468              		.loc 1 230 1
 469              	 #NO_APP
 470 0012 0100     		nop
 471 0014 7244     		lw	s0,28(sp)
 472              		.cfi_restore 8
 473              		.cfi_def_cfa 2, 32
 474 0016 0561     		addi	sp,sp,32
 475              		.cfi_def_cfa_offset 0
 476 0018 8280     		jr	ra
 477              		.cfi_endproc
 478              	.LFE13:
 480              		.section	.text.__get_MTVAL,"ax",@progbits
 481              		.align	1
 482              		.globl	__get_MTVAL
GAS LISTING C:\Users\SOLDER~1\AppData\Local\Temp\cc5HxSOu.s 			page 13


 484              	__get_MTVAL:
 485              	.LFB14:
 231:Drivers/src/core_riscv.c **** 
 232:Drivers/src/core_riscv.c **** /*********************************************************************
 233:Drivers/src/core_riscv.c ****  * @fn      __get_MTVAL
 234:Drivers/src/core_riscv.c ****  *
 235:Drivers/src/core_riscv.c ****  * @brief   Return the Machine Trap Value Register
 236:Drivers/src/core_riscv.c ****  *
 237:Drivers/src/core_riscv.c ****  * @return  mtval value
 238:Drivers/src/core_riscv.c ****  */
 239:Drivers/src/core_riscv.c **** uint32_t __get_MTVAL(void)
 240:Drivers/src/core_riscv.c **** {
 486              		.loc 1 240 1
 487              		.cfi_startproc
 488 0000 0111     		addi	sp,sp,-32
 489              		.cfi_def_cfa_offset 32
 490 0002 22CE     		sw	s0,28(sp)
 491              		.cfi_offset 8, -4
 492 0004 0010     		addi	s0,sp,32
 493              		.cfi_def_cfa 8, 0
 241:Drivers/src/core_riscv.c ****   uint32_t result;
 242:Drivers/src/core_riscv.c **** 
 243:Drivers/src/core_riscv.c ****   __ASM volatile ( "csrr %0," "mtval" : "=r" (result) );
 494              		.loc 1 243 3
 495              	 #APP
 496              	# 243 "Drivers/src/core_riscv.c" 1
 244              	  return (result);
 497              		csrr a5,mtval
 498              	# 0 "" 2
 499              	 #NO_APP
 500 000a 2326F4FE 		sw	a5,-20(s0)
 501              		.loc 1 244 10
 502 000e 8327C4FE 		lw	a5,-20(s0)
 245:Drivers/src/core_riscv.c **** }
 503              		.loc 1 245 1
 504 0012 3E85     		mv	a0,a5
 505 0014 7244     		lw	s0,28(sp)
 506              		.cfi_restore 8
 507              		.cfi_def_cfa 2, 32
 508 0016 0561     		addi	sp,sp,32
 509              		.cfi_def_cfa_offset 0
 510 0018 8280     		jr	ra
 511              		.cfi_endproc
 512              	.LFE14:
 514              		.section	.text.__set_MTVAL,"ax",@progbits
 515              		.align	1
 516              		.globl	__set_MTVAL
 518              	__set_MTVAL:
 519              	.LFB15:
 246:Drivers/src/core_riscv.c **** 
 247:Drivers/src/core_riscv.c **** /*********************************************************************
 248:Drivers/src/core_riscv.c ****  * @fn      __set_MTVAL
 249:Drivers/src/core_riscv.c ****  *
 250:Drivers/src/core_riscv.c ****  * @brief   Set the Machine Trap Value Register
 251:Drivers/src/core_riscv.c ****  *
 252:Drivers/src/core_riscv.c ****  * @return  mtval value
 253:Drivers/src/core_riscv.c ****  */
GAS LISTING C:\Users\SOLDER~1\AppData\Local\Temp\cc5HxSOu.s 			page 14


 254:Drivers/src/core_riscv.c **** void __set_MTVAL(uint32_t value)
 255:Drivers/src/core_riscv.c **** {
 520              		.loc 1 255 1
 521              		.cfi_startproc
 522 0000 0111     		addi	sp,sp,-32
 523              		.cfi_def_cfa_offset 32
 524 0002 22CE     		sw	s0,28(sp)
 525              		.cfi_offset 8, -4
 526 0004 0010     		addi	s0,sp,32
 527              		.cfi_def_cfa 8, 0
 528 0006 2326A4FE 		sw	a0,-20(s0)
 256:Drivers/src/core_riscv.c ****   __ASM volatile ("csrw mtval, %0" : : "r" (value) );
 529              		.loc 1 256 3
 530 000a 8327C4FE 		lw	a5,-20(s0)
 531              	 #APP
 532              	# 256 "Drivers/src/core_riscv.c" 1
 257              	}
 533              		csrw mtval, a5
 534              	# 0 "" 2
 535              		.loc 1 257 1
 536              	 #NO_APP
 537 0012 0100     		nop
 538 0014 7244     		lw	s0,28(sp)
 539              		.cfi_restore 8
 540              		.cfi_def_cfa 2, 32
 541 0016 0561     		addi	sp,sp,32
 542              		.cfi_def_cfa_offset 0
 543 0018 8280     		jr	ra
 544              		.cfi_endproc
 545              	.LFE15:
 547              		.section	.text.__get_MVENDORID,"ax",@progbits
 548              		.align	1
 549              		.globl	__get_MVENDORID
 551              	__get_MVENDORID:
 552              	.LFB16:
 258:Drivers/src/core_riscv.c **** 
 259:Drivers/src/core_riscv.c **** /*********************************************************************
 260:Drivers/src/core_riscv.c ****  * @fn      __get_MVENDORID
 261:Drivers/src/core_riscv.c ****  *
 262:Drivers/src/core_riscv.c ****  * @brief   Return Vendor ID Register
 263:Drivers/src/core_riscv.c ****  *
 264:Drivers/src/core_riscv.c ****  * @return  mvendorid value
 265:Drivers/src/core_riscv.c ****  */
 266:Drivers/src/core_riscv.c **** uint32_t __get_MVENDORID(void)
 267:Drivers/src/core_riscv.c **** {
 553              		.loc 1 267 1
 554              		.cfi_startproc
 555 0000 0111     		addi	sp,sp,-32
 556              		.cfi_def_cfa_offset 32
 557 0002 22CE     		sw	s0,28(sp)
 558              		.cfi_offset 8, -4
 559 0004 0010     		addi	s0,sp,32
 560              		.cfi_def_cfa 8, 0
 268:Drivers/src/core_riscv.c ****   uint32_t result;
 269:Drivers/src/core_riscv.c **** 
 270:Drivers/src/core_riscv.c ****   __ASM volatile ( "csrr %0," "mvendorid" : "=r" (result) );
 561              		.loc 1 270 3
GAS LISTING C:\Users\SOLDER~1\AppData\Local\Temp\cc5HxSOu.s 			page 15


 562              	 #APP
 563              	# 270 "Drivers/src/core_riscv.c" 1
 271              	  return (result);
 564              		csrr a5,mvendorid
 565              	# 0 "" 2
 566              	 #NO_APP
 567 000a 2326F4FE 		sw	a5,-20(s0)
 568              		.loc 1 271 10
 569 000e 8327C4FE 		lw	a5,-20(s0)
 272:Drivers/src/core_riscv.c **** }
 570              		.loc 1 272 1
 571 0012 3E85     		mv	a0,a5
 572 0014 7244     		lw	s0,28(sp)
 573              		.cfi_restore 8
 574              		.cfi_def_cfa 2, 32
 575 0016 0561     		addi	sp,sp,32
 576              		.cfi_def_cfa_offset 0
 577 0018 8280     		jr	ra
 578              		.cfi_endproc
 579              	.LFE16:
 581              		.section	.text.__get_MARCHID,"ax",@progbits
 582              		.align	1
 583              		.globl	__get_MARCHID
 585              	__get_MARCHID:
 586              	.LFB17:
 273:Drivers/src/core_riscv.c **** 
 274:Drivers/src/core_riscv.c **** /*********************************************************************
 275:Drivers/src/core_riscv.c ****  * @fn      __get_MARCHID
 276:Drivers/src/core_riscv.c ****  *
 277:Drivers/src/core_riscv.c ****  * @brief   Return Machine Architecture ID Register
 278:Drivers/src/core_riscv.c ****  *
 279:Drivers/src/core_riscv.c ****  * @return  marchid value
 280:Drivers/src/core_riscv.c ****  */
 281:Drivers/src/core_riscv.c **** uint32_t __get_MARCHID(void)
 282:Drivers/src/core_riscv.c **** {
 587              		.loc 1 282 1
 588              		.cfi_startproc
 589 0000 0111     		addi	sp,sp,-32
 590              		.cfi_def_cfa_offset 32
 591 0002 22CE     		sw	s0,28(sp)
 592              		.cfi_offset 8, -4
 593 0004 0010     		addi	s0,sp,32
 594              		.cfi_def_cfa 8, 0
 283:Drivers/src/core_riscv.c ****   uint32_t result;
 284:Drivers/src/core_riscv.c **** 
 285:Drivers/src/core_riscv.c ****   __ASM volatile ( "csrr %0," "marchid" : "=r" (result) );
 595              		.loc 1 285 3
 596              	 #APP
 597              	# 285 "Drivers/src/core_riscv.c" 1
 286              	  return (result);
 598              		csrr a5,marchid
 599              	# 0 "" 2
 600              	 #NO_APP
 601 000a 2326F4FE 		sw	a5,-20(s0)
 602              		.loc 1 286 10
 603 000e 8327C4FE 		lw	a5,-20(s0)
 287:Drivers/src/core_riscv.c **** }
GAS LISTING C:\Users\SOLDER~1\AppData\Local\Temp\cc5HxSOu.s 			page 16


 604              		.loc 1 287 1
 605 0012 3E85     		mv	a0,a5
 606 0014 7244     		lw	s0,28(sp)
 607              		.cfi_restore 8
 608              		.cfi_def_cfa 2, 32
 609 0016 0561     		addi	sp,sp,32
 610              		.cfi_def_cfa_offset 0
 611 0018 8280     		jr	ra
 612              		.cfi_endproc
 613              	.LFE17:
 615              		.section	.text.__get_MIMPID,"ax",@progbits
 616              		.align	1
 617              		.globl	__get_MIMPID
 619              	__get_MIMPID:
 620              	.LFB18:
 288:Drivers/src/core_riscv.c **** 
 289:Drivers/src/core_riscv.c **** /*********************************************************************
 290:Drivers/src/core_riscv.c ****  * @fn      __get_MIMPID
 291:Drivers/src/core_riscv.c ****  *
 292:Drivers/src/core_riscv.c ****  * @brief   Return Machine Implementation ID Register
 293:Drivers/src/core_riscv.c ****  *
 294:Drivers/src/core_riscv.c ****  * @return  mimpid value
 295:Drivers/src/core_riscv.c ****  */
 296:Drivers/src/core_riscv.c **** uint32_t __get_MIMPID(void)
 297:Drivers/src/core_riscv.c **** {
 621              		.loc 1 297 1
 622              		.cfi_startproc
 623 0000 0111     		addi	sp,sp,-32
 624              		.cfi_def_cfa_offset 32
 625 0002 22CE     		sw	s0,28(sp)
 626              		.cfi_offset 8, -4
 627 0004 0010     		addi	s0,sp,32
 628              		.cfi_def_cfa 8, 0
 298:Drivers/src/core_riscv.c ****   uint32_t result;
 299:Drivers/src/core_riscv.c **** 
 300:Drivers/src/core_riscv.c ****   __ASM volatile ( "csrr %0," "mimpid" : "=r" (result) );
 629              		.loc 1 300 3
 630              	 #APP
 631              	# 300 "Drivers/src/core_riscv.c" 1
 301              	  return (result);
 632              		csrr a5,mimpid
 633              	# 0 "" 2
 634              	 #NO_APP
 635 000a 2326F4FE 		sw	a5,-20(s0)
 636              		.loc 1 301 10
 637 000e 8327C4FE 		lw	a5,-20(s0)
 302:Drivers/src/core_riscv.c **** }
 638              		.loc 1 302 1
 639 0012 3E85     		mv	a0,a5
 640 0014 7244     		lw	s0,28(sp)
 641              		.cfi_restore 8
 642              		.cfi_def_cfa 2, 32
 643 0016 0561     		addi	sp,sp,32
 644              		.cfi_def_cfa_offset 0
 645 0018 8280     		jr	ra
 646              		.cfi_endproc
 647              	.LFE18:
GAS LISTING C:\Users\SOLDER~1\AppData\Local\Temp\cc5HxSOu.s 			page 17


 649              		.section	.text.__get_MHARTID,"ax",@progbits
 650              		.align	1
 651              		.globl	__get_MHARTID
 653              	__get_MHARTID:
 654              	.LFB19:
 303:Drivers/src/core_riscv.c **** 
 304:Drivers/src/core_riscv.c **** /*********************************************************************
 305:Drivers/src/core_riscv.c ****  * @fn      __get_MHARTID
 306:Drivers/src/core_riscv.c ****  *
 307:Drivers/src/core_riscv.c ****  * @brief   Return Hart ID Register
 308:Drivers/src/core_riscv.c ****  *
 309:Drivers/src/core_riscv.c ****  * @return  mhartid value
 310:Drivers/src/core_riscv.c ****  */
 311:Drivers/src/core_riscv.c **** uint32_t __get_MHARTID(void)
 312:Drivers/src/core_riscv.c **** {
 655              		.loc 1 312 1
 656              		.cfi_startproc
 657 0000 0111     		addi	sp,sp,-32
 658              		.cfi_def_cfa_offset 32
 659 0002 22CE     		sw	s0,28(sp)
 660              		.cfi_offset 8, -4
 661 0004 0010     		addi	s0,sp,32
 662              		.cfi_def_cfa 8, 0
 313:Drivers/src/core_riscv.c ****   uint32_t result;
 314:Drivers/src/core_riscv.c **** 
 315:Drivers/src/core_riscv.c ****   __ASM volatile ( "csrr %0," "mhartid" : "=r" (result) );
 663              		.loc 1 315 3
 664              	 #APP
 665              	# 315 "Drivers/src/core_riscv.c" 1
 316              	  return (result);
 666              		csrr a5,mhartid
 667              	# 0 "" 2
 668              	 #NO_APP
 669 000a 2326F4FE 		sw	a5,-20(s0)
 670              		.loc 1 316 10
 671 000e 8327C4FE 		lw	a5,-20(s0)
 317:Drivers/src/core_riscv.c **** }
 672              		.loc 1 317 1
 673 0012 3E85     		mv	a0,a5
 674 0014 7244     		lw	s0,28(sp)
 675              		.cfi_restore 8
 676              		.cfi_def_cfa 2, 32
 677 0016 0561     		addi	sp,sp,32
 678              		.cfi_def_cfa_offset 0
 679 0018 8280     		jr	ra
 680              		.cfi_endproc
 681              	.LFE19:
 683              		.section	.text.__get_SP,"ax",@progbits
 684              		.align	1
 685              		.globl	__get_SP
 687              	__get_SP:
 688              	.LFB20:
 318:Drivers/src/core_riscv.c **** 
 319:Drivers/src/core_riscv.c **** /*********************************************************************
 320:Drivers/src/core_riscv.c ****  * @fn      __get_SP
 321:Drivers/src/core_riscv.c ****  *
 322:Drivers/src/core_riscv.c ****  * @brief   Return SP Register
GAS LISTING C:\Users\SOLDER~1\AppData\Local\Temp\cc5HxSOu.s 			page 18


 323:Drivers/src/core_riscv.c ****  *
 324:Drivers/src/core_riscv.c ****  * @return  SP value
 325:Drivers/src/core_riscv.c ****  */
 326:Drivers/src/core_riscv.c **** uint32_t __get_SP(void)
 327:Drivers/src/core_riscv.c **** {
 689              		.loc 1 327 1
 690              		.cfi_startproc
 691 0000 0111     		addi	sp,sp,-32
 692              		.cfi_def_cfa_offset 32
 693 0002 22CE     		sw	s0,28(sp)
 694              		.cfi_offset 8, -4
 695 0004 0010     		addi	s0,sp,32
 696              		.cfi_def_cfa 8, 0
 328:Drivers/src/core_riscv.c ****   uint32_t result;
 329:Drivers/src/core_riscv.c **** 
 330:Drivers/src/core_riscv.c ****   __ASM volatile ( "mv %0," "sp" : "=r"(result) : );
 697              		.loc 1 330 3
 698              	 #APP
 699              	# 330 "Drivers/src/core_riscv.c" 1
 331              	  return (result);
 700              		mv a5,sp
 701              	# 0 "" 2
 702              	 #NO_APP
 703 0008 2326F4FE 		sw	a5,-20(s0)
 704              		.loc 1 331 10
 705 000c 8327C4FE 		lw	a5,-20(s0)
 332:Drivers/src/core_riscv.c **** }
 706              		.loc 1 332 1
 707 0010 3E85     		mv	a0,a5
 708 0012 7244     		lw	s0,28(sp)
 709              		.cfi_restore 8
 710              		.cfi_def_cfa 2, 32
 711 0014 0561     		addi	sp,sp,32
 712              		.cfi_def_cfa_offset 0
 713 0016 8280     		jr	ra
 714              		.cfi_endproc
 715              	.LFE20:
 717              		.text
 718              	.Letext0:
 719              		.file 2 "c:\\dev_tools\\ch32_tools\\risc-v_embedded_gcc12\\riscv-none-elf\\include\\machine\\_defa
 720              		.file 3 "c:\\dev_tools\\ch32_tools\\risc-v_embedded_gcc12\\riscv-none-elf\\include\\sys\\_stdint.h
GAS LISTING C:\Users\SOLDER~1\AppData\Local\Temp\cc5HxSOu.s 			page 19

