ARM GAS  C:\Users\SOLDER~1\AppData\Local\Temp\cc1DKCam.s 			page 1


   1              		.cpu cortex-m3
   2              		.arch armv7-m
   3              		.fpu softvfp
   4              		.eabi_attribute 20, 1
   5              		.eabi_attribute 21, 1
   6              		.eabi_attribute 23, 3
   7              		.eabi_attribute 24, 1
   8              		.eabi_attribute 25, 1
   9              		.eabi_attribute 26, 1
  10              		.eabi_attribute 30, 6
  11              		.eabi_attribute 34, 1
  12              		.eabi_attribute 18, 4
  13              		.file	"stm32l1xx_hal_rcc.c"
  14              		.text
  15              	.Ltext0:
  16              		.cfi_sections	.debug_frame
  17              		.section	.text.HAL_RCC_DeInit,"ax",%progbits
  18              		.align	1
  19              		.global	HAL_RCC_DeInit
  20              		.syntax unified
  21              		.thumb
  22              		.thumb_func
  24              	HAL_RCC_DeInit:
  25              	.LFB72:
  26              		.file 1 "Drivers/STM32L1xx_HAL_Driver/Src/stm32l1xx_hal_rcc.c"
   1:Drivers/STM32L1xx_HAL_Driver/Src/stm32l1xx_hal_rcc.c **** /**
   2:Drivers/STM32L1xx_HAL_Driver/Src/stm32l1xx_hal_rcc.c ****   ******************************************************************************
   3:Drivers/STM32L1xx_HAL_Driver/Src/stm32l1xx_hal_rcc.c ****   * @file    stm32l1xx_hal_rcc.c
   4:Drivers/STM32L1xx_HAL_Driver/Src/stm32l1xx_hal_rcc.c ****   * @author  MCD Application Team
   5:Drivers/STM32L1xx_HAL_Driver/Src/stm32l1xx_hal_rcc.c ****   * @brief   RCC HAL module driver.
   6:Drivers/STM32L1xx_HAL_Driver/Src/stm32l1xx_hal_rcc.c ****   *          This file provides firmware functions to manage the following
   7:Drivers/STM32L1xx_HAL_Driver/Src/stm32l1xx_hal_rcc.c ****   *          functionalities of the Reset and Clock Control (RCC) peripheral:
   8:Drivers/STM32L1xx_HAL_Driver/Src/stm32l1xx_hal_rcc.c ****   *           + Initialization and de-initialization functions
   9:Drivers/STM32L1xx_HAL_Driver/Src/stm32l1xx_hal_rcc.c ****   *           + Peripheral Control functions
  10:Drivers/STM32L1xx_HAL_Driver/Src/stm32l1xx_hal_rcc.c ****   *
  11:Drivers/STM32L1xx_HAL_Driver/Src/stm32l1xx_hal_rcc.c ****   @verbatim
  12:Drivers/STM32L1xx_HAL_Driver/Src/stm32l1xx_hal_rcc.c ****   ==============================================================================
  13:Drivers/STM32L1xx_HAL_Driver/Src/stm32l1xx_hal_rcc.c ****                       ##### RCC specific features #####
  14:Drivers/STM32L1xx_HAL_Driver/Src/stm32l1xx_hal_rcc.c ****   ==============================================================================
  15:Drivers/STM32L1xx_HAL_Driver/Src/stm32l1xx_hal_rcc.c ****     [..]
  16:Drivers/STM32L1xx_HAL_Driver/Src/stm32l1xx_hal_rcc.c ****       After reset the device is running from multispeed internal oscillator clock
  17:Drivers/STM32L1xx_HAL_Driver/Src/stm32l1xx_hal_rcc.c ****       (MSI 2.097MHz) with Flash 0 wait state and Flash prefetch buffer is disabled,
  18:Drivers/STM32L1xx_HAL_Driver/Src/stm32l1xx_hal_rcc.c ****       and all peripherals are off except internal SRAM, Flash and JTAG.
  19:Drivers/STM32L1xx_HAL_Driver/Src/stm32l1xx_hal_rcc.c ****       (+) There is no prescaler on High speed (AHB) and Low speed (APB) buses;
  20:Drivers/STM32L1xx_HAL_Driver/Src/stm32l1xx_hal_rcc.c ****           all peripherals mapped on these buses are running at MSI speed.
  21:Drivers/STM32L1xx_HAL_Driver/Src/stm32l1xx_hal_rcc.c ****       (+) The clock for all peripherals is switched off, except the SRAM and FLASH.
  22:Drivers/STM32L1xx_HAL_Driver/Src/stm32l1xx_hal_rcc.c ****       (+) All GPIOs are in input floating state, except the JTAG pins which
  23:Drivers/STM32L1xx_HAL_Driver/Src/stm32l1xx_hal_rcc.c ****           are assigned to be used for debug purpose.
  24:Drivers/STM32L1xx_HAL_Driver/Src/stm32l1xx_hal_rcc.c ****     [..] Once the device started from reset, the user application has to:
  25:Drivers/STM32L1xx_HAL_Driver/Src/stm32l1xx_hal_rcc.c ****       (+) Configure the clock source to be used to drive the System clock
  26:Drivers/STM32L1xx_HAL_Driver/Src/stm32l1xx_hal_rcc.c ****           (if the application needs higher frequency/performance)
  27:Drivers/STM32L1xx_HAL_Driver/Src/stm32l1xx_hal_rcc.c ****       (+) Configure the System clock frequency and Flash settings
  28:Drivers/STM32L1xx_HAL_Driver/Src/stm32l1xx_hal_rcc.c ****       (+) Configure the AHB and APB buses prescalers
  29:Drivers/STM32L1xx_HAL_Driver/Src/stm32l1xx_hal_rcc.c ****       (+) Enable the clock for the peripheral(s) to be used
  30:Drivers/STM32L1xx_HAL_Driver/Src/stm32l1xx_hal_rcc.c ****       (+) Configure the clock source(s) for peripherals whose clocks are not
  31:Drivers/STM32L1xx_HAL_Driver/Src/stm32l1xx_hal_rcc.c ****           derived from the System clock (I2S, RTC, ADC, USB OTG FS/SDIO/RNG)
  32:Drivers/STM32L1xx_HAL_Driver/Src/stm32l1xx_hal_rcc.c ****           (*) SDIO only for STM32L1xxxD devices
ARM GAS  C:\Users\SOLDER~1\AppData\Local\Temp\cc1DKCam.s 			page 2


  33:Drivers/STM32L1xx_HAL_Driver/Src/stm32l1xx_hal_rcc.c **** 
  34:Drivers/STM32L1xx_HAL_Driver/Src/stm32l1xx_hal_rcc.c ****                       ##### RCC Limitations #####
  35:Drivers/STM32L1xx_HAL_Driver/Src/stm32l1xx_hal_rcc.c ****   ==============================================================================
  36:Drivers/STM32L1xx_HAL_Driver/Src/stm32l1xx_hal_rcc.c ****     [..]
  37:Drivers/STM32L1xx_HAL_Driver/Src/stm32l1xx_hal_rcc.c ****       A delay between an RCC peripheral clock enable and the effective peripheral
  38:Drivers/STM32L1xx_HAL_Driver/Src/stm32l1xx_hal_rcc.c ****       enabling should be taken into account in order to manage the peripheral read/write
  39:Drivers/STM32L1xx_HAL_Driver/Src/stm32l1xx_hal_rcc.c ****       from/to registers.
  40:Drivers/STM32L1xx_HAL_Driver/Src/stm32l1xx_hal_rcc.c ****       (+) This delay depends on the peripheral mapping.
  41:Drivers/STM32L1xx_HAL_Driver/Src/stm32l1xx_hal_rcc.c ****         (++) AHB & APB peripherals, 1 dummy read is necessary
  42:Drivers/STM32L1xx_HAL_Driver/Src/stm32l1xx_hal_rcc.c **** 
  43:Drivers/STM32L1xx_HAL_Driver/Src/stm32l1xx_hal_rcc.c ****     [..]
  44:Drivers/STM32L1xx_HAL_Driver/Src/stm32l1xx_hal_rcc.c ****       Workarounds:
  45:Drivers/STM32L1xx_HAL_Driver/Src/stm32l1xx_hal_rcc.c ****       (#) For AHB & APB peripherals, a dummy read to the peripheral register has been
  46:Drivers/STM32L1xx_HAL_Driver/Src/stm32l1xx_hal_rcc.c ****           inserted in each __HAL_RCC_PPP_CLK_ENABLE() macro.
  47:Drivers/STM32L1xx_HAL_Driver/Src/stm32l1xx_hal_rcc.c **** 
  48:Drivers/STM32L1xx_HAL_Driver/Src/stm32l1xx_hal_rcc.c ****   @endverbatim
  49:Drivers/STM32L1xx_HAL_Driver/Src/stm32l1xx_hal_rcc.c ****   ******************************************************************************
  50:Drivers/STM32L1xx_HAL_Driver/Src/stm32l1xx_hal_rcc.c ****   * @attention
  51:Drivers/STM32L1xx_HAL_Driver/Src/stm32l1xx_hal_rcc.c ****   *
  52:Drivers/STM32L1xx_HAL_Driver/Src/stm32l1xx_hal_rcc.c ****   * <h2><center>&copy; Copyright(c) 2017 STMicroelectronics.
  53:Drivers/STM32L1xx_HAL_Driver/Src/stm32l1xx_hal_rcc.c ****   * All rights reserved.</center></h2>
  54:Drivers/STM32L1xx_HAL_Driver/Src/stm32l1xx_hal_rcc.c ****   *
  55:Drivers/STM32L1xx_HAL_Driver/Src/stm32l1xx_hal_rcc.c ****   * This software component is licensed by ST under BSD 3-Clause license,
  56:Drivers/STM32L1xx_HAL_Driver/Src/stm32l1xx_hal_rcc.c ****   * the "License"; You may not use this file except in compliance with the
  57:Drivers/STM32L1xx_HAL_Driver/Src/stm32l1xx_hal_rcc.c ****   * License. You may obtain a copy of the License at:
  58:Drivers/STM32L1xx_HAL_Driver/Src/stm32l1xx_hal_rcc.c ****   *                        opensource.org/licenses/BSD-3-Clause
  59:Drivers/STM32L1xx_HAL_Driver/Src/stm32l1xx_hal_rcc.c ****   *
  60:Drivers/STM32L1xx_HAL_Driver/Src/stm32l1xx_hal_rcc.c ****   ******************************************************************************
  61:Drivers/STM32L1xx_HAL_Driver/Src/stm32l1xx_hal_rcc.c ****   */
  62:Drivers/STM32L1xx_HAL_Driver/Src/stm32l1xx_hal_rcc.c **** 
  63:Drivers/STM32L1xx_HAL_Driver/Src/stm32l1xx_hal_rcc.c **** /* Includes ------------------------------------------------------------------*/
  64:Drivers/STM32L1xx_HAL_Driver/Src/stm32l1xx_hal_rcc.c **** #include "stm32l1xx_hal.h"
  65:Drivers/STM32L1xx_HAL_Driver/Src/stm32l1xx_hal_rcc.c **** 
  66:Drivers/STM32L1xx_HAL_Driver/Src/stm32l1xx_hal_rcc.c **** /** @addtogroup STM32L1xx_HAL_Driver
  67:Drivers/STM32L1xx_HAL_Driver/Src/stm32l1xx_hal_rcc.c ****   * @{
  68:Drivers/STM32L1xx_HAL_Driver/Src/stm32l1xx_hal_rcc.c ****   */
  69:Drivers/STM32L1xx_HAL_Driver/Src/stm32l1xx_hal_rcc.c **** 
  70:Drivers/STM32L1xx_HAL_Driver/Src/stm32l1xx_hal_rcc.c **** /** @defgroup RCC RCC
  71:Drivers/STM32L1xx_HAL_Driver/Src/stm32l1xx_hal_rcc.c **** * @brief RCC HAL module driver
  72:Drivers/STM32L1xx_HAL_Driver/Src/stm32l1xx_hal_rcc.c ****   * @{
  73:Drivers/STM32L1xx_HAL_Driver/Src/stm32l1xx_hal_rcc.c ****   */
  74:Drivers/STM32L1xx_HAL_Driver/Src/stm32l1xx_hal_rcc.c **** 
  75:Drivers/STM32L1xx_HAL_Driver/Src/stm32l1xx_hal_rcc.c **** #ifdef HAL_RCC_MODULE_ENABLED
  76:Drivers/STM32L1xx_HAL_Driver/Src/stm32l1xx_hal_rcc.c **** 
  77:Drivers/STM32L1xx_HAL_Driver/Src/stm32l1xx_hal_rcc.c **** /* Private typedef -----------------------------------------------------------*/
  78:Drivers/STM32L1xx_HAL_Driver/Src/stm32l1xx_hal_rcc.c **** /* Private define ------------------------------------------------------------*/
  79:Drivers/STM32L1xx_HAL_Driver/Src/stm32l1xx_hal_rcc.c **** /* Private macro -------------------------------------------------------------*/
  80:Drivers/STM32L1xx_HAL_Driver/Src/stm32l1xx_hal_rcc.c **** /** @defgroup RCC_Private_Macros RCC Private Macros
  81:Drivers/STM32L1xx_HAL_Driver/Src/stm32l1xx_hal_rcc.c ****   * @{
  82:Drivers/STM32L1xx_HAL_Driver/Src/stm32l1xx_hal_rcc.c ****   */
  83:Drivers/STM32L1xx_HAL_Driver/Src/stm32l1xx_hal_rcc.c **** 
  84:Drivers/STM32L1xx_HAL_Driver/Src/stm32l1xx_hal_rcc.c **** #define MCO1_CLK_ENABLE()     __HAL_RCC_GPIOA_CLK_ENABLE()
  85:Drivers/STM32L1xx_HAL_Driver/Src/stm32l1xx_hal_rcc.c **** #define MCO1_GPIO_PORT        GPIOA
  86:Drivers/STM32L1xx_HAL_Driver/Src/stm32l1xx_hal_rcc.c **** #define MCO1_PIN              GPIO_PIN_8
  87:Drivers/STM32L1xx_HAL_Driver/Src/stm32l1xx_hal_rcc.c **** 
  88:Drivers/STM32L1xx_HAL_Driver/Src/stm32l1xx_hal_rcc.c **** /**
  89:Drivers/STM32L1xx_HAL_Driver/Src/stm32l1xx_hal_rcc.c ****   * @}
ARM GAS  C:\Users\SOLDER~1\AppData\Local\Temp\cc1DKCam.s 			page 3


  90:Drivers/STM32L1xx_HAL_Driver/Src/stm32l1xx_hal_rcc.c ****   */
  91:Drivers/STM32L1xx_HAL_Driver/Src/stm32l1xx_hal_rcc.c **** 
  92:Drivers/STM32L1xx_HAL_Driver/Src/stm32l1xx_hal_rcc.c **** /* Private variables ---------------------------------------------------------*/
  93:Drivers/STM32L1xx_HAL_Driver/Src/stm32l1xx_hal_rcc.c **** /** @defgroup RCC_Private_Variables RCC Private Variables
  94:Drivers/STM32L1xx_HAL_Driver/Src/stm32l1xx_hal_rcc.c ****   * @{
  95:Drivers/STM32L1xx_HAL_Driver/Src/stm32l1xx_hal_rcc.c ****   */
  96:Drivers/STM32L1xx_HAL_Driver/Src/stm32l1xx_hal_rcc.c **** extern const uint8_t PLLMulTable[];          /* Defined in CMSIS (system_stm32l0xx.c)*/
  97:Drivers/STM32L1xx_HAL_Driver/Src/stm32l1xx_hal_rcc.c **** /**
  98:Drivers/STM32L1xx_HAL_Driver/Src/stm32l1xx_hal_rcc.c ****   * @}
  99:Drivers/STM32L1xx_HAL_Driver/Src/stm32l1xx_hal_rcc.c ****   */
 100:Drivers/STM32L1xx_HAL_Driver/Src/stm32l1xx_hal_rcc.c **** 
 101:Drivers/STM32L1xx_HAL_Driver/Src/stm32l1xx_hal_rcc.c **** /* Private function prototypes -----------------------------------------------*/
 102:Drivers/STM32L1xx_HAL_Driver/Src/stm32l1xx_hal_rcc.c **** /** @defgroup RCC_Private_Functions RCC Private Functions
 103:Drivers/STM32L1xx_HAL_Driver/Src/stm32l1xx_hal_rcc.c ****   * @{
 104:Drivers/STM32L1xx_HAL_Driver/Src/stm32l1xx_hal_rcc.c ****   */
 105:Drivers/STM32L1xx_HAL_Driver/Src/stm32l1xx_hal_rcc.c **** static HAL_StatusTypeDef RCC_SetFlashLatencyFromMSIRange(uint32_t MSIrange);
 106:Drivers/STM32L1xx_HAL_Driver/Src/stm32l1xx_hal_rcc.c **** /**
 107:Drivers/STM32L1xx_HAL_Driver/Src/stm32l1xx_hal_rcc.c ****   * @}
 108:Drivers/STM32L1xx_HAL_Driver/Src/stm32l1xx_hal_rcc.c ****   */
 109:Drivers/STM32L1xx_HAL_Driver/Src/stm32l1xx_hal_rcc.c **** 
 110:Drivers/STM32L1xx_HAL_Driver/Src/stm32l1xx_hal_rcc.c **** /* Exported functions ---------------------------------------------------------*/
 111:Drivers/STM32L1xx_HAL_Driver/Src/stm32l1xx_hal_rcc.c **** 
 112:Drivers/STM32L1xx_HAL_Driver/Src/stm32l1xx_hal_rcc.c **** /** @defgroup RCC_Exported_Functions RCC Exported Functions
 113:Drivers/STM32L1xx_HAL_Driver/Src/stm32l1xx_hal_rcc.c ****   * @{
 114:Drivers/STM32L1xx_HAL_Driver/Src/stm32l1xx_hal_rcc.c ****   */
 115:Drivers/STM32L1xx_HAL_Driver/Src/stm32l1xx_hal_rcc.c **** 
 116:Drivers/STM32L1xx_HAL_Driver/Src/stm32l1xx_hal_rcc.c **** /** @defgroup RCC_Exported_Functions_Group1 Initialization and de-initialization functions
 117:Drivers/STM32L1xx_HAL_Driver/Src/stm32l1xx_hal_rcc.c ****   *  @brief    Initialization and Configuration functions
 118:Drivers/STM32L1xx_HAL_Driver/Src/stm32l1xx_hal_rcc.c ****   *
 119:Drivers/STM32L1xx_HAL_Driver/Src/stm32l1xx_hal_rcc.c ****   @verbatim
 120:Drivers/STM32L1xx_HAL_Driver/Src/stm32l1xx_hal_rcc.c ****   ===============================================================================
 121:Drivers/STM32L1xx_HAL_Driver/Src/stm32l1xx_hal_rcc.c ****            ##### Initialization and de-initialization functions #####
 122:Drivers/STM32L1xx_HAL_Driver/Src/stm32l1xx_hal_rcc.c ****   ===============================================================================
 123:Drivers/STM32L1xx_HAL_Driver/Src/stm32l1xx_hal_rcc.c ****     [..]
 124:Drivers/STM32L1xx_HAL_Driver/Src/stm32l1xx_hal_rcc.c ****       This section provides functions allowing to configure the internal/external oscillators
 125:Drivers/STM32L1xx_HAL_Driver/Src/stm32l1xx_hal_rcc.c ****       (MSI, HSE, HSI, LSE, LSI, PLL, CSS and MCO) and the System buses clocks (SYSCLK, AHB, APB1
 126:Drivers/STM32L1xx_HAL_Driver/Src/stm32l1xx_hal_rcc.c ****       and APB2).
 127:Drivers/STM32L1xx_HAL_Driver/Src/stm32l1xx_hal_rcc.c **** 
 128:Drivers/STM32L1xx_HAL_Driver/Src/stm32l1xx_hal_rcc.c ****     [..] Internal/external clock and PLL configuration
 129:Drivers/STM32L1xx_HAL_Driver/Src/stm32l1xx_hal_rcc.c ****       (#) MSI (Multispeed internal), Seven frequency ranges are available: 65.536 kHz,
 130:Drivers/STM32L1xx_HAL_Driver/Src/stm32l1xx_hal_rcc.c ****           131.072 kHz, 262.144 kHz, 524.288 kHz, 1.048 MHz, 2.097 MHz (default value) and 4.194 MHz
 131:Drivers/STM32L1xx_HAL_Driver/Src/stm32l1xx_hal_rcc.c **** 
 132:Drivers/STM32L1xx_HAL_Driver/Src/stm32l1xx_hal_rcc.c ****       (#) HSI (high-speed internal), 16 MHz factory-trimmed RC used directly or through
 133:Drivers/STM32L1xx_HAL_Driver/Src/stm32l1xx_hal_rcc.c ****           the PLL as System clock source.
 134:Drivers/STM32L1xx_HAL_Driver/Src/stm32l1xx_hal_rcc.c ****       (#) LSI (low-speed internal), ~37 KHz low consumption RC used as IWDG and/or RTC
 135:Drivers/STM32L1xx_HAL_Driver/Src/stm32l1xx_hal_rcc.c ****           clock source.
 136:Drivers/STM32L1xx_HAL_Driver/Src/stm32l1xx_hal_rcc.c **** 
 137:Drivers/STM32L1xx_HAL_Driver/Src/stm32l1xx_hal_rcc.c ****       (#) HSE (high-speed external), 1 to 24 MHz crystal oscillator used directly or
 138:Drivers/STM32L1xx_HAL_Driver/Src/stm32l1xx_hal_rcc.c ****           through the PLL as System clock source. Can be used also as RTC clock source.
 139:Drivers/STM32L1xx_HAL_Driver/Src/stm32l1xx_hal_rcc.c **** 
 140:Drivers/STM32L1xx_HAL_Driver/Src/stm32l1xx_hal_rcc.c ****       (#) LSE (low-speed external), 32 KHz oscillator used as RTC clock source.
 141:Drivers/STM32L1xx_HAL_Driver/Src/stm32l1xx_hal_rcc.c **** 
 142:Drivers/STM32L1xx_HAL_Driver/Src/stm32l1xx_hal_rcc.c ****       (#) PLL (clocked by HSI or HSE), featuring different output clocks:
 143:Drivers/STM32L1xx_HAL_Driver/Src/stm32l1xx_hal_rcc.c ****         (++) The first output is used to generate the high speed system clock (up to 32 MHz)
 144:Drivers/STM32L1xx_HAL_Driver/Src/stm32l1xx_hal_rcc.c ****         (++) The second output is used to generate the clock for the USB OTG FS (48 MHz)
 145:Drivers/STM32L1xx_HAL_Driver/Src/stm32l1xx_hal_rcc.c **** 
 146:Drivers/STM32L1xx_HAL_Driver/Src/stm32l1xx_hal_rcc.c ****       (#) CSS (Clock security system), once enable using the macro __HAL_RCC_CSS_ENABLE()
ARM GAS  C:\Users\SOLDER~1\AppData\Local\Temp\cc1DKCam.s 			page 4


 147:Drivers/STM32L1xx_HAL_Driver/Src/stm32l1xx_hal_rcc.c ****           and if a HSE clock failure occurs(HSE used directly or through PLL as System
 148:Drivers/STM32L1xx_HAL_Driver/Src/stm32l1xx_hal_rcc.c ****           clock source), the System clocks automatically switched to MSI and an interrupt
 149:Drivers/STM32L1xx_HAL_Driver/Src/stm32l1xx_hal_rcc.c ****           is generated if enabled. The interrupt is linked to the Cortex-M3 NMI
 150:Drivers/STM32L1xx_HAL_Driver/Src/stm32l1xx_hal_rcc.c ****           (Non-Maskable Interrupt) exception vector.
 151:Drivers/STM32L1xx_HAL_Driver/Src/stm32l1xx_hal_rcc.c **** 
 152:Drivers/STM32L1xx_HAL_Driver/Src/stm32l1xx_hal_rcc.c ****       (#) MCO1 (microcontroller clock output), used to output SYSCLK, HSI, LSI, MSI, LSE,
 153:Drivers/STM32L1xx_HAL_Driver/Src/stm32l1xx_hal_rcc.c ****           HSE or PLL clock (through a configurable prescaler) on PA8 pin.
 154:Drivers/STM32L1xx_HAL_Driver/Src/stm32l1xx_hal_rcc.c **** 
 155:Drivers/STM32L1xx_HAL_Driver/Src/stm32l1xx_hal_rcc.c ****     [..] System, AHB and APB buses clocks configuration
 156:Drivers/STM32L1xx_HAL_Driver/Src/stm32l1xx_hal_rcc.c ****       (#) Several clock sources can be used to drive the System clock (SYSCLK): MSI, HSI,
 157:Drivers/STM32L1xx_HAL_Driver/Src/stm32l1xx_hal_rcc.c ****           HSE and PLL.
 158:Drivers/STM32L1xx_HAL_Driver/Src/stm32l1xx_hal_rcc.c ****           The AHB clock (HCLK) is derived from System clock through configurable
 159:Drivers/STM32L1xx_HAL_Driver/Src/stm32l1xx_hal_rcc.c ****           prescaler and used to clock the CPU, memory and peripherals mapped
 160:Drivers/STM32L1xx_HAL_Driver/Src/stm32l1xx_hal_rcc.c ****           on AHB bus (DMA, GPIO...). APB1 (PCLK1) and APB2 (PCLK2) clocks are derived
 161:Drivers/STM32L1xx_HAL_Driver/Src/stm32l1xx_hal_rcc.c ****           from AHB clock through configurable prescalers and used to clock
 162:Drivers/STM32L1xx_HAL_Driver/Src/stm32l1xx_hal_rcc.c ****           the peripherals mapped on these buses. You can use
 163:Drivers/STM32L1xx_HAL_Driver/Src/stm32l1xx_hal_rcc.c ****           "@ref HAL_RCC_GetSysClockFreq()" function to retrieve the frequencies of these clocks.
 164:Drivers/STM32L1xx_HAL_Driver/Src/stm32l1xx_hal_rcc.c **** 
 165:Drivers/STM32L1xx_HAL_Driver/Src/stm32l1xx_hal_rcc.c ****       -@- All the peripheral clocks are derived from the System clock (SYSCLK) except:
 166:Drivers/STM32L1xx_HAL_Driver/Src/stm32l1xx_hal_rcc.c ****           (+@) RTC: RTC clock can be derived either from the LSI, LSE or HSE clock
 167:Drivers/STM32L1xx_HAL_Driver/Src/stm32l1xx_hal_rcc.c ****               divided by 2 to 16. You have to use @ref __HAL_RCC_RTC_CONFIG() and @ref __HAL_RCC_RT
 168:Drivers/STM32L1xx_HAL_Driver/Src/stm32l1xx_hal_rcc.c ****               macros to configure this clock.
 169:Drivers/STM32L1xx_HAL_Driver/Src/stm32l1xx_hal_rcc.c ****           (+@) LCD: LCD clock can be derived either from the LSI, LSE or HSE clock
 170:Drivers/STM32L1xx_HAL_Driver/Src/stm32l1xx_hal_rcc.c ****               divided by 2 to 16. You have to use @ref __HAL_RCC_LCD_CONFIG()
 171:Drivers/STM32L1xx_HAL_Driver/Src/stm32l1xx_hal_rcc.c ****               macros to configure this clock.
 172:Drivers/STM32L1xx_HAL_Driver/Src/stm32l1xx_hal_rcc.c ****           (+@) USB OTG FS: USB OTG FS require a frequency equal to 48 MHz
 173:Drivers/STM32L1xx_HAL_Driver/Src/stm32l1xx_hal_rcc.c ****               to work correctly. This clock is derived of the main PLL through PLL Multiplier.
 174:Drivers/STM32L1xx_HAL_Driver/Src/stm32l1xx_hal_rcc.c **** 
 175:Drivers/STM32L1xx_HAL_Driver/Src/stm32l1xx_hal_rcc.c ****           (+@) IWDG clock which is always the LSI clock.
 176:Drivers/STM32L1xx_HAL_Driver/Src/stm32l1xx_hal_rcc.c **** 
 177:Drivers/STM32L1xx_HAL_Driver/Src/stm32l1xx_hal_rcc.c ****       (#) The maximum frequency of the SYSCLK and HCLK is 32 MHz, PCLK2 32 MHz
 178:Drivers/STM32L1xx_HAL_Driver/Src/stm32l1xx_hal_rcc.c ****           and PCLK1 32 MHz. Depending on the device voltage range, the maximum
 179:Drivers/STM32L1xx_HAL_Driver/Src/stm32l1xx_hal_rcc.c ****           frequency should be adapted accordingly.
 180:Drivers/STM32L1xx_HAL_Driver/Src/stm32l1xx_hal_rcc.c ****   @endverbatim
 181:Drivers/STM32L1xx_HAL_Driver/Src/stm32l1xx_hal_rcc.c ****   * @{
 182:Drivers/STM32L1xx_HAL_Driver/Src/stm32l1xx_hal_rcc.c ****   */
 183:Drivers/STM32L1xx_HAL_Driver/Src/stm32l1xx_hal_rcc.c **** 
 184:Drivers/STM32L1xx_HAL_Driver/Src/stm32l1xx_hal_rcc.c **** /*
 185:Drivers/STM32L1xx_HAL_Driver/Src/stm32l1xx_hal_rcc.c ****   Additional consideration on the HCLK based on Latency settings:
 186:Drivers/STM32L1xx_HAL_Driver/Src/stm32l1xx_hal_rcc.c ****   +----------------------------------------------------------------------+
 187:Drivers/STM32L1xx_HAL_Driver/Src/stm32l1xx_hal_rcc.c ****   | Latency       |                HCLK clock frequency (MHz)            |
 188:Drivers/STM32L1xx_HAL_Driver/Src/stm32l1xx_hal_rcc.c ****   |               |------------------------------------------------------|
 189:Drivers/STM32L1xx_HAL_Driver/Src/stm32l1xx_hal_rcc.c ****   |               | voltage range 1  | voltage range 2 | voltage range 3 |
 190:Drivers/STM32L1xx_HAL_Driver/Src/stm32l1xx_hal_rcc.c ****   |               |      1.8 V       |     1.5 V       |      1.2 V      |
 191:Drivers/STM32L1xx_HAL_Driver/Src/stm32l1xx_hal_rcc.c ****   |---------------|------------------|-----------------|-----------------|
 192:Drivers/STM32L1xx_HAL_Driver/Src/stm32l1xx_hal_rcc.c ****   |0WS(1CPU cycle)| 0 < HCLK <= 16   | 0 < HCLK <= 8   | 0 < HCLK <= 2   |
 193:Drivers/STM32L1xx_HAL_Driver/Src/stm32l1xx_hal_rcc.c ****   |---------------|------------------|-----------------|-----------------|
 194:Drivers/STM32L1xx_HAL_Driver/Src/stm32l1xx_hal_rcc.c ****   |1WS(2CPU cycle)| 16 < HCLK <= 32  | 8 < HCLK <= 16  | 2 < HCLK <= 4   |
 195:Drivers/STM32L1xx_HAL_Driver/Src/stm32l1xx_hal_rcc.c ****   +----------------------------------------------------------------------+
 196:Drivers/STM32L1xx_HAL_Driver/Src/stm32l1xx_hal_rcc.c **** 
 197:Drivers/STM32L1xx_HAL_Driver/Src/stm32l1xx_hal_rcc.c ****   The following table gives the different clock source frequencies depending on the product
 198:Drivers/STM32L1xx_HAL_Driver/Src/stm32l1xx_hal_rcc.c ****   voltage range:
 199:Drivers/STM32L1xx_HAL_Driver/Src/stm32l1xx_hal_rcc.c ****   +------------------------------------------------------------------------------------------+
 200:Drivers/STM32L1xx_HAL_Driver/Src/stm32l1xx_hal_rcc.c ****   | Product voltage |                    Clock frequency                                     |
 201:Drivers/STM32L1xx_HAL_Driver/Src/stm32l1xx_hal_rcc.c ****   |                 |------------------|-----------------------------|-----------------------|
 202:Drivers/STM32L1xx_HAL_Driver/Src/stm32l1xx_hal_rcc.c ****   |      range      |   MSI   |   HSI  |              HSE            |          PLL          |
 203:Drivers/STM32L1xx_HAL_Driver/Src/stm32l1xx_hal_rcc.c ****   |-----------------|---------|--------|-----------------------------|-----------------------|
ARM GAS  C:\Users\SOLDER~1\AppData\Local\Temp\cc1DKCam.s 			page 5


 204:Drivers/STM32L1xx_HAL_Driver/Src/stm32l1xx_hal_rcc.c ****   | Range 1 (1.8 V) | 4.2 MHz | 16 MHz | HSE 32 MHz (external clock) |         32 MHz        |
 205:Drivers/STM32L1xx_HAL_Driver/Src/stm32l1xx_hal_rcc.c ****   |                 |         |        |      or 24 MHz (crystal)    | (PLLVCO max = 96 MHz) |
 206:Drivers/STM32L1xx_HAL_Driver/Src/stm32l1xx_hal_rcc.c ****   |-----------------|---------|--------|-----------------------------|-----------------------|
 207:Drivers/STM32L1xx_HAL_Driver/Src/stm32l1xx_hal_rcc.c ****   | Range 2 (1.5 V) | 4.2 MHz | 16 MHz |         16 MHz              |         16 MHz        |
 208:Drivers/STM32L1xx_HAL_Driver/Src/stm32l1xx_hal_rcc.c ****   |                 |         |        |                             | (PLLVCO max = 48 MHz) |
 209:Drivers/STM32L1xx_HAL_Driver/Src/stm32l1xx_hal_rcc.c ****   |-----------------|---------|--------|-----------------------------|-----------------------|
 210:Drivers/STM32L1xx_HAL_Driver/Src/stm32l1xx_hal_rcc.c ****   | Range 3 (1.2 V) | 4.2 MHz |   NA   |         8 MHz               |           4 MHz       |
 211:Drivers/STM32L1xx_HAL_Driver/Src/stm32l1xx_hal_rcc.c ****   |                 |         |        |                             | (PLLVCO max = 24 MHz) |
 212:Drivers/STM32L1xx_HAL_Driver/Src/stm32l1xx_hal_rcc.c ****   +------------------------------------------------------------------------------------------+
 213:Drivers/STM32L1xx_HAL_Driver/Src/stm32l1xx_hal_rcc.c ****   */
 214:Drivers/STM32L1xx_HAL_Driver/Src/stm32l1xx_hal_rcc.c **** 
 215:Drivers/STM32L1xx_HAL_Driver/Src/stm32l1xx_hal_rcc.c **** /**
 216:Drivers/STM32L1xx_HAL_Driver/Src/stm32l1xx_hal_rcc.c ****   * @brief  Resets the RCC clock configuration to the default reset state.
 217:Drivers/STM32L1xx_HAL_Driver/Src/stm32l1xx_hal_rcc.c ****   * @note   The default reset state of the clock configuration is given below:
 218:Drivers/STM32L1xx_HAL_Driver/Src/stm32l1xx_hal_rcc.c ****   *            - MSI ON and used as system clock source
 219:Drivers/STM32L1xx_HAL_Driver/Src/stm32l1xx_hal_rcc.c ****   *            - HSI, HSE and PLL  OFF
 220:Drivers/STM32L1xx_HAL_Driver/Src/stm32l1xx_hal_rcc.c ****   *            - AHB, APB1 and APB2 prescaler set to 1.
 221:Drivers/STM32L1xx_HAL_Driver/Src/stm32l1xx_hal_rcc.c ****   *            - CSS and MCO1 OFF
 222:Drivers/STM32L1xx_HAL_Driver/Src/stm32l1xx_hal_rcc.c ****   *            - All interrupts disabled
 223:Drivers/STM32L1xx_HAL_Driver/Src/stm32l1xx_hal_rcc.c ****   * @note   This function does not modify the configuration of the
 224:Drivers/STM32L1xx_HAL_Driver/Src/stm32l1xx_hal_rcc.c ****   *            - Peripheral clocks
 225:Drivers/STM32L1xx_HAL_Driver/Src/stm32l1xx_hal_rcc.c ****   *            - LSI, LSE and RTC clocks
 226:Drivers/STM32L1xx_HAL_Driver/Src/stm32l1xx_hal_rcc.c ****   * @retval HAL status
 227:Drivers/STM32L1xx_HAL_Driver/Src/stm32l1xx_hal_rcc.c ****   */
 228:Drivers/STM32L1xx_HAL_Driver/Src/stm32l1xx_hal_rcc.c **** HAL_StatusTypeDef HAL_RCC_DeInit(void)
 229:Drivers/STM32L1xx_HAL_Driver/Src/stm32l1xx_hal_rcc.c **** {
  27              		.loc 1 229 1
  28              		.cfi_startproc
  29              		@ args = 0, pretend = 0, frame = 8
  30              		@ frame_needed = 1, uses_anonymous_args = 0
  31 0000 80B5     		push	{r7, lr}
  32              		.cfi_def_cfa_offset 8
  33              		.cfi_offset 7, -8
  34              		.cfi_offset 14, -4
  35 0002 82B0     		sub	sp, sp, #8
  36              		.cfi_def_cfa_offset 16
  37 0004 00AF     		add	r7, sp, #0
  38              		.cfi_def_cfa_register 7
 230:Drivers/STM32L1xx_HAL_Driver/Src/stm32l1xx_hal_rcc.c ****   uint32_t tickstart;
 231:Drivers/STM32L1xx_HAL_Driver/Src/stm32l1xx_hal_rcc.c ****   HAL_StatusTypeDef status;
 232:Drivers/STM32L1xx_HAL_Driver/Src/stm32l1xx_hal_rcc.c **** 
 233:Drivers/STM32L1xx_HAL_Driver/Src/stm32l1xx_hal_rcc.c ****   /* Set MSIClockRange, HSITRIM and MSITRIM bits to the reset values */
 234:Drivers/STM32L1xx_HAL_Driver/Src/stm32l1xx_hal_rcc.c ****   MODIFY_REG(RCC->ICSCR, (RCC_ICSCR_MSITRIM | RCC_ICSCR_HSITRIM | RCC_ICSCR_MSIRANGE), \
  39              		.loc 1 234 3
  40 0006 3F4B     		ldr	r3, .L10
  41 0008 5B68     		ldr	r3, [r3, #4]
  42 000a 03F0FF13 		and	r3, r3, #16711935
  43 000e 3D4A     		ldr	r2, .L10
  44 0010 43F43043 		orr	r3, r3, #45056
  45 0014 5360     		str	r3, [r2, #4]
 235:Drivers/STM32L1xx_HAL_Driver/Src/stm32l1xx_hal_rcc.c ****             ((RCC_MSICALIBRATION_DEFAULT << RCC_ICSCR_MSITRIM_Pos) | (RCC_HSICALIBRATION_DEFAULT <<
 236:Drivers/STM32L1xx_HAL_Driver/Src/stm32l1xx_hal_rcc.c **** 
 237:Drivers/STM32L1xx_HAL_Driver/Src/stm32l1xx_hal_rcc.c ****   /* Set MSION bit */
 238:Drivers/STM32L1xx_HAL_Driver/Src/stm32l1xx_hal_rcc.c ****   SET_BIT(RCC->CR, RCC_CR_MSION);
  46              		.loc 1 238 3
  47 0016 3B4B     		ldr	r3, .L10
  48 0018 1B68     		ldr	r3, [r3]
ARM GAS  C:\Users\SOLDER~1\AppData\Local\Temp\cc1DKCam.s 			page 6


  49 001a 3A4A     		ldr	r2, .L10
  50 001c 43F48073 		orr	r3, r3, #256
  51 0020 1360     		str	r3, [r2]
 239:Drivers/STM32L1xx_HAL_Driver/Src/stm32l1xx_hal_rcc.c **** 
 240:Drivers/STM32L1xx_HAL_Driver/Src/stm32l1xx_hal_rcc.c ****   /* Get Start Tick*/
 241:Drivers/STM32L1xx_HAL_Driver/Src/stm32l1xx_hal_rcc.c ****   tickstart = HAL_GetTick();
  52              		.loc 1 241 15
  53 0022 FFF7FEFF 		bl	HAL_GetTick
  54 0026 7860     		str	r0, [r7, #4]
 242:Drivers/STM32L1xx_HAL_Driver/Src/stm32l1xx_hal_rcc.c **** 
 243:Drivers/STM32L1xx_HAL_Driver/Src/stm32l1xx_hal_rcc.c ****   /* Wait till MSI is ready */
 244:Drivers/STM32L1xx_HAL_Driver/Src/stm32l1xx_hal_rcc.c ****   while (READ_BIT(RCC->CR, RCC_CR_MSIRDY) == 0U)
  55              		.loc 1 244 9
  56 0028 08E0     		b	.L2
  57              	.L4:
 245:Drivers/STM32L1xx_HAL_Driver/Src/stm32l1xx_hal_rcc.c ****   {
 246:Drivers/STM32L1xx_HAL_Driver/Src/stm32l1xx_hal_rcc.c ****     if ((HAL_GetTick() - tickstart) > MSI_TIMEOUT_VALUE)
  58              		.loc 1 246 10
  59 002a FFF7FEFF 		bl	HAL_GetTick
  60 002e 0246     		mov	r2, r0
  61              		.loc 1 246 24
  62 0030 7B68     		ldr	r3, [r7, #4]
  63 0032 D31A     		subs	r3, r2, r3
  64              		.loc 1 246 8
  65 0034 022B     		cmp	r3, #2
  66 0036 01D9     		bls	.L2
 247:Drivers/STM32L1xx_HAL_Driver/Src/stm32l1xx_hal_rcc.c ****     {
 248:Drivers/STM32L1xx_HAL_Driver/Src/stm32l1xx_hal_rcc.c ****       return HAL_TIMEOUT;
  67              		.loc 1 248 14
  68 0038 0323     		movs	r3, #3
  69 003a 5EE0     		b	.L3
  70              	.L2:
 244:Drivers/STM32L1xx_HAL_Driver/Src/stm32l1xx_hal_rcc.c ****   {
  71              		.loc 1 244 10
  72 003c 314B     		ldr	r3, .L10
  73 003e 1B68     		ldr	r3, [r3]
  74 0040 03F40073 		and	r3, r3, #512
 244:Drivers/STM32L1xx_HAL_Driver/Src/stm32l1xx_hal_rcc.c ****   {
  75              		.loc 1 244 9
  76 0044 002B     		cmp	r3, #0
  77 0046 F0D0     		beq	.L4
 249:Drivers/STM32L1xx_HAL_Driver/Src/stm32l1xx_hal_rcc.c ****     }
 250:Drivers/STM32L1xx_HAL_Driver/Src/stm32l1xx_hal_rcc.c ****   }
 251:Drivers/STM32L1xx_HAL_Driver/Src/stm32l1xx_hal_rcc.c **** 
 252:Drivers/STM32L1xx_HAL_Driver/Src/stm32l1xx_hal_rcc.c ****   /* Switch SYSCLK to MSI*/
 253:Drivers/STM32L1xx_HAL_Driver/Src/stm32l1xx_hal_rcc.c ****   CLEAR_BIT(RCC->CFGR, RCC_CFGR_SW);
  78              		.loc 1 253 3
  79 0048 2E4B     		ldr	r3, .L10
  80 004a 9B68     		ldr	r3, [r3, #8]
  81 004c 2D4A     		ldr	r2, .L10
  82 004e 23F00303 		bic	r3, r3, #3
  83 0052 9360     		str	r3, [r2, #8]
 254:Drivers/STM32L1xx_HAL_Driver/Src/stm32l1xx_hal_rcc.c **** 
 255:Drivers/STM32L1xx_HAL_Driver/Src/stm32l1xx_hal_rcc.c ****   /* Wait till MSI as SYSCLK status is ready */
 256:Drivers/STM32L1xx_HAL_Driver/Src/stm32l1xx_hal_rcc.c ****   while (READ_BIT(RCC->CFGR, RCC_CFGR_SWS) != 0U)
  84              		.loc 1 256 9
  85 0054 0AE0     		b	.L5
ARM GAS  C:\Users\SOLDER~1\AppData\Local\Temp\cc1DKCam.s 			page 7


  86              	.L6:
 257:Drivers/STM32L1xx_HAL_Driver/Src/stm32l1xx_hal_rcc.c ****   {
 258:Drivers/STM32L1xx_HAL_Driver/Src/stm32l1xx_hal_rcc.c ****     if ((HAL_GetTick() - tickstart) > CLOCKSWITCH_TIMEOUT_VALUE)
  87              		.loc 1 258 10
  88 0056 FFF7FEFF 		bl	HAL_GetTick
  89 005a 0246     		mov	r2, r0
  90              		.loc 1 258 24
  91 005c 7B68     		ldr	r3, [r7, #4]
  92 005e D31A     		subs	r3, r2, r3
  93              		.loc 1 258 8
  94 0060 41F28832 		movw	r2, #5000
  95 0064 9342     		cmp	r3, r2
  96 0066 01D9     		bls	.L5
 259:Drivers/STM32L1xx_HAL_Driver/Src/stm32l1xx_hal_rcc.c ****     {
 260:Drivers/STM32L1xx_HAL_Driver/Src/stm32l1xx_hal_rcc.c ****       return HAL_TIMEOUT;
  97              		.loc 1 260 14
  98 0068 0323     		movs	r3, #3
  99 006a 46E0     		b	.L3
 100              	.L5:
 256:Drivers/STM32L1xx_HAL_Driver/Src/stm32l1xx_hal_rcc.c ****   {
 101              		.loc 1 256 10
 102 006c 254B     		ldr	r3, .L10
 103 006e 9B68     		ldr	r3, [r3, #8]
 104 0070 03F00C03 		and	r3, r3, #12
 256:Drivers/STM32L1xx_HAL_Driver/Src/stm32l1xx_hal_rcc.c ****   {
 105              		.loc 1 256 9
 106 0074 002B     		cmp	r3, #0
 107 0076 EED1     		bne	.L6
 261:Drivers/STM32L1xx_HAL_Driver/Src/stm32l1xx_hal_rcc.c ****     }
 262:Drivers/STM32L1xx_HAL_Driver/Src/stm32l1xx_hal_rcc.c ****   }
 263:Drivers/STM32L1xx_HAL_Driver/Src/stm32l1xx_hal_rcc.c **** 
 264:Drivers/STM32L1xx_HAL_Driver/Src/stm32l1xx_hal_rcc.c ****   /* Update the SystemCoreClock global variable */
 265:Drivers/STM32L1xx_HAL_Driver/Src/stm32l1xx_hal_rcc.c ****   SystemCoreClock = MSI_VALUE;
 108              		.loc 1 265 19
 109 0078 234B     		ldr	r3, .L10+4
 110 007a 244A     		ldr	r2, .L10+8
 111 007c 1A60     		str	r2, [r3]
 266:Drivers/STM32L1xx_HAL_Driver/Src/stm32l1xx_hal_rcc.c **** 
 267:Drivers/STM32L1xx_HAL_Driver/Src/stm32l1xx_hal_rcc.c ****   /* Configure the source of time base considering new system clock settings  */
 268:Drivers/STM32L1xx_HAL_Driver/Src/stm32l1xx_hal_rcc.c ****   status = HAL_InitTick(uwTickPrio);
 112              		.loc 1 268 12
 113 007e 244B     		ldr	r3, .L10+12
 114 0080 1B68     		ldr	r3, [r3]
 115 0082 1846     		mov	r0, r3
 116 0084 FFF7FEFF 		bl	HAL_InitTick
 117 0088 0346     		mov	r3, r0
 118 008a FB70     		strb	r3, [r7, #3]
 269:Drivers/STM32L1xx_HAL_Driver/Src/stm32l1xx_hal_rcc.c ****   if(status != HAL_OK)
 119              		.loc 1 269 5
 120 008c FB78     		ldrb	r3, [r7, #3]	@ zero_extendqisi2
 121 008e 002B     		cmp	r3, #0
 122 0090 01D0     		beq	.L7
 270:Drivers/STM32L1xx_HAL_Driver/Src/stm32l1xx_hal_rcc.c ****   {
 271:Drivers/STM32L1xx_HAL_Driver/Src/stm32l1xx_hal_rcc.c ****     return status;
 123              		.loc 1 271 12
 124 0092 FB78     		ldrb	r3, [r7, #3]	@ zero_extendqisi2
 125 0094 31E0     		b	.L3
ARM GAS  C:\Users\SOLDER~1\AppData\Local\Temp\cc1DKCam.s 			page 8


 126              	.L7:
 272:Drivers/STM32L1xx_HAL_Driver/Src/stm32l1xx_hal_rcc.c ****   }
 273:Drivers/STM32L1xx_HAL_Driver/Src/stm32l1xx_hal_rcc.c **** 
 274:Drivers/STM32L1xx_HAL_Driver/Src/stm32l1xx_hal_rcc.c ****   /* Reset HSION, HSEON, CSSON & PLLON bits */
 275:Drivers/STM32L1xx_HAL_Driver/Src/stm32l1xx_hal_rcc.c ****   CLEAR_BIT(RCC->CR, RCC_CR_HSION | RCC_CR_HSEON | RCC_CR_CSSON | RCC_CR_PLLON);
 127              		.loc 1 275 3
 128 0096 1B4B     		ldr	r3, .L10
 129 0098 1B68     		ldr	r3, [r3]
 130 009a 1A4A     		ldr	r2, .L10
 131 009c 23F08853 		bic	r3, r3, #285212672
 132 00a0 23F00113 		bic	r3, r3, #65537
 133 00a4 1360     		str	r3, [r2]
 276:Drivers/STM32L1xx_HAL_Driver/Src/stm32l1xx_hal_rcc.c ****   /* Reset HSEBYP bit */
 277:Drivers/STM32L1xx_HAL_Driver/Src/stm32l1xx_hal_rcc.c ****   CLEAR_BIT(RCC->CR, RCC_CR_HSEBYP);
 134              		.loc 1 277 3
 135 00a6 174B     		ldr	r3, .L10
 136 00a8 1B68     		ldr	r3, [r3]
 137 00aa 164A     		ldr	r2, .L10
 138 00ac 23F48023 		bic	r3, r3, #262144
 139 00b0 1360     		str	r3, [r2]
 278:Drivers/STM32L1xx_HAL_Driver/Src/stm32l1xx_hal_rcc.c **** 
 279:Drivers/STM32L1xx_HAL_Driver/Src/stm32l1xx_hal_rcc.c ****   /* Get Start Tick*/
 280:Drivers/STM32L1xx_HAL_Driver/Src/stm32l1xx_hal_rcc.c ****   tickstart = HAL_GetTick();
 140              		.loc 1 280 15
 141 00b2 FFF7FEFF 		bl	HAL_GetTick
 142 00b6 7860     		str	r0, [r7, #4]
 281:Drivers/STM32L1xx_HAL_Driver/Src/stm32l1xx_hal_rcc.c **** 
 282:Drivers/STM32L1xx_HAL_Driver/Src/stm32l1xx_hal_rcc.c ****   /* Wait till PLL is not ready */
 283:Drivers/STM32L1xx_HAL_Driver/Src/stm32l1xx_hal_rcc.c ****   while (READ_BIT(RCC->CR, RCC_CR_PLLRDY) != 0U)
 143              		.loc 1 283 9
 144 00b8 08E0     		b	.L8
 145              	.L9:
 284:Drivers/STM32L1xx_HAL_Driver/Src/stm32l1xx_hal_rcc.c ****   {
 285:Drivers/STM32L1xx_HAL_Driver/Src/stm32l1xx_hal_rcc.c ****     if ((HAL_GetTick() - tickstart) > PLL_TIMEOUT_VALUE)
 146              		.loc 1 285 10
 147 00ba FFF7FEFF 		bl	HAL_GetTick
 148 00be 0246     		mov	r2, r0
 149              		.loc 1 285 24
 150 00c0 7B68     		ldr	r3, [r7, #4]
 151 00c2 D31A     		subs	r3, r2, r3
 152              		.loc 1 285 8
 153 00c4 022B     		cmp	r3, #2
 154 00c6 01D9     		bls	.L8
 286:Drivers/STM32L1xx_HAL_Driver/Src/stm32l1xx_hal_rcc.c ****     {
 287:Drivers/STM32L1xx_HAL_Driver/Src/stm32l1xx_hal_rcc.c ****       return HAL_TIMEOUT;
 155              		.loc 1 287 14
 156 00c8 0323     		movs	r3, #3
 157 00ca 16E0     		b	.L3
 158              	.L8:
 283:Drivers/STM32L1xx_HAL_Driver/Src/stm32l1xx_hal_rcc.c ****   {
 159              		.loc 1 283 10
 160 00cc 0D4B     		ldr	r3, .L10
 161 00ce 1B68     		ldr	r3, [r3]
 162 00d0 03F00073 		and	r3, r3, #33554432
 283:Drivers/STM32L1xx_HAL_Driver/Src/stm32l1xx_hal_rcc.c ****   {
 163              		.loc 1 283 9
 164 00d4 002B     		cmp	r3, #0
ARM GAS  C:\Users\SOLDER~1\AppData\Local\Temp\cc1DKCam.s 			page 9


 165 00d6 F0D1     		bne	.L9
 288:Drivers/STM32L1xx_HAL_Driver/Src/stm32l1xx_hal_rcc.c ****     }
 289:Drivers/STM32L1xx_HAL_Driver/Src/stm32l1xx_hal_rcc.c ****   }
 290:Drivers/STM32L1xx_HAL_Driver/Src/stm32l1xx_hal_rcc.c **** 
 291:Drivers/STM32L1xx_HAL_Driver/Src/stm32l1xx_hal_rcc.c ****   /* Reset CFGR register */
 292:Drivers/STM32L1xx_HAL_Driver/Src/stm32l1xx_hal_rcc.c ****   CLEAR_REG(RCC->CFGR);
 166              		.loc 1 292 3
 167 00d8 0A4B     		ldr	r3, .L10
 168 00da 0022     		movs	r2, #0
 169 00dc 9A60     		str	r2, [r3, #8]
 293:Drivers/STM32L1xx_HAL_Driver/Src/stm32l1xx_hal_rcc.c **** 
 294:Drivers/STM32L1xx_HAL_Driver/Src/stm32l1xx_hal_rcc.c ****   /* Disable all interrupts */
 295:Drivers/STM32L1xx_HAL_Driver/Src/stm32l1xx_hal_rcc.c ****   CLEAR_REG(RCC->CIR);
 170              		.loc 1 295 3
 171 00de 094B     		ldr	r3, .L10
 172 00e0 0022     		movs	r2, #0
 173 00e2 DA60     		str	r2, [r3, #12]
 296:Drivers/STM32L1xx_HAL_Driver/Src/stm32l1xx_hal_rcc.c **** 
 297:Drivers/STM32L1xx_HAL_Driver/Src/stm32l1xx_hal_rcc.c ****   /* Clear all flags */
 298:Drivers/STM32L1xx_HAL_Driver/Src/stm32l1xx_hal_rcc.c **** #if defined(RCC_LSECSS_SUPPORT)
 299:Drivers/STM32L1xx_HAL_Driver/Src/stm32l1xx_hal_rcc.c ****   WRITE_REG(RCC->CIR, RCC_CIR_LSIRDYC | RCC_CIR_LSERDYC | RCC_CIR_HSIRDYC | RCC_CIR_HSERDYC | RCC_C
 174              		.loc 1 299 3
 175 00e4 074B     		ldr	r3, .L10
 176 00e6 4FF47F02 		mov	r2, #16711680
 177 00ea DA60     		str	r2, [r3, #12]
 300:Drivers/STM32L1xx_HAL_Driver/Src/stm32l1xx_hal_rcc.c **** #else
 301:Drivers/STM32L1xx_HAL_Driver/Src/stm32l1xx_hal_rcc.c ****   WRITE_REG(RCC->CIR, RCC_CIR_LSIRDYC | RCC_CIR_LSERDYC | RCC_CIR_HSIRDYC | RCC_CIR_HSERDYC | RCC_C
 302:Drivers/STM32L1xx_HAL_Driver/Src/stm32l1xx_hal_rcc.c **** #endif
 303:Drivers/STM32L1xx_HAL_Driver/Src/stm32l1xx_hal_rcc.c **** 
 304:Drivers/STM32L1xx_HAL_Driver/Src/stm32l1xx_hal_rcc.c ****   /* Clear all reset flags */
 305:Drivers/STM32L1xx_HAL_Driver/Src/stm32l1xx_hal_rcc.c ****   SET_BIT(RCC->CSR, RCC_CSR_RMVF);
 178              		.loc 1 305 3
 179 00ec 054B     		ldr	r3, .L10
 180 00ee 5B6B     		ldr	r3, [r3, #52]
 181 00f0 044A     		ldr	r2, .L10
 182 00f2 43F08073 		orr	r3, r3, #16777216
 183 00f6 5363     		str	r3, [r2, #52]
 306:Drivers/STM32L1xx_HAL_Driver/Src/stm32l1xx_hal_rcc.c **** 
 307:Drivers/STM32L1xx_HAL_Driver/Src/stm32l1xx_hal_rcc.c ****   return HAL_OK;
 184              		.loc 1 307 10
 185 00f8 0023     		movs	r3, #0
 186              	.L3:
 308:Drivers/STM32L1xx_HAL_Driver/Src/stm32l1xx_hal_rcc.c **** }
 187              		.loc 1 308 1
 188 00fa 1846     		mov	r0, r3
 189 00fc 0837     		adds	r7, r7, #8
 190              		.cfi_def_cfa_offset 8
 191 00fe BD46     		mov	sp, r7
 192              		.cfi_def_cfa_register 13
 193              		@ sp needed
 194 0100 80BD     		pop	{r7, pc}
 195              	.L11:
 196 0102 00BF     		.align	2
 197              	.L10:
 198 0104 00380240 		.word	1073887232
 199 0108 00000000 		.word	SystemCoreClock
 200 010c 68FF1F00 		.word	2097000
ARM GAS  C:\Users\SOLDER~1\AppData\Local\Temp\cc1DKCam.s 			page 10


 201 0110 00000000 		.word	uwTickPrio
 202              		.cfi_endproc
 203              	.LFE72:
 205              		.section	.text.HAL_RCC_OscConfig,"ax",%progbits
 206              		.align	1
 207              		.global	HAL_RCC_OscConfig
 208              		.syntax unified
 209              		.thumb
 210              		.thumb_func
 212              	HAL_RCC_OscConfig:
 213              	.LFB73:
 309:Drivers/STM32L1xx_HAL_Driver/Src/stm32l1xx_hal_rcc.c **** 
 310:Drivers/STM32L1xx_HAL_Driver/Src/stm32l1xx_hal_rcc.c **** /**
 311:Drivers/STM32L1xx_HAL_Driver/Src/stm32l1xx_hal_rcc.c ****   * @brief  Initializes the RCC Oscillators according to the specified parameters in the
 312:Drivers/STM32L1xx_HAL_Driver/Src/stm32l1xx_hal_rcc.c ****   *         RCC_OscInitTypeDef.
 313:Drivers/STM32L1xx_HAL_Driver/Src/stm32l1xx_hal_rcc.c ****   * @param  RCC_OscInitStruct pointer to an RCC_OscInitTypeDef structure that
 314:Drivers/STM32L1xx_HAL_Driver/Src/stm32l1xx_hal_rcc.c ****   *         contains the configuration information for the RCC Oscillators.
 315:Drivers/STM32L1xx_HAL_Driver/Src/stm32l1xx_hal_rcc.c ****   * @note   The PLL is not disabled when used as system clock.
 316:Drivers/STM32L1xx_HAL_Driver/Src/stm32l1xx_hal_rcc.c ****   * @note   Transitions LSE Bypass to LSE On and LSE On to LSE Bypass are not
 317:Drivers/STM32L1xx_HAL_Driver/Src/stm32l1xx_hal_rcc.c ****   *         supported by this macro. User should request a transition to LSE Off
 318:Drivers/STM32L1xx_HAL_Driver/Src/stm32l1xx_hal_rcc.c ****   *         first and then LSE On or LSE Bypass.
 319:Drivers/STM32L1xx_HAL_Driver/Src/stm32l1xx_hal_rcc.c ****   * @note   Transition HSE Bypass to HSE On and HSE On to HSE Bypass are not
 320:Drivers/STM32L1xx_HAL_Driver/Src/stm32l1xx_hal_rcc.c ****   *         supported by this macro. User should request a transition to HSE Off
 321:Drivers/STM32L1xx_HAL_Driver/Src/stm32l1xx_hal_rcc.c ****   *         first and then HSE On or HSE Bypass.
 322:Drivers/STM32L1xx_HAL_Driver/Src/stm32l1xx_hal_rcc.c ****   * @retval HAL status
 323:Drivers/STM32L1xx_HAL_Driver/Src/stm32l1xx_hal_rcc.c ****   */
 324:Drivers/STM32L1xx_HAL_Driver/Src/stm32l1xx_hal_rcc.c **** HAL_StatusTypeDef HAL_RCC_OscConfig(RCC_OscInitTypeDef  *RCC_OscInitStruct)
 325:Drivers/STM32L1xx_HAL_Driver/Src/stm32l1xx_hal_rcc.c **** {
 214              		.loc 1 325 1
 215              		.cfi_startproc
 216              		@ args = 0, pretend = 0, frame = 32
 217              		@ frame_needed = 1, uses_anonymous_args = 0
 218 0000 80B5     		push	{r7, lr}
 219              		.cfi_def_cfa_offset 8
 220              		.cfi_offset 7, -8
 221              		.cfi_offset 14, -4
 222 0002 88B0     		sub	sp, sp, #32
 223              		.cfi_def_cfa_offset 40
 224 0004 00AF     		add	r7, sp, #0
 225              		.cfi_def_cfa_register 7
 226 0006 7860     		str	r0, [r7, #4]
 326:Drivers/STM32L1xx_HAL_Driver/Src/stm32l1xx_hal_rcc.c ****   uint32_t tickstart;
 327:Drivers/STM32L1xx_HAL_Driver/Src/stm32l1xx_hal_rcc.c ****   HAL_StatusTypeDef status;
 328:Drivers/STM32L1xx_HAL_Driver/Src/stm32l1xx_hal_rcc.c ****   uint32_t sysclk_source, pll_config;
 329:Drivers/STM32L1xx_HAL_Driver/Src/stm32l1xx_hal_rcc.c **** 
 330:Drivers/STM32L1xx_HAL_Driver/Src/stm32l1xx_hal_rcc.c ****   /* Check the parameters */
 331:Drivers/STM32L1xx_HAL_Driver/Src/stm32l1xx_hal_rcc.c ****   if(RCC_OscInitStruct == NULL)
 227              		.loc 1 331 5
 228 0008 7B68     		ldr	r3, [r7, #4]
 229 000a 002B     		cmp	r3, #0
 230 000c 01D1     		bne	.L13
 332:Drivers/STM32L1xx_HAL_Driver/Src/stm32l1xx_hal_rcc.c ****   {
 333:Drivers/STM32L1xx_HAL_Driver/Src/stm32l1xx_hal_rcc.c ****     return HAL_ERROR;
 231              		.loc 1 333 12
 232 000e 0123     		movs	r3, #1
 233 0010 1DE3     		b	.L14
 234              	.L13:
ARM GAS  C:\Users\SOLDER~1\AppData\Local\Temp\cc1DKCam.s 			page 11


 334:Drivers/STM32L1xx_HAL_Driver/Src/stm32l1xx_hal_rcc.c ****   }
 335:Drivers/STM32L1xx_HAL_Driver/Src/stm32l1xx_hal_rcc.c **** 
 336:Drivers/STM32L1xx_HAL_Driver/Src/stm32l1xx_hal_rcc.c ****   assert_param(IS_RCC_OSCILLATORTYPE(RCC_OscInitStruct->OscillatorType));
 337:Drivers/STM32L1xx_HAL_Driver/Src/stm32l1xx_hal_rcc.c **** 
 338:Drivers/STM32L1xx_HAL_Driver/Src/stm32l1xx_hal_rcc.c ****   sysclk_source = __HAL_RCC_GET_SYSCLK_SOURCE();
 235              		.loc 1 338 19
 236 0012 944B     		ldr	r3, .L81
 237 0014 9B68     		ldr	r3, [r3, #8]
 238              		.loc 1 338 17
 239 0016 03F00C03 		and	r3, r3, #12
 240 001a BB61     		str	r3, [r7, #24]
 339:Drivers/STM32L1xx_HAL_Driver/Src/stm32l1xx_hal_rcc.c ****   pll_config = __HAL_RCC_GET_PLL_OSCSOURCE();
 241              		.loc 1 339 16
 242 001c 914B     		ldr	r3, .L81
 243 001e 9B68     		ldr	r3, [r3, #8]
 244              		.loc 1 339 14
 245 0020 03F48033 		and	r3, r3, #65536
 246 0024 7B61     		str	r3, [r7, #20]
 340:Drivers/STM32L1xx_HAL_Driver/Src/stm32l1xx_hal_rcc.c **** 
 341:Drivers/STM32L1xx_HAL_Driver/Src/stm32l1xx_hal_rcc.c ****   /*------------------------------- HSE Configuration ------------------------*/
 342:Drivers/STM32L1xx_HAL_Driver/Src/stm32l1xx_hal_rcc.c ****   if(((RCC_OscInitStruct->OscillatorType) & RCC_OSCILLATORTYPE_HSE) == RCC_OSCILLATORTYPE_HSE)
 247              		.loc 1 342 25
 248 0026 7B68     		ldr	r3, [r7, #4]
 249 0028 1B68     		ldr	r3, [r3]
 250              		.loc 1 342 43
 251 002a 03F00103 		and	r3, r3, #1
 252              		.loc 1 342 5
 253 002e 002B     		cmp	r3, #0
 254 0030 7BD0     		beq	.L15
 343:Drivers/STM32L1xx_HAL_Driver/Src/stm32l1xx_hal_rcc.c ****   {
 344:Drivers/STM32L1xx_HAL_Driver/Src/stm32l1xx_hal_rcc.c ****     /* Check the parameters */
 345:Drivers/STM32L1xx_HAL_Driver/Src/stm32l1xx_hal_rcc.c ****     assert_param(IS_RCC_HSE(RCC_OscInitStruct->HSEState));
 346:Drivers/STM32L1xx_HAL_Driver/Src/stm32l1xx_hal_rcc.c **** 
 347:Drivers/STM32L1xx_HAL_Driver/Src/stm32l1xx_hal_rcc.c ****     /* When the HSE is used as system clock or clock source for PLL in these cases it is not allowe
 348:Drivers/STM32L1xx_HAL_Driver/Src/stm32l1xx_hal_rcc.c ****     if((sysclk_source == RCC_SYSCLKSOURCE_STATUS_HSE)
 255              		.loc 1 348 7
 256 0032 BB69     		ldr	r3, [r7, #24]
 257 0034 082B     		cmp	r3, #8
 258 0036 06D0     		beq	.L16
 349:Drivers/STM32L1xx_HAL_Driver/Src/stm32l1xx_hal_rcc.c ****        || ((sysclk_source == RCC_SYSCLKSOURCE_STATUS_PLLCLK) && (pll_config == RCC_PLLSOURCE_HSE)))
 259              		.loc 1 349 8
 260 0038 BB69     		ldr	r3, [r7, #24]
 261 003a 0C2B     		cmp	r3, #12
 262 003c 0FD1     		bne	.L17
 263              		.loc 1 349 62 discriminator 1
 264 003e 7B69     		ldr	r3, [r7, #20]
 265 0040 B3F5803F 		cmp	r3, #65536
 266 0044 0BD1     		bne	.L17
 267              	.L16:
 350:Drivers/STM32L1xx_HAL_Driver/Src/stm32l1xx_hal_rcc.c ****     {
 351:Drivers/STM32L1xx_HAL_Driver/Src/stm32l1xx_hal_rcc.c ****       if((__HAL_RCC_GET_FLAG(RCC_FLAG_HSERDY) != 0U) && (RCC_OscInitStruct->HSEState == RCC_HSE_OFF
 268              		.loc 1 351 11
 269 0046 874B     		ldr	r3, .L81
 270 0048 1B68     		ldr	r3, [r3]
 271 004a 03F40033 		and	r3, r3, #131072
 272              		.loc 1 351 9
 273 004e 002B     		cmp	r3, #0
ARM GAS  C:\Users\SOLDER~1\AppData\Local\Temp\cc1DKCam.s 			page 12


 274 0050 6AD0     		beq	.L80
 275              		.loc 1 351 75 discriminator 1
 276 0052 7B68     		ldr	r3, [r7, #4]
 277 0054 5B68     		ldr	r3, [r3, #4]
 278              		.loc 1 351 54 discriminator 1
 279 0056 002B     		cmp	r3, #0
 280 0058 66D1     		bne	.L80
 352:Drivers/STM32L1xx_HAL_Driver/Src/stm32l1xx_hal_rcc.c ****       {
 353:Drivers/STM32L1xx_HAL_Driver/Src/stm32l1xx_hal_rcc.c ****         return HAL_ERROR;
 281              		.loc 1 353 16
 282 005a 0123     		movs	r3, #1
 283 005c F7E2     		b	.L14
 284              	.L17:
 354:Drivers/STM32L1xx_HAL_Driver/Src/stm32l1xx_hal_rcc.c ****       }
 355:Drivers/STM32L1xx_HAL_Driver/Src/stm32l1xx_hal_rcc.c ****     }
 356:Drivers/STM32L1xx_HAL_Driver/Src/stm32l1xx_hal_rcc.c ****     else
 357:Drivers/STM32L1xx_HAL_Driver/Src/stm32l1xx_hal_rcc.c ****     {
 358:Drivers/STM32L1xx_HAL_Driver/Src/stm32l1xx_hal_rcc.c ****       /* Set the new HSE configuration ---------------------------------------*/
 359:Drivers/STM32L1xx_HAL_Driver/Src/stm32l1xx_hal_rcc.c ****       __HAL_RCC_HSE_CONFIG(RCC_OscInitStruct->HSEState);
 285              		.loc 1 359 7
 286 005e 7B68     		ldr	r3, [r7, #4]
 287 0060 5B68     		ldr	r3, [r3, #4]
 288 0062 012B     		cmp	r3, #1
 289 0064 06D1     		bne	.L19
 290              		.loc 1 359 7 is_stmt 0 discriminator 1
 291 0066 7F4B     		ldr	r3, .L81
 292 0068 1B68     		ldr	r3, [r3]
 293 006a 7E4A     		ldr	r2, .L81
 294 006c 43F48033 		orr	r3, r3, #65536
 295 0070 1360     		str	r3, [r2]
 296 0072 2DE0     		b	.L20
 297              	.L19:
 298              		.loc 1 359 7 discriminator 2
 299 0074 7B68     		ldr	r3, [r7, #4]
 300 0076 5B68     		ldr	r3, [r3, #4]
 301 0078 002B     		cmp	r3, #0
 302 007a 0CD1     		bne	.L21
 303              		.loc 1 359 7 discriminator 3
 304 007c 794B     		ldr	r3, .L81
 305 007e 1B68     		ldr	r3, [r3]
 306 0080 784A     		ldr	r2, .L81
 307 0082 23F48033 		bic	r3, r3, #65536
 308 0086 1360     		str	r3, [r2]
 309 0088 764B     		ldr	r3, .L81
 310 008a 1B68     		ldr	r3, [r3]
 311 008c 754A     		ldr	r2, .L81
 312 008e 23F48023 		bic	r3, r3, #262144
 313 0092 1360     		str	r3, [r2]
 314 0094 1CE0     		b	.L20
 315              	.L21:
 316              		.loc 1 359 7 discriminator 4
 317 0096 7B68     		ldr	r3, [r7, #4]
 318 0098 5B68     		ldr	r3, [r3, #4]
 319 009a 052B     		cmp	r3, #5
 320 009c 0CD1     		bne	.L22
 321              		.loc 1 359 7 discriminator 5
 322 009e 714B     		ldr	r3, .L81
ARM GAS  C:\Users\SOLDER~1\AppData\Local\Temp\cc1DKCam.s 			page 13


 323 00a0 1B68     		ldr	r3, [r3]
 324 00a2 704A     		ldr	r2, .L81
 325 00a4 43F48023 		orr	r3, r3, #262144
 326 00a8 1360     		str	r3, [r2]
 327 00aa 6E4B     		ldr	r3, .L81
 328 00ac 1B68     		ldr	r3, [r3]
 329 00ae 6D4A     		ldr	r2, .L81
 330 00b0 43F48033 		orr	r3, r3, #65536
 331 00b4 1360     		str	r3, [r2]
 332 00b6 0BE0     		b	.L20
 333              	.L22:
 334              		.loc 1 359 7 discriminator 6
 335 00b8 6A4B     		ldr	r3, .L81
 336 00ba 1B68     		ldr	r3, [r3]
 337 00bc 694A     		ldr	r2, .L81
 338 00be 23F48033 		bic	r3, r3, #65536
 339 00c2 1360     		str	r3, [r2]
 340 00c4 674B     		ldr	r3, .L81
 341 00c6 1B68     		ldr	r3, [r3]
 342 00c8 664A     		ldr	r2, .L81
 343 00ca 23F48023 		bic	r3, r3, #262144
 344 00ce 1360     		str	r3, [r2]
 345              	.L20:
 360:Drivers/STM32L1xx_HAL_Driver/Src/stm32l1xx_hal_rcc.c **** 
 361:Drivers/STM32L1xx_HAL_Driver/Src/stm32l1xx_hal_rcc.c ****       /* Check the HSE State */
 362:Drivers/STM32L1xx_HAL_Driver/Src/stm32l1xx_hal_rcc.c ****       if(RCC_OscInitStruct->HSEState != RCC_HSE_OFF)
 346              		.loc 1 362 27 is_stmt 1
 347 00d0 7B68     		ldr	r3, [r7, #4]
 348 00d2 5B68     		ldr	r3, [r3, #4]
 349              		.loc 1 362 9
 350 00d4 002B     		cmp	r3, #0
 351 00d6 13D0     		beq	.L23
 363:Drivers/STM32L1xx_HAL_Driver/Src/stm32l1xx_hal_rcc.c ****       {
 364:Drivers/STM32L1xx_HAL_Driver/Src/stm32l1xx_hal_rcc.c ****         /* Get Start Tick */
 365:Drivers/STM32L1xx_HAL_Driver/Src/stm32l1xx_hal_rcc.c ****         tickstart = HAL_GetTick();
 352              		.loc 1 365 21
 353 00d8 FFF7FEFF 		bl	HAL_GetTick
 354 00dc 3861     		str	r0, [r7, #16]
 366:Drivers/STM32L1xx_HAL_Driver/Src/stm32l1xx_hal_rcc.c **** 
 367:Drivers/STM32L1xx_HAL_Driver/Src/stm32l1xx_hal_rcc.c ****         /* Wait till HSE is ready */
 368:Drivers/STM32L1xx_HAL_Driver/Src/stm32l1xx_hal_rcc.c ****         while(__HAL_RCC_GET_FLAG(RCC_FLAG_HSERDY) == 0U)
 355              		.loc 1 368 14
 356 00de 08E0     		b	.L24
 357              	.L25:
 369:Drivers/STM32L1xx_HAL_Driver/Src/stm32l1xx_hal_rcc.c ****         {
 370:Drivers/STM32L1xx_HAL_Driver/Src/stm32l1xx_hal_rcc.c ****           if((HAL_GetTick() - tickstart ) > HSE_TIMEOUT_VALUE)
 358              		.loc 1 370 15
 359 00e0 FFF7FEFF 		bl	HAL_GetTick
 360 00e4 0246     		mov	r2, r0
 361              		.loc 1 370 29
 362 00e6 3B69     		ldr	r3, [r7, #16]
 363 00e8 D31A     		subs	r3, r2, r3
 364              		.loc 1 370 13
 365 00ea 642B     		cmp	r3, #100
 366 00ec 01D9     		bls	.L24
 371:Drivers/STM32L1xx_HAL_Driver/Src/stm32l1xx_hal_rcc.c ****           {
 372:Drivers/STM32L1xx_HAL_Driver/Src/stm32l1xx_hal_rcc.c ****             return HAL_TIMEOUT;
ARM GAS  C:\Users\SOLDER~1\AppData\Local\Temp\cc1DKCam.s 			page 14


 367              		.loc 1 372 20
 368 00ee 0323     		movs	r3, #3
 369 00f0 ADE2     		b	.L14
 370              	.L24:
 368:Drivers/STM32L1xx_HAL_Driver/Src/stm32l1xx_hal_rcc.c ****         {
 371              		.loc 1 368 15
 372 00f2 5C4B     		ldr	r3, .L81
 373 00f4 1B68     		ldr	r3, [r3]
 374 00f6 03F40033 		and	r3, r3, #131072
 368:Drivers/STM32L1xx_HAL_Driver/Src/stm32l1xx_hal_rcc.c ****         {
 375              		.loc 1 368 14
 376 00fa 002B     		cmp	r3, #0
 377 00fc F0D0     		beq	.L25
 378 00fe 14E0     		b	.L15
 379              	.L23:
 373:Drivers/STM32L1xx_HAL_Driver/Src/stm32l1xx_hal_rcc.c ****           }
 374:Drivers/STM32L1xx_HAL_Driver/Src/stm32l1xx_hal_rcc.c ****         }
 375:Drivers/STM32L1xx_HAL_Driver/Src/stm32l1xx_hal_rcc.c ****       }
 376:Drivers/STM32L1xx_HAL_Driver/Src/stm32l1xx_hal_rcc.c ****       else
 377:Drivers/STM32L1xx_HAL_Driver/Src/stm32l1xx_hal_rcc.c ****       {
 378:Drivers/STM32L1xx_HAL_Driver/Src/stm32l1xx_hal_rcc.c ****         /* Get Start Tick */
 379:Drivers/STM32L1xx_HAL_Driver/Src/stm32l1xx_hal_rcc.c ****         tickstart = HAL_GetTick();
 380              		.loc 1 379 21
 381 0100 FFF7FEFF 		bl	HAL_GetTick
 382 0104 3861     		str	r0, [r7, #16]
 380:Drivers/STM32L1xx_HAL_Driver/Src/stm32l1xx_hal_rcc.c **** 
 381:Drivers/STM32L1xx_HAL_Driver/Src/stm32l1xx_hal_rcc.c ****         /* Wait till HSE is disabled */
 382:Drivers/STM32L1xx_HAL_Driver/Src/stm32l1xx_hal_rcc.c ****         while(__HAL_RCC_GET_FLAG(RCC_FLAG_HSERDY) != 0U)
 383              		.loc 1 382 14
 384 0106 08E0     		b	.L26
 385              	.L27:
 383:Drivers/STM32L1xx_HAL_Driver/Src/stm32l1xx_hal_rcc.c ****         {
 384:Drivers/STM32L1xx_HAL_Driver/Src/stm32l1xx_hal_rcc.c ****            if((HAL_GetTick() - tickstart ) > HSE_TIMEOUT_VALUE)
 386              		.loc 1 384 16
 387 0108 FFF7FEFF 		bl	HAL_GetTick
 388 010c 0246     		mov	r2, r0
 389              		.loc 1 384 30
 390 010e 3B69     		ldr	r3, [r7, #16]
 391 0110 D31A     		subs	r3, r2, r3
 392              		.loc 1 384 14
 393 0112 642B     		cmp	r3, #100
 394 0114 01D9     		bls	.L26
 385:Drivers/STM32L1xx_HAL_Driver/Src/stm32l1xx_hal_rcc.c ****           {
 386:Drivers/STM32L1xx_HAL_Driver/Src/stm32l1xx_hal_rcc.c ****             return HAL_TIMEOUT;
 395              		.loc 1 386 20
 396 0116 0323     		movs	r3, #3
 397 0118 99E2     		b	.L14
 398              	.L26:
 382:Drivers/STM32L1xx_HAL_Driver/Src/stm32l1xx_hal_rcc.c ****         {
 399              		.loc 1 382 15
 400 011a 524B     		ldr	r3, .L81
 401 011c 1B68     		ldr	r3, [r3]
 402 011e 03F40033 		and	r3, r3, #131072
 382:Drivers/STM32L1xx_HAL_Driver/Src/stm32l1xx_hal_rcc.c ****         {
 403              		.loc 1 382 14
 404 0122 002B     		cmp	r3, #0
 405 0124 F0D1     		bne	.L27
ARM GAS  C:\Users\SOLDER~1\AppData\Local\Temp\cc1DKCam.s 			page 15


 406 0126 00E0     		b	.L15
 407              	.L80:
 351:Drivers/STM32L1xx_HAL_Driver/Src/stm32l1xx_hal_rcc.c ****       {
 408              		.loc 1 351 9
 409 0128 00BF     		nop
 410              	.L15:
 387:Drivers/STM32L1xx_HAL_Driver/Src/stm32l1xx_hal_rcc.c ****           }
 388:Drivers/STM32L1xx_HAL_Driver/Src/stm32l1xx_hal_rcc.c ****         }
 389:Drivers/STM32L1xx_HAL_Driver/Src/stm32l1xx_hal_rcc.c ****       }
 390:Drivers/STM32L1xx_HAL_Driver/Src/stm32l1xx_hal_rcc.c ****     }
 391:Drivers/STM32L1xx_HAL_Driver/Src/stm32l1xx_hal_rcc.c ****   }
 392:Drivers/STM32L1xx_HAL_Driver/Src/stm32l1xx_hal_rcc.c ****   /*----------------------------- HSI Configuration --------------------------*/
 393:Drivers/STM32L1xx_HAL_Driver/Src/stm32l1xx_hal_rcc.c ****   if(((RCC_OscInitStruct->OscillatorType) & RCC_OSCILLATORTYPE_HSI) == RCC_OSCILLATORTYPE_HSI)
 411              		.loc 1 393 25
 412 012a 7B68     		ldr	r3, [r7, #4]
 413 012c 1B68     		ldr	r3, [r3]
 414              		.loc 1 393 43
 415 012e 03F00203 		and	r3, r3, #2
 416              		.loc 1 393 5
 417 0132 002B     		cmp	r3, #0
 418 0134 5AD0     		beq	.L28
 394:Drivers/STM32L1xx_HAL_Driver/Src/stm32l1xx_hal_rcc.c ****   {
 395:Drivers/STM32L1xx_HAL_Driver/Src/stm32l1xx_hal_rcc.c ****     /* Check the parameters */
 396:Drivers/STM32L1xx_HAL_Driver/Src/stm32l1xx_hal_rcc.c ****     assert_param(IS_RCC_HSI(RCC_OscInitStruct->HSIState));
 397:Drivers/STM32L1xx_HAL_Driver/Src/stm32l1xx_hal_rcc.c ****     assert_param(IS_RCC_CALIBRATION_VALUE(RCC_OscInitStruct->HSICalibrationValue));
 398:Drivers/STM32L1xx_HAL_Driver/Src/stm32l1xx_hal_rcc.c **** 
 399:Drivers/STM32L1xx_HAL_Driver/Src/stm32l1xx_hal_rcc.c ****     /* Check if HSI is used as system clock or as PLL source when PLL is selected as system clock *
 400:Drivers/STM32L1xx_HAL_Driver/Src/stm32l1xx_hal_rcc.c ****     if((sysclk_source == RCC_SYSCLKSOURCE_STATUS_HSI)
 419              		.loc 1 400 7
 420 0136 BB69     		ldr	r3, [r7, #24]
 421 0138 042B     		cmp	r3, #4
 422 013a 05D0     		beq	.L29
 401:Drivers/STM32L1xx_HAL_Driver/Src/stm32l1xx_hal_rcc.c ****        || ((sysclk_source == RCC_SYSCLKSOURCE_STATUS_PLLCLK) && (pll_config == RCC_PLLSOURCE_HSI)))
 423              		.loc 1 401 8
 424 013c BB69     		ldr	r3, [r7, #24]
 425 013e 0C2B     		cmp	r3, #12
 426 0140 19D1     		bne	.L30
 427              		.loc 1 401 62 discriminator 1
 428 0142 7B69     		ldr	r3, [r7, #20]
 429 0144 002B     		cmp	r3, #0
 430 0146 16D1     		bne	.L30
 431              	.L29:
 402:Drivers/STM32L1xx_HAL_Driver/Src/stm32l1xx_hal_rcc.c ****     {
 403:Drivers/STM32L1xx_HAL_Driver/Src/stm32l1xx_hal_rcc.c ****       /* When HSI is used as system clock it will not disabled */
 404:Drivers/STM32L1xx_HAL_Driver/Src/stm32l1xx_hal_rcc.c ****       if((__HAL_RCC_GET_FLAG(RCC_FLAG_HSIRDY) != 0U) && (RCC_OscInitStruct->HSIState != RCC_HSI_ON)
 432              		.loc 1 404 11
 433 0148 464B     		ldr	r3, .L81
 434 014a 1B68     		ldr	r3, [r3]
 435 014c 03F00203 		and	r3, r3, #2
 436              		.loc 1 404 9
 437 0150 002B     		cmp	r3, #0
 438 0152 05D0     		beq	.L31
 439              		.loc 1 404 75 discriminator 1
 440 0154 7B68     		ldr	r3, [r7, #4]
 441 0156 DB68     		ldr	r3, [r3, #12]
 442              		.loc 1 404 54 discriminator 1
 443 0158 012B     		cmp	r3, #1
ARM GAS  C:\Users\SOLDER~1\AppData\Local\Temp\cc1DKCam.s 			page 16


 444 015a 01D0     		beq	.L31
 405:Drivers/STM32L1xx_HAL_Driver/Src/stm32l1xx_hal_rcc.c ****       {
 406:Drivers/STM32L1xx_HAL_Driver/Src/stm32l1xx_hal_rcc.c ****         return HAL_ERROR;
 445              		.loc 1 406 16
 446 015c 0123     		movs	r3, #1
 447 015e 76E2     		b	.L14
 448              	.L31:
 407:Drivers/STM32L1xx_HAL_Driver/Src/stm32l1xx_hal_rcc.c ****       }
 408:Drivers/STM32L1xx_HAL_Driver/Src/stm32l1xx_hal_rcc.c ****       /* Otherwise, just the calibration is allowed */
 409:Drivers/STM32L1xx_HAL_Driver/Src/stm32l1xx_hal_rcc.c ****       else
 410:Drivers/STM32L1xx_HAL_Driver/Src/stm32l1xx_hal_rcc.c ****       {
 411:Drivers/STM32L1xx_HAL_Driver/Src/stm32l1xx_hal_rcc.c ****         /* Adjusts the Internal High Speed oscillator (HSI) calibration value.*/
 412:Drivers/STM32L1xx_HAL_Driver/Src/stm32l1xx_hal_rcc.c ****         __HAL_RCC_HSI_CALIBRATIONVALUE_ADJUST(RCC_OscInitStruct->HSICalibrationValue);
 449              		.loc 1 412 9
 450 0160 404B     		ldr	r3, .L81
 451 0162 5B68     		ldr	r3, [r3, #4]
 452 0164 23F4F852 		bic	r2, r3, #7936
 453 0168 7B68     		ldr	r3, [r7, #4]
 454 016a 1B69     		ldr	r3, [r3, #16]
 455 016c 1B02     		lsls	r3, r3, #8
 456 016e 3D49     		ldr	r1, .L81
 457 0170 1343     		orrs	r3, r3, r2
 458 0172 4B60     		str	r3, [r1, #4]
 404:Drivers/STM32L1xx_HAL_Driver/Src/stm32l1xx_hal_rcc.c ****       {
 459              		.loc 1 404 9
 460 0174 3AE0     		b	.L28
 461              	.L30:
 413:Drivers/STM32L1xx_HAL_Driver/Src/stm32l1xx_hal_rcc.c ****       }
 414:Drivers/STM32L1xx_HAL_Driver/Src/stm32l1xx_hal_rcc.c ****     }
 415:Drivers/STM32L1xx_HAL_Driver/Src/stm32l1xx_hal_rcc.c ****     else
 416:Drivers/STM32L1xx_HAL_Driver/Src/stm32l1xx_hal_rcc.c ****     {
 417:Drivers/STM32L1xx_HAL_Driver/Src/stm32l1xx_hal_rcc.c ****       /* Check the HSI State */
 418:Drivers/STM32L1xx_HAL_Driver/Src/stm32l1xx_hal_rcc.c ****       if(RCC_OscInitStruct->HSIState != RCC_HSI_OFF)
 462              		.loc 1 418 27
 463 0176 7B68     		ldr	r3, [r7, #4]
 464 0178 DB68     		ldr	r3, [r3, #12]
 465              		.loc 1 418 9
 466 017a 002B     		cmp	r3, #0
 467 017c 20D0     		beq	.L32
 419:Drivers/STM32L1xx_HAL_Driver/Src/stm32l1xx_hal_rcc.c ****       {
 420:Drivers/STM32L1xx_HAL_Driver/Src/stm32l1xx_hal_rcc.c ****         /* Enable the Internal High Speed oscillator (HSI). */
 421:Drivers/STM32L1xx_HAL_Driver/Src/stm32l1xx_hal_rcc.c ****         __HAL_RCC_HSI_ENABLE();
 468              		.loc 1 421 9
 469 017e 3A4B     		ldr	r3, .L81+4
 470 0180 0122     		movs	r2, #1
 471 0182 1A60     		str	r2, [r3]
 422:Drivers/STM32L1xx_HAL_Driver/Src/stm32l1xx_hal_rcc.c **** 
 423:Drivers/STM32L1xx_HAL_Driver/Src/stm32l1xx_hal_rcc.c ****         /* Get Start Tick */
 424:Drivers/STM32L1xx_HAL_Driver/Src/stm32l1xx_hal_rcc.c ****         tickstart = HAL_GetTick();
 472              		.loc 1 424 21
 473 0184 FFF7FEFF 		bl	HAL_GetTick
 474 0188 3861     		str	r0, [r7, #16]
 425:Drivers/STM32L1xx_HAL_Driver/Src/stm32l1xx_hal_rcc.c **** 
 426:Drivers/STM32L1xx_HAL_Driver/Src/stm32l1xx_hal_rcc.c ****         /* Wait till HSI is ready */
 427:Drivers/STM32L1xx_HAL_Driver/Src/stm32l1xx_hal_rcc.c ****         while(__HAL_RCC_GET_FLAG(RCC_FLAG_HSIRDY) == 0U)
 475              		.loc 1 427 14
 476 018a 08E0     		b	.L33
ARM GAS  C:\Users\SOLDER~1\AppData\Local\Temp\cc1DKCam.s 			page 17


 477              	.L34:
 428:Drivers/STM32L1xx_HAL_Driver/Src/stm32l1xx_hal_rcc.c ****         {
 429:Drivers/STM32L1xx_HAL_Driver/Src/stm32l1xx_hal_rcc.c ****           if((HAL_GetTick() - tickstart ) > HSI_TIMEOUT_VALUE)
 478              		.loc 1 429 15
 479 018c FFF7FEFF 		bl	HAL_GetTick
 480 0190 0246     		mov	r2, r0
 481              		.loc 1 429 29
 482 0192 3B69     		ldr	r3, [r7, #16]
 483 0194 D31A     		subs	r3, r2, r3
 484              		.loc 1 429 13
 485 0196 022B     		cmp	r3, #2
 486 0198 01D9     		bls	.L33
 430:Drivers/STM32L1xx_HAL_Driver/Src/stm32l1xx_hal_rcc.c ****           {
 431:Drivers/STM32L1xx_HAL_Driver/Src/stm32l1xx_hal_rcc.c ****             return HAL_TIMEOUT;
 487              		.loc 1 431 20
 488 019a 0323     		movs	r3, #3
 489 019c 57E2     		b	.L14
 490              	.L33:
 427:Drivers/STM32L1xx_HAL_Driver/Src/stm32l1xx_hal_rcc.c ****         {
 491              		.loc 1 427 15
 492 019e 314B     		ldr	r3, .L81
 493 01a0 1B68     		ldr	r3, [r3]
 494 01a2 03F00203 		and	r3, r3, #2
 427:Drivers/STM32L1xx_HAL_Driver/Src/stm32l1xx_hal_rcc.c ****         {
 495              		.loc 1 427 14
 496 01a6 002B     		cmp	r3, #0
 497 01a8 F0D0     		beq	.L34
 432:Drivers/STM32L1xx_HAL_Driver/Src/stm32l1xx_hal_rcc.c ****           }
 433:Drivers/STM32L1xx_HAL_Driver/Src/stm32l1xx_hal_rcc.c ****         }
 434:Drivers/STM32L1xx_HAL_Driver/Src/stm32l1xx_hal_rcc.c **** 
 435:Drivers/STM32L1xx_HAL_Driver/Src/stm32l1xx_hal_rcc.c ****         /* Adjusts the Internal High Speed oscillator (HSI) calibration value.*/
 436:Drivers/STM32L1xx_HAL_Driver/Src/stm32l1xx_hal_rcc.c ****         __HAL_RCC_HSI_CALIBRATIONVALUE_ADJUST(RCC_OscInitStruct->HSICalibrationValue);
 498              		.loc 1 436 9
 499 01aa 2E4B     		ldr	r3, .L81
 500 01ac 5B68     		ldr	r3, [r3, #4]
 501 01ae 23F4F852 		bic	r2, r3, #7936
 502 01b2 7B68     		ldr	r3, [r7, #4]
 503 01b4 1B69     		ldr	r3, [r3, #16]
 504 01b6 1B02     		lsls	r3, r3, #8
 505 01b8 2A49     		ldr	r1, .L81
 506 01ba 1343     		orrs	r3, r3, r2
 507 01bc 4B60     		str	r3, [r1, #4]
 508 01be 15E0     		b	.L28
 509              	.L32:
 437:Drivers/STM32L1xx_HAL_Driver/Src/stm32l1xx_hal_rcc.c ****       }
 438:Drivers/STM32L1xx_HAL_Driver/Src/stm32l1xx_hal_rcc.c ****       else
 439:Drivers/STM32L1xx_HAL_Driver/Src/stm32l1xx_hal_rcc.c ****       {
 440:Drivers/STM32L1xx_HAL_Driver/Src/stm32l1xx_hal_rcc.c ****         /* Disable the Internal High Speed oscillator (HSI). */
 441:Drivers/STM32L1xx_HAL_Driver/Src/stm32l1xx_hal_rcc.c ****         __HAL_RCC_HSI_DISABLE();
 510              		.loc 1 441 9
 511 01c0 294B     		ldr	r3, .L81+4
 512 01c2 0022     		movs	r2, #0
 513 01c4 1A60     		str	r2, [r3]
 442:Drivers/STM32L1xx_HAL_Driver/Src/stm32l1xx_hal_rcc.c **** 
 443:Drivers/STM32L1xx_HAL_Driver/Src/stm32l1xx_hal_rcc.c ****         /* Get Start Tick */
 444:Drivers/STM32L1xx_HAL_Driver/Src/stm32l1xx_hal_rcc.c ****         tickstart = HAL_GetTick();
 514              		.loc 1 444 21
ARM GAS  C:\Users\SOLDER~1\AppData\Local\Temp\cc1DKCam.s 			page 18


 515 01c6 FFF7FEFF 		bl	HAL_GetTick
 516 01ca 3861     		str	r0, [r7, #16]
 445:Drivers/STM32L1xx_HAL_Driver/Src/stm32l1xx_hal_rcc.c **** 
 446:Drivers/STM32L1xx_HAL_Driver/Src/stm32l1xx_hal_rcc.c ****         /* Wait till HSI is disabled */
 447:Drivers/STM32L1xx_HAL_Driver/Src/stm32l1xx_hal_rcc.c ****         while(__HAL_RCC_GET_FLAG(RCC_FLAG_HSIRDY) != 0U)
 517              		.loc 1 447 14
 518 01cc 08E0     		b	.L35
 519              	.L36:
 448:Drivers/STM32L1xx_HAL_Driver/Src/stm32l1xx_hal_rcc.c ****         {
 449:Drivers/STM32L1xx_HAL_Driver/Src/stm32l1xx_hal_rcc.c ****           if((HAL_GetTick() - tickstart ) > HSI_TIMEOUT_VALUE)
 520              		.loc 1 449 15
 521 01ce FFF7FEFF 		bl	HAL_GetTick
 522 01d2 0246     		mov	r2, r0
 523              		.loc 1 449 29
 524 01d4 3B69     		ldr	r3, [r7, #16]
 525 01d6 D31A     		subs	r3, r2, r3
 526              		.loc 1 449 13
 527 01d8 022B     		cmp	r3, #2
 528 01da 01D9     		bls	.L35
 450:Drivers/STM32L1xx_HAL_Driver/Src/stm32l1xx_hal_rcc.c ****           {
 451:Drivers/STM32L1xx_HAL_Driver/Src/stm32l1xx_hal_rcc.c ****             return HAL_TIMEOUT;
 529              		.loc 1 451 20
 530 01dc 0323     		movs	r3, #3
 531 01de 36E2     		b	.L14
 532              	.L35:
 447:Drivers/STM32L1xx_HAL_Driver/Src/stm32l1xx_hal_rcc.c ****         {
 533              		.loc 1 447 15
 534 01e0 204B     		ldr	r3, .L81
 535 01e2 1B68     		ldr	r3, [r3]
 536 01e4 03F00203 		and	r3, r3, #2
 447:Drivers/STM32L1xx_HAL_Driver/Src/stm32l1xx_hal_rcc.c ****         {
 537              		.loc 1 447 14
 538 01e8 002B     		cmp	r3, #0
 539 01ea F0D1     		bne	.L36
 540              	.L28:
 452:Drivers/STM32L1xx_HAL_Driver/Src/stm32l1xx_hal_rcc.c ****           }
 453:Drivers/STM32L1xx_HAL_Driver/Src/stm32l1xx_hal_rcc.c ****         }
 454:Drivers/STM32L1xx_HAL_Driver/Src/stm32l1xx_hal_rcc.c ****       }
 455:Drivers/STM32L1xx_HAL_Driver/Src/stm32l1xx_hal_rcc.c ****     }
 456:Drivers/STM32L1xx_HAL_Driver/Src/stm32l1xx_hal_rcc.c ****   }
 457:Drivers/STM32L1xx_HAL_Driver/Src/stm32l1xx_hal_rcc.c ****   /*----------------------------- MSI Configuration --------------------------*/
 458:Drivers/STM32L1xx_HAL_Driver/Src/stm32l1xx_hal_rcc.c ****   if(((RCC_OscInitStruct->OscillatorType) & RCC_OSCILLATORTYPE_MSI) == RCC_OSCILLATORTYPE_MSI)
 541              		.loc 1 458 25
 542 01ec 7B68     		ldr	r3, [r7, #4]
 543 01ee 1B68     		ldr	r3, [r3]
 544              		.loc 1 458 43
 545 01f0 03F01003 		and	r3, r3, #16
 546              		.loc 1 458 5
 547 01f4 002B     		cmp	r3, #0
 548 01f6 00F0B880 		beq	.L37
 459:Drivers/STM32L1xx_HAL_Driver/Src/stm32l1xx_hal_rcc.c ****   {
 460:Drivers/STM32L1xx_HAL_Driver/Src/stm32l1xx_hal_rcc.c ****     /* When the MSI is used as system clock it will not be disabled */
 461:Drivers/STM32L1xx_HAL_Driver/Src/stm32l1xx_hal_rcc.c ****     if(sysclk_source == RCC_CFGR_SWS_MSI)
 549              		.loc 1 461 7
 550 01fa BB69     		ldr	r3, [r7, #24]
 551 01fc 002B     		cmp	r3, #0
 552 01fe 70D1     		bne	.L38
ARM GAS  C:\Users\SOLDER~1\AppData\Local\Temp\cc1DKCam.s 			page 19


 462:Drivers/STM32L1xx_HAL_Driver/Src/stm32l1xx_hal_rcc.c ****     {
 463:Drivers/STM32L1xx_HAL_Driver/Src/stm32l1xx_hal_rcc.c ****       if((__HAL_RCC_GET_FLAG(RCC_FLAG_MSIRDY) != 0U) && (RCC_OscInitStruct->MSIState == RCC_MSI_OFF
 553              		.loc 1 463 11
 554 0200 184B     		ldr	r3, .L81
 555 0202 1B68     		ldr	r3, [r3]
 556 0204 03F40073 		and	r3, r3, #512
 557              		.loc 1 463 9
 558 0208 002B     		cmp	r3, #0
 559 020a 05D0     		beq	.L39
 560              		.loc 1 463 75 discriminator 1
 561 020c 7B68     		ldr	r3, [r7, #4]
 562 020e 9B69     		ldr	r3, [r3, #24]
 563              		.loc 1 463 54 discriminator 1
 564 0210 002B     		cmp	r3, #0
 565 0212 01D1     		bne	.L39
 464:Drivers/STM32L1xx_HAL_Driver/Src/stm32l1xx_hal_rcc.c ****       {
 465:Drivers/STM32L1xx_HAL_Driver/Src/stm32l1xx_hal_rcc.c ****         return HAL_ERROR;
 566              		.loc 1 465 16
 567 0214 0123     		movs	r3, #1
 568 0216 1AE2     		b	.L14
 569              	.L39:
 466:Drivers/STM32L1xx_HAL_Driver/Src/stm32l1xx_hal_rcc.c ****       }
 467:Drivers/STM32L1xx_HAL_Driver/Src/stm32l1xx_hal_rcc.c ****       /* Otherwise, just the calibration and MSI range change are allowed */
 468:Drivers/STM32L1xx_HAL_Driver/Src/stm32l1xx_hal_rcc.c ****       else
 469:Drivers/STM32L1xx_HAL_Driver/Src/stm32l1xx_hal_rcc.c ****       {
 470:Drivers/STM32L1xx_HAL_Driver/Src/stm32l1xx_hal_rcc.c ****        /* Check MSICalibrationValue and MSIClockRange input parameters */
 471:Drivers/STM32L1xx_HAL_Driver/Src/stm32l1xx_hal_rcc.c ****         assert_param(IS_RCC_MSICALIBRATION_VALUE(RCC_OscInitStruct->MSICalibrationValue));
 472:Drivers/STM32L1xx_HAL_Driver/Src/stm32l1xx_hal_rcc.c ****         assert_param(IS_RCC_MSI_CLOCK_RANGE(RCC_OscInitStruct->MSIClockRange));
 473:Drivers/STM32L1xx_HAL_Driver/Src/stm32l1xx_hal_rcc.c **** 
 474:Drivers/STM32L1xx_HAL_Driver/Src/stm32l1xx_hal_rcc.c ****         /* To correctly read data from FLASH memory, the number of wait states (LATENCY)
 475:Drivers/STM32L1xx_HAL_Driver/Src/stm32l1xx_hal_rcc.c ****            must be correctly programmed according to the frequency of the CPU clock
 476:Drivers/STM32L1xx_HAL_Driver/Src/stm32l1xx_hal_rcc.c ****            (HCLK) and the supply voltage of the device. */
 477:Drivers/STM32L1xx_HAL_Driver/Src/stm32l1xx_hal_rcc.c ****         if(RCC_OscInitStruct->MSIClockRange > __HAL_RCC_GET_MSI_RANGE())
 570              		.loc 1 477 29
 571 0218 7B68     		ldr	r3, [r7, #4]
 572 021a 1A6A     		ldr	r2, [r3, #32]
 573              		.loc 1 477 47
 574 021c 114B     		ldr	r3, .L81
 575 021e 5B68     		ldr	r3, [r3, #4]
 576 0220 03F46043 		and	r3, r3, #57344
 577              		.loc 1 477 11
 578 0224 9A42     		cmp	r2, r3
 579 0226 21D9     		bls	.L40
 478:Drivers/STM32L1xx_HAL_Driver/Src/stm32l1xx_hal_rcc.c ****         {
 479:Drivers/STM32L1xx_HAL_Driver/Src/stm32l1xx_hal_rcc.c ****           /* First increase number of wait states update if necessary */
 480:Drivers/STM32L1xx_HAL_Driver/Src/stm32l1xx_hal_rcc.c ****           if(RCC_SetFlashLatencyFromMSIRange(RCC_OscInitStruct->MSIClockRange) != HAL_OK)
 580              		.loc 1 480 14
 581 0228 7B68     		ldr	r3, [r7, #4]
 582 022a 1B6A     		ldr	r3, [r3, #32]
 583 022c 1846     		mov	r0, r3
 584 022e FFF7FEFF 		bl	RCC_SetFlashLatencyFromMSIRange
 585 0232 0346     		mov	r3, r0
 586              		.loc 1 480 13
 587 0234 002B     		cmp	r3, #0
 588 0236 01D0     		beq	.L41
 481:Drivers/STM32L1xx_HAL_Driver/Src/stm32l1xx_hal_rcc.c ****           {
 482:Drivers/STM32L1xx_HAL_Driver/Src/stm32l1xx_hal_rcc.c ****             return HAL_ERROR;
ARM GAS  C:\Users\SOLDER~1\AppData\Local\Temp\cc1DKCam.s 			page 20


 589              		.loc 1 482 20
 590 0238 0123     		movs	r3, #1
 591 023a 08E2     		b	.L14
 592              	.L41:
 483:Drivers/STM32L1xx_HAL_Driver/Src/stm32l1xx_hal_rcc.c ****           }
 484:Drivers/STM32L1xx_HAL_Driver/Src/stm32l1xx_hal_rcc.c **** 
 485:Drivers/STM32L1xx_HAL_Driver/Src/stm32l1xx_hal_rcc.c ****           /* Selects the Multiple Speed oscillator (MSI) clock range .*/
 486:Drivers/STM32L1xx_HAL_Driver/Src/stm32l1xx_hal_rcc.c ****           __HAL_RCC_MSI_RANGE_CONFIG(RCC_OscInitStruct->MSIClockRange);
 593              		.loc 1 486 11
 594 023c 094B     		ldr	r3, .L81
 595 023e 5B68     		ldr	r3, [r3, #4]
 596 0240 23F46042 		bic	r2, r3, #57344
 597 0244 7B68     		ldr	r3, [r7, #4]
 598 0246 1B6A     		ldr	r3, [r3, #32]
 599 0248 0649     		ldr	r1, .L81
 600 024a 1343     		orrs	r3, r3, r2
 601 024c 4B60     		str	r3, [r1, #4]
 487:Drivers/STM32L1xx_HAL_Driver/Src/stm32l1xx_hal_rcc.c ****           /* Adjusts the Multiple Speed oscillator (MSI) calibration value.*/
 488:Drivers/STM32L1xx_HAL_Driver/Src/stm32l1xx_hal_rcc.c ****           __HAL_RCC_MSI_CALIBRATIONVALUE_ADJUST(RCC_OscInitStruct->MSICalibrationValue);
 602              		.loc 1 488 11
 603 024e 054B     		ldr	r3, .L81
 604 0250 5B68     		ldr	r3, [r3, #4]
 605 0252 23F07F42 		bic	r2, r3, #-16777216
 606 0256 7B68     		ldr	r3, [r7, #4]
 607 0258 DB69     		ldr	r3, [r3, #28]
 608 025a 1B06     		lsls	r3, r3, #24
 609 025c 0149     		ldr	r1, .L81
 610 025e 1343     		orrs	r3, r3, r2
 611 0260 4B60     		str	r3, [r1, #4]
 612 0262 20E0     		b	.L42
 613              	.L82:
 614              		.align	2
 615              	.L81:
 616 0264 00380240 		.word	1073887232
 617 0268 00004742 		.word	1111949312
 618              	.L40:
 489:Drivers/STM32L1xx_HAL_Driver/Src/stm32l1xx_hal_rcc.c ****         }
 490:Drivers/STM32L1xx_HAL_Driver/Src/stm32l1xx_hal_rcc.c ****         else
 491:Drivers/STM32L1xx_HAL_Driver/Src/stm32l1xx_hal_rcc.c ****         {
 492:Drivers/STM32L1xx_HAL_Driver/Src/stm32l1xx_hal_rcc.c ****           /* Else, keep current flash latency while decreasing applies */
 493:Drivers/STM32L1xx_HAL_Driver/Src/stm32l1xx_hal_rcc.c ****           /* Selects the Multiple Speed oscillator (MSI) clock range .*/
 494:Drivers/STM32L1xx_HAL_Driver/Src/stm32l1xx_hal_rcc.c ****           __HAL_RCC_MSI_RANGE_CONFIG(RCC_OscInitStruct->MSIClockRange);
 619              		.loc 1 494 11
 620 026c 994B     		ldr	r3, .L83
 621 026e 5B68     		ldr	r3, [r3, #4]
 622 0270 23F46042 		bic	r2, r3, #57344
 623 0274 7B68     		ldr	r3, [r7, #4]
 624 0276 1B6A     		ldr	r3, [r3, #32]
 625 0278 9649     		ldr	r1, .L83
 626 027a 1343     		orrs	r3, r3, r2
 627 027c 4B60     		str	r3, [r1, #4]
 495:Drivers/STM32L1xx_HAL_Driver/Src/stm32l1xx_hal_rcc.c ****           /* Adjusts the Multiple Speed oscillator (MSI) calibration value.*/
 496:Drivers/STM32L1xx_HAL_Driver/Src/stm32l1xx_hal_rcc.c ****           __HAL_RCC_MSI_CALIBRATIONVALUE_ADJUST(RCC_OscInitStruct->MSICalibrationValue);
 628              		.loc 1 496 11
 629 027e 954B     		ldr	r3, .L83
 630 0280 5B68     		ldr	r3, [r3, #4]
 631 0282 23F07F42 		bic	r2, r3, #-16777216
ARM GAS  C:\Users\SOLDER~1\AppData\Local\Temp\cc1DKCam.s 			page 21


 632 0286 7B68     		ldr	r3, [r7, #4]
 633 0288 DB69     		ldr	r3, [r3, #28]
 634 028a 1B06     		lsls	r3, r3, #24
 635 028c 9149     		ldr	r1, .L83
 636 028e 1343     		orrs	r3, r3, r2
 637 0290 4B60     		str	r3, [r1, #4]
 497:Drivers/STM32L1xx_HAL_Driver/Src/stm32l1xx_hal_rcc.c **** 
 498:Drivers/STM32L1xx_HAL_Driver/Src/stm32l1xx_hal_rcc.c ****           /* Decrease number of wait states update if necessary */
 499:Drivers/STM32L1xx_HAL_Driver/Src/stm32l1xx_hal_rcc.c ****           if(RCC_SetFlashLatencyFromMSIRange(RCC_OscInitStruct->MSIClockRange) != HAL_OK)
 638              		.loc 1 499 14
 639 0292 7B68     		ldr	r3, [r7, #4]
 640 0294 1B6A     		ldr	r3, [r3, #32]
 641 0296 1846     		mov	r0, r3
 642 0298 FFF7FEFF 		bl	RCC_SetFlashLatencyFromMSIRange
 643 029c 0346     		mov	r3, r0
 644              		.loc 1 499 13
 645 029e 002B     		cmp	r3, #0
 646 02a0 01D0     		beq	.L42
 500:Drivers/STM32L1xx_HAL_Driver/Src/stm32l1xx_hal_rcc.c ****           {
 501:Drivers/STM32L1xx_HAL_Driver/Src/stm32l1xx_hal_rcc.c ****             return HAL_ERROR;
 647              		.loc 1 501 20
 648 02a2 0123     		movs	r3, #1
 649 02a4 D3E1     		b	.L14
 650              	.L42:
 502:Drivers/STM32L1xx_HAL_Driver/Src/stm32l1xx_hal_rcc.c ****           }
 503:Drivers/STM32L1xx_HAL_Driver/Src/stm32l1xx_hal_rcc.c ****         }
 504:Drivers/STM32L1xx_HAL_Driver/Src/stm32l1xx_hal_rcc.c **** 
 505:Drivers/STM32L1xx_HAL_Driver/Src/stm32l1xx_hal_rcc.c ****         /* Update the SystemCoreClock global variable */
 506:Drivers/STM32L1xx_HAL_Driver/Src/stm32l1xx_hal_rcc.c ****         SystemCoreClock =  (32768U * (1UL << ((RCC_OscInitStruct->MSIClockRange >> RCC_ICSCR_MSIRAN
 651              		.loc 1 506 65
 652 02a6 7B68     		ldr	r3, [r7, #4]
 653 02a8 1B6A     		ldr	r3, [r3, #32]
 654              		.loc 1 506 81
 655 02aa 5B0B     		lsrs	r3, r3, #13
 656              		.loc 1 506 108
 657 02ac 0133     		adds	r3, r3, #1
 658              		.loc 1 506 36
 659 02ae 4FF40042 		mov	r2, #32768
 660 02b2 02FA03F3 		lsl	r3, r2, r3
 507:Drivers/STM32L1xx_HAL_Driver/Src/stm32l1xx_hal_rcc.c ****                            >> AHBPrescTable[((RCC->CFGR & RCC_CFGR_HPRE) >> RCC_CFGR_HPRE_Pos)];
 661              		.loc 1 507 50
 662 02b6 874A     		ldr	r2, .L83
 663 02b8 9268     		ldr	r2, [r2, #8]
 664              		.loc 1 507 74
 665 02ba 1209     		lsrs	r2, r2, #4
 666 02bc 02F00F02 		and	r2, r2, #15
 667              		.loc 1 507 44
 668 02c0 8549     		ldr	r1, .L83+4
 669 02c2 8A5C     		ldrb	r2, [r1, r2]	@ zero_extendqisi2
 670              		.loc 1 507 28
 671 02c4 D340     		lsrs	r3, r3, r2
 506:Drivers/STM32L1xx_HAL_Driver/Src/stm32l1xx_hal_rcc.c ****                            >> AHBPrescTable[((RCC->CFGR & RCC_CFGR_HPRE) >> RCC_CFGR_HPRE_Pos)];
 672              		.loc 1 506 25
 673 02c6 854A     		ldr	r2, .L83+8
 674 02c8 1360     		str	r3, [r2]
 508:Drivers/STM32L1xx_HAL_Driver/Src/stm32l1xx_hal_rcc.c **** 
 509:Drivers/STM32L1xx_HAL_Driver/Src/stm32l1xx_hal_rcc.c ****         /* Configure the source of time base considering new system clocks settings*/
ARM GAS  C:\Users\SOLDER~1\AppData\Local\Temp\cc1DKCam.s 			page 22


 510:Drivers/STM32L1xx_HAL_Driver/Src/stm32l1xx_hal_rcc.c ****         status = HAL_InitTick(uwTickPrio);
 675              		.loc 1 510 18
 676 02ca 854B     		ldr	r3, .L83+12
 677 02cc 1B68     		ldr	r3, [r3]
 678 02ce 1846     		mov	r0, r3
 679 02d0 FFF7FEFF 		bl	HAL_InitTick
 680 02d4 0346     		mov	r3, r0
 681 02d6 FB73     		strb	r3, [r7, #15]
 511:Drivers/STM32L1xx_HAL_Driver/Src/stm32l1xx_hal_rcc.c ****         if(status != HAL_OK)
 682              		.loc 1 511 11
 683 02d8 FB7B     		ldrb	r3, [r7, #15]	@ zero_extendqisi2
 684 02da 002B     		cmp	r3, #0
 685 02dc 45D0     		beq	.L37
 512:Drivers/STM32L1xx_HAL_Driver/Src/stm32l1xx_hal_rcc.c ****         {
 513:Drivers/STM32L1xx_HAL_Driver/Src/stm32l1xx_hal_rcc.c ****           return status;
 686              		.loc 1 513 18
 687 02de FB7B     		ldrb	r3, [r7, #15]	@ zero_extendqisi2
 688 02e0 B5E1     		b	.L14
 689              	.L38:
 514:Drivers/STM32L1xx_HAL_Driver/Src/stm32l1xx_hal_rcc.c ****         }
 515:Drivers/STM32L1xx_HAL_Driver/Src/stm32l1xx_hal_rcc.c ****       }
 516:Drivers/STM32L1xx_HAL_Driver/Src/stm32l1xx_hal_rcc.c ****     }
 517:Drivers/STM32L1xx_HAL_Driver/Src/stm32l1xx_hal_rcc.c ****     else
 518:Drivers/STM32L1xx_HAL_Driver/Src/stm32l1xx_hal_rcc.c ****     {
 519:Drivers/STM32L1xx_HAL_Driver/Src/stm32l1xx_hal_rcc.c ****       /* Check MSI State */
 520:Drivers/STM32L1xx_HAL_Driver/Src/stm32l1xx_hal_rcc.c ****       assert_param(IS_RCC_MSI(RCC_OscInitStruct->MSIState));
 521:Drivers/STM32L1xx_HAL_Driver/Src/stm32l1xx_hal_rcc.c **** 
 522:Drivers/STM32L1xx_HAL_Driver/Src/stm32l1xx_hal_rcc.c ****       /* Check the MSI State */
 523:Drivers/STM32L1xx_HAL_Driver/Src/stm32l1xx_hal_rcc.c ****       if(RCC_OscInitStruct->MSIState != RCC_MSI_OFF)
 690              		.loc 1 523 27
 691 02e2 7B68     		ldr	r3, [r7, #4]
 692 02e4 9B69     		ldr	r3, [r3, #24]
 693              		.loc 1 523 9
 694 02e6 002B     		cmp	r3, #0
 695 02e8 29D0     		beq	.L43
 524:Drivers/STM32L1xx_HAL_Driver/Src/stm32l1xx_hal_rcc.c ****       {
 525:Drivers/STM32L1xx_HAL_Driver/Src/stm32l1xx_hal_rcc.c ****         /* Enable the Multi Speed oscillator (MSI). */
 526:Drivers/STM32L1xx_HAL_Driver/Src/stm32l1xx_hal_rcc.c ****         __HAL_RCC_MSI_ENABLE();
 696              		.loc 1 526 9
 697 02ea 7E4B     		ldr	r3, .L83+16
 698 02ec 0122     		movs	r2, #1
 699 02ee 1A60     		str	r2, [r3]
 527:Drivers/STM32L1xx_HAL_Driver/Src/stm32l1xx_hal_rcc.c **** 
 528:Drivers/STM32L1xx_HAL_Driver/Src/stm32l1xx_hal_rcc.c ****         /* Get Start Tick */
 529:Drivers/STM32L1xx_HAL_Driver/Src/stm32l1xx_hal_rcc.c ****         tickstart = HAL_GetTick();
 700              		.loc 1 529 21
 701 02f0 FFF7FEFF 		bl	HAL_GetTick
 702 02f4 3861     		str	r0, [r7, #16]
 530:Drivers/STM32L1xx_HAL_Driver/Src/stm32l1xx_hal_rcc.c **** 
 531:Drivers/STM32L1xx_HAL_Driver/Src/stm32l1xx_hal_rcc.c ****         /* Wait till MSI is ready */
 532:Drivers/STM32L1xx_HAL_Driver/Src/stm32l1xx_hal_rcc.c ****         while(__HAL_RCC_GET_FLAG(RCC_FLAG_MSIRDY) == 0U)
 703              		.loc 1 532 14
 704 02f6 08E0     		b	.L44
 705              	.L45:
 533:Drivers/STM32L1xx_HAL_Driver/Src/stm32l1xx_hal_rcc.c ****         {
 534:Drivers/STM32L1xx_HAL_Driver/Src/stm32l1xx_hal_rcc.c ****           if((HAL_GetTick() - tickstart) > MSI_TIMEOUT_VALUE)
 706              		.loc 1 534 15
ARM GAS  C:\Users\SOLDER~1\AppData\Local\Temp\cc1DKCam.s 			page 23


 707 02f8 FFF7FEFF 		bl	HAL_GetTick
 708 02fc 0246     		mov	r2, r0
 709              		.loc 1 534 29
 710 02fe 3B69     		ldr	r3, [r7, #16]
 711 0300 D31A     		subs	r3, r2, r3
 712              		.loc 1 534 13
 713 0302 022B     		cmp	r3, #2
 714 0304 01D9     		bls	.L44
 535:Drivers/STM32L1xx_HAL_Driver/Src/stm32l1xx_hal_rcc.c ****           {
 536:Drivers/STM32L1xx_HAL_Driver/Src/stm32l1xx_hal_rcc.c ****             return HAL_TIMEOUT;
 715              		.loc 1 536 20
 716 0306 0323     		movs	r3, #3
 717 0308 A1E1     		b	.L14
 718              	.L44:
 532:Drivers/STM32L1xx_HAL_Driver/Src/stm32l1xx_hal_rcc.c ****         {
 719              		.loc 1 532 15
 720 030a 724B     		ldr	r3, .L83
 721 030c 1B68     		ldr	r3, [r3]
 722 030e 03F40073 		and	r3, r3, #512
 532:Drivers/STM32L1xx_HAL_Driver/Src/stm32l1xx_hal_rcc.c ****         {
 723              		.loc 1 532 14
 724 0312 002B     		cmp	r3, #0
 725 0314 F0D0     		beq	.L45
 537:Drivers/STM32L1xx_HAL_Driver/Src/stm32l1xx_hal_rcc.c ****           }
 538:Drivers/STM32L1xx_HAL_Driver/Src/stm32l1xx_hal_rcc.c ****         }
 539:Drivers/STM32L1xx_HAL_Driver/Src/stm32l1xx_hal_rcc.c ****         /* Check MSICalibrationValue and MSIClockRange input parameters */
 540:Drivers/STM32L1xx_HAL_Driver/Src/stm32l1xx_hal_rcc.c ****         assert_param(IS_RCC_MSICALIBRATION_VALUE(RCC_OscInitStruct->MSICalibrationValue));
 541:Drivers/STM32L1xx_HAL_Driver/Src/stm32l1xx_hal_rcc.c ****         assert_param(IS_RCC_MSI_CLOCK_RANGE(RCC_OscInitStruct->MSIClockRange));
 542:Drivers/STM32L1xx_HAL_Driver/Src/stm32l1xx_hal_rcc.c **** 
 543:Drivers/STM32L1xx_HAL_Driver/Src/stm32l1xx_hal_rcc.c ****         /* Selects the Multiple Speed oscillator (MSI) clock range .*/
 544:Drivers/STM32L1xx_HAL_Driver/Src/stm32l1xx_hal_rcc.c ****         __HAL_RCC_MSI_RANGE_CONFIG(RCC_OscInitStruct->MSIClockRange);
 726              		.loc 1 544 9
 727 0316 6F4B     		ldr	r3, .L83
 728 0318 5B68     		ldr	r3, [r3, #4]
 729 031a 23F46042 		bic	r2, r3, #57344
 730 031e 7B68     		ldr	r3, [r7, #4]
 731 0320 1B6A     		ldr	r3, [r3, #32]
 732 0322 6C49     		ldr	r1, .L83
 733 0324 1343     		orrs	r3, r3, r2
 734 0326 4B60     		str	r3, [r1, #4]
 545:Drivers/STM32L1xx_HAL_Driver/Src/stm32l1xx_hal_rcc.c ****          /* Adjusts the Multiple Speed oscillator (MSI) calibration value.*/
 546:Drivers/STM32L1xx_HAL_Driver/Src/stm32l1xx_hal_rcc.c ****         __HAL_RCC_MSI_CALIBRATIONVALUE_ADJUST(RCC_OscInitStruct->MSICalibrationValue);
 735              		.loc 1 546 9
 736 0328 6A4B     		ldr	r3, .L83
 737 032a 5B68     		ldr	r3, [r3, #4]
 738 032c 23F07F42 		bic	r2, r3, #-16777216
 739 0330 7B68     		ldr	r3, [r7, #4]
 740 0332 DB69     		ldr	r3, [r3, #28]
 741 0334 1B06     		lsls	r3, r3, #24
 742 0336 6749     		ldr	r1, .L83
 743 0338 1343     		orrs	r3, r3, r2
 744 033a 4B60     		str	r3, [r1, #4]
 745 033c 15E0     		b	.L37
 746              	.L43:
 547:Drivers/STM32L1xx_HAL_Driver/Src/stm32l1xx_hal_rcc.c **** 
 548:Drivers/STM32L1xx_HAL_Driver/Src/stm32l1xx_hal_rcc.c ****       }
 549:Drivers/STM32L1xx_HAL_Driver/Src/stm32l1xx_hal_rcc.c ****       else
ARM GAS  C:\Users\SOLDER~1\AppData\Local\Temp\cc1DKCam.s 			page 24


 550:Drivers/STM32L1xx_HAL_Driver/Src/stm32l1xx_hal_rcc.c ****       {
 551:Drivers/STM32L1xx_HAL_Driver/Src/stm32l1xx_hal_rcc.c ****         /* Disable the Multi Speed oscillator (MSI). */
 552:Drivers/STM32L1xx_HAL_Driver/Src/stm32l1xx_hal_rcc.c ****         __HAL_RCC_MSI_DISABLE();
 747              		.loc 1 552 9
 748 033e 694B     		ldr	r3, .L83+16
 749 0340 0022     		movs	r2, #0
 750 0342 1A60     		str	r2, [r3]
 553:Drivers/STM32L1xx_HAL_Driver/Src/stm32l1xx_hal_rcc.c **** 
 554:Drivers/STM32L1xx_HAL_Driver/Src/stm32l1xx_hal_rcc.c ****         /* Get Start Tick */
 555:Drivers/STM32L1xx_HAL_Driver/Src/stm32l1xx_hal_rcc.c ****         tickstart = HAL_GetTick();
 751              		.loc 1 555 21
 752 0344 FFF7FEFF 		bl	HAL_GetTick
 753 0348 3861     		str	r0, [r7, #16]
 556:Drivers/STM32L1xx_HAL_Driver/Src/stm32l1xx_hal_rcc.c **** 
 557:Drivers/STM32L1xx_HAL_Driver/Src/stm32l1xx_hal_rcc.c ****         /* Wait till MSI is ready */
 558:Drivers/STM32L1xx_HAL_Driver/Src/stm32l1xx_hal_rcc.c ****         while(__HAL_RCC_GET_FLAG(RCC_FLAG_MSIRDY) != 0U)
 754              		.loc 1 558 14
 755 034a 08E0     		b	.L46
 756              	.L47:
 559:Drivers/STM32L1xx_HAL_Driver/Src/stm32l1xx_hal_rcc.c ****         {
 560:Drivers/STM32L1xx_HAL_Driver/Src/stm32l1xx_hal_rcc.c ****           if((HAL_GetTick() - tickstart) > MSI_TIMEOUT_VALUE)
 757              		.loc 1 560 15
 758 034c FFF7FEFF 		bl	HAL_GetTick
 759 0350 0246     		mov	r2, r0
 760              		.loc 1 560 29
 761 0352 3B69     		ldr	r3, [r7, #16]
 762 0354 D31A     		subs	r3, r2, r3
 763              		.loc 1 560 13
 764 0356 022B     		cmp	r3, #2
 765 0358 01D9     		bls	.L46
 561:Drivers/STM32L1xx_HAL_Driver/Src/stm32l1xx_hal_rcc.c ****           {
 562:Drivers/STM32L1xx_HAL_Driver/Src/stm32l1xx_hal_rcc.c ****             return HAL_TIMEOUT;
 766              		.loc 1 562 20
 767 035a 0323     		movs	r3, #3
 768 035c 77E1     		b	.L14
 769              	.L46:
 558:Drivers/STM32L1xx_HAL_Driver/Src/stm32l1xx_hal_rcc.c ****         {
 770              		.loc 1 558 15
 771 035e 5D4B     		ldr	r3, .L83
 772 0360 1B68     		ldr	r3, [r3]
 773 0362 03F40073 		and	r3, r3, #512
 558:Drivers/STM32L1xx_HAL_Driver/Src/stm32l1xx_hal_rcc.c ****         {
 774              		.loc 1 558 14
 775 0366 002B     		cmp	r3, #0
 776 0368 F0D1     		bne	.L47
 777              	.L37:
 563:Drivers/STM32L1xx_HAL_Driver/Src/stm32l1xx_hal_rcc.c ****           }
 564:Drivers/STM32L1xx_HAL_Driver/Src/stm32l1xx_hal_rcc.c ****         }
 565:Drivers/STM32L1xx_HAL_Driver/Src/stm32l1xx_hal_rcc.c ****       }
 566:Drivers/STM32L1xx_HAL_Driver/Src/stm32l1xx_hal_rcc.c ****     }
 567:Drivers/STM32L1xx_HAL_Driver/Src/stm32l1xx_hal_rcc.c ****   }
 568:Drivers/STM32L1xx_HAL_Driver/Src/stm32l1xx_hal_rcc.c ****   /*------------------------------ LSI Configuration -------------------------*/
 569:Drivers/STM32L1xx_HAL_Driver/Src/stm32l1xx_hal_rcc.c ****   if(((RCC_OscInitStruct->OscillatorType) & RCC_OSCILLATORTYPE_LSI) == RCC_OSCILLATORTYPE_LSI)
 778              		.loc 1 569 25
 779 036a 7B68     		ldr	r3, [r7, #4]
 780 036c 1B68     		ldr	r3, [r3]
 781              		.loc 1 569 43
ARM GAS  C:\Users\SOLDER~1\AppData\Local\Temp\cc1DKCam.s 			page 25


 782 036e 03F00803 		and	r3, r3, #8
 783              		.loc 1 569 5
 784 0372 002B     		cmp	r3, #0
 785 0374 30D0     		beq	.L48
 570:Drivers/STM32L1xx_HAL_Driver/Src/stm32l1xx_hal_rcc.c ****   {
 571:Drivers/STM32L1xx_HAL_Driver/Src/stm32l1xx_hal_rcc.c ****     /* Check the parameters */
 572:Drivers/STM32L1xx_HAL_Driver/Src/stm32l1xx_hal_rcc.c ****     assert_param(IS_RCC_LSI(RCC_OscInitStruct->LSIState));
 573:Drivers/STM32L1xx_HAL_Driver/Src/stm32l1xx_hal_rcc.c **** 
 574:Drivers/STM32L1xx_HAL_Driver/Src/stm32l1xx_hal_rcc.c ****     /* Check the LSI State */
 575:Drivers/STM32L1xx_HAL_Driver/Src/stm32l1xx_hal_rcc.c ****     if(RCC_OscInitStruct->LSIState != RCC_LSI_OFF)
 786              		.loc 1 575 25
 787 0376 7B68     		ldr	r3, [r7, #4]
 788 0378 5B69     		ldr	r3, [r3, #20]
 789              		.loc 1 575 7
 790 037a 002B     		cmp	r3, #0
 791 037c 16D0     		beq	.L49
 576:Drivers/STM32L1xx_HAL_Driver/Src/stm32l1xx_hal_rcc.c ****     {
 577:Drivers/STM32L1xx_HAL_Driver/Src/stm32l1xx_hal_rcc.c ****       /* Enable the Internal Low Speed oscillator (LSI). */
 578:Drivers/STM32L1xx_HAL_Driver/Src/stm32l1xx_hal_rcc.c ****       __HAL_RCC_LSI_ENABLE();
 792              		.loc 1 578 7
 793 037e 5A4B     		ldr	r3, .L83+20
 794 0380 0122     		movs	r2, #1
 795 0382 1A60     		str	r2, [r3]
 579:Drivers/STM32L1xx_HAL_Driver/Src/stm32l1xx_hal_rcc.c **** 
 580:Drivers/STM32L1xx_HAL_Driver/Src/stm32l1xx_hal_rcc.c ****       /* Get Start Tick */
 581:Drivers/STM32L1xx_HAL_Driver/Src/stm32l1xx_hal_rcc.c ****       tickstart = HAL_GetTick();
 796              		.loc 1 581 19
 797 0384 FFF7FEFF 		bl	HAL_GetTick
 798 0388 3861     		str	r0, [r7, #16]
 582:Drivers/STM32L1xx_HAL_Driver/Src/stm32l1xx_hal_rcc.c **** 
 583:Drivers/STM32L1xx_HAL_Driver/Src/stm32l1xx_hal_rcc.c ****       /* Wait till LSI is ready */
 584:Drivers/STM32L1xx_HAL_Driver/Src/stm32l1xx_hal_rcc.c ****       while(__HAL_RCC_GET_FLAG(RCC_FLAG_LSIRDY) == 0U)
 799              		.loc 1 584 12
 800 038a 08E0     		b	.L50
 801              	.L51:
 585:Drivers/STM32L1xx_HAL_Driver/Src/stm32l1xx_hal_rcc.c ****       {
 586:Drivers/STM32L1xx_HAL_Driver/Src/stm32l1xx_hal_rcc.c ****         if((HAL_GetTick() - tickstart ) > LSI_TIMEOUT_VALUE)
 802              		.loc 1 586 13
 803 038c FFF7FEFF 		bl	HAL_GetTick
 804 0390 0246     		mov	r2, r0
 805              		.loc 1 586 27
 806 0392 3B69     		ldr	r3, [r7, #16]
 807 0394 D31A     		subs	r3, r2, r3
 808              		.loc 1 586 11
 809 0396 022B     		cmp	r3, #2
 810 0398 01D9     		bls	.L50
 587:Drivers/STM32L1xx_HAL_Driver/Src/stm32l1xx_hal_rcc.c ****         {
 588:Drivers/STM32L1xx_HAL_Driver/Src/stm32l1xx_hal_rcc.c ****           return HAL_TIMEOUT;
 811              		.loc 1 588 18
 812 039a 0323     		movs	r3, #3
 813 039c 57E1     		b	.L14
 814              	.L50:
 584:Drivers/STM32L1xx_HAL_Driver/Src/stm32l1xx_hal_rcc.c ****       {
 815              		.loc 1 584 13
 816 039e 4D4B     		ldr	r3, .L83
 817 03a0 5B6B     		ldr	r3, [r3, #52]
 818 03a2 03F00203 		and	r3, r3, #2
ARM GAS  C:\Users\SOLDER~1\AppData\Local\Temp\cc1DKCam.s 			page 26


 584:Drivers/STM32L1xx_HAL_Driver/Src/stm32l1xx_hal_rcc.c ****       {
 819              		.loc 1 584 12
 820 03a6 002B     		cmp	r3, #0
 821 03a8 F0D0     		beq	.L51
 822 03aa 15E0     		b	.L48
 823              	.L49:
 589:Drivers/STM32L1xx_HAL_Driver/Src/stm32l1xx_hal_rcc.c ****         }
 590:Drivers/STM32L1xx_HAL_Driver/Src/stm32l1xx_hal_rcc.c ****       }
 591:Drivers/STM32L1xx_HAL_Driver/Src/stm32l1xx_hal_rcc.c ****     }
 592:Drivers/STM32L1xx_HAL_Driver/Src/stm32l1xx_hal_rcc.c ****     else
 593:Drivers/STM32L1xx_HAL_Driver/Src/stm32l1xx_hal_rcc.c ****     {
 594:Drivers/STM32L1xx_HAL_Driver/Src/stm32l1xx_hal_rcc.c ****       /* Disable the Internal Low Speed oscillator (LSI). */
 595:Drivers/STM32L1xx_HAL_Driver/Src/stm32l1xx_hal_rcc.c ****       __HAL_RCC_LSI_DISABLE();
 824              		.loc 1 595 7
 825 03ac 4E4B     		ldr	r3, .L83+20
 826 03ae 0022     		movs	r2, #0
 827 03b0 1A60     		str	r2, [r3]
 596:Drivers/STM32L1xx_HAL_Driver/Src/stm32l1xx_hal_rcc.c **** 
 597:Drivers/STM32L1xx_HAL_Driver/Src/stm32l1xx_hal_rcc.c ****       /* Get Start Tick */
 598:Drivers/STM32L1xx_HAL_Driver/Src/stm32l1xx_hal_rcc.c ****       tickstart = HAL_GetTick();
 828              		.loc 1 598 19
 829 03b2 FFF7FEFF 		bl	HAL_GetTick
 830 03b6 3861     		str	r0, [r7, #16]
 599:Drivers/STM32L1xx_HAL_Driver/Src/stm32l1xx_hal_rcc.c **** 
 600:Drivers/STM32L1xx_HAL_Driver/Src/stm32l1xx_hal_rcc.c ****       /* Wait till LSI is disabled */
 601:Drivers/STM32L1xx_HAL_Driver/Src/stm32l1xx_hal_rcc.c ****       while(__HAL_RCC_GET_FLAG(RCC_FLAG_LSIRDY) != 0U)
 831              		.loc 1 601 12
 832 03b8 08E0     		b	.L52
 833              	.L53:
 602:Drivers/STM32L1xx_HAL_Driver/Src/stm32l1xx_hal_rcc.c ****       {
 603:Drivers/STM32L1xx_HAL_Driver/Src/stm32l1xx_hal_rcc.c ****         if((HAL_GetTick() - tickstart ) > LSI_TIMEOUT_VALUE)
 834              		.loc 1 603 13
 835 03ba FFF7FEFF 		bl	HAL_GetTick
 836 03be 0246     		mov	r2, r0
 837              		.loc 1 603 27
 838 03c0 3B69     		ldr	r3, [r7, #16]
 839 03c2 D31A     		subs	r3, r2, r3
 840              		.loc 1 603 11
 841 03c4 022B     		cmp	r3, #2
 842 03c6 01D9     		bls	.L52
 604:Drivers/STM32L1xx_HAL_Driver/Src/stm32l1xx_hal_rcc.c ****         {
 605:Drivers/STM32L1xx_HAL_Driver/Src/stm32l1xx_hal_rcc.c ****           return HAL_TIMEOUT;
 843              		.loc 1 605 18
 844 03c8 0323     		movs	r3, #3
 845 03ca 40E1     		b	.L14
 846              	.L52:
 601:Drivers/STM32L1xx_HAL_Driver/Src/stm32l1xx_hal_rcc.c ****       {
 847              		.loc 1 601 13
 848 03cc 414B     		ldr	r3, .L83
 849 03ce 5B6B     		ldr	r3, [r3, #52]
 850 03d0 03F00203 		and	r3, r3, #2
 601:Drivers/STM32L1xx_HAL_Driver/Src/stm32l1xx_hal_rcc.c ****       {
 851              		.loc 1 601 12
 852 03d4 002B     		cmp	r3, #0
 853 03d6 F0D1     		bne	.L53
 854              	.L48:
 606:Drivers/STM32L1xx_HAL_Driver/Src/stm32l1xx_hal_rcc.c ****         }
ARM GAS  C:\Users\SOLDER~1\AppData\Local\Temp\cc1DKCam.s 			page 27


 607:Drivers/STM32L1xx_HAL_Driver/Src/stm32l1xx_hal_rcc.c ****       }
 608:Drivers/STM32L1xx_HAL_Driver/Src/stm32l1xx_hal_rcc.c ****     }
 609:Drivers/STM32L1xx_HAL_Driver/Src/stm32l1xx_hal_rcc.c ****   }
 610:Drivers/STM32L1xx_HAL_Driver/Src/stm32l1xx_hal_rcc.c ****   /*------------------------------ LSE Configuration -------------------------*/
 611:Drivers/STM32L1xx_HAL_Driver/Src/stm32l1xx_hal_rcc.c ****   if(((RCC_OscInitStruct->OscillatorType) & RCC_OSCILLATORTYPE_LSE) == RCC_OSCILLATORTYPE_LSE)
 855              		.loc 1 611 25
 856 03d8 7B68     		ldr	r3, [r7, #4]
 857 03da 1B68     		ldr	r3, [r3]
 858              		.loc 1 611 43
 859 03dc 03F00403 		and	r3, r3, #4
 860              		.loc 1 611 5
 861 03e0 002B     		cmp	r3, #0
 862 03e2 00F0B580 		beq	.L54
 863              	.LBB2:
 612:Drivers/STM32L1xx_HAL_Driver/Src/stm32l1xx_hal_rcc.c ****   {
 613:Drivers/STM32L1xx_HAL_Driver/Src/stm32l1xx_hal_rcc.c ****     FlagStatus       pwrclkchanged = RESET;
 864              		.loc 1 613 22
 865 03e6 0023     		movs	r3, #0
 866 03e8 FB77     		strb	r3, [r7, #31]
 614:Drivers/STM32L1xx_HAL_Driver/Src/stm32l1xx_hal_rcc.c **** 
 615:Drivers/STM32L1xx_HAL_Driver/Src/stm32l1xx_hal_rcc.c ****     /* Check the parameters */
 616:Drivers/STM32L1xx_HAL_Driver/Src/stm32l1xx_hal_rcc.c ****     assert_param(IS_RCC_LSE(RCC_OscInitStruct->LSEState));
 617:Drivers/STM32L1xx_HAL_Driver/Src/stm32l1xx_hal_rcc.c **** 
 618:Drivers/STM32L1xx_HAL_Driver/Src/stm32l1xx_hal_rcc.c ****     /* Update LSE configuration in Backup Domain control register    */
 619:Drivers/STM32L1xx_HAL_Driver/Src/stm32l1xx_hal_rcc.c ****     /* Requires to enable write access to Backup Domain of necessary */
 620:Drivers/STM32L1xx_HAL_Driver/Src/stm32l1xx_hal_rcc.c ****     if(__HAL_RCC_PWR_IS_CLK_DISABLED())
 867              		.loc 1 620 8
 868 03ea 3A4B     		ldr	r3, .L83
 869 03ec 5B6A     		ldr	r3, [r3, #36]
 870 03ee 03F08053 		and	r3, r3, #268435456
 871              		.loc 1 620 7
 872 03f2 002B     		cmp	r3, #0
 873 03f4 0DD1     		bne	.L55
 874              	.LBB3:
 621:Drivers/STM32L1xx_HAL_Driver/Src/stm32l1xx_hal_rcc.c ****     {
 622:Drivers/STM32L1xx_HAL_Driver/Src/stm32l1xx_hal_rcc.c ****       __HAL_RCC_PWR_CLK_ENABLE();
 875              		.loc 1 622 7
 876 03f6 374B     		ldr	r3, .L83
 877 03f8 5B6A     		ldr	r3, [r3, #36]
 878 03fa 364A     		ldr	r2, .L83
 879 03fc 43F08053 		orr	r3, r3, #268435456
 880 0400 5362     		str	r3, [r2, #36]
 881 0402 344B     		ldr	r3, .L83
 882 0404 5B6A     		ldr	r3, [r3, #36]
 883 0406 03F08053 		and	r3, r3, #268435456
 884 040a BB60     		str	r3, [r7, #8]
 885 040c BB68     		ldr	r3, [r7, #8]
 886              	.LBE3:
 623:Drivers/STM32L1xx_HAL_Driver/Src/stm32l1xx_hal_rcc.c ****       pwrclkchanged = SET;
 887              		.loc 1 623 21
 888 040e 0123     		movs	r3, #1
 889 0410 FB77     		strb	r3, [r7, #31]
 890              	.L55:
 624:Drivers/STM32L1xx_HAL_Driver/Src/stm32l1xx_hal_rcc.c ****     }
 625:Drivers/STM32L1xx_HAL_Driver/Src/stm32l1xx_hal_rcc.c **** 
 626:Drivers/STM32L1xx_HAL_Driver/Src/stm32l1xx_hal_rcc.c ****     if(HAL_IS_BIT_CLR(PWR->CR, PWR_CR_DBP))
 891              		.loc 1 626 8
ARM GAS  C:\Users\SOLDER~1\AppData\Local\Temp\cc1DKCam.s 			page 28


 892 0412 364B     		ldr	r3, .L83+24
 893 0414 1B68     		ldr	r3, [r3]
 894 0416 03F48073 		and	r3, r3, #256
 895              		.loc 1 626 7
 896 041a 002B     		cmp	r3, #0
 897 041c 18D1     		bne	.L56
 627:Drivers/STM32L1xx_HAL_Driver/Src/stm32l1xx_hal_rcc.c ****     {
 628:Drivers/STM32L1xx_HAL_Driver/Src/stm32l1xx_hal_rcc.c ****       /* Enable write access to Backup domain */
 629:Drivers/STM32L1xx_HAL_Driver/Src/stm32l1xx_hal_rcc.c ****       SET_BIT(PWR->CR, PWR_CR_DBP);
 898              		.loc 1 629 7
 899 041e 334B     		ldr	r3, .L83+24
 900 0420 1B68     		ldr	r3, [r3]
 901 0422 324A     		ldr	r2, .L83+24
 902 0424 43F48073 		orr	r3, r3, #256
 903 0428 1360     		str	r3, [r2]
 630:Drivers/STM32L1xx_HAL_Driver/Src/stm32l1xx_hal_rcc.c **** 
 631:Drivers/STM32L1xx_HAL_Driver/Src/stm32l1xx_hal_rcc.c ****       /* Wait for Backup domain Write protection disable */
 632:Drivers/STM32L1xx_HAL_Driver/Src/stm32l1xx_hal_rcc.c ****       tickstart = HAL_GetTick();
 904              		.loc 1 632 19
 905 042a FFF7FEFF 		bl	HAL_GetTick
 906 042e 3861     		str	r0, [r7, #16]
 633:Drivers/STM32L1xx_HAL_Driver/Src/stm32l1xx_hal_rcc.c **** 
 634:Drivers/STM32L1xx_HAL_Driver/Src/stm32l1xx_hal_rcc.c ****       while(HAL_IS_BIT_CLR(PWR->CR, PWR_CR_DBP))
 907              		.loc 1 634 12
 908 0430 08E0     		b	.L57
 909              	.L58:
 635:Drivers/STM32L1xx_HAL_Driver/Src/stm32l1xx_hal_rcc.c ****       {
 636:Drivers/STM32L1xx_HAL_Driver/Src/stm32l1xx_hal_rcc.c ****         if((HAL_GetTick() - tickstart) > RCC_DBP_TIMEOUT_VALUE)
 910              		.loc 1 636 13
 911 0432 FFF7FEFF 		bl	HAL_GetTick
 912 0436 0246     		mov	r2, r0
 913              		.loc 1 636 27
 914 0438 3B69     		ldr	r3, [r7, #16]
 915 043a D31A     		subs	r3, r2, r3
 916              		.loc 1 636 11
 917 043c 642B     		cmp	r3, #100
 918 043e 01D9     		bls	.L57
 637:Drivers/STM32L1xx_HAL_Driver/Src/stm32l1xx_hal_rcc.c ****         {
 638:Drivers/STM32L1xx_HAL_Driver/Src/stm32l1xx_hal_rcc.c ****           return HAL_TIMEOUT;
 919              		.loc 1 638 18
 920 0440 0323     		movs	r3, #3
 921 0442 04E1     		b	.L14
 922              	.L57:
 634:Drivers/STM32L1xx_HAL_Driver/Src/stm32l1xx_hal_rcc.c ****       {
 923              		.loc 1 634 13
 924 0444 294B     		ldr	r3, .L83+24
 925 0446 1B68     		ldr	r3, [r3]
 926 0448 03F48073 		and	r3, r3, #256
 634:Drivers/STM32L1xx_HAL_Driver/Src/stm32l1xx_hal_rcc.c ****       {
 927              		.loc 1 634 12
 928 044c 002B     		cmp	r3, #0
 929 044e F0D0     		beq	.L58
 930              	.L56:
 639:Drivers/STM32L1xx_HAL_Driver/Src/stm32l1xx_hal_rcc.c ****         }
 640:Drivers/STM32L1xx_HAL_Driver/Src/stm32l1xx_hal_rcc.c ****       }
 641:Drivers/STM32L1xx_HAL_Driver/Src/stm32l1xx_hal_rcc.c ****     }
 642:Drivers/STM32L1xx_HAL_Driver/Src/stm32l1xx_hal_rcc.c **** 
ARM GAS  C:\Users\SOLDER~1\AppData\Local\Temp\cc1DKCam.s 			page 29


 643:Drivers/STM32L1xx_HAL_Driver/Src/stm32l1xx_hal_rcc.c ****     /* Set the new LSE configuration -----------------------------------------*/
 644:Drivers/STM32L1xx_HAL_Driver/Src/stm32l1xx_hal_rcc.c ****     __HAL_RCC_LSE_CONFIG(RCC_OscInitStruct->LSEState);
 931              		.loc 1 644 5
 932 0450 7B68     		ldr	r3, [r7, #4]
 933 0452 9B68     		ldr	r3, [r3, #8]
 934 0454 012B     		cmp	r3, #1
 935 0456 06D1     		bne	.L59
 936              		.loc 1 644 5 is_stmt 0 discriminator 1
 937 0458 1E4B     		ldr	r3, .L83
 938 045a 5B6B     		ldr	r3, [r3, #52]
 939 045c 1D4A     		ldr	r2, .L83
 940 045e 43F48073 		orr	r3, r3, #256
 941 0462 5363     		str	r3, [r2, #52]
 942 0464 2DE0     		b	.L60
 943              	.L59:
 944              		.loc 1 644 5 discriminator 2
 945 0466 7B68     		ldr	r3, [r7, #4]
 946 0468 9B68     		ldr	r3, [r3, #8]
 947 046a 002B     		cmp	r3, #0
 948 046c 0CD1     		bne	.L61
 949              		.loc 1 644 5 discriminator 3
 950 046e 194B     		ldr	r3, .L83
 951 0470 5B6B     		ldr	r3, [r3, #52]
 952 0472 184A     		ldr	r2, .L83
 953 0474 23F48073 		bic	r3, r3, #256
 954 0478 5363     		str	r3, [r2, #52]
 955 047a 164B     		ldr	r3, .L83
 956 047c 5B6B     		ldr	r3, [r3, #52]
 957 047e 154A     		ldr	r2, .L83
 958 0480 23F48063 		bic	r3, r3, #1024
 959 0484 5363     		str	r3, [r2, #52]
 960 0486 1CE0     		b	.L60
 961              	.L61:
 962              		.loc 1 644 5 discriminator 4
 963 0488 7B68     		ldr	r3, [r7, #4]
 964 048a 9B68     		ldr	r3, [r3, #8]
 965 048c 052B     		cmp	r3, #5
 966 048e 0CD1     		bne	.L62
 967              		.loc 1 644 5 discriminator 5
 968 0490 104B     		ldr	r3, .L83
 969 0492 5B6B     		ldr	r3, [r3, #52]
 970 0494 0F4A     		ldr	r2, .L83
 971 0496 43F48063 		orr	r3, r3, #1024
 972 049a 5363     		str	r3, [r2, #52]
 973 049c 0D4B     		ldr	r3, .L83
 974 049e 5B6B     		ldr	r3, [r3, #52]
 975 04a0 0C4A     		ldr	r2, .L83
 976 04a2 43F48073 		orr	r3, r3, #256
 977 04a6 5363     		str	r3, [r2, #52]
 978 04a8 0BE0     		b	.L60
 979              	.L62:
 980              		.loc 1 644 5 discriminator 6
 981 04aa 0A4B     		ldr	r3, .L83
 982 04ac 5B6B     		ldr	r3, [r3, #52]
 983 04ae 094A     		ldr	r2, .L83
 984 04b0 23F48073 		bic	r3, r3, #256
 985 04b4 5363     		str	r3, [r2, #52]
ARM GAS  C:\Users\SOLDER~1\AppData\Local\Temp\cc1DKCam.s 			page 30


 986 04b6 074B     		ldr	r3, .L83
 987 04b8 5B6B     		ldr	r3, [r3, #52]
 988 04ba 064A     		ldr	r2, .L83
 989 04bc 23F48063 		bic	r3, r3, #1024
 990 04c0 5363     		str	r3, [r2, #52]
 991              	.L60:
 645:Drivers/STM32L1xx_HAL_Driver/Src/stm32l1xx_hal_rcc.c ****     /* Check the LSE State */
 646:Drivers/STM32L1xx_HAL_Driver/Src/stm32l1xx_hal_rcc.c ****     if(RCC_OscInitStruct->LSEState != RCC_LSE_OFF)
 992              		.loc 1 646 25 is_stmt 1
 993 04c2 7B68     		ldr	r3, [r7, #4]
 994 04c4 9B68     		ldr	r3, [r3, #8]
 995              		.loc 1 646 7
 996 04c6 002B     		cmp	r3, #0
 997 04c8 24D0     		beq	.L63
 647:Drivers/STM32L1xx_HAL_Driver/Src/stm32l1xx_hal_rcc.c ****     {
 648:Drivers/STM32L1xx_HAL_Driver/Src/stm32l1xx_hal_rcc.c ****       /* Get Start Tick */
 649:Drivers/STM32L1xx_HAL_Driver/Src/stm32l1xx_hal_rcc.c ****       tickstart = HAL_GetTick();
 998              		.loc 1 649 19
 999 04ca FFF7FEFF 		bl	HAL_GetTick
 1000 04ce 3861     		str	r0, [r7, #16]
 650:Drivers/STM32L1xx_HAL_Driver/Src/stm32l1xx_hal_rcc.c **** 
 651:Drivers/STM32L1xx_HAL_Driver/Src/stm32l1xx_hal_rcc.c ****       /* Wait till LSE is ready */
 652:Drivers/STM32L1xx_HAL_Driver/Src/stm32l1xx_hal_rcc.c ****       while(__HAL_RCC_GET_FLAG(RCC_FLAG_LSERDY) == 0U)
 1001              		.loc 1 652 12
 1002 04d0 19E0     		b	.L64
 1003              	.L84:
 1004 04d2 00BF     		.align	2
 1005              	.L83:
 1006 04d4 00380240 		.word	1073887232
 1007 04d8 00000000 		.word	AHBPrescTable
 1008 04dc 00000000 		.word	SystemCoreClock
 1009 04e0 00000000 		.word	uwTickPrio
 1010 04e4 20004742 		.word	1111949344
 1011 04e8 80064742 		.word	1111950976
 1012 04ec 00700040 		.word	1073770496
 1013              	.L65:
 653:Drivers/STM32L1xx_HAL_Driver/Src/stm32l1xx_hal_rcc.c ****       {
 654:Drivers/STM32L1xx_HAL_Driver/Src/stm32l1xx_hal_rcc.c ****         if((HAL_GetTick() - tickstart ) > RCC_LSE_TIMEOUT_VALUE)
 1014              		.loc 1 654 13
 1015 04f0 FFF7FEFF 		bl	HAL_GetTick
 1016 04f4 0246     		mov	r2, r0
 1017              		.loc 1 654 27
 1018 04f6 3B69     		ldr	r3, [r7, #16]
 1019 04f8 D31A     		subs	r3, r2, r3
 1020              		.loc 1 654 11
 1021 04fa 41F28832 		movw	r2, #5000
 1022 04fe 9342     		cmp	r3, r2
 1023 0500 01D9     		bls	.L64
 655:Drivers/STM32L1xx_HAL_Driver/Src/stm32l1xx_hal_rcc.c ****         {
 656:Drivers/STM32L1xx_HAL_Driver/Src/stm32l1xx_hal_rcc.c ****           return HAL_TIMEOUT;
 1024              		.loc 1 656 18
 1025 0502 0323     		movs	r3, #3
 1026 0504 A3E0     		b	.L14
 1027              	.L64:
 652:Drivers/STM32L1xx_HAL_Driver/Src/stm32l1xx_hal_rcc.c ****       {
 1028              		.loc 1 652 13
 1029 0506 544B     		ldr	r3, .L85
ARM GAS  C:\Users\SOLDER~1\AppData\Local\Temp\cc1DKCam.s 			page 31


 1030 0508 5B6B     		ldr	r3, [r3, #52]
 1031 050a 03F40073 		and	r3, r3, #512
 652:Drivers/STM32L1xx_HAL_Driver/Src/stm32l1xx_hal_rcc.c ****       {
 1032              		.loc 1 652 12
 1033 050e 002B     		cmp	r3, #0
 1034 0510 EED0     		beq	.L65
 1035 0512 14E0     		b	.L66
 1036              	.L63:
 657:Drivers/STM32L1xx_HAL_Driver/Src/stm32l1xx_hal_rcc.c ****         }
 658:Drivers/STM32L1xx_HAL_Driver/Src/stm32l1xx_hal_rcc.c ****       }
 659:Drivers/STM32L1xx_HAL_Driver/Src/stm32l1xx_hal_rcc.c ****     }
 660:Drivers/STM32L1xx_HAL_Driver/Src/stm32l1xx_hal_rcc.c ****     else
 661:Drivers/STM32L1xx_HAL_Driver/Src/stm32l1xx_hal_rcc.c ****     {
 662:Drivers/STM32L1xx_HAL_Driver/Src/stm32l1xx_hal_rcc.c ****       /* Get Start Tick */
 663:Drivers/STM32L1xx_HAL_Driver/Src/stm32l1xx_hal_rcc.c ****       tickstart = HAL_GetTick();
 1037              		.loc 1 663 19
 1038 0514 FFF7FEFF 		bl	HAL_GetTick
 1039 0518 3861     		str	r0, [r7, #16]
 664:Drivers/STM32L1xx_HAL_Driver/Src/stm32l1xx_hal_rcc.c **** 
 665:Drivers/STM32L1xx_HAL_Driver/Src/stm32l1xx_hal_rcc.c ****       /* Wait till LSE is disabled */
 666:Drivers/STM32L1xx_HAL_Driver/Src/stm32l1xx_hal_rcc.c ****       while(__HAL_RCC_GET_FLAG(RCC_FLAG_LSERDY) != 0U)
 1040              		.loc 1 666 12
 1041 051a 0AE0     		b	.L67
 1042              	.L68:
 667:Drivers/STM32L1xx_HAL_Driver/Src/stm32l1xx_hal_rcc.c ****       {
 668:Drivers/STM32L1xx_HAL_Driver/Src/stm32l1xx_hal_rcc.c ****         if((HAL_GetTick() - tickstart ) > RCC_LSE_TIMEOUT_VALUE)
 1043              		.loc 1 668 13
 1044 051c FFF7FEFF 		bl	HAL_GetTick
 1045 0520 0246     		mov	r2, r0
 1046              		.loc 1 668 27
 1047 0522 3B69     		ldr	r3, [r7, #16]
 1048 0524 D31A     		subs	r3, r2, r3
 1049              		.loc 1 668 11
 1050 0526 41F28832 		movw	r2, #5000
 1051 052a 9342     		cmp	r3, r2
 1052 052c 01D9     		bls	.L67
 669:Drivers/STM32L1xx_HAL_Driver/Src/stm32l1xx_hal_rcc.c ****         {
 670:Drivers/STM32L1xx_HAL_Driver/Src/stm32l1xx_hal_rcc.c ****           return HAL_TIMEOUT;
 1053              		.loc 1 670 18
 1054 052e 0323     		movs	r3, #3
 1055 0530 8DE0     		b	.L14
 1056              	.L67:
 666:Drivers/STM32L1xx_HAL_Driver/Src/stm32l1xx_hal_rcc.c ****       {
 1057              		.loc 1 666 13
 1058 0532 494B     		ldr	r3, .L85
 1059 0534 5B6B     		ldr	r3, [r3, #52]
 1060 0536 03F40073 		and	r3, r3, #512
 666:Drivers/STM32L1xx_HAL_Driver/Src/stm32l1xx_hal_rcc.c ****       {
 1061              		.loc 1 666 12
 1062 053a 002B     		cmp	r3, #0
 1063 053c EED1     		bne	.L68
 1064              	.L66:
 671:Drivers/STM32L1xx_HAL_Driver/Src/stm32l1xx_hal_rcc.c ****         }
 672:Drivers/STM32L1xx_HAL_Driver/Src/stm32l1xx_hal_rcc.c ****       }
 673:Drivers/STM32L1xx_HAL_Driver/Src/stm32l1xx_hal_rcc.c ****     }
 674:Drivers/STM32L1xx_HAL_Driver/Src/stm32l1xx_hal_rcc.c **** 
 675:Drivers/STM32L1xx_HAL_Driver/Src/stm32l1xx_hal_rcc.c ****     /* Require to disable power clock if necessary */
ARM GAS  C:\Users\SOLDER~1\AppData\Local\Temp\cc1DKCam.s 			page 32


 676:Drivers/STM32L1xx_HAL_Driver/Src/stm32l1xx_hal_rcc.c ****     if(pwrclkchanged == SET)
 1065              		.loc 1 676 7
 1066 053e FB7F     		ldrb	r3, [r7, #31]	@ zero_extendqisi2
 1067 0540 012B     		cmp	r3, #1
 1068 0542 05D1     		bne	.L54
 677:Drivers/STM32L1xx_HAL_Driver/Src/stm32l1xx_hal_rcc.c ****     {
 678:Drivers/STM32L1xx_HAL_Driver/Src/stm32l1xx_hal_rcc.c ****       __HAL_RCC_PWR_CLK_DISABLE();
 1069              		.loc 1 678 7
 1070 0544 444B     		ldr	r3, .L85
 1071 0546 5B6A     		ldr	r3, [r3, #36]
 1072 0548 434A     		ldr	r2, .L85
 1073 054a 23F08053 		bic	r3, r3, #268435456
 1074 054e 5362     		str	r3, [r2, #36]
 1075              	.L54:
 1076              	.LBE2:
 679:Drivers/STM32L1xx_HAL_Driver/Src/stm32l1xx_hal_rcc.c ****     }
 680:Drivers/STM32L1xx_HAL_Driver/Src/stm32l1xx_hal_rcc.c ****   }
 681:Drivers/STM32L1xx_HAL_Driver/Src/stm32l1xx_hal_rcc.c **** 
 682:Drivers/STM32L1xx_HAL_Driver/Src/stm32l1xx_hal_rcc.c ****   /*-------------------------------- PLL Configuration -----------------------*/
 683:Drivers/STM32L1xx_HAL_Driver/Src/stm32l1xx_hal_rcc.c ****   /* Check the parameters */
 684:Drivers/STM32L1xx_HAL_Driver/Src/stm32l1xx_hal_rcc.c ****   assert_param(IS_RCC_PLL(RCC_OscInitStruct->PLL.PLLState));
 685:Drivers/STM32L1xx_HAL_Driver/Src/stm32l1xx_hal_rcc.c ****   if ((RCC_OscInitStruct->PLL.PLLState) != RCC_PLL_NONE)
 1077              		.loc 1 685 30
 1078 0550 7B68     		ldr	r3, [r7, #4]
 1079 0552 5B6A     		ldr	r3, [r3, #36]
 1080              		.loc 1 685 6
 1081 0554 002B     		cmp	r3, #0
 1082 0556 79D0     		beq	.L69
 686:Drivers/STM32L1xx_HAL_Driver/Src/stm32l1xx_hal_rcc.c ****   {
 687:Drivers/STM32L1xx_HAL_Driver/Src/stm32l1xx_hal_rcc.c ****     /* Check if the PLL is used as system clock or not */
 688:Drivers/STM32L1xx_HAL_Driver/Src/stm32l1xx_hal_rcc.c ****     if(sysclk_source != RCC_SYSCLKSOURCE_STATUS_PLLCLK)
 1083              		.loc 1 688 7
 1084 0558 BB69     		ldr	r3, [r7, #24]
 1085 055a 0C2B     		cmp	r3, #12
 1086 055c 56D0     		beq	.L70
 689:Drivers/STM32L1xx_HAL_Driver/Src/stm32l1xx_hal_rcc.c ****     {
 690:Drivers/STM32L1xx_HAL_Driver/Src/stm32l1xx_hal_rcc.c ****       if((RCC_OscInitStruct->PLL.PLLState) == RCC_PLL_ON)
 1087              		.loc 1 690 33
 1088 055e 7B68     		ldr	r3, [r7, #4]
 1089 0560 5B6A     		ldr	r3, [r3, #36]
 1090              		.loc 1 690 9
 1091 0562 022B     		cmp	r3, #2
 1092 0564 3BD1     		bne	.L71
 691:Drivers/STM32L1xx_HAL_Driver/Src/stm32l1xx_hal_rcc.c ****       {
 692:Drivers/STM32L1xx_HAL_Driver/Src/stm32l1xx_hal_rcc.c ****         /* Check the parameters */
 693:Drivers/STM32L1xx_HAL_Driver/Src/stm32l1xx_hal_rcc.c ****         assert_param(IS_RCC_PLLSOURCE(RCC_OscInitStruct->PLL.PLLSource));
 694:Drivers/STM32L1xx_HAL_Driver/Src/stm32l1xx_hal_rcc.c ****         assert_param(IS_RCC_PLL_MUL(RCC_OscInitStruct->PLL.PLLMUL));
 695:Drivers/STM32L1xx_HAL_Driver/Src/stm32l1xx_hal_rcc.c ****         assert_param(IS_RCC_PLL_DIV(RCC_OscInitStruct->PLL.PLLDIV));
 696:Drivers/STM32L1xx_HAL_Driver/Src/stm32l1xx_hal_rcc.c **** 
 697:Drivers/STM32L1xx_HAL_Driver/Src/stm32l1xx_hal_rcc.c ****         /* Disable the main PLL. */
 698:Drivers/STM32L1xx_HAL_Driver/Src/stm32l1xx_hal_rcc.c ****         __HAL_RCC_PLL_DISABLE();
 1093              		.loc 1 698 9
 1094 0566 3D4B     		ldr	r3, .L85+4
 1095 0568 0022     		movs	r2, #0
 1096 056a 1A60     		str	r2, [r3]
 699:Drivers/STM32L1xx_HAL_Driver/Src/stm32l1xx_hal_rcc.c **** 
 700:Drivers/STM32L1xx_HAL_Driver/Src/stm32l1xx_hal_rcc.c ****         /* Get Start Tick */
ARM GAS  C:\Users\SOLDER~1\AppData\Local\Temp\cc1DKCam.s 			page 33


 701:Drivers/STM32L1xx_HAL_Driver/Src/stm32l1xx_hal_rcc.c ****         tickstart = HAL_GetTick();
 1097              		.loc 1 701 21
 1098 056c FFF7FEFF 		bl	HAL_GetTick
 1099 0570 3861     		str	r0, [r7, #16]
 702:Drivers/STM32L1xx_HAL_Driver/Src/stm32l1xx_hal_rcc.c **** 
 703:Drivers/STM32L1xx_HAL_Driver/Src/stm32l1xx_hal_rcc.c ****         /* Wait till PLL is disabled */
 704:Drivers/STM32L1xx_HAL_Driver/Src/stm32l1xx_hal_rcc.c ****         while(__HAL_RCC_GET_FLAG(RCC_FLAG_PLLRDY) != 0U)
 1100              		.loc 1 704 14
 1101 0572 08E0     		b	.L72
 1102              	.L73:
 705:Drivers/STM32L1xx_HAL_Driver/Src/stm32l1xx_hal_rcc.c ****         {
 706:Drivers/STM32L1xx_HAL_Driver/Src/stm32l1xx_hal_rcc.c ****           if((HAL_GetTick() - tickstart ) > PLL_TIMEOUT_VALUE)
 1103              		.loc 1 706 15
 1104 0574 FFF7FEFF 		bl	HAL_GetTick
 1105 0578 0246     		mov	r2, r0
 1106              		.loc 1 706 29
 1107 057a 3B69     		ldr	r3, [r7, #16]
 1108 057c D31A     		subs	r3, r2, r3
 1109              		.loc 1 706 13
 1110 057e 022B     		cmp	r3, #2
 1111 0580 01D9     		bls	.L72
 707:Drivers/STM32L1xx_HAL_Driver/Src/stm32l1xx_hal_rcc.c ****           {
 708:Drivers/STM32L1xx_HAL_Driver/Src/stm32l1xx_hal_rcc.c ****             return HAL_TIMEOUT;
 1112              		.loc 1 708 20
 1113 0582 0323     		movs	r3, #3
 1114 0584 63E0     		b	.L14
 1115              	.L72:
 704:Drivers/STM32L1xx_HAL_Driver/Src/stm32l1xx_hal_rcc.c ****         {
 1116              		.loc 1 704 15
 1117 0586 344B     		ldr	r3, .L85
 1118 0588 1B68     		ldr	r3, [r3]
 1119 058a 03F00073 		and	r3, r3, #33554432
 704:Drivers/STM32L1xx_HAL_Driver/Src/stm32l1xx_hal_rcc.c ****         {
 1120              		.loc 1 704 14
 1121 058e 002B     		cmp	r3, #0
 1122 0590 F0D1     		bne	.L73
 709:Drivers/STM32L1xx_HAL_Driver/Src/stm32l1xx_hal_rcc.c ****           }
 710:Drivers/STM32L1xx_HAL_Driver/Src/stm32l1xx_hal_rcc.c ****         }
 711:Drivers/STM32L1xx_HAL_Driver/Src/stm32l1xx_hal_rcc.c **** 
 712:Drivers/STM32L1xx_HAL_Driver/Src/stm32l1xx_hal_rcc.c ****         /* Configure the main PLL clock source, multiplication and division factors. */
 713:Drivers/STM32L1xx_HAL_Driver/Src/stm32l1xx_hal_rcc.c ****         __HAL_RCC_PLL_CONFIG(RCC_OscInitStruct->PLL.PLLSource,
 1123              		.loc 1 713 9
 1124 0592 314B     		ldr	r3, .L85
 1125 0594 9B68     		ldr	r3, [r3, #8]
 1126 0596 23F47D02 		bic	r2, r3, #16580608
 1127 059a 7B68     		ldr	r3, [r7, #4]
 1128 059c 996A     		ldr	r1, [r3, #40]
 1129 059e 7B68     		ldr	r3, [r7, #4]
 1130 05a0 DB6A     		ldr	r3, [r3, #44]
 1131 05a2 1943     		orrs	r1, r1, r3
 1132 05a4 7B68     		ldr	r3, [r7, #4]
 1133 05a6 1B6B     		ldr	r3, [r3, #48]
 1134 05a8 0B43     		orrs	r3, r3, r1
 1135 05aa 2B49     		ldr	r1, .L85
 1136 05ac 1343     		orrs	r3, r3, r2
 1137 05ae 8B60     		str	r3, [r1, #8]
 714:Drivers/STM32L1xx_HAL_Driver/Src/stm32l1xx_hal_rcc.c ****                              RCC_OscInitStruct->PLL.PLLMUL,
ARM GAS  C:\Users\SOLDER~1\AppData\Local\Temp\cc1DKCam.s 			page 34


 715:Drivers/STM32L1xx_HAL_Driver/Src/stm32l1xx_hal_rcc.c ****                              RCC_OscInitStruct->PLL.PLLDIV);
 716:Drivers/STM32L1xx_HAL_Driver/Src/stm32l1xx_hal_rcc.c ****         /* Enable the main PLL. */
 717:Drivers/STM32L1xx_HAL_Driver/Src/stm32l1xx_hal_rcc.c ****         __HAL_RCC_PLL_ENABLE();
 1138              		.loc 1 717 9
 1139 05b0 2A4B     		ldr	r3, .L85+4
 1140 05b2 0122     		movs	r2, #1
 1141 05b4 1A60     		str	r2, [r3]
 718:Drivers/STM32L1xx_HAL_Driver/Src/stm32l1xx_hal_rcc.c **** 
 719:Drivers/STM32L1xx_HAL_Driver/Src/stm32l1xx_hal_rcc.c ****         /* Get Start Tick */
 720:Drivers/STM32L1xx_HAL_Driver/Src/stm32l1xx_hal_rcc.c ****         tickstart = HAL_GetTick();
 1142              		.loc 1 720 21
 1143 05b6 FFF7FEFF 		bl	HAL_GetTick
 1144 05ba 3861     		str	r0, [r7, #16]
 721:Drivers/STM32L1xx_HAL_Driver/Src/stm32l1xx_hal_rcc.c **** 
 722:Drivers/STM32L1xx_HAL_Driver/Src/stm32l1xx_hal_rcc.c ****         /* Wait till PLL is ready */
 723:Drivers/STM32L1xx_HAL_Driver/Src/stm32l1xx_hal_rcc.c ****         while(__HAL_RCC_GET_FLAG(RCC_FLAG_PLLRDY) == 0U)
 1145              		.loc 1 723 14
 1146 05bc 08E0     		b	.L74
 1147              	.L75:
 724:Drivers/STM32L1xx_HAL_Driver/Src/stm32l1xx_hal_rcc.c ****         {
 725:Drivers/STM32L1xx_HAL_Driver/Src/stm32l1xx_hal_rcc.c ****           if((HAL_GetTick() - tickstart ) > PLL_TIMEOUT_VALUE)
 1148              		.loc 1 725 15
 1149 05be FFF7FEFF 		bl	HAL_GetTick
 1150 05c2 0246     		mov	r2, r0
 1151              		.loc 1 725 29
 1152 05c4 3B69     		ldr	r3, [r7, #16]
 1153 05c6 D31A     		subs	r3, r2, r3
 1154              		.loc 1 725 13
 1155 05c8 022B     		cmp	r3, #2
 1156 05ca 01D9     		bls	.L74
 726:Drivers/STM32L1xx_HAL_Driver/Src/stm32l1xx_hal_rcc.c ****           {
 727:Drivers/STM32L1xx_HAL_Driver/Src/stm32l1xx_hal_rcc.c ****             return HAL_TIMEOUT;
 1157              		.loc 1 727 20
 1158 05cc 0323     		movs	r3, #3
 1159 05ce 3EE0     		b	.L14
 1160              	.L74:
 723:Drivers/STM32L1xx_HAL_Driver/Src/stm32l1xx_hal_rcc.c ****         {
 1161              		.loc 1 723 15
 1162 05d0 214B     		ldr	r3, .L85
 1163 05d2 1B68     		ldr	r3, [r3]
 1164 05d4 03F00073 		and	r3, r3, #33554432
 723:Drivers/STM32L1xx_HAL_Driver/Src/stm32l1xx_hal_rcc.c ****         {
 1165              		.loc 1 723 14
 1166 05d8 002B     		cmp	r3, #0
 1167 05da F0D0     		beq	.L75
 1168 05dc 36E0     		b	.L69
 1169              	.L71:
 728:Drivers/STM32L1xx_HAL_Driver/Src/stm32l1xx_hal_rcc.c ****           }
 729:Drivers/STM32L1xx_HAL_Driver/Src/stm32l1xx_hal_rcc.c ****         }
 730:Drivers/STM32L1xx_HAL_Driver/Src/stm32l1xx_hal_rcc.c ****       }
 731:Drivers/STM32L1xx_HAL_Driver/Src/stm32l1xx_hal_rcc.c ****       else
 732:Drivers/STM32L1xx_HAL_Driver/Src/stm32l1xx_hal_rcc.c ****       {
 733:Drivers/STM32L1xx_HAL_Driver/Src/stm32l1xx_hal_rcc.c ****         /* Disable the main PLL. */
 734:Drivers/STM32L1xx_HAL_Driver/Src/stm32l1xx_hal_rcc.c ****         __HAL_RCC_PLL_DISABLE();
 1170              		.loc 1 734 9
 1171 05de 1F4B     		ldr	r3, .L85+4
 1172 05e0 0022     		movs	r2, #0
ARM GAS  C:\Users\SOLDER~1\AppData\Local\Temp\cc1DKCam.s 			page 35


 1173 05e2 1A60     		str	r2, [r3]
 735:Drivers/STM32L1xx_HAL_Driver/Src/stm32l1xx_hal_rcc.c **** 
 736:Drivers/STM32L1xx_HAL_Driver/Src/stm32l1xx_hal_rcc.c ****         /* Get Start Tick */
 737:Drivers/STM32L1xx_HAL_Driver/Src/stm32l1xx_hal_rcc.c ****         tickstart = HAL_GetTick();
 1174              		.loc 1 737 21
 1175 05e4 FFF7FEFF 		bl	HAL_GetTick
 1176 05e8 3861     		str	r0, [r7, #16]
 738:Drivers/STM32L1xx_HAL_Driver/Src/stm32l1xx_hal_rcc.c **** 
 739:Drivers/STM32L1xx_HAL_Driver/Src/stm32l1xx_hal_rcc.c ****         /* Wait till PLL is disabled */
 740:Drivers/STM32L1xx_HAL_Driver/Src/stm32l1xx_hal_rcc.c ****         while(__HAL_RCC_GET_FLAG(RCC_FLAG_PLLRDY) != 0U)
 1177              		.loc 1 740 14
 1178 05ea 08E0     		b	.L76
 1179              	.L77:
 741:Drivers/STM32L1xx_HAL_Driver/Src/stm32l1xx_hal_rcc.c ****         {
 742:Drivers/STM32L1xx_HAL_Driver/Src/stm32l1xx_hal_rcc.c ****           if((HAL_GetTick() - tickstart ) > PLL_TIMEOUT_VALUE)
 1180              		.loc 1 742 15
 1181 05ec FFF7FEFF 		bl	HAL_GetTick
 1182 05f0 0246     		mov	r2, r0
 1183              		.loc 1 742 29
 1184 05f2 3B69     		ldr	r3, [r7, #16]
 1185 05f4 D31A     		subs	r3, r2, r3
 1186              		.loc 1 742 13
 1187 05f6 022B     		cmp	r3, #2
 1188 05f8 01D9     		bls	.L76
 743:Drivers/STM32L1xx_HAL_Driver/Src/stm32l1xx_hal_rcc.c ****           {
 744:Drivers/STM32L1xx_HAL_Driver/Src/stm32l1xx_hal_rcc.c ****             return HAL_TIMEOUT;
 1189              		.loc 1 744 20
 1190 05fa 0323     		movs	r3, #3
 1191 05fc 27E0     		b	.L14
 1192              	.L76:
 740:Drivers/STM32L1xx_HAL_Driver/Src/stm32l1xx_hal_rcc.c ****         {
 1193              		.loc 1 740 15
 1194 05fe 164B     		ldr	r3, .L85
 1195 0600 1B68     		ldr	r3, [r3]
 1196 0602 03F00073 		and	r3, r3, #33554432
 740:Drivers/STM32L1xx_HAL_Driver/Src/stm32l1xx_hal_rcc.c ****         {
 1197              		.loc 1 740 14
 1198 0606 002B     		cmp	r3, #0
 1199 0608 F0D1     		bne	.L77
 1200 060a 1FE0     		b	.L69
 1201              	.L70:
 745:Drivers/STM32L1xx_HAL_Driver/Src/stm32l1xx_hal_rcc.c ****           }
 746:Drivers/STM32L1xx_HAL_Driver/Src/stm32l1xx_hal_rcc.c ****         }
 747:Drivers/STM32L1xx_HAL_Driver/Src/stm32l1xx_hal_rcc.c ****       }
 748:Drivers/STM32L1xx_HAL_Driver/Src/stm32l1xx_hal_rcc.c ****     }
 749:Drivers/STM32L1xx_HAL_Driver/Src/stm32l1xx_hal_rcc.c ****     else
 750:Drivers/STM32L1xx_HAL_Driver/Src/stm32l1xx_hal_rcc.c ****     {
 751:Drivers/STM32L1xx_HAL_Driver/Src/stm32l1xx_hal_rcc.c ****       /* Check if there is a request to disable the PLL used as System clock source */
 752:Drivers/STM32L1xx_HAL_Driver/Src/stm32l1xx_hal_rcc.c ****       if((RCC_OscInitStruct->PLL.PLLState) == RCC_PLL_OFF)
 1202              		.loc 1 752 33
 1203 060c 7B68     		ldr	r3, [r7, #4]
 1204 060e 5B6A     		ldr	r3, [r3, #36]
 1205              		.loc 1 752 9
 1206 0610 012B     		cmp	r3, #1
 1207 0612 01D1     		bne	.L78
 753:Drivers/STM32L1xx_HAL_Driver/Src/stm32l1xx_hal_rcc.c ****       {
 754:Drivers/STM32L1xx_HAL_Driver/Src/stm32l1xx_hal_rcc.c ****         return HAL_ERROR;
ARM GAS  C:\Users\SOLDER~1\AppData\Local\Temp\cc1DKCam.s 			page 36


 1208              		.loc 1 754 16
 1209 0614 0123     		movs	r3, #1
 1210 0616 1AE0     		b	.L14
 1211              	.L78:
 755:Drivers/STM32L1xx_HAL_Driver/Src/stm32l1xx_hal_rcc.c ****       }
 756:Drivers/STM32L1xx_HAL_Driver/Src/stm32l1xx_hal_rcc.c ****       else
 757:Drivers/STM32L1xx_HAL_Driver/Src/stm32l1xx_hal_rcc.c ****       {
 758:Drivers/STM32L1xx_HAL_Driver/Src/stm32l1xx_hal_rcc.c ****         /* Do not return HAL_ERROR if request repeats the current configuration */
 759:Drivers/STM32L1xx_HAL_Driver/Src/stm32l1xx_hal_rcc.c ****         pll_config = RCC->CFGR;
 1212              		.loc 1 759 25
 1213 0618 0F4B     		ldr	r3, .L85
 1214              		.loc 1 759 20
 1215 061a 9B68     		ldr	r3, [r3, #8]
 1216 061c 7B61     		str	r3, [r7, #20]
 760:Drivers/STM32L1xx_HAL_Driver/Src/stm32l1xx_hal_rcc.c ****         if((READ_BIT(pll_config, RCC_CFGR_PLLSRC) != RCC_OscInitStruct->PLL.PLLSource) ||
 1217              		.loc 1 760 13
 1218 061e 7B69     		ldr	r3, [r7, #20]
 1219 0620 03F48032 		and	r2, r3, #65536
 1220              		.loc 1 760 76
 1221 0624 7B68     		ldr	r3, [r7, #4]
 1222 0626 9B6A     		ldr	r3, [r3, #40]
 1223              		.loc 1 760 11
 1224 0628 9A42     		cmp	r2, r3
 1225 062a 0DD1     		bne	.L79
 761:Drivers/STM32L1xx_HAL_Driver/Src/stm32l1xx_hal_rcc.c ****            (READ_BIT(pll_config, RCC_CFGR_PLLMUL) != RCC_OscInitStruct->PLL.PLLMUL) ||
 1226              		.loc 1 761 13 discriminator 1
 1227 062c 7B69     		ldr	r3, [r7, #20]
 1228 062e 03F47012 		and	r2, r3, #3932160
 1229              		.loc 1 761 76 discriminator 1
 1230 0632 7B68     		ldr	r3, [r7, #4]
 1231 0634 DB6A     		ldr	r3, [r3, #44]
 760:Drivers/STM32L1xx_HAL_Driver/Src/stm32l1xx_hal_rcc.c ****         if((READ_BIT(pll_config, RCC_CFGR_PLLSRC) != RCC_OscInitStruct->PLL.PLLSource) ||
 1232              		.loc 1 760 88 discriminator 1
 1233 0636 9A42     		cmp	r2, r3
 1234 0638 06D1     		bne	.L79
 762:Drivers/STM32L1xx_HAL_Driver/Src/stm32l1xx_hal_rcc.c ****            (READ_BIT(pll_config, RCC_CFGR_PLLDIV) != RCC_OscInitStruct->PLL.PLLDIV))
 1235              		.loc 1 762 13
 1236 063a 7B69     		ldr	r3, [r7, #20]
 1237 063c 03F44002 		and	r2, r3, #12582912
 1238              		.loc 1 762 76
 1239 0640 7B68     		ldr	r3, [r7, #4]
 1240 0642 1B6B     		ldr	r3, [r3, #48]
 761:Drivers/STM32L1xx_HAL_Driver/Src/stm32l1xx_hal_rcc.c ****            (READ_BIT(pll_config, RCC_CFGR_PLLMUL) != RCC_OscInitStruct->PLL.PLLMUL) ||
 1241              		.loc 1 761 85
 1242 0644 9A42     		cmp	r2, r3
 1243 0646 01D0     		beq	.L69
 1244              	.L79:
 763:Drivers/STM32L1xx_HAL_Driver/Src/stm32l1xx_hal_rcc.c ****         {
 764:Drivers/STM32L1xx_HAL_Driver/Src/stm32l1xx_hal_rcc.c ****           return HAL_ERROR;
 1245              		.loc 1 764 18
 1246 0648 0123     		movs	r3, #1
 1247 064a 00E0     		b	.L14
 1248              	.L69:
 765:Drivers/STM32L1xx_HAL_Driver/Src/stm32l1xx_hal_rcc.c ****         }
 766:Drivers/STM32L1xx_HAL_Driver/Src/stm32l1xx_hal_rcc.c ****       }
 767:Drivers/STM32L1xx_HAL_Driver/Src/stm32l1xx_hal_rcc.c ****     }
 768:Drivers/STM32L1xx_HAL_Driver/Src/stm32l1xx_hal_rcc.c ****   }
ARM GAS  C:\Users\SOLDER~1\AppData\Local\Temp\cc1DKCam.s 			page 37


 769:Drivers/STM32L1xx_HAL_Driver/Src/stm32l1xx_hal_rcc.c **** 
 770:Drivers/STM32L1xx_HAL_Driver/Src/stm32l1xx_hal_rcc.c ****   return HAL_OK;
 1249              		.loc 1 770 10
 1250 064c 0023     		movs	r3, #0
 1251              	.L14:
 771:Drivers/STM32L1xx_HAL_Driver/Src/stm32l1xx_hal_rcc.c **** }
 1252              		.loc 1 771 1
 1253 064e 1846     		mov	r0, r3
 1254 0650 2037     		adds	r7, r7, #32
 1255              		.cfi_def_cfa_offset 8
 1256 0652 BD46     		mov	sp, r7
 1257              		.cfi_def_cfa_register 13
 1258              		@ sp needed
 1259 0654 80BD     		pop	{r7, pc}
 1260              	.L86:
 1261 0656 00BF     		.align	2
 1262              	.L85:
 1263 0658 00380240 		.word	1073887232
 1264 065c 60004742 		.word	1111949408
 1265              		.cfi_endproc
 1266              	.LFE73:
 1268              		.section	.text.HAL_RCC_ClockConfig,"ax",%progbits
 1269              		.align	1
 1270              		.global	HAL_RCC_ClockConfig
 1271              		.syntax unified
 1272              		.thumb
 1273              		.thumb_func
 1275              	HAL_RCC_ClockConfig:
 1276              	.LFB74:
 772:Drivers/STM32L1xx_HAL_Driver/Src/stm32l1xx_hal_rcc.c **** 
 773:Drivers/STM32L1xx_HAL_Driver/Src/stm32l1xx_hal_rcc.c **** /**
 774:Drivers/STM32L1xx_HAL_Driver/Src/stm32l1xx_hal_rcc.c ****   * @brief  Initializes the CPU, AHB and APB buses clocks according to the specified
 775:Drivers/STM32L1xx_HAL_Driver/Src/stm32l1xx_hal_rcc.c ****   *         parameters in the RCC_ClkInitStruct.
 776:Drivers/STM32L1xx_HAL_Driver/Src/stm32l1xx_hal_rcc.c ****   * @param  RCC_ClkInitStruct pointer to an RCC_OscInitTypeDef structure that
 777:Drivers/STM32L1xx_HAL_Driver/Src/stm32l1xx_hal_rcc.c ****   *         contains the configuration information for the RCC peripheral.
 778:Drivers/STM32L1xx_HAL_Driver/Src/stm32l1xx_hal_rcc.c ****   * @param  FLatency FLASH Latency
 779:Drivers/STM32L1xx_HAL_Driver/Src/stm32l1xx_hal_rcc.c ****   *          The value of this parameter depend on device used within the same series
 780:Drivers/STM32L1xx_HAL_Driver/Src/stm32l1xx_hal_rcc.c ****   * @note   The SystemCoreClock CMSIS variable is used to store System Clock Frequency
 781:Drivers/STM32L1xx_HAL_Driver/Src/stm32l1xx_hal_rcc.c ****   *         and updated by @ref HAL_RCC_GetHCLKFreq() function called within this function
 782:Drivers/STM32L1xx_HAL_Driver/Src/stm32l1xx_hal_rcc.c ****   *
 783:Drivers/STM32L1xx_HAL_Driver/Src/stm32l1xx_hal_rcc.c ****   * @note   The MSI is used (enabled by hardware) as system clock source after
 784:Drivers/STM32L1xx_HAL_Driver/Src/stm32l1xx_hal_rcc.c ****   *         start-up from Reset, wake-up from STOP and STANDBY mode, or in case
 785:Drivers/STM32L1xx_HAL_Driver/Src/stm32l1xx_hal_rcc.c ****   *         of failure of the HSE used directly or indirectly as system clock
 786:Drivers/STM32L1xx_HAL_Driver/Src/stm32l1xx_hal_rcc.c ****   *         (if the Clock Security System CSS is enabled).
 787:Drivers/STM32L1xx_HAL_Driver/Src/stm32l1xx_hal_rcc.c ****   *
 788:Drivers/STM32L1xx_HAL_Driver/Src/stm32l1xx_hal_rcc.c ****   * @note   A switch from one clock source to another occurs only if the target
 789:Drivers/STM32L1xx_HAL_Driver/Src/stm32l1xx_hal_rcc.c ****   *         clock source is ready (clock stable after start-up delay or PLL locked).
 790:Drivers/STM32L1xx_HAL_Driver/Src/stm32l1xx_hal_rcc.c ****   *         If a clock source which is not yet ready is selected, the switch will
 791:Drivers/STM32L1xx_HAL_Driver/Src/stm32l1xx_hal_rcc.c ****   *         occur when the clock source will be ready.
 792:Drivers/STM32L1xx_HAL_Driver/Src/stm32l1xx_hal_rcc.c ****   *         You can use @ref HAL_RCC_GetClockConfig() function to know which clock is
 793:Drivers/STM32L1xx_HAL_Driver/Src/stm32l1xx_hal_rcc.c ****   *         currently used as system clock source.
 794:Drivers/STM32L1xx_HAL_Driver/Src/stm32l1xx_hal_rcc.c ****   * @note   Depending on the device voltage range, the software has to set correctly
 795:Drivers/STM32L1xx_HAL_Driver/Src/stm32l1xx_hal_rcc.c ****   *         HPRE[3:0] bits to ensure that HCLK not exceed the maximum allowed frequency
 796:Drivers/STM32L1xx_HAL_Driver/Src/stm32l1xx_hal_rcc.c ****   *         (for more details refer to section above "Initialization/de-initialization functions")
 797:Drivers/STM32L1xx_HAL_Driver/Src/stm32l1xx_hal_rcc.c ****   * @retval HAL status
 798:Drivers/STM32L1xx_HAL_Driver/Src/stm32l1xx_hal_rcc.c ****   */
 799:Drivers/STM32L1xx_HAL_Driver/Src/stm32l1xx_hal_rcc.c **** HAL_StatusTypeDef HAL_RCC_ClockConfig(RCC_ClkInitTypeDef  *RCC_ClkInitStruct, uint32_t FLatency)
ARM GAS  C:\Users\SOLDER~1\AppData\Local\Temp\cc1DKCam.s 			page 38


 800:Drivers/STM32L1xx_HAL_Driver/Src/stm32l1xx_hal_rcc.c **** {
 1277              		.loc 1 800 1
 1278              		.cfi_startproc
 1279              		@ args = 0, pretend = 0, frame = 16
 1280              		@ frame_needed = 1, uses_anonymous_args = 0
 1281 0000 80B5     		push	{r7, lr}
 1282              		.cfi_def_cfa_offset 8
 1283              		.cfi_offset 7, -8
 1284              		.cfi_offset 14, -4
 1285 0002 84B0     		sub	sp, sp, #16
 1286              		.cfi_def_cfa_offset 24
 1287 0004 00AF     		add	r7, sp, #0
 1288              		.cfi_def_cfa_register 7
 1289 0006 7860     		str	r0, [r7, #4]
 1290 0008 3960     		str	r1, [r7]
 801:Drivers/STM32L1xx_HAL_Driver/Src/stm32l1xx_hal_rcc.c ****   uint32_t tickstart;
 802:Drivers/STM32L1xx_HAL_Driver/Src/stm32l1xx_hal_rcc.c ****   HAL_StatusTypeDef status;
 803:Drivers/STM32L1xx_HAL_Driver/Src/stm32l1xx_hal_rcc.c **** 
 804:Drivers/STM32L1xx_HAL_Driver/Src/stm32l1xx_hal_rcc.c ****   /* Check the parameters */
 805:Drivers/STM32L1xx_HAL_Driver/Src/stm32l1xx_hal_rcc.c ****   if(RCC_ClkInitStruct == NULL)
 1291              		.loc 1 805 5
 1292 000a 7B68     		ldr	r3, [r7, #4]
 1293 000c 002B     		cmp	r3, #0
 1294 000e 01D1     		bne	.L88
 806:Drivers/STM32L1xx_HAL_Driver/Src/stm32l1xx_hal_rcc.c ****   {
 807:Drivers/STM32L1xx_HAL_Driver/Src/stm32l1xx_hal_rcc.c ****     return HAL_ERROR;
 1295              		.loc 1 807 12
 1296 0010 0123     		movs	r3, #1
 1297 0012 1AE1     		b	.L89
 1298              	.L88:
 808:Drivers/STM32L1xx_HAL_Driver/Src/stm32l1xx_hal_rcc.c ****   }
 809:Drivers/STM32L1xx_HAL_Driver/Src/stm32l1xx_hal_rcc.c **** 
 810:Drivers/STM32L1xx_HAL_Driver/Src/stm32l1xx_hal_rcc.c ****   assert_param(IS_FLASH_LATENCY(FLatency));
 811:Drivers/STM32L1xx_HAL_Driver/Src/stm32l1xx_hal_rcc.c **** 
 812:Drivers/STM32L1xx_HAL_Driver/Src/stm32l1xx_hal_rcc.c ****   /* To correctly read data from FLASH memory, the number of wait states (LATENCY)
 813:Drivers/STM32L1xx_HAL_Driver/Src/stm32l1xx_hal_rcc.c ****   must be correctly programmed according to the frequency of the CPU clock
 814:Drivers/STM32L1xx_HAL_Driver/Src/stm32l1xx_hal_rcc.c ****   (HCLK) and the supply voltage of the device. */
 815:Drivers/STM32L1xx_HAL_Driver/Src/stm32l1xx_hal_rcc.c **** 
 816:Drivers/STM32L1xx_HAL_Driver/Src/stm32l1xx_hal_rcc.c ****   /* Increasing the number of wait states because of higher CPU frequency */
 817:Drivers/STM32L1xx_HAL_Driver/Src/stm32l1xx_hal_rcc.c ****   if(FLatency > __HAL_FLASH_GET_LATENCY())
 1299              		.loc 1 817 17
 1300 0014 8F4B     		ldr	r3, .L113
 1301 0016 1B68     		ldr	r3, [r3]
 1302 0018 03F00103 		and	r3, r3, #1
 1303              		.loc 1 817 5
 1304 001c 3A68     		ldr	r2, [r7]
 1305 001e 9A42     		cmp	r2, r3
 1306 0020 19D9     		bls	.L90
 818:Drivers/STM32L1xx_HAL_Driver/Src/stm32l1xx_hal_rcc.c ****   {
 819:Drivers/STM32L1xx_HAL_Driver/Src/stm32l1xx_hal_rcc.c ****     /* Program the new number of wait states to the LATENCY bits in the FLASH_ACR register */
 820:Drivers/STM32L1xx_HAL_Driver/Src/stm32l1xx_hal_rcc.c ****     __HAL_FLASH_SET_LATENCY(FLatency);
 1307              		.loc 1 820 5
 1308 0022 3B68     		ldr	r3, [r7]
 1309 0024 012B     		cmp	r3, #1
 1310 0026 05D1     		bne	.L91
 1311              		.loc 1 820 5 is_stmt 0 discriminator 1
 1312 0028 8A4B     		ldr	r3, .L113
ARM GAS  C:\Users\SOLDER~1\AppData\Local\Temp\cc1DKCam.s 			page 39


 1313 002a 1B68     		ldr	r3, [r3]
 1314 002c 894A     		ldr	r2, .L113
 1315 002e 43F00403 		orr	r3, r3, #4
 1316 0032 1360     		str	r3, [r2]
 1317              	.L91:
 1318              		.loc 1 820 5 discriminator 3
 1319 0034 874B     		ldr	r3, .L113
 1320 0036 1B68     		ldr	r3, [r3]
 1321 0038 23F00102 		bic	r2, r3, #1
 1322 003c 8549     		ldr	r1, .L113
 1323 003e 3B68     		ldr	r3, [r7]
 1324 0040 1343     		orrs	r3, r3, r2
 1325 0042 0B60     		str	r3, [r1]
 821:Drivers/STM32L1xx_HAL_Driver/Src/stm32l1xx_hal_rcc.c **** 
 822:Drivers/STM32L1xx_HAL_Driver/Src/stm32l1xx_hal_rcc.c ****     /* Check that the new number of wait states is taken into account to access the Flash
 823:Drivers/STM32L1xx_HAL_Driver/Src/stm32l1xx_hal_rcc.c ****     memory by reading the FLASH_ACR register */
 824:Drivers/STM32L1xx_HAL_Driver/Src/stm32l1xx_hal_rcc.c ****     if(__HAL_FLASH_GET_LATENCY() != FLatency)
 1326              		.loc 1 824 8 is_stmt 1 discriminator 3
 1327 0044 834B     		ldr	r3, .L113
 1328 0046 1B68     		ldr	r3, [r3]
 1329 0048 03F00103 		and	r3, r3, #1
 1330              		.loc 1 824 7 discriminator 3
 1331 004c 3A68     		ldr	r2, [r7]
 1332 004e 9A42     		cmp	r2, r3
 1333 0050 01D0     		beq	.L90
 825:Drivers/STM32L1xx_HAL_Driver/Src/stm32l1xx_hal_rcc.c ****     {
 826:Drivers/STM32L1xx_HAL_Driver/Src/stm32l1xx_hal_rcc.c ****       return HAL_ERROR;
 1334              		.loc 1 826 14
 1335 0052 0123     		movs	r3, #1
 1336 0054 F9E0     		b	.L89
 1337              	.L90:
 827:Drivers/STM32L1xx_HAL_Driver/Src/stm32l1xx_hal_rcc.c ****     }
 828:Drivers/STM32L1xx_HAL_Driver/Src/stm32l1xx_hal_rcc.c ****   }
 829:Drivers/STM32L1xx_HAL_Driver/Src/stm32l1xx_hal_rcc.c **** 
 830:Drivers/STM32L1xx_HAL_Driver/Src/stm32l1xx_hal_rcc.c ****   /*-------------------------- HCLK Configuration --------------------------*/
 831:Drivers/STM32L1xx_HAL_Driver/Src/stm32l1xx_hal_rcc.c ****   if(((RCC_ClkInitStruct->ClockType) & RCC_CLOCKTYPE_HCLK) == RCC_CLOCKTYPE_HCLK)
 1338              		.loc 1 831 25
 1339 0056 7B68     		ldr	r3, [r7, #4]
 1340 0058 1B68     		ldr	r3, [r3]
 1341              		.loc 1 831 38
 1342 005a 03F00203 		and	r3, r3, #2
 1343              		.loc 1 831 5
 1344 005e 002B     		cmp	r3, #0
 1345 0060 08D0     		beq	.L92
 832:Drivers/STM32L1xx_HAL_Driver/Src/stm32l1xx_hal_rcc.c ****   {
 833:Drivers/STM32L1xx_HAL_Driver/Src/stm32l1xx_hal_rcc.c ****     assert_param(IS_RCC_HCLK(RCC_ClkInitStruct->AHBCLKDivider));
 834:Drivers/STM32L1xx_HAL_Driver/Src/stm32l1xx_hal_rcc.c ****     MODIFY_REG(RCC->CFGR, RCC_CFGR_HPRE, RCC_ClkInitStruct->AHBCLKDivider);
 1346              		.loc 1 834 5
 1347 0062 7D4B     		ldr	r3, .L113+4
 1348 0064 9B68     		ldr	r3, [r3, #8]
 1349 0066 23F0F002 		bic	r2, r3, #240
 1350 006a 7B68     		ldr	r3, [r7, #4]
 1351 006c 9B68     		ldr	r3, [r3, #8]
 1352 006e 7A49     		ldr	r1, .L113+4
 1353 0070 1343     		orrs	r3, r3, r2
 1354 0072 8B60     		str	r3, [r1, #8]
 1355              	.L92:
ARM GAS  C:\Users\SOLDER~1\AppData\Local\Temp\cc1DKCam.s 			page 40


 835:Drivers/STM32L1xx_HAL_Driver/Src/stm32l1xx_hal_rcc.c ****   }
 836:Drivers/STM32L1xx_HAL_Driver/Src/stm32l1xx_hal_rcc.c **** 
 837:Drivers/STM32L1xx_HAL_Driver/Src/stm32l1xx_hal_rcc.c ****   /*------------------------- SYSCLK Configuration ---------------------------*/
 838:Drivers/STM32L1xx_HAL_Driver/Src/stm32l1xx_hal_rcc.c ****   if(((RCC_ClkInitStruct->ClockType) & RCC_CLOCKTYPE_SYSCLK) == RCC_CLOCKTYPE_SYSCLK)
 1356              		.loc 1 838 25
 1357 0074 7B68     		ldr	r3, [r7, #4]
 1358 0076 1B68     		ldr	r3, [r3]
 1359              		.loc 1 838 38
 1360 0078 03F00103 		and	r3, r3, #1
 1361              		.loc 1 838 5
 1362 007c 002B     		cmp	r3, #0
 1363 007e 00F08E80 		beq	.L93
 839:Drivers/STM32L1xx_HAL_Driver/Src/stm32l1xx_hal_rcc.c ****   {
 840:Drivers/STM32L1xx_HAL_Driver/Src/stm32l1xx_hal_rcc.c ****     assert_param(IS_RCC_SYSCLKSOURCE(RCC_ClkInitStruct->SYSCLKSource));
 841:Drivers/STM32L1xx_HAL_Driver/Src/stm32l1xx_hal_rcc.c **** 
 842:Drivers/STM32L1xx_HAL_Driver/Src/stm32l1xx_hal_rcc.c ****     /* HSE is selected as System Clock Source */
 843:Drivers/STM32L1xx_HAL_Driver/Src/stm32l1xx_hal_rcc.c ****     if(RCC_ClkInitStruct->SYSCLKSource == RCC_SYSCLKSOURCE_HSE)
 1364              		.loc 1 843 25
 1365 0082 7B68     		ldr	r3, [r7, #4]
 1366 0084 5B68     		ldr	r3, [r3, #4]
 1367              		.loc 1 843 7
 1368 0086 022B     		cmp	r3, #2
 1369 0088 07D1     		bne	.L94
 844:Drivers/STM32L1xx_HAL_Driver/Src/stm32l1xx_hal_rcc.c ****     {
 845:Drivers/STM32L1xx_HAL_Driver/Src/stm32l1xx_hal_rcc.c ****       /* Check the HSE ready flag */
 846:Drivers/STM32L1xx_HAL_Driver/Src/stm32l1xx_hal_rcc.c ****       if(__HAL_RCC_GET_FLAG(RCC_FLAG_HSERDY) == 0U)
 1370              		.loc 1 846 10
 1371 008a 734B     		ldr	r3, .L113+4
 1372 008c 1B68     		ldr	r3, [r3]
 1373 008e 03F40033 		and	r3, r3, #131072
 1374              		.loc 1 846 9
 1375 0092 002B     		cmp	r3, #0
 1376 0094 21D1     		bne	.L95
 847:Drivers/STM32L1xx_HAL_Driver/Src/stm32l1xx_hal_rcc.c ****       {
 848:Drivers/STM32L1xx_HAL_Driver/Src/stm32l1xx_hal_rcc.c ****         return HAL_ERROR;
 1377              		.loc 1 848 16
 1378 0096 0123     		movs	r3, #1
 1379 0098 D7E0     		b	.L89
 1380              	.L94:
 849:Drivers/STM32L1xx_HAL_Driver/Src/stm32l1xx_hal_rcc.c ****       }
 850:Drivers/STM32L1xx_HAL_Driver/Src/stm32l1xx_hal_rcc.c ****     }
 851:Drivers/STM32L1xx_HAL_Driver/Src/stm32l1xx_hal_rcc.c ****     /* PLL is selected as System Clock Source */
 852:Drivers/STM32L1xx_HAL_Driver/Src/stm32l1xx_hal_rcc.c ****     else if(RCC_ClkInitStruct->SYSCLKSource == RCC_SYSCLKSOURCE_PLLCLK)
 1381              		.loc 1 852 30
 1382 009a 7B68     		ldr	r3, [r7, #4]
 1383 009c 5B68     		ldr	r3, [r3, #4]
 1384              		.loc 1 852 12
 1385 009e 032B     		cmp	r3, #3
 1386 00a0 07D1     		bne	.L96
 853:Drivers/STM32L1xx_HAL_Driver/Src/stm32l1xx_hal_rcc.c ****     {
 854:Drivers/STM32L1xx_HAL_Driver/Src/stm32l1xx_hal_rcc.c ****       /* Check the PLL ready flag */
 855:Drivers/STM32L1xx_HAL_Driver/Src/stm32l1xx_hal_rcc.c ****       if(__HAL_RCC_GET_FLAG(RCC_FLAG_PLLRDY) == 0U)
 1387              		.loc 1 855 10
 1388 00a2 6D4B     		ldr	r3, .L113+4
 1389 00a4 1B68     		ldr	r3, [r3]
 1390 00a6 03F00073 		and	r3, r3, #33554432
 1391              		.loc 1 855 9
ARM GAS  C:\Users\SOLDER~1\AppData\Local\Temp\cc1DKCam.s 			page 41


 1392 00aa 002B     		cmp	r3, #0
 1393 00ac 15D1     		bne	.L95
 856:Drivers/STM32L1xx_HAL_Driver/Src/stm32l1xx_hal_rcc.c ****       {
 857:Drivers/STM32L1xx_HAL_Driver/Src/stm32l1xx_hal_rcc.c ****         return HAL_ERROR;
 1394              		.loc 1 857 16
 1395 00ae 0123     		movs	r3, #1
 1396 00b0 CBE0     		b	.L89
 1397              	.L96:
 858:Drivers/STM32L1xx_HAL_Driver/Src/stm32l1xx_hal_rcc.c ****       }
 859:Drivers/STM32L1xx_HAL_Driver/Src/stm32l1xx_hal_rcc.c ****     }
 860:Drivers/STM32L1xx_HAL_Driver/Src/stm32l1xx_hal_rcc.c ****     /* HSI is selected as System Clock Source */
 861:Drivers/STM32L1xx_HAL_Driver/Src/stm32l1xx_hal_rcc.c ****     else if(RCC_ClkInitStruct->SYSCLKSource == RCC_SYSCLKSOURCE_HSI)
 1398              		.loc 1 861 30
 1399 00b2 7B68     		ldr	r3, [r7, #4]
 1400 00b4 5B68     		ldr	r3, [r3, #4]
 1401              		.loc 1 861 12
 1402 00b6 012B     		cmp	r3, #1
 1403 00b8 07D1     		bne	.L97
 862:Drivers/STM32L1xx_HAL_Driver/Src/stm32l1xx_hal_rcc.c ****     {
 863:Drivers/STM32L1xx_HAL_Driver/Src/stm32l1xx_hal_rcc.c ****       /* Check the HSI ready flag */
 864:Drivers/STM32L1xx_HAL_Driver/Src/stm32l1xx_hal_rcc.c ****       if(__HAL_RCC_GET_FLAG(RCC_FLAG_HSIRDY) == 0U)
 1404              		.loc 1 864 10
 1405 00ba 674B     		ldr	r3, .L113+4
 1406 00bc 1B68     		ldr	r3, [r3]
 1407 00be 03F00203 		and	r3, r3, #2
 1408              		.loc 1 864 9
 1409 00c2 002B     		cmp	r3, #0
 1410 00c4 09D1     		bne	.L95
 865:Drivers/STM32L1xx_HAL_Driver/Src/stm32l1xx_hal_rcc.c ****       {
 866:Drivers/STM32L1xx_HAL_Driver/Src/stm32l1xx_hal_rcc.c ****         return HAL_ERROR;
 1411              		.loc 1 866 16
 1412 00c6 0123     		movs	r3, #1
 1413 00c8 BFE0     		b	.L89
 1414              	.L97:
 867:Drivers/STM32L1xx_HAL_Driver/Src/stm32l1xx_hal_rcc.c ****       }
 868:Drivers/STM32L1xx_HAL_Driver/Src/stm32l1xx_hal_rcc.c ****     }
 869:Drivers/STM32L1xx_HAL_Driver/Src/stm32l1xx_hal_rcc.c ****     /* MSI is selected as System Clock Source */
 870:Drivers/STM32L1xx_HAL_Driver/Src/stm32l1xx_hal_rcc.c ****     else
 871:Drivers/STM32L1xx_HAL_Driver/Src/stm32l1xx_hal_rcc.c ****     {
 872:Drivers/STM32L1xx_HAL_Driver/Src/stm32l1xx_hal_rcc.c ****       /* Check the MSI ready flag */
 873:Drivers/STM32L1xx_HAL_Driver/Src/stm32l1xx_hal_rcc.c ****       if(__HAL_RCC_GET_FLAG(RCC_FLAG_MSIRDY) == 0U)
 1415              		.loc 1 873 10
 1416 00ca 634B     		ldr	r3, .L113+4
 1417 00cc 1B68     		ldr	r3, [r3]
 1418 00ce 03F40073 		and	r3, r3, #512
 1419              		.loc 1 873 9
 1420 00d2 002B     		cmp	r3, #0
 1421 00d4 01D1     		bne	.L95
 874:Drivers/STM32L1xx_HAL_Driver/Src/stm32l1xx_hal_rcc.c ****       {
 875:Drivers/STM32L1xx_HAL_Driver/Src/stm32l1xx_hal_rcc.c ****         return HAL_ERROR;
 1422              		.loc 1 875 16
 1423 00d6 0123     		movs	r3, #1
 1424 00d8 B7E0     		b	.L89
 1425              	.L95:
 876:Drivers/STM32L1xx_HAL_Driver/Src/stm32l1xx_hal_rcc.c ****       }
 877:Drivers/STM32L1xx_HAL_Driver/Src/stm32l1xx_hal_rcc.c ****     }
 878:Drivers/STM32L1xx_HAL_Driver/Src/stm32l1xx_hal_rcc.c ****     __HAL_RCC_SYSCLK_CONFIG(RCC_ClkInitStruct->SYSCLKSource);
ARM GAS  C:\Users\SOLDER~1\AppData\Local\Temp\cc1DKCam.s 			page 42


 1426              		.loc 1 878 5
 1427 00da 5F4B     		ldr	r3, .L113+4
 1428 00dc 9B68     		ldr	r3, [r3, #8]
 1429 00de 23F00302 		bic	r2, r3, #3
 1430 00e2 7B68     		ldr	r3, [r7, #4]
 1431 00e4 5B68     		ldr	r3, [r3, #4]
 1432 00e6 5C49     		ldr	r1, .L113+4
 1433 00e8 1343     		orrs	r3, r3, r2
 1434 00ea 8B60     		str	r3, [r1, #8]
 879:Drivers/STM32L1xx_HAL_Driver/Src/stm32l1xx_hal_rcc.c **** 
 880:Drivers/STM32L1xx_HAL_Driver/Src/stm32l1xx_hal_rcc.c ****     /* Get Start Tick */
 881:Drivers/STM32L1xx_HAL_Driver/Src/stm32l1xx_hal_rcc.c ****     tickstart = HAL_GetTick();
 1435              		.loc 1 881 17
 1436 00ec FFF7FEFF 		bl	HAL_GetTick
 1437 00f0 F860     		str	r0, [r7, #12]
 882:Drivers/STM32L1xx_HAL_Driver/Src/stm32l1xx_hal_rcc.c **** 
 883:Drivers/STM32L1xx_HAL_Driver/Src/stm32l1xx_hal_rcc.c ****     if(RCC_ClkInitStruct->SYSCLKSource == RCC_SYSCLKSOURCE_HSE)
 1438              		.loc 1 883 25
 1439 00f2 7B68     		ldr	r3, [r7, #4]
 1440 00f4 5B68     		ldr	r3, [r3, #4]
 1441              		.loc 1 883 7
 1442 00f6 022B     		cmp	r3, #2
 1443 00f8 12D1     		bne	.L98
 884:Drivers/STM32L1xx_HAL_Driver/Src/stm32l1xx_hal_rcc.c ****     {
 885:Drivers/STM32L1xx_HAL_Driver/Src/stm32l1xx_hal_rcc.c ****       while (__HAL_RCC_GET_SYSCLK_SOURCE() != RCC_SYSCLKSOURCE_STATUS_HSE)
 1444              		.loc 1 885 13
 1445 00fa 0AE0     		b	.L99
 1446              	.L100:
 886:Drivers/STM32L1xx_HAL_Driver/Src/stm32l1xx_hal_rcc.c ****       {
 887:Drivers/STM32L1xx_HAL_Driver/Src/stm32l1xx_hal_rcc.c ****         if((HAL_GetTick() - tickstart ) > CLOCKSWITCH_TIMEOUT_VALUE)
 1447              		.loc 1 887 13
 1448 00fc FFF7FEFF 		bl	HAL_GetTick
 1449 0100 0246     		mov	r2, r0
 1450              		.loc 1 887 27
 1451 0102 FB68     		ldr	r3, [r7, #12]
 1452 0104 D31A     		subs	r3, r2, r3
 1453              		.loc 1 887 11
 1454 0106 41F28832 		movw	r2, #5000
 1455 010a 9342     		cmp	r3, r2
 1456 010c 01D9     		bls	.L99
 888:Drivers/STM32L1xx_HAL_Driver/Src/stm32l1xx_hal_rcc.c ****         {
 889:Drivers/STM32L1xx_HAL_Driver/Src/stm32l1xx_hal_rcc.c ****           return HAL_TIMEOUT;
 1457              		.loc 1 889 18
 1458 010e 0323     		movs	r3, #3
 1459 0110 9BE0     		b	.L89
 1460              	.L99:
 885:Drivers/STM32L1xx_HAL_Driver/Src/stm32l1xx_hal_rcc.c ****       {
 1461              		.loc 1 885 14
 1462 0112 514B     		ldr	r3, .L113+4
 1463 0114 9B68     		ldr	r3, [r3, #8]
 1464 0116 03F00C03 		and	r3, r3, #12
 885:Drivers/STM32L1xx_HAL_Driver/Src/stm32l1xx_hal_rcc.c ****       {
 1465              		.loc 1 885 13
 1466 011a 082B     		cmp	r3, #8
 1467 011c EED1     		bne	.L100
 1468 011e 3EE0     		b	.L93
 1469              	.L98:
ARM GAS  C:\Users\SOLDER~1\AppData\Local\Temp\cc1DKCam.s 			page 43


 890:Drivers/STM32L1xx_HAL_Driver/Src/stm32l1xx_hal_rcc.c ****         }
 891:Drivers/STM32L1xx_HAL_Driver/Src/stm32l1xx_hal_rcc.c ****       }
 892:Drivers/STM32L1xx_HAL_Driver/Src/stm32l1xx_hal_rcc.c ****     }
 893:Drivers/STM32L1xx_HAL_Driver/Src/stm32l1xx_hal_rcc.c ****     else if(RCC_ClkInitStruct->SYSCLKSource == RCC_SYSCLKSOURCE_PLLCLK)
 1470              		.loc 1 893 30
 1471 0120 7B68     		ldr	r3, [r7, #4]
 1472 0122 5B68     		ldr	r3, [r3, #4]
 1473              		.loc 1 893 12
 1474 0124 032B     		cmp	r3, #3
 1475 0126 12D1     		bne	.L101
 894:Drivers/STM32L1xx_HAL_Driver/Src/stm32l1xx_hal_rcc.c ****     {
 895:Drivers/STM32L1xx_HAL_Driver/Src/stm32l1xx_hal_rcc.c ****       while (__HAL_RCC_GET_SYSCLK_SOURCE() != RCC_SYSCLKSOURCE_STATUS_PLLCLK)
 1476              		.loc 1 895 13
 1477 0128 0AE0     		b	.L102
 1478              	.L103:
 896:Drivers/STM32L1xx_HAL_Driver/Src/stm32l1xx_hal_rcc.c ****       {
 897:Drivers/STM32L1xx_HAL_Driver/Src/stm32l1xx_hal_rcc.c ****         if((HAL_GetTick() - tickstart ) > CLOCKSWITCH_TIMEOUT_VALUE)
 1479              		.loc 1 897 13
 1480 012a FFF7FEFF 		bl	HAL_GetTick
 1481 012e 0246     		mov	r2, r0
 1482              		.loc 1 897 27
 1483 0130 FB68     		ldr	r3, [r7, #12]
 1484 0132 D31A     		subs	r3, r2, r3
 1485              		.loc 1 897 11
 1486 0134 41F28832 		movw	r2, #5000
 1487 0138 9342     		cmp	r3, r2
 1488 013a 01D9     		bls	.L102
 898:Drivers/STM32L1xx_HAL_Driver/Src/stm32l1xx_hal_rcc.c ****         {
 899:Drivers/STM32L1xx_HAL_Driver/Src/stm32l1xx_hal_rcc.c ****           return HAL_TIMEOUT;
 1489              		.loc 1 899 18
 1490 013c 0323     		movs	r3, #3
 1491 013e 84E0     		b	.L89
 1492              	.L102:
 895:Drivers/STM32L1xx_HAL_Driver/Src/stm32l1xx_hal_rcc.c ****       {
 1493              		.loc 1 895 14
 1494 0140 454B     		ldr	r3, .L113+4
 1495 0142 9B68     		ldr	r3, [r3, #8]
 1496 0144 03F00C03 		and	r3, r3, #12
 895:Drivers/STM32L1xx_HAL_Driver/Src/stm32l1xx_hal_rcc.c ****       {
 1497              		.loc 1 895 13
 1498 0148 0C2B     		cmp	r3, #12
 1499 014a EED1     		bne	.L103
 1500 014c 27E0     		b	.L93
 1501              	.L101:
 900:Drivers/STM32L1xx_HAL_Driver/Src/stm32l1xx_hal_rcc.c ****         }
 901:Drivers/STM32L1xx_HAL_Driver/Src/stm32l1xx_hal_rcc.c ****       }
 902:Drivers/STM32L1xx_HAL_Driver/Src/stm32l1xx_hal_rcc.c ****     }
 903:Drivers/STM32L1xx_HAL_Driver/Src/stm32l1xx_hal_rcc.c ****     else if(RCC_ClkInitStruct->SYSCLKSource == RCC_SYSCLKSOURCE_HSI)
 1502              		.loc 1 903 30
 1503 014e 7B68     		ldr	r3, [r7, #4]
 1504 0150 5B68     		ldr	r3, [r3, #4]
 1505              		.loc 1 903 12
 1506 0152 012B     		cmp	r3, #1
 1507 0154 1DD1     		bne	.L107
 904:Drivers/STM32L1xx_HAL_Driver/Src/stm32l1xx_hal_rcc.c ****     {
 905:Drivers/STM32L1xx_HAL_Driver/Src/stm32l1xx_hal_rcc.c ****       while (__HAL_RCC_GET_SYSCLK_SOURCE() != RCC_SYSCLKSOURCE_STATUS_HSI)
 1508              		.loc 1 905 13
ARM GAS  C:\Users\SOLDER~1\AppData\Local\Temp\cc1DKCam.s 			page 44


 1509 0156 0AE0     		b	.L105
 1510              	.L106:
 906:Drivers/STM32L1xx_HAL_Driver/Src/stm32l1xx_hal_rcc.c ****       {
 907:Drivers/STM32L1xx_HAL_Driver/Src/stm32l1xx_hal_rcc.c ****         if((HAL_GetTick() - tickstart ) > CLOCKSWITCH_TIMEOUT_VALUE)
 1511              		.loc 1 907 13
 1512 0158 FFF7FEFF 		bl	HAL_GetTick
 1513 015c 0246     		mov	r2, r0
 1514              		.loc 1 907 27
 1515 015e FB68     		ldr	r3, [r7, #12]
 1516 0160 D31A     		subs	r3, r2, r3
 1517              		.loc 1 907 11
 1518 0162 41F28832 		movw	r2, #5000
 1519 0166 9342     		cmp	r3, r2
 1520 0168 01D9     		bls	.L105
 908:Drivers/STM32L1xx_HAL_Driver/Src/stm32l1xx_hal_rcc.c ****         {
 909:Drivers/STM32L1xx_HAL_Driver/Src/stm32l1xx_hal_rcc.c ****           return HAL_TIMEOUT;
 1521              		.loc 1 909 18
 1522 016a 0323     		movs	r3, #3
 1523 016c 6DE0     		b	.L89
 1524              	.L105:
 905:Drivers/STM32L1xx_HAL_Driver/Src/stm32l1xx_hal_rcc.c ****       {
 1525              		.loc 1 905 14
 1526 016e 3A4B     		ldr	r3, .L113+4
 1527 0170 9B68     		ldr	r3, [r3, #8]
 1528 0172 03F00C03 		and	r3, r3, #12
 905:Drivers/STM32L1xx_HAL_Driver/Src/stm32l1xx_hal_rcc.c ****       {
 1529              		.loc 1 905 13
 1530 0176 042B     		cmp	r3, #4
 1531 0178 EED1     		bne	.L106
 1532 017a 10E0     		b	.L93
 1533              	.L108:
 910:Drivers/STM32L1xx_HAL_Driver/Src/stm32l1xx_hal_rcc.c ****         }
 911:Drivers/STM32L1xx_HAL_Driver/Src/stm32l1xx_hal_rcc.c ****       }
 912:Drivers/STM32L1xx_HAL_Driver/Src/stm32l1xx_hal_rcc.c ****     }
 913:Drivers/STM32L1xx_HAL_Driver/Src/stm32l1xx_hal_rcc.c ****     else
 914:Drivers/STM32L1xx_HAL_Driver/Src/stm32l1xx_hal_rcc.c ****     {
 915:Drivers/STM32L1xx_HAL_Driver/Src/stm32l1xx_hal_rcc.c ****       while(__HAL_RCC_GET_SYSCLK_SOURCE() != RCC_SYSCLKSOURCE_STATUS_MSI)
 916:Drivers/STM32L1xx_HAL_Driver/Src/stm32l1xx_hal_rcc.c ****       {
 917:Drivers/STM32L1xx_HAL_Driver/Src/stm32l1xx_hal_rcc.c ****         if((HAL_GetTick() - tickstart ) > CLOCKSWITCH_TIMEOUT_VALUE)
 1534              		.loc 1 917 13
 1535 017c FFF7FEFF 		bl	HAL_GetTick
 1536 0180 0246     		mov	r2, r0
 1537              		.loc 1 917 27
 1538 0182 FB68     		ldr	r3, [r7, #12]
 1539 0184 D31A     		subs	r3, r2, r3
 1540              		.loc 1 917 11
 1541 0186 41F28832 		movw	r2, #5000
 1542 018a 9342     		cmp	r3, r2
 1543 018c 01D9     		bls	.L107
 918:Drivers/STM32L1xx_HAL_Driver/Src/stm32l1xx_hal_rcc.c ****         {
 919:Drivers/STM32L1xx_HAL_Driver/Src/stm32l1xx_hal_rcc.c ****           return HAL_TIMEOUT;
 1544              		.loc 1 919 18
 1545 018e 0323     		movs	r3, #3
 1546 0190 5BE0     		b	.L89
 1547              	.L107:
 915:Drivers/STM32L1xx_HAL_Driver/Src/stm32l1xx_hal_rcc.c ****       {
 1548              		.loc 1 915 13
ARM GAS  C:\Users\SOLDER~1\AppData\Local\Temp\cc1DKCam.s 			page 45


 1549 0192 314B     		ldr	r3, .L113+4
 1550 0194 9B68     		ldr	r3, [r3, #8]
 1551 0196 03F00C03 		and	r3, r3, #12
 915:Drivers/STM32L1xx_HAL_Driver/Src/stm32l1xx_hal_rcc.c ****       {
 1552              		.loc 1 915 12
 1553 019a 002B     		cmp	r3, #0
 1554 019c EED1     		bne	.L108
 1555              	.L93:
 920:Drivers/STM32L1xx_HAL_Driver/Src/stm32l1xx_hal_rcc.c ****         }
 921:Drivers/STM32L1xx_HAL_Driver/Src/stm32l1xx_hal_rcc.c ****       }
 922:Drivers/STM32L1xx_HAL_Driver/Src/stm32l1xx_hal_rcc.c ****     }
 923:Drivers/STM32L1xx_HAL_Driver/Src/stm32l1xx_hal_rcc.c ****   }
 924:Drivers/STM32L1xx_HAL_Driver/Src/stm32l1xx_hal_rcc.c ****   /* Decreasing the number of wait states because of lower CPU frequency */
 925:Drivers/STM32L1xx_HAL_Driver/Src/stm32l1xx_hal_rcc.c ****   if(FLatency < __HAL_FLASH_GET_LATENCY())
 1556              		.loc 1 925 17
 1557 019e 2D4B     		ldr	r3, .L113
 1558 01a0 1B68     		ldr	r3, [r3]
 1559 01a2 03F00103 		and	r3, r3, #1
 1560              		.loc 1 925 5
 1561 01a6 3A68     		ldr	r2, [r7]
 1562 01a8 9A42     		cmp	r2, r3
 1563 01aa 19D2     		bcs	.L109
 926:Drivers/STM32L1xx_HAL_Driver/Src/stm32l1xx_hal_rcc.c ****   {
 927:Drivers/STM32L1xx_HAL_Driver/Src/stm32l1xx_hal_rcc.c ****     /* Program the new number of wait states to the LATENCY bits in the FLASH_ACR register */
 928:Drivers/STM32L1xx_HAL_Driver/Src/stm32l1xx_hal_rcc.c ****     __HAL_FLASH_SET_LATENCY(FLatency);
 1564              		.loc 1 928 5
 1565 01ac 3B68     		ldr	r3, [r7]
 1566 01ae 012B     		cmp	r3, #1
 1567 01b0 05D1     		bne	.L110
 1568              		.loc 1 928 5 is_stmt 0 discriminator 1
 1569 01b2 284B     		ldr	r3, .L113
 1570 01b4 1B68     		ldr	r3, [r3]
 1571 01b6 274A     		ldr	r2, .L113
 1572 01b8 43F00403 		orr	r3, r3, #4
 1573 01bc 1360     		str	r3, [r2]
 1574              	.L110:
 1575              		.loc 1 928 5 discriminator 3
 1576 01be 254B     		ldr	r3, .L113
 1577 01c0 1B68     		ldr	r3, [r3]
 1578 01c2 23F00102 		bic	r2, r3, #1
 1579 01c6 2349     		ldr	r1, .L113
 1580 01c8 3B68     		ldr	r3, [r7]
 1581 01ca 1343     		orrs	r3, r3, r2
 1582 01cc 0B60     		str	r3, [r1]
 929:Drivers/STM32L1xx_HAL_Driver/Src/stm32l1xx_hal_rcc.c **** 
 930:Drivers/STM32L1xx_HAL_Driver/Src/stm32l1xx_hal_rcc.c ****     /* Check that the new number of wait states is taken into account to access the Flash
 931:Drivers/STM32L1xx_HAL_Driver/Src/stm32l1xx_hal_rcc.c ****     memory by reading the FLASH_ACR register */
 932:Drivers/STM32L1xx_HAL_Driver/Src/stm32l1xx_hal_rcc.c ****     if(__HAL_FLASH_GET_LATENCY() != FLatency)
 1583              		.loc 1 932 8 is_stmt 1 discriminator 3
 1584 01ce 214B     		ldr	r3, .L113
 1585 01d0 1B68     		ldr	r3, [r3]
 1586 01d2 03F00103 		and	r3, r3, #1
 1587              		.loc 1 932 7 discriminator 3
 1588 01d6 3A68     		ldr	r2, [r7]
 1589 01d8 9A42     		cmp	r2, r3
 1590 01da 01D0     		beq	.L109
 933:Drivers/STM32L1xx_HAL_Driver/Src/stm32l1xx_hal_rcc.c ****     {
ARM GAS  C:\Users\SOLDER~1\AppData\Local\Temp\cc1DKCam.s 			page 46


 934:Drivers/STM32L1xx_HAL_Driver/Src/stm32l1xx_hal_rcc.c ****       return HAL_ERROR;
 1591              		.loc 1 934 14
 1592 01dc 0123     		movs	r3, #1
 1593 01de 34E0     		b	.L89
 1594              	.L109:
 935:Drivers/STM32L1xx_HAL_Driver/Src/stm32l1xx_hal_rcc.c ****     }
 936:Drivers/STM32L1xx_HAL_Driver/Src/stm32l1xx_hal_rcc.c ****   }
 937:Drivers/STM32L1xx_HAL_Driver/Src/stm32l1xx_hal_rcc.c **** 
 938:Drivers/STM32L1xx_HAL_Driver/Src/stm32l1xx_hal_rcc.c ****   /*-------------------------- PCLK1 Configuration ---------------------------*/
 939:Drivers/STM32L1xx_HAL_Driver/Src/stm32l1xx_hal_rcc.c ****   if(((RCC_ClkInitStruct->ClockType) & RCC_CLOCKTYPE_PCLK1) == RCC_CLOCKTYPE_PCLK1)
 1595              		.loc 1 939 25
 1596 01e0 7B68     		ldr	r3, [r7, #4]
 1597 01e2 1B68     		ldr	r3, [r3]
 1598              		.loc 1 939 38
 1599 01e4 03F00403 		and	r3, r3, #4
 1600              		.loc 1 939 5
 1601 01e8 002B     		cmp	r3, #0
 1602 01ea 08D0     		beq	.L111
 940:Drivers/STM32L1xx_HAL_Driver/Src/stm32l1xx_hal_rcc.c ****   {
 941:Drivers/STM32L1xx_HAL_Driver/Src/stm32l1xx_hal_rcc.c ****     assert_param(IS_RCC_PCLK(RCC_ClkInitStruct->APB1CLKDivider));
 942:Drivers/STM32L1xx_HAL_Driver/Src/stm32l1xx_hal_rcc.c ****     MODIFY_REG(RCC->CFGR, RCC_CFGR_PPRE1, RCC_ClkInitStruct->APB1CLKDivider);
 1603              		.loc 1 942 5
 1604 01ec 1A4B     		ldr	r3, .L113+4
 1605 01ee 9B68     		ldr	r3, [r3, #8]
 1606 01f0 23F4E062 		bic	r2, r3, #1792
 1607 01f4 7B68     		ldr	r3, [r7, #4]
 1608 01f6 DB68     		ldr	r3, [r3, #12]
 1609 01f8 1749     		ldr	r1, .L113+4
 1610 01fa 1343     		orrs	r3, r3, r2
 1611 01fc 8B60     		str	r3, [r1, #8]
 1612              	.L111:
 943:Drivers/STM32L1xx_HAL_Driver/Src/stm32l1xx_hal_rcc.c ****   }
 944:Drivers/STM32L1xx_HAL_Driver/Src/stm32l1xx_hal_rcc.c **** 
 945:Drivers/STM32L1xx_HAL_Driver/Src/stm32l1xx_hal_rcc.c ****   /*-------------------------- PCLK2 Configuration ---------------------------*/
 946:Drivers/STM32L1xx_HAL_Driver/Src/stm32l1xx_hal_rcc.c ****   if(((RCC_ClkInitStruct->ClockType) & RCC_CLOCKTYPE_PCLK2) == RCC_CLOCKTYPE_PCLK2)
 1613              		.loc 1 946 25
 1614 01fe 7B68     		ldr	r3, [r7, #4]
 1615 0200 1B68     		ldr	r3, [r3]
 1616              		.loc 1 946 38
 1617 0202 03F00803 		and	r3, r3, #8
 1618              		.loc 1 946 5
 1619 0206 002B     		cmp	r3, #0
 1620 0208 09D0     		beq	.L112
 947:Drivers/STM32L1xx_HAL_Driver/Src/stm32l1xx_hal_rcc.c ****   {
 948:Drivers/STM32L1xx_HAL_Driver/Src/stm32l1xx_hal_rcc.c ****     assert_param(IS_RCC_PCLK(RCC_ClkInitStruct->APB2CLKDivider));
 949:Drivers/STM32L1xx_HAL_Driver/Src/stm32l1xx_hal_rcc.c ****     MODIFY_REG(RCC->CFGR, RCC_CFGR_PPRE2, ((RCC_ClkInitStruct->APB2CLKDivider) << 3U));
 1621              		.loc 1 949 5
 1622 020a 134B     		ldr	r3, .L113+4
 1623 020c 9B68     		ldr	r3, [r3, #8]
 1624 020e 23F46052 		bic	r2, r3, #14336
 1625 0212 7B68     		ldr	r3, [r7, #4]
 1626 0214 1B69     		ldr	r3, [r3, #16]
 1627 0216 DB00     		lsls	r3, r3, #3
 1628 0218 0F49     		ldr	r1, .L113+4
 1629 021a 1343     		orrs	r3, r3, r2
 1630 021c 8B60     		str	r3, [r1, #8]
 1631              	.L112:
ARM GAS  C:\Users\SOLDER~1\AppData\Local\Temp\cc1DKCam.s 			page 47


 950:Drivers/STM32L1xx_HAL_Driver/Src/stm32l1xx_hal_rcc.c ****   }
 951:Drivers/STM32L1xx_HAL_Driver/Src/stm32l1xx_hal_rcc.c **** 
 952:Drivers/STM32L1xx_HAL_Driver/Src/stm32l1xx_hal_rcc.c ****   /* Update the SystemCoreClock global variable */
 953:Drivers/STM32L1xx_HAL_Driver/Src/stm32l1xx_hal_rcc.c ****   SystemCoreClock = HAL_RCC_GetSysClockFreq() >> AHBPrescTable[(RCC->CFGR & RCC_CFGR_HPRE)>> RCC_CF
 1632              		.loc 1 953 21
 1633 021e FFF7FEFF 		bl	HAL_RCC_GetSysClockFreq
 1634 0222 0246     		mov	r2, r0
 1635              		.loc 1 953 68
 1636 0224 0C4B     		ldr	r3, .L113+4
 1637 0226 9B68     		ldr	r3, [r3, #8]
 1638              		.loc 1 953 91
 1639 0228 1B09     		lsrs	r3, r3, #4
 1640 022a 03F00F03 		and	r3, r3, #15
 1641              		.loc 1 953 63
 1642 022e 0B49     		ldr	r1, .L113+8
 1643 0230 CB5C     		ldrb	r3, [r1, r3]	@ zero_extendqisi2
 1644              		.loc 1 953 47
 1645 0232 22FA03F3 		lsr	r3, r2, r3
 1646              		.loc 1 953 19
 1647 0236 0A4A     		ldr	r2, .L113+12
 1648 0238 1360     		str	r3, [r2]
 954:Drivers/STM32L1xx_HAL_Driver/Src/stm32l1xx_hal_rcc.c **** 
 955:Drivers/STM32L1xx_HAL_Driver/Src/stm32l1xx_hal_rcc.c ****   /* Configure the source of time base considering new system clocks settings*/
 956:Drivers/STM32L1xx_HAL_Driver/Src/stm32l1xx_hal_rcc.c ****   status = HAL_InitTick(uwTickPrio);
 1649              		.loc 1 956 12
 1650 023a 0A4B     		ldr	r3, .L113+16
 1651 023c 1B68     		ldr	r3, [r3]
 1652 023e 1846     		mov	r0, r3
 1653 0240 FFF7FEFF 		bl	HAL_InitTick
 1654 0244 0346     		mov	r3, r0
 1655 0246 FB72     		strb	r3, [r7, #11]
 957:Drivers/STM32L1xx_HAL_Driver/Src/stm32l1xx_hal_rcc.c **** 
 958:Drivers/STM32L1xx_HAL_Driver/Src/stm32l1xx_hal_rcc.c ****   return status;
 1656              		.loc 1 958 10
 1657 0248 FB7A     		ldrb	r3, [r7, #11]	@ zero_extendqisi2
 1658              	.L89:
 959:Drivers/STM32L1xx_HAL_Driver/Src/stm32l1xx_hal_rcc.c **** }
 1659              		.loc 1 959 1
 1660 024a 1846     		mov	r0, r3
 1661 024c 1037     		adds	r7, r7, #16
 1662              		.cfi_def_cfa_offset 8
 1663 024e BD46     		mov	sp, r7
 1664              		.cfi_def_cfa_register 13
 1665              		@ sp needed
 1666 0250 80BD     		pop	{r7, pc}
 1667              	.L114:
 1668 0252 00BF     		.align	2
 1669              	.L113:
 1670 0254 003C0240 		.word	1073888256
 1671 0258 00380240 		.word	1073887232
 1672 025c 00000000 		.word	AHBPrescTable
 1673 0260 00000000 		.word	SystemCoreClock
 1674 0264 00000000 		.word	uwTickPrio
 1675              		.cfi_endproc
 1676              	.LFE74:
 1678              		.section	.text.HAL_RCC_MCOConfig,"ax",%progbits
 1679              		.align	1
ARM GAS  C:\Users\SOLDER~1\AppData\Local\Temp\cc1DKCam.s 			page 48


 1680              		.global	HAL_RCC_MCOConfig
 1681              		.syntax unified
 1682              		.thumb
 1683              		.thumb_func
 1685              	HAL_RCC_MCOConfig:
 1686              	.LFB75:
 960:Drivers/STM32L1xx_HAL_Driver/Src/stm32l1xx_hal_rcc.c **** 
 961:Drivers/STM32L1xx_HAL_Driver/Src/stm32l1xx_hal_rcc.c **** /**
 962:Drivers/STM32L1xx_HAL_Driver/Src/stm32l1xx_hal_rcc.c ****   * @}
 963:Drivers/STM32L1xx_HAL_Driver/Src/stm32l1xx_hal_rcc.c ****   */
 964:Drivers/STM32L1xx_HAL_Driver/Src/stm32l1xx_hal_rcc.c **** 
 965:Drivers/STM32L1xx_HAL_Driver/Src/stm32l1xx_hal_rcc.c **** /** @defgroup RCC_Exported_Functions_Group2 Peripheral Control functions
 966:Drivers/STM32L1xx_HAL_Driver/Src/stm32l1xx_hal_rcc.c ****   *  @brief   RCC clocks control functions
 967:Drivers/STM32L1xx_HAL_Driver/Src/stm32l1xx_hal_rcc.c ****   *
 968:Drivers/STM32L1xx_HAL_Driver/Src/stm32l1xx_hal_rcc.c ****   @verbatim
 969:Drivers/STM32L1xx_HAL_Driver/Src/stm32l1xx_hal_rcc.c ****   ===============================================================================
 970:Drivers/STM32L1xx_HAL_Driver/Src/stm32l1xx_hal_rcc.c ****                   ##### Peripheral Control functions #####
 971:Drivers/STM32L1xx_HAL_Driver/Src/stm32l1xx_hal_rcc.c ****   ===============================================================================
 972:Drivers/STM32L1xx_HAL_Driver/Src/stm32l1xx_hal_rcc.c ****     [..]
 973:Drivers/STM32L1xx_HAL_Driver/Src/stm32l1xx_hal_rcc.c ****     This subsection provides a set of functions allowing to control the RCC Clocks
 974:Drivers/STM32L1xx_HAL_Driver/Src/stm32l1xx_hal_rcc.c ****     frequencies.
 975:Drivers/STM32L1xx_HAL_Driver/Src/stm32l1xx_hal_rcc.c **** 
 976:Drivers/STM32L1xx_HAL_Driver/Src/stm32l1xx_hal_rcc.c ****   @endverbatim
 977:Drivers/STM32L1xx_HAL_Driver/Src/stm32l1xx_hal_rcc.c ****   * @{
 978:Drivers/STM32L1xx_HAL_Driver/Src/stm32l1xx_hal_rcc.c ****   */
 979:Drivers/STM32L1xx_HAL_Driver/Src/stm32l1xx_hal_rcc.c **** 
 980:Drivers/STM32L1xx_HAL_Driver/Src/stm32l1xx_hal_rcc.c **** /**
 981:Drivers/STM32L1xx_HAL_Driver/Src/stm32l1xx_hal_rcc.c ****   * @brief  Selects the clock source to output on MCO pin.
 982:Drivers/STM32L1xx_HAL_Driver/Src/stm32l1xx_hal_rcc.c ****   * @note   MCO pin should be configured in alternate function mode.
 983:Drivers/STM32L1xx_HAL_Driver/Src/stm32l1xx_hal_rcc.c ****   * @param  RCC_MCOx specifies the output direction for the clock source.
 984:Drivers/STM32L1xx_HAL_Driver/Src/stm32l1xx_hal_rcc.c ****   *          This parameter can be one of the following values:
 985:Drivers/STM32L1xx_HAL_Driver/Src/stm32l1xx_hal_rcc.c ****   *            @arg @ref RCC_MCO1 Clock source to output on MCO1 pin(PA8).
 986:Drivers/STM32L1xx_HAL_Driver/Src/stm32l1xx_hal_rcc.c ****   * @param  RCC_MCOSource specifies the clock source to output.
 987:Drivers/STM32L1xx_HAL_Driver/Src/stm32l1xx_hal_rcc.c ****   *          This parameter can be one of the following values:
 988:Drivers/STM32L1xx_HAL_Driver/Src/stm32l1xx_hal_rcc.c ****   *            @arg @ref RCC_MCO1SOURCE_NOCLOCK     No clock selected as MCO clock
 989:Drivers/STM32L1xx_HAL_Driver/Src/stm32l1xx_hal_rcc.c ****   *            @arg @ref RCC_MCO1SOURCE_SYSCLK      System clock selected as MCO clock
 990:Drivers/STM32L1xx_HAL_Driver/Src/stm32l1xx_hal_rcc.c ****   *            @arg @ref RCC_MCO1SOURCE_HSI         HSI selected as MCO clock
 991:Drivers/STM32L1xx_HAL_Driver/Src/stm32l1xx_hal_rcc.c ****   *            @arg @ref RCC_MCO1SOURCE_HSE         HSE selected as MCO clock
 992:Drivers/STM32L1xx_HAL_Driver/Src/stm32l1xx_hal_rcc.c ****   *            @arg @ref RCC_MCO1SOURCE_MSI         MSI oscillator clock selected as MCO clock
 993:Drivers/STM32L1xx_HAL_Driver/Src/stm32l1xx_hal_rcc.c ****   *            @arg @ref RCC_MCO1SOURCE_PLLCLK      PLL clock selected as MCO clock
 994:Drivers/STM32L1xx_HAL_Driver/Src/stm32l1xx_hal_rcc.c ****   *            @arg @ref RCC_MCO1SOURCE_LSI         LSI clock selected as MCO clock
 995:Drivers/STM32L1xx_HAL_Driver/Src/stm32l1xx_hal_rcc.c ****   *            @arg @ref RCC_MCO1SOURCE_LSE         LSE clock selected as MCO clock
 996:Drivers/STM32L1xx_HAL_Driver/Src/stm32l1xx_hal_rcc.c ****   * @param  RCC_MCODiv specifies the MCO DIV.
 997:Drivers/STM32L1xx_HAL_Driver/Src/stm32l1xx_hal_rcc.c ****   *          This parameter can be one of the following values:
 998:Drivers/STM32L1xx_HAL_Driver/Src/stm32l1xx_hal_rcc.c ****   *            @arg @ref RCC_MCODIV_1 no division applied to MCO clock
 999:Drivers/STM32L1xx_HAL_Driver/Src/stm32l1xx_hal_rcc.c ****   *            @arg @ref RCC_MCODIV_2  division by 2 applied to MCO clock
1000:Drivers/STM32L1xx_HAL_Driver/Src/stm32l1xx_hal_rcc.c ****   *            @arg @ref RCC_MCODIV_4  division by 4 applied to MCO clock
1001:Drivers/STM32L1xx_HAL_Driver/Src/stm32l1xx_hal_rcc.c ****   *            @arg @ref RCC_MCODIV_8  division by 8 applied to MCO clock
1002:Drivers/STM32L1xx_HAL_Driver/Src/stm32l1xx_hal_rcc.c ****   *            @arg @ref RCC_MCODIV_16 division by 16 applied to MCO clock
1003:Drivers/STM32L1xx_HAL_Driver/Src/stm32l1xx_hal_rcc.c ****   * @retval None
1004:Drivers/STM32L1xx_HAL_Driver/Src/stm32l1xx_hal_rcc.c ****   */
1005:Drivers/STM32L1xx_HAL_Driver/Src/stm32l1xx_hal_rcc.c **** void HAL_RCC_MCOConfig(uint32_t RCC_MCOx, uint32_t RCC_MCOSource, uint32_t RCC_MCODiv)
1006:Drivers/STM32L1xx_HAL_Driver/Src/stm32l1xx_hal_rcc.c **** {
 1687              		.loc 1 1006 1
 1688              		.cfi_startproc
 1689              		@ args = 0, pretend = 0, frame = 40
 1690              		@ frame_needed = 1, uses_anonymous_args = 0
ARM GAS  C:\Users\SOLDER~1\AppData\Local\Temp\cc1DKCam.s 			page 49


 1691 0000 80B5     		push	{r7, lr}
 1692              		.cfi_def_cfa_offset 8
 1693              		.cfi_offset 7, -8
 1694              		.cfi_offset 14, -4
 1695 0002 8AB0     		sub	sp, sp, #40
 1696              		.cfi_def_cfa_offset 48
 1697 0004 00AF     		add	r7, sp, #0
 1698              		.cfi_def_cfa_register 7
 1699 0006 F860     		str	r0, [r7, #12]
 1700 0008 B960     		str	r1, [r7, #8]
 1701 000a 7A60     		str	r2, [r7, #4]
1007:Drivers/STM32L1xx_HAL_Driver/Src/stm32l1xx_hal_rcc.c ****   GPIO_InitTypeDef gpio;
1008:Drivers/STM32L1xx_HAL_Driver/Src/stm32l1xx_hal_rcc.c **** 
1009:Drivers/STM32L1xx_HAL_Driver/Src/stm32l1xx_hal_rcc.c ****   /* Check the parameters */
1010:Drivers/STM32L1xx_HAL_Driver/Src/stm32l1xx_hal_rcc.c ****   assert_param(IS_RCC_MCO(RCC_MCOx));
1011:Drivers/STM32L1xx_HAL_Driver/Src/stm32l1xx_hal_rcc.c ****   assert_param(IS_RCC_MCODIV(RCC_MCODiv));
1012:Drivers/STM32L1xx_HAL_Driver/Src/stm32l1xx_hal_rcc.c ****   assert_param(IS_RCC_MCO1SOURCE(RCC_MCOSource));
1013:Drivers/STM32L1xx_HAL_Driver/Src/stm32l1xx_hal_rcc.c **** 
1014:Drivers/STM32L1xx_HAL_Driver/Src/stm32l1xx_hal_rcc.c ****   /* Configure the MCO1 pin in alternate function mode */
1015:Drivers/STM32L1xx_HAL_Driver/Src/stm32l1xx_hal_rcc.c ****   gpio.Mode      = GPIO_MODE_AF_PP;
 1702              		.loc 1 1015 18
 1703 000c 0223     		movs	r3, #2
 1704 000e BB61     		str	r3, [r7, #24]
1016:Drivers/STM32L1xx_HAL_Driver/Src/stm32l1xx_hal_rcc.c ****   gpio.Speed     = GPIO_SPEED_FREQ_HIGH;
 1705              		.loc 1 1016 18
 1706 0010 0223     		movs	r3, #2
 1707 0012 3B62     		str	r3, [r7, #32]
1017:Drivers/STM32L1xx_HAL_Driver/Src/stm32l1xx_hal_rcc.c ****   gpio.Pull      = GPIO_NOPULL;
 1708              		.loc 1 1017 18
 1709 0014 0023     		movs	r3, #0
 1710 0016 FB61     		str	r3, [r7, #28]
1018:Drivers/STM32L1xx_HAL_Driver/Src/stm32l1xx_hal_rcc.c ****   gpio.Pin       = MCO1_PIN;
 1711              		.loc 1 1018 18
 1712 0018 4FF48073 		mov	r3, #256
 1713 001c 7B61     		str	r3, [r7, #20]
1019:Drivers/STM32L1xx_HAL_Driver/Src/stm32l1xx_hal_rcc.c ****   gpio.Alternate = GPIO_AF0_MCO;
 1714              		.loc 1 1019 18
 1715 001e 0023     		movs	r3, #0
 1716 0020 7B62     		str	r3, [r7, #36]
 1717              	.LBB4:
1020:Drivers/STM32L1xx_HAL_Driver/Src/stm32l1xx_hal_rcc.c **** 
1021:Drivers/STM32L1xx_HAL_Driver/Src/stm32l1xx_hal_rcc.c ****   /* MCO1 Clock Enable */
1022:Drivers/STM32L1xx_HAL_Driver/Src/stm32l1xx_hal_rcc.c ****   MCO1_CLK_ENABLE();
 1718              		.loc 1 1022 3
 1719 0022 104B     		ldr	r3, .L116
 1720 0024 DB69     		ldr	r3, [r3, #28]
 1721 0026 0F4A     		ldr	r2, .L116
 1722 0028 43F00103 		orr	r3, r3, #1
 1723 002c D361     		str	r3, [r2, #28]
 1724 002e 0D4B     		ldr	r3, .L116
 1725 0030 DB69     		ldr	r3, [r3, #28]
 1726 0032 03F00103 		and	r3, r3, #1
 1727 0036 3B61     		str	r3, [r7, #16]
 1728 0038 3B69     		ldr	r3, [r7, #16]
 1729              	.LBE4:
1023:Drivers/STM32L1xx_HAL_Driver/Src/stm32l1xx_hal_rcc.c **** 
1024:Drivers/STM32L1xx_HAL_Driver/Src/stm32l1xx_hal_rcc.c ****   HAL_GPIO_Init(MCO1_GPIO_PORT, &gpio);
ARM GAS  C:\Users\SOLDER~1\AppData\Local\Temp\cc1DKCam.s 			page 50


 1730              		.loc 1 1024 3
 1731 003a 07F11403 		add	r3, r7, #20
 1732 003e 1946     		mov	r1, r3
 1733 0040 0948     		ldr	r0, .L116+4
 1734 0042 FFF7FEFF 		bl	HAL_GPIO_Init
1025:Drivers/STM32L1xx_HAL_Driver/Src/stm32l1xx_hal_rcc.c **** 
1026:Drivers/STM32L1xx_HAL_Driver/Src/stm32l1xx_hal_rcc.c ****   /* Configure the MCO clock source */
1027:Drivers/STM32L1xx_HAL_Driver/Src/stm32l1xx_hal_rcc.c ****   __HAL_RCC_MCO1_CONFIG(RCC_MCOSource, RCC_MCODiv);
 1735              		.loc 1 1027 3
 1736 0046 074B     		ldr	r3, .L116
 1737 0048 9B68     		ldr	r3, [r3, #8]
 1738 004a 23F0EE42 		bic	r2, r3, #1996488704
 1739 004e B968     		ldr	r1, [r7, #8]
 1740 0050 7B68     		ldr	r3, [r7, #4]
 1741 0052 0B43     		orrs	r3, r3, r1
 1742 0054 0349     		ldr	r1, .L116
 1743 0056 1343     		orrs	r3, r3, r2
 1744 0058 8B60     		str	r3, [r1, #8]
1028:Drivers/STM32L1xx_HAL_Driver/Src/stm32l1xx_hal_rcc.c **** }
 1745              		.loc 1 1028 1
 1746 005a 00BF     		nop
 1747 005c 2837     		adds	r7, r7, #40
 1748              		.cfi_def_cfa_offset 8
 1749 005e BD46     		mov	sp, r7
 1750              		.cfi_def_cfa_register 13
 1751              		@ sp needed
 1752 0060 80BD     		pop	{r7, pc}
 1753              	.L117:
 1754 0062 00BF     		.align	2
 1755              	.L116:
 1756 0064 00380240 		.word	1073887232
 1757 0068 00000240 		.word	1073872896
 1758              		.cfi_endproc
 1759              	.LFE75:
 1761              		.section	.text.HAL_RCC_EnableCSS,"ax",%progbits
 1762              		.align	1
 1763              		.global	HAL_RCC_EnableCSS
 1764              		.syntax unified
 1765              		.thumb
 1766              		.thumb_func
 1768              	HAL_RCC_EnableCSS:
 1769              	.LFB76:
1029:Drivers/STM32L1xx_HAL_Driver/Src/stm32l1xx_hal_rcc.c **** 
1030:Drivers/STM32L1xx_HAL_Driver/Src/stm32l1xx_hal_rcc.c **** /**
1031:Drivers/STM32L1xx_HAL_Driver/Src/stm32l1xx_hal_rcc.c ****   * @brief  Enables the Clock Security System.
1032:Drivers/STM32L1xx_HAL_Driver/Src/stm32l1xx_hal_rcc.c ****   * @note   If a failure is detected on the HSE oscillator clock, this oscillator
1033:Drivers/STM32L1xx_HAL_Driver/Src/stm32l1xx_hal_rcc.c ****   *         is automatically disabled and an interrupt is generated to inform the
1034:Drivers/STM32L1xx_HAL_Driver/Src/stm32l1xx_hal_rcc.c ****   *         software about the failure (Clock Security System Interrupt, CSSI),
1035:Drivers/STM32L1xx_HAL_Driver/Src/stm32l1xx_hal_rcc.c ****   *         allowing the MCU to perform rescue operations. The CSSI is linked to
1036:Drivers/STM32L1xx_HAL_Driver/Src/stm32l1xx_hal_rcc.c ****   *         the Cortex-M3 NMI (Non-Maskable Interrupt) exception vector.
1037:Drivers/STM32L1xx_HAL_Driver/Src/stm32l1xx_hal_rcc.c ****   * @retval None
1038:Drivers/STM32L1xx_HAL_Driver/Src/stm32l1xx_hal_rcc.c ****   */
1039:Drivers/STM32L1xx_HAL_Driver/Src/stm32l1xx_hal_rcc.c **** void HAL_RCC_EnableCSS(void)
1040:Drivers/STM32L1xx_HAL_Driver/Src/stm32l1xx_hal_rcc.c **** {
 1770              		.loc 1 1040 1
 1771              		.cfi_startproc
 1772              		@ args = 0, pretend = 0, frame = 0
ARM GAS  C:\Users\SOLDER~1\AppData\Local\Temp\cc1DKCam.s 			page 51


 1773              		@ frame_needed = 1, uses_anonymous_args = 0
 1774              		@ link register save eliminated.
 1775 0000 80B4     		push	{r7}
 1776              		.cfi_def_cfa_offset 4
 1777              		.cfi_offset 7, -4
 1778 0002 00AF     		add	r7, sp, #0
 1779              		.cfi_def_cfa_register 7
1041:Drivers/STM32L1xx_HAL_Driver/Src/stm32l1xx_hal_rcc.c ****   *(__IO uint32_t *) RCC_CR_CSSON_BB = (uint32_t)ENABLE;
 1780              		.loc 1 1041 3
 1781 0004 034B     		ldr	r3, .L119
 1782              		.loc 1 1041 38
 1783 0006 0122     		movs	r2, #1
 1784 0008 1A60     		str	r2, [r3]
1042:Drivers/STM32L1xx_HAL_Driver/Src/stm32l1xx_hal_rcc.c **** }
 1785              		.loc 1 1042 1
 1786 000a 00BF     		nop
 1787 000c BD46     		mov	sp, r7
 1788              		.cfi_def_cfa_register 13
 1789              		@ sp needed
 1790 000e 80BC     		pop	{r7}
 1791              		.cfi_restore 7
 1792              		.cfi_def_cfa_offset 0
 1793 0010 7047     		bx	lr
 1794              	.L120:
 1795 0012 00BF     		.align	2
 1796              	.L119:
 1797 0014 70004742 		.word	1111949424
 1798              		.cfi_endproc
 1799              	.LFE76:
 1801              		.section	.text.HAL_RCC_DisableCSS,"ax",%progbits
 1802              		.align	1
 1803              		.global	HAL_RCC_DisableCSS
 1804              		.syntax unified
 1805              		.thumb
 1806              		.thumb_func
 1808              	HAL_RCC_DisableCSS:
 1809              	.LFB77:
1043:Drivers/STM32L1xx_HAL_Driver/Src/stm32l1xx_hal_rcc.c **** 
1044:Drivers/STM32L1xx_HAL_Driver/Src/stm32l1xx_hal_rcc.c **** /**
1045:Drivers/STM32L1xx_HAL_Driver/Src/stm32l1xx_hal_rcc.c ****   * @brief  Disables the Clock Security System.
1046:Drivers/STM32L1xx_HAL_Driver/Src/stm32l1xx_hal_rcc.c ****   * @retval None
1047:Drivers/STM32L1xx_HAL_Driver/Src/stm32l1xx_hal_rcc.c ****   */
1048:Drivers/STM32L1xx_HAL_Driver/Src/stm32l1xx_hal_rcc.c **** void HAL_RCC_DisableCSS(void)
1049:Drivers/STM32L1xx_HAL_Driver/Src/stm32l1xx_hal_rcc.c **** {
 1810              		.loc 1 1049 1
 1811              		.cfi_startproc
 1812              		@ args = 0, pretend = 0, frame = 0
 1813              		@ frame_needed = 1, uses_anonymous_args = 0
 1814              		@ link register save eliminated.
 1815 0000 80B4     		push	{r7}
 1816              		.cfi_def_cfa_offset 4
 1817              		.cfi_offset 7, -4
 1818 0002 00AF     		add	r7, sp, #0
 1819              		.cfi_def_cfa_register 7
1050:Drivers/STM32L1xx_HAL_Driver/Src/stm32l1xx_hal_rcc.c ****   *(__IO uint32_t *) RCC_CR_CSSON_BB = (uint32_t)DISABLE;
 1820              		.loc 1 1050 3
 1821 0004 034B     		ldr	r3, .L122
ARM GAS  C:\Users\SOLDER~1\AppData\Local\Temp\cc1DKCam.s 			page 52


 1822              		.loc 1 1050 38
 1823 0006 0022     		movs	r2, #0
 1824 0008 1A60     		str	r2, [r3]
1051:Drivers/STM32L1xx_HAL_Driver/Src/stm32l1xx_hal_rcc.c **** }
 1825              		.loc 1 1051 1
 1826 000a 00BF     		nop
 1827 000c BD46     		mov	sp, r7
 1828              		.cfi_def_cfa_register 13
 1829              		@ sp needed
 1830 000e 80BC     		pop	{r7}
 1831              		.cfi_restore 7
 1832              		.cfi_def_cfa_offset 0
 1833 0010 7047     		bx	lr
 1834              	.L123:
 1835 0012 00BF     		.align	2
 1836              	.L122:
 1837 0014 70004742 		.word	1111949424
 1838              		.cfi_endproc
 1839              	.LFE77:
 1841              		.global	__aeabi_uldivmod
 1842              		.section	.text.HAL_RCC_GetSysClockFreq,"ax",%progbits
 1843              		.align	1
 1844              		.global	HAL_RCC_GetSysClockFreq
 1845              		.syntax unified
 1846              		.thumb
 1847              		.thumb_func
 1849              	HAL_RCC_GetSysClockFreq:
 1850              	.LFB78:
1052:Drivers/STM32L1xx_HAL_Driver/Src/stm32l1xx_hal_rcc.c **** 
1053:Drivers/STM32L1xx_HAL_Driver/Src/stm32l1xx_hal_rcc.c **** /**
1054:Drivers/STM32L1xx_HAL_Driver/Src/stm32l1xx_hal_rcc.c ****   * @brief  Returns the SYSCLK frequency
1055:Drivers/STM32L1xx_HAL_Driver/Src/stm32l1xx_hal_rcc.c ****   * @note   The system frequency computed by this function is not the real
1056:Drivers/STM32L1xx_HAL_Driver/Src/stm32l1xx_hal_rcc.c ****   *         frequency in the chip. It is calculated based on the predefined
1057:Drivers/STM32L1xx_HAL_Driver/Src/stm32l1xx_hal_rcc.c ****   *         constant and the selected clock source:
1058:Drivers/STM32L1xx_HAL_Driver/Src/stm32l1xx_hal_rcc.c ****   * @note     If SYSCLK source is MSI, function returns a value based on MSI
1059:Drivers/STM32L1xx_HAL_Driver/Src/stm32l1xx_hal_rcc.c ****   *             Value as defined by the MSI range.
1060:Drivers/STM32L1xx_HAL_Driver/Src/stm32l1xx_hal_rcc.c ****   * @note     If SYSCLK source is HSI, function returns values based on HSI_VALUE(*)
1061:Drivers/STM32L1xx_HAL_Driver/Src/stm32l1xx_hal_rcc.c ****   * @note     If SYSCLK source is HSE, function returns a value based on HSE_VALUE(**)
1062:Drivers/STM32L1xx_HAL_Driver/Src/stm32l1xx_hal_rcc.c ****   * @note     If SYSCLK source is PLL, function returns a value based on HSE_VALUE(**)
1063:Drivers/STM32L1xx_HAL_Driver/Src/stm32l1xx_hal_rcc.c ****   *           or HSI_VALUE(*) multiplied/divided by the PLL factors.
1064:Drivers/STM32L1xx_HAL_Driver/Src/stm32l1xx_hal_rcc.c ****   * @note     (*) HSI_VALUE is a constant defined in stm32l1xx_hal_conf.h file (default value
1065:Drivers/STM32L1xx_HAL_Driver/Src/stm32l1xx_hal_rcc.c ****   *               16 MHz) but the real value may vary depending on the variations
1066:Drivers/STM32L1xx_HAL_Driver/Src/stm32l1xx_hal_rcc.c ****   *               in voltage and temperature.
1067:Drivers/STM32L1xx_HAL_Driver/Src/stm32l1xx_hal_rcc.c ****   * @note     (**) HSE_VALUE is a constant defined in stm32l1xx_hal_conf.h file (default value
1068:Drivers/STM32L1xx_HAL_Driver/Src/stm32l1xx_hal_rcc.c ****   *                8 MHz), user has to ensure that HSE_VALUE is same as the real
1069:Drivers/STM32L1xx_HAL_Driver/Src/stm32l1xx_hal_rcc.c ****   *                frequency of the crystal used. Otherwise, this function may
1070:Drivers/STM32L1xx_HAL_Driver/Src/stm32l1xx_hal_rcc.c ****   *                have wrong result.
1071:Drivers/STM32L1xx_HAL_Driver/Src/stm32l1xx_hal_rcc.c ****   *
1072:Drivers/STM32L1xx_HAL_Driver/Src/stm32l1xx_hal_rcc.c ****   * @note   The result of this function could be not correct when using fractional
1073:Drivers/STM32L1xx_HAL_Driver/Src/stm32l1xx_hal_rcc.c ****   *         value for HSE crystal.
1074:Drivers/STM32L1xx_HAL_Driver/Src/stm32l1xx_hal_rcc.c ****   *
1075:Drivers/STM32L1xx_HAL_Driver/Src/stm32l1xx_hal_rcc.c ****   * @note   This function can be used by the user application to compute the
1076:Drivers/STM32L1xx_HAL_Driver/Src/stm32l1xx_hal_rcc.c ****   *         baud-rate for the communication peripherals or configure other parameters.
1077:Drivers/STM32L1xx_HAL_Driver/Src/stm32l1xx_hal_rcc.c ****   *
1078:Drivers/STM32L1xx_HAL_Driver/Src/stm32l1xx_hal_rcc.c ****   * @note   Each time SYSCLK changes, this function must be called to update the
1079:Drivers/STM32L1xx_HAL_Driver/Src/stm32l1xx_hal_rcc.c ****   *         right SYSCLK value. Otherwise, any configuration based on this function will be incorre
1080:Drivers/STM32L1xx_HAL_Driver/Src/stm32l1xx_hal_rcc.c ****   *
ARM GAS  C:\Users\SOLDER~1\AppData\Local\Temp\cc1DKCam.s 			page 53


1081:Drivers/STM32L1xx_HAL_Driver/Src/stm32l1xx_hal_rcc.c ****   * @retval SYSCLK frequency
1082:Drivers/STM32L1xx_HAL_Driver/Src/stm32l1xx_hal_rcc.c ****   */
1083:Drivers/STM32L1xx_HAL_Driver/Src/stm32l1xx_hal_rcc.c **** uint32_t HAL_RCC_GetSysClockFreq(void)
1084:Drivers/STM32L1xx_HAL_Driver/Src/stm32l1xx_hal_rcc.c **** {
 1851              		.loc 1 1084 1
 1852              		.cfi_startproc
 1853              		@ args = 0, pretend = 0, frame = 56
 1854              		@ frame_needed = 1, uses_anonymous_args = 0
 1855 0000 2DE9B04F 		push	{r4, r5, r7, r8, r9, r10, fp, lr}
 1856              		.cfi_def_cfa_offset 32
 1857              		.cfi_offset 4, -32
 1858              		.cfi_offset 5, -28
 1859              		.cfi_offset 7, -24
 1860              		.cfi_offset 8, -20
 1861              		.cfi_offset 9, -16
 1862              		.cfi_offset 10, -12
 1863              		.cfi_offset 11, -8
 1864              		.cfi_offset 14, -4
 1865 0004 8EB0     		sub	sp, sp, #56
 1866              		.cfi_def_cfa_offset 88
 1867 0006 00AF     		add	r7, sp, #0
 1868              		.cfi_def_cfa_register 7
1085:Drivers/STM32L1xx_HAL_Driver/Src/stm32l1xx_hal_rcc.c ****   uint32_t tmpreg, pllm, plld, pllvco, msiclkrange, sysclockfreq;
1086:Drivers/STM32L1xx_HAL_Driver/Src/stm32l1xx_hal_rcc.c **** 
1087:Drivers/STM32L1xx_HAL_Driver/Src/stm32l1xx_hal_rcc.c ****   tmpreg = RCC->CFGR;
 1869              		.loc 1 1087 15
 1870 0008 584B     		ldr	r3, .L133
 1871              		.loc 1 1087 10
 1872 000a 9B68     		ldr	r3, [r3, #8]
 1873 000c FB62     		str	r3, [r7, #44]
1088:Drivers/STM32L1xx_HAL_Driver/Src/stm32l1xx_hal_rcc.c **** 
1089:Drivers/STM32L1xx_HAL_Driver/Src/stm32l1xx_hal_rcc.c ****   /* Get SYSCLK source -------------------------------------------------------*/
1090:Drivers/STM32L1xx_HAL_Driver/Src/stm32l1xx_hal_rcc.c ****   switch (tmpreg & RCC_CFGR_SWS)
 1874              		.loc 1 1090 18
 1875 000e FB6A     		ldr	r3, [r7, #44]
 1876 0010 03F00C03 		and	r3, r3, #12
 1877              		.loc 1 1090 3
 1878 0014 0C2B     		cmp	r3, #12
 1879 0016 0DD0     		beq	.L125
 1880 0018 0C2B     		cmp	r3, #12
 1881 001a 00F29280 		bhi	.L126
 1882 001e 042B     		cmp	r3, #4
 1883 0020 02D0     		beq	.L127
 1884 0022 082B     		cmp	r3, #8
 1885 0024 03D0     		beq	.L128
 1886 0026 8CE0     		b	.L126
 1887              	.L127:
1091:Drivers/STM32L1xx_HAL_Driver/Src/stm32l1xx_hal_rcc.c ****   {
1092:Drivers/STM32L1xx_HAL_Driver/Src/stm32l1xx_hal_rcc.c ****     case RCC_SYSCLKSOURCE_STATUS_HSI:  /* HSI used as system clock source */
1093:Drivers/STM32L1xx_HAL_Driver/Src/stm32l1xx_hal_rcc.c ****     {
1094:Drivers/STM32L1xx_HAL_Driver/Src/stm32l1xx_hal_rcc.c ****       sysclockfreq = HSI_VALUE;
 1888              		.loc 1 1094 20
 1889 0028 514B     		ldr	r3, .L133+4
 1890 002a 3B63     		str	r3, [r7, #48]
1095:Drivers/STM32L1xx_HAL_Driver/Src/stm32l1xx_hal_rcc.c ****       break;
 1891              		.loc 1 1095 7
 1892 002c 97E0     		b	.L129
ARM GAS  C:\Users\SOLDER~1\AppData\Local\Temp\cc1DKCam.s 			page 54


 1893              	.L128:
1096:Drivers/STM32L1xx_HAL_Driver/Src/stm32l1xx_hal_rcc.c ****     }
1097:Drivers/STM32L1xx_HAL_Driver/Src/stm32l1xx_hal_rcc.c ****     case RCC_SYSCLKSOURCE_STATUS_HSE:  /* HSE used as system clock */
1098:Drivers/STM32L1xx_HAL_Driver/Src/stm32l1xx_hal_rcc.c ****     {
1099:Drivers/STM32L1xx_HAL_Driver/Src/stm32l1xx_hal_rcc.c ****       sysclockfreq = HSE_VALUE;
 1894              		.loc 1 1099 20
 1895 002e 514B     		ldr	r3, .L133+8
 1896 0030 3B63     		str	r3, [r7, #48]
1100:Drivers/STM32L1xx_HAL_Driver/Src/stm32l1xx_hal_rcc.c ****       break;
 1897              		.loc 1 1100 7
 1898 0032 94E0     		b	.L129
 1899              	.L125:
1101:Drivers/STM32L1xx_HAL_Driver/Src/stm32l1xx_hal_rcc.c ****     }
1102:Drivers/STM32L1xx_HAL_Driver/Src/stm32l1xx_hal_rcc.c ****     case RCC_SYSCLKSOURCE_STATUS_PLLCLK:  /* PLL used as system clock */
1103:Drivers/STM32L1xx_HAL_Driver/Src/stm32l1xx_hal_rcc.c ****     {
1104:Drivers/STM32L1xx_HAL_Driver/Src/stm32l1xx_hal_rcc.c ****       pllm = PLLMulTable[(uint32_t)(tmpreg & RCC_CFGR_PLLMUL) >> RCC_CFGR_PLLMUL_Pos];
 1900              		.loc 1 1104 63
 1901 0034 FB6A     		ldr	r3, [r7, #44]
 1902 0036 9B0C     		lsrs	r3, r3, #18
 1903 0038 03F00F02 		and	r2, r3, #15
 1904              		.loc 1 1104 25
 1905 003c 4E4B     		ldr	r3, .L133+12
 1906 003e 9B5C     		ldrb	r3, [r3, r2]	@ zero_extendqisi2
 1907              		.loc 1 1104 12
 1908 0040 BB62     		str	r3, [r7, #40]
1105:Drivers/STM32L1xx_HAL_Driver/Src/stm32l1xx_hal_rcc.c ****       plld = ((uint32_t)(tmpreg & RCC_CFGR_PLLDIV) >> RCC_CFGR_PLLDIV_Pos) + 1U;
 1909              		.loc 1 1105 52
 1910 0042 FB6A     		ldr	r3, [r7, #44]
 1911 0044 9B0D     		lsrs	r3, r3, #22
 1912 0046 03F00303 		and	r3, r3, #3
 1913              		.loc 1 1105 12
 1914 004a 0133     		adds	r3, r3, #1
 1915 004c 7B62     		str	r3, [r7, #36]
1106:Drivers/STM32L1xx_HAL_Driver/Src/stm32l1xx_hal_rcc.c ****       if (__HAL_RCC_GET_PLL_OSCSOURCE() != RCC_PLLSOURCE_HSI)
 1916              		.loc 1 1106 11
 1917 004e 474B     		ldr	r3, .L133
 1918 0050 9B68     		ldr	r3, [r3, #8]
 1919 0052 03F48033 		and	r3, r3, #65536
 1920              		.loc 1 1106 10
 1921 0056 002B     		cmp	r3, #0
 1922 0058 21D0     		beq	.L130
1107:Drivers/STM32L1xx_HAL_Driver/Src/stm32l1xx_hal_rcc.c ****       {
1108:Drivers/STM32L1xx_HAL_Driver/Src/stm32l1xx_hal_rcc.c ****         /* HSE used as PLL clock source */
1109:Drivers/STM32L1xx_HAL_Driver/Src/stm32l1xx_hal_rcc.c ****         pllvco = (uint32_t)(((uint64_t)HSE_VALUE * (uint64_t)pllm) / (uint64_t)plld);
 1923              		.loc 1 1109 52
 1924 005a BB6A     		ldr	r3, [r7, #40]
 1925 005c 0022     		movs	r2, #0
 1926 005e BB61     		str	r3, [r7, #24]
 1927 0060 FA61     		str	r2, [r7, #28]
 1928              		.loc 1 1109 50
 1929 0062 444B     		ldr	r3, .L133+8
 1930 0064 D7E90689 		ldrd	r8, [r7, #24]
 1931 0068 4A46     		mov	r2, r9
 1932 006a 03FB02F2 		mul	r2, r3, r2
 1933 006e 0023     		movs	r3, #0
 1934 0070 4446     		mov	r4, r8
 1935 0072 04FB03F3 		mul	r3, r4, r3
ARM GAS  C:\Users\SOLDER~1\AppData\Local\Temp\cc1DKCam.s 			page 55


 1936 0076 1344     		add	r3, r3, r2
 1937 0078 3E4A     		ldr	r2, .L133+8
 1938 007a 4446     		mov	r4, r8
 1939 007c A4FB0201 		umull	r0, r1, r4, r2
 1940 0080 0B44     		add	r3, r3, r1
 1941 0082 1946     		mov	r1, r3
 1942              		.loc 1 1109 70
 1943 0084 7B6A     		ldr	r3, [r7, #36]
 1944 0086 0022     		movs	r2, #0
 1945 0088 3B61     		str	r3, [r7, #16]
 1946 008a 7A61     		str	r2, [r7, #20]
 1947              		.loc 1 1109 68
 1948 008c D7E90423 		ldrd	r2, [r7, #16]
 1949 0090 FFF7FEFF 		bl	__aeabi_uldivmod
 1950 0094 0246     		mov	r2, r0
 1951 0096 0B46     		mov	r3, r1
 1952              		.loc 1 1109 16
 1953 0098 1346     		mov	r3, r2
 1954 009a 7B63     		str	r3, [r7, #52]
 1955 009c 4EE0     		b	.L131
 1956              	.L130:
1110:Drivers/STM32L1xx_HAL_Driver/Src/stm32l1xx_hal_rcc.c ****       }
1111:Drivers/STM32L1xx_HAL_Driver/Src/stm32l1xx_hal_rcc.c ****       else
1112:Drivers/STM32L1xx_HAL_Driver/Src/stm32l1xx_hal_rcc.c ****       {
1113:Drivers/STM32L1xx_HAL_Driver/Src/stm32l1xx_hal_rcc.c ****         /* HSI used as PLL clock source */
1114:Drivers/STM32L1xx_HAL_Driver/Src/stm32l1xx_hal_rcc.c ****         pllvco = (uint32_t)(((uint64_t)HSI_VALUE * (uint64_t)pllm) / (uint64_t)plld);
 1957              		.loc 1 1114 52
 1958 009e BB6A     		ldr	r3, [r7, #40]
 1959 00a0 0022     		movs	r2, #0
 1960 00a2 9A46     		mov	r10, r3
 1961 00a4 9346     		mov	fp, r2
 1962              		.loc 1 1114 50
 1963 00a6 5246     		mov	r2, r10
 1964 00a8 5B46     		mov	r3, fp
 1965 00aa 4FF00000 		mov	r0, #0
 1966 00ae 4FF00001 		mov	r1, #0
 1967 00b2 5901     		lsls	r1, r3, #5
 1968 00b4 41EAD261 		orr	r1, r1, r2, lsr #27
 1969 00b8 5001     		lsls	r0, r2, #5
 1970 00ba 0246     		mov	r2, r0
 1971 00bc 0B46     		mov	r3, r1
 1972 00be B2EB0A08 		subs	r8, r2, r10
 1973 00c2 63EB0B09 		sbc	r9, r3, fp
 1974 00c6 4FF00002 		mov	r2, #0
 1975 00ca 4FF00003 		mov	r3, #0
 1976 00ce 4FEA8913 		lsl	r3, r9, #6
 1977 00d2 43EA9863 		orr	r3, r3, r8, lsr #26
 1978 00d6 4FEA8812 		lsl	r2, r8, #6
 1979 00da B2EB0804 		subs	r4, r2, r8
 1980 00de 63EB0905 		sbc	r5, r3, r9
 1981 00e2 4FF00002 		mov	r2, #0
 1982 00e6 4FF00003 		mov	r3, #0
 1983 00ea EB00     		lsls	r3, r5, #3
 1984 00ec 43EA5473 		orr	r3, r3, r4, lsr #29
 1985 00f0 E200     		lsls	r2, r4, #3
 1986 00f2 1446     		mov	r4, r2
 1987 00f4 1D46     		mov	r5, r3
ARM GAS  C:\Users\SOLDER~1\AppData\Local\Temp\cc1DKCam.s 			page 56


 1988 00f6 14EB0A03 		adds	r3, r4, r10
 1989 00fa 3B60     		str	r3, [r7]
 1990 00fc 45EB0B03 		adc	r3, r5, fp
 1991 0100 7B60     		str	r3, [r7, #4]
 1992 0102 4FF00002 		mov	r2, #0
 1993 0106 4FF00003 		mov	r3, #0
 1994 010a D7E90045 		ldrd	r4, [r7]
 1995 010e 2946     		mov	r1, r5
 1996 0110 8B02     		lsls	r3, r1, #10
 1997 0112 2046     		mov	r0, r4
 1998 0114 2946     		mov	r1, r5
 1999 0116 0446     		mov	r4, r0
 2000 0118 43EA9453 		orr	r3, r3, r4, lsr #22
 2001 011c 0146     		mov	r1, r0
 2002 011e 8A02     		lsls	r2, r1, #10
 2003 0120 1046     		mov	r0, r2
 2004 0122 1946     		mov	r1, r3
 2005              		.loc 1 1114 70
 2006 0124 7B6A     		ldr	r3, [r7, #36]
 2007 0126 0022     		movs	r2, #0
 2008 0128 BB60     		str	r3, [r7, #8]
 2009 012a FA60     		str	r2, [r7, #12]
 2010              		.loc 1 1114 68
 2011 012c D7E90223 		ldrd	r2, [r7, #8]
 2012 0130 FFF7FEFF 		bl	__aeabi_uldivmod
 2013 0134 0246     		mov	r2, r0
 2014 0136 0B46     		mov	r3, r1
 2015              		.loc 1 1114 16
 2016 0138 1346     		mov	r3, r2
 2017 013a 7B63     		str	r3, [r7, #52]
 2018              	.L131:
1115:Drivers/STM32L1xx_HAL_Driver/Src/stm32l1xx_hal_rcc.c ****       }
1116:Drivers/STM32L1xx_HAL_Driver/Src/stm32l1xx_hal_rcc.c ****       sysclockfreq = pllvco;
 2019              		.loc 1 1116 20
 2020 013c 7B6B     		ldr	r3, [r7, #52]
 2021 013e 3B63     		str	r3, [r7, #48]
1117:Drivers/STM32L1xx_HAL_Driver/Src/stm32l1xx_hal_rcc.c ****       break;
 2022              		.loc 1 1117 7
 2023 0140 0DE0     		b	.L129
 2024              	.L126:
1118:Drivers/STM32L1xx_HAL_Driver/Src/stm32l1xx_hal_rcc.c ****     }
1119:Drivers/STM32L1xx_HAL_Driver/Src/stm32l1xx_hal_rcc.c ****     case RCC_SYSCLKSOURCE_STATUS_MSI:  /* MSI used as system clock source */
1120:Drivers/STM32L1xx_HAL_Driver/Src/stm32l1xx_hal_rcc.c ****     default: /* MSI used as system clock */
1121:Drivers/STM32L1xx_HAL_Driver/Src/stm32l1xx_hal_rcc.c ****     {
1122:Drivers/STM32L1xx_HAL_Driver/Src/stm32l1xx_hal_rcc.c ****       msiclkrange = (RCC->ICSCR & RCC_ICSCR_MSIRANGE ) >> RCC_ICSCR_MSIRANGE_Pos;
 2025              		.loc 1 1122 25
 2026 0142 0A4B     		ldr	r3, .L133
 2027 0144 5B68     		ldr	r3, [r3, #4]
 2028              		.loc 1 1122 56
 2029 0146 5B0B     		lsrs	r3, r3, #13
 2030              		.loc 1 1122 19
 2031 0148 03F00703 		and	r3, r3, #7
 2032 014c 3B62     		str	r3, [r7, #32]
1123:Drivers/STM32L1xx_HAL_Driver/Src/stm32l1xx_hal_rcc.c ****       sysclockfreq = (32768U * (1UL << (msiclkrange + 1U)));
 2033              		.loc 1 1123 53
 2034 014e 3B6A     		ldr	r3, [r7, #32]
 2035 0150 0133     		adds	r3, r3, #1
ARM GAS  C:\Users\SOLDER~1\AppData\Local\Temp\cc1DKCam.s 			page 57


 2036              		.loc 1 1123 20
 2037 0152 4FF40042 		mov	r2, #32768
 2038 0156 02FA03F3 		lsl	r3, r2, r3
 2039 015a 3B63     		str	r3, [r7, #48]
1124:Drivers/STM32L1xx_HAL_Driver/Src/stm32l1xx_hal_rcc.c ****       break;
 2040              		.loc 1 1124 7
 2041 015c 00BF     		nop
 2042              	.L129:
1125:Drivers/STM32L1xx_HAL_Driver/Src/stm32l1xx_hal_rcc.c ****     }
1126:Drivers/STM32L1xx_HAL_Driver/Src/stm32l1xx_hal_rcc.c ****   }
1127:Drivers/STM32L1xx_HAL_Driver/Src/stm32l1xx_hal_rcc.c ****   return sysclockfreq;
 2043              		.loc 1 1127 10
 2044 015e 3B6B     		ldr	r3, [r7, #48]
1128:Drivers/STM32L1xx_HAL_Driver/Src/stm32l1xx_hal_rcc.c **** }
 2045              		.loc 1 1128 1
 2046 0160 1846     		mov	r0, r3
 2047 0162 3837     		adds	r7, r7, #56
 2048              		.cfi_def_cfa_offset 32
 2049 0164 BD46     		mov	sp, r7
 2050              		.cfi_def_cfa_register 13
 2051              		@ sp needed
 2052 0166 BDE8B08F 		pop	{r4, r5, r7, r8, r9, r10, fp, pc}
 2053              	.L134:
 2054 016a 00BF     		.align	2
 2055              	.L133:
 2056 016c 00380240 		.word	1073887232
 2057 0170 0024F400 		.word	16000000
 2058 0174 00366E01 		.word	24000000
 2059 0178 00000000 		.word	PLLMulTable
 2060              		.cfi_endproc
 2061              	.LFE78:
 2063              		.section	.text.HAL_RCC_GetHCLKFreq,"ax",%progbits
 2064              		.align	1
 2065              		.global	HAL_RCC_GetHCLKFreq
 2066              		.syntax unified
 2067              		.thumb
 2068              		.thumb_func
 2070              	HAL_RCC_GetHCLKFreq:
 2071              	.LFB79:
1129:Drivers/STM32L1xx_HAL_Driver/Src/stm32l1xx_hal_rcc.c **** 
1130:Drivers/STM32L1xx_HAL_Driver/Src/stm32l1xx_hal_rcc.c **** /**
1131:Drivers/STM32L1xx_HAL_Driver/Src/stm32l1xx_hal_rcc.c ****   * @brief  Returns the HCLK frequency
1132:Drivers/STM32L1xx_HAL_Driver/Src/stm32l1xx_hal_rcc.c ****   * @note   Each time HCLK changes, this function must be called to update the
1133:Drivers/STM32L1xx_HAL_Driver/Src/stm32l1xx_hal_rcc.c ****   *         right HCLK value. Otherwise, any configuration based on this function will be incorrect
1134:Drivers/STM32L1xx_HAL_Driver/Src/stm32l1xx_hal_rcc.c ****   *
1135:Drivers/STM32L1xx_HAL_Driver/Src/stm32l1xx_hal_rcc.c ****   * @note   The SystemCoreClock CMSIS variable is used to store System Clock Frequency
1136:Drivers/STM32L1xx_HAL_Driver/Src/stm32l1xx_hal_rcc.c ****   *         and updated within this function
1137:Drivers/STM32L1xx_HAL_Driver/Src/stm32l1xx_hal_rcc.c ****   * @retval HCLK frequency
1138:Drivers/STM32L1xx_HAL_Driver/Src/stm32l1xx_hal_rcc.c ****   */
1139:Drivers/STM32L1xx_HAL_Driver/Src/stm32l1xx_hal_rcc.c **** uint32_t HAL_RCC_GetHCLKFreq(void)
1140:Drivers/STM32L1xx_HAL_Driver/Src/stm32l1xx_hal_rcc.c **** {
 2072              		.loc 1 1140 1
 2073              		.cfi_startproc
 2074              		@ args = 0, pretend = 0, frame = 0
 2075              		@ frame_needed = 1, uses_anonymous_args = 0
 2076              		@ link register save eliminated.
 2077 0000 80B4     		push	{r7}
ARM GAS  C:\Users\SOLDER~1\AppData\Local\Temp\cc1DKCam.s 			page 58


 2078              		.cfi_def_cfa_offset 4
 2079              		.cfi_offset 7, -4
 2080 0002 00AF     		add	r7, sp, #0
 2081              		.cfi_def_cfa_register 7
1141:Drivers/STM32L1xx_HAL_Driver/Src/stm32l1xx_hal_rcc.c ****   return SystemCoreClock;
 2082              		.loc 1 1141 10
 2083 0004 024B     		ldr	r3, .L137
 2084 0006 1B68     		ldr	r3, [r3]
1142:Drivers/STM32L1xx_HAL_Driver/Src/stm32l1xx_hal_rcc.c **** }
 2085              		.loc 1 1142 1
 2086 0008 1846     		mov	r0, r3
 2087 000a BD46     		mov	sp, r7
 2088              		.cfi_def_cfa_register 13
 2089              		@ sp needed
 2090 000c 80BC     		pop	{r7}
 2091              		.cfi_restore 7
 2092              		.cfi_def_cfa_offset 0
 2093 000e 7047     		bx	lr
 2094              	.L138:
 2095              		.align	2
 2096              	.L137:
 2097 0010 00000000 		.word	SystemCoreClock
 2098              		.cfi_endproc
 2099              	.LFE79:
 2101              		.section	.text.HAL_RCC_GetPCLK1Freq,"ax",%progbits
 2102              		.align	1
 2103              		.global	HAL_RCC_GetPCLK1Freq
 2104              		.syntax unified
 2105              		.thumb
 2106              		.thumb_func
 2108              	HAL_RCC_GetPCLK1Freq:
 2109              	.LFB80:
1143:Drivers/STM32L1xx_HAL_Driver/Src/stm32l1xx_hal_rcc.c **** 
1144:Drivers/STM32L1xx_HAL_Driver/Src/stm32l1xx_hal_rcc.c **** /**
1145:Drivers/STM32L1xx_HAL_Driver/Src/stm32l1xx_hal_rcc.c ****   * @brief  Returns the PCLK1 frequency
1146:Drivers/STM32L1xx_HAL_Driver/Src/stm32l1xx_hal_rcc.c ****   * @note   Each time PCLK1 changes, this function must be called to update the
1147:Drivers/STM32L1xx_HAL_Driver/Src/stm32l1xx_hal_rcc.c ****   *         right PCLK1 value. Otherwise, any configuration based on this function will be incorrec
1148:Drivers/STM32L1xx_HAL_Driver/Src/stm32l1xx_hal_rcc.c ****   * @retval PCLK1 frequency
1149:Drivers/STM32L1xx_HAL_Driver/Src/stm32l1xx_hal_rcc.c ****   */
1150:Drivers/STM32L1xx_HAL_Driver/Src/stm32l1xx_hal_rcc.c **** uint32_t HAL_RCC_GetPCLK1Freq(void)
1151:Drivers/STM32L1xx_HAL_Driver/Src/stm32l1xx_hal_rcc.c **** {
 2110              		.loc 1 1151 1
 2111              		.cfi_startproc
 2112              		@ args = 0, pretend = 0, frame = 0
 2113              		@ frame_needed = 1, uses_anonymous_args = 0
 2114 0000 80B5     		push	{r7, lr}
 2115              		.cfi_def_cfa_offset 8
 2116              		.cfi_offset 7, -8
 2117              		.cfi_offset 14, -4
 2118 0002 00AF     		add	r7, sp, #0
 2119              		.cfi_def_cfa_register 7
1152:Drivers/STM32L1xx_HAL_Driver/Src/stm32l1xx_hal_rcc.c ****   /* Get HCLK source and Compute PCLK1 frequency ---------------------------*/
1153:Drivers/STM32L1xx_HAL_Driver/Src/stm32l1xx_hal_rcc.c ****   return (HAL_RCC_GetHCLKFreq() >> APBPrescTable[(RCC->CFGR & RCC_CFGR_PPRE1) >> RCC_CFGR_PPRE1_Pos
 2120              		.loc 1 1153 11
 2121 0004 FFF7FEFF 		bl	HAL_RCC_GetHCLKFreq
 2122 0008 0246     		mov	r2, r0
 2123              		.loc 1 1153 54
ARM GAS  C:\Users\SOLDER~1\AppData\Local\Temp\cc1DKCam.s 			page 59


 2124 000a 054B     		ldr	r3, .L141
 2125 000c 9B68     		ldr	r3, [r3, #8]
 2126              		.loc 1 1153 79
 2127 000e 1B0A     		lsrs	r3, r3, #8
 2128 0010 03F00703 		and	r3, r3, #7
 2129              		.loc 1 1153 49
 2130 0014 0349     		ldr	r1, .L141+4
 2131 0016 CB5C     		ldrb	r3, [r1, r3]	@ zero_extendqisi2
 2132              		.loc 1 1153 33
 2133 0018 22FA03F3 		lsr	r3, r2, r3
1154:Drivers/STM32L1xx_HAL_Driver/Src/stm32l1xx_hal_rcc.c **** }
 2134              		.loc 1 1154 1
 2135 001c 1846     		mov	r0, r3
 2136 001e 80BD     		pop	{r7, pc}
 2137              	.L142:
 2138              		.align	2
 2139              	.L141:
 2140 0020 00380240 		.word	1073887232
 2141 0024 00000000 		.word	APBPrescTable
 2142              		.cfi_endproc
 2143              	.LFE80:
 2145              		.section	.text.HAL_RCC_GetPCLK2Freq,"ax",%progbits
 2146              		.align	1
 2147              		.global	HAL_RCC_GetPCLK2Freq
 2148              		.syntax unified
 2149              		.thumb
 2150              		.thumb_func
 2152              	HAL_RCC_GetPCLK2Freq:
 2153              	.LFB81:
1155:Drivers/STM32L1xx_HAL_Driver/Src/stm32l1xx_hal_rcc.c **** 
1156:Drivers/STM32L1xx_HAL_Driver/Src/stm32l1xx_hal_rcc.c **** /**
1157:Drivers/STM32L1xx_HAL_Driver/Src/stm32l1xx_hal_rcc.c ****   * @brief  Returns the PCLK2 frequency
1158:Drivers/STM32L1xx_HAL_Driver/Src/stm32l1xx_hal_rcc.c ****   * @note   Each time PCLK2 changes, this function must be called to update the
1159:Drivers/STM32L1xx_HAL_Driver/Src/stm32l1xx_hal_rcc.c ****   *         right PCLK2 value. Otherwise, any configuration based on this function will be incorrec
1160:Drivers/STM32L1xx_HAL_Driver/Src/stm32l1xx_hal_rcc.c ****   * @retval PCLK2 frequency
1161:Drivers/STM32L1xx_HAL_Driver/Src/stm32l1xx_hal_rcc.c ****   */
1162:Drivers/STM32L1xx_HAL_Driver/Src/stm32l1xx_hal_rcc.c **** uint32_t HAL_RCC_GetPCLK2Freq(void)
1163:Drivers/STM32L1xx_HAL_Driver/Src/stm32l1xx_hal_rcc.c **** {
 2154              		.loc 1 1163 1
 2155              		.cfi_startproc
 2156              		@ args = 0, pretend = 0, frame = 0
 2157              		@ frame_needed = 1, uses_anonymous_args = 0
 2158 0000 80B5     		push	{r7, lr}
 2159              		.cfi_def_cfa_offset 8
 2160              		.cfi_offset 7, -8
 2161              		.cfi_offset 14, -4
 2162 0002 00AF     		add	r7, sp, #0
 2163              		.cfi_def_cfa_register 7
1164:Drivers/STM32L1xx_HAL_Driver/Src/stm32l1xx_hal_rcc.c ****   /* Get HCLK source and Compute PCLK2 frequency ---------------------------*/
1165:Drivers/STM32L1xx_HAL_Driver/Src/stm32l1xx_hal_rcc.c ****   return (HAL_RCC_GetHCLKFreq()>> APBPrescTable[(RCC->CFGR & RCC_CFGR_PPRE2) >> RCC_CFGR_PPRE2_Pos]
 2164              		.loc 1 1165 11
 2165 0004 FFF7FEFF 		bl	HAL_RCC_GetHCLKFreq
 2166 0008 0246     		mov	r2, r0
 2167              		.loc 1 1165 53
 2168 000a 054B     		ldr	r3, .L145
 2169 000c 9B68     		ldr	r3, [r3, #8]
 2170              		.loc 1 1165 78
ARM GAS  C:\Users\SOLDER~1\AppData\Local\Temp\cc1DKCam.s 			page 60


 2171 000e DB0A     		lsrs	r3, r3, #11
 2172 0010 03F00703 		and	r3, r3, #7
 2173              		.loc 1 1165 48
 2174 0014 0349     		ldr	r1, .L145+4
 2175 0016 CB5C     		ldrb	r3, [r1, r3]	@ zero_extendqisi2
 2176              		.loc 1 1165 32
 2177 0018 22FA03F3 		lsr	r3, r2, r3
1166:Drivers/STM32L1xx_HAL_Driver/Src/stm32l1xx_hal_rcc.c **** }
 2178              		.loc 1 1166 1
 2179 001c 1846     		mov	r0, r3
 2180 001e 80BD     		pop	{r7, pc}
 2181              	.L146:
 2182              		.align	2
 2183              	.L145:
 2184 0020 00380240 		.word	1073887232
 2185 0024 00000000 		.word	APBPrescTable
 2186              		.cfi_endproc
 2187              	.LFE81:
 2189              		.section	.text.HAL_RCC_GetOscConfig,"ax",%progbits
 2190              		.align	1
 2191              		.global	HAL_RCC_GetOscConfig
 2192              		.syntax unified
 2193              		.thumb
 2194              		.thumb_func
 2196              	HAL_RCC_GetOscConfig:
 2197              	.LFB82:
1167:Drivers/STM32L1xx_HAL_Driver/Src/stm32l1xx_hal_rcc.c **** 
1168:Drivers/STM32L1xx_HAL_Driver/Src/stm32l1xx_hal_rcc.c **** /**
1169:Drivers/STM32L1xx_HAL_Driver/Src/stm32l1xx_hal_rcc.c ****   * @brief  Configures the RCC_OscInitStruct according to the internal
1170:Drivers/STM32L1xx_HAL_Driver/Src/stm32l1xx_hal_rcc.c ****   * RCC configuration registers.
1171:Drivers/STM32L1xx_HAL_Driver/Src/stm32l1xx_hal_rcc.c ****   * @param  RCC_OscInitStruct pointer to an RCC_OscInitTypeDef structure that
1172:Drivers/STM32L1xx_HAL_Driver/Src/stm32l1xx_hal_rcc.c ****   * will be configured.
1173:Drivers/STM32L1xx_HAL_Driver/Src/stm32l1xx_hal_rcc.c ****   * @retval None
1174:Drivers/STM32L1xx_HAL_Driver/Src/stm32l1xx_hal_rcc.c ****   */
1175:Drivers/STM32L1xx_HAL_Driver/Src/stm32l1xx_hal_rcc.c **** void HAL_RCC_GetOscConfig(RCC_OscInitTypeDef  *RCC_OscInitStruct)
1176:Drivers/STM32L1xx_HAL_Driver/Src/stm32l1xx_hal_rcc.c **** {
 2198              		.loc 1 1176 1
 2199              		.cfi_startproc
 2200              		@ args = 0, pretend = 0, frame = 8
 2201              		@ frame_needed = 1, uses_anonymous_args = 0
 2202              		@ link register save eliminated.
 2203 0000 80B4     		push	{r7}
 2204              		.cfi_def_cfa_offset 4
 2205              		.cfi_offset 7, -4
 2206 0002 83B0     		sub	sp, sp, #12
 2207              		.cfi_def_cfa_offset 16
 2208 0004 00AF     		add	r7, sp, #0
 2209              		.cfi_def_cfa_register 7
 2210 0006 7860     		str	r0, [r7, #4]
1177:Drivers/STM32L1xx_HAL_Driver/Src/stm32l1xx_hal_rcc.c ****   /* Check the parameters */
1178:Drivers/STM32L1xx_HAL_Driver/Src/stm32l1xx_hal_rcc.c ****   assert_param(RCC_OscInitStruct != (void *)NULL);
1179:Drivers/STM32L1xx_HAL_Driver/Src/stm32l1xx_hal_rcc.c **** 
1180:Drivers/STM32L1xx_HAL_Driver/Src/stm32l1xx_hal_rcc.c ****   /* Set all possible values for the Oscillator type parameter ---------------*/
1181:Drivers/STM32L1xx_HAL_Driver/Src/stm32l1xx_hal_rcc.c ****   RCC_OscInitStruct->OscillatorType = RCC_OSCILLATORTYPE_HSE | RCC_OSCILLATORTYPE_HSI  \
 2211              		.loc 1 1181 37
 2212 0008 7B68     		ldr	r3, [r7, #4]
 2213 000a 1F22     		movs	r2, #31
ARM GAS  C:\Users\SOLDER~1\AppData\Local\Temp\cc1DKCam.s 			page 61


 2214 000c 1A60     		str	r2, [r3]
1182:Drivers/STM32L1xx_HAL_Driver/Src/stm32l1xx_hal_rcc.c ****                   | RCC_OSCILLATORTYPE_LSE | RCC_OSCILLATORTYPE_LSI | RCC_OSCILLATORTYPE_MSI;
1183:Drivers/STM32L1xx_HAL_Driver/Src/stm32l1xx_hal_rcc.c **** 
1184:Drivers/STM32L1xx_HAL_Driver/Src/stm32l1xx_hal_rcc.c **** 
1185:Drivers/STM32L1xx_HAL_Driver/Src/stm32l1xx_hal_rcc.c ****   /* Get the HSE configuration -----------------------------------------------*/
1186:Drivers/STM32L1xx_HAL_Driver/Src/stm32l1xx_hal_rcc.c ****   if((RCC->CR &RCC_CR_HSEBYP) == RCC_CR_HSEBYP)
 2215              		.loc 1 1186 10
 2216 000e 494B     		ldr	r3, .L162
 2217 0010 1B68     		ldr	r3, [r3]
 2218              		.loc 1 1186 15
 2219 0012 03F48023 		and	r3, r3, #262144
 2220              		.loc 1 1186 5
 2221 0016 B3F5802F 		cmp	r3, #262144
 2222 001a 03D1     		bne	.L148
1187:Drivers/STM32L1xx_HAL_Driver/Src/stm32l1xx_hal_rcc.c ****   {
1188:Drivers/STM32L1xx_HAL_Driver/Src/stm32l1xx_hal_rcc.c ****     RCC_OscInitStruct->HSEState = RCC_HSE_BYPASS;
 2223              		.loc 1 1188 33
 2224 001c 7B68     		ldr	r3, [r7, #4]
 2225 001e 0522     		movs	r2, #5
 2226 0020 5A60     		str	r2, [r3, #4]
 2227 0022 0DE0     		b	.L149
 2228              	.L148:
1189:Drivers/STM32L1xx_HAL_Driver/Src/stm32l1xx_hal_rcc.c ****   }
1190:Drivers/STM32L1xx_HAL_Driver/Src/stm32l1xx_hal_rcc.c ****   else if((RCC->CR &RCC_CR_HSEON) == RCC_CR_HSEON)
 2229              		.loc 1 1190 15
 2230 0024 434B     		ldr	r3, .L162
 2231 0026 1B68     		ldr	r3, [r3]
 2232              		.loc 1 1190 20
 2233 0028 03F48033 		and	r3, r3, #65536
 2234              		.loc 1 1190 10
 2235 002c B3F5803F 		cmp	r3, #65536
 2236 0030 03D1     		bne	.L150
1191:Drivers/STM32L1xx_HAL_Driver/Src/stm32l1xx_hal_rcc.c ****   {
1192:Drivers/STM32L1xx_HAL_Driver/Src/stm32l1xx_hal_rcc.c ****     RCC_OscInitStruct->HSEState = RCC_HSE_ON;
 2237              		.loc 1 1192 33
 2238 0032 7B68     		ldr	r3, [r7, #4]
 2239 0034 0122     		movs	r2, #1
 2240 0036 5A60     		str	r2, [r3, #4]
 2241 0038 02E0     		b	.L149
 2242              	.L150:
1193:Drivers/STM32L1xx_HAL_Driver/Src/stm32l1xx_hal_rcc.c ****   }
1194:Drivers/STM32L1xx_HAL_Driver/Src/stm32l1xx_hal_rcc.c ****   else
1195:Drivers/STM32L1xx_HAL_Driver/Src/stm32l1xx_hal_rcc.c ****   {
1196:Drivers/STM32L1xx_HAL_Driver/Src/stm32l1xx_hal_rcc.c ****     RCC_OscInitStruct->HSEState = RCC_HSE_OFF;
 2243              		.loc 1 1196 33
 2244 003a 7B68     		ldr	r3, [r7, #4]
 2245 003c 0022     		movs	r2, #0
 2246 003e 5A60     		str	r2, [r3, #4]
 2247              	.L149:
1197:Drivers/STM32L1xx_HAL_Driver/Src/stm32l1xx_hal_rcc.c ****   }
1198:Drivers/STM32L1xx_HAL_Driver/Src/stm32l1xx_hal_rcc.c **** 
1199:Drivers/STM32L1xx_HAL_Driver/Src/stm32l1xx_hal_rcc.c ****   /* Get the HSI configuration -----------------------------------------------*/
1200:Drivers/STM32L1xx_HAL_Driver/Src/stm32l1xx_hal_rcc.c ****   if((RCC->CR &RCC_CR_HSION) == RCC_CR_HSION)
 2248              		.loc 1 1200 10
 2249 0040 3C4B     		ldr	r3, .L162
 2250 0042 1B68     		ldr	r3, [r3]
 2251              		.loc 1 1200 15
ARM GAS  C:\Users\SOLDER~1\AppData\Local\Temp\cc1DKCam.s 			page 62


 2252 0044 03F00103 		and	r3, r3, #1
 2253              		.loc 1 1200 5
 2254 0048 012B     		cmp	r3, #1
 2255 004a 03D1     		bne	.L151
1201:Drivers/STM32L1xx_HAL_Driver/Src/stm32l1xx_hal_rcc.c ****   {
1202:Drivers/STM32L1xx_HAL_Driver/Src/stm32l1xx_hal_rcc.c ****     RCC_OscInitStruct->HSIState = RCC_HSI_ON;
 2256              		.loc 1 1202 33
 2257 004c 7B68     		ldr	r3, [r7, #4]
 2258 004e 0122     		movs	r2, #1
 2259 0050 DA60     		str	r2, [r3, #12]
 2260 0052 02E0     		b	.L152
 2261              	.L151:
1203:Drivers/STM32L1xx_HAL_Driver/Src/stm32l1xx_hal_rcc.c ****   }
1204:Drivers/STM32L1xx_HAL_Driver/Src/stm32l1xx_hal_rcc.c ****   else
1205:Drivers/STM32L1xx_HAL_Driver/Src/stm32l1xx_hal_rcc.c ****   {
1206:Drivers/STM32L1xx_HAL_Driver/Src/stm32l1xx_hal_rcc.c ****     RCC_OscInitStruct->HSIState = RCC_HSI_OFF;
 2262              		.loc 1 1206 33
 2263 0054 7B68     		ldr	r3, [r7, #4]
 2264 0056 0022     		movs	r2, #0
 2265 0058 DA60     		str	r2, [r3, #12]
 2266              	.L152:
1207:Drivers/STM32L1xx_HAL_Driver/Src/stm32l1xx_hal_rcc.c ****   }
1208:Drivers/STM32L1xx_HAL_Driver/Src/stm32l1xx_hal_rcc.c **** 
1209:Drivers/STM32L1xx_HAL_Driver/Src/stm32l1xx_hal_rcc.c ****   RCC_OscInitStruct->HSICalibrationValue = (uint32_t)((RCC->ICSCR & RCC_ICSCR_HSITRIM) >> RCC_ICSCR
 2267              		.loc 1 1209 59
 2268 005a 364B     		ldr	r3, .L162
 2269 005c 5B68     		ldr	r3, [r3, #4]
 2270              		.loc 1 1209 44
 2271 005e 1B0A     		lsrs	r3, r3, #8
 2272 0060 03F01F02 		and	r2, r3, #31
 2273              		.loc 1 1209 42
 2274 0064 7B68     		ldr	r3, [r7, #4]
 2275 0066 1A61     		str	r2, [r3, #16]
1210:Drivers/STM32L1xx_HAL_Driver/Src/stm32l1xx_hal_rcc.c **** 
1211:Drivers/STM32L1xx_HAL_Driver/Src/stm32l1xx_hal_rcc.c ****   /* Get the MSI configuration -----------------------------------------------*/
1212:Drivers/STM32L1xx_HAL_Driver/Src/stm32l1xx_hal_rcc.c ****   if((RCC->CR &RCC_CR_MSION) == RCC_CR_MSION)
 2276              		.loc 1 1212 10
 2277 0068 324B     		ldr	r3, .L162
 2278 006a 1B68     		ldr	r3, [r3]
 2279              		.loc 1 1212 15
 2280 006c 03F48073 		and	r3, r3, #256
 2281              		.loc 1 1212 5
 2282 0070 B3F5807F 		cmp	r3, #256
 2283 0074 03D1     		bne	.L153
1213:Drivers/STM32L1xx_HAL_Driver/Src/stm32l1xx_hal_rcc.c ****   {
1214:Drivers/STM32L1xx_HAL_Driver/Src/stm32l1xx_hal_rcc.c ****     RCC_OscInitStruct->MSIState = RCC_MSI_ON;
 2284              		.loc 1 1214 33
 2285 0076 7B68     		ldr	r3, [r7, #4]
 2286 0078 0122     		movs	r2, #1
 2287 007a 9A61     		str	r2, [r3, #24]
 2288 007c 02E0     		b	.L154
 2289              	.L153:
1215:Drivers/STM32L1xx_HAL_Driver/Src/stm32l1xx_hal_rcc.c ****   }
1216:Drivers/STM32L1xx_HAL_Driver/Src/stm32l1xx_hal_rcc.c ****   else
1217:Drivers/STM32L1xx_HAL_Driver/Src/stm32l1xx_hal_rcc.c ****   {
1218:Drivers/STM32L1xx_HAL_Driver/Src/stm32l1xx_hal_rcc.c ****     RCC_OscInitStruct->MSIState = RCC_MSI_OFF;
 2290              		.loc 1 1218 33
ARM GAS  C:\Users\SOLDER~1\AppData\Local\Temp\cc1DKCam.s 			page 63


 2291 007e 7B68     		ldr	r3, [r7, #4]
 2292 0080 0022     		movs	r2, #0
 2293 0082 9A61     		str	r2, [r3, #24]
 2294              	.L154:
1219:Drivers/STM32L1xx_HAL_Driver/Src/stm32l1xx_hal_rcc.c ****   }
1220:Drivers/STM32L1xx_HAL_Driver/Src/stm32l1xx_hal_rcc.c **** 
1221:Drivers/STM32L1xx_HAL_Driver/Src/stm32l1xx_hal_rcc.c ****   RCC_OscInitStruct->MSICalibrationValue = (uint32_t)((RCC->ICSCR & RCC_ICSCR_MSITRIM) >> RCC_ICSCR
 2295              		.loc 1 1221 59
 2296 0084 2B4B     		ldr	r3, .L162
 2297 0086 5B68     		ldr	r3, [r3, #4]
 2298              		.loc 1 1221 44
 2299 0088 1B0E     		lsrs	r3, r3, #24
 2300 008a DAB2     		uxtb	r2, r3
 2301              		.loc 1 1221 42
 2302 008c 7B68     		ldr	r3, [r7, #4]
 2303 008e DA61     		str	r2, [r3, #28]
1222:Drivers/STM32L1xx_HAL_Driver/Src/stm32l1xx_hal_rcc.c ****   RCC_OscInitStruct->MSIClockRange = (uint32_t)((RCC->ICSCR & RCC_ICSCR_MSIRANGE));
 2304              		.loc 1 1222 53
 2305 0090 284B     		ldr	r3, .L162
 2306 0092 5B68     		ldr	r3, [r3, #4]
 2307              		.loc 1 1222 38
 2308 0094 03F46042 		and	r2, r3, #57344
 2309              		.loc 1 1222 36
 2310 0098 7B68     		ldr	r3, [r7, #4]
 2311 009a 1A62     		str	r2, [r3, #32]
1223:Drivers/STM32L1xx_HAL_Driver/Src/stm32l1xx_hal_rcc.c **** 
1224:Drivers/STM32L1xx_HAL_Driver/Src/stm32l1xx_hal_rcc.c ****   /* Get the LSE configuration -----------------------------------------------*/
1225:Drivers/STM32L1xx_HAL_Driver/Src/stm32l1xx_hal_rcc.c ****   if((RCC->CSR &RCC_CSR_LSEBYP) == RCC_CSR_LSEBYP)
 2312              		.loc 1 1225 10
 2313 009c 254B     		ldr	r3, .L162
 2314 009e 5B6B     		ldr	r3, [r3, #52]
 2315              		.loc 1 1225 16
 2316 00a0 03F48063 		and	r3, r3, #1024
 2317              		.loc 1 1225 5
 2318 00a4 B3F5806F 		cmp	r3, #1024
 2319 00a8 03D1     		bne	.L155
1226:Drivers/STM32L1xx_HAL_Driver/Src/stm32l1xx_hal_rcc.c ****   {
1227:Drivers/STM32L1xx_HAL_Driver/Src/stm32l1xx_hal_rcc.c ****     RCC_OscInitStruct->LSEState = RCC_LSE_BYPASS;
 2320              		.loc 1 1227 33
 2321 00aa 7B68     		ldr	r3, [r7, #4]
 2322 00ac 0522     		movs	r2, #5
 2323 00ae 9A60     		str	r2, [r3, #8]
 2324 00b0 0DE0     		b	.L156
 2325              	.L155:
1228:Drivers/STM32L1xx_HAL_Driver/Src/stm32l1xx_hal_rcc.c ****   }
1229:Drivers/STM32L1xx_HAL_Driver/Src/stm32l1xx_hal_rcc.c ****   else if((RCC->CSR &RCC_CSR_LSEON) == RCC_CSR_LSEON)
 2326              		.loc 1 1229 15
 2327 00b2 204B     		ldr	r3, .L162
 2328 00b4 5B6B     		ldr	r3, [r3, #52]
 2329              		.loc 1 1229 21
 2330 00b6 03F48073 		and	r3, r3, #256
 2331              		.loc 1 1229 10
 2332 00ba B3F5807F 		cmp	r3, #256
 2333 00be 03D1     		bne	.L157
1230:Drivers/STM32L1xx_HAL_Driver/Src/stm32l1xx_hal_rcc.c ****   {
1231:Drivers/STM32L1xx_HAL_Driver/Src/stm32l1xx_hal_rcc.c ****     RCC_OscInitStruct->LSEState = RCC_LSE_ON;
 2334              		.loc 1 1231 33
ARM GAS  C:\Users\SOLDER~1\AppData\Local\Temp\cc1DKCam.s 			page 64


 2335 00c0 7B68     		ldr	r3, [r7, #4]
 2336 00c2 0122     		movs	r2, #1
 2337 00c4 9A60     		str	r2, [r3, #8]
 2338 00c6 02E0     		b	.L156
 2339              	.L157:
1232:Drivers/STM32L1xx_HAL_Driver/Src/stm32l1xx_hal_rcc.c ****   }
1233:Drivers/STM32L1xx_HAL_Driver/Src/stm32l1xx_hal_rcc.c ****   else
1234:Drivers/STM32L1xx_HAL_Driver/Src/stm32l1xx_hal_rcc.c ****   {
1235:Drivers/STM32L1xx_HAL_Driver/Src/stm32l1xx_hal_rcc.c ****     RCC_OscInitStruct->LSEState = RCC_LSE_OFF;
 2340              		.loc 1 1235 33
 2341 00c8 7B68     		ldr	r3, [r7, #4]
 2342 00ca 0022     		movs	r2, #0
 2343 00cc 9A60     		str	r2, [r3, #8]
 2344              	.L156:
1236:Drivers/STM32L1xx_HAL_Driver/Src/stm32l1xx_hal_rcc.c ****   }
1237:Drivers/STM32L1xx_HAL_Driver/Src/stm32l1xx_hal_rcc.c **** 
1238:Drivers/STM32L1xx_HAL_Driver/Src/stm32l1xx_hal_rcc.c ****   /* Get the LSI configuration -----------------------------------------------*/
1239:Drivers/STM32L1xx_HAL_Driver/Src/stm32l1xx_hal_rcc.c ****   if((RCC->CSR &RCC_CSR_LSION) == RCC_CSR_LSION)
 2345              		.loc 1 1239 10
 2346 00ce 194B     		ldr	r3, .L162
 2347 00d0 5B6B     		ldr	r3, [r3, #52]
 2348              		.loc 1 1239 16
 2349 00d2 03F00103 		and	r3, r3, #1
 2350              		.loc 1 1239 5
 2351 00d6 012B     		cmp	r3, #1
 2352 00d8 03D1     		bne	.L158
1240:Drivers/STM32L1xx_HAL_Driver/Src/stm32l1xx_hal_rcc.c ****   {
1241:Drivers/STM32L1xx_HAL_Driver/Src/stm32l1xx_hal_rcc.c ****     RCC_OscInitStruct->LSIState = RCC_LSI_ON;
 2353              		.loc 1 1241 33
 2354 00da 7B68     		ldr	r3, [r7, #4]
 2355 00dc 0122     		movs	r2, #1
 2356 00de 5A61     		str	r2, [r3, #20]
 2357 00e0 02E0     		b	.L159
 2358              	.L158:
1242:Drivers/STM32L1xx_HAL_Driver/Src/stm32l1xx_hal_rcc.c ****   }
1243:Drivers/STM32L1xx_HAL_Driver/Src/stm32l1xx_hal_rcc.c ****   else
1244:Drivers/STM32L1xx_HAL_Driver/Src/stm32l1xx_hal_rcc.c ****   {
1245:Drivers/STM32L1xx_HAL_Driver/Src/stm32l1xx_hal_rcc.c ****     RCC_OscInitStruct->LSIState = RCC_LSI_OFF;
 2359              		.loc 1 1245 33
 2360 00e2 7B68     		ldr	r3, [r7, #4]
 2361 00e4 0022     		movs	r2, #0
 2362 00e6 5A61     		str	r2, [r3, #20]
 2363              	.L159:
1246:Drivers/STM32L1xx_HAL_Driver/Src/stm32l1xx_hal_rcc.c ****   }
1247:Drivers/STM32L1xx_HAL_Driver/Src/stm32l1xx_hal_rcc.c **** 
1248:Drivers/STM32L1xx_HAL_Driver/Src/stm32l1xx_hal_rcc.c **** 
1249:Drivers/STM32L1xx_HAL_Driver/Src/stm32l1xx_hal_rcc.c ****   /* Get the PLL configuration -----------------------------------------------*/
1250:Drivers/STM32L1xx_HAL_Driver/Src/stm32l1xx_hal_rcc.c ****   if((RCC->CR &RCC_CR_PLLON) == RCC_CR_PLLON)
 2364              		.loc 1 1250 10
 2365 00e8 124B     		ldr	r3, .L162
 2366 00ea 1B68     		ldr	r3, [r3]
 2367              		.loc 1 1250 15
 2368 00ec 03F08073 		and	r3, r3, #16777216
 2369              		.loc 1 1250 5
 2370 00f0 B3F1807F 		cmp	r3, #16777216
 2371 00f4 03D1     		bne	.L160
1251:Drivers/STM32L1xx_HAL_Driver/Src/stm32l1xx_hal_rcc.c ****   {
ARM GAS  C:\Users\SOLDER~1\AppData\Local\Temp\cc1DKCam.s 			page 65


1252:Drivers/STM32L1xx_HAL_Driver/Src/stm32l1xx_hal_rcc.c ****     RCC_OscInitStruct->PLL.PLLState = RCC_PLL_ON;
 2372              		.loc 1 1252 37
 2373 00f6 7B68     		ldr	r3, [r7, #4]
 2374 00f8 0222     		movs	r2, #2
 2375 00fa 5A62     		str	r2, [r3, #36]
 2376 00fc 02E0     		b	.L161
 2377              	.L160:
1253:Drivers/STM32L1xx_HAL_Driver/Src/stm32l1xx_hal_rcc.c ****   }
1254:Drivers/STM32L1xx_HAL_Driver/Src/stm32l1xx_hal_rcc.c ****   else
1255:Drivers/STM32L1xx_HAL_Driver/Src/stm32l1xx_hal_rcc.c ****   {
1256:Drivers/STM32L1xx_HAL_Driver/Src/stm32l1xx_hal_rcc.c ****     RCC_OscInitStruct->PLL.PLLState = RCC_PLL_OFF;
 2378              		.loc 1 1256 37
 2379 00fe 7B68     		ldr	r3, [r7, #4]
 2380 0100 0122     		movs	r2, #1
 2381 0102 5A62     		str	r2, [r3, #36]
 2382              	.L161:
1257:Drivers/STM32L1xx_HAL_Driver/Src/stm32l1xx_hal_rcc.c ****   }
1258:Drivers/STM32L1xx_HAL_Driver/Src/stm32l1xx_hal_rcc.c ****   RCC_OscInitStruct->PLL.PLLSource = (uint32_t)(RCC->CFGR & RCC_CFGR_PLLSRC);
 2383              		.loc 1 1258 52
 2384 0104 0B4B     		ldr	r3, .L162
 2385 0106 9B68     		ldr	r3, [r3, #8]
 2386              		.loc 1 1258 38
 2387 0108 03F48032 		and	r2, r3, #65536
 2388              		.loc 1 1258 36
 2389 010c 7B68     		ldr	r3, [r7, #4]
 2390 010e 9A62     		str	r2, [r3, #40]
1259:Drivers/STM32L1xx_HAL_Driver/Src/stm32l1xx_hal_rcc.c ****   RCC_OscInitStruct->PLL.PLLMUL = (uint32_t)(RCC->CFGR & RCC_CFGR_PLLMUL);
 2391              		.loc 1 1259 49
 2392 0110 084B     		ldr	r3, .L162
 2393 0112 9B68     		ldr	r3, [r3, #8]
 2394              		.loc 1 1259 35
 2395 0114 03F47012 		and	r2, r3, #3932160
 2396              		.loc 1 1259 33
 2397 0118 7B68     		ldr	r3, [r7, #4]
 2398 011a DA62     		str	r2, [r3, #44]
1260:Drivers/STM32L1xx_HAL_Driver/Src/stm32l1xx_hal_rcc.c ****   RCC_OscInitStruct->PLL.PLLDIV = (uint32_t)(RCC->CFGR & RCC_CFGR_PLLDIV);
 2399              		.loc 1 1260 49
 2400 011c 054B     		ldr	r3, .L162
 2401 011e 9B68     		ldr	r3, [r3, #8]
 2402              		.loc 1 1260 35
 2403 0120 03F44002 		and	r2, r3, #12582912
 2404              		.loc 1 1260 33
 2405 0124 7B68     		ldr	r3, [r7, #4]
 2406 0126 1A63     		str	r2, [r3, #48]
1261:Drivers/STM32L1xx_HAL_Driver/Src/stm32l1xx_hal_rcc.c **** }
 2407              		.loc 1 1261 1
 2408 0128 00BF     		nop
 2409 012a 0C37     		adds	r7, r7, #12
 2410              		.cfi_def_cfa_offset 4
 2411 012c BD46     		mov	sp, r7
 2412              		.cfi_def_cfa_register 13
 2413              		@ sp needed
 2414 012e 80BC     		pop	{r7}
 2415              		.cfi_restore 7
 2416              		.cfi_def_cfa_offset 0
 2417 0130 7047     		bx	lr
 2418              	.L163:
ARM GAS  C:\Users\SOLDER~1\AppData\Local\Temp\cc1DKCam.s 			page 66


 2419 0132 00BF     		.align	2
 2420              	.L162:
 2421 0134 00380240 		.word	1073887232
 2422              		.cfi_endproc
 2423              	.LFE82:
 2425              		.section	.text.HAL_RCC_GetClockConfig,"ax",%progbits
 2426              		.align	1
 2427              		.global	HAL_RCC_GetClockConfig
 2428              		.syntax unified
 2429              		.thumb
 2430              		.thumb_func
 2432              	HAL_RCC_GetClockConfig:
 2433              	.LFB83:
1262:Drivers/STM32L1xx_HAL_Driver/Src/stm32l1xx_hal_rcc.c **** 
1263:Drivers/STM32L1xx_HAL_Driver/Src/stm32l1xx_hal_rcc.c **** /**
1264:Drivers/STM32L1xx_HAL_Driver/Src/stm32l1xx_hal_rcc.c ****   * @brief  Get the RCC_ClkInitStruct according to the internal
1265:Drivers/STM32L1xx_HAL_Driver/Src/stm32l1xx_hal_rcc.c ****   * RCC configuration registers.
1266:Drivers/STM32L1xx_HAL_Driver/Src/stm32l1xx_hal_rcc.c ****   * @param  RCC_ClkInitStruct pointer to an RCC_ClkInitTypeDef structure that
1267:Drivers/STM32L1xx_HAL_Driver/Src/stm32l1xx_hal_rcc.c ****   * contains the current clock configuration.
1268:Drivers/STM32L1xx_HAL_Driver/Src/stm32l1xx_hal_rcc.c ****   * @param  pFLatency Pointer on the Flash Latency.
1269:Drivers/STM32L1xx_HAL_Driver/Src/stm32l1xx_hal_rcc.c ****   * @retval None
1270:Drivers/STM32L1xx_HAL_Driver/Src/stm32l1xx_hal_rcc.c ****   */
1271:Drivers/STM32L1xx_HAL_Driver/Src/stm32l1xx_hal_rcc.c **** void HAL_RCC_GetClockConfig(RCC_ClkInitTypeDef  *RCC_ClkInitStruct, uint32_t *pFLatency)
1272:Drivers/STM32L1xx_HAL_Driver/Src/stm32l1xx_hal_rcc.c **** {
 2434              		.loc 1 1272 1
 2435              		.cfi_startproc
 2436              		@ args = 0, pretend = 0, frame = 8
 2437              		@ frame_needed = 1, uses_anonymous_args = 0
 2438              		@ link register save eliminated.
 2439 0000 80B4     		push	{r7}
 2440              		.cfi_def_cfa_offset 4
 2441              		.cfi_offset 7, -4
 2442 0002 83B0     		sub	sp, sp, #12
 2443              		.cfi_def_cfa_offset 16
 2444 0004 00AF     		add	r7, sp, #0
 2445              		.cfi_def_cfa_register 7
 2446 0006 7860     		str	r0, [r7, #4]
 2447 0008 3960     		str	r1, [r7]
1273:Drivers/STM32L1xx_HAL_Driver/Src/stm32l1xx_hal_rcc.c ****   /* Check the parameters */
1274:Drivers/STM32L1xx_HAL_Driver/Src/stm32l1xx_hal_rcc.c ****   assert_param(RCC_ClkInitStruct != (void *)NULL);
1275:Drivers/STM32L1xx_HAL_Driver/Src/stm32l1xx_hal_rcc.c ****   assert_param(pFLatency != (void *)NULL);
1276:Drivers/STM32L1xx_HAL_Driver/Src/stm32l1xx_hal_rcc.c **** 
1277:Drivers/STM32L1xx_HAL_Driver/Src/stm32l1xx_hal_rcc.c ****   /* Set all possible values for the Clock type parameter --------------------*/
1278:Drivers/STM32L1xx_HAL_Driver/Src/stm32l1xx_hal_rcc.c ****   RCC_ClkInitStruct->ClockType = RCC_CLOCKTYPE_SYSCLK | RCC_CLOCKTYPE_HCLK | RCC_CLOCKTYPE_PCLK1 | 
 2448              		.loc 1 1278 32
 2449 000a 7B68     		ldr	r3, [r7, #4]
 2450 000c 0F22     		movs	r2, #15
 2451 000e 1A60     		str	r2, [r3]
1279:Drivers/STM32L1xx_HAL_Driver/Src/stm32l1xx_hal_rcc.c **** 
1280:Drivers/STM32L1xx_HAL_Driver/Src/stm32l1xx_hal_rcc.c ****   /* Get the SYSCLK configuration --------------------------------------------*/
1281:Drivers/STM32L1xx_HAL_Driver/Src/stm32l1xx_hal_rcc.c ****   RCC_ClkInitStruct->SYSCLKSource = (uint32_t)(RCC->CFGR & RCC_CFGR_SW);
 2452              		.loc 1 1281 51
 2453 0010 114B     		ldr	r3, .L165
 2454 0012 9B68     		ldr	r3, [r3, #8]
 2455              		.loc 1 1281 37
 2456 0014 03F00302 		and	r2, r3, #3
 2457              		.loc 1 1281 35
ARM GAS  C:\Users\SOLDER~1\AppData\Local\Temp\cc1DKCam.s 			page 67


 2458 0018 7B68     		ldr	r3, [r7, #4]
 2459 001a 5A60     		str	r2, [r3, #4]
1282:Drivers/STM32L1xx_HAL_Driver/Src/stm32l1xx_hal_rcc.c **** 
1283:Drivers/STM32L1xx_HAL_Driver/Src/stm32l1xx_hal_rcc.c ****   /* Get the HCLK configuration ----------------------------------------------*/
1284:Drivers/STM32L1xx_HAL_Driver/Src/stm32l1xx_hal_rcc.c ****   RCC_ClkInitStruct->AHBCLKDivider = (uint32_t)(RCC->CFGR & RCC_CFGR_HPRE);
 2460              		.loc 1 1284 52
 2461 001c 0E4B     		ldr	r3, .L165
 2462 001e 9B68     		ldr	r3, [r3, #8]
 2463              		.loc 1 1284 38
 2464 0020 03F0F002 		and	r2, r3, #240
 2465              		.loc 1 1284 36
 2466 0024 7B68     		ldr	r3, [r7, #4]
 2467 0026 9A60     		str	r2, [r3, #8]
1285:Drivers/STM32L1xx_HAL_Driver/Src/stm32l1xx_hal_rcc.c **** 
1286:Drivers/STM32L1xx_HAL_Driver/Src/stm32l1xx_hal_rcc.c ****   /* Get the APB1 configuration ----------------------------------------------*/
1287:Drivers/STM32L1xx_HAL_Driver/Src/stm32l1xx_hal_rcc.c ****   RCC_ClkInitStruct->APB1CLKDivider = (uint32_t)(RCC->CFGR & RCC_CFGR_PPRE1);
 2468              		.loc 1 1287 53
 2469 0028 0B4B     		ldr	r3, .L165
 2470 002a 9B68     		ldr	r3, [r3, #8]
 2471              		.loc 1 1287 39
 2472 002c 03F4E062 		and	r2, r3, #1792
 2473              		.loc 1 1287 37
 2474 0030 7B68     		ldr	r3, [r7, #4]
 2475 0032 DA60     		str	r2, [r3, #12]
1288:Drivers/STM32L1xx_HAL_Driver/Src/stm32l1xx_hal_rcc.c **** 
1289:Drivers/STM32L1xx_HAL_Driver/Src/stm32l1xx_hal_rcc.c ****   /* Get the APB2 configuration ----------------------------------------------*/
1290:Drivers/STM32L1xx_HAL_Driver/Src/stm32l1xx_hal_rcc.c ****   RCC_ClkInitStruct->APB2CLKDivider = (uint32_t)((RCC->CFGR & RCC_CFGR_PPRE2) >> 3U);
 2476              		.loc 1 1290 54
 2477 0034 084B     		ldr	r3, .L165
 2478 0036 9B68     		ldr	r3, [r3, #8]
 2479              		.loc 1 1290 39
 2480 0038 DB08     		lsrs	r3, r3, #3
 2481 003a 03F4E062 		and	r2, r3, #1792
 2482              		.loc 1 1290 37
 2483 003e 7B68     		ldr	r3, [r7, #4]
 2484 0040 1A61     		str	r2, [r3, #16]
1291:Drivers/STM32L1xx_HAL_Driver/Src/stm32l1xx_hal_rcc.c **** 
1292:Drivers/STM32L1xx_HAL_Driver/Src/stm32l1xx_hal_rcc.c ****   /* Get the Flash Wait State (Latency) configuration ------------------------*/
1293:Drivers/STM32L1xx_HAL_Driver/Src/stm32l1xx_hal_rcc.c ****   *pFLatency = __HAL_FLASH_GET_LATENCY();
 2485              		.loc 1 1293 16
 2486 0042 064B     		ldr	r3, .L165+4
 2487 0044 1B68     		ldr	r3, [r3]
 2488 0046 03F00102 		and	r2, r3, #1
 2489              		.loc 1 1293 14
 2490 004a 3B68     		ldr	r3, [r7]
 2491 004c 1A60     		str	r2, [r3]
1294:Drivers/STM32L1xx_HAL_Driver/Src/stm32l1xx_hal_rcc.c **** }
 2492              		.loc 1 1294 1
 2493 004e 00BF     		nop
 2494 0050 0C37     		adds	r7, r7, #12
 2495              		.cfi_def_cfa_offset 4
 2496 0052 BD46     		mov	sp, r7
 2497              		.cfi_def_cfa_register 13
 2498              		@ sp needed
 2499 0054 80BC     		pop	{r7}
 2500              		.cfi_restore 7
 2501              		.cfi_def_cfa_offset 0
ARM GAS  C:\Users\SOLDER~1\AppData\Local\Temp\cc1DKCam.s 			page 68


 2502 0056 7047     		bx	lr
 2503              	.L166:
 2504              		.align	2
 2505              	.L165:
 2506 0058 00380240 		.word	1073887232
 2507 005c 003C0240 		.word	1073888256
 2508              		.cfi_endproc
 2509              	.LFE83:
 2511              		.section	.text.HAL_RCC_NMI_IRQHandler,"ax",%progbits
 2512              		.align	1
 2513              		.global	HAL_RCC_NMI_IRQHandler
 2514              		.syntax unified
 2515              		.thumb
 2516              		.thumb_func
 2518              	HAL_RCC_NMI_IRQHandler:
 2519              	.LFB84:
1295:Drivers/STM32L1xx_HAL_Driver/Src/stm32l1xx_hal_rcc.c **** 
1296:Drivers/STM32L1xx_HAL_Driver/Src/stm32l1xx_hal_rcc.c **** /**
1297:Drivers/STM32L1xx_HAL_Driver/Src/stm32l1xx_hal_rcc.c ****   * @brief This function handles the RCC CSS interrupt request.
1298:Drivers/STM32L1xx_HAL_Driver/Src/stm32l1xx_hal_rcc.c ****   * @note This API should be called under the NMI_Handler().
1299:Drivers/STM32L1xx_HAL_Driver/Src/stm32l1xx_hal_rcc.c ****   * @retval None
1300:Drivers/STM32L1xx_HAL_Driver/Src/stm32l1xx_hal_rcc.c ****   */
1301:Drivers/STM32L1xx_HAL_Driver/Src/stm32l1xx_hal_rcc.c **** void HAL_RCC_NMI_IRQHandler(void)
1302:Drivers/STM32L1xx_HAL_Driver/Src/stm32l1xx_hal_rcc.c **** {
 2520              		.loc 1 1302 1
 2521              		.cfi_startproc
 2522              		@ args = 0, pretend = 0, frame = 0
 2523              		@ frame_needed = 1, uses_anonymous_args = 0
 2524 0000 80B5     		push	{r7, lr}
 2525              		.cfi_def_cfa_offset 8
 2526              		.cfi_offset 7, -8
 2527              		.cfi_offset 14, -4
 2528 0002 00AF     		add	r7, sp, #0
 2529              		.cfi_def_cfa_register 7
1303:Drivers/STM32L1xx_HAL_Driver/Src/stm32l1xx_hal_rcc.c ****   /* Check RCC CSSF flag  */
1304:Drivers/STM32L1xx_HAL_Driver/Src/stm32l1xx_hal_rcc.c ****   if(__HAL_RCC_GET_IT(RCC_IT_CSS))
 2530              		.loc 1 1304 6
 2531 0004 064B     		ldr	r3, .L170
 2532 0006 DB68     		ldr	r3, [r3, #12]
 2533 0008 03F08003 		and	r3, r3, #128
 2534              		.loc 1 1304 5
 2535 000c 802B     		cmp	r3, #128
 2536 000e 04D1     		bne	.L169
1305:Drivers/STM32L1xx_HAL_Driver/Src/stm32l1xx_hal_rcc.c ****   {
1306:Drivers/STM32L1xx_HAL_Driver/Src/stm32l1xx_hal_rcc.c ****     /* RCC Clock Security System interrupt user callback */
1307:Drivers/STM32L1xx_HAL_Driver/Src/stm32l1xx_hal_rcc.c ****     HAL_RCC_CSSCallback();
 2537              		.loc 1 1307 5
 2538 0010 FFF7FEFF 		bl	HAL_RCC_CSSCallback
1308:Drivers/STM32L1xx_HAL_Driver/Src/stm32l1xx_hal_rcc.c **** 
1309:Drivers/STM32L1xx_HAL_Driver/Src/stm32l1xx_hal_rcc.c ****     /* Clear RCC CSS pending bit */
1310:Drivers/STM32L1xx_HAL_Driver/Src/stm32l1xx_hal_rcc.c ****     __HAL_RCC_CLEAR_IT(RCC_IT_CSS);
 2539              		.loc 1 1310 5
 2540 0014 034B     		ldr	r3, .L170+4
 2541 0016 8022     		movs	r2, #128
 2542 0018 1A70     		strb	r2, [r3]
 2543              	.L169:
1311:Drivers/STM32L1xx_HAL_Driver/Src/stm32l1xx_hal_rcc.c ****   }
ARM GAS  C:\Users\SOLDER~1\AppData\Local\Temp\cc1DKCam.s 			page 69


1312:Drivers/STM32L1xx_HAL_Driver/Src/stm32l1xx_hal_rcc.c **** }
 2544              		.loc 1 1312 1
 2545 001a 00BF     		nop
 2546 001c 80BD     		pop	{r7, pc}
 2547              	.L171:
 2548 001e 00BF     		.align	2
 2549              	.L170:
 2550 0020 00380240 		.word	1073887232
 2551 0024 0E380240 		.word	1073887246
 2552              		.cfi_endproc
 2553              	.LFE84:
 2555              		.section	.text.HAL_RCC_CSSCallback,"ax",%progbits
 2556              		.align	1
 2557              		.weak	HAL_RCC_CSSCallback
 2558              		.syntax unified
 2559              		.thumb
 2560              		.thumb_func
 2562              	HAL_RCC_CSSCallback:
 2563              	.LFB85:
1313:Drivers/STM32L1xx_HAL_Driver/Src/stm32l1xx_hal_rcc.c **** 
1314:Drivers/STM32L1xx_HAL_Driver/Src/stm32l1xx_hal_rcc.c **** /**
1315:Drivers/STM32L1xx_HAL_Driver/Src/stm32l1xx_hal_rcc.c ****   * @brief  RCC Clock Security System interrupt callback
1316:Drivers/STM32L1xx_HAL_Driver/Src/stm32l1xx_hal_rcc.c ****   * @retval none
1317:Drivers/STM32L1xx_HAL_Driver/Src/stm32l1xx_hal_rcc.c ****   */
1318:Drivers/STM32L1xx_HAL_Driver/Src/stm32l1xx_hal_rcc.c **** __weak void HAL_RCC_CSSCallback(void)
1319:Drivers/STM32L1xx_HAL_Driver/Src/stm32l1xx_hal_rcc.c **** {
 2564              		.loc 1 1319 1
 2565              		.cfi_startproc
 2566              		@ args = 0, pretend = 0, frame = 0
 2567              		@ frame_needed = 1, uses_anonymous_args = 0
 2568              		@ link register save eliminated.
 2569 0000 80B4     		push	{r7}
 2570              		.cfi_def_cfa_offset 4
 2571              		.cfi_offset 7, -4
 2572 0002 00AF     		add	r7, sp, #0
 2573              		.cfi_def_cfa_register 7
1320:Drivers/STM32L1xx_HAL_Driver/Src/stm32l1xx_hal_rcc.c ****   /* NOTE : This function Should not be modified, when the callback is needed,
1321:Drivers/STM32L1xx_HAL_Driver/Src/stm32l1xx_hal_rcc.c ****     the HAL_RCC_CSSCallback could be implemented in the user file
1322:Drivers/STM32L1xx_HAL_Driver/Src/stm32l1xx_hal_rcc.c ****     */
1323:Drivers/STM32L1xx_HAL_Driver/Src/stm32l1xx_hal_rcc.c **** }
 2574              		.loc 1 1323 1
 2575 0004 00BF     		nop
 2576 0006 BD46     		mov	sp, r7
 2577              		.cfi_def_cfa_register 13
 2578              		@ sp needed
 2579 0008 80BC     		pop	{r7}
 2580              		.cfi_restore 7
 2581              		.cfi_def_cfa_offset 0
 2582 000a 7047     		bx	lr
 2583              		.cfi_endproc
 2584              	.LFE85:
 2586              		.section	.text.RCC_SetFlashLatencyFromMSIRange,"ax",%progbits
 2587              		.align	1
 2588              		.syntax unified
 2589              		.thumb
 2590              		.thumb_func
 2592              	RCC_SetFlashLatencyFromMSIRange:
ARM GAS  C:\Users\SOLDER~1\AppData\Local\Temp\cc1DKCam.s 			page 70


 2593              	.LFB86:
1324:Drivers/STM32L1xx_HAL_Driver/Src/stm32l1xx_hal_rcc.c **** 
1325:Drivers/STM32L1xx_HAL_Driver/Src/stm32l1xx_hal_rcc.c **** /**
1326:Drivers/STM32L1xx_HAL_Driver/Src/stm32l1xx_hal_rcc.c ****   * @}
1327:Drivers/STM32L1xx_HAL_Driver/Src/stm32l1xx_hal_rcc.c ****   */
1328:Drivers/STM32L1xx_HAL_Driver/Src/stm32l1xx_hal_rcc.c **** 
1329:Drivers/STM32L1xx_HAL_Driver/Src/stm32l1xx_hal_rcc.c **** /**
1330:Drivers/STM32L1xx_HAL_Driver/Src/stm32l1xx_hal_rcc.c ****   * @}
1331:Drivers/STM32L1xx_HAL_Driver/Src/stm32l1xx_hal_rcc.c ****   */
1332:Drivers/STM32L1xx_HAL_Driver/Src/stm32l1xx_hal_rcc.c **** 
1333:Drivers/STM32L1xx_HAL_Driver/Src/stm32l1xx_hal_rcc.c **** /* Private function prototypes -----------------------------------------------*/
1334:Drivers/STM32L1xx_HAL_Driver/Src/stm32l1xx_hal_rcc.c **** /** @addtogroup RCC_Private_Functions
1335:Drivers/STM32L1xx_HAL_Driver/Src/stm32l1xx_hal_rcc.c ****   * @{
1336:Drivers/STM32L1xx_HAL_Driver/Src/stm32l1xx_hal_rcc.c ****   */
1337:Drivers/STM32L1xx_HAL_Driver/Src/stm32l1xx_hal_rcc.c **** /**
1338:Drivers/STM32L1xx_HAL_Driver/Src/stm32l1xx_hal_rcc.c ****   * @brief  Update number of Flash wait states in line with MSI range and current
1339:Drivers/STM32L1xx_HAL_Driver/Src/stm32l1xx_hal_rcc.c ****             voltage range
1340:Drivers/STM32L1xx_HAL_Driver/Src/stm32l1xx_hal_rcc.c ****   * @param  MSIrange  MSI range value from RCC_MSIRANGE_0 to RCC_MSIRANGE_6
1341:Drivers/STM32L1xx_HAL_Driver/Src/stm32l1xx_hal_rcc.c ****   * @retval HAL status
1342:Drivers/STM32L1xx_HAL_Driver/Src/stm32l1xx_hal_rcc.c ****   */
1343:Drivers/STM32L1xx_HAL_Driver/Src/stm32l1xx_hal_rcc.c **** static HAL_StatusTypeDef RCC_SetFlashLatencyFromMSIRange(uint32_t MSIrange)
1344:Drivers/STM32L1xx_HAL_Driver/Src/stm32l1xx_hal_rcc.c **** {
 2594              		.loc 1 1344 1
 2595              		.cfi_startproc
 2596              		@ args = 0, pretend = 0, frame = 24
 2597              		@ frame_needed = 1, uses_anonymous_args = 0
 2598              		@ link register save eliminated.
 2599 0000 80B4     		push	{r7}
 2600              		.cfi_def_cfa_offset 4
 2601              		.cfi_offset 7, -4
 2602 0002 87B0     		sub	sp, sp, #28
 2603              		.cfi_def_cfa_offset 32
 2604 0004 00AF     		add	r7, sp, #0
 2605              		.cfi_def_cfa_register 7
 2606 0006 7860     		str	r0, [r7, #4]
1345:Drivers/STM32L1xx_HAL_Driver/Src/stm32l1xx_hal_rcc.c ****   uint32_t vos;
1346:Drivers/STM32L1xx_HAL_Driver/Src/stm32l1xx_hal_rcc.c ****   uint32_t latency = FLASH_LATENCY_0;  /* default value 0WS */
 2607              		.loc 1 1346 12
 2608 0008 0023     		movs	r3, #0
 2609 000a 3B61     		str	r3, [r7, #16]
1347:Drivers/STM32L1xx_HAL_Driver/Src/stm32l1xx_hal_rcc.c **** 
1348:Drivers/STM32L1xx_HAL_Driver/Src/stm32l1xx_hal_rcc.c ****   /* HCLK can reach 4 MHz only if AHB prescaler = 1 */
1349:Drivers/STM32L1xx_HAL_Driver/Src/stm32l1xx_hal_rcc.c ****   if (READ_BIT(RCC->CFGR, RCC_CFGR_HPRE) == RCC_SYSCLK_DIV1)
 2610              		.loc 1 1349 7
 2611 000c 294B     		ldr	r3, .L180
 2612 000e 9B68     		ldr	r3, [r3, #8]
 2613 0010 03F0F003 		and	r3, r3, #240
 2614              		.loc 1 1349 6
 2615 0014 002B     		cmp	r3, #0
 2616 0016 2CD1     		bne	.L174
1350:Drivers/STM32L1xx_HAL_Driver/Src/stm32l1xx_hal_rcc.c ****   {
1351:Drivers/STM32L1xx_HAL_Driver/Src/stm32l1xx_hal_rcc.c ****     if(__HAL_RCC_PWR_IS_CLK_ENABLED())
 2617              		.loc 1 1351 8
 2618 0018 264B     		ldr	r3, .L180
 2619 001a 5B6A     		ldr	r3, [r3, #36]
 2620 001c 03F08053 		and	r3, r3, #268435456
 2621              		.loc 1 1351 7
ARM GAS  C:\Users\SOLDER~1\AppData\Local\Temp\cc1DKCam.s 			page 71


 2622 0020 002B     		cmp	r3, #0
 2623 0022 05D0     		beq	.L175
1352:Drivers/STM32L1xx_HAL_Driver/Src/stm32l1xx_hal_rcc.c ****     {
1353:Drivers/STM32L1xx_HAL_Driver/Src/stm32l1xx_hal_rcc.c ****       vos = READ_BIT(PWR->CR, PWR_CR_VOS);
 2624              		.loc 1 1353 13
 2625 0024 244B     		ldr	r3, .L180+4
 2626 0026 1B68     		ldr	r3, [r3]
 2627              		.loc 1 1353 11
 2628 0028 03F4C053 		and	r3, r3, #6144
 2629 002c 7B61     		str	r3, [r7, #20]
 2630 002e 16E0     		b	.L176
 2631              	.L175:
 2632              	.LBB5:
1354:Drivers/STM32L1xx_HAL_Driver/Src/stm32l1xx_hal_rcc.c ****     }
1355:Drivers/STM32L1xx_HAL_Driver/Src/stm32l1xx_hal_rcc.c ****     else
1356:Drivers/STM32L1xx_HAL_Driver/Src/stm32l1xx_hal_rcc.c ****     {
1357:Drivers/STM32L1xx_HAL_Driver/Src/stm32l1xx_hal_rcc.c ****       __HAL_RCC_PWR_CLK_ENABLE();
 2633              		.loc 1 1357 7
 2634 0030 204B     		ldr	r3, .L180
 2635 0032 5B6A     		ldr	r3, [r3, #36]
 2636 0034 1F4A     		ldr	r2, .L180
 2637 0036 43F08053 		orr	r3, r3, #268435456
 2638 003a 5362     		str	r3, [r2, #36]
 2639 003c 1D4B     		ldr	r3, .L180
 2640 003e 5B6A     		ldr	r3, [r3, #36]
 2641 0040 03F08053 		and	r3, r3, #268435456
 2642 0044 FB60     		str	r3, [r7, #12]
 2643 0046 FB68     		ldr	r3, [r7, #12]
 2644              	.LBE5:
1358:Drivers/STM32L1xx_HAL_Driver/Src/stm32l1xx_hal_rcc.c ****       vos = READ_BIT(PWR->CR, PWR_CR_VOS);
 2645              		.loc 1 1358 13
 2646 0048 1B4B     		ldr	r3, .L180+4
 2647 004a 1B68     		ldr	r3, [r3]
 2648              		.loc 1 1358 11
 2649 004c 03F4C053 		and	r3, r3, #6144
 2650 0050 7B61     		str	r3, [r7, #20]
1359:Drivers/STM32L1xx_HAL_Driver/Src/stm32l1xx_hal_rcc.c ****       __HAL_RCC_PWR_CLK_DISABLE();
 2651              		.loc 1 1359 7
 2652 0052 184B     		ldr	r3, .L180
 2653 0054 5B6A     		ldr	r3, [r3, #36]
 2654 0056 174A     		ldr	r2, .L180
 2655 0058 23F08053 		bic	r3, r3, #268435456
 2656 005c 5362     		str	r3, [r2, #36]
 2657              	.L176:
1360:Drivers/STM32L1xx_HAL_Driver/Src/stm32l1xx_hal_rcc.c ****     }
1361:Drivers/STM32L1xx_HAL_Driver/Src/stm32l1xx_hal_rcc.c **** 
1362:Drivers/STM32L1xx_HAL_Driver/Src/stm32l1xx_hal_rcc.c ****     /* Check if need to set latency 1 only for Range 3 & HCLK = 4MHz */
1363:Drivers/STM32L1xx_HAL_Driver/Src/stm32l1xx_hal_rcc.c ****     if((vos == PWR_REGULATOR_VOLTAGE_SCALE3) && (MSIrange == RCC_MSIRANGE_6))
 2658              		.loc 1 1363 7
 2659 005e 7B69     		ldr	r3, [r7, #20]
 2660 0060 B3F5C05F 		cmp	r3, #6144
 2661 0064 05D1     		bne	.L174
 2662              		.loc 1 1363 46 discriminator 1
 2663 0066 7B68     		ldr	r3, [r7, #4]
 2664 0068 B3F5404F 		cmp	r3, #49152
 2665 006c 01D1     		bne	.L174
1364:Drivers/STM32L1xx_HAL_Driver/Src/stm32l1xx_hal_rcc.c ****     {
ARM GAS  C:\Users\SOLDER~1\AppData\Local\Temp\cc1DKCam.s 			page 72


1365:Drivers/STM32L1xx_HAL_Driver/Src/stm32l1xx_hal_rcc.c ****       latency = FLASH_LATENCY_1; /* 1WS */
 2666              		.loc 1 1365 15
 2667 006e 0123     		movs	r3, #1
 2668 0070 3B61     		str	r3, [r7, #16]
 2669              	.L174:
1366:Drivers/STM32L1xx_HAL_Driver/Src/stm32l1xx_hal_rcc.c ****     }
1367:Drivers/STM32L1xx_HAL_Driver/Src/stm32l1xx_hal_rcc.c ****   }
1368:Drivers/STM32L1xx_HAL_Driver/Src/stm32l1xx_hal_rcc.c **** 
1369:Drivers/STM32L1xx_HAL_Driver/Src/stm32l1xx_hal_rcc.c ****   __HAL_FLASH_SET_LATENCY(latency);
 2670              		.loc 1 1369 3
 2671 0072 3B69     		ldr	r3, [r7, #16]
 2672 0074 012B     		cmp	r3, #1
 2673 0076 05D1     		bne	.L177
 2674              		.loc 1 1369 3 is_stmt 0 discriminator 1
 2675 0078 104B     		ldr	r3, .L180+8
 2676 007a 1B68     		ldr	r3, [r3]
 2677 007c 0F4A     		ldr	r2, .L180+8
 2678 007e 43F00403 		orr	r3, r3, #4
 2679 0082 1360     		str	r3, [r2]
 2680              	.L177:
 2681              		.loc 1 1369 3 discriminator 3
 2682 0084 0D4B     		ldr	r3, .L180+8
 2683 0086 1B68     		ldr	r3, [r3]
 2684 0088 23F00102 		bic	r2, r3, #1
 2685 008c 0B49     		ldr	r1, .L180+8
 2686 008e 3B69     		ldr	r3, [r7, #16]
 2687 0090 1343     		orrs	r3, r3, r2
 2688 0092 0B60     		str	r3, [r1]
1370:Drivers/STM32L1xx_HAL_Driver/Src/stm32l1xx_hal_rcc.c **** 
1371:Drivers/STM32L1xx_HAL_Driver/Src/stm32l1xx_hal_rcc.c ****   /* Check that the new number of wait states is taken into account to access the Flash
1372:Drivers/STM32L1xx_HAL_Driver/Src/stm32l1xx_hal_rcc.c ****      memory by reading the FLASH_ACR register */
1373:Drivers/STM32L1xx_HAL_Driver/Src/stm32l1xx_hal_rcc.c ****   if(__HAL_FLASH_GET_LATENCY() != latency)
 2689              		.loc 1 1373 6 is_stmt 1 discriminator 3
 2690 0094 094B     		ldr	r3, .L180+8
 2691 0096 1B68     		ldr	r3, [r3]
 2692 0098 03F00103 		and	r3, r3, #1
 2693              		.loc 1 1373 5 discriminator 3
 2694 009c 3A69     		ldr	r2, [r7, #16]
 2695 009e 9A42     		cmp	r2, r3
 2696 00a0 01D0     		beq	.L178
1374:Drivers/STM32L1xx_HAL_Driver/Src/stm32l1xx_hal_rcc.c ****   {
1375:Drivers/STM32L1xx_HAL_Driver/Src/stm32l1xx_hal_rcc.c ****     return HAL_ERROR;
 2697              		.loc 1 1375 12
 2698 00a2 0123     		movs	r3, #1
 2699 00a4 00E0     		b	.L179
 2700              	.L178:
1376:Drivers/STM32L1xx_HAL_Driver/Src/stm32l1xx_hal_rcc.c ****   }
1377:Drivers/STM32L1xx_HAL_Driver/Src/stm32l1xx_hal_rcc.c **** 
1378:Drivers/STM32L1xx_HAL_Driver/Src/stm32l1xx_hal_rcc.c ****   return HAL_OK;
 2701              		.loc 1 1378 10
 2702 00a6 0023     		movs	r3, #0
 2703              	.L179:
1379:Drivers/STM32L1xx_HAL_Driver/Src/stm32l1xx_hal_rcc.c **** }
 2704              		.loc 1 1379 1
 2705 00a8 1846     		mov	r0, r3
 2706 00aa 1C37     		adds	r7, r7, #28
 2707              		.cfi_def_cfa_offset 4
ARM GAS  C:\Users\SOLDER~1\AppData\Local\Temp\cc1DKCam.s 			page 73


 2708 00ac BD46     		mov	sp, r7
 2709              		.cfi_def_cfa_register 13
 2710              		@ sp needed
 2711 00ae 80BC     		pop	{r7}
 2712              		.cfi_restore 7
 2713              		.cfi_def_cfa_offset 0
 2714 00b0 7047     		bx	lr
 2715              	.L181:
 2716 00b2 00BF     		.align	2
 2717              	.L180:
 2718 00b4 00380240 		.word	1073887232
 2719 00b8 00700040 		.word	1073770496
 2720 00bc 003C0240 		.word	1073888256
 2721              		.cfi_endproc
 2722              	.LFE86:
 2724              		.text
 2725              	.Letext0:
 2726              		.file 2 "c:\\st\\tools\\gcc-arm-none-eabi-10.3-2021.10\\arm-none-eabi\\include\\machine\\_default_
 2727              		.file 3 "c:\\st\\tools\\gcc-arm-none-eabi-10.3-2021.10\\arm-none-eabi\\include\\sys\\_stdint.h"
 2728              		.file 4 "Drivers/CMSIS/Device/ST/STM32L1xx/Include/system_stm32l1xx.h"
 2729              		.file 5 "Drivers/CMSIS/Device/ST/STM32L1xx/Include/stm32l151xba.h"
 2730              		.file 6 "Drivers/CMSIS/Device/ST/STM32L1xx/Include/stm32l1xx.h"
 2731              		.file 7 "Drivers/STM32L1xx_HAL_Driver/Inc/stm32l1xx_hal_def.h"
 2732              		.file 8 "Drivers/STM32L1xx_HAL_Driver/Inc/stm32l1xx_hal_rcc.h"
 2733              		.file 9 "Drivers/STM32L1xx_HAL_Driver/Inc/stm32l1xx_hal_gpio.h"
 2734              		.file 10 "Drivers/STM32L1xx_HAL_Driver/Inc/stm32l1xx_hal.h"
ARM GAS  C:\Users\SOLDER~1\AppData\Local\Temp\cc1DKCam.s 			page 74

