GAS LISTING C:\Users\SOLDER~1\AppData\Local\Temp\ccbih9yx.s 			page 1


   1              		.file	"ch32v20x_opa.c"
   2              		.option nopic
   3              		.attribute arch, "rv32i2p0_m2p0_a2p0_c2p0_xw"
   4              		.attribute unaligned_access, 0
   5              		.attribute stack_align, 16
   6              		.text
   7              	.Ltext0:
   8              		.cfi_sections	.debug_frame
   9              		.file 0 "C:\\Users\\Solderingiron\\Documents\\GitHub\\VSC-make-example\\VSC_CH32V203C8T6" "Drivers
  10              		.section	.text.OPA_DeInit,"ax",@progbits
  11              		.align	1
  12              		.globl	OPA_DeInit
  14              	OPA_DeInit:
  15              	.LFB16:
  16              		.file 1 "Drivers/src/ch32v20x_opa.c"
   1:Drivers/src/ch32v20x_opa.c **** /********************************** (C) COPYRIGHT  *******************************
   2:Drivers/src/ch32v20x_opa.c ****  * File Name          : ch32v20x_opa.c
   3:Drivers/src/ch32v20x_opa.c ****  * Author             : WCH
   4:Drivers/src/ch32v20x_opa.c ****  * Version            : V1.0.0
   5:Drivers/src/ch32v20x_opa.c ****  * Date               : 2021/06/06
   6:Drivers/src/ch32v20x_opa.c ****  * Description        : This file provides all the OPA firmware functions.
   7:Drivers/src/ch32v20x_opa.c ****  *********************************************************************************
   8:Drivers/src/ch32v20x_opa.c ****  * Copyright (c) 2021 Nanjing Qinheng Microelectronics Co., Ltd.
   9:Drivers/src/ch32v20x_opa.c ****  * Attention: This software (modified or not) and binary are used for 
  10:Drivers/src/ch32v20x_opa.c ****  * microcontroller manufactured by Nanjing Qinheng Microelectronics.
  11:Drivers/src/ch32v20x_opa.c ****  *******************************************************************************/
  12:Drivers/src/ch32v20x_opa.c **** #include "ch32v20x_opa.h"
  13:Drivers/src/ch32v20x_opa.c **** 
  14:Drivers/src/ch32v20x_opa.c **** #define OPA_MASK         ((uint32_t)0x000F)
  15:Drivers/src/ch32v20x_opa.c **** #define OPA_Total_NUM    4
  16:Drivers/src/ch32v20x_opa.c **** 
  17:Drivers/src/ch32v20x_opa.c **** /*********************************************************************
  18:Drivers/src/ch32v20x_opa.c ****  * @fn      OPA_DeInit
  19:Drivers/src/ch32v20x_opa.c ****  *
  20:Drivers/src/ch32v20x_opa.c ****  * @brief   Deinitializes the OPA peripheral registers to their default
  21:Drivers/src/ch32v20x_opa.c ****  *        reset values.
  22:Drivers/src/ch32v20x_opa.c ****  *
  23:Drivers/src/ch32v20x_opa.c ****  * @return  none
  24:Drivers/src/ch32v20x_opa.c ****  */
  25:Drivers/src/ch32v20x_opa.c **** void OPA_DeInit(void)
  26:Drivers/src/ch32v20x_opa.c **** {
  17              		.loc 1 26 1
  18              		.cfi_startproc
  19 0000 4111     		addi	sp,sp,-16
  20              		.cfi_def_cfa_offset 16
  21 0002 22C6     		sw	s0,12(sp)
  22              		.cfi_offset 8, -4
  23 0004 0008     		addi	s0,sp,16
  24              		.cfi_def_cfa 8, 0
  27:Drivers/src/ch32v20x_opa.c ****     OPA->CR = 0;
  25              		.loc 1 27 8
  26 0006 B7470240 		li	a5,1073889280
  27 000a 93874780 		addi	a5,a5,-2044
  28              		.loc 1 27 13
  29 000e 23A00700 		sw	zero,0(a5)
  28:Drivers/src/ch32v20x_opa.c **** }
  30              		.loc 1 28 1
GAS LISTING C:\Users\SOLDER~1\AppData\Local\Temp\ccbih9yx.s 			page 2


  31 0012 0100     		nop
  32 0014 3244     		lw	s0,12(sp)
  33              		.cfi_restore 8
  34              		.cfi_def_cfa 2, 16
  35 0016 4101     		addi	sp,sp,16
  36              		.cfi_def_cfa_offset 0
  37 0018 8280     		jr	ra
  38              		.cfi_endproc
  39              	.LFE16:
  41              		.section	.text.OPA_Init,"ax",@progbits
  42              		.align	1
  43              		.globl	OPA_Init
  45              	OPA_Init:
  46              	.LFB17:
  29:Drivers/src/ch32v20x_opa.c **** 
  30:Drivers/src/ch32v20x_opa.c **** /*********************************************************************
  31:Drivers/src/ch32v20x_opa.c ****  * @fn      OPA_Init
  32:Drivers/src/ch32v20x_opa.c ****  *
  33:Drivers/src/ch32v20x_opa.c ****  * @brief   Initializes the OPA peripheral according to the specified
  34:Drivers/src/ch32v20x_opa.c ****  *        parameters in the OPA_InitStruct.
  35:Drivers/src/ch32v20x_opa.c ****  *
  36:Drivers/src/ch32v20x_opa.c ****  * @param   OPA_InitStruct - pointer to a OPA_InitTypeDef structure
  37:Drivers/src/ch32v20x_opa.c ****  *
  38:Drivers/src/ch32v20x_opa.c ****  * @return  none
  39:Drivers/src/ch32v20x_opa.c ****  */
  40:Drivers/src/ch32v20x_opa.c **** void OPA_Init(OPA_InitTypeDef *OPA_InitStruct)
  41:Drivers/src/ch32v20x_opa.c **** {
  47              		.loc 1 41 1
  48              		.cfi_startproc
  49 0000 7971     		addi	sp,sp,-48
  50              		.cfi_def_cfa_offset 48
  51 0002 22D6     		sw	s0,44(sp)
  52              		.cfi_offset 8, -4
  53 0004 0018     		addi	s0,sp,48
  54              		.cfi_def_cfa 8, 0
  55 0006 232EA4FC 		sw	a0,-36(s0)
  42:Drivers/src/ch32v20x_opa.c ****     uint32_t tmp = 0;
  56              		.loc 1 42 14
  57 000a 232604FE 		sw	zero,-20(s0)
  43:Drivers/src/ch32v20x_opa.c ****     tmp = OPA->CR;
  58              		.loc 1 43 14
  59 000e B7470240 		li	a5,1073889280
  60 0012 93874780 		addi	a5,a5,-2044
  61              		.loc 1 43 9
  62 0016 9C43     		lw	a5,0(a5)
  63 0018 2326F4FE 		sw	a5,-20(s0)
  44:Drivers/src/ch32v20x_opa.c ****     tmp &= ~(OPA_MASK << (OPA_InitStruct->OPA_NUM * OPA_Total_NUM));
  64              		.loc 1 44 41
  65 001c 8327C4FD 		lw	a5,-36(s0)
  66 0020 9C43     		lw	a5,0(a5)
  67              		.loc 1 44 51
  68 0022 8A07     		slli	a5,a5,2
  69              		.loc 1 44 23
  70 0024 3D47     		li	a4,15
  71 0026 B317F700 		sll	a5,a4,a5
  72              		.loc 1 44 12
  73 002a 93C7F7FF 		not	a5,a5
GAS LISTING C:\Users\SOLDER~1\AppData\Local\Temp\ccbih9yx.s 			page 3


  74              		.loc 1 44 9
  75 002e 0327C4FE 		lw	a4,-20(s0)
  76 0032 F98F     		and	a5,a4,a5
  77 0034 2326F4FE 		sw	a5,-20(s0)
  45:Drivers/src/ch32v20x_opa.c ****     tmp |= (((OPA_InitStruct->PSEL << OPA_PSEL_OFFSET) | (OPA_InitStruct->NSEL << OPA_NSEL_OFFSET) 
  78              		.loc 1 45 29
  79 0038 8327C4FD 		lw	a5,-36(s0)
  80 003c DC43     		lw	a5,4(a5)
  81              		.loc 1 45 36
  82 003e 13973700 		slli	a4,a5,3
  83              		.loc 1 45 73
  84 0042 8327C4FD 		lw	a5,-36(s0)
  85 0046 9C47     		lw	a5,8(a5)
  86              		.loc 1 45 80
  87 0048 8A07     		slli	a5,a5,2
  88              		.loc 1 45 56
  89 004a 5D8F     		or	a4,a4,a5
  90              		.loc 1 45 117
  91 004c 8327C4FD 		lw	a5,-36(s0)
  92 0050 DC47     		lw	a5,12(a5)
  93              		.loc 1 45 124
  94 0052 8607     		slli	a5,a5,1
  95              		.loc 1 45 100
  96 0054 5D8F     		or	a4,a4,a5
  97              		.loc 1 45 163
  98 0056 8327C4FD 		lw	a5,-36(s0)
  99 005a 9C43     		lw	a5,0(a5)
 100              		.loc 1 45 173
 101 005c 8A07     		slli	a5,a5,2
 102              		.loc 1 45 145
 103 005e B317F700 		sll	a5,a4,a5
 104              		.loc 1 45 9
 105 0062 0327C4FE 		lw	a4,-20(s0)
 106 0066 D98F     		or	a5,a4,a5
 107 0068 2326F4FE 		sw	a5,-20(s0)
  46:Drivers/src/ch32v20x_opa.c ****     OPA->CR = tmp;
 108              		.loc 1 46 8
 109 006c B7470240 		li	a5,1073889280
 110 0070 93874780 		addi	a5,a5,-2044
 111              		.loc 1 46 13
 112 0074 0327C4FE 		lw	a4,-20(s0)
 113 0078 98C3     		sw	a4,0(a5)
  47:Drivers/src/ch32v20x_opa.c **** }
 114              		.loc 1 47 1
 115 007a 0100     		nop
 116 007c 3254     		lw	s0,44(sp)
 117              		.cfi_restore 8
 118              		.cfi_def_cfa 2, 48
 119 007e 4561     		addi	sp,sp,48
 120              		.cfi_def_cfa_offset 0
 121 0080 8280     		jr	ra
 122              		.cfi_endproc
 123              	.LFE17:
 125              		.section	.text.OPA_StructInit,"ax",@progbits
 126              		.align	1
 127              		.globl	OPA_StructInit
 129              	OPA_StructInit:
GAS LISTING C:\Users\SOLDER~1\AppData\Local\Temp\ccbih9yx.s 			page 4


 130              	.LFB18:
  48:Drivers/src/ch32v20x_opa.c **** 
  49:Drivers/src/ch32v20x_opa.c **** /*********************************************************************
  50:Drivers/src/ch32v20x_opa.c ****  * @fn      OPA_StructInit
  51:Drivers/src/ch32v20x_opa.c ****  *
  52:Drivers/src/ch32v20x_opa.c ****  * @brief   Fills each OPA_StructInit member with its reset value.
  53:Drivers/src/ch32v20x_opa.c ****  *
  54:Drivers/src/ch32v20x_opa.c ****  * @param   OPA_StructInit - pointer to a OPA_InitTypeDef structure
  55:Drivers/src/ch32v20x_opa.c ****  *
  56:Drivers/src/ch32v20x_opa.c ****  * @return  none
  57:Drivers/src/ch32v20x_opa.c ****  */
  58:Drivers/src/ch32v20x_opa.c **** void OPA_StructInit(OPA_InitTypeDef *OPA_InitStruct)
  59:Drivers/src/ch32v20x_opa.c **** {
 131              		.loc 1 59 1
 132              		.cfi_startproc
 133 0000 0111     		addi	sp,sp,-32
 134              		.cfi_def_cfa_offset 32
 135 0002 22CE     		sw	s0,28(sp)
 136              		.cfi_offset 8, -4
 137 0004 0010     		addi	s0,sp,32
 138              		.cfi_def_cfa 8, 0
 139 0006 2326A4FE 		sw	a0,-20(s0)
  60:Drivers/src/ch32v20x_opa.c ****     OPA_InitStruct->Mode = OUT_IO_OUT1;
 140              		.loc 1 60 26
 141 000a 8327C4FE 		lw	a5,-20(s0)
 142 000e 0547     		li	a4,1
 143 0010 D8C7     		sw	a4,12(a5)
  61:Drivers/src/ch32v20x_opa.c ****     OPA_InitStruct->PSEL = CHP0;
 144              		.loc 1 61 26
 145 0012 8327C4FE 		lw	a5,-20(s0)
 146 0016 23A20700 		sw	zero,4(a5)
  62:Drivers/src/ch32v20x_opa.c ****     OPA_InitStruct->NSEL = CHN0;
 147              		.loc 1 62 26
 148 001a 8327C4FE 		lw	a5,-20(s0)
 149 001e 23A40700 		sw	zero,8(a5)
  63:Drivers/src/ch32v20x_opa.c ****     OPA_InitStruct->OPA_NUM = OPA1;
 150              		.loc 1 63 29
 151 0022 8327C4FE 		lw	a5,-20(s0)
 152 0026 23A00700 		sw	zero,0(a5)
  64:Drivers/src/ch32v20x_opa.c **** }
 153              		.loc 1 64 1
 154 002a 0100     		nop
 155 002c 7244     		lw	s0,28(sp)
 156              		.cfi_restore 8
 157              		.cfi_def_cfa 2, 32
 158 002e 0561     		addi	sp,sp,32
 159              		.cfi_def_cfa_offset 0
 160 0030 8280     		jr	ra
 161              		.cfi_endproc
 162              	.LFE18:
 164              		.section	.text.OPA_Cmd,"ax",@progbits
 165              		.align	1
 166              		.globl	OPA_Cmd
 168              	OPA_Cmd:
 169              	.LFB19:
  65:Drivers/src/ch32v20x_opa.c **** 
  66:Drivers/src/ch32v20x_opa.c **** /*********************************************************************
GAS LISTING C:\Users\SOLDER~1\AppData\Local\Temp\ccbih9yx.s 			page 5


  67:Drivers/src/ch32v20x_opa.c ****  * @fn      OPA_Cmd
  68:Drivers/src/ch32v20x_opa.c ****  *
  69:Drivers/src/ch32v20x_opa.c ****  * @brief   Enables or disables the specified OPA peripheral.
  70:Drivers/src/ch32v20x_opa.c ****  *
  71:Drivers/src/ch32v20x_opa.c ****  * @param   OPA_NUM - Select OPA
  72:Drivers/src/ch32v20x_opa.c ****  *            NewState - ENABLE or DISABLE.
  73:Drivers/src/ch32v20x_opa.c ****  *
  74:Drivers/src/ch32v20x_opa.c ****  * @return  none
  75:Drivers/src/ch32v20x_opa.c ****  */
  76:Drivers/src/ch32v20x_opa.c **** void OPA_Cmd(OPA_Num_TypeDef OPA_NUM, FunctionalState NewState)
  77:Drivers/src/ch32v20x_opa.c **** {
 170              		.loc 1 77 1
 171              		.cfi_startproc
 172 0000 0111     		addi	sp,sp,-32
 173              		.cfi_def_cfa_offset 32
 174 0002 22CE     		sw	s0,28(sp)
 175              		.cfi_offset 8, -4
 176 0004 0010     		addi	s0,sp,32
 177              		.cfi_def_cfa 8, 0
 178 0006 2326A4FE 		sw	a0,-20(s0)
 179 000a 2324B4FE 		sw	a1,-24(s0)
  78:Drivers/src/ch32v20x_opa.c ****     if(NewState == ENABLE)
 180              		.loc 1 78 7
 181 000e 032784FE 		lw	a4,-24(s0)
 182 0012 8547     		li	a5,1
 183 0014 6315F702 		bne	a4,a5,.L5
  79:Drivers/src/ch32v20x_opa.c ****     {
  80:Drivers/src/ch32v20x_opa.c ****         OPA->CR |= (1 << (OPA_NUM * OPA_Total_NUM));
 184              		.loc 1 80 12
 185 0018 B7470240 		li	a5,1073889280
 186 001c 93874780 		addi	a5,a5,-2044
 187 0020 9843     		lw	a4,0(a5)
 188              		.loc 1 80 35
 189 0022 8327C4FE 		lw	a5,-20(s0)
 190 0026 8A07     		slli	a5,a5,2
 191              		.loc 1 80 23
 192 0028 8546     		li	a3,1
 193 002a B397F600 		sll	a5,a3,a5
 194 002e BE86     		mv	a3,a5
 195              		.loc 1 80 12
 196 0030 B7470240 		li	a5,1073889280
 197 0034 93874780 		addi	a5,a5,-2044
 198              		.loc 1 80 17
 199 0038 558F     		or	a4,a4,a3
 200 003a 98C3     		sw	a4,0(a5)
  81:Drivers/src/ch32v20x_opa.c ****     }
  82:Drivers/src/ch32v20x_opa.c ****     else
  83:Drivers/src/ch32v20x_opa.c ****     {
  84:Drivers/src/ch32v20x_opa.c ****         OPA->CR &= ~(1 << (OPA_NUM * OPA_Total_NUM));
  85:Drivers/src/ch32v20x_opa.c ****     }
  86:Drivers/src/ch32v20x_opa.c **** }
 201              		.loc 1 86 1
 202 003c 2DA0     		j	.L7
 203              	.L5:
  84:Drivers/src/ch32v20x_opa.c ****     }
 204              		.loc 1 84 12
 205 003e B7470240 		li	a5,1073889280
GAS LISTING C:\Users\SOLDER~1\AppData\Local\Temp\ccbih9yx.s 			page 6


 206 0042 93874780 		addi	a5,a5,-2044
 207 0046 9843     		lw	a4,0(a5)
  84:Drivers/src/ch32v20x_opa.c ****     }
 208              		.loc 1 84 36
 209 0048 8327C4FE 		lw	a5,-20(s0)
 210 004c 8A07     		slli	a5,a5,2
  84:Drivers/src/ch32v20x_opa.c ****     }
 211              		.loc 1 84 24
 212 004e 8546     		li	a3,1
 213 0050 B397F600 		sll	a5,a3,a5
  84:Drivers/src/ch32v20x_opa.c ****     }
 214              		.loc 1 84 20
 215 0054 93C7F7FF 		not	a5,a5
 216 0058 BE86     		mv	a3,a5
  84:Drivers/src/ch32v20x_opa.c ****     }
 217              		.loc 1 84 12
 218 005a B7470240 		li	a5,1073889280
 219 005e 93874780 		addi	a5,a5,-2044
  84:Drivers/src/ch32v20x_opa.c ****     }
 220              		.loc 1 84 17
 221 0062 758F     		and	a4,a4,a3
 222 0064 98C3     		sw	a4,0(a5)
 223              	.L7:
 224              		.loc 1 86 1
 225 0066 0100     		nop
 226 0068 7244     		lw	s0,28(sp)
 227              		.cfi_restore 8
 228              		.cfi_def_cfa 2, 32
 229 006a 0561     		addi	sp,sp,32
 230              		.cfi_def_cfa_offset 0
 231 006c 8280     		jr	ra
 232              		.cfi_endproc
 233              	.LFE19:
 235              		.text
 236              	.Letext0:
 237              		.file 2 "c:\\dev_tools\\ch32_tools\\risc-v_embedded_gcc12\\riscv-none-elf\\include\\machine\\_defa
 238              		.file 3 "c:\\dev_tools\\ch32_tools\\risc-v_embedded_gcc12\\riscv-none-elf\\include\\sys\\_stdint.h
 239              		.file 4 "Drivers/inc/core_riscv.h"
 240              		.file 5 "Drivers/inc/ch32v20x.h"
 241              		.file 6 "Drivers/inc/ch32v20x_opa.h"
GAS LISTING C:\Users\SOLDER~1\AppData\Local\Temp\ccbih9yx.s 			page 7

