GAS LISTING C:\Users\SOLDER~1\AppData\Local\Temp\cc0vShlo.s 			page 1


   1              		.file	"ch32v20x_dbgmcu.c"
   2              		.option nopic
   3              		.attribute arch, "rv32i2p0_m2p0_a2p0_c2p0_xw"
   4              		.attribute unaligned_access, 0
   5              		.attribute stack_align, 16
   6              		.text
   7              	.Ltext0:
   8              		.cfi_sections	.debug_frame
   9              		.file 0 "C:\\Users\\Solderingiron\\Documents\\GitHub\\VSC-make-example\\VSC_CH32V203C8T6" "Drivers
  10              		.section	.text.DBGMCU_GetREVID,"ax",@progbits
  11              		.align	1
  12              		.globl	DBGMCU_GetREVID
  14              	DBGMCU_GetREVID:
  15              	.LFB16:
  16              		.file 1 "Drivers/src/ch32v20x_dbgmcu.c"
   1:Drivers/src/ch32v20x_dbgmcu.c **** /********************************** (C) COPYRIGHT  *******************************
   2:Drivers/src/ch32v20x_dbgmcu.c ****  * File Name          : ch32v20x_dbgmcu.c
   3:Drivers/src/ch32v20x_dbgmcu.c ****  * Author             : WCH
   4:Drivers/src/ch32v20x_dbgmcu.c ****  * Version            : V1.0.0
   5:Drivers/src/ch32v20x_dbgmcu.c ****  * Date               : 2021/06/06
   6:Drivers/src/ch32v20x_dbgmcu.c ****  * Description        : This file provides all the DBGMCU firmware functions.
   7:Drivers/src/ch32v20x_dbgmcu.c ****  *********************************************************************************
   8:Drivers/src/ch32v20x_dbgmcu.c ****  * Copyright (c) 2021 Nanjing Qinheng Microelectronics Co., Ltd.
   9:Drivers/src/ch32v20x_dbgmcu.c ****  * Attention: This software (modified or not) and binary are used for 
  10:Drivers/src/ch32v20x_dbgmcu.c ****  * microcontroller manufactured by Nanjing Qinheng Microelectronics.
  11:Drivers/src/ch32v20x_dbgmcu.c ****  *******************************************************************************/
  12:Drivers/src/ch32v20x_dbgmcu.c **** #include "ch32v20x_dbgmcu.h"
  13:Drivers/src/ch32v20x_dbgmcu.c **** 
  14:Drivers/src/ch32v20x_dbgmcu.c **** #define IDCODE_DEVID_MASK    ((uint32_t)0x0000FFFF)
  15:Drivers/src/ch32v20x_dbgmcu.c **** 
  16:Drivers/src/ch32v20x_dbgmcu.c **** /*********************************************************************
  17:Drivers/src/ch32v20x_dbgmcu.c ****  * @fn      DBGMCU_GetREVID
  18:Drivers/src/ch32v20x_dbgmcu.c ****  *
  19:Drivers/src/ch32v20x_dbgmcu.c ****  * @brief   Returns the device revision identifier.
  20:Drivers/src/ch32v20x_dbgmcu.c ****  *
  21:Drivers/src/ch32v20x_dbgmcu.c ****  * @return  Revision identifier.
  22:Drivers/src/ch32v20x_dbgmcu.c ****  */
  23:Drivers/src/ch32v20x_dbgmcu.c **** uint32_t DBGMCU_GetREVID(void)
  24:Drivers/src/ch32v20x_dbgmcu.c **** {
  17              		.loc 1 24 1
  18              		.cfi_startproc
  19 0000 4111     		addi	sp,sp,-16
  20              		.cfi_def_cfa_offset 16
  21 0002 22C6     		sw	s0,12(sp)
  22              		.cfi_offset 8, -4
  23 0004 0008     		addi	s0,sp,16
  24              		.cfi_def_cfa 8, 0
  25:Drivers/src/ch32v20x_dbgmcu.c ****     return ((*(uint32_t *)0x1FFFF704) >> 16);
  25              		.loc 1 25 14
  26 0006 B7F7FF1F 		li	a5,536866816
  27 000a 93874770 		addi	a5,a5,1796
  28 000e 9C43     		lw	a5,0(a5)
  29              		.loc 1 25 39
  30 0010 C183     		srli	a5,a5,16
  26:Drivers/src/ch32v20x_dbgmcu.c **** }
  31              		.loc 1 26 1
  32 0012 3E85     		mv	a0,a5
GAS LISTING C:\Users\SOLDER~1\AppData\Local\Temp\cc0vShlo.s 			page 2


  33 0014 3244     		lw	s0,12(sp)
  34              		.cfi_restore 8
  35              		.cfi_def_cfa 2, 16
  36 0016 4101     		addi	sp,sp,16
  37              		.cfi_def_cfa_offset 0
  38 0018 8280     		jr	ra
  39              		.cfi_endproc
  40              	.LFE16:
  42              		.section	.text.DBGMCU_GetDEVID,"ax",@progbits
  43              		.align	1
  44              		.globl	DBGMCU_GetDEVID
  46              	DBGMCU_GetDEVID:
  47              	.LFB17:
  27:Drivers/src/ch32v20x_dbgmcu.c **** 
  28:Drivers/src/ch32v20x_dbgmcu.c **** /*********************************************************************
  29:Drivers/src/ch32v20x_dbgmcu.c ****  * @fn      DBGMCU_GetDEVID
  30:Drivers/src/ch32v20x_dbgmcu.c ****  *
  31:Drivers/src/ch32v20x_dbgmcu.c ****  * @brief   Returns the device identifier.
  32:Drivers/src/ch32v20x_dbgmcu.c ****  *
  33:Drivers/src/ch32v20x_dbgmcu.c ****  * @return  Device identifier.
  34:Drivers/src/ch32v20x_dbgmcu.c ****  */
  35:Drivers/src/ch32v20x_dbgmcu.c **** uint32_t DBGMCU_GetDEVID(void)
  36:Drivers/src/ch32v20x_dbgmcu.c **** {
  48              		.loc 1 36 1
  49              		.cfi_startproc
  50 0000 4111     		addi	sp,sp,-16
  51              		.cfi_def_cfa_offset 16
  52 0002 22C6     		sw	s0,12(sp)
  53              		.cfi_offset 8, -4
  54 0004 0008     		addi	s0,sp,16
  55              		.cfi_def_cfa 8, 0
  37:Drivers/src/ch32v20x_dbgmcu.c ****     return ((*(uint32_t *)0x1FFFF704) & IDCODE_DEVID_MASK);
  56              		.loc 1 37 14
  57 0006 B7F7FF1F 		li	a5,536866816
  58 000a 93874770 		addi	a5,a5,1796
  59 000e 9843     		lw	a4,0(a5)
  60              		.loc 1 37 39
  61 0010 C167     		li	a5,65536
  62 0012 FD17     		addi	a5,a5,-1
  63 0014 F98F     		and	a5,a4,a5
  38:Drivers/src/ch32v20x_dbgmcu.c **** }
  64              		.loc 1 38 1
  65 0016 3E85     		mv	a0,a5
  66 0018 3244     		lw	s0,12(sp)
  67              		.cfi_restore 8
  68              		.cfi_def_cfa 2, 16
  69 001a 4101     		addi	sp,sp,16
  70              		.cfi_def_cfa_offset 0
  71 001c 8280     		jr	ra
  72              		.cfi_endproc
  73              	.LFE17:
  75              		.section	.text.__get_DEBUG_CR,"ax",@progbits
  76              		.align	1
  77              		.globl	__get_DEBUG_CR
  79              	__get_DEBUG_CR:
  80              	.LFB18:
  39:Drivers/src/ch32v20x_dbgmcu.c **** 
GAS LISTING C:\Users\SOLDER~1\AppData\Local\Temp\cc0vShlo.s 			page 3


  40:Drivers/src/ch32v20x_dbgmcu.c **** /*********************************************************************
  41:Drivers/src/ch32v20x_dbgmcu.c ****  * @fn      __get_DEBUG_CR
  42:Drivers/src/ch32v20x_dbgmcu.c ****  *
  43:Drivers/src/ch32v20x_dbgmcu.c ****  * @brief   Return the DEBUGE Control Register
  44:Drivers/src/ch32v20x_dbgmcu.c ****  *
  45:Drivers/src/ch32v20x_dbgmcu.c ****  * @return  DEBUGE Control value
  46:Drivers/src/ch32v20x_dbgmcu.c ****  */
  47:Drivers/src/ch32v20x_dbgmcu.c **** uint32_t __get_DEBUG_CR(void)
  48:Drivers/src/ch32v20x_dbgmcu.c **** {
  81              		.loc 1 48 1
  82              		.cfi_startproc
  83 0000 0111     		addi	sp,sp,-32
  84              		.cfi_def_cfa_offset 32
  85 0002 22CE     		sw	s0,28(sp)
  86              		.cfi_offset 8, -4
  87 0004 0010     		addi	s0,sp,32
  88              		.cfi_def_cfa 8, 0
  49:Drivers/src/ch32v20x_dbgmcu.c ****     uint32_t result;
  50:Drivers/src/ch32v20x_dbgmcu.c **** 
  51:Drivers/src/ch32v20x_dbgmcu.c ****     __asm volatile("csrr %0,""0x7C0" : "=r"(result));
  89              		.loc 1 51 5
  90              	 #APP
  91              	# 51 "Drivers/src/ch32v20x_dbgmcu.c" 1
  52              	    return (result);
  92              		csrr a5,0x7C0
  93              	# 0 "" 2
  94              	 #NO_APP
  95 000a 2326F4FE 		sw	a5,-20(s0)
  96              		.loc 1 52 12
  97 000e 8327C4FE 		lw	a5,-20(s0)
  53:Drivers/src/ch32v20x_dbgmcu.c **** }
  98              		.loc 1 53 1
  99 0012 3E85     		mv	a0,a5
 100 0014 7244     		lw	s0,28(sp)
 101              		.cfi_restore 8
 102              		.cfi_def_cfa 2, 32
 103 0016 0561     		addi	sp,sp,32
 104              		.cfi_def_cfa_offset 0
 105 0018 8280     		jr	ra
 106              		.cfi_endproc
 107              	.LFE18:
 109              		.section	.text.__set_DEBUG_CR,"ax",@progbits
 110              		.align	1
 111              		.globl	__set_DEBUG_CR
 113              	__set_DEBUG_CR:
 114              	.LFB19:
  54:Drivers/src/ch32v20x_dbgmcu.c **** 
  55:Drivers/src/ch32v20x_dbgmcu.c **** /*********************************************************************
  56:Drivers/src/ch32v20x_dbgmcu.c ****  * @fn      __set_DEBUG_CR
  57:Drivers/src/ch32v20x_dbgmcu.c ****  *
  58:Drivers/src/ch32v20x_dbgmcu.c ****  * @brief   Set the DEBUGE Control Register
  59:Drivers/src/ch32v20x_dbgmcu.c ****  *
  60:Drivers/src/ch32v20x_dbgmcu.c ****  * @param   value  - set DEBUGE Control value
  61:Drivers/src/ch32v20x_dbgmcu.c ****  *
  62:Drivers/src/ch32v20x_dbgmcu.c ****  * @return  none
  63:Drivers/src/ch32v20x_dbgmcu.c ****  */
  64:Drivers/src/ch32v20x_dbgmcu.c **** void __set_DEBUG_CR(uint32_t value)
GAS LISTING C:\Users\SOLDER~1\AppData\Local\Temp\cc0vShlo.s 			page 4


  65:Drivers/src/ch32v20x_dbgmcu.c **** {
 115              		.loc 1 65 1
 116              		.cfi_startproc
 117 0000 0111     		addi	sp,sp,-32
 118              		.cfi_def_cfa_offset 32
 119 0002 22CE     		sw	s0,28(sp)
 120              		.cfi_offset 8, -4
 121 0004 0010     		addi	s0,sp,32
 122              		.cfi_def_cfa 8, 0
 123 0006 2326A4FE 		sw	a0,-20(s0)
  66:Drivers/src/ch32v20x_dbgmcu.c ****     __asm volatile("csrw 0x7C0, %0" : : "r"(value));
 124              		.loc 1 66 5
 125 000a 8327C4FE 		lw	a5,-20(s0)
 126              	 #APP
 127              	# 66 "Drivers/src/ch32v20x_dbgmcu.c" 1
  67              	}
 128              		csrw 0x7C0, a5
 129              	# 0 "" 2
 130              		.loc 1 67 1
 131              	 #NO_APP
 132 0012 0100     		nop
 133 0014 7244     		lw	s0,28(sp)
 134              		.cfi_restore 8
 135              		.cfi_def_cfa 2, 32
 136 0016 0561     		addi	sp,sp,32
 137              		.cfi_def_cfa_offset 0
 138 0018 8280     		jr	ra
 139              		.cfi_endproc
 140              	.LFE19:
 142              		.section	.text.DBGMCU_Config,"ax",@progbits
 143              		.align	1
 144              		.globl	DBGMCU_Config
 146              	DBGMCU_Config:
 147              	.LFB20:
  68:Drivers/src/ch32v20x_dbgmcu.c **** 
  69:Drivers/src/ch32v20x_dbgmcu.c **** 
  70:Drivers/src/ch32v20x_dbgmcu.c **** /*********************************************************************
  71:Drivers/src/ch32v20x_dbgmcu.c ****  * @fn      DBGMCU_Config
  72:Drivers/src/ch32v20x_dbgmcu.c ****  *
  73:Drivers/src/ch32v20x_dbgmcu.c ****  * @brief   Configures the specified peripheral and low power mode behavior
  74:Drivers/src/ch32v20x_dbgmcu.c ****  *        when the MCU under Debug mode.
  75:Drivers/src/ch32v20x_dbgmcu.c ****  *
  76:Drivers/src/ch32v20x_dbgmcu.c ****  * @param   DBGMCU_Periph - specifies the peripheral and low power mode.
  77:Drivers/src/ch32v20x_dbgmcu.c ****  *            DBGMCU_IWDG_STOP - Debug IWDG stopped when Core is halted
  78:Drivers/src/ch32v20x_dbgmcu.c ****  *            DBGMCU_WWDG_STOP - Debug WWDG stopped when Core is halted
  79:Drivers/src/ch32v20x_dbgmcu.c ****  *            DBGMCU_TIM1_STOP - TIM1 counter stopped when Core is halted
  80:Drivers/src/ch32v20x_dbgmcu.c ****  *            DBGMCU_TIM2_STOP - TIM2 counter stopped when Core is halted
  81:Drivers/src/ch32v20x_dbgmcu.c ****  *          NewState - ENABLE or DISABLE.
  82:Drivers/src/ch32v20x_dbgmcu.c ****  *
  83:Drivers/src/ch32v20x_dbgmcu.c ****  * @return  none
  84:Drivers/src/ch32v20x_dbgmcu.c ****  */
  85:Drivers/src/ch32v20x_dbgmcu.c **** void DBGMCU_Config(uint32_t DBGMCU_Periph, FunctionalState NewState)
  86:Drivers/src/ch32v20x_dbgmcu.c **** {
 148              		.loc 1 86 1
 149              		.cfi_startproc
 150 0000 7971     		addi	sp,sp,-48
 151              		.cfi_def_cfa_offset 48
GAS LISTING C:\Users\SOLDER~1\AppData\Local\Temp\cc0vShlo.s 			page 5


 152 0002 06D6     		sw	ra,44(sp)
 153 0004 22D4     		sw	s0,40(sp)
 154              		.cfi_offset 1, -4
 155              		.cfi_offset 8, -8
 156 0006 0018     		addi	s0,sp,48
 157              		.cfi_def_cfa 8, 0
 158 0008 232EA4FC 		sw	a0,-36(s0)
 159 000c 232CB4FC 		sw	a1,-40(s0)
  87:Drivers/src/ch32v20x_dbgmcu.c ****     uint32_t val;
  88:Drivers/src/ch32v20x_dbgmcu.c **** 
  89:Drivers/src/ch32v20x_dbgmcu.c ****     if(NewState != DISABLE)
 160              		.loc 1 89 7
 161 0010 832784FD 		lw	a5,-40(s0)
 162 0014 81CB     		beq	a5,zero,.L9
  90:Drivers/src/ch32v20x_dbgmcu.c ****     {
  91:Drivers/src/ch32v20x_dbgmcu.c ****         __set_DEBUG_CR(DBGMCU_Periph);
 163              		.loc 1 91 9
 164 0016 0325C4FD 		lw	a0,-36(s0)
 165 001a 97000000 		call	__set_DEBUG_CR
 165      E7800000 
  92:Drivers/src/ch32v20x_dbgmcu.c ****     }
  93:Drivers/src/ch32v20x_dbgmcu.c ****     else
  94:Drivers/src/ch32v20x_dbgmcu.c ****     {
  95:Drivers/src/ch32v20x_dbgmcu.c ****         val = __get_DEBUG_CR();
  96:Drivers/src/ch32v20x_dbgmcu.c ****         val &= ~(uint32_t)DBGMCU_Periph;
  97:Drivers/src/ch32v20x_dbgmcu.c ****         __set_DEBUG_CR(val);
  98:Drivers/src/ch32v20x_dbgmcu.c ****     }
  99:Drivers/src/ch32v20x_dbgmcu.c **** 
 100:Drivers/src/ch32v20x_dbgmcu.c **** }
 166              		.loc 1 100 1
 167 0022 35A0     		j	.L11
 168              	.L9:
  95:Drivers/src/ch32v20x_dbgmcu.c ****         val &= ~(uint32_t)DBGMCU_Periph;
 169              		.loc 1 95 15
 170 0024 97000000 		call	__get_DEBUG_CR
 170      E7800000 
 171 002c 2326A4FE 		sw	a0,-20(s0)
  96:Drivers/src/ch32v20x_dbgmcu.c ****         __set_DEBUG_CR(val);
 172              		.loc 1 96 16
 173 0030 8327C4FD 		lw	a5,-36(s0)
 174 0034 93C7F7FF 		not	a5,a5
  96:Drivers/src/ch32v20x_dbgmcu.c ****         __set_DEBUG_CR(val);
 175              		.loc 1 96 13
 176 0038 0327C4FE 		lw	a4,-20(s0)
 177 003c F98F     		and	a5,a4,a5
 178 003e 2326F4FE 		sw	a5,-20(s0)
  97:Drivers/src/ch32v20x_dbgmcu.c ****     }
 179              		.loc 1 97 9
 180 0042 0325C4FE 		lw	a0,-20(s0)
 181 0046 97000000 		call	__set_DEBUG_CR
 181      E7800000 
 182              	.L11:
 183              		.loc 1 100 1
 184 004e 0100     		nop
 185 0050 B250     		lw	ra,44(sp)
 186              		.cfi_restore 1
 187 0052 2254     		lw	s0,40(sp)
GAS LISTING C:\Users\SOLDER~1\AppData\Local\Temp\cc0vShlo.s 			page 6


 188              		.cfi_restore 8
 189              		.cfi_def_cfa 2, 48
 190 0054 4561     		addi	sp,sp,48
 191              		.cfi_def_cfa_offset 0
 192 0056 8280     		jr	ra
 193              		.cfi_endproc
 194              	.LFE20:
 196              		.text
 197              	.Letext0:
 198              		.file 2 "c:\\dev_tools\\ch32_tools\\risc-v_embedded_gcc12\\riscv-none-elf\\include\\machine\\_defa
 199              		.file 3 "c:\\dev_tools\\ch32_tools\\risc-v_embedded_gcc12\\riscv-none-elf\\include\\sys\\_stdint.h
 200              		.file 4 "Drivers/inc/core_riscv.h"
GAS LISTING C:\Users\SOLDER~1\AppData\Local\Temp\cc0vShlo.s 			page 7

