GAS LISTING C:\Users\SOLDER~1\AppData\Local\Temp\cc6haz4O.s 			page 1


   1              		.file	"ch32v20x_misc.c"
   2              		.option nopic
   3              		.attribute arch, "rv32i2p0_m2p0_a2p0_c2p0_xw"
   4              		.attribute unaligned_access, 0
   5              		.attribute stack_align, 16
   6              		.text
   7              	.Ltext0:
   8              		.cfi_sections	.debug_frame
   9              		.file 0 "C:\\Users\\Solderingiron\\Documents\\GitHub\\VSC-make-example\\VSC_CH32V203C8T6" "Drivers
  10              		.section	.text.NVIC_EnableIRQ,"ax",@progbits
  11              		.align	1
  13              	NVIC_EnableIRQ:
  14              	.LFB3:
  15              		.file 1 "Drivers/inc/core_riscv.h"
   1:Drivers/inc/core_riscv.h **** /********************************** (C) COPYRIGHT  *******************************
   2:Drivers/inc/core_riscv.h ****  * File Name          : core_riscv.h
   3:Drivers/inc/core_riscv.h ****  * Author             : WCH
   4:Drivers/inc/core_riscv.h ****  * Version            : V1.0.0
   5:Drivers/inc/core_riscv.h ****  * Date               : 2021/06/06
   6:Drivers/inc/core_riscv.h ****  * Description        : RISC-V Core Peripheral Access Layer Header File for CH32V20x
   7:Drivers/inc/core_riscv.h ****  * Copyright (c) 2021 Nanjing Qinheng Microelectronics Co., Ltd.
   8:Drivers/inc/core_riscv.h ****  * SPDX-License-Identifier: Apache-2.0
   9:Drivers/inc/core_riscv.h ****  *******************************************************************************/
  10:Drivers/inc/core_riscv.h **** #ifndef __CORE_RISCV_H__
  11:Drivers/inc/core_riscv.h **** #define __CORE_RISCV_H__
  12:Drivers/inc/core_riscv.h **** 
  13:Drivers/inc/core_riscv.h **** /* IO definitions */
  14:Drivers/inc/core_riscv.h **** #ifdef __cplusplus
  15:Drivers/inc/core_riscv.h **** #define     __I     volatile                /*!< defines 'read only' permissions      */
  16:Drivers/inc/core_riscv.h **** #else
  17:Drivers/inc/core_riscv.h **** #define     __I     volatile const          /*!< defines 'read only' permissions     */
  18:Drivers/inc/core_riscv.h **** #endif
  19:Drivers/inc/core_riscv.h **** #define     __O     volatile                  /*!< defines 'write only' permissions     */
  20:Drivers/inc/core_riscv.h **** #define     __IO    volatile                  /*!< defines 'read / write' permissions   */
  21:Drivers/inc/core_riscv.h **** 
  22:Drivers/inc/core_riscv.h **** /* Standard Peripheral Library old types (maintained for legacy purpose) */
  23:Drivers/inc/core_riscv.h **** typedef __I uint64_t vuc64; /* Read Only */
  24:Drivers/inc/core_riscv.h **** typedef __I uint32_t vuc32; /* Read Only */
  25:Drivers/inc/core_riscv.h **** typedef __I uint16_t vuc16; /* Read Only */
  26:Drivers/inc/core_riscv.h **** typedef __I uint8_t vuc8; /* Read Only */
  27:Drivers/inc/core_riscv.h **** 
  28:Drivers/inc/core_riscv.h **** typedef const uint64_t uc64; /* Read Only */
  29:Drivers/inc/core_riscv.h **** typedef const uint32_t uc32; /* Read Only */
  30:Drivers/inc/core_riscv.h **** typedef const uint16_t uc16; /* Read Only */
  31:Drivers/inc/core_riscv.h **** typedef const uint8_t uc8; /* Read Only */
  32:Drivers/inc/core_riscv.h **** 
  33:Drivers/inc/core_riscv.h **** typedef __I int64_t vsc64; /* Read Only */
  34:Drivers/inc/core_riscv.h **** typedef __I int32_t vsc32; /* Read Only */
  35:Drivers/inc/core_riscv.h **** typedef __I int16_t vsc16; /* Read Only */
  36:Drivers/inc/core_riscv.h **** typedef __I int8_t vsc8; /* Read Only */
  37:Drivers/inc/core_riscv.h **** 
  38:Drivers/inc/core_riscv.h **** typedef const int64_t sc64; /* Read Only */
  39:Drivers/inc/core_riscv.h **** typedef const int32_t sc32; /* Read Only */
  40:Drivers/inc/core_riscv.h **** typedef const int16_t sc16; /* Read Only */
  41:Drivers/inc/core_riscv.h **** typedef const int8_t sc8; /* Read Only */
  42:Drivers/inc/core_riscv.h **** 
  43:Drivers/inc/core_riscv.h **** typedef __IO uint64_t vu64;
GAS LISTING C:\Users\SOLDER~1\AppData\Local\Temp\cc6haz4O.s 			page 2


  44:Drivers/inc/core_riscv.h **** typedef __IO uint32_t vu32;
  45:Drivers/inc/core_riscv.h **** typedef __IO uint16_t vu16;
  46:Drivers/inc/core_riscv.h **** typedef __IO uint8_t vu8;
  47:Drivers/inc/core_riscv.h **** 
  48:Drivers/inc/core_riscv.h **** typedef uint64_t u64;
  49:Drivers/inc/core_riscv.h **** typedef uint32_t u32;
  50:Drivers/inc/core_riscv.h **** typedef uint16_t u16;
  51:Drivers/inc/core_riscv.h **** typedef uint8_t u8;
  52:Drivers/inc/core_riscv.h **** 
  53:Drivers/inc/core_riscv.h **** typedef __IO int64_t vs64;
  54:Drivers/inc/core_riscv.h **** typedef __IO int32_t vs32;
  55:Drivers/inc/core_riscv.h **** typedef __IO int16_t vs16;
  56:Drivers/inc/core_riscv.h **** typedef __IO int8_t vs8;
  57:Drivers/inc/core_riscv.h **** 
  58:Drivers/inc/core_riscv.h **** typedef int64_t s64;
  59:Drivers/inc/core_riscv.h **** typedef int32_t s32;
  60:Drivers/inc/core_riscv.h **** typedef int16_t s16;
  61:Drivers/inc/core_riscv.h **** typedef int8_t s8;
  62:Drivers/inc/core_riscv.h **** 
  63:Drivers/inc/core_riscv.h **** typedef enum {
  64:Drivers/inc/core_riscv.h ****     NoREADY = 0, READY = !NoREADY
  65:Drivers/inc/core_riscv.h **** } ErrorStatus;
  66:Drivers/inc/core_riscv.h **** 
  67:Drivers/inc/core_riscv.h **** typedef enum {
  68:Drivers/inc/core_riscv.h ****     DISABLE = 0, ENABLE = !DISABLE
  69:Drivers/inc/core_riscv.h **** } FunctionalState;
  70:Drivers/inc/core_riscv.h **** 
  71:Drivers/inc/core_riscv.h **** typedef enum {
  72:Drivers/inc/core_riscv.h ****     RESET = 0, SET = !RESET
  73:Drivers/inc/core_riscv.h **** } FlagStatus, ITStatus;
  74:Drivers/inc/core_riscv.h **** 
  75:Drivers/inc/core_riscv.h **** #define   RV_STATIC_INLINE  static  inline
  76:Drivers/inc/core_riscv.h **** 
  77:Drivers/inc/core_riscv.h **** /* memory mapped structure for Program Fast Interrupt Controller (PFIC) */
  78:Drivers/inc/core_riscv.h **** typedef struct {
  79:Drivers/inc/core_riscv.h ****     __I uint32_t ISR[8];
  80:Drivers/inc/core_riscv.h ****     __I uint32_t IPR[8];
  81:Drivers/inc/core_riscv.h ****     __IO uint32_t ITHRESDR;
  82:Drivers/inc/core_riscv.h ****     __IO uint32_t RESERVED;
  83:Drivers/inc/core_riscv.h ****     __IO uint32_t CFGR;
  84:Drivers/inc/core_riscv.h ****     __I uint32_t GISR;
  85:Drivers/inc/core_riscv.h ****     uint8_t VTFIDR[4];
  86:Drivers/inc/core_riscv.h ****     uint8_t RESERVED0[12];
  87:Drivers/inc/core_riscv.h ****     __IO uint32_t VTFADDR[4];
  88:Drivers/inc/core_riscv.h ****     uint8_t RESERVED1[0x90];
  89:Drivers/inc/core_riscv.h ****     __O uint32_t IENR[8];
  90:Drivers/inc/core_riscv.h ****     uint8_t RESERVED2[0x60];
  91:Drivers/inc/core_riscv.h ****     __O uint32_t IRER[8];
  92:Drivers/inc/core_riscv.h ****     uint8_t RESERVED3[0x60];
  93:Drivers/inc/core_riscv.h ****     __O uint32_t IPSR[8];
  94:Drivers/inc/core_riscv.h ****     uint8_t RESERVED4[0x60];
  95:Drivers/inc/core_riscv.h ****     __O uint32_t IPRR[8];
  96:Drivers/inc/core_riscv.h ****     uint8_t RESERVED5[0x60];
  97:Drivers/inc/core_riscv.h ****     __IO uint32_t IACTR[8];
  98:Drivers/inc/core_riscv.h ****     uint8_t RESERVED6[0xE0];
  99:Drivers/inc/core_riscv.h ****     __IO uint8_t IPRIOR[256];
 100:Drivers/inc/core_riscv.h ****     uint8_t RESERVED7[0x810];
GAS LISTING C:\Users\SOLDER~1\AppData\Local\Temp\cc6haz4O.s 			page 3


 101:Drivers/inc/core_riscv.h ****     __IO uint32_t SCTLR;
 102:Drivers/inc/core_riscv.h **** } PFIC_Type;
 103:Drivers/inc/core_riscv.h **** 
 104:Drivers/inc/core_riscv.h **** /* memory mapped structure for SysTick */
 105:Drivers/inc/core_riscv.h **** typedef struct {
 106:Drivers/inc/core_riscv.h ****     __IO u32 CTLR;
 107:Drivers/inc/core_riscv.h ****     __IO u32 SR;
 108:Drivers/inc/core_riscv.h ****     __IO u64 CNT;
 109:Drivers/inc/core_riscv.h ****     __IO u64 CMP;
 110:Drivers/inc/core_riscv.h **** } SysTick_Type;
 111:Drivers/inc/core_riscv.h **** 
 112:Drivers/inc/core_riscv.h **** #define PFIC            ((PFIC_Type *) 0xE000E000 )
 113:Drivers/inc/core_riscv.h **** #define NVIC            PFIC
 114:Drivers/inc/core_riscv.h **** #define NVIC_KEY1       ((uint32_t)0xFA050000)
 115:Drivers/inc/core_riscv.h **** #define	NVIC_KEY2				((uint32_t)0xBCAF0000)
 116:Drivers/inc/core_riscv.h **** #define	NVIC_KEY3				((uint32_t)0xBEEF0000)
 117:Drivers/inc/core_riscv.h **** 
 118:Drivers/inc/core_riscv.h **** #define SysTick         ((SysTick_Type *) 0xE000F000)
 119:Drivers/inc/core_riscv.h **** 
 120:Drivers/inc/core_riscv.h **** /*********************************************************************
 121:Drivers/inc/core_riscv.h ****  * @fn      __enable_irq
 122:Drivers/inc/core_riscv.h ****  *
 123:Drivers/inc/core_riscv.h ****  * @brief   Enable Global Interrupt
 124:Drivers/inc/core_riscv.h ****  *
 125:Drivers/inc/core_riscv.h ****  * @return  none
 126:Drivers/inc/core_riscv.h ****  */
 127:Drivers/inc/core_riscv.h **** RV_STATIC_INLINE void __enable_irq() {
 128:Drivers/inc/core_riscv.h ****     __asm volatile ("csrw 0x800, %0" : : "r" (0x6088) );
 129:Drivers/inc/core_riscv.h **** }
 130:Drivers/inc/core_riscv.h **** 
 131:Drivers/inc/core_riscv.h **** /*********************************************************************
 132:Drivers/inc/core_riscv.h ****  * @fn      __disable_irq
 133:Drivers/inc/core_riscv.h ****  *
 134:Drivers/inc/core_riscv.h ****  * @brief   Disable Global Interrupt
 135:Drivers/inc/core_riscv.h ****  *
 136:Drivers/inc/core_riscv.h ****  * @return  none
 137:Drivers/inc/core_riscv.h ****  */
 138:Drivers/inc/core_riscv.h **** RV_STATIC_INLINE void __disable_irq() {
 139:Drivers/inc/core_riscv.h ****     __asm volatile ("csrw 0x800, %0" : : "r" (0x6000) );
 140:Drivers/inc/core_riscv.h **** }
 141:Drivers/inc/core_riscv.h **** 
 142:Drivers/inc/core_riscv.h **** /*********************************************************************
 143:Drivers/inc/core_riscv.h ****  * @fn      __NOP
 144:Drivers/inc/core_riscv.h ****  *
 145:Drivers/inc/core_riscv.h ****  * @brief   nop
 146:Drivers/inc/core_riscv.h ****  *
 147:Drivers/inc/core_riscv.h ****  * @return  none
 148:Drivers/inc/core_riscv.h ****  */
 149:Drivers/inc/core_riscv.h **** RV_STATIC_INLINE void __NOP() {
 150:Drivers/inc/core_riscv.h ****     __asm volatile ("nop");
 151:Drivers/inc/core_riscv.h **** }
 152:Drivers/inc/core_riscv.h **** 
 153:Drivers/inc/core_riscv.h **** /*********************************************************************
 154:Drivers/inc/core_riscv.h ****  * @fn       NVIC_EnableIRQ
 155:Drivers/inc/core_riscv.h ****  *
 156:Drivers/inc/core_riscv.h ****  * @brief   Disable Interrupt
 157:Drivers/inc/core_riscv.h ****  *
GAS LISTING C:\Users\SOLDER~1\AppData\Local\Temp\cc6haz4O.s 			page 4


 158:Drivers/inc/core_riscv.h ****  * @param   IRQn - Interrupt Numbers
 159:Drivers/inc/core_riscv.h ****  *
 160:Drivers/inc/core_riscv.h ****  * @return  none
 161:Drivers/inc/core_riscv.h ****  */
 162:Drivers/inc/core_riscv.h **** RV_STATIC_INLINE void NVIC_EnableIRQ(IRQn_Type IRQn) {
  16              		.loc 1 162 54
  17              		.cfi_startproc
  18 0000 0111     		addi	sp,sp,-32
  19              		.cfi_def_cfa_offset 32
  20 0002 22CE     		sw	s0,28(sp)
  21              		.cfi_offset 8, -4
  22 0004 0010     		addi	s0,sp,32
  23              		.cfi_def_cfa 8, 0
  24 0006 2326A4FE 		sw	a0,-20(s0)
 163:Drivers/inc/core_riscv.h ****     NVIC->IENR[((uint32_t) (IRQn) >> 5)] = (1 << ((uint32_t) (IRQn) & 0x1F));
  25              		.loc 1 163 69
  26 000a 8327C4FE 		lw	a5,-20(s0)
  27 000e FD8B     		andi	a5,a5,31
  28              		.loc 1 163 47
  29 0010 0547     		li	a4,1
  30 0012 B316F700 		sll	a3,a4,a5
  31              		.loc 1 163 9
  32 0016 37E700E0 		li	a4,-536813568
  33              		.loc 1 163 35
  34 001a 8327C4FE 		lw	a5,-20(s0)
  35 001e 9583     		srli	a5,a5,5
  36              		.loc 1 163 42
  37 0020 93870704 		addi	a5,a5,64
  38 0024 8A07     		slli	a5,a5,2
  39 0026 BA97     		add	a5,a4,a5
  40 0028 94C3     		sw	a3,0(a5)
 164:Drivers/inc/core_riscv.h **** }
  41              		.loc 1 164 1
  42 002a 0100     		nop
  43 002c 7244     		lw	s0,28(sp)
  44              		.cfi_restore 8
  45              		.cfi_def_cfa 2, 32
  46 002e 0561     		addi	sp,sp,32
  47              		.cfi_def_cfa_offset 0
  48 0030 8280     		jr	ra
  49              		.cfi_endproc
  50              	.LFE3:
  52              		.section	.text.NVIC_DisableIRQ,"ax",@progbits
  53              		.align	1
  55              	NVIC_DisableIRQ:
  56              	.LFB4:
 165:Drivers/inc/core_riscv.h **** 
 166:Drivers/inc/core_riscv.h **** /*********************************************************************
 167:Drivers/inc/core_riscv.h ****  * @fn       NVIC_DisableIRQ
 168:Drivers/inc/core_riscv.h ****  *
 169:Drivers/inc/core_riscv.h ****  * @brief   Disable Interrupt
 170:Drivers/inc/core_riscv.h ****  *
 171:Drivers/inc/core_riscv.h ****  * @param   IRQn - Interrupt Numbers
 172:Drivers/inc/core_riscv.h ****  *
 173:Drivers/inc/core_riscv.h ****  * @return  none
 174:Drivers/inc/core_riscv.h ****  */
 175:Drivers/inc/core_riscv.h **** RV_STATIC_INLINE void NVIC_DisableIRQ(IRQn_Type IRQn) {
GAS LISTING C:\Users\SOLDER~1\AppData\Local\Temp\cc6haz4O.s 			page 5


  57              		.loc 1 175 55
  58              		.cfi_startproc
  59 0000 0111     		addi	sp,sp,-32
  60              		.cfi_def_cfa_offset 32
  61 0002 22CE     		sw	s0,28(sp)
  62              		.cfi_offset 8, -4
  63 0004 0010     		addi	s0,sp,32
  64              		.cfi_def_cfa 8, 0
  65 0006 2326A4FE 		sw	a0,-20(s0)
 176:Drivers/inc/core_riscv.h ****     NVIC->IRER[((uint32_t) (IRQn) >> 5)] = (1 << ((uint32_t) (IRQn) & 0x1F));
  66              		.loc 1 176 69
  67 000a 8327C4FE 		lw	a5,-20(s0)
  68 000e FD8B     		andi	a5,a5,31
  69              		.loc 1 176 47
  70 0010 0547     		li	a4,1
  71 0012 B316F700 		sll	a3,a4,a5
  72              		.loc 1 176 9
  73 0016 37E700E0 		li	a4,-536813568
  74              		.loc 1 176 35
  75 001a 8327C4FE 		lw	a5,-20(s0)
  76 001e 9583     		srli	a5,a5,5
  77              		.loc 1 176 42
  78 0020 93870706 		addi	a5,a5,96
  79 0024 8A07     		slli	a5,a5,2
  80 0026 BA97     		add	a5,a4,a5
  81 0028 94C3     		sw	a3,0(a5)
 177:Drivers/inc/core_riscv.h **** }
  82              		.loc 1 177 1
  83 002a 0100     		nop
  84 002c 7244     		lw	s0,28(sp)
  85              		.cfi_restore 8
  86              		.cfi_def_cfa 2, 32
  87 002e 0561     		addi	sp,sp,32
  88              		.cfi_def_cfa_offset 0
  89 0030 8280     		jr	ra
  90              		.cfi_endproc
  91              	.LFE4:
  93              		.section	.text.NVIC_SetPriority,"ax",@progbits
  94              		.align	1
  96              	NVIC_SetPriority:
  97              	.LFB10:
 178:Drivers/inc/core_riscv.h **** 
 179:Drivers/inc/core_riscv.h **** /*********************************************************************
 180:Drivers/inc/core_riscv.h ****  * @fn       NVIC_GetStatusIRQ
 181:Drivers/inc/core_riscv.h ****  *
 182:Drivers/inc/core_riscv.h ****  * @brief   Get Interrupt Enable State
 183:Drivers/inc/core_riscv.h ****  *
 184:Drivers/inc/core_riscv.h ****  * @param   IRQn - Interrupt Numbers
 185:Drivers/inc/core_riscv.h ****  *
 186:Drivers/inc/core_riscv.h ****  * @return  1 - 1: Interrupt Pending Enable
 187:Drivers/inc/core_riscv.h ****  *                0 - Interrupt Pending Disable
 188:Drivers/inc/core_riscv.h ****  */
 189:Drivers/inc/core_riscv.h **** RV_STATIC_INLINE uint32_t NVIC_GetStatusIRQ(IRQn_Type IRQn) {
 190:Drivers/inc/core_riscv.h ****     return ((uint32_t) (
 191:Drivers/inc/core_riscv.h ****             (NVIC->ISR[(uint32_t) (IRQn) >> 5]
 192:Drivers/inc/core_riscv.h ****                     & (1 << ((uint32_t) (IRQn) & 0x1F))) ? 1 : 0));
 193:Drivers/inc/core_riscv.h **** }
GAS LISTING C:\Users\SOLDER~1\AppData\Local\Temp\cc6haz4O.s 			page 6


 194:Drivers/inc/core_riscv.h **** 
 195:Drivers/inc/core_riscv.h **** /*********************************************************************
 196:Drivers/inc/core_riscv.h ****  * @fn      NVIC_GetPendingIRQ
 197:Drivers/inc/core_riscv.h ****  *
 198:Drivers/inc/core_riscv.h ****  * @brief   Get Interrupt Pending State
 199:Drivers/inc/core_riscv.h ****  *
 200:Drivers/inc/core_riscv.h ****  * @param   IRQn - Interrupt Numbers
 201:Drivers/inc/core_riscv.h ****  *
 202:Drivers/inc/core_riscv.h ****  * @return  1 - 1: Interrupt Pending Enable
 203:Drivers/inc/core_riscv.h ****  *                0 - Interrupt Pending Disable
 204:Drivers/inc/core_riscv.h ****  */
 205:Drivers/inc/core_riscv.h **** RV_STATIC_INLINE uint32_t NVIC_GetPendingIRQ(IRQn_Type IRQn) {
 206:Drivers/inc/core_riscv.h ****     return ((uint32_t) (
 207:Drivers/inc/core_riscv.h ****             (NVIC->IPR[(uint32_t) (IRQn) >> 5]
 208:Drivers/inc/core_riscv.h ****                     & (1 << ((uint32_t) (IRQn) & 0x1F))) ? 1 : 0));
 209:Drivers/inc/core_riscv.h **** }
 210:Drivers/inc/core_riscv.h **** 
 211:Drivers/inc/core_riscv.h **** /*********************************************************************
 212:Drivers/inc/core_riscv.h ****  * @fn      NVIC_SetPendingIRQ
 213:Drivers/inc/core_riscv.h ****  *
 214:Drivers/inc/core_riscv.h ****  * @brief   Set Interrupt Pending
 215:Drivers/inc/core_riscv.h ****  *
 216:Drivers/inc/core_riscv.h ****  * @param   IRQn - Interrupt Numbers
 217:Drivers/inc/core_riscv.h ****  *
 218:Drivers/inc/core_riscv.h ****  * @return  none
 219:Drivers/inc/core_riscv.h ****  */
 220:Drivers/inc/core_riscv.h **** RV_STATIC_INLINE void NVIC_SetPendingIRQ(IRQn_Type IRQn) {
 221:Drivers/inc/core_riscv.h ****     NVIC->IPSR[((uint32_t) (IRQn) >> 5)] = (1 << ((uint32_t) (IRQn) & 0x1F));
 222:Drivers/inc/core_riscv.h **** }
 223:Drivers/inc/core_riscv.h **** 
 224:Drivers/inc/core_riscv.h **** /*********************************************************************
 225:Drivers/inc/core_riscv.h ****  * @fn      NVIC_ClearPendingIRQ
 226:Drivers/inc/core_riscv.h ****  *
 227:Drivers/inc/core_riscv.h ****  * @brief   Clear Interrupt Pending
 228:Drivers/inc/core_riscv.h ****  *
 229:Drivers/inc/core_riscv.h ****  * @param   IRQn - Interrupt Numbers
 230:Drivers/inc/core_riscv.h ****  *
 231:Drivers/inc/core_riscv.h ****  * @return  none
 232:Drivers/inc/core_riscv.h ****  */
 233:Drivers/inc/core_riscv.h **** RV_STATIC_INLINE void NVIC_ClearPendingIRQ(IRQn_Type IRQn) {
 234:Drivers/inc/core_riscv.h ****     NVIC->IPRR[((uint32_t) (IRQn) >> 5)] = (1 << ((uint32_t) (IRQn) & 0x1F));
 235:Drivers/inc/core_riscv.h **** }
 236:Drivers/inc/core_riscv.h **** 
 237:Drivers/inc/core_riscv.h **** /*********************************************************************
 238:Drivers/inc/core_riscv.h ****  * @fn      NVIC_GetActive
 239:Drivers/inc/core_riscv.h ****  *
 240:Drivers/inc/core_riscv.h ****  * @brief   Get Interrupt Active State
 241:Drivers/inc/core_riscv.h ****  *
 242:Drivers/inc/core_riscv.h ****  * @param   IRQn - Interrupt Numbers
 243:Drivers/inc/core_riscv.h ****  *
 244:Drivers/inc/core_riscv.h ****  * @return  1 - Interrupt Active
 245:Drivers/inc/core_riscv.h ****  *                0 - Interrupt No Active
 246:Drivers/inc/core_riscv.h ****  */
 247:Drivers/inc/core_riscv.h **** RV_STATIC_INLINE uint32_t NVIC_GetActive(IRQn_Type IRQn) {
 248:Drivers/inc/core_riscv.h ****     return ((uint32_t) (
 249:Drivers/inc/core_riscv.h ****             (NVIC->IACTR[(uint32_t) (IRQn) >> 5]
 250:Drivers/inc/core_riscv.h ****                     & (1 << ((uint32_t) (IRQn) & 0x1F))) ? 1 : 0));
GAS LISTING C:\Users\SOLDER~1\AppData\Local\Temp\cc6haz4O.s 			page 7


 251:Drivers/inc/core_riscv.h **** }
 252:Drivers/inc/core_riscv.h **** 
 253:Drivers/inc/core_riscv.h **** /**
 254:Drivers/inc/core_riscv.h ****  ******************************************************************************
 255:Drivers/inc/core_riscv.h ****  *  @breif Задать приоритет прерыванию
 256:Drivers/inc/core_riscv.h ****  *  @attention Чем ниже номер приоритета - тем он выше. 0 - высш
 257:Drivers/inc/core_riscv.h ****  *  @param   IRQn_Type IRQn - прерывание
 258:Drivers/inc/core_riscv.h ****  *  @param   priority - приоритет (от 0 до 7)
 259:Drivers/inc/core_riscv.h ****  ******************************************************************************
 260:Drivers/inc/core_riscv.h ****  */
 261:Drivers/inc/core_riscv.h **** 
 262:Drivers/inc/core_riscv.h **** RV_STATIC_INLINE void NVIC_SetPriority(IRQn_Type IRQn, uint8_t priority) {
  98              		.loc 1 262 74
  99              		.cfi_startproc
 100 0000 0111     		addi	sp,sp,-32
 101              		.cfi_def_cfa_offset 32
 102 0002 22CE     		sw	s0,28(sp)
 103              		.cfi_offset 8, -4
 104 0004 0010     		addi	s0,sp,32
 105              		.cfi_def_cfa 8, 0
 106 0006 2326A4FE 		sw	a0,-20(s0)
 107 000a AE87     		mv	a5,a1
 108 000c A305F4FE 		sb	a5,-21(s0)
 263:Drivers/inc/core_riscv.h ****     if (priority > 7) {
 109              		.loc 1 263 8
 110 0010 0347B4FE 		lbu	a4,-21(s0)
 111 0014 9D47     		li	a5,7
 112 0016 63F5E700 		bleu	a4,a5,.L4
 264:Drivers/inc/core_riscv.h ****         priority = 7;
 113              		.loc 1 264 18
 114 001a 9D47     		li	a5,7
 115 001c A305F4FE 		sb	a5,-21(s0)
 116              	.L4:
 265:Drivers/inc/core_riscv.h ****     }
 266:Drivers/inc/core_riscv.h ****     NVIC->IPRIOR[(uint32_t) (IRQn)] = priority << 5U;
 117              		.loc 1 266 9
 118 0020 B7E600E0 		li	a3,-536813568
 119              		.loc 1 266 48
 120 0024 8347B4FE 		lbu	a5,-21(s0)
 121 0028 9607     		slli	a5,a5,5
 122 002a 13F7F70F 		andi	a4,a5,0xff
 123              		.loc 1 266 37
 124 002e 8327C4FE 		lw	a5,-20(s0)
 125 0032 B697     		add	a5,a3,a5
 126 0034 2380E740 		sb	a4,1024(a5)
 267:Drivers/inc/core_riscv.h **** }
 127              		.loc 1 267 1
 128 0038 0100     		nop
 129 003a 7244     		lw	s0,28(sp)
 130              		.cfi_restore 8
 131              		.cfi_def_cfa 2, 32
 132 003c 0561     		addi	sp,sp,32
 133              		.cfi_def_cfa_offset 0
 134 003e 8280     		jr	ra
 135              		.cfi_endproc
 136              	.LFE10:
 138              		.globl	NVIC_Priority_Group
GAS LISTING C:\Users\SOLDER~1\AppData\Local\Temp\cc6haz4O.s 			page 8


 139              		.section	.sbss.NVIC_Priority_Group,"aw",@nobits
 140              		.align	2
 143              	NVIC_Priority_Group:
 144 0000 00000000 		.zero	4
 145              		.section	.text.NVIC_PriorityGroupConfig,"ax",@progbits
 146              		.align	1
 147              		.globl	NVIC_PriorityGroupConfig
 149              	NVIC_PriorityGroupConfig:
 150              	.LFB16:
 151              		.file 2 "Drivers/src/ch32v20x_misc.c"
   1:Drivers/src/ch32v20x_misc.c **** /********************************** (C) COPYRIGHT *******************************
   2:Drivers/src/ch32v20x_misc.c ****  * File Name          : ch32v20x_misc.c
   3:Drivers/src/ch32v20x_misc.c ****  * Author             : WCH
   4:Drivers/src/ch32v20x_misc.c ****  * Version            : V1.0.0
   5:Drivers/src/ch32v20x_misc.c ****  * Date               : 2021/06/06
   6:Drivers/src/ch32v20x_misc.c ****  * Description        : This file provides all the miscellaneous firmware functions .
   7:Drivers/src/ch32v20x_misc.c **** *********************************************************************************
   8:Drivers/src/ch32v20x_misc.c **** * Copyright (c) 2021 Nanjing Qinheng Microelectronics Co., Ltd.
   9:Drivers/src/ch32v20x_misc.c **** * Attention: This software (modified or not) and binary are used for 
  10:Drivers/src/ch32v20x_misc.c **** * microcontroller manufactured by Nanjing Qinheng Microelectronics.
  11:Drivers/src/ch32v20x_misc.c **** *******************************************************************************/
  12:Drivers/src/ch32v20x_misc.c **** #include "ch32v20x_misc.h"
  13:Drivers/src/ch32v20x_misc.c **** 
  14:Drivers/src/ch32v20x_misc.c **** __IO uint32_t NVIC_Priority_Group = 0;
  15:Drivers/src/ch32v20x_misc.c **** 
  16:Drivers/src/ch32v20x_misc.c **** /*********************************************************************
  17:Drivers/src/ch32v20x_misc.c ****  * @fn      NVIC_PriorityGroupConfig
  18:Drivers/src/ch32v20x_misc.c ****  *
  19:Drivers/src/ch32v20x_misc.c ****  * @brief   Configures the priority grouping - pre-emption priority and subpriority.
  20:Drivers/src/ch32v20x_misc.c ****  *
  21:Drivers/src/ch32v20x_misc.c ****  * @param   NVIC_PriorityGroup - specifies the priority grouping bits length.
  22:Drivers/src/ch32v20x_misc.c ****  *            NVIC_PriorityGroup_0 - 0 bits for pre-emption priority
  23:Drivers/src/ch32v20x_misc.c ****  *                                   4 bits for subpriority
  24:Drivers/src/ch32v20x_misc.c ****  *            NVIC_PriorityGroup_1 - 1 bits for pre-emption priority
  25:Drivers/src/ch32v20x_misc.c ****  *                                   3 bits for subpriority
  26:Drivers/src/ch32v20x_misc.c ****  *            NVIC_PriorityGroup_2 - 2 bits for pre-emption priority
  27:Drivers/src/ch32v20x_misc.c ****  *                                   2 bits for subpriority
  28:Drivers/src/ch32v20x_misc.c ****  *            NVIC_PriorityGroup_3 - 3 bits for pre-emption priority
  29:Drivers/src/ch32v20x_misc.c ****  *                                   1 bits for subpriority
  30:Drivers/src/ch32v20x_misc.c ****  *            NVIC_PriorityGroup_4 - 4 bits for pre-emption priority
  31:Drivers/src/ch32v20x_misc.c ****  *                                   0 bits for subpriority
  32:Drivers/src/ch32v20x_misc.c ****  *
  33:Drivers/src/ch32v20x_misc.c ****  * @return  none
  34:Drivers/src/ch32v20x_misc.c ****  */
  35:Drivers/src/ch32v20x_misc.c **** void NVIC_PriorityGroupConfig(uint32_t NVIC_PriorityGroup)
  36:Drivers/src/ch32v20x_misc.c **** {
 152              		.loc 2 36 1
 153              		.cfi_startproc
 154 0000 0111     		addi	sp,sp,-32
 155              		.cfi_def_cfa_offset 32
 156 0002 22CE     		sw	s0,28(sp)
 157              		.cfi_offset 8, -4
 158 0004 0010     		addi	s0,sp,32
 159              		.cfi_def_cfa 8, 0
 160 0006 2326A4FE 		sw	a0,-20(s0)
  37:Drivers/src/ch32v20x_misc.c ****     NVIC_Priority_Group = NVIC_PriorityGroup;
 161              		.loc 2 37 25
GAS LISTING C:\Users\SOLDER~1\AppData\Local\Temp\cc6haz4O.s 			page 9


 162 000a B7070000 		lui	a5,%hi(NVIC_Priority_Group)
 163 000e 0327C4FE 		lw	a4,-20(s0)
 164 0012 23A0E700 		sw	a4,%lo(NVIC_Priority_Group)(a5)
  38:Drivers/src/ch32v20x_misc.c **** }
 165              		.loc 2 38 1
 166 0016 0100     		nop
 167 0018 7244     		lw	s0,28(sp)
 168              		.cfi_restore 8
 169              		.cfi_def_cfa 2, 32
 170 001a 0561     		addi	sp,sp,32
 171              		.cfi_def_cfa_offset 0
 172 001c 8280     		jr	ra
 173              		.cfi_endproc
 174              	.LFE16:
 176              		.section	.text.NVIC_Init,"ax",@progbits
 177              		.align	1
 178              		.globl	NVIC_Init
 180              	NVIC_Init:
 181              	.LFB17:
  39:Drivers/src/ch32v20x_misc.c **** 
  40:Drivers/src/ch32v20x_misc.c **** /*********************************************************************
  41:Drivers/src/ch32v20x_misc.c ****  * @fn      NVIC_Init
  42:Drivers/src/ch32v20x_misc.c ****  *
  43:Drivers/src/ch32v20x_misc.c ****  * @brief   Initializes the NVIC peripheral according to the specified parameters in
  44:Drivers/src/ch32v20x_misc.c ****  *        the NVIC_InitStruct.
  45:Drivers/src/ch32v20x_misc.c ****  *
  46:Drivers/src/ch32v20x_misc.c ****  * @param   NVIC_InitStruct - pointer to a NVIC_InitTypeDef structure that contains the
  47:Drivers/src/ch32v20x_misc.c ****  *        configuration information for the specified NVIC peripheral.
  48:Drivers/src/ch32v20x_misc.c ****  *
  49:Drivers/src/ch32v20x_misc.c ****  * @return  none
  50:Drivers/src/ch32v20x_misc.c ****  */
  51:Drivers/src/ch32v20x_misc.c **** void NVIC_Init(NVIC_InitTypeDef *NVIC_InitStruct)
  52:Drivers/src/ch32v20x_misc.c **** {
 182              		.loc 2 52 1
 183              		.cfi_startproc
 184 0000 7971     		addi	sp,sp,-48
 185              		.cfi_def_cfa_offset 48
 186 0002 06D6     		sw	ra,44(sp)
 187 0004 22D4     		sw	s0,40(sp)
 188              		.cfi_offset 1, -4
 189              		.cfi_offset 8, -8
 190 0006 0018     		addi	s0,sp,48
 191              		.cfi_def_cfa 8, 0
 192 0008 232EA4FC 		sw	a0,-36(s0)
  53:Drivers/src/ch32v20x_misc.c ****     uint8_t tmppre = 0;
 193              		.loc 2 53 13
 194 000c A30704FE 		sb	zero,-17(s0)
  54:Drivers/src/ch32v20x_misc.c **** 
  55:Drivers/src/ch32v20x_misc.c ****     if(NVIC_Priority_Group == NVIC_PriorityGroup_0)
 195              		.loc 2 55 28
 196 0010 B7070000 		lui	a5,%hi(NVIC_Priority_Group)
 197 0014 83A70700 		lw	a5,%lo(NVIC_Priority_Group)(a5)
 198              		.loc 2 55 7
 199 0018 95E3     		bne	a5,zero,.L7
  56:Drivers/src/ch32v20x_misc.c ****     {
  57:Drivers/src/ch32v20x_misc.c ****         NVIC_SetPriority(NVIC_InitStruct->NVIC_IRQChannel, NVIC_InitStruct->NVIC_IRQChannelSubPrior
 200              		.loc 2 57 41
GAS LISTING C:\Users\SOLDER~1\AppData\Local\Temp\cc6haz4O.s 			page 10


 201 001a 8327C4FD 		lw	a5,-36(s0)
 202 001e 9C23     		lbu	a5,0(a5)
 203              		.loc 2 57 9
 204 0020 3E87     		mv	a4,a5
 205              		.loc 2 57 75
 206 0022 8327C4FD 		lw	a5,-36(s0)
 207 0026 BC23     		lbu	a5,2(a5)
 208              		.loc 2 57 9
 209 0028 9207     		slli	a5,a5,4
 210 002a 93F7F70F 		andi	a5,a5,0xff
 211 002e BE85     		mv	a1,a5
 212 0030 3A85     		mv	a0,a4
 213 0032 97000000 		call	NVIC_SetPriority
 213      E7800000 
 214 003a C9AA     		j	.L8
 215              	.L7:
  58:Drivers/src/ch32v20x_misc.c ****     }
  59:Drivers/src/ch32v20x_misc.c ****     else if(NVIC_Priority_Group == NVIC_PriorityGroup_1)
 216              		.loc 2 59 33
 217 003c B7070000 		lui	a5,%hi(NVIC_Priority_Group)
 218 0040 03A70700 		lw	a4,%lo(NVIC_Priority_Group)(a5)
 219              		.loc 2 59 12
 220 0044 8547     		li	a5,1
 221 0046 6310F706 		bne	a4,a5,.L9
  60:Drivers/src/ch32v20x_misc.c ****     {
  61:Drivers/src/ch32v20x_misc.c ****         if(NVIC_InitStruct->NVIC_IRQChannelPreemptionPriority == 1)
 222              		.loc 2 61 27
 223 004a 8327C4FD 		lw	a5,-36(s0)
 224 004e 9833     		lbu	a4,1(a5)
 225              		.loc 2 61 11
 226 0050 8547     		li	a5,1
 227 0052 6319F702 		bne	a4,a5,.L10
  62:Drivers/src/ch32v20x_misc.c ****         {
  63:Drivers/src/ch32v20x_misc.c ****             NVIC_SetPriority(NVIC_InitStruct->NVIC_IRQChannel, (1 << 7) | (NVIC_InitStruct->NVIC_IR
 228              		.loc 2 63 45
 229 0056 8327C4FD 		lw	a5,-36(s0)
 230 005a 9C23     		lbu	a5,0(a5)
 231              		.loc 2 63 13
 232 005c 3E87     		mv	a4,a5
 233              		.loc 2 63 91
 234 005e 8327C4FD 		lw	a5,-36(s0)
 235 0062 BC23     		lbu	a5,2(a5)
 236              		.loc 2 63 120
 237 0064 9207     		slli	a5,a5,4
 238              		.loc 2 63 73
 239 0066 E207     		slli	a5,a5,24
 240 0068 E187     		srai	a5,a5,24
 241 006a 93E707F8 		ori	a5,a5,-128
 242 006e E207     		slli	a5,a5,24
 243 0070 E187     		srai	a5,a5,24
 244              		.loc 2 63 13
 245 0072 93F7F70F 		andi	a5,a5,0xff
 246 0076 BE85     		mv	a1,a5
 247 0078 3A85     		mv	a0,a4
 248 007a 97000000 		call	NVIC_SetPriority
 248      E7800000 
 249 0082 69A2     		j	.L8
GAS LISTING C:\Users\SOLDER~1\AppData\Local\Temp\cc6haz4O.s 			page 11


 250              	.L10:
  64:Drivers/src/ch32v20x_misc.c ****         }
  65:Drivers/src/ch32v20x_misc.c ****         else
  66:Drivers/src/ch32v20x_misc.c ****         {
  67:Drivers/src/ch32v20x_misc.c ****             NVIC_SetPriority(NVIC_InitStruct->NVIC_IRQChannel, (0 << 7) | (NVIC_InitStruct->NVIC_IR
 251              		.loc 2 67 45
 252 0084 8327C4FD 		lw	a5,-36(s0)
 253 0088 9C23     		lbu	a5,0(a5)
 254              		.loc 2 67 13
 255 008a 3E87     		mv	a4,a5
 256              		.loc 2 67 91
 257 008c 8327C4FD 		lw	a5,-36(s0)
 258 0090 BC23     		lbu	a5,2(a5)
 259              		.loc 2 67 13
 260 0092 9207     		slli	a5,a5,4
 261 0094 93F7F70F 		andi	a5,a5,0xff
 262 0098 BE85     		mv	a1,a5
 263 009a 3A85     		mv	a0,a4
 264 009c 97000000 		call	NVIC_SetPriority
 264      E7800000 
 265 00a4 A5A2     		j	.L8
 266              	.L9:
  68:Drivers/src/ch32v20x_misc.c ****         }
  69:Drivers/src/ch32v20x_misc.c ****     }
  70:Drivers/src/ch32v20x_misc.c ****     else if(NVIC_Priority_Group == NVIC_PriorityGroup_2)
 267              		.loc 2 70 33
 268 00a6 B7070000 		lui	a5,%hi(NVIC_Priority_Group)
 269 00aa 03A70700 		lw	a4,%lo(NVIC_Priority_Group)(a5)
 270              		.loc 2 70 12
 271 00ae 8947     		li	a5,2
 272 00b0 6319F708 		bne	a4,a5,.L11
  71:Drivers/src/ch32v20x_misc.c ****     {
  72:Drivers/src/ch32v20x_misc.c ****         if(NVIC_InitStruct->NVIC_IRQChannelPreemptionPriority <= 1)
 273              		.loc 2 72 27
 274 00b4 8327C4FD 		lw	a5,-36(s0)
 275 00b8 9833     		lbu	a4,1(a5)
 276              		.loc 2 72 11
 277 00ba 8547     		li	a5,1
 278 00bc 63EEE702 		bgtu	a4,a5,.L12
  73:Drivers/src/ch32v20x_misc.c ****         {
  74:Drivers/src/ch32v20x_misc.c ****             tmppre = NVIC_InitStruct->NVIC_IRQChannelSubPriority + (4 * NVIC_InitStruct->NVIC_IRQCh
 279              		.loc 2 74 37
 280 00c0 8327C4FD 		lw	a5,-36(s0)
 281 00c4 B823     		lbu	a4,2(a5)
 282              		.loc 2 74 88
 283 00c6 8327C4FD 		lw	a5,-36(s0)
 284 00ca 9C33     		lbu	a5,1(a5)
 285              		.loc 2 74 66
 286 00cc 8A07     		slli	a5,a5,2
 287 00ce 93F7F70F 		andi	a5,a5,0xff
 288              		.loc 2 74 20
 289 00d2 BA97     		add	a5,a4,a5
 290 00d4 A307F4FE 		sb	a5,-17(s0)
  75:Drivers/src/ch32v20x_misc.c ****             NVIC_SetPriority(NVIC_InitStruct->NVIC_IRQChannel, (0 << 7) | (tmppre << 4));
 291              		.loc 2 75 45
 292 00d8 8327C4FD 		lw	a5,-36(s0)
 293 00dc 9C23     		lbu	a5,0(a5)
GAS LISTING C:\Users\SOLDER~1\AppData\Local\Temp\cc6haz4O.s 			page 12


 294              		.loc 2 75 13
 295 00de 3E87     		mv	a4,a5
 296 00e0 8347F4FE 		lbu	a5,-17(s0)
 297 00e4 9207     		slli	a5,a5,4
 298 00e6 93F7F70F 		andi	a5,a5,0xff
 299 00ea BE85     		mv	a1,a5
 300 00ec 3A85     		mv	a0,a4
 301 00ee 97000000 		call	NVIC_SetPriority
 301      E7800000 
 302 00f6 19AA     		j	.L8
 303              	.L12:
  76:Drivers/src/ch32v20x_misc.c ****         }
  77:Drivers/src/ch32v20x_misc.c ****         else
  78:Drivers/src/ch32v20x_misc.c ****         {
  79:Drivers/src/ch32v20x_misc.c ****             tmppre = NVIC_InitStruct->NVIC_IRQChannelSubPriority + (4 * (NVIC_InitStruct->NVIC_IRQC
 304              		.loc 2 79 37
 305 00f8 8327C4FD 		lw	a5,-36(s0)
 306 00fc B823     		lbu	a4,2(a5)
 307              		.loc 2 79 89
 308 00fe 8327C4FD 		lw	a5,-36(s0)
 309 0102 9C33     		lbu	a5,1(a5)
 310              		.loc 2 79 66
 311 0104 F917     		addi	a5,a5,-2
 312 0106 93F7F70F 		andi	a5,a5,0xff
 313 010a 8A07     		slli	a5,a5,2
 314 010c 93F7F70F 		andi	a5,a5,0xff
 315              		.loc 2 79 20
 316 0110 BA97     		add	a5,a4,a5
 317 0112 A307F4FE 		sb	a5,-17(s0)
  80:Drivers/src/ch32v20x_misc.c ****             NVIC_SetPriority(NVIC_InitStruct->NVIC_IRQChannel, (1 << 7) | (tmppre << 4));
 318              		.loc 2 80 45
 319 0116 8327C4FD 		lw	a5,-36(s0)
 320 011a 9C23     		lbu	a5,0(a5)
 321              		.loc 2 80 13
 322 011c 3E87     		mv	a4,a5
 323              		.loc 2 80 83
 324 011e 8347F4FE 		lbu	a5,-17(s0)
 325 0122 9207     		slli	a5,a5,4
 326              		.loc 2 80 73
 327 0124 E207     		slli	a5,a5,24
 328 0126 E187     		srai	a5,a5,24
 329 0128 93E707F8 		ori	a5,a5,-128
 330 012c E207     		slli	a5,a5,24
 331 012e E187     		srai	a5,a5,24
 332              		.loc 2 80 13
 333 0130 93F7F70F 		andi	a5,a5,0xff
 334 0134 BE85     		mv	a1,a5
 335 0136 3A85     		mv	a0,a4
 336 0138 97000000 		call	NVIC_SetPriority
 336      E7800000 
 337 0140 F1A0     		j	.L8
 338              	.L11:
  81:Drivers/src/ch32v20x_misc.c ****         }
  82:Drivers/src/ch32v20x_misc.c ****     }
  83:Drivers/src/ch32v20x_misc.c ****     else if(NVIC_Priority_Group == NVIC_PriorityGroup_3)
 339              		.loc 2 83 33
 340 0142 B7070000 		lui	a5,%hi(NVIC_Priority_Group)
GAS LISTING C:\Users\SOLDER~1\AppData\Local\Temp\cc6haz4O.s 			page 13


 341 0146 03A70700 		lw	a4,%lo(NVIC_Priority_Group)(a5)
 342              		.loc 2 83 12
 343 014a 8D47     		li	a5,3
 344 014c 6319F708 		bne	a4,a5,.L13
  84:Drivers/src/ch32v20x_misc.c ****     {
  85:Drivers/src/ch32v20x_misc.c ****         if(NVIC_InitStruct->NVIC_IRQChannelPreemptionPriority <= 3)
 345              		.loc 2 85 27
 346 0150 8327C4FD 		lw	a5,-36(s0)
 347 0154 9833     		lbu	a4,1(a5)
 348              		.loc 2 85 11
 349 0156 8D47     		li	a5,3
 350 0158 63EEE702 		bgtu	a4,a5,.L14
  86:Drivers/src/ch32v20x_misc.c ****         {
  87:Drivers/src/ch32v20x_misc.c ****             tmppre = NVIC_InitStruct->NVIC_IRQChannelSubPriority + (2 * NVIC_InitStruct->NVIC_IRQCh
 351              		.loc 2 87 37
 352 015c 8327C4FD 		lw	a5,-36(s0)
 353 0160 B823     		lbu	a4,2(a5)
 354              		.loc 2 87 88
 355 0162 8327C4FD 		lw	a5,-36(s0)
 356 0166 9C33     		lbu	a5,1(a5)
 357              		.loc 2 87 66
 358 0168 8607     		slli	a5,a5,1
 359 016a 93F7F70F 		andi	a5,a5,0xff
 360              		.loc 2 87 20
 361 016e BA97     		add	a5,a4,a5
 362 0170 A307F4FE 		sb	a5,-17(s0)
  88:Drivers/src/ch32v20x_misc.c ****             NVIC_SetPriority(NVIC_InitStruct->NVIC_IRQChannel, (0 << 7) | (tmppre << 4));
 363              		.loc 2 88 45
 364 0174 8327C4FD 		lw	a5,-36(s0)
 365 0178 9C23     		lbu	a5,0(a5)
 366              		.loc 2 88 13
 367 017a 3E87     		mv	a4,a5
 368 017c 8347F4FE 		lbu	a5,-17(s0)
 369 0180 9207     		slli	a5,a5,4
 370 0182 93F7F70F 		andi	a5,a5,0xff
 371 0186 BE85     		mv	a1,a5
 372 0188 3A85     		mv	a0,a4
 373 018a 97000000 		call	NVIC_SetPriority
 373      E7800000 
 374 0192 ADA8     		j	.L8
 375              	.L14:
  89:Drivers/src/ch32v20x_misc.c ****         }
  90:Drivers/src/ch32v20x_misc.c ****         else
  91:Drivers/src/ch32v20x_misc.c ****         {
  92:Drivers/src/ch32v20x_misc.c ****             tmppre = NVIC_InitStruct->NVIC_IRQChannelSubPriority + (2 * (NVIC_InitStruct->NVIC_IRQC
 376              		.loc 2 92 37
 377 0194 8327C4FD 		lw	a5,-36(s0)
 378 0198 B823     		lbu	a4,2(a5)
 379              		.loc 2 92 89
 380 019a 8327C4FD 		lw	a5,-36(s0)
 381 019e 9C33     		lbu	a5,1(a5)
 382              		.loc 2 92 66
 383 01a0 F117     		addi	a5,a5,-4
 384 01a2 93F7F70F 		andi	a5,a5,0xff
 385 01a6 8607     		slli	a5,a5,1
 386 01a8 93F7F70F 		andi	a5,a5,0xff
 387              		.loc 2 92 20
GAS LISTING C:\Users\SOLDER~1\AppData\Local\Temp\cc6haz4O.s 			page 14


 388 01ac BA97     		add	a5,a4,a5
 389 01ae A307F4FE 		sb	a5,-17(s0)
  93:Drivers/src/ch32v20x_misc.c ****             NVIC_SetPriority(NVIC_InitStruct->NVIC_IRQChannel, (1 << 7) | (tmppre << 4));
 390              		.loc 2 93 45
 391 01b2 8327C4FD 		lw	a5,-36(s0)
 392 01b6 9C23     		lbu	a5,0(a5)
 393              		.loc 2 93 13
 394 01b8 3E87     		mv	a4,a5
 395              		.loc 2 93 83
 396 01ba 8347F4FE 		lbu	a5,-17(s0)
 397 01be 9207     		slli	a5,a5,4
 398              		.loc 2 93 73
 399 01c0 E207     		slli	a5,a5,24
 400 01c2 E187     		srai	a5,a5,24
 401 01c4 93E707F8 		ori	a5,a5,-128
 402 01c8 E207     		slli	a5,a5,24
 403 01ca E187     		srai	a5,a5,24
 404              		.loc 2 93 13
 405 01cc 93F7F70F 		andi	a5,a5,0xff
 406 01d0 BE85     		mv	a1,a5
 407 01d2 3A85     		mv	a0,a4
 408 01d4 97000000 		call	NVIC_SetPriority
 408      E7800000 
 409 01dc 05A8     		j	.L8
 410              	.L13:
  94:Drivers/src/ch32v20x_misc.c ****         }
  95:Drivers/src/ch32v20x_misc.c ****     }
  96:Drivers/src/ch32v20x_misc.c ****     else if(NVIC_Priority_Group == NVIC_PriorityGroup_4)
 411              		.loc 2 96 33
 412 01de B7070000 		lui	a5,%hi(NVIC_Priority_Group)
 413 01e2 03A70700 		lw	a4,%lo(NVIC_Priority_Group)(a5)
 414              		.loc 2 96 12
 415 01e6 9147     		li	a5,4
 416 01e8 6312F702 		bne	a4,a5,.L8
  97:Drivers/src/ch32v20x_misc.c ****     {
  98:Drivers/src/ch32v20x_misc.c ****         NVIC_SetPriority(NVIC_InitStruct->NVIC_IRQChannel, NVIC_InitStruct->NVIC_IRQChannelPreempti
 417              		.loc 2 98 41
 418 01ec 8327C4FD 		lw	a5,-36(s0)
 419 01f0 9C23     		lbu	a5,0(a5)
 420              		.loc 2 98 9
 421 01f2 3E87     		mv	a4,a5
 422              		.loc 2 98 75
 423 01f4 8327C4FD 		lw	a5,-36(s0)
 424 01f8 9C33     		lbu	a5,1(a5)
 425              		.loc 2 98 9
 426 01fa 9207     		slli	a5,a5,4
 427 01fc 93F7F70F 		andi	a5,a5,0xff
 428 0200 BE85     		mv	a1,a5
 429 0202 3A85     		mv	a0,a4
 430 0204 97000000 		call	NVIC_SetPriority
 430      E7800000 
 431              	.L8:
  99:Drivers/src/ch32v20x_misc.c ****     }
 100:Drivers/src/ch32v20x_misc.c **** 
 101:Drivers/src/ch32v20x_misc.c ****     if(NVIC_InitStruct->NVIC_IRQChannelCmd != DISABLE)
 432              		.loc 2 101 23
 433 020c 8327C4FD 		lw	a5,-36(s0)
GAS LISTING C:\Users\SOLDER~1\AppData\Local\Temp\cc6haz4O.s 			page 15


 434 0210 DC43     		lw	a5,4(a5)
 435              		.loc 2 101 7
 436 0212 91CB     		beq	a5,zero,.L15
 102:Drivers/src/ch32v20x_misc.c ****     {
 103:Drivers/src/ch32v20x_misc.c ****         NVIC_EnableIRQ(NVIC_InitStruct->NVIC_IRQChannel);
 437              		.loc 2 103 39
 438 0214 8327C4FD 		lw	a5,-36(s0)
 439 0218 9C23     		lbu	a5,0(a5)
 440              		.loc 2 103 9
 441 021a 3E85     		mv	a0,a5
 442 021c 97000000 		call	NVIC_EnableIRQ
 442      E7800000 
 104:Drivers/src/ch32v20x_misc.c ****     }
 105:Drivers/src/ch32v20x_misc.c ****     else
 106:Drivers/src/ch32v20x_misc.c ****     {
 107:Drivers/src/ch32v20x_misc.c ****         NVIC_DisableIRQ(NVIC_InitStruct->NVIC_IRQChannel);
 108:Drivers/src/ch32v20x_misc.c ****     }
 109:Drivers/src/ch32v20x_misc.c **** }
 443              		.loc 2 109 1
 444 0224 09A8     		j	.L17
 445              	.L15:
 107:Drivers/src/ch32v20x_misc.c ****     }
 446              		.loc 2 107 40
 447 0226 8327C4FD 		lw	a5,-36(s0)
 448 022a 9C23     		lbu	a5,0(a5)
 107:Drivers/src/ch32v20x_misc.c ****     }
 449              		.loc 2 107 9
 450 022c 3E85     		mv	a0,a5
 451 022e 97000000 		call	NVIC_DisableIRQ
 451      E7800000 
 452              	.L17:
 453              		.loc 2 109 1
 454 0236 0100     		nop
 455 0238 B250     		lw	ra,44(sp)
 456              		.cfi_restore 1
 457 023a 2254     		lw	s0,40(sp)
 458              		.cfi_restore 8
 459              		.cfi_def_cfa 2, 48
 460 023c 4561     		addi	sp,sp,48
 461              		.cfi_def_cfa_offset 0
 462 023e 8280     		jr	ra
 463              		.cfi_endproc
 464              	.LFE17:
 466              		.text
 467              	.Letext0:
 468              		.file 3 "Drivers/inc/ch32v20x.h"
 469              		.file 4 "c:\\dev_tools\\ch32_tools\\risc-v_embedded_gcc12\\riscv-none-elf\\include\\machine\\_defa
 470              		.file 5 "c:\\dev_tools\\ch32_tools\\risc-v_embedded_gcc12\\riscv-none-elf\\include\\sys\\_stdint.h
 471              		.file 6 "Drivers/inc/ch32v20x_misc.h"
GAS LISTING C:\Users\SOLDER~1\AppData\Local\Temp\cc6haz4O.s 			page 16

