GAS LISTING C:\Users\SOLDER~1\AppData\Local\Temp\ccbih9yx.s 			page 1


   1              		.file	"ch32v20x_opa.c"
   2              		.option nopic
   3              		.attribute arch, "rv32i2p0_m2p0_a2p0_c2p0_xw"
   4              		.attribute unaligned_access, 0
   5              		.attribute stack_align, 16
   6              		.text
   7              	.Ltext0:
   8              		.cfi_sections	.debug_frame
   9              		.file 0 "C:\\Users\\Solderingiron\\Documents\\GitHub\\VSC-make-example\\VSC_CH32V203C8T6" "Drivers
  10              		.section	.text.OPA_DeInit,"ax",@progbits
  11              		.align	1
  12              		.globl	OPA_DeInit
  14              	OPA_DeInit:
  15              	.LFB16:
  16              		.file 1 "Drivers/src/ch32v20x_opa.c"
   1:Drivers/src/ch32v20x_opa.c **** /********************************** (C) COPYRIGHT  *******************************
   2:Drivers/src/ch32v20x_opa.c ****  * File Name          : ch32v20x_opa.c
   3:Drivers/src/ch32v20x_opa.c ****  * Author             : WCH
   4:Drivers/src/ch32v20x_opa.c ****  * Version            : V1.0.0
   5:Drivers/src/ch32v20x_opa.c ****  * Date               : 2021/06/06
   6:Drivers/src/ch32v20x_opa.c ****  * Description        : This file provides all the OPA firmware functions.
   7:Drivers/src/ch32v20x_opa.c ****  *********************************************************************************
   8:Drivers/src/ch32v20x_opa.c ****  * Copyright (c) 2021 Nanjing Qinheng Microelectronics Co., Ltd.
   9:Drivers/src/ch32v20x_opa.c ****  * Attention: This software (modified or not) and binary are used for 
  10:Drivers/src/ch32v20x_opa.c ****  * microcontroller manufactured by Nanjing Qinheng Microelectronics.
  11:Drivers/src/ch32v20x_opa.c ****  *******************************************************************************/
  12:Drivers/src/ch32v20x_opa.c **** #include "ch32v20x_opa.h"
  13:Drivers/src/ch32v20x_opa.c **** 
  14:Drivers/src/ch32v20x_opa.c **** #define OPA_MASK         ((uint32_t)0x000F)
  15:Drivers/src/ch32v20x_opa.c **** #define OPA_Total_NUM    4
  16:Drivers/src/ch32v20x_opa.c **** 
  17:Drivers/src/ch32v20x_opa.c **** /*********************************************************************
  18:Drivers/src/ch32v20x_opa.c ****  * @fn      OPA_DeInit
  19:Drivers/src/ch32v20x_opa.c ****  *
  20:Drivers/src/ch32v20x_opa.c ****  * @brief   Deinitializes the OPA peripheral registers to their default
  21:Drivers/src/ch32v20x_opa.c ****  *        reset values.
  22:Drivers/src/ch32v20x_opa.c ****  *
  23:Drivers/src/ch32v20x_opa.c ****  * @return  none
  24:Drivers/src/ch32v20x_opa.c ****  */
  25:Drivers/src/ch32v20x_opa.c **** void OPA_DeInit(void)
  26:Drivers/src/ch32v20x_opa.c **** {
  17              		.loc 1 26 1
  18              		.cfi_startproc
  19 0000 4111     		addi	sp,sp,-16
  20              		.cfi_def_cfa_offset 16
  21 0002 22C6     		sw	s0,12(sp)
  22              		.cfi_offset 8, -4
  23 0004 0008     		addi	s0,sp,16
  24              		.cfi_def_cfa 8, 0
  27:Drivers/src/ch32v20x_opa.c ****     OPA->CR = 0;
  25              		.loc 1 27 8
  26 0006 B7470240 		li	a5,1073889280
  27 000a 93874780 		addi	a5,a5,-2044
  28              		.loc 1 27 13
  29 000e 23A00700 		sw	zero,0(a5)
  28:Drivers/src/ch32v20x_opa.c **** }
  30              		.loc 1 28 1
GAS LISTING C:\Users\SOLDER~1\AppData\Local\Temp\ccbih9yx.s 			page 2


  31 0012 0100     		nop
  32 0014 3244     		lw	s0,12(sp)
  33              		.cfi_restore 8
  34              		.cfi_def_cfa 2, 16
  35 0016 4101     		addi	sp,sp,16
  36              		.cfi_def_cfa_offset 0
  37 0018 8280     		jr	ra
  38              		.cfi_endproc
  39              	.LFE16:
  41              		.section	.text.OPA_Init,"ax",@progbits
  42              		.align	1
  43              		.globl	OPA_Init
  45              	OPA_Init:
  46              	.LFB17:
  29:Drivers/src/ch32v20x_opa.c **** 
  30:Drivers/src/ch32v20x_opa.c **** /*********************************************************************
  31:Drivers/src/ch32v20x_opa.c ****  * @fn      OPA_Init
  32:Drivers/src/ch32v20x_opa.c ****  *
  33:Drivers/src/ch32v20x_opa.c ****  * @brief   Initializes the OPA peripheral according to the specified
  34:Drivers/src/ch32v20x_opa.c ****  *        parameters in the OPA_InitStruct.
  35:Drivers/src/ch32v20x_opa.c ****  *
  36:Drivers/src/ch32v20x_opa.c ****  * @param   OPA_InitStruct - pointer to a OPA_InitTypeDef structure
  37:Drivers/src/ch32v20x_opa.c ****  *
  38:Drivers/src/ch32v20x_opa.c ****  * @return  none
  39:Drivers/src/ch32v20x_opa.c ****  */
  40:Drivers/src/ch32v20x_opa.c **** void OPA_Init(OPA_InitTypeDef *OPA_InitStruct)
  41:Drivers/src/ch32v20x_opa.c **** {
  47              		.loc 1 41 1
  48              		.cfi_startproc
  49 0000 7971     		addi	sp,sp,-48
  50              		.cfi_def_cfa_offset 48
  51 0002 22D6     		sw	s0,44(sp)
  52              		.cfi_offset 8, -4
  53 0004 0018     		addi	s0,sp,48
  54              		.cfi_def_cfa 8, 0
  55 0006 232EA4FC 		sw	a0,-36(s0)
  42:Drivers/src/ch32v20x_opa.c ****     uint32_t tmp = 0;
  56              		.loc 1 42 14
  57 000a 232604FE 		sw	zero,-20(s0)
  43:Drivers/src/ch32v20x_opa.c ****     tmp = OPA->CR;
  58              		.loc 1 43 14
  59 000e B7470240 		li	a5,1073889280
  60 0012 93874780 		addi	a5,a5,-2044
  61              		.loc 1 43 9
  62 0016 9C43     		lw	a5,0(a5)
  63 0018 2326F4FE 		sw	a5,-20(s0)
  44:Drivers/src/ch32v20x_opa.c ****     tmp &= ~(OPA_MASK << (OPA_InitStruct->OPA_NUM * OPA_Total_NUM));
  64              		.loc 1 44 41
  65 001c 8327C4FD 		lw	a5,-36(s0)
  66 0020 9C43     		lw	a5,0(a5)
  67              		.loc 1 44 51
  68 0022 8A07     		slli	a5,a5,2
  69              		.loc 1 44 23
  70 0024 3D47     		li	a4,15
  71 0026 B317F700 		sll	a5,a4,a5
  72              		.loc 1 44 12
  73 002a 93C7F7FF 		not	a5,a5
GAS LISTING C:\Users\SOLDER~1\AppData\Local\Temp\ccbih9yx.s 			page 3


  74              		.loc 1 44 9
  75 002e 0327C4FE 		lw	a4,-20(s0)
  76 0032 F98F     		and	a5,a4,a5
  77 0034 2326F4FE 		sw	a5,-20(s0)
  45:Drivers/src/ch32v20x_opa.c ****     tmp |= (((OPA_InitStruct->PSEL << OPA_PSEL_OFFSET) | (OPA_InitStruct->NSEL << OPA_NSEL_OFFSET) 
  78              		.loc 1 45 29
  79 0038 8327C4FD 		lw	a5,-36(s0)
  80 003c DC43     		lw	a5,4(a5)
  81              		.loc 1 45 36
  82 003e 13973700 		slli	a4,a5,3
  83              		.loc 1 45 73
  84 0042 8327C4FD 		lw	a5,-36(s0)
  85 0046 9C47     		lw	a5,8(a5)
  86              		.loc 1 45 80
  87 0048 8A07     		slli	a5,a5,2
  88              		.loc 1 45 56
  89 004a 5D8F     		or	a4,a4,a5
  90              		.loc 1 45 117
  91 004c 8327C4FD 		lw	a5,-36(s0)
  92 0050 DC47     		lw	a5,12(a5)
  93              		.loc 1 45 124
  94 0052 8607     		slli	a5,a5,1
  95              		.loc 1 45 100
  96 0054 5D8F     		or	a4,a4,a5
  97              		.loc 1 45 163
  98 0056 8327C4FD 		lw	a5,-36(s0)
  99 005a 9C43     		lw	a5,0(a5)
 100              		.loc 1 45 173
 101 005c 8A07     		slli	a5,a5,2
 102              		.loc 1 45 145
 103 005e B317F700 		sll	a5,a4,a5
 104              		.loc 1 45 9
 105 0062 0327C4FE 		lw	a4,-20(s0)
 106 0066 D98F     		or	a5,a4,a5
 107 0068 2326F4FE 		sw	a5,-20(s0)
  46:Drivers/src/ch32v20x_opa.c ****     OPA->CR = tmp;
 108              		.loc 1 46 8
 109 006c B7470240 		li	a5,1073889280
 110 0070 93874780 		addi	a5,a5,-2044
 111              		.loc 1 46 13
 112 0074 0327C4FE 		lw	a4,-20(s0)
 113 0078 98C3     		sw	a4,0(a5)
  47:Drivers/src/ch32v20x_opa.c **** }
 114              		.loc 1 47 1
 115 007a 0100     		nop
 116 007c 3254     		lw	s0,44(sp)
 117              		.cfi_restore 8
 118              		.cfi_def_cfa 2, 48
 119 007e 4561     		addi	sp,sp,48
 120              		.cfi_def_cfa_offset 0
 121 0080 8280     		jr	ra
 122              		.cfi_endproc
 123              	.LFE17:
 125              		.section	.text.OPA_StructInit,"ax",@progbits
 126              		.align	1
 127              		.globl	OPA_StructInit
 129              	OPA_StructInit:
GAS LISTING C:\Users\SOLDER~1\AppData\Local\Temp\ccbih9yx.s 			page 4


 130              	.LFB18:
  48:Drivers/src/ch32v20x_opa.c **** 
  49:Drivers/src/ch32v20x_opa.c **** /*********************************************************************
  50:Drivers/src/ch32v20x_opa.c ****  * @fn      OPA_StructInit
  51:Drivers/src/ch32v20x_opa.c ****  *
  52:Drivers/src/ch32v20x_opa.c ****  * @brief   Fills each OPA_StructInit member with its reset value.
  53:Drivers/src/ch32v20x_opa.c ****  *
  54:Drivers/src/ch32v20x_opa.c ****  * @param   OPA_StructInit - pointer to a OPA_InitTypeDef structure
  55:Drivers/src/ch32v20x_opa.c ****  *
  56:Drivers/src/ch32v20x_opa.c ****  * @return  none
  57:Drivers/src/ch32v20x_opa.c ****  */
  58:Drivers/src/ch32v20x_opa.c **** void OPA_StructInit(OPA_InitTypeDef *OPA_InitStruct)
  59:Drivers/src/ch32v20x_opa.c **** {
 131              		.loc 1 59 1
 132              		.cfi_startproc
 133 0000 0111     		addi	sp,sp,-32
 134              		.cfi_def_cfa_offset 32
 135 0002 22CE     		sw	s0,28(sp)
 136              		.cfi_offset 8, -4
 137 0004 0010     		addi	s0,sp,32
 138              		.cfi_def_cfa 8, 0
 139 0006 2326A4FE 		sw	a0,-20(s0)
  60:Drivers/src/ch32v20x_opa.c ****     OPA_InitStruct->Mode = OUT_IO_OUT1;
 140              		.loc 1 60 26
 141 000a 8327C4FE 		lw	a5,-20(s0)
 142 000e 0547     		li	a4,1
 143 0010 D8C7     		sw	a4,12(a5)
  61:Drivers/src/ch32v20x_opa.c ****     OPA_InitStruct->PSEL = CHP0;
 144              		.loc 1 61 26
 145 0012 8327C4FE 		lw	a5,-20(s0)
 146 0016 23A20700 		sw	zero,4(a5)
  62:Drivers/src/ch32v20x_opa.c ****     OPA_InitStruct->NSEL = CHN0;
 147              		.loc 1 62 26
 148 001a 8327C4FE 		lw	a5,-20(s0)
 149 001e 23A40700 		sw	zero,8(a5)
  63:Drivers/src/ch32v20x_opa.c ****     OPA_InitStruct->OPA_NUM = OPA1;
 150              		.loc 1 63 29
 151 0022 8327C4FE 		lw	a5,-20(s0)
 152 0026 23A00700 		sw	zero,0(a5)
  64:Drivers/src/ch32v20x_opa.c **** }
 153              		.loc 1 64 1
 154 002a 0100     		nop
 155 002c 7244     		lw	s0,28(sp)
 156              		.cfi_restore 8
 157              		.cfi_def_cfa 2, 32
 158 002e 0561     		addi	sp,sp,32
 159              		.cfi_def_cfa_offset 0
 160 0030 8280     		jr	ra
 161              		.cfi_endproc
 162              	.LFE18:
 164              		.section	.text.OPA_Cmd,"ax",@progbits
 165              		.align	1
 166              		.globl	OPA_Cmd
 168              	OPA_Cmd:
 169              	.LFB19:
  65:Drivers/src/ch32v20x_opa.c **** 
  66:Drivers/src/ch32v20x_opa.c **** /*********************************************************************
GAS LISTING C:\Users\SOLDER~1\AppData\Local\Temp\ccbih9yx.s 			page 5


  67:Drivers/src/ch32v20x_opa.c ****  * @fn      OPA_Cmd
  68:Drivers/src/ch32v20x_opa.c ****  *
  69:Drivers/src/ch32v20x_opa.c ****  * @brief   Enables or disables the specified OPA peripheral.
  70:Drivers/src/ch32v20x_opa.c ****  *
  71:Drivers/src/ch32v20x_opa.c ****  * @param   OPA_NUM - Select OPA
  72:Drivers/src/ch32v20x_opa.c ****  *            NewState - ENABLE or DISABLE.
  73:Drivers/src/ch32v20x_opa.c ****  *
  74:Drivers/src/ch32v20x_opa.c ****  * @return  none
  75:Drivers/src/ch32v20x_opa.c ****  */
  76:Drivers/src/ch32v20x_opa.c **** void OPA_Cmd(OPA_Num_TypeDef OPA_NUM, FunctionalState NewState)
  77:Drivers/src/ch32v20x_opa.c **** {
 170              		.loc 1 77 1
 171              		.cfi_startproc
 172 0000 0111     		addi	sp,sp,-32
 173              		.cfi_def_cfa_offset 32
 174 0002 22CE     		sw	s0,28(sp)
 175              		.cfi_offset 8, -4
 176 0004 0010     		addi	s0,sp,32
 177              		.cfi_def_cfa 8, 0
 178 0006 2326A4FE 		sw	a0,-20(s0)
 179 000a 2324B4FE 		sw	a1,-24(s0)
  78:Drivers/src/ch32v20x_opa.c ****     if(NewState == ENABLE)
 180              		.loc 1 78 7
 181 000e 032784FE 		lw	a4,-24(s0)
 182 0012 8547     		li	a5,1
 183 0014 6315F702 		bne	a4,a5,.L5
  79:Drivers/src/ch32v20x_opa.c ****     {
  80:Drivers/src/ch32v20x_opa.c ****         OPA->CR |= (1 << (OPA_NUM * OPA_Total_NUM));
 184              		.loc 1 80 12
 185 0018 B7470240 		li	a5,1073889280
 186 001c 93874780 		addi	a5,a5,-2044
 187 0020 9843     		lw	a4,0(a5)
 188              		.loc 1 80 35
 189 0022 8327C4FE 		lw	a5,-20(s0)
 190 0026 8A07     		slli	a5,a5,2
 191              		.loc 1 80 23
 192 0028 8546     		li	a3,1
 193 002a B397F600 		sll	a5,a3,a5
 194 002e BE86     		mv	a3,a5
 195              		.loc 1 80 12
 196 0030 B7470240 		li	a5,1073889280
 197 0034 93874780 		addi	a5,a5,-2044
 198              		.loc 1 80 17
 199 0038 558F     		or	a4,a4,a3
 200 003a 98C3     		sw	a4,0(a5)
  81:Drivers/src/ch32v20x_opa.c ****     }
  82:Drivers/src/ch32v20x_opa.c ****     else
  83:Drivers/src/ch32v20x_opa.c ****     {
  84:Drivers/src/ch32v20x_opa.c ****         OPA->CR &= ~(1 << (OPA_NUM * OPA_Total_NUM));
  85:Drivers/src/ch32v20x_opa.c ****     }
  86:Drivers/src/ch32v20x_opa.c **** }
 201              		.loc 1 86 1
 202 003c 2DA0     		j	.L7
 203              	.L5:
  84:Drivers/src/ch32v20x_opa.c ****     }
 204              		.loc 1 84 12
 205 003e B7470240 		li	a5,1073889280
GAS LISTING C:\Users\SOLDER~1\AppData\Local\Temp\ccbih9yx.s 			page 6


 206 0042 93874780 		addi	a5,a5,-2044
 207 0046 9843     		lw	a4,0(a5)
  84:Drivers/src/ch32v20x_opa.c ****     }
 208              		.loc 1 84 36
 209 0048 8327C4FE 		lw	a5,-20(s0)
 210 004c 8A07     		slli	a5,a5,2
  84:Drivers/src/ch32v20x_opa.c ****     }
 211              		.loc 1 84 24
 212 004e 8546     		li	a3,1
 213 0050 B397F600 		sll	a5,a3,a5
  84:Drivers/src/ch32v20x_opa.c ****     }
 214              		.loc 1 84 20
 215 0054 93C7F7FF 		not	a5,a5
 216 0058 BE86     		mv	a3,a5
  84:Drivers/src/ch32v20x_opa.c ****     }
 217              		.loc 1 84 12
 218 005a B7470240 		li	a5,1073889280
 219 005e 93874780 		addi	a5,a5,-2044
  84:Drivers/src/ch32v20x_opa.c ****     }
 220              		.loc 1 84 17
 221 0062 758F     		and	a4,a4,a3
 222 0064 98C3     		sw	a4,0(a5)
 223              	.L7:
 224              		.loc 1 86 1
 225 0066 0100     		nop
 226 0068 7244     		lw	s0,28(sp)
 227              		.cfi_restore 8
 228              		.cfi_def_cfa 2, 32
 229 006a 0561     		addi	sp,sp,32
 230              		.cfi_def_cfa_offset 0
 231 006c 8280     		jr	ra
 232              		.cfi_endproc
 233              	.LFE19:
 235              		.text
 236              	.Letext0:
 237              		.file 2 "c:\\dev_tools\\ch32_tools\\risc-v_embedded_gcc12\\riscv-none-elf\\include\\machine\\_defa
 238              		.file 3 "c:\\dev_tools\\ch32_tools\\risc-v_embedded_gcc12\\riscv-none-elf\\include\\sys\\_stdint.h
 239              		.file 4 "Drivers/inc/core_riscv.h"
 240              		.file 5 "Drivers/inc/ch32v20x.h"
 241              		.file 6 "Drivers/inc/ch32v20x_opa.h"
GAS LISTING C:\Users\SOLDER~1\AppData\Local\Temp\ccbih9yx.s 			page 7


DEFINED SYMBOLS
                            *ABS*:0000000000000000 ch32v20x_opa.c
C:\Users\SOLDER~1\AppData\Local\Temp\ccbih9yx.s:14     .text.OPA_DeInit:0000000000000000 OPA_DeInit
C:\Users\SOLDER~1\AppData\Local\Temp\ccbih9yx.s:18     .text.OPA_DeInit:0000000000000000 .L0 
C:\Users\SOLDER~1\AppData\Local\Temp\ccbih9yx.s:19     .text.OPA_DeInit:0000000000000000 $x
C:\Users\SOLDER~1\AppData\Local\Temp\ccbih9yx.s:19     .text.OPA_DeInit:0000000000000000 .L0 
C:\Users\SOLDER~1\AppData\Local\Temp\ccbih9yx.s:20     .text.OPA_DeInit:0000000000000002 .L0 
C:\Users\SOLDER~1\AppData\Local\Temp\ccbih9yx.s:22     .text.OPA_DeInit:0000000000000004 .L0 
C:\Users\SOLDER~1\AppData\Local\Temp\ccbih9yx.s:24     .text.OPA_DeInit:0000000000000006 .L0 
C:\Users\SOLDER~1\AppData\Local\Temp\ccbih9yx.s:26     .text.OPA_DeInit:0000000000000006 .L0 
C:\Users\SOLDER~1\AppData\Local\Temp\ccbih9yx.s:29     .text.OPA_DeInit:000000000000000e .L0 
C:\Users\SOLDER~1\AppData\Local\Temp\ccbih9yx.s:31     .text.OPA_DeInit:0000000000000012 .L0 
C:\Users\SOLDER~1\AppData\Local\Temp\ccbih9yx.s:33     .text.OPA_DeInit:0000000000000016 .L0 
C:\Users\SOLDER~1\AppData\Local\Temp\ccbih9yx.s:34     .text.OPA_DeInit:0000000000000016 .L0 
C:\Users\SOLDER~1\AppData\Local\Temp\ccbih9yx.s:36     .text.OPA_DeInit:0000000000000018 .L0 
C:\Users\SOLDER~1\AppData\Local\Temp\ccbih9yx.s:38     .text.OPA_DeInit:000000000000001a .L0 
C:\Users\SOLDER~1\AppData\Local\Temp\ccbih9yx.s:45     .text.OPA_Init:0000000000000000 OPA_Init
C:\Users\SOLDER~1\AppData\Local\Temp\ccbih9yx.s:48     .text.OPA_Init:0000000000000000 .L0 
C:\Users\SOLDER~1\AppData\Local\Temp\ccbih9yx.s:49     .text.OPA_Init:0000000000000000 $x
C:\Users\SOLDER~1\AppData\Local\Temp\ccbih9yx.s:49     .text.OPA_Init:0000000000000000 .L0 
C:\Users\SOLDER~1\AppData\Local\Temp\ccbih9yx.s:50     .text.OPA_Init:0000000000000002 .L0 
C:\Users\SOLDER~1\AppData\Local\Temp\ccbih9yx.s:52     .text.OPA_Init:0000000000000004 .L0 
C:\Users\SOLDER~1\AppData\Local\Temp\ccbih9yx.s:54     .text.OPA_Init:0000000000000006 .L0 
C:\Users\SOLDER~1\AppData\Local\Temp\ccbih9yx.s:57     .text.OPA_Init:000000000000000a .L0 
C:\Users\SOLDER~1\AppData\Local\Temp\ccbih9yx.s:59     .text.OPA_Init:000000000000000e .L0 
C:\Users\SOLDER~1\AppData\Local\Temp\ccbih9yx.s:62     .text.OPA_Init:0000000000000016 .L0 
C:\Users\SOLDER~1\AppData\Local\Temp\ccbih9yx.s:65     .text.OPA_Init:000000000000001c .L0 
C:\Users\SOLDER~1\AppData\Local\Temp\ccbih9yx.s:68     .text.OPA_Init:0000000000000022 .L0 
C:\Users\SOLDER~1\AppData\Local\Temp\ccbih9yx.s:70     .text.OPA_Init:0000000000000024 .L0 
C:\Users\SOLDER~1\AppData\Local\Temp\ccbih9yx.s:73     .text.OPA_Init:000000000000002a .L0 
C:\Users\SOLDER~1\AppData\Local\Temp\ccbih9yx.s:75     .text.OPA_Init:000000000000002e .L0 
C:\Users\SOLDER~1\AppData\Local\Temp\ccbih9yx.s:79     .text.OPA_Init:0000000000000038 .L0 
C:\Users\SOLDER~1\AppData\Local\Temp\ccbih9yx.s:82     .text.OPA_Init:000000000000003e .L0 
C:\Users\SOLDER~1\AppData\Local\Temp\ccbih9yx.s:84     .text.OPA_Init:0000000000000042 .L0 
C:\Users\SOLDER~1\AppData\Local\Temp\ccbih9yx.s:87     .text.OPA_Init:0000000000000048 .L0 
C:\Users\SOLDER~1\AppData\Local\Temp\ccbih9yx.s:89     .text.OPA_Init:000000000000004a .L0 
C:\Users\SOLDER~1\AppData\Local\Temp\ccbih9yx.s:91     .text.OPA_Init:000000000000004c .L0 
C:\Users\SOLDER~1\AppData\Local\Temp\ccbih9yx.s:94     .text.OPA_Init:0000000000000052 .L0 
C:\Users\SOLDER~1\AppData\Local\Temp\ccbih9yx.s:96     .text.OPA_Init:0000000000000054 .L0 
C:\Users\SOLDER~1\AppData\Local\Temp\ccbih9yx.s:98     .text.OPA_Init:0000000000000056 .L0 
C:\Users\SOLDER~1\AppData\Local\Temp\ccbih9yx.s:101    .text.OPA_Init:000000000000005c .L0 
C:\Users\SOLDER~1\AppData\Local\Temp\ccbih9yx.s:103    .text.OPA_Init:000000000000005e .L0 
C:\Users\SOLDER~1\AppData\Local\Temp\ccbih9yx.s:105    .text.OPA_Init:0000000000000062 .L0 
C:\Users\SOLDER~1\AppData\Local\Temp\ccbih9yx.s:109    .text.OPA_Init:000000000000006c .L0 
C:\Users\SOLDER~1\AppData\Local\Temp\ccbih9yx.s:112    .text.OPA_Init:0000000000000074 .L0 
C:\Users\SOLDER~1\AppData\Local\Temp\ccbih9yx.s:115    .text.OPA_Init:000000000000007a .L0 
C:\Users\SOLDER~1\AppData\Local\Temp\ccbih9yx.s:117    .text.OPA_Init:000000000000007e .L0 
C:\Users\SOLDER~1\AppData\Local\Temp\ccbih9yx.s:118    .text.OPA_Init:000000000000007e .L0 
C:\Users\SOLDER~1\AppData\Local\Temp\ccbih9yx.s:120    .text.OPA_Init:0000000000000080 .L0 
C:\Users\SOLDER~1\AppData\Local\Temp\ccbih9yx.s:122    .text.OPA_Init:0000000000000082 .L0 
C:\Users\SOLDER~1\AppData\Local\Temp\ccbih9yx.s:129    .text.OPA_StructInit:0000000000000000 OPA_StructInit
C:\Users\SOLDER~1\AppData\Local\Temp\ccbih9yx.s:132    .text.OPA_StructInit:0000000000000000 .L0 
C:\Users\SOLDER~1\AppData\Local\Temp\ccbih9yx.s:133    .text.OPA_StructInit:0000000000000000 $x
C:\Users\SOLDER~1\AppData\Local\Temp\ccbih9yx.s:133    .text.OPA_StructInit:0000000000000000 .L0 
C:\Users\SOLDER~1\AppData\Local\Temp\ccbih9yx.s:134    .text.OPA_StructInit:0000000000000002 .L0 
C:\Users\SOLDER~1\AppData\Local\Temp\ccbih9yx.s:136    .text.OPA_StructInit:0000000000000004 .L0 
C:\Users\SOLDER~1\AppData\Local\Temp\ccbih9yx.s:138    .text.OPA_StructInit:0000000000000006 .L0 
GAS LISTING C:\Users\SOLDER~1\AppData\Local\Temp\ccbih9yx.s 			page 8


C:\Users\SOLDER~1\AppData\Local\Temp\ccbih9yx.s:141    .text.OPA_StructInit:000000000000000a .L0 
C:\Users\SOLDER~1\AppData\Local\Temp\ccbih9yx.s:145    .text.OPA_StructInit:0000000000000012 .L0 
C:\Users\SOLDER~1\AppData\Local\Temp\ccbih9yx.s:148    .text.OPA_StructInit:000000000000001a .L0 
C:\Users\SOLDER~1\AppData\Local\Temp\ccbih9yx.s:151    .text.OPA_StructInit:0000000000000022 .L0 
C:\Users\SOLDER~1\AppData\Local\Temp\ccbih9yx.s:154    .text.OPA_StructInit:000000000000002a .L0 
C:\Users\SOLDER~1\AppData\Local\Temp\ccbih9yx.s:156    .text.OPA_StructInit:000000000000002e .L0 
C:\Users\SOLDER~1\AppData\Local\Temp\ccbih9yx.s:157    .text.OPA_StructInit:000000000000002e .L0 
C:\Users\SOLDER~1\AppData\Local\Temp\ccbih9yx.s:159    .text.OPA_StructInit:0000000000000030 .L0 
C:\Users\SOLDER~1\AppData\Local\Temp\ccbih9yx.s:161    .text.OPA_StructInit:0000000000000032 .L0 
C:\Users\SOLDER~1\AppData\Local\Temp\ccbih9yx.s:168    .text.OPA_Cmd:0000000000000000 OPA_Cmd
C:\Users\SOLDER~1\AppData\Local\Temp\ccbih9yx.s:171    .text.OPA_Cmd:0000000000000000 .L0 
C:\Users\SOLDER~1\AppData\Local\Temp\ccbih9yx.s:172    .text.OPA_Cmd:0000000000000000 $x
C:\Users\SOLDER~1\AppData\Local\Temp\ccbih9yx.s:172    .text.OPA_Cmd:0000000000000000 .L0 
C:\Users\SOLDER~1\AppData\Local\Temp\ccbih9yx.s:173    .text.OPA_Cmd:0000000000000002 .L0 
C:\Users\SOLDER~1\AppData\Local\Temp\ccbih9yx.s:175    .text.OPA_Cmd:0000000000000004 .L0 
C:\Users\SOLDER~1\AppData\Local\Temp\ccbih9yx.s:177    .text.OPA_Cmd:0000000000000006 .L0 
C:\Users\SOLDER~1\AppData\Local\Temp\ccbih9yx.s:181    .text.OPA_Cmd:000000000000000e .L0 
C:\Users\SOLDER~1\AppData\Local\Temp\ccbih9yx.s:185    .text.OPA_Cmd:0000000000000018 .L0 
C:\Users\SOLDER~1\AppData\Local\Temp\ccbih9yx.s:189    .text.OPA_Cmd:0000000000000022 .L0 
C:\Users\SOLDER~1\AppData\Local\Temp\ccbih9yx.s:192    .text.OPA_Cmd:0000000000000028 .L0 
C:\Users\SOLDER~1\AppData\Local\Temp\ccbih9yx.s:196    .text.OPA_Cmd:0000000000000030 .L0 
C:\Users\SOLDER~1\AppData\Local\Temp\ccbih9yx.s:199    .text.OPA_Cmd:0000000000000038 .L0 
C:\Users\SOLDER~1\AppData\Local\Temp\ccbih9yx.s:202    .text.OPA_Cmd:000000000000003c .L0 
C:\Users\SOLDER~1\AppData\Local\Temp\ccbih9yx.s:205    .text.OPA_Cmd:000000000000003e .L0 
C:\Users\SOLDER~1\AppData\Local\Temp\ccbih9yx.s:209    .text.OPA_Cmd:0000000000000048 .L0 
C:\Users\SOLDER~1\AppData\Local\Temp\ccbih9yx.s:212    .text.OPA_Cmd:000000000000004e .L0 
C:\Users\SOLDER~1\AppData\Local\Temp\ccbih9yx.s:215    .text.OPA_Cmd:0000000000000054 .L0 
C:\Users\SOLDER~1\AppData\Local\Temp\ccbih9yx.s:218    .text.OPA_Cmd:000000000000005a .L0 
C:\Users\SOLDER~1\AppData\Local\Temp\ccbih9yx.s:221    .text.OPA_Cmd:0000000000000062 .L0 
C:\Users\SOLDER~1\AppData\Local\Temp\ccbih9yx.s:225    .text.OPA_Cmd:0000000000000066 .L0 
C:\Users\SOLDER~1\AppData\Local\Temp\ccbih9yx.s:227    .text.OPA_Cmd:000000000000006a .L0 
C:\Users\SOLDER~1\AppData\Local\Temp\ccbih9yx.s:228    .text.OPA_Cmd:000000000000006a .L0 
C:\Users\SOLDER~1\AppData\Local\Temp\ccbih9yx.s:230    .text.OPA_Cmd:000000000000006c .L0 
C:\Users\SOLDER~1\AppData\Local\Temp\ccbih9yx.s:232    .text.OPA_Cmd:000000000000006e .L0 
C:\Users\SOLDER~1\AppData\Local\Temp\ccbih9yx.s:29924  .debug_line_str:0000000000000065 .L0 
C:\Users\SOLDER~1\AppData\Local\Temp\ccbih9yx.s:29924  .debug_line_str:00000000000000af .L0 
C:\Users\SOLDER~1\AppData\Local\Temp\ccbih9yx.s:29924  .debug_line_str:00000000000000bb .L0 
C:\Users\SOLDER~1\AppData\Local\Temp\ccbih9yx.s:29924  .debug_line_str:0000000000000108 .L0 
C:\Users\SOLDER~1\AppData\Local\Temp\ccbih9yx.s:29924  .debug_line_str:0000000000000151 .L0 
C:\Users\SOLDER~1\AppData\Local\Temp\ccbih9yx.s:29924  .debug_line_str:000000000000015d .L0 
C:\Users\SOLDER~1\AppData\Local\Temp\ccbih9yx.s:29924  .debug_line_str:00000000000001b1 .L0 
C:\Users\SOLDER~1\AppData\Local\Temp\ccbih9yx.s:29924  .debug_line_str:00000000000001f6 .L0 
C:\Users\SOLDER~1\AppData\Local\Temp\ccbih9yx.s:29924  .debug_line_str:0000000000000205 .L0 
C:\Users\SOLDER~1\AppData\Local\Temp\ccbih9yx.s:29924  .debug_line_str:0000000000000214 .L0 
C:\Users\SOLDER~1\AppData\Local\Temp\ccbih9yx.s:29924  .debug_line_str:0000000000000225 .L0 
C:\Users\SOLDER~1\AppData\Local\Temp\ccbih9yx.s:29924  .debug_line_str:000000000000022f .L0 
C:\Users\SOLDER~1\AppData\Local\Temp\ccbih9yx.s:29924  .debug_line_str:000000000000023c .L0 
C:\Users\SOLDER~1\AppData\Local\Temp\ccbih9yx.s:29924  .debug_line_str:0000000000000247 .L0 
C:\Users\SOLDER~1\AppData\Local\Temp\ccbih9yx.s:29924  .debug_line_str:0000000000000256 .L0 
C:\Users\SOLDER~1\AppData\Local\Temp\ccbih9yx.s:29924  .debug_line_str:000000000000025f .L0 
C:\Users\SOLDER~1\AppData\Local\Temp\ccbih9yx.s:29924  .debug_line_str:0000000000000268 .L0 
C:\Users\SOLDER~1\AppData\Local\Temp\ccbih9yx.s:29924  .debug_line_str:0000000000000273 .L0 
C:\Users\SOLDER~1\AppData\Local\Temp\ccbih9yx.s:29924  .debug_line_str:0000000000000285 .L0 
C:\Users\SOLDER~1\AppData\Local\Temp\ccbih9yx.s:29924  .debug_line_str:000000000000028f .L0 
C:\Users\SOLDER~1\AppData\Local\Temp\ccbih9yx.s:29924  .debug_line_str:000000000000029f .L0 
C:\Users\SOLDER~1\AppData\Local\Temp\ccbih9yx.s:29924  .debug_line_str:00000000000002ae .L0 
C:\Users\SOLDER~1\AppData\Local\Temp\ccbih9yx.s:29924  .debug_line_str:00000000000002bd .L0 
GAS LISTING C:\Users\SOLDER~1\AppData\Local\Temp\ccbih9yx.s 			page 9


C:\Users\SOLDER~1\AppData\Local\Temp\ccbih9yx.s:29924  .debug_line_str:00000000000002cc .L0 
C:\Users\SOLDER~1\AppData\Local\Temp\ccbih9yx.s:29924  .debug_line_str:00000000000002db .L0 
C:\Users\SOLDER~1\AppData\Local\Temp\ccbih9yx.s:29924  .debug_line_str:00000000000002ed .L0 
C:\Users\SOLDER~1\AppData\Local\Temp\ccbih9yx.s:29924  .debug_line_str:00000000000002fc .L0 
C:\Users\SOLDER~1\AppData\Local\Temp\ccbih9yx.s:29924  .debug_line_str:000000000000030c .L0 
C:\Users\SOLDER~1\AppData\Local\Temp\ccbih9yx.s:29924  .debug_line_str:000000000000031d .L0 
C:\Users\SOLDER~1\AppData\Local\Temp\ccbih9yx.s:29924  .debug_line_str:000000000000032d .L0 
C:\Users\SOLDER~1\AppData\Local\Temp\ccbih9yx.s:29924  .debug_line_str:000000000000033c .L0 
C:\Users\SOLDER~1\AppData\Local\Temp\ccbih9yx.s:29924  .debug_line_str:000000000000034c .L0 
C:\Users\SOLDER~1\AppData\Local\Temp\ccbih9yx.s:29924  .debug_line_str:000000000000035b .L0 
C:\Users\SOLDER~1\AppData\Local\Temp\ccbih9yx.s:29924  .debug_line_str:000000000000036a .L0 
C:\Users\SOLDER~1\AppData\Local\Temp\ccbih9yx.s:29924  .debug_line_str:0000000000000379 .L0 
C:\Users\SOLDER~1\AppData\Local\Temp\ccbih9yx.s:29924  .debug_line_str:0000000000000388 .L0 
C:\Users\SOLDER~1\AppData\Local\Temp\ccbih9yx.s:29924  .debug_line_str:0000000000000397 .L0 
C:\Users\SOLDER~1\AppData\Local\Temp\ccbih9yx.s:29924  .debug_line_str:00000000000003a8 .L0 
C:\Users\SOLDER~1\AppData\Local\Temp\ccbih9yx.s:29924  .debug_line_str:00000000000003b8 .L0 
C:\Users\SOLDER~1\AppData\Local\Temp\ccbih9yx.s:41     .text.OPA_DeInit:000000000000001a .L0 
C:\Users\SOLDER~1\AppData\Local\Temp\ccbih9yx.s:125    .text.OPA_Init:0000000000000082 .L0 
C:\Users\SOLDER~1\AppData\Local\Temp\ccbih9yx.s:164    .text.OPA_StructInit:0000000000000032 .L0 
C:\Users\SOLDER~1\AppData\Local\Temp\ccbih9yx.s:235    .text.OPA_Cmd:000000000000006e .L0 
                     .debug_frame:0000000000000000 .L0 
C:\Users\SOLDER~1\AppData\Local\Temp\ccbih9yx.s:203    .text.OPA_Cmd:000000000000003e .L5
C:\Users\SOLDER~1\AppData\Local\Temp\ccbih9yx.s:223    .text.OPA_Cmd:0000000000000066 .L7
C:\Users\SOLDER~1\AppData\Local\Temp\ccbih9yx.s:548    .debug_abbrev:0000000000000000 .Ldebug_abbrev0
C:\Users\SOLDER~1\AppData\Local\Temp\ccbih9yx.s:18503  .debug_str:0000000000000668 .LASF5757
C:\Users\SOLDER~1\AppData\Local\Temp\ccbih9yx.s:29922  .debug_line_str:000000000000004a .LASF0
C:\Users\SOLDER~1\AppData\Local\Temp\ccbih9yx.s:29920  .debug_line_str:0000000000000000 .LASF1
C:\Users\SOLDER~1\AppData\Local\Temp\ccbih9yx.s:850    .debug_rnglists:000000000000000c .LLRL0
C:\Users\SOLDER~1\AppData\Local\Temp\ccbih9yx.s:18403  .debug_line:0000000000000000 .Ldebug_line0
C:\Users\SOLDER~1\AppData\Local\Temp\ccbih9yx.s:866    .debug_macro:0000000000000000 .Ldebug_macro0
C:\Users\SOLDER~1\AppData\Local\Temp\ccbih9yx.s:29857  .debug_str:000000000002eabf .LASF5718
C:\Users\SOLDER~1\AppData\Local\Temp\ccbih9yx.s:27503  .debug_str:000000000002510f .LASF5719
C:\Users\SOLDER~1\AppData\Local\Temp\ccbih9yx.s:24159  .debug_str:000000000001776d .LASF5720
C:\Users\SOLDER~1\AppData\Local\Temp\ccbih9yx.s:23455  .debug_str:0000000000014a68 .LASF5721
C:\Users\SOLDER~1\AppData\Local\Temp\ccbih9yx.s:27617  .debug_str:00000000000258b2 .LASF5722
C:\Users\SOLDER~1\AppData\Local\Temp\ccbih9yx.s:27893  .debug_str:0000000000026bb1 .LASF5723
C:\Users\SOLDER~1\AppData\Local\Temp\ccbih9yx.s:24857  .debug_str:000000000001a491 .LASF5727
C:\Users\SOLDER~1\AppData\Local\Temp\ccbih9yx.s:18515  .debug_str:00000000000007c4 .LASF5724
C:\Users\SOLDER~1\AppData\Local\Temp\ccbih9yx.s:18425  .debug_str:000000000000014f .LASF5725
C:\Users\SOLDER~1\AppData\Local\Temp\ccbih9yx.s:27981  .debug_str:0000000000027172 .LASF5726
C:\Users\SOLDER~1\AppData\Local\Temp\ccbih9yx.s:19245  .debug_str:00000000000036ee .LASF5728
C:\Users\SOLDER~1\AppData\Local\Temp\ccbih9yx.s:20489  .debug_str:0000000000008709 .LASF5729
C:\Users\SOLDER~1\AppData\Local\Temp\ccbih9yx.s:21993  .debug_str:000000000000ea20 .LASF5730
C:\Users\SOLDER~1\AppData\Local\Temp\ccbih9yx.s:23919  .debug_str:00000000000167ec .LASF5731
C:\Users\SOLDER~1\AppData\Local\Temp\ccbih9yx.s:29649  .debug_str:000000000002dd81 .LASF5732
C:\Users\SOLDER~1\AppData\Local\Temp\ccbih9yx.s:19363  .debug_str:0000000000003ea4 .LASF5733
C:\Users\SOLDER~1\AppData\Local\Temp\ccbih9yx.s:29041  .debug_str:000000000002b63f .LASF5734
C:\Users\SOLDER~1\AppData\Local\Temp\ccbih9yx.s:19367  .debug_str:0000000000003eca .LASF5735
C:\Users\SOLDER~1\AppData\Local\Temp\ccbih9yx.s:19369  .debug_str:0000000000003ecf .LASF5736
C:\Users\SOLDER~1\AppData\Local\Temp\ccbih9yx.s:21957  .debug_str:000000000000e7fd .LASF5737
C:\Users\SOLDER~1\AppData\Local\Temp\ccbih9yx.s:20687  .debug_str:000000000000947b .LASF5738
C:\Users\SOLDER~1\AppData\Local\Temp\ccbih9yx.s:20689  .debug_str:0000000000009480 .LASF5739
C:\Users\SOLDER~1\AppData\Local\Temp\ccbih9yx.s:21335  .debug_str:000000000000be85 .LASF5740
C:\Users\SOLDER~1\AppData\Local\Temp\ccbih9yx.s:18525  .debug_str:0000000000000860 .LASF5741
C:\Users\SOLDER~1\AppData\Local\Temp\ccbih9yx.s:20507  .debug_str:0000000000008822 .LASF5742
C:\Users\SOLDER~1\AppData\Local\Temp\ccbih9yx.s:18769  .debug_str:0000000000001827 .LASF5743
C:\Users\SOLDER~1\AppData\Local\Temp\ccbih9yx.s:26707  .debug_str:0000000000021d4a .LASF5744
GAS LISTING C:\Users\SOLDER~1\AppData\Local\Temp\ccbih9yx.s 			page 10


C:\Users\SOLDER~1\AppData\Local\Temp\ccbih9yx.s:26183  .debug_str:000000000001fb7b .LASF5745
C:\Users\SOLDER~1\AppData\Local\Temp\ccbih9yx.s:20129  .debug_str:0000000000006fc9 .LASF5746
C:\Users\SOLDER~1\AppData\Local\Temp\ccbih9yx.s:28351  .debug_str:0000000000028998 .LASF5747
C:\Users\SOLDER~1\AppData\Local\Temp\ccbih9yx.s:24001  .debug_str:0000000000016ce7 .LASF5748
C:\Users\SOLDER~1\AppData\Local\Temp\ccbih9yx.s:28027  .debug_str:0000000000027483 .LASF5749
C:\Users\SOLDER~1\AppData\Local\Temp\ccbih9yx.s:29097  .debug_str:000000000002b9ab .LASF5750
C:\Users\SOLDER~1\AppData\Local\Temp\ccbih9yx.s:28663  .debug_str:0000000000029d8f .LASF5751
C:\Users\SOLDER~1\AppData\Local\Temp\ccbih9yx.s:18831  .debug_str:0000000000001c1a .LASF5753
C:\Users\SOLDER~1\AppData\Local\Temp\ccbih9yx.s:169    .text.OPA_Cmd:0000000000000000 .LFB19
C:\Users\SOLDER~1\AppData\Local\Temp\ccbih9yx.s:233    .text.OPA_Cmd:000000000000006e .LFE19
C:\Users\SOLDER~1\AppData\Local\Temp\ccbih9yx.s:25881  .debug_str:000000000001e79a .LASF5752
C:\Users\SOLDER~1\AppData\Local\Temp\ccbih9yx.s:27135  .debug_str:0000000000023928 .LASF5754
C:\Users\SOLDER~1\AppData\Local\Temp\ccbih9yx.s:130    .text.OPA_StructInit:0000000000000000 .LFB18
C:\Users\SOLDER~1\AppData\Local\Temp\ccbih9yx.s:162    .text.OPA_StructInit:0000000000000032 .LFE18
C:\Users\SOLDER~1\AppData\Local\Temp\ccbih9yx.s:21921  .debug_str:000000000000e572 .LASF5755
C:\Users\SOLDER~1\AppData\Local\Temp\ccbih9yx.s:21521  .debug_str:000000000000cb52 .LASF5756
C:\Users\SOLDER~1\AppData\Local\Temp\ccbih9yx.s:46     .text.OPA_Init:0000000000000000 .LFB17
C:\Users\SOLDER~1\AppData\Local\Temp\ccbih9yx.s:123    .text.OPA_Init:0000000000000082 .LFE17
C:\Users\SOLDER~1\AppData\Local\Temp\ccbih9yx.s:27187  .debug_str:0000000000023c5f .LASF5758
C:\Users\SOLDER~1\AppData\Local\Temp\ccbih9yx.s:15     .text.OPA_DeInit:0000000000000000 .LFB16
C:\Users\SOLDER~1\AppData\Local\Temp\ccbih9yx.s:39     .text.OPA_DeInit:000000000000001a .LFE16
C:\Users\SOLDER~1\AppData\Local\Temp\ccbih9yx.s:243    .debug_info:0000000000000000 .Ldebug_info0
C:\Users\SOLDER~1\AppData\Local\Temp\ccbih9yx.s:1113   .debug_macro:0000000000000000 .Ldebug_macro2
C:\Users\SOLDER~1\AppData\Local\Temp\ccbih9yx.s:29357  .debug_str:000000000002ca72 .LASF318
C:\Users\SOLDER~1\AppData\Local\Temp\ccbih9yx.s:2066   .debug_macro:0000000000000000 .Ldebug_macro3
C:\Users\SOLDER~1\AppData\Local\Temp\ccbih9yx.s:24755  .debug_str:0000000000019e1b .LASF336
C:\Users\SOLDER~1\AppData\Local\Temp\ccbih9yx.s:19451  .debug_str:00000000000043e0 .LASF337
C:\Users\SOLDER~1\AppData\Local\Temp\ccbih9yx.s:26725  .debug_str:0000000000021e7b .LASF338
C:\Users\SOLDER~1\AppData\Local\Temp\ccbih9yx.s:2122   .debug_macro:0000000000000000 .Ldebug_macro4
C:\Users\SOLDER~1\AppData\Local\Temp\ccbih9yx.s:2142   .debug_macro:0000000000000000 .Ldebug_macro5
C:\Users\SOLDER~1\AppData\Local\Temp\ccbih9yx.s:2207   .debug_macro:0000000000000000 .Ldebug_macro6
C:\Users\SOLDER~1\AppData\Local\Temp\ccbih9yx.s:2248   .debug_macro:0000000000000000 .Ldebug_macro7
C:\Users\SOLDER~1\AppData\Local\Temp\ccbih9yx.s:2373   .debug_macro:0000000000000000 .Ldebug_macro8
C:\Users\SOLDER~1\AppData\Local\Temp\ccbih9yx.s:2429   .debug_macro:0000000000000000 .Ldebug_macro9
C:\Users\SOLDER~1\AppData\Local\Temp\ccbih9yx.s:18779  .debug_str:0000000000001893 .LASF493
C:\Users\SOLDER~1\AppData\Local\Temp\ccbih9yx.s:2641   .debug_macro:0000000000000000 .Ldebug_macro10
C:\Users\SOLDER~1\AppData\Local\Temp\ccbih9yx.s:2679   .debug_macro:0000000000000000 .Ldebug_macro11
C:\Users\SOLDER~1\AppData\Local\Temp\ccbih9yx.s:19043  .debug_str:0000000000002a1f .LASF4592
C:\Users\SOLDER~1\AppData\Local\Temp\ccbih9yx.s:27521  .debug_str:0000000000025237 .LASF4593
C:\Users\SOLDER~1\AppData\Local\Temp\ccbih9yx.s:14945  .debug_macro:0000000000000000 .Ldebug_macro12
C:\Users\SOLDER~1\AppData\Local\Temp\ccbih9yx.s:15226  .debug_macro:0000000000000000 .Ldebug_macro13
C:\Users\SOLDER~1\AppData\Local\Temp\ccbih9yx.s:15378  .debug_macro:0000000000000000 .Ldebug_macro14
C:\Users\SOLDER~1\AppData\Local\Temp\ccbih9yx.s:23911  .debug_str:000000000001675e .LASF4851
C:\Users\SOLDER~1\AppData\Local\Temp\ccbih9yx.s:15731  .debug_macro:0000000000000000 .Ldebug_macro15
C:\Users\SOLDER~1\AppData\Local\Temp\ccbih9yx.s:15796  .debug_macro:0000000000000000 .Ldebug_macro16
C:\Users\SOLDER~1\AppData\Local\Temp\ccbih9yx.s:16065  .debug_macro:0000000000000000 .Ldebug_macro17
C:\Users\SOLDER~1\AppData\Local\Temp\ccbih9yx.s:16136  .debug_macro:0000000000000000 .Ldebug_macro18
C:\Users\SOLDER~1\AppData\Local\Temp\ccbih9yx.s:16300  .debug_macro:0000000000000000 .Ldebug_macro19
C:\Users\SOLDER~1\AppData\Local\Temp\ccbih9yx.s:16572  .debug_macro:0000000000000000 .Ldebug_macro20
C:\Users\SOLDER~1\AppData\Local\Temp\ccbih9yx.s:16823  .debug_macro:0000000000000000 .Ldebug_macro21
C:\Users\SOLDER~1\AppData\Local\Temp\ccbih9yx.s:16864  .debug_macro:0000000000000000 .Ldebug_macro22
C:\Users\SOLDER~1\AppData\Local\Temp\ccbih9yx.s:16917  .debug_macro:0000000000000000 .Ldebug_macro23
C:\Users\SOLDER~1\AppData\Local\Temp\ccbih9yx.s:17318  .debug_macro:0000000000000000 .Ldebug_macro24
C:\Users\SOLDER~1\AppData\Local\Temp\ccbih9yx.s:17350  .debug_macro:0000000000000000 .Ldebug_macro25
C:\Users\SOLDER~1\AppData\Local\Temp\ccbih9yx.s:17580  .debug_macro:0000000000000000 .Ldebug_macro26
C:\Users\SOLDER~1\AppData\Local\Temp\ccbih9yx.s:18176  .debug_macro:0000000000000000 .Ldebug_macro27
C:\Users\SOLDER~1\AppData\Local\Temp\ccbih9yx.s:18346  .debug_macro:0000000000000000 .Ldebug_macro28
GAS LISTING C:\Users\SOLDER~1\AppData\Local\Temp\ccbih9yx.s 			page 11


C:\Users\SOLDER~1\AppData\Local\Temp\ccbih9yx.s:18366  .debug_macro:0000000000000000 .Ldebug_macro29
C:\Users\SOLDER~1\AppData\Local\Temp\ccbih9yx.s:18389  .debug_macro:0000000000000000 .Ldebug_macro30
C:\Users\SOLDER~1\AppData\Local\Temp\ccbih9yx.s:24809  .debug_str:000000000001a185 .LASF5716
C:\Users\SOLDER~1\AppData\Local\Temp\ccbih9yx.s:25229  .debug_str:000000000001bc6c .LASF5717
C:\Users\SOLDER~1\AppData\Local\Temp\ccbih9yx.s:19825  .debug_str:0000000000005baf .LASF2
C:\Users\SOLDER~1\AppData\Local\Temp\ccbih9yx.s:28671  .debug_str:0000000000029dfb .LASF3
C:\Users\SOLDER~1\AppData\Local\Temp\ccbih9yx.s:29039  .debug_str:000000000002b62d .LASF4
C:\Users\SOLDER~1\AppData\Local\Temp\ccbih9yx.s:22535  .debug_str:0000000000010d39 .LASF5
C:\Users\SOLDER~1\AppData\Local\Temp\ccbih9yx.s:23889  .debug_str:0000000000016614 .LASF6
C:\Users\SOLDER~1\AppData\Local\Temp\ccbih9yx.s:29455  .debug_str:000000000002d121 .LASF7
C:\Users\SOLDER~1\AppData\Local\Temp\ccbih9yx.s:22599  .debug_str:0000000000011145 .LASF8
C:\Users\SOLDER~1\AppData\Local\Temp\ccbih9yx.s:23339  .debug_str:000000000001428a .LASF9
C:\Users\SOLDER~1\AppData\Local\Temp\ccbih9yx.s:20559  .debug_str:0000000000008b89 .LASF10
C:\Users\SOLDER~1\AppData\Local\Temp\ccbih9yx.s:28377  .debug_str:0000000000028b08 .LASF11
C:\Users\SOLDER~1\AppData\Local\Temp\ccbih9yx.s:24949  .debug_str:000000000001aa73 .LASF12
C:\Users\SOLDER~1\AppData\Local\Temp\ccbih9yx.s:24801  .debug_str:000000000001a108 .LASF13
C:\Users\SOLDER~1\AppData\Local\Temp\ccbih9yx.s:27329  .debug_str:00000000000245d1 .LASF14
C:\Users\SOLDER~1\AppData\Local\Temp\ccbih9yx.s:24823  .debug_str:000000000001a260 .LASF15
C:\Users\SOLDER~1\AppData\Local\Temp\ccbih9yx.s:21039  .debug_str:000000000000ab59 .LASF16
C:\Users\SOLDER~1\AppData\Local\Temp\ccbih9yx.s:26225  .debug_str:000000000001fe00 .LASF17
C:\Users\SOLDER~1\AppData\Local\Temp\ccbih9yx.s:26943  .debug_str:0000000000022c97 .LASF18
C:\Users\SOLDER~1\AppData\Local\Temp\ccbih9yx.s:21077  .debug_str:000000000000ade4 .LASF19
C:\Users\SOLDER~1\AppData\Local\Temp\ccbih9yx.s:19983  .debug_str:00000000000065e4 .LASF20
C:\Users\SOLDER~1\AppData\Local\Temp\ccbih9yx.s:22075  .debug_str:000000000000ef5e .LASF21
C:\Users\SOLDER~1\AppData\Local\Temp\ccbih9yx.s:27793  .debug_str:00000000000264ec .LASF22
C:\Users\SOLDER~1\AppData\Local\Temp\ccbih9yx.s:24633  .debug_str:00000000000196b8 .LASF23
C:\Users\SOLDER~1\AppData\Local\Temp\ccbih9yx.s:24631  .debug_str:000000000001969e .LASF24
C:\Users\SOLDER~1\AppData\Local\Temp\ccbih9yx.s:27253  .debug_str:00000000000240b5 .LASF25
C:\Users\SOLDER~1\AppData\Local\Temp\ccbih9yx.s:27907  .debug_str:0000000000026c8f .LASF26
C:\Users\SOLDER~1\AppData\Local\Temp\ccbih9yx.s:19339  .debug_str:0000000000003d05 .LASF27
C:\Users\SOLDER~1\AppData\Local\Temp\ccbih9yx.s:24033  .debug_str:0000000000016f00 .LASF28
C:\Users\SOLDER~1\AppData\Local\Temp\ccbih9yx.s:27149  .debug_str:00000000000239d2 .LASF29
C:\Users\SOLDER~1\AppData\Local\Temp\ccbih9yx.s:26953  .debug_str:0000000000022d3f .LASF30
C:\Users\SOLDER~1\AppData\Local\Temp\ccbih9yx.s:19763  .debug_str:0000000000005761 .LASF31
C:\Users\SOLDER~1\AppData\Local\Temp\ccbih9yx.s:26001  .debug_str:000000000001ef51 .LASF32
C:\Users\SOLDER~1\AppData\Local\Temp\ccbih9yx.s:18733  .debug_str:00000000000015ea .LASF33
C:\Users\SOLDER~1\AppData\Local\Temp\ccbih9yx.s:22767  .debug_str:0000000000011c42 .LASF34
C:\Users\SOLDER~1\AppData\Local\Temp\ccbih9yx.s:23703  .debug_str:0000000000015a8f .LASF35
C:\Users\SOLDER~1\AppData\Local\Temp\ccbih9yx.s:21825  .debug_str:000000000000df02 .LASF36
C:\Users\SOLDER~1\AppData\Local\Temp\ccbih9yx.s:20917  .debug_str:000000000000a32c .LASF37
C:\Users\SOLDER~1\AppData\Local\Temp\ccbih9yx.s:20771  .debug_str:000000000000998b .LASF38
C:\Users\SOLDER~1\AppData\Local\Temp\ccbih9yx.s:22099  .debug_str:000000000000f0d1 .LASF39
C:\Users\SOLDER~1\AppData\Local\Temp\ccbih9yx.s:25055  .debug_str:000000000001b16e .LASF40
C:\Users\SOLDER~1\AppData\Local\Temp\ccbih9yx.s:20305  .debug_str:0000000000007ad8 .LASF41
C:\Users\SOLDER~1\AppData\Local\Temp\ccbih9yx.s:22473  .debug_str:0000000000010953 .LASF42
C:\Users\SOLDER~1\AppData\Local\Temp\ccbih9yx.s:28209  .debug_str:0000000000028057 .LASF43
C:\Users\SOLDER~1\AppData\Local\Temp\ccbih9yx.s:19099  .debug_str:0000000000002d7d .LASF44
C:\Users\SOLDER~1\AppData\Local\Temp\ccbih9yx.s:22165  .debug_str:000000000000f505 .LASF45
C:\Users\SOLDER~1\AppData\Local\Temp\ccbih9yx.s:23073  .debug_str:0000000000012ffd .LASF46
C:\Users\SOLDER~1\AppData\Local\Temp\ccbih9yx.s:27527  .debug_str:00000000000252a1 .LASF47
C:\Users\SOLDER~1\AppData\Local\Temp\ccbih9yx.s:25045  .debug_str:000000000001b0b5 .LASF48
C:\Users\SOLDER~1\AppData\Local\Temp\ccbih9yx.s:22927  .debug_str:0000000000012662 .LASF49
C:\Users\SOLDER~1\AppData\Local\Temp\ccbih9yx.s:19597  .debug_str:0000000000004d17 .LASF50
C:\Users\SOLDER~1\AppData\Local\Temp\ccbih9yx.s:23075  .debug_str:0000000000013016 .LASF51
C:\Users\SOLDER~1\AppData\Local\Temp\ccbih9yx.s:27703  .debug_str:0000000000025ebc .LASF52
C:\Users\SOLDER~1\AppData\Local\Temp\ccbih9yx.s:21823  .debug_str:000000000000dee2 .LASF53
C:\Users\SOLDER~1\AppData\Local\Temp\ccbih9yx.s:18943  .debug_str:0000000000002375 .LASF54
GAS LISTING C:\Users\SOLDER~1\AppData\Local\Temp\ccbih9yx.s 			page 12


C:\Users\SOLDER~1\AppData\Local\Temp\ccbih9yx.s:18433  .debug_str:00000000000001b4 .LASF55
C:\Users\SOLDER~1\AppData\Local\Temp\ccbih9yx.s:29081  .debug_str:000000000002b8bd .LASF56
C:\Users\SOLDER~1\AppData\Local\Temp\ccbih9yx.s:27125  .debug_str:000000000002387b .LASF57
C:\Users\SOLDER~1\AppData\Local\Temp\ccbih9yx.s:18517  .debug_str:00000000000007d6 .LASF58
C:\Users\SOLDER~1\AppData\Local\Temp\ccbih9yx.s:22439  .debug_str:0000000000010700 .LASF59
C:\Users\SOLDER~1\AppData\Local\Temp\ccbih9yx.s:20389  .debug_str:0000000000008086 .LASF60
C:\Users\SOLDER~1\AppData\Local\Temp\ccbih9yx.s:26781  .debug_str:00000000000221ba .LASF61
C:\Users\SOLDER~1\AppData\Local\Temp\ccbih9yx.s:18685  .debug_str:00000000000012c0 .LASF62
C:\Users\SOLDER~1\AppData\Local\Temp\ccbih9yx.s:21711  .debug_str:000000000000d7b4 .LASF63
C:\Users\SOLDER~1\AppData\Local\Temp\ccbih9yx.s:24595  .debug_str:0000000000019417 .LASF64
C:\Users\SOLDER~1\AppData\Local\Temp\ccbih9yx.s:25407  .debug_str:000000000001c86d .LASF65
C:\Users\SOLDER~1\AppData\Local\Temp\ccbih9yx.s:19181  .debug_str:00000000000032ce .LASF66
C:\Users\SOLDER~1\AppData\Local\Temp\ccbih9yx.s:21813  .debug_str:000000000000de3f .LASF67
C:\Users\SOLDER~1\AppData\Local\Temp\ccbih9yx.s:21547  .debug_str:000000000000ccf6 .LASF68
C:\Users\SOLDER~1\AppData\Local\Temp\ccbih9yx.s:25035  .debug_str:000000000001b02d .LASF69
C:\Users\SOLDER~1\AppData\Local\Temp\ccbih9yx.s:23699  .debug_str:0000000000015a48 .LASF70
C:\Users\SOLDER~1\AppData\Local\Temp\ccbih9yx.s:28841  .debug_str:000000000002a903 .LASF71
C:\Users\SOLDER~1\AppData\Local\Temp\ccbih9yx.s:29307  .debug_str:000000000002c74f .LASF72
C:\Users\SOLDER~1\AppData\Local\Temp\ccbih9yx.s:22885  .debug_str:0000000000012392 .LASF73
C:\Users\SOLDER~1\AppData\Local\Temp\ccbih9yx.s:21985  .debug_str:000000000000e9bb .LASF74
C:\Users\SOLDER~1\AppData\Local\Temp\ccbih9yx.s:19615  .debug_str:0000000000004e2e .LASF75
C:\Users\SOLDER~1\AppData\Local\Temp\ccbih9yx.s:22917  .debug_str:00000000000125c8 .LASF76
C:\Users\SOLDER~1\AppData\Local\Temp\ccbih9yx.s:21463  .debug_str:000000000000c754 .LASF77
C:\Users\SOLDER~1\AppData\Local\Temp\ccbih9yx.s:23163  .debug_str:0000000000013600 .LASF78
C:\Users\SOLDER~1\AppData\Local\Temp\ccbih9yx.s:23705  .debug_str:0000000000015abd .LASF79
C:\Users\SOLDER~1\AppData\Local\Temp\ccbih9yx.s:23103  .debug_str:00000000000131f8 .LASF80
C:\Users\SOLDER~1\AppData\Local\Temp\ccbih9yx.s:27613  .debug_str:0000000000025877 .LASF81
C:\Users\SOLDER~1\AppData\Local\Temp\ccbih9yx.s:25535  .debug_str:000000000001d130 .LASF82
C:\Users\SOLDER~1\AppData\Local\Temp\ccbih9yx.s:25965  .debug_str:000000000001ed1a .LASF83
C:\Users\SOLDER~1\AppData\Local\Temp\ccbih9yx.s:28827  .debug_str:000000000002a817 .LASF84
C:\Users\SOLDER~1\AppData\Local\Temp\ccbih9yx.s:20863  .debug_str:0000000000009f8a .LASF85
C:\Users\SOLDER~1\AppData\Local\Temp\ccbih9yx.s:24715  .debug_str:0000000000019bb8 .LASF86
C:\Users\SOLDER~1\AppData\Local\Temp\ccbih9yx.s:22919  .debug_str:00000000000125ef .LASF87
C:\Users\SOLDER~1\AppData\Local\Temp\ccbih9yx.s:25061  .debug_str:000000000001b1ce .LASF88
C:\Users\SOLDER~1\AppData\Local\Temp\ccbih9yx.s:20123  .debug_str:0000000000006f73 .LASF89
C:\Users\SOLDER~1\AppData\Local\Temp\ccbih9yx.s:29301  .debug_str:000000000002c6ed .LASF90
C:\Users\SOLDER~1\AppData\Local\Temp\ccbih9yx.s:28995  .debug_str:000000000002b339 .LASF91
C:\Users\SOLDER~1\AppData\Local\Temp\ccbih9yx.s:26391  .debug_str:00000000000208df .LASF92
C:\Users\SOLDER~1\AppData\Local\Temp\ccbih9yx.s:25131  .debug_str:000000000001b643 .LASF93
C:\Users\SOLDER~1\AppData\Local\Temp\ccbih9yx.s:26415  .debug_str:0000000000020a7a .LASF94
C:\Users\SOLDER~1\AppData\Local\Temp\ccbih9yx.s:29215  .debug_str:000000000002c1a6 .LASF95
C:\Users\SOLDER~1\AppData\Local\Temp\ccbih9yx.s:28011  .debug_str:0000000000027382 .LASF96
C:\Users\SOLDER~1\AppData\Local\Temp\ccbih9yx.s:20951  .debug_str:000000000000a573 .LASF97
C:\Users\SOLDER~1\AppData\Local\Temp\ccbih9yx.s:27247  .debug_str:000000000002403a .LASF98
C:\Users\SOLDER~1\AppData\Local\Temp\ccbih9yx.s:23401  .debug_str:00000000000146bf .LASF99
C:\Users\SOLDER~1\AppData\Local\Temp\ccbih9yx.s:27409  .debug_str:0000000000024b2a .LASF100
C:\Users\SOLDER~1\AppData\Local\Temp\ccbih9yx.s:29493  .debug_str:000000000002d382 .LASF101
C:\Users\SOLDER~1\AppData\Local\Temp\ccbih9yx.s:23009  .debug_str:0000000000012bd3 .LASF102
C:\Users\SOLDER~1\AppData\Local\Temp\ccbih9yx.s:26965  .debug_str:0000000000022df0 .LASF103
C:\Users\SOLDER~1\AppData\Local\Temp\ccbih9yx.s:25599  .debug_str:000000000001d57f .LASF104
C:\Users\SOLDER~1\AppData\Local\Temp\ccbih9yx.s:22491  .debug_str:0000000000010a66 .LASF105
C:\Users\SOLDER~1\AppData\Local\Temp\ccbih9yx.s:20217  .debug_str:0000000000007553 .LASF106
C:\Users\SOLDER~1\AppData\Local\Temp\ccbih9yx.s:22761  .debug_str:0000000000011bcd .LASF107
C:\Users\SOLDER~1\AppData\Local\Temp\ccbih9yx.s:21737  .debug_str:000000000000d940 .LASF108
C:\Users\SOLDER~1\AppData\Local\Temp\ccbih9yx.s:22935  .debug_str:00000000000126f2 .LASF109
C:\Users\SOLDER~1\AppData\Local\Temp\ccbih9yx.s:19647  .debug_str:000000000000500c .LASF110
C:\Users\SOLDER~1\AppData\Local\Temp\ccbih9yx.s:22755  .debug_str:0000000000011b77 .LASF111
GAS LISTING C:\Users\SOLDER~1\AppData\Local\Temp\ccbih9yx.s 			page 13


C:\Users\SOLDER~1\AppData\Local\Temp\ccbih9yx.s:21733  .debug_str:000000000000d90b .LASF112
C:\Users\SOLDER~1\AppData\Local\Temp\ccbih9yx.s:23221  .debug_str:0000000000013a50 .LASF113
C:\Users\SOLDER~1\AppData\Local\Temp\ccbih9yx.s:22125  .debug_str:000000000000f26e .LASF114
C:\Users\SOLDER~1\AppData\Local\Temp\ccbih9yx.s:24683  .debug_str:00000000000199a8 .LASF115
C:\Users\SOLDER~1\AppData\Local\Temp\ccbih9yx.s:21209  .debug_str:000000000000b63e .LASF116
C:\Users\SOLDER~1\AppData\Local\Temp\ccbih9yx.s:20945  .debug_str:000000000000a4ec .LASF117
C:\Users\SOLDER~1\AppData\Local\Temp\ccbih9yx.s:22295  .debug_str:000000000000fe28 .LASF118
C:\Users\SOLDER~1\AppData\Local\Temp\ccbih9yx.s:28877  .debug_str:000000000002ab7d .LASF119
C:\Users\SOLDER~1\AppData\Local\Temp\ccbih9yx.s:24221  .debug_str:0000000000017b61 .LASF120
C:\Users\SOLDER~1\AppData\Local\Temp\ccbih9yx.s:20713  .debug_str:00000000000095d0 .LASF121
C:\Users\SOLDER~1\AppData\Local\Temp\ccbih9yx.s:25389  .debug_str:000000000001c739 .LASF122
C:\Users\SOLDER~1\AppData\Local\Temp\ccbih9yx.s:29625  .debug_str:000000000002dc07 .LASF123
C:\Users\SOLDER~1\AppData\Local\Temp\ccbih9yx.s:22041  .debug_str:000000000000ed29 .LASF124
C:\Users\SOLDER~1\AppData\Local\Temp\ccbih9yx.s:27599  .debug_str:0000000000025761 .LASF125
C:\Users\SOLDER~1\AppData\Local\Temp\ccbih9yx.s:21517  .debug_str:000000000000cb19 .LASF126
C:\Users\SOLDER~1\AppData\Local\Temp\ccbih9yx.s:21613  .debug_str:000000000000d14d .LASF127
C:\Users\SOLDER~1\AppData\Local\Temp\ccbih9yx.s:19279  .debug_str:0000000000003926 .LASF128
C:\Users\SOLDER~1\AppData\Local\Temp\ccbih9yx.s:19567  .debug_str:0000000000004b43 .LASF129
C:\Users\SOLDER~1\AppData\Local\Temp\ccbih9yx.s:28569  .debug_str:0000000000029769 .LASF130
C:\Users\SOLDER~1\AppData\Local\Temp\ccbih9yx.s:22939  .debug_str:000000000001270a .LASF131
C:\Users\SOLDER~1\AppData\Local\Temp\ccbih9yx.s:25793  .debug_str:000000000001e1c5 .LASF132
C:\Users\SOLDER~1\AppData\Local\Temp\ccbih9yx.s:20781  .debug_str:0000000000009a26 .LASF133
C:\Users\SOLDER~1\AppData\Local\Temp\ccbih9yx.s:28117  .debug_str:00000000000279f7 .LASF134
C:\Users\SOLDER~1\AppData\Local\Temp\ccbih9yx.s:28439  .debug_str:0000000000028ece .LASF135
C:\Users\SOLDER~1\AppData\Local\Temp\ccbih9yx.s:28239  .debug_str:0000000000028234 .LASF136
C:\Users\SOLDER~1\AppData\Local\Temp\ccbih9yx.s:22017  .debug_str:000000000000eb89 .LASF137
C:\Users\SOLDER~1\AppData\Local\Temp\ccbih9yx.s:27515  .debug_str:00000000000251d5 .LASF138
C:\Users\SOLDER~1\AppData\Local\Temp\ccbih9yx.s:19553  .debug_str:0000000000004a36 .LASF139
C:\Users\SOLDER~1\AppData\Local\Temp\ccbih9yx.s:20431  .debug_str:0000000000008359 .LASF140
C:\Users\SOLDER~1\AppData\Local\Temp\ccbih9yx.s:29299  .debug_str:000000000002c6d9 .LASF141
C:\Users\SOLDER~1\AppData\Local\Temp\ccbih9yx.s:25285  .debug_str:000000000001c010 .LASF142
C:\Users\SOLDER~1\AppData\Local\Temp\ccbih9yx.s:28775  .debug_str:000000000002a50c .LASF143
C:\Users\SOLDER~1\AppData\Local\Temp\ccbih9yx.s:27883  .debug_str:0000000000026b0c .LASF144
C:\Users\SOLDER~1\AppData\Local\Temp\ccbih9yx.s:25483  .debug_str:000000000001cdcd .LASF145
C:\Users\SOLDER~1\AppData\Local\Temp\ccbih9yx.s:20903  .debug_str:000000000000a22c .LASF146
C:\Users\SOLDER~1\AppData\Local\Temp\ccbih9yx.s:23157  .debug_str:00000000000135a6 .LASF147
C:\Users\SOLDER~1\AppData\Local\Temp\ccbih9yx.s:24649  .debug_str:0000000000019780 .LASF148
C:\Users\SOLDER~1\AppData\Local\Temp\ccbih9yx.s:23713  .debug_str:0000000000015b15 .LASF149
C:\Users\SOLDER~1\AppData\Local\Temp\ccbih9yx.s:21573  .debug_str:000000000000ce95 .LASF150
C:\Users\SOLDER~1\AppData\Local\Temp\ccbih9yx.s:19613  .debug_str:0000000000004e17 .LASF151
C:\Users\SOLDER~1\AppData\Local\Temp\ccbih9yx.s:22161  .debug_str:000000000000f4c7 .LASF152
C:\Users\SOLDER~1\AppData\Local\Temp\ccbih9yx.s:24637  .debug_str:00000000000196e8 .LASF153
C:\Users\SOLDER~1\AppData\Local\Temp\ccbih9yx.s:18507  .debug_str:0000000000000744 .LASF154
C:\Users\SOLDER~1\AppData\Local\Temp\ccbih9yx.s:26955  .debug_str:0000000000022d59 .LASF155
C:\Users\SOLDER~1\AppData\Local\Temp\ccbih9yx.s:23211  .debug_str:000000000001396b .LASF156
C:\Users\SOLDER~1\AppData\Local\Temp\ccbih9yx.s:27885  .debug_str:0000000000026b24 .LASF157
C:\Users\SOLDER~1\AppData\Local\Temp\ccbih9yx.s:25689  .debug_str:000000000001dace .LASF158
C:\Users\SOLDER~1\AppData\Local\Temp\ccbih9yx.s:27823  .debug_str:00000000000266de .LASF159
C:\Users\SOLDER~1\AppData\Local\Temp\ccbih9yx.s:28493  .debug_str:0000000000029262 .LASF160
C:\Users\SOLDER~1\AppData\Local\Temp\ccbih9yx.s:25827  .debug_str:000000000001e3d9 .LASF161
C:\Users\SOLDER~1\AppData\Local\Temp\ccbih9yx.s:21443  .debug_str:000000000000c5fa .LASF162
C:\Users\SOLDER~1\AppData\Local\Temp\ccbih9yx.s:20533  .debug_str:00000000000089ce .LASF163
C:\Users\SOLDER~1\AppData\Local\Temp\ccbih9yx.s:23349  .debug_str:0000000000014332 .LASF164
C:\Users\SOLDER~1\AppData\Local\Temp\ccbih9yx.s:25331  .debug_str:000000000001c374 .LASF165
C:\Users\SOLDER~1\AppData\Local\Temp\ccbih9yx.s:26773  .debug_str:000000000002215d .LASF166
C:\Users\SOLDER~1\AppData\Local\Temp\ccbih9yx.s:28369  .debug_str:0000000000028a89 .LASF167
C:\Users\SOLDER~1\AppData\Local\Temp\ccbih9yx.s:27505  .debug_str:000000000002511b .LASF168
GAS LISTING C:\Users\SOLDER~1\AppData\Local\Temp\ccbih9yx.s 			page 14


C:\Users\SOLDER~1\AppData\Local\Temp\ccbih9yx.s:29197  .debug_str:000000000002c078 .LASF169
C:\Users\SOLDER~1\AppData\Local\Temp\ccbih9yx.s:20295  .debug_str:0000000000007a28 .LASF170
C:\Users\SOLDER~1\AppData\Local\Temp\ccbih9yx.s:28869  .debug_str:000000000002aafd .LASF171
C:\Users\SOLDER~1\AppData\Local\Temp\ccbih9yx.s:20675  .debug_str:0000000000009371 .LASF172
C:\Users\SOLDER~1\AppData\Local\Temp\ccbih9yx.s:25187  .debug_str:000000000001b9a2 .LASF173
C:\Users\SOLDER~1\AppData\Local\Temp\ccbih9yx.s:24439  .debug_str:0000000000018988 .LASF174
C:\Users\SOLDER~1\AppData\Local\Temp\ccbih9yx.s:28299  .debug_str:0000000000028602 .LASF175
C:\Users\SOLDER~1\AppData\Local\Temp\ccbih9yx.s:25327  .debug_str:000000000001c306 .LASF176
C:\Users\SOLDER~1\AppData\Local\Temp\ccbih9yx.s:25609  .debug_str:000000000001d613 .LASF177
C:\Users\SOLDER~1\AppData\Local\Temp\ccbih9yx.s:20897  .debug_str:000000000000a1e7 .LASF178
C:\Users\SOLDER~1\AppData\Local\Temp\ccbih9yx.s:22883  .debug_str:000000000001237a .LASF179
C:\Users\SOLDER~1\AppData\Local\Temp\ccbih9yx.s:24759  .debug_str:0000000000019e49 .LASF180
C:\Users\SOLDER~1\AppData\Local\Temp\ccbih9yx.s:19953  .debug_str:00000000000063ff .LASF181
C:\Users\SOLDER~1\AppData\Local\Temp\ccbih9yx.s:20757  .debug_str:00000000000098c4 .LASF182
C:\Users\SOLDER~1\AppData\Local\Temp\ccbih9yx.s:19419  .debug_str:00000000000041e8 .LASF183
C:\Users\SOLDER~1\AppData\Local\Temp\ccbih9yx.s:24817  .debug_str:000000000001a201 .LASF184
C:\Users\SOLDER~1\AppData\Local\Temp\ccbih9yx.s:23351  .debug_str:0000000000014349 .LASF185
C:\Users\SOLDER~1\AppData\Local\Temp\ccbih9yx.s:18937  .debug_str:0000000000002305 .LASF186
C:\Users\SOLDER~1\AppData\Local\Temp\ccbih9yx.s:29491  .debug_str:000000000002d36f .LASF187
C:\Users\SOLDER~1\AppData\Local\Temp\ccbih9yx.s:18717  .debug_str:00000000000014f5 .LASF188
C:\Users\SOLDER~1\AppData\Local\Temp\ccbih9yx.s:23331  .debug_str:00000000000141f0 .LASF189
C:\Users\SOLDER~1\AppData\Local\Temp\ccbih9yx.s:23783  .debug_str:0000000000015f88 .LASF190
C:\Users\SOLDER~1\AppData\Local\Temp\ccbih9yx.s:28701  .debug_str:000000000002a003 .LASF191
C:\Users\SOLDER~1\AppData\Local\Temp\ccbih9yx.s:21767  .debug_str:000000000000db23 .LASF192
C:\Users\SOLDER~1\AppData\Local\Temp\ccbih9yx.s:29169  .debug_str:000000000002be61 .LASF193
C:\Users\SOLDER~1\AppData\Local\Temp\ccbih9yx.s:23297  .debug_str:0000000000013f85 .LASF194
C:\Users\SOLDER~1\AppData\Local\Temp\ccbih9yx.s:22061  .debug_str:000000000000ee8e .LASF195
C:\Users\SOLDER~1\AppData\Local\Temp\ccbih9yx.s:21091  .debug_str:000000000000aedd .LASF196
C:\Users\SOLDER~1\AppData\Local\Temp\ccbih9yx.s:25883  .debug_str:000000000001e7a3 .LASF197
C:\Users\SOLDER~1\AppData\Local\Temp\ccbih9yx.s:28789  .debug_str:000000000002a5ff .LASF198
C:\Users\SOLDER~1\AppData\Local\Temp\ccbih9yx.s:23579  .debug_str:000000000001524e .LASF199
C:\Users\SOLDER~1\AppData\Local\Temp\ccbih9yx.s:26079  .debug_str:000000000001f4ab .LASF200
C:\Users\SOLDER~1\AppData\Local\Temp\ccbih9yx.s:18727  .debug_str:0000000000001597 .LASF201
C:\Users\SOLDER~1\AppData\Local\Temp\ccbih9yx.s:29725  .debug_str:000000000002e21c .LASF202
C:\Users\SOLDER~1\AppData\Local\Temp\ccbih9yx.s:23553  .debug_str:000000000001508b .LASF203
C:\Users\SOLDER~1\AppData\Local\Temp\ccbih9yx.s:26267  .debug_str:00000000000200be .LASF204
C:\Users\SOLDER~1\AppData\Local\Temp\ccbih9yx.s:24837  .debug_str:000000000001a343 .LASF205
C:\Users\SOLDER~1\AppData\Local\Temp\ccbih9yx.s:20001  .debug_str:0000000000006722 .LASF206
C:\Users\SOLDER~1\AppData\Local\Temp\ccbih9yx.s:23567  .debug_str:0000000000015167 .LASF207
C:\Users\SOLDER~1\AppData\Local\Temp\ccbih9yx.s:25531  .debug_str:000000000001d0c9 .LASF208
C:\Users\SOLDER~1\AppData\Local\Temp\ccbih9yx.s:26503  .debug_str:0000000000021020 .LASF209
C:\Users\SOLDER~1\AppData\Local\Temp\ccbih9yx.s:22385  .debug_str:00000000000103e7 .LASF210
C:\Users\SOLDER~1\AppData\Local\Temp\ccbih9yx.s:27887  .debug_str:0000000000026b60 .LASF211
C:\Users\SOLDER~1\AppData\Local\Temp\ccbih9yx.s:27689  .debug_str:0000000000025da6 .LASF212
C:\Users\SOLDER~1\AppData\Local\Temp\ccbih9yx.s:20239  .debug_str:00000000000076be .LASF213
C:\Users\SOLDER~1\AppData\Local\Temp\ccbih9yx.s:27213  .debug_str:0000000000023e03 .LASF214
C:\Users\SOLDER~1\AppData\Local\Temp\ccbih9yx.s:23869  .debug_str:0000000000016509 .LASF215
C:\Users\SOLDER~1\AppData\Local\Temp\ccbih9yx.s:20205  .debug_str:00000000000074af .LASF216
C:\Users\SOLDER~1\AppData\Local\Temp\ccbih9yx.s:20619  .debug_str:0000000000008fa3 .LASF217
C:\Users\SOLDER~1\AppData\Local\Temp\ccbih9yx.s:27763  .debug_str:0000000000026302 .LASF218
C:\Users\SOLDER~1\AppData\Local\Temp\ccbih9yx.s:26701  .debug_str:0000000000021d00 .LASF219
C:\Users\SOLDER~1\AppData\Local\Temp\ccbih9yx.s:19033  .debug_str:0000000000002982 .LASF220
C:\Users\SOLDER~1\AppData\Local\Temp\ccbih9yx.s:20751  .debug_str:0000000000009821 .LASF221
C:\Users\SOLDER~1\AppData\Local\Temp\ccbih9yx.s:18447  .debug_str:00000000000002a4 .LASF222
C:\Users\SOLDER~1\AppData\Local\Temp\ccbih9yx.s:26301  .debug_str:00000000000202dd .LASF223
C:\Users\SOLDER~1\AppData\Local\Temp\ccbih9yx.s:20665  .debug_str:00000000000092b4 .LASF224
C:\Users\SOLDER~1\AppData\Local\Temp\ccbih9yx.s:20009  .debug_str:00000000000067d5 .LASF225
GAS LISTING C:\Users\SOLDER~1\AppData\Local\Temp\ccbih9yx.s 			page 15


C:\Users\SOLDER~1\AppData\Local\Temp\ccbih9yx.s:25791  .debug_str:000000000001e1ae .LASF226
C:\Users\SOLDER~1\AppData\Local\Temp\ccbih9yx.s:23969  .debug_str:0000000000016b23 .LASF227
C:\Users\SOLDER~1\AppData\Local\Temp\ccbih9yx.s:22303  .debug_str:000000000000fe98 .LASF228
C:\Users\SOLDER~1\AppData\Local\Temp\ccbih9yx.s:26299  .debug_str:00000000000202c4 .LASF229
C:\Users\SOLDER~1\AppData\Local\Temp\ccbih9yx.s:27337  .debug_str:0000000000024652 .LASF230
C:\Users\SOLDER~1\AppData\Local\Temp\ccbih9yx.s:22327  .debug_str:0000000000010019 .LASF231
C:\Users\SOLDER~1\AppData\Local\Temp\ccbih9yx.s:28113  .debug_str:00000000000279bb .LASF232
C:\Users\SOLDER~1\AppData\Local\Temp\ccbih9yx.s:27401  .debug_str:0000000000024aa5 .LASF233
C:\Users\SOLDER~1\AppData\Local\Temp\ccbih9yx.s:29145  .debug_str:000000000002bcac .LASF234
C:\Users\SOLDER~1\AppData\Local\Temp\ccbih9yx.s:20405  .debug_str:00000000000081aa .LASF235
C:\Users\SOLDER~1\AppData\Local\Temp\ccbih9yx.s:22379  .debug_str:000000000001037f .LASF236
C:\Users\SOLDER~1\AppData\Local\Temp\ccbih9yx.s:21831  .debug_str:000000000000df72 .LASF237
C:\Users\SOLDER~1\AppData\Local\Temp\ccbih9yx.s:27565  .debug_str:0000000000025505 .LASF238
C:\Users\SOLDER~1\AppData\Local\Temp\ccbih9yx.s:23195  .debug_str:0000000000013831 .LASF239
C:\Users\SOLDER~1\AppData\Local\Temp\ccbih9yx.s:26315  .debug_str:00000000000203ce .LASF240
C:\Users\SOLDER~1\AppData\Local\Temp\ccbih9yx.s:19119  .debug_str:0000000000002ecf .LASF241
C:\Users\SOLDER~1\AppData\Local\Temp\ccbih9yx.s:24169  .debug_str:00000000000177e8 .LASF242
C:\Users\SOLDER~1\AppData\Local\Temp\ccbih9yx.s:25623  .debug_str:000000000001d6de .LASF243
C:\Users\SOLDER~1\AppData\Local\Temp\ccbih9yx.s:24999  .debug_str:000000000001ae08 .LASF244
C:\Users\SOLDER~1\AppData\Local\Temp\ccbih9yx.s:29459  .debug_str:000000000002d156 .LASF245
C:\Users\SOLDER~1\AppData\Local\Temp\ccbih9yx.s:25559  .debug_str:000000000001d2ed .LASF246
C:\Users\SOLDER~1\AppData\Local\Temp\ccbih9yx.s:28593  .debug_str:00000000000298c5 .LASF247
C:\Users\SOLDER~1\AppData\Local\Temp\ccbih9yx.s:21855  .debug_str:000000000000e155 .LASF248
C:\Users\SOLDER~1\AppData\Local\Temp\ccbih9yx.s:27975  .debug_str:0000000000027102 .LASF249
C:\Users\SOLDER~1\AppData\Local\Temp\ccbih9yx.s:21709  .debug_str:000000000000d79c .LASF250
C:\Users\SOLDER~1\AppData\Local\Temp\ccbih9yx.s:24905  .debug_str:000000000001a7cc .LASF251
C:\Users\SOLDER~1\AppData\Local\Temp\ccbih9yx.s:22415  .debug_str:0000000000010596 .LASF252
C:\Users\SOLDER~1\AppData\Local\Temp\ccbih9yx.s:18653  .debug_str:00000000000010a7 .LASF253
C:\Users\SOLDER~1\AppData\Local\Temp\ccbih9yx.s:21165  .debug_str:000000000000b370 .LASF254
C:\Users\SOLDER~1\AppData\Local\Temp\ccbih9yx.s:18595  .debug_str:0000000000000d25 .LASF255
C:\Users\SOLDER~1\AppData\Local\Temp\ccbih9yx.s:21271  .debug_str:000000000000ba3e .LASF256
C:\Users\SOLDER~1\AppData\Local\Temp\ccbih9yx.s:20755  .debug_str:000000000000987f .LASF257
C:\Users\SOLDER~1\AppData\Local\Temp\ccbih9yx.s:29667  .debug_str:000000000002de80 .LASF258
C:\Users\SOLDER~1\AppData\Local\Temp\ccbih9yx.s:25507  .debug_str:000000000001cf3f .LASF259
C:\Users\SOLDER~1\AppData\Local\Temp\ccbih9yx.s:24321  .debug_str:000000000001821d .LASF260
C:\Users\SOLDER~1\AppData\Local\Temp\ccbih9yx.s:25119  .debug_str:000000000001b587 .LASF261
C:\Users\SOLDER~1\AppData\Local\Temp\ccbih9yx.s:21881  .debug_str:000000000000e31b .LASF262
C:\Users\SOLDER~1\AppData\Local\Temp\ccbih9yx.s:21217  .debug_str:000000000000b6c6 .LASF263
C:\Users\SOLDER~1\AppData\Local\Temp\ccbih9yx.s:28959  .debug_str:000000000002b102 .LASF264
C:\Users\SOLDER~1\AppData\Local\Temp\ccbih9yx.s:21533  .debug_str:000000000000cc05 .LASF265
C:\Users\SOLDER~1\AppData\Local\Temp\ccbih9yx.s:22507  .debug_str:0000000000010b5c .LASF266
C:\Users\SOLDER~1\AppData\Local\Temp\ccbih9yx.s:24353  .debug_str:0000000000018415 .LASF267
C:\Users\SOLDER~1\AppData\Local\Temp\ccbih9yx.s:28221  .debug_str:000000000002812f .LASF268
C:\Users\SOLDER~1\AppData\Local\Temp\ccbih9yx.s:21351  .debug_str:000000000000bf69 .LASF269
C:\Users\SOLDER~1\AppData\Local\Temp\ccbih9yx.s:20097  .debug_str:0000000000006d59 .LASF270
C:\Users\SOLDER~1\AppData\Local\Temp\ccbih9yx.s:20273  .debug_str:00000000000078a3 .LASF271
C:\Users\SOLDER~1\AppData\Local\Temp\ccbih9yx.s:21585  .debug_str:000000000000cf68 .LASF272
C:\Users\SOLDER~1\AppData\Local\Temp\ccbih9yx.s:21421  .debug_str:000000000000c472 .LASF273
C:\Users\SOLDER~1\AppData\Local\Temp\ccbih9yx.s:18741  .debug_str:000000000000166f .LASF274
C:\Users\SOLDER~1\AppData\Local\Temp\ccbih9yx.s:20089  .debug_str:0000000000006ce6 .LASF275
C:\Users\SOLDER~1\AppData\Local\Temp\ccbih9yx.s:28895  .debug_str:000000000002ac99 .LASF276
C:\Users\SOLDER~1\AppData\Local\Temp\ccbih9yx.s:26855  .debug_str:0000000000022690 .LASF277
C:\Users\SOLDER~1\AppData\Local\Temp\ccbih9yx.s:27789  .debug_str:00000000000264c6 .LASF278
C:\Users\SOLDER~1\AppData\Local\Temp\ccbih9yx.s:20049  .debug_str:0000000000006a55 .LASF279
C:\Users\SOLDER~1\AppData\Local\Temp\ccbih9yx.s:19827  .debug_str:0000000000005bba .LASF280
C:\Users\SOLDER~1\AppData\Local\Temp\ccbih9yx.s:19707  .debug_str:00000000000053d3 .LASF281
C:\Users\SOLDER~1\AppData\Local\Temp\ccbih9yx.s:24383  .debug_str:0000000000018618 .LASF282
GAS LISTING C:\Users\SOLDER~1\AppData\Local\Temp\ccbih9yx.s 			page 16


C:\Users\SOLDER~1\AppData\Local\Temp\ccbih9yx.s:27759  .debug_str:00000000000262bd .LASF283
C:\Users\SOLDER~1\AppData\Local\Temp\ccbih9yx.s:28019  .debug_str:00000000000273f9 .LASF284
C:\Users\SOLDER~1\AppData\Local\Temp\ccbih9yx.s:28875  .debug_str:000000000002ab5f .LASF285
C:\Users\SOLDER~1\AppData\Local\Temp\ccbih9yx.s:25569  .debug_str:000000000001d391 .LASF286
C:\Users\SOLDER~1\AppData\Local\Temp\ccbih9yx.s:29657  .debug_str:000000000002dddf .LASF287
C:\Users\SOLDER~1\AppData\Local\Temp\ccbih9yx.s:19799  .debug_str:00000000000059dc .LASF288
C:\Users\SOLDER~1\AppData\Local\Temp\ccbih9yx.s:23583  .debug_str:0000000000015283 .LASF289
C:\Users\SOLDER~1\AppData\Local\Temp\ccbih9yx.s:22461  .debug_str:000000000001089e .LASF290
C:\Users\SOLDER~1\AppData\Local\Temp\ccbih9yx.s:29895  .debug_str:000000000002ecfe .LASF291
C:\Users\SOLDER~1\AppData\Local\Temp\ccbih9yx.s:28719  .debug_str:000000000002a15e .LASF292
C:\Users\SOLDER~1\AppData\Local\Temp\ccbih9yx.s:19635  .debug_str:0000000000004f60 .LASF293
C:\Users\SOLDER~1\AppData\Local\Temp\ccbih9yx.s:18449  .debug_str:00000000000002e5 .LASF294
C:\Users\SOLDER~1\AppData\Local\Temp\ccbih9yx.s:23635  .debug_str:0000000000015615 .LASF295
C:\Users\SOLDER~1\AppData\Local\Temp\ccbih9yx.s:24457  .debug_str:0000000000018ad6 .LASF296
C:\Users\SOLDER~1\AppData\Local\Temp\ccbih9yx.s:21873  .debug_str:000000000000e295 .LASF297
C:\Users\SOLDER~1\AppData\Local\Temp\ccbih9yx.s:22407  .debug_str:0000000000010523 .LASF298
C:\Users\SOLDER~1\AppData\Local\Temp\ccbih9yx.s:25159  .debug_str:000000000001b7e9 .LASF299
C:\Users\SOLDER~1\AppData\Local\Temp\ccbih9yx.s:23707  .debug_str:0000000000015ad6 .LASF300
C:\Users\SOLDER~1\AppData\Local\Temp\ccbih9yx.s:23137  .debug_str:0000000000013440 .LASF301
C:\Users\SOLDER~1\AppData\Local\Temp\ccbih9yx.s:18973  .debug_str:000000000000257b .LASF302
C:\Users\SOLDER~1\AppData\Local\Temp\ccbih9yx.s:21537  .debug_str:000000000000cc47 .LASF303
C:\Users\SOLDER~1\AppData\Local\Temp\ccbih9yx.s:26935  .debug_str:0000000000022c14 .LASF304
C:\Users\SOLDER~1\AppData\Local\Temp\ccbih9yx.s:22427  .debug_str:0000000000010635 .LASF305
C:\Users\SOLDER~1\AppData\Local\Temp\ccbih9yx.s:27779  .debug_str:0000000000026435 .LASF306
C:\Users\SOLDER~1\AppData\Local\Temp\ccbih9yx.s:27373  .debug_str:00000000000248b5 .LASF307
C:\Users\SOLDER~1\AppData\Local\Temp\ccbih9yx.s:25581  .debug_str:000000000001d45c .LASF308
C:\Users\SOLDER~1\AppData\Local\Temp\ccbih9yx.s:19425  .debug_str:000000000000424c .LASF309
C:\Users\SOLDER~1\AppData\Local\Temp\ccbih9yx.s:25943  .debug_str:000000000001eb9e .LASF310
C:\Users\SOLDER~1\AppData\Local\Temp\ccbih9yx.s:21657  .debug_str:000000000000d443 .LASF311
C:\Users\SOLDER~1\AppData\Local\Temp\ccbih9yx.s:22965  .debug_str:00000000000128b4 .LASF312
C:\Users\SOLDER~1\AppData\Local\Temp\ccbih9yx.s:20821  .debug_str:0000000000009cb7 .LASF313
C:\Users\SOLDER~1\AppData\Local\Temp\ccbih9yx.s:23395  .debug_str:0000000000014667 .LASF314
C:\Users\SOLDER~1\AppData\Local\Temp\ccbih9yx.s:20269  .debug_str:0000000000007864 .LASF315
C:\Users\SOLDER~1\AppData\Local\Temp\ccbih9yx.s:25653  .debug_str:000000000001d898 .LASF316
C:\Users\SOLDER~1\AppData\Local\Temp\ccbih9yx.s:28109  .debug_str:000000000002798c .LASF317
C:\Users\SOLDER~1\AppData\Local\Temp\ccbih9yx.s:27379  .debug_str:0000000000024922 .LASF319
C:\Users\SOLDER~1\AppData\Local\Temp\ccbih9yx.s:22267  .debug_str:000000000000fc39 .LASF320
C:\Users\SOLDER~1\AppData\Local\Temp\ccbih9yx.s:23551  .debug_str:0000000000015066 .LASF321
C:\Users\SOLDER~1\AppData\Local\Temp\ccbih9yx.s:25983  .debug_str:000000000001ee1e .LASF322
C:\Users\SOLDER~1\AppData\Local\Temp\ccbih9yx.s:24811  .debug_str:000000000001a1a1 .LASF323
C:\Users\SOLDER~1\AppData\Local\Temp\ccbih9yx.s:21551  .debug_str:000000000000cd32 .LASF324
C:\Users\SOLDER~1\AppData\Local\Temp\ccbih9yx.s:19795  .debug_str:00000000000059a3 .LASF325
C:\Users\SOLDER~1\AppData\Local\Temp\ccbih9yx.s:18533  .debug_str:00000000000008b9 .LASF326
C:\Users\SOLDER~1\AppData\Local\Temp\ccbih9yx.s:28723  .debug_str:000000000002a1a3 .LASF327
C:\Users\SOLDER~1\AppData\Local\Temp\ccbih9yx.s:21627  .debug_str:000000000000d236 .LASF328
C:\Users\SOLDER~1\AppData\Local\Temp\ccbih9yx.s:29581  .debug_str:000000000002d90d .LASF329
C:\Users\SOLDER~1\AppData\Local\Temp\ccbih9yx.s:19921  .debug_str:00000000000061e2 .LASF330
C:\Users\SOLDER~1\AppData\Local\Temp\ccbih9yx.s:19471  .debug_str:000000000000450b .LASF331
C:\Users\SOLDER~1\AppData\Local\Temp\ccbih9yx.s:18461  .debug_str:00000000000003a6 .LASF332
C:\Users\SOLDER~1\AppData\Local\Temp\ccbih9yx.s:23805  .debug_str:00000000000160fd .LASF333
C:\Users\SOLDER~1\AppData\Local\Temp\ccbih9yx.s:26405  .debug_str:00000000000209d5 .LASF334
C:\Users\SOLDER~1\AppData\Local\Temp\ccbih9yx.s:24691  .debug_str:0000000000019a29 .LASF335
C:\Users\SOLDER~1\AppData\Local\Temp\ccbih9yx.s:24555  .debug_str:0000000000019156 .LASF339
C:\Users\SOLDER~1\AppData\Local\Temp\ccbih9yx.s:25095  .debug_str:000000000001b400 .LASF340
C:\Users\SOLDER~1\AppData\Local\Temp\ccbih9yx.s:21117  .debug_str:000000000000b061 .LASF341
C:\Users\SOLDER~1\AppData\Local\Temp\ccbih9yx.s:24327  .debug_str:0000000000018283 .LASF342
C:\Users\SOLDER~1\AppData\Local\Temp\ccbih9yx.s:24541  .debug_str:000000000001907c .LASF343
GAS LISTING C:\Users\SOLDER~1\AppData\Local\Temp\ccbih9yx.s 			page 17


C:\Users\SOLDER~1\AppData\Local\Temp\ccbih9yx.s:19017  .debug_str:0000000000002838 .LASF344
C:\Users\SOLDER~1\AppData\Local\Temp\ccbih9yx.s:21159  .debug_str:000000000000b2fe .LASF345
C:\Users\SOLDER~1\AppData\Local\Temp\ccbih9yx.s:19335  .debug_str:0000000000003cc2 .LASF346
C:\Users\SOLDER~1\AppData\Local\Temp\ccbih9yx.s:29243  .debug_str:000000000002c367 .LASF347
C:\Users\SOLDER~1\AppData\Local\Temp\ccbih9yx.s:23893  .debug_str:000000000001665e .LASF348
C:\Users\SOLDER~1\AppData\Local\Temp\ccbih9yx.s:26337  .debug_str:000000000002055b .LASF349
C:\Users\SOLDER~1\AppData\Local\Temp\ccbih9yx.s:20655  .debug_str:000000000000922f .LASF350
C:\Users\SOLDER~1\AppData\Local\Temp\ccbih9yx.s:24393  .debug_str:00000000000186af .LASF351
C:\Users\SOLDER~1\AppData\Local\Temp\ccbih9yx.s:29571  .debug_str:000000000002d876 .LASF352
C:\Users\SOLDER~1\AppData\Local\Temp\ccbih9yx.s:21093  .debug_str:000000000000aef6 .LASF353
C:\Users\SOLDER~1\AppData\Local\Temp\ccbih9yx.s:22177  .debug_str:000000000000f5db .LASF354
C:\Users\SOLDER~1\AppData\Local\Temp\ccbih9yx.s:25595  .debug_str:000000000001d548 .LASF355
C:\Users\SOLDER~1\AppData\Local\Temp\ccbih9yx.s:23803  .debug_str:00000000000160ed .LASF356
C:\Users\SOLDER~1\AppData\Local\Temp\ccbih9yx.s:23945  .debug_str:00000000000169a4 .LASF357
C:\Users\SOLDER~1\AppData\Local\Temp\ccbih9yx.s:26979  .debug_str:0000000000022ec8 .LASF358
C:\Users\SOLDER~1\AppData\Local\Temp\ccbih9yx.s:23021  .debug_str:0000000000012cad .LASF359
C:\Users\SOLDER~1\AppData\Local\Temp\ccbih9yx.s:24009  .debug_str:0000000000016d5b .LASF360
C:\Users\SOLDER~1\AppData\Local\Temp\ccbih9yx.s:27089  .debug_str:000000000002363b .LASF361
C:\Users\SOLDER~1\AppData\Local\Temp\ccbih9yx.s:20161  .debug_str:00000000000071d0 .LASF362
C:\Users\SOLDER~1\AppData\Local\Temp\ccbih9yx.s:28849  .debug_str:000000000002a997 .LASF363
C:\Users\SOLDER~1\AppData\Local\Temp\ccbih9yx.s:19677  .debug_str:00000000000051fc .LASF364
C:\Users\SOLDER~1\AppData\Local\Temp\ccbih9yx.s:24477  .debug_str:0000000000018c36 .LASF365
C:\Users\SOLDER~1\AppData\Local\Temp\ccbih9yx.s:20257  .debug_str:00000000000077a9 .LASF366
C:\Users\SOLDER~1\AppData\Local\Temp\ccbih9yx.s:21177  .debug_str:000000000000b460 .LASF367
C:\Users\SOLDER~1\AppData\Local\Temp\ccbih9yx.s:18421  .debug_str:000000000000011b .LASF368
C:\Users\SOLDER~1\AppData\Local\Temp\ccbih9yx.s:26285  .debug_str:00000000000201e0 .LASF369
C:\Users\SOLDER~1\AppData\Local\Temp\ccbih9yx.s:21863  .debug_str:000000000000e1e8 .LASF370
C:\Users\SOLDER~1\AppData\Local\Temp\ccbih9yx.s:27283  .debug_str:00000000000242b0 .LASF371
C:\Users\SOLDER~1\AppData\Local\Temp\ccbih9yx.s:26221  .debug_str:000000000001fdc2 .LASF372
C:\Users\SOLDER~1\AppData\Local\Temp\ccbih9yx.s:22625  .debug_str:00000000000112db .LASF373
C:\Users\SOLDER~1\AppData\Local\Temp\ccbih9yx.s:29717  .debug_str:000000000002e19f .LASF374
C:\Users\SOLDER~1\AppData\Local\Temp\ccbih9yx.s:29655  .debug_str:000000000002ddd9 .LASF375
C:\Users\SOLDER~1\AppData\Local\Temp\ccbih9yx.s:20439  .debug_str:00000000000083da .LASF376
C:\Users\SOLDER~1\AppData\Local\Temp\ccbih9yx.s:28753  .debug_str:000000000002a38f .LASF377
C:\Users\SOLDER~1\AppData\Local\Temp\ccbih9yx.s:23789  .debug_str:0000000000016010 .LASF378
C:\Users\SOLDER~1\AppData\Local\Temp\ccbih9yx.s:27545  .debug_str:00000000000253a6 .LASF379
C:\Users\SOLDER~1\AppData\Local\Temp\ccbih9yx.s:28553  .debug_str:0000000000029679 .LASF380
C:\Users\SOLDER~1\AppData\Local\Temp\ccbih9yx.s:27015  .debug_str:0000000000023135 .LASF381
C:\Users\SOLDER~1\AppData\Local\Temp\ccbih9yx.s:23985  .debug_str:0000000000016c0b .LASF382
C:\Users\SOLDER~1\AppData\Local\Temp\ccbih9yx.s:28579  .debug_str:00000000000297ff .LASF383
C:\Users\SOLDER~1\AppData\Local\Temp\ccbih9yx.s:25319  .debug_str:000000000001c293 .LASF384
C:\Users\SOLDER~1\AppData\Local\Temp\ccbih9yx.s:22723  .debug_str:000000000001198a .LASF385
C:\Users\SOLDER~1\AppData\Local\Temp\ccbih9yx.s:27139  .debug_str:000000000002394b .LASF386
C:\Users\SOLDER~1\AppData\Local\Temp\ccbih9yx.s:26133  .debug_str:000000000001f862 .LASF387
C:\Users\SOLDER~1\AppData\Local\Temp\ccbih9yx.s:18773  .debug_str:000000000000185c .LASF388
C:\Users\SOLDER~1\AppData\Local\Temp\ccbih9yx.s:19441  .debug_str:0000000000004334 .LASF389
C:\Users\SOLDER~1\AppData\Local\Temp\ccbih9yx.s:19853  .debug_str:0000000000005d61 .LASF390
C:\Users\SOLDER~1\AppData\Local\Temp\ccbih9yx.s:21019  .debug_str:000000000000aa2f .LASF391
C:\Users\SOLDER~1\AppData\Local\Temp\ccbih9yx.s:24917  .debug_str:000000000001a89d .LASF392
C:\Users\SOLDER~1\AppData\Local\Temp\ccbih9yx.s:25835  .debug_str:000000000001e457 .LASF393
C:\Users\SOLDER~1\AppData\Local\Temp\ccbih9yx.s:26473  .debug_str:0000000000020e2a .LASF394
C:\Users\SOLDER~1\AppData\Local\Temp\ccbih9yx.s:26609  .debug_str:0000000000021719 .LASF395
C:\Users\SOLDER~1\AppData\Local\Temp\ccbih9yx.s:20661  .debug_str:0000000000009285 .LASF396
C:\Users\SOLDER~1\AppData\Local\Temp\ccbih9yx.s:20247  .debug_str:0000000000007728 .LASF397
C:\Users\SOLDER~1\AppData\Local\Temp\ccbih9yx.s:25649  .debug_str:000000000001d874 .LASF398
C:\Users\SOLDER~1\AppData\Local\Temp\ccbih9yx.s:28265  .debug_str:00000000000283ef .LASF399
C:\Users\SOLDER~1\AppData\Local\Temp\ccbih9yx.s:22937  .debug_str:0000000000012700 .LASF400
GAS LISTING C:\Users\SOLDER~1\AppData\Local\Temp\ccbih9yx.s 			page 18


C:\Users\SOLDER~1\AppData\Local\Temp\ccbih9yx.s:23691  .debug_str:00000000000159cb .LASF401
C:\Users\SOLDER~1\AppData\Local\Temp\ccbih9yx.s:21519  .debug_str:000000000000cb44 .LASF402
C:\Users\SOLDER~1\AppData\Local\Temp\ccbih9yx.s:25347  .debug_str:000000000001c47a .LASF403
C:\Users\SOLDER~1\AppData\Local\Temp\ccbih9yx.s:23901  .debug_str:00000000000166cb .LASF404
C:\Users\SOLDER~1\AppData\Local\Temp\ccbih9yx.s:24343  .debug_str:0000000000018382 .LASF405
C:\Users\SOLDER~1\AppData\Local\Temp\ccbih9yx.s:20563  .debug_str:0000000000008bb8 .LASF406
C:\Users\SOLDER~1\AppData\Local\Temp\ccbih9yx.s:29193  .debug_str:000000000002c044 .LASF407
C:\Users\SOLDER~1\AppData\Local\Temp\ccbih9yx.s:23243  .debug_str:0000000000013beb .LASF408
C:\Users\SOLDER~1\AppData\Local\Temp\ccbih9yx.s:25681  .debug_str:000000000001da59 .LASF409
C:\Users\SOLDER~1\AppData\Local\Temp\ccbih9yx.s:22093  .debug_str:000000000000f070 .LASF410
C:\Users\SOLDER~1\AppData\Local\Temp\ccbih9yx.s:26371  .debug_str:00000000000207a1 .LASF411
C:\Users\SOLDER~1\AppData\Local\Temp\ccbih9yx.s:28331  .debug_str:0000000000028848 .LASF412
C:\Users\SOLDER~1\AppData\Local\Temp\ccbih9yx.s:23571  .debug_str:00000000000151c9 .LASF413
C:\Users\SOLDER~1\AppData\Local\Temp\ccbih9yx.s:22783  .debug_str:0000000000011d3d .LASF414
C:\Users\SOLDER~1\AppData\Local\Temp\ccbih9yx.s:24753  .debug_str:0000000000019e07 .LASF415
C:\Users\SOLDER~1\AppData\Local\Temp\ccbih9yx.s:29751  .debug_str:000000000002e3c7 .LASF416
C:\Users\SOLDER~1\AppData\Local\Temp\ccbih9yx.s:29887  .debug_str:000000000002ec85 .LASF417
C:\Users\SOLDER~1\AppData\Local\Temp\ccbih9yx.s:20321  .debug_str:0000000000007bea .LASF418
C:\Users\SOLDER~1\AppData\Local\Temp\ccbih9yx.s:21373  .debug_str:000000000000c113 .LASF419
C:\Users\SOLDER~1\AppData\Local\Temp\ccbih9yx.s:18955  .debug_str:0000000000002448 .LASF420
C:\Users\SOLDER~1\AppData\Local\Temp\ccbih9yx.s:26425  .debug_str:0000000000020b28 .LASF421
C:\Users\SOLDER~1\AppData\Local\Temp\ccbih9yx.s:27113  .debug_str:00000000000237bb .LASF422
C:\Users\SOLDER~1\AppData\Local\Temp\ccbih9yx.s:18889  .debug_str:0000000000001fd8 .LASF423
C:\Users\SOLDER~1\AppData\Local\Temp\ccbih9yx.s:23177  .debug_str:00000000000136f9 .LASF424
C:\Users\SOLDER~1\AppData\Local\Temp\ccbih9yx.s:26361  .debug_str:00000000000206f9 .LASF425
C:\Users\SOLDER~1\AppData\Local\Temp\ccbih9yx.s:22773  .debug_str:0000000000011cb9 .LASF426
C:\Users\SOLDER~1\AppData\Local\Temp\ccbih9yx.s:29869  .debug_str:000000000002eb65 .LASF427
C:\Users\SOLDER~1\AppData\Local\Temp\ccbih9yx.s:25359  .debug_str:000000000001c52f .LASF428
C:\Users\SOLDER~1\AppData\Local\Temp\ccbih9yx.s:19691  .debug_str:00000000000052eb .LASF429
C:\Users\SOLDER~1\AppData\Local\Temp\ccbih9yx.s:27489  .debug_str:000000000002504a .LASF430
C:\Users\SOLDER~1\AppData\Local\Temp\ccbih9yx.s:23111  .debug_str:0000000000013281 .LASF431
C:\Users\SOLDER~1\AppData\Local\Temp\ccbih9yx.s:27403  .debug_str:0000000000024ac3 .LASF432
C:\Users\SOLDER~1\AppData\Local\Temp\ccbih9yx.s:19603  .debug_str:0000000000004d7f .LASF433
C:\Users\SOLDER~1\AppData\Local\Temp\ccbih9yx.s:22067  .debug_str:000000000000eedc .LASF434
C:\Users\SOLDER~1\AppData\Local\Temp\ccbih9yx.s:26255  .debug_str:000000000001fffb .LASF435
C:\Users\SOLDER~1\AppData\Local\Temp\ccbih9yx.s:18579  .debug_str:0000000000000c16 .LASF436
C:\Users\SOLDER~1\AppData\Local\Temp\ccbih9yx.s:21561  .debug_str:000000000000cde0 .LASF437
C:\Users\SOLDER~1\AppData\Local\Temp\ccbih9yx.s:23523  .debug_str:0000000000014ec0 .LASF438
C:\Users\SOLDER~1\AppData\Local\Temp\ccbih9yx.s:19679  .debug_str:0000000000005211 .LASF439
C:\Users\SOLDER~1\AppData\Local\Temp\ccbih9yx.s:22845  .debug_str:000000000001210d .LASF440
C:\Users\SOLDER~1\AppData\Local\Temp\ccbih9yx.s:28521  .debug_str:0000000000029464 .LASF441
C:\Users\SOLDER~1\AppData\Local\Temp\ccbih9yx.s:21205  .debug_str:000000000000b5ff .LASF442
C:\Users\SOLDER~1\AppData\Local\Temp\ccbih9yx.s:25405  .debug_str:000000000001c851 .LASF443
C:\Users\SOLDER~1\AppData\Local\Temp\ccbih9yx.s:29067  .debug_str:000000000002b7c1 .LASF444
C:\Users\SOLDER~1\AppData\Local\Temp\ccbih9yx.s:22977  .debug_str:000000000001298e .LASF445
C:\Users\SOLDER~1\AppData\Local\Temp\ccbih9yx.s:21303  .debug_str:000000000000bc74 .LASF446
C:\Users\SOLDER~1\AppData\Local\Temp\ccbih9yx.s:26155  .debug_str:000000000001f9b5 .LASF447
C:\Users\SOLDER~1\AppData\Local\Temp\ccbih9yx.s:20561  .debug_str:0000000000008b9e .LASF448
C:\Users\SOLDER~1\AppData\Local\Temp\ccbih9yx.s:25753  .debug_str:000000000001df4b .LASF449
C:\Users\SOLDER~1\AppData\Local\Temp\ccbih9yx.s:22059  .debug_str:000000000000ee63 .LASF450
C:\Users\SOLDER~1\AppData\Local\Temp\ccbih9yx.s:28491  .debug_str:000000000002923c .LASF451
C:\Users\SOLDER~1\AppData\Local\Temp\ccbih9yx.s:22695  .debug_str:0000000000011793 .LASF452
C:\Users\SOLDER~1\AppData\Local\Temp\ccbih9yx.s:19137  .debug_str:0000000000003003 .LASF453
C:\Users\SOLDER~1\AppData\Local\Temp\ccbih9yx.s:18723  .debug_str:0000000000001554 .LASF454
C:\Users\SOLDER~1\AppData\Local\Temp\ccbih9yx.s:26863  .debug_str:0000000000022711 .LASF455
C:\Users\SOLDER~1\AppData\Local\Temp\ccbih9yx.s:27757  .debug_str:0000000000026292 .LASF456
C:\Users\SOLDER~1\AppData\Local\Temp\ccbih9yx.s:21581  .debug_str:000000000000cf19 .LASF457
GAS LISTING C:\Users\SOLDER~1\AppData\Local\Temp\ccbih9yx.s 			page 19


C:\Users\SOLDER~1\AppData\Local\Temp\ccbih9yx.s:21901  .debug_str:000000000000e44e .LASF458
C:\Users\SOLDER~1\AppData\Local\Temp\ccbih9yx.s:28391  .debug_str:0000000000028bd3 .LASF459
C:\Users\SOLDER~1\AppData\Local\Temp\ccbih9yx.s:29311  .debug_str:000000000002c787 .LASF460
C:\Users\SOLDER~1\AppData\Local\Temp\ccbih9yx.s:18709  .debug_str:000000000000145f .LASF461
C:\Users\SOLDER~1\AppData\Local\Temp\ccbih9yx.s:21187  .debug_str:000000000000b4e9 .LASF462
C:\Users\SOLDER~1\AppData\Local\Temp\ccbih9yx.s:27717  .debug_str:0000000000025fa8 .LASF463
C:\Users\SOLDER~1\AppData\Local\Temp\ccbih9yx.s:25093  .debug_str:000000000001b3da .LASF464
C:\Users\SOLDER~1\AppData\Local\Temp\ccbih9yx.s:28243  .debug_str:0000000000028272 .LASF465
C:\Users\SOLDER~1\AppData\Local\Temp\ccbih9yx.s:24273  .debug_str:0000000000017ef3 .LASF466
C:\Users\SOLDER~1\AppData\Local\Temp\ccbih9yx.s:26657  .debug_str:0000000000021a3a .LASF467
C:\Users\SOLDER~1\AppData\Local\Temp\ccbih9yx.s:25309  .debug_str:000000000001c1da .LASF468
C:\Users\SOLDER~1\AppData\Local\Temp\ccbih9yx.s:18815  .debug_str:0000000000001b0b .LASF469
C:\Users\SOLDER~1\AppData\Local\Temp\ccbih9yx.s:21323  .debug_str:000000000000bdaa .LASF470
C:\Users\SOLDER~1\AppData\Local\Temp\ccbih9yx.s:26237  .debug_str:000000000001fec2 .LASF471
C:\Users\SOLDER~1\AppData\Local\Temp\ccbih9yx.s:29561  .debug_str:000000000002d7d5 .LASF472
C:\Users\SOLDER~1\AppData\Local\Temp\ccbih9yx.s:29805  .debug_str:000000000002e77b .LASF473
C:\Users\SOLDER~1\AppData\Local\Temp\ccbih9yx.s:29659  .debug_str:000000000002de01 .LASF474
C:\Users\SOLDER~1\AppData\Local\Temp\ccbih9yx.s:27749  .debug_str:00000000000261ec .LASF475
C:\Users\SOLDER~1\AppData\Local\Temp\ccbih9yx.s:20841  .debug_str:0000000000009e10 .LASF476
C:\Users\SOLDER~1\AppData\Local\Temp\ccbih9yx.s:24873  .debug_str:000000000001a595 .LASF477
C:\Users\SOLDER~1\AppData\Local\Temp\ccbih9yx.s:23961  .debug_str:0000000000016aae .LASF478
C:\Users\SOLDER~1\AppData\Local\Temp\ccbih9yx.s:27853  .debug_str:00000000000268eb .LASF479
C:\Users\SOLDER~1\AppData\Local\Temp\ccbih9yx.s:29899  .debug_str:000000000002ed34 .LASF480
C:\Users\SOLDER~1\AppData\Local\Temp\ccbih9yx.s:26669  .debug_str:0000000000021b0a .LASF481
C:\Users\SOLDER~1\AppData\Local\Temp\ccbih9yx.s:27947  .debug_str:0000000000026f45 .LASF482
C:\Users\SOLDER~1\AppData\Local\Temp\ccbih9yx.s:21841  .debug_str:000000000000e05a .LASF483
C:\Users\SOLDER~1\AppData\Local\Temp\ccbih9yx.s:25033  .debug_str:000000000001b015 .LASF484
C:\Users\SOLDER~1\AppData\Local\Temp\ccbih9yx.s:24945  .debug_str:000000000001aa42 .LASF485
C:\Users\SOLDER~1\AppData\Local\Temp\ccbih9yx.s:28071  .debug_str:0000000000027738 .LASF486
C:\Users\SOLDER~1\AppData\Local\Temp\ccbih9yx.s:25505  .debug_str:000000000001cf27 .LASF487
C:\Users\SOLDER~1\AppData\Local\Temp\ccbih9yx.s:22319  .debug_str:000000000000ffa2 .LASF488
C:\Users\SOLDER~1\AppData\Local\Temp\ccbih9yx.s:24433  .debug_str:0000000000018928 .LASF489
C:\Users\SOLDER~1\AppData\Local\Temp\ccbih9yx.s:19627  .debug_str:0000000000004ed9 .LASF490
C:\Users\SOLDER~1\AppData\Local\Temp\ccbih9yx.s:22671  .debug_str:0000000000011615 .LASF491
C:\Users\SOLDER~1\AppData\Local\Temp\ccbih9yx.s:21643  .debug_str:000000000000d352 .LASF492
C:\Users\SOLDER~1\AppData\Local\Temp\ccbih9yx.s:26975  .debug_str:0000000000022e91 .LASF494
C:\Users\SOLDER~1\AppData\Local\Temp\ccbih9yx.s:20725  .debug_str:0000000000009687 .LASF495
C:\Users\SOLDER~1\AppData\Local\Temp\ccbih9yx.s:19719  .debug_str:0000000000005482 .LASF496
C:\Users\SOLDER~1\AppData\Local\Temp\ccbih9yx.s:25759  .debug_str:000000000001dfa4 .LASF497
C:\Users\SOLDER~1\AppData\Local\Temp\ccbih9yx.s:25097  .debug_str:000000000001b418 .LASF498
C:\Users\SOLDER~1\AppData\Local\Temp\ccbih9yx.s:25193  .debug_str:000000000001ba29 .LASF499
C:\Users\SOLDER~1\AppData\Local\Temp\ccbih9yx.s:21905  .debug_str:000000000000e48f .LASF500
C:\Users\SOLDER~1\AppData\Local\Temp\ccbih9yx.s:19527  .debug_str:00000000000048cd .LASF501
C:\Users\SOLDER~1\AppData\Local\Temp\ccbih9yx.s:22829  .debug_str:0000000000012016 .LASF502
C:\Users\SOLDER~1\AppData\Local\Temp\ccbih9yx.s:27453  .debug_str:0000000000024dfe .LASF503
C:\Users\SOLDER~1\AppData\Local\Temp\ccbih9yx.s:23675  .debug_str:00000000000158a5 .LASF504
C:\Users\SOLDER~1\AppData\Local\Temp\ccbih9yx.s:18431  .debug_str:00000000000001a0 .LASF505
C:\Users\SOLDER~1\AppData\Local\Temp\ccbih9yx.s:21721  .debug_str:000000000000d85d .LASF506
C:\Users\SOLDER~1\AppData\Local\Temp\ccbih9yx.s:29621  .debug_str:000000000002dba8 .LASF507
C:\Users\SOLDER~1\AppData\Local\Temp\ccbih9yx.s:28559  .debug_str:00000000000296c5 .LASF508
C:\Users\SOLDER~1\AppData\Local\Temp\ccbih9yx.s:23203  .debug_str:00000000000138d9 .LASF509
C:\Users\SOLDER~1\AppData\Local\Temp\ccbih9yx.s:24129  .debug_str:0000000000017570 .LASF510
C:\Users\SOLDER~1\AppData\Local\Temp\ccbih9yx.s:23511  .debug_str:0000000000014e03 .LASF511
C:\Users\SOLDER~1\AppData\Local\Temp\ccbih9yx.s:24569  .debug_str:0000000000019245 .LASF512
C:\Users\SOLDER~1\AppData\Local\Temp\ccbih9yx.s:26399  .debug_str:000000000002096a .LASF513
C:\Users\SOLDER~1\AppData\Local\Temp\ccbih9yx.s:25425  .debug_str:000000000001c9ac .LASF514
C:\Users\SOLDER~1\AppData\Local\Temp\ccbih9yx.s:21103  .debug_str:000000000000af8e .LASF515
GAS LISTING C:\Users\SOLDER~1\AppData\Local\Temp\ccbih9yx.s 			page 20


C:\Users\SOLDER~1\AppData\Local\Temp\ccbih9yx.s:29165  .debug_str:000000000002be19 .LASF516
C:\Users\SOLDER~1\AppData\Local\Temp\ccbih9yx.s:25669  .debug_str:000000000001d98b .LASF517
C:\Users\SOLDER~1\AppData\Local\Temp\ccbih9yx.s:29035  .debug_str:000000000002b5e7 .LASF518
C:\Users\SOLDER~1\AppData\Local\Temp\ccbih9yx.s:27643  .debug_str:0000000000025a68 .LASF519
C:\Users\SOLDER~1\AppData\Local\Temp\ccbih9yx.s:24841  .debug_str:000000000001a3a4 .LASF520
C:\Users\SOLDER~1\AppData\Local\Temp\ccbih9yx.s:19945  .debug_str:0000000000006368 .LASF521
C:\Users\SOLDER~1\AppData\Local\Temp\ccbih9yx.s:27019  .debug_str:0000000000023166 .LASF522
C:\Users\SOLDER~1\AppData\Local\Temp\ccbih9yx.s:20883  .debug_str:000000000000a0e6 .LASF523
C:\Users\SOLDER~1\AppData\Local\Temp\ccbih9yx.s:18919  .debug_str:00000000000021d9 .LASF524
C:\Users\SOLDER~1\AppData\Local\Temp\ccbih9yx.s:25723  .debug_str:000000000001dd31 .LASF525
C:\Users\SOLDER~1\AppData\Local\Temp\ccbih9yx.s:21775  .debug_str:000000000000dbb3 .LASF526
C:\Users\SOLDER~1\AppData\Local\Temp\ccbih9yx.s:23527  .debug_str:0000000000014efc .LASF527
C:\Users\SOLDER~1\AppData\Local\Temp\ccbih9yx.s:21815  .debug_str:000000000000de61 .LASF528
C:\Users\SOLDER~1\AppData\Local\Temp\ccbih9yx.s:20617  .debug_str:0000000000008f7f .LASF529
C:\Users\SOLDER~1\AppData\Local\Temp\ccbih9yx.s:20261  .debug_str:00000000000077e2 .LASF530
C:\Users\SOLDER~1\AppData\Local\Temp\ccbih9yx.s:21411  .debug_str:000000000000c3c6 .LASF531
C:\Users\SOLDER~1\AppData\Local\Temp\ccbih9yx.s:27995  .debug_str:0000000000027258 .LASF532
C:\Users\SOLDER~1\AppData\Local\Temp\ccbih9yx.s:29767  .debug_str:000000000002e4bc .LASF533
C:\Users\SOLDER~1\AppData\Local\Temp\ccbih9yx.s:22851  .debug_str:000000000001217d .LASF534
C:\Users\SOLDER~1\AppData\Local\Temp\ccbih9yx.s:29157  .debug_str:000000000002bd8b .LASF535
C:\Users\SOLDER~1\AppData\Local\Temp\ccbih9yx.s:25313  .debug_str:000000000001c22c .LASF536
C:\Users\SOLDER~1\AppData\Local\Temp\ccbih9yx.s:21729  .debug_str:000000000000d8d3 .LASF537
C:\Users\SOLDER~1\AppData\Local\Temp\ccbih9yx.s:25091  .debug_str:000000000001b3b4 .LASF538
C:\Users\SOLDER~1\AppData\Local\Temp\ccbih9yx.s:19515  .debug_str:00000000000047fc .LASF539
C:\Users\SOLDER~1\AppData\Local\Temp\ccbih9yx.s:27069  .debug_str:00000000000234e3 .LASF540
C:\Users\SOLDER~1\AppData\Local\Temp\ccbih9yx.s:25137  .debug_str:000000000001b69a .LASF541
C:\Users\SOLDER~1\AppData\Local\Temp\ccbih9yx.s:29249  .debug_str:000000000002c3b0 .LASF542
C:\Users\SOLDER~1\AppData\Local\Temp\ccbih9yx.s:21229  .debug_str:000000000000b78c .LASF543
C:\Users\SOLDER~1\AppData\Local\Temp\ccbih9yx.s:27971  .debug_str:00000000000270c1 .LASF544
C:\Users\SOLDER~1\AppData\Local\Temp\ccbih9yx.s:27209  .debug_str:0000000000023db3 .LASF545
C:\Users\SOLDER~1\AppData\Local\Temp\ccbih9yx.s:25985  .debug_str:000000000001ee40 .LASF546
C:\Users\SOLDER~1\AppData\Local\Temp\ccbih9yx.s:28191  .debug_str:0000000000027f09 .LASF547
C:\Users\SOLDER~1\AppData\Local\Temp\ccbih9yx.s:26189  .debug_str:000000000001fbc5 .LASF548
C:\Users\SOLDER~1\AppData\Local\Temp\ccbih9yx.s:24323  .debug_str:0000000000018238 .LASF549
C:\Users\SOLDER~1\AppData\Local\Temp\ccbih9yx.s:23035  .debug_str:0000000000012d84 .LASF550
C:\Users\SOLDER~1\AppData\Local\Temp\ccbih9yx.s:26615  .debug_str:0000000000021763 .LASF551
C:\Users\SOLDER~1\AppData\Local\Temp\ccbih9yx.s:23269  .debug_str:0000000000013da9 .LASF552
C:\Users\SOLDER~1\AppData\Local\Temp\ccbih9yx.s:25859  .debug_str:000000000001e610 .LASF553
C:\Users\SOLDER~1\AppData\Local\Temp\ccbih9yx.s:23815  .debug_str:00000000000161a5 .LASF554
C:\Users\SOLDER~1\AppData\Local\Temp\ccbih9yx.s:18751  .debug_str:000000000000170c .LASF555
C:\Users\SOLDER~1\AppData\Local\Temp\ccbih9yx.s:22567  .debug_str:0000000000010f3e .LASF556
C:\Users\SOLDER~1\AppData\Local\Temp\ccbih9yx.s:19905  .debug_str:00000000000060cb .LASF557
C:\Users\SOLDER~1\AppData\Local\Temp\ccbih9yx.s:22463  .debug_str:00000000000108bb .LASF558
C:\Users\SOLDER~1\AppData\Local\Temp\ccbih9yx.s:22331  .debug_str:000000000001003a .LASF559
C:\Users\SOLDER~1\AppData\Local\Temp\ccbih9yx.s:18843  .debug_str:0000000000001cf7 .LASF560
C:\Users\SOLDER~1\AppData\Local\Temp\ccbih9yx.s:27519  .debug_str:0000000000025217 .LASF561
C:\Users\SOLDER~1\AppData\Local\Temp\ccbih9yx.s:29443  .debug_str:000000000002d05c .LASF562
C:\Users\SOLDER~1\AppData\Local\Temp\ccbih9yx.s:29679  .debug_str:000000000002df32 .LASF563
C:\Users\SOLDER~1\AppData\Local\Temp\ccbih9yx.s:21799  .debug_str:000000000000dd48 .LASF564
C:\Users\SOLDER~1\AppData\Local\Temp\ccbih9yx.s:18657  .debug_str:0000000000001105 .LASF565
C:\Users\SOLDER~1\AppData\Local\Temp\ccbih9yx.s:27121  .debug_str:0000000000023838 .LASF566
C:\Users\SOLDER~1\AppData\Local\Temp\ccbih9yx.s:25019  .debug_str:000000000001af53 .LASF567
C:\Users\SOLDER~1\AppData\Local\Temp\ccbih9yx.s:25249  .debug_str:000000000001bdbc .LASF568
C:\Users\SOLDER~1\AppData\Local\Temp\ccbih9yx.s:18873  .debug_str:0000000000001ed1 .LASF569
C:\Users\SOLDER~1\AppData\Local\Temp\ccbih9yx.s:23617  .debug_str:00000000000154df .LASF570
C:\Users\SOLDER~1\AppData\Local\Temp\ccbih9yx.s:27305  .debug_str:0000000000024411 .LASF571
C:\Users\SOLDER~1\AppData\Local\Temp\ccbih9yx.s:22119  .debug_str:000000000000f218 .LASF572
GAS LISTING C:\Users\SOLDER~1\AppData\Local\Temp\ccbih9yx.s 			page 21


C:\Users\SOLDER~1\AppData\Local\Temp\ccbih9yx.s:24055  .debug_str:0000000000017079 .LASF573
C:\Users\SOLDER~1\AppData\Local\Temp\ccbih9yx.s:21935  .debug_str:000000000000e667 .LASF574
C:\Users\SOLDER~1\AppData\Local\Temp\ccbih9yx.s:23949  .debug_str:00000000000169da .LASF575
C:\Users\SOLDER~1\AppData\Local\Temp\ccbih9yx.s:23061  .debug_str:0000000000012f3c .LASF576
C:\Users\SOLDER~1\AppData\Local\Temp\ccbih9yx.s:23023  .debug_str:0000000000012cbe .LASF577
C:\Users\SOLDER~1\AppData\Local\Temp\ccbih9yx.s:29517  .debug_str:000000000002d4ef .LASF578
C:\Users\SOLDER~1\AppData\Local\Temp\ccbih9yx.s:24499  .debug_str:0000000000018dc3 .LASF579
C:\Users\SOLDER~1\AppData\Local\Temp\ccbih9yx.s:27719  .debug_str:0000000000025fcc .LASF580
C:\Users\SOLDER~1\AppData\Local\Temp\ccbih9yx.s:19511  .debug_str:00000000000047be .LASF581
C:\Users\SOLDER~1\AppData\Local\Temp\ccbih9yx.s:22811  .debug_str:0000000000011ef8 .LASF582
C:\Users\SOLDER~1\AppData\Local\Temp\ccbih9yx.s:26005  .debug_str:000000000001efa1 .LASF583
C:\Users\SOLDER~1\AppData\Local\Temp\ccbih9yx.s:29285  .debug_str:000000000002c601 .LASF584
C:\Users\SOLDER~1\AppData\Local\Temp\ccbih9yx.s:21053  .debug_str:000000000000ac2c .LASF585
C:\Users\SOLDER~1\AppData\Local\Temp\ccbih9yx.s:28823  .debug_str:000000000002a7de .LASF586
C:\Users\SOLDER~1\AppData\Local\Temp\ccbih9yx.s:27729  .debug_str:0000000000026080 .LASF587
C:\Users\SOLDER~1\AppData\Local\Temp\ccbih9yx.s:22959  .debug_str:0000000000012847 .LASF588
C:\Users\SOLDER~1\AppData\Local\Temp\ccbih9yx.s:24871  .debug_str:000000000001a574 .LASF589
C:\Users\SOLDER~1\AppData\Local\Temp\ccbih9yx.s:27009  .debug_str:00000000000230cf .LASF590
C:\Users\SOLDER~1\AppData\Local\Temp\ccbih9yx.s:23981  .debug_str:0000000000016bcb .LASF591
C:\Users\SOLDER~1\AppData\Local\Temp\ccbih9yx.s:28447  .debug_str:0000000000028f49 .LASF592
C:\Users\SOLDER~1\AppData\Local\Temp\ccbih9yx.s:25567  .debug_str:000000000001d371 .LASF593
C:\Users\SOLDER~1\AppData\Local\Temp\ccbih9yx.s:24271  .debug_str:0000000000017eb9 .LASF594
C:\Users\SOLDER~1\AppData\Local\Temp\ccbih9yx.s:29611  .debug_str:000000000002dae8 .LASF595
C:\Users\SOLDER~1\AppData\Local\Temp\ccbih9yx.s:21063  .debug_str:000000000000ace8 .LASF596
C:\Users\SOLDER~1\AppData\Local\Temp\ccbih9yx.s:29045  .debug_str:000000000002b657 .LASF597
C:\Users\SOLDER~1\AppData\Local\Temp\ccbih9yx.s:22999  .debug_str:0000000000012afc .LASF598
C:\Users\SOLDER~1\AppData\Local\Temp\ccbih9yx.s:28461  .debug_str:0000000000029044 .LASF599
C:\Users\SOLDER~1\AppData\Local\Temp\ccbih9yx.s:22443  .debug_str:0000000000010745 .LASF600
C:\Users\SOLDER~1\AppData\Local\Temp\ccbih9yx.s:27775  .debug_str:00000000000263d3 .LASF601
C:\Users\SOLDER~1\AppData\Local\Temp\ccbih9yx.s:27879  .debug_str:0000000000026ac4 .LASF602
C:\Users\SOLDER~1\AppData\Local\Temp\ccbih9yx.s:21803  .debug_str:000000000000dd8d .LASF603
C:\Users\SOLDER~1\AppData\Local\Temp\ccbih9yx.s:21595  .debug_str:000000000000d027 .LASF604
C:\Users\SOLDER~1\AppData\Local\Temp\ccbih9yx.s:25645  .debug_str:000000000001d837 .LASF605
C:\Users\SOLDER~1\AppData\Local\Temp\ccbih9yx.s:27551  .debug_str:0000000000025401 .LASF606
C:\Users\SOLDER~1\AppData\Local\Temp\ccbih9yx.s:24061  .debug_str:00000000000170e7 .LASF607
C:\Users\SOLDER~1\AppData\Local\Temp\ccbih9yx.s:26765  .debug_str:00000000000220df .LASF608
C:\Users\SOLDER~1\AppData\Local\Temp\ccbih9yx.s:29129  .debug_str:000000000002bb93 .LASF609
C:\Users\SOLDER~1\AppData\Local\Temp\ccbih9yx.s:20699  .debug_str:00000000000094f8 .LASF610
C:\Users\SOLDER~1\AppData\Local\Temp\ccbih9yx.s:22739  .debug_str:0000000000011a6e .LASF611
C:\Users\SOLDER~1\AppData\Local\Temp\ccbih9yx.s:23011  .debug_str:0000000000012bed .LASF612
C:\Users\SOLDER~1\AppData\Local\Temp\ccbih9yx.s:25639  .debug_str:000000000001d7e2 .LASF613
C:\Users\SOLDER~1\AppData\Local\Temp\ccbih9yx.s:20145  .debug_str:00000000000070e0 .LASF614
C:\Users\SOLDER~1\AppData\Local\Temp\ccbih9yx.s:18885  .debug_str:0000000000001fb2 .LASF615
C:\Users\SOLDER~1\AppData\Local\Temp\ccbih9yx.s:24133  .debug_str:00000000000175b9 .LASF616
C:\Users\SOLDER~1\AppData\Local\Temp\ccbih9yx.s:19743  .debug_str:00000000000055ec .LASF617
C:\Users\SOLDER~1\AppData\Local\Temp\ccbih9yx.s:28089  .debug_str:0000000000027865 .LASF618
C:\Users\SOLDER~1\AppData\Local\Temp\ccbih9yx.s:19169  .debug_str:0000000000003215 .LASF619
C:\Users\SOLDER~1\AppData\Local\Temp\ccbih9yx.s:25767  .debug_str:000000000001e021 .LASF620
C:\Users\SOLDER~1\AppData\Local\Temp\ccbih9yx.s:19261  .debug_str:00000000000037f9 .LASF621
C:\Users\SOLDER~1\AppData\Local\Temp\ccbih9yx.s:23681  .debug_str:0000000000015916 .LASF622
C:\Users\SOLDER~1\AppData\Local\Temp\ccbih9yx.s:24741  .debug_str:0000000000019d31 .LASF623
C:\Users\SOLDER~1\AppData\Local\Temp\ccbih9yx.s:22615  .debug_str:0000000000011238 .LASF624
C:\Users\SOLDER~1\AppData\Local\Temp\ccbih9yx.s:25323  .debug_str:000000000001c2bc .LASF625
C:\Users\SOLDER~1\AppData\Local\Temp\ccbih9yx.s:20111  .debug_str:0000000000006e70 .LASF626
C:\Users\SOLDER~1\AppData\Local\Temp\ccbih9yx.s:20069  .debug_str:0000000000006b9f .LASF627
C:\Users\SOLDER~1\AppData\Local\Temp\ccbih9yx.s:24983  .debug_str:000000000001ad09 .LASF628
C:\Users\SOLDER~1\AppData\Local\Temp\ccbih9yx.s:21807  .debug_str:000000000000ddd7 .LASF629
GAS LISTING C:\Users\SOLDER~1\AppData\Local\Temp\ccbih9yx.s 			page 22


C:\Users\SOLDER~1\AppData\Local\Temp\ccbih9yx.s:22393  .debug_str:000000000001045e .LASF630
C:\Users\SOLDER~1\AppData\Local\Temp\ccbih9yx.s:25243  .debug_str:000000000001bd63 .LASF631
C:\Users\SOLDER~1\AppData\Local\Temp\ccbih9yx.s:26247  .debug_str:000000000001ff75 .LASF632
C:\Users\SOLDER~1\AppData\Local\Temp\ccbih9yx.s:24707  .debug_str:0000000000019b34 .LASF633
C:\Users\SOLDER~1\AppData\Local\Temp\ccbih9yx.s:28277  .debug_str:00000000000284a5 .LASF634
C:\Users\SOLDER~1\AppData\Local\Temp\ccbih9yx.s:23475  .debug_str:0000000000014bc3 .LASF635
C:\Users\SOLDER~1\AppData\Local\Temp\ccbih9yx.s:25207  .debug_str:000000000001bb0f .LASF636
C:\Users\SOLDER~1\AppData\Local\Temp\ccbih9yx.s:27353  .debug_str:0000000000024756 .LASF637
C:\Users\SOLDER~1\AppData\Local\Temp\ccbih9yx.s:18855  .debug_str:0000000000001db8 .LASF638
C:\Users\SOLDER~1\AppData\Local\Temp\ccbih9yx.s:29137  .debug_str:000000000002bc28 .LASF639
C:\Users\SOLDER~1\AppData\Local\Temp\ccbih9yx.s:23063  .debug_str:0000000000012f5a .LASF640
C:\Users\SOLDER~1\AppData\Local\Temp\ccbih9yx.s:24083  .debug_str:0000000000017266 .LASF641
C:\Users\SOLDER~1\AppData\Local\Temp\ccbih9yx.s:23993  .debug_str:0000000000016c77 .LASF642
C:\Users\SOLDER~1\AppData\Local\Temp\ccbih9yx.s:25341  .debug_str:000000000001c40e .LASF643
C:\Users\SOLDER~1\AppData\Local\Temp\ccbih9yx.s:19975  .debug_str:0000000000006565 .LASF644
C:\Users\SOLDER~1\AppData\Local\Temp\ccbih9yx.s:27299  .debug_str:00000000000243b3 .LASF645
C:\Users\SOLDER~1\AppData\Local\Temp\ccbih9yx.s:24043  .debug_str:0000000000016fa6 .LASF646
C:\Users\SOLDER~1\AppData\Local\Temp\ccbih9yx.s:21943  .debug_str:000000000000e6ea .LASF647
C:\Users\SOLDER~1\AppData\Local\Temp\ccbih9yx.s:23469  .debug_str:0000000000014b49 .LASF648
C:\Users\SOLDER~1\AppData\Local\Temp\ccbih9yx.s:22027  .debug_str:000000000000ec49 .LASF649
C:\Users\SOLDER~1\AppData\Local\Temp\ccbih9yx.s:28627  .debug_str:0000000000029b0e .LASF650
C:\Users\SOLDER~1\AppData\Local\Temp\ccbih9yx.s:24879  .debug_str:000000000001a5ec .LASF651
C:\Users\SOLDER~1\AppData\Local\Temp\ccbih9yx.s:20555  .debug_str:0000000000008b45 .LASF652
C:\Users\SOLDER~1\AppData\Local\Temp\ccbih9yx.s:24487  .debug_str:0000000000018ce4 .LASF653
C:\Users\SOLDER~1\AppData\Local\Temp\ccbih9yx.s:23793  .debug_str:0000000000016039 .LASF654
C:\Users\SOLDER~1\AppData\Local\Temp\ccbih9yx.s:29631  .debug_str:000000000002dc4c .LASF655
C:\Users\SOLDER~1\AppData\Local\Temp\ccbih9yx.s:24533  .debug_str:0000000000018fff .LASF656
C:\Users\SOLDER~1\AppData\Local\Temp\ccbih9yx.s:28901  .debug_str:000000000002acf0 .LASF657
C:\Users\SOLDER~1\AppData\Local\Temp\ccbih9yx.s:28275  .debug_str:0000000000028484 .LASF658
C:\Users\SOLDER~1\AppData\Local\Temp\ccbih9yx.s:27071  .debug_str:0000000000023508 .LASF659
C:\Users\SOLDER~1\AppData\Local\Temp\ccbih9yx.s:27099  .debug_str:00000000000236eb .LASF660
C:\Users\SOLDER~1\AppData\Local\Temp\ccbih9yx.s:29293  .debug_str:000000000002c68a .LASF661
C:\Users\SOLDER~1\AppData\Local\Temp\ccbih9yx.s:21817  .debug_str:000000000000de85 .LASF662
C:\Users\SOLDER~1\AppData\Local\Temp\ccbih9yx.s:21135  .debug_str:000000000000b176 .LASF663
C:\Users\SOLDER~1\AppData\Local\Temp\ccbih9yx.s:23493  .debug_str:0000000000014cef .LASF664
C:\Users\SOLDER~1\AppData\Local\Temp\ccbih9yx.s:25789  .debug_str:000000000001e19a .LASF665
C:\Users\SOLDER~1\AppData\Local\Temp\ccbih9yx.s:26059  .debug_str:000000000001f356 .LASF666
C:\Users\SOLDER~1\AppData\Local\Temp\ccbih9yx.s:26075  .debug_str:000000000001f47a .LASF667
C:\Users\SOLDER~1\AppData\Local\Temp\ccbih9yx.s:20031  .debug_str:0000000000006954 .LASF668
C:\Users\SOLDER~1\AppData\Local\Temp\ccbih9yx.s:27137  .debug_str:0000000000023937 .LASF669
C:\Users\SOLDER~1\AppData\Local\Temp\ccbih9yx.s:28149  .debug_str:0000000000027c4b .LASF670
C:\Users\SOLDER~1\AppData\Local\Temp\ccbih9yx.s:29599  .debug_str:000000000002da38 .LASF671
C:\Users\SOLDER~1\AppData\Local\Temp\ccbih9yx.s:28893  .debug_str:000000000002ac76 .LASF672
C:\Users\SOLDER~1\AppData\Local\Temp\ccbih9yx.s:25179  .debug_str:000000000001b921 .LASF673
C:\Users\SOLDER~1\AppData\Local\Temp\ccbih9yx.s:21329  .debug_str:000000000000be17 .LASF674
C:\Users\SOLDER~1\AppData\Local\Temp\ccbih9yx.s:19295  .debug_str:0000000000003a29 .LASF675
C:\Users\SOLDER~1\AppData\Local\Temp\ccbih9yx.s:22471  .debug_str:000000000001093c .LASF676
C:\Users\SOLDER~1\AppData\Local\Temp\ccbih9yx.s:24885  .debug_str:000000000001a65c .LASF677
C:\Users\SOLDER~1\AppData\Local\Temp\ccbih9yx.s:27951  .debug_str:0000000000026f77 .LASF678
C:\Users\SOLDER~1\AppData\Local\Temp\ccbih9yx.s:29217  .debug_str:000000000002c1be .LASF679
C:\Users\SOLDER~1\AppData\Local\Temp\ccbih9yx.s:24207  .debug_str:0000000000017a77 .LASF680
C:\Users\SOLDER~1\AppData\Local\Temp\ccbih9yx.s:25713  .debug_str:000000000001dc73 .LASF681
C:\Users\SOLDER~1\AppData\Local\Temp\ccbih9yx.s:23013  .debug_str:0000000000012c05 .LASF682
C:\Users\SOLDER~1\AppData\Local\Temp\ccbih9yx.s:23929  .debug_str:0000000000016892 .LASF683
C:\Users\SOLDER~1\AppData\Local\Temp\ccbih9yx.s:20505  .debug_str:00000000000087ff .LASF684
C:\Users\SOLDER~1\AppData\Local\Temp\ccbih9yx.s:25489  .debug_str:000000000001ce22 .LASF685
C:\Users\SOLDER~1\AppData\Local\Temp\ccbih9yx.s:26021  .debug_str:000000000001f0c0 .LASF686
GAS LISTING C:\Users\SOLDER~1\AppData\Local\Temp\ccbih9yx.s 			page 23


C:\Users\SOLDER~1\AppData\Local\Temp\ccbih9yx.s:18817  .debug_str:0000000000001b2f .LASF687
C:\Users\SOLDER~1\AppData\Local\Temp\ccbih9yx.s:25801  .debug_str:000000000001e24c .LASF688
C:\Users\SOLDER~1\AppData\Local\Temp\ccbih9yx.s:29103  .debug_str:000000000002b9ef .LASF689
C:\Users\SOLDER~1\AppData\Local\Temp\ccbih9yx.s:18435  .debug_str:00000000000001d2 .LASF690
C:\Users\SOLDER~1\AppData\Local\Temp\ccbih9yx.s:26279  .debug_str:0000000000020182 .LASF691
C:\Users\SOLDER~1\AppData\Local\Temp\ccbih9yx.s:26233  .debug_str:000000000001fe7c .LASF692
C:\Users\SOLDER~1\AppData\Local\Temp\ccbih9yx.s:20603  .debug_str:0000000000008e8c .LASF693
C:\Users\SOLDER~1\AppData\Local\Temp\ccbih9yx.s:25987  .debug_str:000000000001ee6d .LASF694
C:\Users\SOLDER~1\AppData\Local\Temp\ccbih9yx.s:20587  .debug_str:0000000000008d6b .LASF695
C:\Users\SOLDER~1\AppData\Local\Temp\ccbih9yx.s:25499  .debug_str:000000000001ced0 .LASF696
C:\Users\SOLDER~1\AppData\Local\Temp\ccbih9yx.s:28139  .debug_str:0000000000027b88 .LASF697
C:\Users\SOLDER~1\AppData\Local\Temp\ccbih9yx.s:28915  .debug_str:000000000002adb9 .LASF698
C:\Users\SOLDER~1\AppData\Local\Temp\ccbih9yx.s:21961  .debug_str:000000000000e833 .LASF699
C:\Users\SOLDER~1\AppData\Local\Temp\ccbih9yx.s:29601  .debug_str:000000000002da4e .LASF700
C:\Users\SOLDER~1\AppData\Local\Temp\ccbih9yx.s:24739  .debug_str:0000000000019d1e .LASF701
C:\Users\SOLDER~1\AppData\Local\Temp\ccbih9yx.s:19231  .debug_str:00000000000035fb .LASF702
C:\Users\SOLDER~1\AppData\Local\Temp\ccbih9yx.s:27211  .debug_str:0000000000023de0 .LASF703
C:\Users\SOLDER~1\AppData\Local\Temp\ccbih9yx.s:25211  .debug_str:000000000001bb3a .LASF704
C:\Users\SOLDER~1\AppData\Local\Temp\ccbih9yx.s:28189  .debug_str:0000000000027ee6 .LASF705
C:\Users\SOLDER~1\AppData\Local\Temp\ccbih9yx.s:23965  .debug_str:0000000000016af2 .LASF706
C:\Users\SOLDER~1\AppData\Local\Temp\ccbih9yx.s:21281  .debug_str:000000000000bb23 .LASF707
C:\Users\SOLDER~1\AppData\Local\Temp\ccbih9yx.s:26811  .debug_str:0000000000022391 .LASF708
C:\Users\SOLDER~1\AppData\Local\Temp\ccbih9yx.s:26273  .debug_str:0000000000020119 .LASF709
C:\Users\SOLDER~1\AppData\Local\Temp\ccbih9yx.s:19247  .debug_str:00000000000036f7 .LASF710
C:\Users\SOLDER~1\AppData\Local\Temp\ccbih9yx.s:27683  .debug_str:0000000000025d48 .LASF711
C:\Users\SOLDER~1\AppData\Local\Temp\ccbih9yx.s:27001  .debug_str:000000000002303b .LASF712
C:\Users\SOLDER~1\AppData\Local\Temp\ccbih9yx.s:20369  .debug_str:0000000000007f2a .LASF713
C:\Users\SOLDER~1\AppData\Local\Temp\ccbih9yx.s:28031  .debug_str:000000000002749c .LASF714
C:\Users\SOLDER~1\AppData\Local\Temp\ccbih9yx.s:26003  .debug_str:000000000001ef7e .LASF715
C:\Users\SOLDER~1\AppData\Local\Temp\ccbih9yx.s:19059  .debug_str:0000000000002b11 .LASF716
C:\Users\SOLDER~1\AppData\Local\Temp\ccbih9yx.s:22495  .debug_str:0000000000010a9d .LASF717
C:\Users\SOLDER~1\AppData\Local\Temp\ccbih9yx.s:29641  .debug_str:000000000002dcf9 .LASF718
C:\Users\SOLDER~1\AppData\Local\Temp\ccbih9yx.s:24915  .debug_str:000000000001a87a .LASF719
C:\Users\SOLDER~1\AppData\Local\Temp\ccbih9yx.s:22929  .debug_str:000000000001267f .LASF720
C:\Users\SOLDER~1\AppData\Local\Temp\ccbih9yx.s:26551  .debug_str:000000000002135c .LASF721
C:\Users\SOLDER~1\AppData\Local\Temp\ccbih9yx.s:24709  .debug_str:0000000000019b56 .LASF722
C:\Users\SOLDER~1\AppData\Local\Temp\ccbih9yx.s:26597  .debug_str:0000000000021652 .LASF723
C:\Users\SOLDER~1\AppData\Local\Temp\ccbih9yx.s:23857  .debug_str:0000000000016425 .LASF724
C:\Users\SOLDER~1\AppData\Local\Temp\ccbih9yx.s:23099  .debug_str:00000000000131ac .LASF725
C:\Users\SOLDER~1\AppData\Local\Temp\ccbih9yx.s:28795  .debug_str:000000000002a65b .LASF726
C:\Users\SOLDER~1\AppData\Local\Temp\ccbih9yx.s:23279  .debug_str:0000000000013e56 .LASF727
C:\Users\SOLDER~1\AppData\Local\Temp\ccbih9yx.s:18573  .debug_str:0000000000000ba7 .LASF728
C:\Users\SOLDER~1\AppData\Local\Temp\ccbih9yx.s:21717  .debug_str:000000000000d815 .LASF729
C:\Users\SOLDER~1\AppData\Local\Temp\ccbih9yx.s:24565  .debug_str:00000000000191fd .LASF730
C:\Users\SOLDER~1\AppData\Local\Temp\ccbih9yx.s:25163  .debug_str:000000000001b822 .LASF731
C:\Users\SOLDER~1\AppData\Local\Temp\ccbih9yx.s:20195  .debug_str:00000000000073fe .LASF732
C:\Users\SOLDER~1\AppData\Local\Temp\ccbih9yx.s:20803  .debug_str:0000000000009b73 .LASF733
C:\Users\SOLDER~1\AppData\Local\Temp\ccbih9yx.s:26795  .debug_str:000000000002227f .LASF734
C:\Users\SOLDER~1\AppData\Local\Temp\ccbih9yx.s:26727  .debug_str:0000000000021e8c .LASF735
C:\Users\SOLDER~1\AppData\Local\Temp\ccbih9yx.s:24401  .debug_str:000000000001872a .LASF736
C:\Users\SOLDER~1\AppData\Local\Temp\ccbih9yx.s:21275  .debug_str:000000000000baae .LASF737
C:\Users\SOLDER~1\AppData\Local\Temp\ccbih9yx.s:29771  .debug_str:000000000002e4fe .LASF738
C:\Users\SOLDER~1\AppData\Local\Temp\ccbih9yx.s:21505  .debug_str:000000000000ca4e .LASF739
C:\Users\SOLDER~1\AppData\Local\Temp\ccbih9yx.s:18921  .debug_str:00000000000021ff .LASF740
C:\Users\SOLDER~1\AppData\Local\Temp\ccbih9yx.s:23587  .debug_str:00000000000152c7 .LASF741
C:\Users\SOLDER~1\AppData\Local\Temp\ccbih9yx.s:21263  .debug_str:000000000000b9d2 .LASF742
C:\Users\SOLDER~1\AppData\Local\Temp\ccbih9yx.s:28065  .debug_str:00000000000276db .LASF743
GAS LISTING C:\Users\SOLDER~1\AppData\Local\Temp\ccbih9yx.s 			page 24


C:\Users\SOLDER~1\AppData\Local\Temp\ccbih9yx.s:24727  .debug_str:0000000000019c75 .LASF744
C:\Users\SOLDER~1\AppData\Local\Temp\ccbih9yx.s:22871  .debug_str:00000000000122b3 .LASF745
C:\Users\SOLDER~1\AppData\Local\Temp\ccbih9yx.s:26151  .debug_str:000000000001f978 .LASF746
C:\Users\SOLDER~1\AppData\Local\Temp\ccbih9yx.s:26721  .debug_str:0000000000021e26 .LASF747
C:\Users\SOLDER~1\AppData\Local\Temp\ccbih9yx.s:27649  .debug_str:0000000000025ad6 .LASF748
C:\Users\SOLDER~1\AppData\Local\Temp\ccbih9yx.s:27087  .debug_str:0000000000023619 .LASF749
C:\Users\SOLDER~1\AppData\Local\Temp\ccbih9yx.s:20095  .debug_str:0000000000006d37 .LASF750
C:\Users\SOLDER~1\AppData\Local\Temp\ccbih9yx.s:19589  .debug_str:0000000000004cb6 .LASF751
C:\Users\SOLDER~1\AppData\Local\Temp\ccbih9yx.s:20973  .debug_str:000000000000a716 .LASF752
C:\Users\SOLDER~1\AppData\Local\Temp\ccbih9yx.s:21181  .debug_str:000000000000b48b .LASF753
C:\Users\SOLDER~1\AppData\Local\Temp\ccbih9yx.s:28879  .debug_str:000000000002ab96 .LASF754
C:\Users\SOLDER~1\AppData\Local\Temp\ccbih9yx.s:26807  .debug_str:0000000000022356 .LASF755
C:\Users\SOLDER~1\AppData\Local\Temp\ccbih9yx.s:19069  .debug_str:0000000000002b84 .LASF756
C:\Users\SOLDER~1\AppData\Local\Temp\ccbih9yx.s:28095  .debug_str:00000000000278b6 .LASF757
C:\Users\SOLDER~1\AppData\Local\Temp\ccbih9yx.s:18953  .debug_str:0000000000002426 .LASF758
C:\Users\SOLDER~1\AppData\Local\Temp\ccbih9yx.s:24659  .debug_str:0000000000019802 .LASF759
C:\Users\SOLDER~1\AppData\Local\Temp\ccbih9yx.s:23795  .debug_str:000000000001605e .LASF760
C:\Users\SOLDER~1\AppData\Local\Temp\ccbih9yx.s:18471  .debug_str:0000000000000450 .LASF761
C:\Users\SOLDER~1\AppData\Local\Temp\ccbih9yx.s:18655  .debug_str:00000000000010e5 .LASF762
C:\Users\SOLDER~1\AppData\Local\Temp\ccbih9yx.s:27189  .debug_str:0000000000023c6a .LASF763
C:\Users\SOLDER~1\AppData\Local\Temp\ccbih9yx.s:27493  .debug_str:0000000000025088 .LASF764
C:\Users\SOLDER~1\AppData\Local\Temp\ccbih9yx.s:19857  .debug_str:0000000000005d91 .LASF765
C:\Users\SOLDER~1\AppData\Local\Temp\ccbih9yx.s:20671  .debug_str:0000000000009339 .LASF766
C:\Users\SOLDER~1\AppData\Local\Temp\ccbih9yx.s:28631  .debug_str:0000000000029b4f .LASF767
C:\Users\SOLDER~1\AppData\Local\Temp\ccbih9yx.s:18601  .debug_str:0000000000000da7 .LASF768
C:\Users\SOLDER~1\AppData\Local\Temp\ccbih9yx.s:23377  .debug_str:0000000000014516 .LASF769
C:\Users\SOLDER~1\AppData\Local\Temp\ccbih9yx.s:25363  .debug_str:000000000001c56c .LASF770
C:\Users\SOLDER~1\AppData\Local\Temp\ccbih9yx.s:20151  .debug_str:0000000000007137 .LASF771
C:\Users\SOLDER~1\AppData\Local\Temp\ccbih9yx.s:19831  .debug_str:0000000000005be9 .LASF772
C:\Users\SOLDER~1\AppData\Local\Temp\ccbih9yx.s:21381  .debug_str:000000000000c18e .LASF773
C:\Users\SOLDER~1\AppData\Local\Temp\ccbih9yx.s:18971  .debug_str:0000000000002559 .LASF774
C:\Users\SOLDER~1\AppData\Local\Temp\ccbih9yx.s:19629  .debug_str:0000000000004ef3 .LASF775
C:\Users\SOLDER~1\AppData\Local\Temp\ccbih9yx.s:19611  .debug_str:0000000000004e04 .LASF776
C:\Users\SOLDER~1\AppData\Local\Temp\ccbih9yx.s:19883  .debug_str:0000000000005f16 .LASF777
C:\Users\SOLDER~1\AppData\Local\Temp\ccbih9yx.s:28785  .debug_str:000000000002a5bb .LASF778
C:\Users\SOLDER~1\AppData\Local\Temp\ccbih9yx.s:25591  .debug_str:000000000001d501 .LASF779
C:\Users\SOLDER~1\AppData\Local\Temp\ccbih9yx.s:24719  .debug_str:0000000000019bef .LASF780
C:\Users\SOLDER~1\AppData\Local\Temp\ccbih9yx.s:26561  .debug_str:00000000000213f2 .LASF781
C:\Users\SOLDER~1\AppData\Local\Temp\ccbih9yx.s:20459  .debug_str:000000000000850e .LASF782
C:\Users\SOLDER~1\AppData\Local\Temp\ccbih9yx.s:29911  .debug_str:000000000002ee09 .LASF783
C:\Users\SOLDER~1\AppData\Local\Temp\ccbih9yx.s:18813  .debug_str:0000000000001aeb .LASF784
C:\Users\SOLDER~1\AppData\Local\Temp\ccbih9yx.s:21679  .debug_str:000000000000d58f .LASF785
C:\Users\SOLDER~1\AppData\Local\Temp\ccbih9yx.s:20147  .debug_str:00000000000070f8 .LASF786
C:\Users\SOLDER~1\AppData\Local\Temp\ccbih9yx.s:25021  .debug_str:000000000001af74 .LASF787
C:\Users\SOLDER~1\AppData\Local\Temp\ccbih9yx.s:26997  .debug_str:0000000000022ffa .LASF788
C:\Users\SOLDER~1\AppData\Local\Temp\ccbih9yx.s:24209  .debug_str:0000000000017a9b .LASF789
C:\Users\SOLDER~1\AppData\Local\Temp\ccbih9yx.s:29573  .debug_str:000000000002d885 .LASF790
C:\Users\SOLDER~1\AppData\Local\Temp\ccbih9yx.s:24539  .debug_str:000000000001906c .LASF791
C:\Users\SOLDER~1\AppData\Local\Temp\ccbih9yx.s:26761  .debug_str:00000000000220a3 .LASF792
C:\Users\SOLDER~1\AppData\Local\Temp\ccbih9yx.s:22673  .debug_str:000000000001162f .LASF793
C:\Users\SOLDER~1\AppData\Local\Temp\ccbih9yx.s:27723  .debug_str:0000000000026012 .LASF794
C:\Users\SOLDER~1\AppData\Local\Temp\ccbih9yx.s:28153  .debug_str:0000000000027c95 .LASF795
C:\Users\SOLDER~1\AppData\Local\Temp\ccbih9yx.s:21355  .debug_str:000000000000bfca .LASF796
C:\Users\SOLDER~1\AppData\Local\Temp\ccbih9yx.s:28183  .debug_str:0000000000027e8d .LASF797
C:\Users\SOLDER~1\AppData\Local\Temp\ccbih9yx.s:23575  .debug_str:0000000000015206 .LASF798
C:\Users\SOLDER~1\AppData\Local\Temp\ccbih9yx.s:23539  .debug_str:0000000000014f9e .LASF799
C:\Users\SOLDER~1\AppData\Local\Temp\ccbih9yx.s:22991  .debug_str:0000000000012a7c .LASF800
GAS LISTING C:\Users\SOLDER~1\AppData\Local\Temp\ccbih9yx.s 			page 25


C:\Users\SOLDER~1\AppData\Local\Temp\ccbih9yx.s:21417  .debug_str:000000000000c42c .LASF801
C:\Users\SOLDER~1\AppData\Local\Temp\ccbih9yx.s:26055  .debug_str:000000000001f312 .LASF802
C:\Users\SOLDER~1\AppData\Local\Temp\ccbih9yx.s:29861  .debug_str:000000000002eaf1 .LASF803
C:\Users\SOLDER~1\AppData\Local\Temp\ccbih9yx.s:29607  .debug_str:000000000002daa4 .LASF804
C:\Users\SOLDER~1\AppData\Local\Temp\ccbih9yx.s:27831  .debug_str:000000000002677e .LASF805
C:\Users\SOLDER~1\AppData\Local\Temp\ccbih9yx.s:19021  .debug_str:00000000000028ae .LASF806
C:\Users\SOLDER~1\AppData\Local\Temp\ccbih9yx.s:27891  .debug_str:0000000000026b9e .LASF807
C:\Users\SOLDER~1\AppData\Local\Temp\ccbih9yx.s:28115  .debug_str:00000000000279d7 .LASF808
C:\Users\SOLDER~1\AppData\Local\Temp\ccbih9yx.s:20027  .debug_str:0000000000006912 .LASF809
C:\Users\SOLDER~1\AppData\Local\Temp\ccbih9yx.s:24781  .debug_str:0000000000019fbe .LASF810
C:\Users\SOLDER~1\AppData\Local\Temp\ccbih9yx.s:23845  .debug_str:000000000001637b .LASF811
C:\Users\SOLDER~1\AppData\Local\Temp\ccbih9yx.s:19999  .debug_str:0000000000006700 .LASF812
C:\Users\SOLDER~1\AppData\Local\Temp\ccbih9yx.s:29461  .debug_str:000000000002d170 .LASF813
C:\Users\SOLDER~1\AppData\Local\Temp\ccbih9yx.s:28495  .debug_str:00000000000292a0 .LASF814
C:\Users\SOLDER~1\AppData\Local\Temp\ccbih9yx.s:19803  .debug_str:0000000000005a26 .LASF815
C:\Users\SOLDER~1\AppData\Local\Temp\ccbih9yx.s:29133  .debug_str:000000000002bbe1 .LASF816
C:\Users\SOLDER~1\AppData\Local\Temp\ccbih9yx.s:28013  .debug_str:0000000000027396 .LASF817
C:\Users\SOLDER~1\AppData\Local\Temp\ccbih9yx.s:26065  .debug_str:000000000001f3c5 .LASF818
C:\Users\SOLDER~1\AppData\Local\Temp\ccbih9yx.s:27765  .debug_str:0000000000026319 .LASF819
C:\Users\SOLDER~1\AppData\Local\Temp\ccbih9yx.s:24845  .debug_str:000000000001a3ea .LASF820
C:\Users\SOLDER~1\AppData\Local\Temp\ccbih9yx.s:21549  .debug_str:000000000000cd22 .LASF821
C:\Users\SOLDER~1\AppData\Local\Temp\ccbih9yx.s:26871  .debug_str:00000000000227a3 .LASF822
C:\Users\SOLDER~1\AppData\Local\Temp\ccbih9yx.s:20747  .debug_str:00000000000097f0 .LASF823
C:\Users\SOLDER~1\AppData\Local\Temp\ccbih9yx.s:25673  .debug_str:000000000001d9d3 .LASF824
C:\Users\SOLDER~1\AppData\Local\Temp\ccbih9yx.s:22015  .debug_str:000000000000eb6a .LASF825
C:\Users\SOLDER~1\AppData\Local\Temp\ccbih9yx.s:25439  .debug_str:000000000001cab0 .LASF826
C:\Users\SOLDER~1\AppData\Local\Temp\ccbih9yx.s:28061  .debug_str:00000000000276a7 .LASF827
C:\Users\SOLDER~1\AppData\Local\Temp\ccbih9yx.s:24277  .debug_str:0000000000017f3a .LASF828
C:\Users\SOLDER~1\AppData\Local\Temp\ccbih9yx.s:21579  .debug_str:000000000000cef8 .LASF829
C:\Users\SOLDER~1\AppData\Local\Temp\ccbih9yx.s:27579  .debug_str:00000000000255f0 .LASF830
C:\Users\SOLDER~1\AppData\Local\Temp\ccbih9yx.s:22197  .debug_str:000000000000f724 .LASF831
C:\Users\SOLDER~1\AppData\Local\Temp\ccbih9yx.s:28487  .debug_str:0000000000029202 .LASF832
C:\Users\SOLDER~1\AppData\Local\Temp\ccbih9yx.s:20667  .debug_str:00000000000092f3 .LASF833
C:\Users\SOLDER~1\AppData\Local\Temp\ccbih9yx.s:28381  .debug_str:0000000000028b36 .LASF834
C:\Users\SOLDER~1\AppData\Local\Temp\ccbih9yx.s:29341  .debug_str:000000000002c96f .LASF835
C:\Users\SOLDER~1\AppData\Local\Temp\ccbih9yx.s:19365  .debug_str:0000000000003ea9 .LASF836
C:\Users\SOLDER~1\AppData\Local\Temp\ccbih9yx.s:26379  .debug_str:0000000000020813 .LASF837
C:\Users\SOLDER~1\AppData\Local\Temp\ccbih9yx.s:19037  .debug_str:00000000000029b5 .LASF838
C:\Users\SOLDER~1\AppData\Local\Temp\ccbih9yx.s:21265  .debug_str:000000000000b9f2 .LASF839
C:\Users\SOLDER~1\AppData\Local\Temp\ccbih9yx.s:19729  .debug_str:0000000000005507 .LASF840
C:\Users\SOLDER~1\AppData\Local\Temp\ccbih9yx.s:22621  .debug_str:00000000000112a2 .LASF841
C:\Users\SOLDER~1\AppData\Local\Temp\ccbih9yx.s:22603  .debug_str:0000000000011169 .LASF842
C:\Users\SOLDER~1\AppData\Local\Temp\ccbih9yx.s:25217  .debug_str:000000000001bb9b .LASF843
C:\Users\SOLDER~1\AppData\Local\Temp\ccbih9yx.s:29701  .debug_str:000000000002e0a0 .LASF844
C:\Users\SOLDER~1\AppData\Local\Temp\ccbih9yx.s:28735  .debug_str:000000000002a26f .LASF845
C:\Users\SOLDER~1\AppData\Local\Temp\ccbih9yx.s:24849  .debug_str:000000000001a41a .LASF846
C:\Users\SOLDER~1\AppData\Local\Temp\ccbih9yx.s:22789  .debug_str:0000000000011d8b .LASF847
C:\Users\SOLDER~1\AppData\Local\Temp\ccbih9yx.s:18775  .debug_str:0000000000001865 .LASF848
C:\Users\SOLDER~1\AppData\Local\Temp\ccbih9yx.s:25853  .debug_str:000000000001e59b .LASF849
C:\Users\SOLDER~1\AppData\Local\Temp\ccbih9yx.s:28817  .debug_str:000000000002a78f .LASF850
C:\Users\SOLDER~1\AppData\Local\Temp\ccbih9yx.s:19701  .debug_str:000000000000536b .LASF851
C:\Users\SOLDER~1\AppData\Local\Temp\ccbih9yx.s:22109  .debug_str:000000000000f15e .LASF852
C:\Users\SOLDER~1\AppData\Local\Temp\ccbih9yx.s:23791  .debug_str:0000000000016017 .LASF853
C:\Users\SOLDER~1\AppData\Local\Temp\ccbih9yx.s:20957  .debug_str:000000000000a5f9 .LASF854
C:\Users\SOLDER~1\AppData\Local\Temp\ccbih9yx.s:21995  .debug_str:000000000000ea27 .LASF855
C:\Users\SOLDER~1\AppData\Local\Temp\ccbih9yx.s:25959  .debug_str:000000000001ecab .LASF856
C:\Users\SOLDER~1\AppData\Local\Temp\ccbih9yx.s:22029  .debug_str:000000000000ec5f .LASF857
GAS LISTING C:\Users\SOLDER~1\AppData\Local\Temp\ccbih9yx.s 			page 26


C:\Users\SOLDER~1\AppData\Local\Temp\ccbih9yx.s:26849  .debug_str:000000000002263f .LASF858
C:\Users\SOLDER~1\AppData\Local\Temp\ccbih9yx.s:19329  .debug_str:0000000000003c5f .LASF859
C:\Users\SOLDER~1\AppData\Local\Temp\ccbih9yx.s:21325  .debug_str:000000000000bdd0 .LASF860
C:\Users\SOLDER~1\AppData\Local\Temp\ccbih9yx.s:26717  .debug_str:0000000000021deb .LASF861
C:\Users\SOLDER~1\AppData\Local\Temp\ccbih9yx.s:22601  .debug_str:0000000000011156 .LASF862
C:\Users\SOLDER~1\AppData\Local\Temp\ccbih9yx.s:24925  .debug_str:000000000001a904 .LASF863
C:\Users\SOLDER~1\AppData\Local\Temp\ccbih9yx.s:26131  .debug_str:000000000001f840 .LASF864
C:\Users\SOLDER~1\AppData\Local\Temp\ccbih9yx.s:26763  .debug_str:00000000000220bd .LASF865
C:\Users\SOLDER~1\AppData\Local\Temp\ccbih9yx.s:22403  .debug_str:00000000000104db .LASF866
C:\Users\SOLDER~1\AppData\Local\Temp\ccbih9yx.s:19213  .debug_str:00000000000034f5 .LASF867
C:\Users\SOLDER~1\AppData\Local\Temp\ccbih9yx.s:29739  .debug_str:000000000002e2f7 .LASF868
C:\Users\SOLDER~1\AppData\Local\Temp\ccbih9yx.s:19639  .debug_str:0000000000004fa8 .LASF869
C:\Users\SOLDER~1\AppData\Local\Temp\ccbih9yx.s:23275  .debug_str:0000000000013e0a .LASF870
C:\Users\SOLDER~1\AppData\Local\Temp\ccbih9yx.s:29245  .debug_str:000000000002c379 .LASF871
C:\Users\SOLDER~1\AppData\Local\Temp\ccbih9yx.s:23771  .debug_str:0000000000015ebd .LASF872
C:\Users\SOLDER~1\AppData\Local\Temp\ccbih9yx.s:29855  .debug_str:000000000002ea9e .LASF873
C:\Users\SOLDER~1\AppData\Local\Temp\ccbih9yx.s:25289  .debug_str:000000000001c055 .LASF874
C:\Users\SOLDER~1\AppData\Local\Temp\ccbih9yx.s:24545  .debug_str:00000000000190b0 .LASF875
C:\Users\SOLDER~1\AppData\Local\Temp\ccbih9yx.s:19959  .debug_str:000000000000645b .LASF876
C:\Users\SOLDER~1\AppData\Local\Temp\ccbih9yx.s:28437  .debug_str:0000000000028eaf .LASF877
C:\Users\SOLDER~1\AppData\Local\Temp\ccbih9yx.s:26999  .debug_str:000000000002301a .LASF878
C:\Users\SOLDER~1\AppData\Local\Temp\ccbih9yx.s:22557  .debug_str:0000000000010e88 .LASF879
C:\Users\SOLDER~1\AppData\Local\Temp\ccbih9yx.s:19097  .debug_str:0000000000002d5c .LASF880
C:\Users\SOLDER~1\AppData\Local\Temp\ccbih9yx.s:28923  .debug_str:000000000002ae46 .LASF881
C:\Users\SOLDER~1\AppData\Local\Temp\ccbih9yx.s:20099  .debug_str:0000000000006d9d .LASF882
C:\Users\SOLDER~1\AppData\Local\Temp\ccbih9yx.s:19671  .debug_str:00000000000051a8 .LASF883
C:\Users\SOLDER~1\AppData\Local\Temp\ccbih9yx.s:23661  .debug_str:00000000000157c3 .LASF884
C:\Users\SOLDER~1\AppData\Local\Temp\ccbih9yx.s:22341  .debug_str:00000000000100eb .LASF885
C:\Users\SOLDER~1\AppData\Local\Temp\ccbih9yx.s:25731  .debug_str:000000000001ddc0 .LASF886
C:\Users\SOLDER~1\AppData\Local\Temp\ccbih9yx.s:24819  .debug_str:000000000001a21d .LASF887
C:\Users\SOLDER~1\AppData\Local\Temp\ccbih9yx.s:20967  .debug_str:000000000000a6b2 .LASF888
C:\Users\SOLDER~1\AppData\Local\Temp\ccbih9yx.s:22493  .debug_str:0000000000010a7c .LASF889
C:\Users\SOLDER~1\AppData\Local\Temp\ccbih9yx.s:28591  .debug_str:00000000000298b3 .LASF890
C:\Users\SOLDER~1\AppData\Local\Temp\ccbih9yx.s:18481  .debug_str:00000000000004ee .LASF891
C:\Users\SOLDER~1\AppData\Local\Temp\ccbih9yx.s:22235  .debug_str:000000000000f9e4 .LASF892
C:\Users\SOLDER~1\AppData\Local\Temp\ccbih9yx.s:29017  .debug_str:000000000002b497 .LASF893
C:\Users\SOLDER~1\AppData\Local\Temp\ccbih9yx.s:27013  .debug_str:0000000000023114 .LASF894
C:\Users\SOLDER~1\AppData\Local\Temp\ccbih9yx.s:28607  .debug_str:00000000000299c2 .LASF895
C:\Users\SOLDER~1\AppData\Local\Temp\ccbih9yx.s:29395  .debug_str:000000000002ccde .LASF896
C:\Users\SOLDER~1\AppData\Local\Temp\ccbih9yx.s:28185  .debug_str:0000000000027eaf .LASF897
C:\Users\SOLDER~1\AppData\Local\Temp\ccbih9yx.s:20023  .debug_str:00000000000068ca .LASF898
C:\Users\SOLDER~1\AppData\Local\Temp\ccbih9yx.s:18499  .debug_str:000000000000062b .LASF899
C:\Users\SOLDER~1\AppData\Local\Temp\ccbih9yx.s:19955  .debug_str:0000000000006415 .LASF900
C:\Users\SOLDER~1\AppData\Local\Temp\ccbih9yx.s:24305  .debug_str:0000000000018128 .LASF901
C:\Users\SOLDER~1\AppData\Local\Temp\ccbih9yx.s:26173  .debug_str:000000000001fade .LASF902
C:\Users\SOLDER~1\AppData\Local\Temp\ccbih9yx.s:20175  .debug_str:00000000000072c1 .LASF903
C:\Users\SOLDER~1\AppData\Local\Temp\ccbih9yx.s:19221  .debug_str:0000000000003568 .LASF904
C:\Users\SOLDER~1\AppData\Local\Temp\ccbih9yx.s:21289  .debug_str:000000000000bb9f .LASF905
C:\Users\SOLDER~1\AppData\Local\Temp\ccbih9yx.s:19455  .debug_str:0000000000004420 .LASF906
C:\Users\SOLDER~1\AppData\Local\Temp\ccbih9yx.s:20225  .debug_str:00000000000075d1 .LASF907
C:\Users\SOLDER~1\AppData\Local\Temp\ccbih9yx.s:27191  .debug_str:0000000000023c8c .LASF908
C:\Users\SOLDER~1\AppData\Local\Temp\ccbih9yx.s:24089  .debug_str:00000000000172c8 .LASF909
C:\Users\SOLDER~1\AppData\Local\Temp\ccbih9yx.s:23161  .debug_str:00000000000135df .LASF910
C:\Users\SOLDER~1\AppData\Local\Temp\ccbih9yx.s:25763  .debug_str:000000000001dfe9 .LASF911
C:\Users\SOLDER~1\AppData\Local\Temp\ccbih9yx.s:19713  .debug_str:0000000000005420 .LASF912
C:\Users\SOLDER~1\AppData\Local\Temp\ccbih9yx.s:28787  .debug_str:000000000002a5dd .LASF913
C:\Users\SOLDER~1\AppData\Local\Temp\ccbih9yx.s:19011  .debug_str:00000000000027d7 .LASF914
GAS LISTING C:\Users\SOLDER~1\AppData\Local\Temp\ccbih9yx.s 			page 27


C:\Users\SOLDER~1\AppData\Local\Temp\ccbih9yx.s:25837  .debug_str:000000000001e467 .LASF915
C:\Users\SOLDER~1\AppData\Local\Temp\ccbih9yx.s:24225  .debug_str:0000000000017b9f .LASF916
C:\Users\SOLDER~1\AppData\Local\Temp\ccbih9yx.s:19519  .debug_str:0000000000004847 .LASF917
C:\Users\SOLDER~1\AppData\Local\Temp\ccbih9yx.s:26089  .debug_str:000000000001f58f .LASF918
C:\Users\SOLDER~1\AppData\Local\Temp\ccbih9yx.s:24935  .debug_str:000000000001a98d .LASF919
C:\Users\SOLDER~1\AppData\Local\Temp\ccbih9yx.s:26637  .debug_str:00000000000218e6 .LASF920
C:\Users\SOLDER~1\AppData\Local\Temp\ccbih9yx.s:22173  .debug_str:000000000000f597 .LASF921
C:\Users\SOLDER~1\AppData\Local\Temp\ccbih9yx.s:18799  .debug_str:00000000000019fd .LASF922
C:\Users\SOLDER~1\AppData\Local\Temp\ccbih9yx.s:28463  .debug_str:000000000002907e .LASF923
C:\Users\SOLDER~1\AppData\Local\Temp\ccbih9yx.s:28773  .debug_str:000000000002a4ea .LASF924
C:\Users\SOLDER~1\AppData\Local\Temp\ccbih9yx.s:19593  .debug_str:0000000000004cef .LASF925
C:\Users\SOLDER~1\AppData\Local\Temp\ccbih9yx.s:20021  .debug_str:00000000000068aa .LASF926
C:\Users\SOLDER~1\AppData\Local\Temp\ccbih9yx.s:20877  .debug_str:000000000000a07e .LASF927
C:\Users\SOLDER~1\AppData\Local\Temp\ccbih9yx.s:25367  .debug_str:000000000001c5c8 .LASF928
C:\Users\SOLDER~1\AppData\Local\Temp\ccbih9yx.s:24467  .debug_str:0000000000018b80 .LASF929
C:\Users\SOLDER~1\AppData\Local\Temp\ccbih9yx.s:25875  .debug_str:000000000001e733 .LASF930
C:\Users\SOLDER~1\AppData\Local\Temp\ccbih9yx.s:18735  .debug_str:00000000000015ff .LASF931
C:\Users\SOLDER~1\AppData\Local\Temp\ccbih9yx.s:20093  .debug_str:0000000000006d24 .LASF932
C:\Users\SOLDER~1\AppData\Local\Temp\ccbih9yx.s:18651  .debug_str:0000000000001087 .LASF933
C:\Users\SOLDER~1\AppData\Local\Temp\ccbih9yx.s:21851  .debug_str:000000000000e10a .LASF934
C:\Users\SOLDER~1\AppData\Local\Temp\ccbih9yx.s:28653  .debug_str:0000000000029cef .LASF935
C:\Users\SOLDER~1\AppData\Local\Temp\ccbih9yx.s:26651  .debug_str:00000000000219cc .LASF936
C:\Users\SOLDER~1\AppData\Local\Temp\ccbih9yx.s:28219  .debug_str:000000000002810d .LASF937
C:\Users\SOLDER~1\AppData\Local\Temp\ccbih9yx.s:25519  .debug_str:000000000001cfea .LASF938
C:\Users\SOLDER~1\AppData\Local\Temp\ccbih9yx.s:28497  .debug_str:00000000000292b3 .LASF939
C:\Users\SOLDER~1\AppData\Local\Temp\ccbih9yx.s:20705  .debug_str:0000000000009560 .LASF940
C:\Users\SOLDER~1\AppData\Local\Temp\ccbih9yx.s:28637  .debug_str:0000000000029bcc .LASF941
C:\Users\SOLDER~1\AppData\Local\Temp\ccbih9yx.s:22055  .debug_str:000000000000ee1e .LASF942
C:\Users\SOLDER~1\AppData\Local\Temp\ccbih9yx.s:27559  .debug_str:00000000000254a4 .LASF943
C:\Users\SOLDER~1\AppData\Local\Temp\ccbih9yx.s:19235  .debug_str:0000000000003640 .LASF944
C:\Users\SOLDER~1\AppData\Local\Temp\ccbih9yx.s:21897  .debug_str:000000000000e40f .LASF945
C:\Users\SOLDER~1\AppData\Local\Temp\ccbih9yx.s:28807  .debug_str:000000000002a6f8 .LASF946
C:\Users\SOLDER~1\AppData\Local\Temp\ccbih9yx.s:27635  .debug_str:00000000000259ef .LASF947
C:\Users\SOLDER~1\AppData\Local\Temp\ccbih9yx.s:25117  .debug_str:000000000001b562 .LASF948
C:\Users\SOLDER~1\AppData\Local\Temp\ccbih9yx.s:20775  .debug_str:00000000000099c8 .LASF949
C:\Users\SOLDER~1\AppData\Local\Temp\ccbih9yx.s:21867  .debug_str:000000000000e225 .LASF950
C:\Users\SOLDER~1\AppData\Local\Temp\ccbih9yx.s:22221  .debug_str:000000000000f8ed .LASF951
C:\Users\SOLDER~1\AppData\Local\Temp\ccbih9yx.s:29475  .debug_str:000000000002d267 .LASF952
C:\Users\SOLDER~1\AppData\Local\Temp\ccbih9yx.s:21725  .debug_str:000000000000d895 .LASF953
C:\Users\SOLDER~1\AppData\Local\Temp\ccbih9yx.s:24125  .debug_str:0000000000017520 .LASF954
C:\Users\SOLDER~1\AppData\Local\Temp\ccbih9yx.s:24647  .debug_str:000000000001976a .LASF955
C:\Users\SOLDER~1\AppData\Local\Temp\ccbih9yx.s:24495  .debug_str:0000000000018d7c .LASF956
C:\Users\SOLDER~1\AppData\Local\Temp\ccbih9yx.s:23979  .debug_str:0000000000016bb5 .LASF957
C:\Users\SOLDER~1\AppData\Local\Temp\ccbih9yx.s:22081  .debug_str:000000000000efad .LASF958
C:\Users\SOLDER~1\AppData\Local\Temp\ccbih9yx.s:19557  .debug_str:0000000000004a92 .LASF959
C:\Users\SOLDER~1\AppData\Local\Temp\ccbih9yx.s:19787  .debug_str:000000000000590c .LASF960
C:\Users\SOLDER~1\AppData\Local\Temp\ccbih9yx.s:26591  .debug_str:0000000000021603 .LASF961
C:\Users\SOLDER~1\AppData\Local\Temp\ccbih9yx.s:28927  .debug_str:000000000002ae90 .LASF962
C:\Users\SOLDER~1\AppData\Local\Temp\ccbih9yx.s:22151  .debug_str:000000000000f425 .LASF963
C:\Users\SOLDER~1\AppData\Local\Temp\ccbih9yx.s:26531  .debug_str:0000000000021216 .LASF964
C:\Users\SOLDER~1\AppData\Local\Temp\ccbih9yx.s:29209  .debug_str:000000000002c15b .LASF965
C:\Users\SOLDER~1\AppData\Local\Temp\ccbih9yx.s:24227  .debug_str:0000000000017bc1 .LASF966
C:\Users\SOLDER~1\AppData\Local\Temp\ccbih9yx.s:24019  .debug_str:0000000000016e0a .LASF967
C:\Users\SOLDER~1\AppData\Local\Temp\ccbih9yx.s:21787  .debug_str:000000000000dc7b .LASF968
C:\Users\SOLDER~1\AppData\Local\Temp\ccbih9yx.s:20379  .debug_str:0000000000007fe5 .LASF969
C:\Users\SOLDER~1\AppData\Local\Temp\ccbih9yx.s:19411  .debug_str:000000000000416c .LASF970
C:\Users\SOLDER~1\AppData\Local\Temp\ccbih9yx.s:27385  .debug_str:0000000000024966 .LASF971
GAS LISTING C:\Users\SOLDER~1\AppData\Local\Temp\ccbih9yx.s 			page 28


C:\Users\SOLDER~1\AppData\Local\Temp\ccbih9yx.s:28563  .debug_str:0000000000029703 .LASF972
C:\Users\SOLDER~1\AppData\Local\Temp\ccbih9yx.s:21569  .debug_str:000000000000ce5d .LASF973
C:\Users\SOLDER~1\AppData\Local\Temp\ccbih9yx.s:22641  .debug_str:0000000000011408 .LASF974
C:\Users\SOLDER~1\AppData\Local\Temp\ccbih9yx.s:22183  .debug_str:000000000000f62f .LASF975
C:\Users\SOLDER~1\AppData\Local\Temp\ccbih9yx.s:23059  .debug_str:0000000000012f1b .LASF976
C:\Users\SOLDER~1\AppData\Local\Temp\ccbih9yx.s:29333  .debug_str:000000000002c906 .LASF977
C:\Users\SOLDER~1\AppData\Local\Temp\ccbih9yx.s:29391  .debug_str:000000000002cc9c .LASF978
C:\Users\SOLDER~1\AppData\Local\Temp\ccbih9yx.s:24877  .debug_str:000000000001a5d5 .LASF979
C:\Users\SOLDER~1\AppData\Local\Temp\ccbih9yx.s:26981  .debug_str:0000000000022ede .LASF980
C:\Users\SOLDER~1\AppData\Local\Temp\ccbih9yx.s:20409  .debug_str:00000000000081ea .LASF981
C:\Users\SOLDER~1\AppData\Local\Temp\ccbih9yx.s:24655  .debug_str:00000000000197bb .LASF982
C:\Users\SOLDER~1\AppData\Local\Temp\ccbih9yx.s:27411  .debug_str:0000000000024b3c .LASF983
C:\Users\SOLDER~1\AppData\Local\Temp\ccbih9yx.s:22367  .debug_str:000000000001029e .LASF984
C:\Users\SOLDER~1\AppData\Local\Temp\ccbih9yx.s:22987  .debug_str:0000000000012a41 .LASF985
C:\Users\SOLDER~1\AppData\Local\Temp\ccbih9yx.s:19969  .debug_str:00000000000064fd .LASF986
C:\Users\SOLDER~1\AppData\Local\Temp\ccbih9yx.s:18635  .debug_str:0000000000000fa8 .LASF987
C:\Users\SOLDER~1\AppData\Local\Temp\ccbih9yx.s:29109  .debug_str:000000000002ba57 .LASF988
C:\Users\SOLDER~1\AppData\Local\Temp\ccbih9yx.s:25651  .debug_str:000000000001d881 .LASF989
C:\Users\SOLDER~1\AppData\Local\Temp\ccbih9yx.s:19845  .debug_str:0000000000005cdf .LASF990
C:\Users\SOLDER~1\AppData\Local\Temp\ccbih9yx.s:21185  .debug_str:000000000000b4d2 .LASF991
C:\Users\SOLDER~1\AppData\Local\Temp\ccbih9yx.s:24395  .debug_str:00000000000186c7 .LASF992
C:\Users\SOLDER~1\AppData\Local\Temp\ccbih9yx.s:28227  .debug_str:0000000000028188 .LASF993
C:\Users\SOLDER~1\AppData\Local\Temp\ccbih9yx.s:25461  .debug_str:000000000001cc2e .LASF994
C:\Users\SOLDER~1\AppData\Local\Temp\ccbih9yx.s:23809  .debug_str:0000000000016150 .LASF995
C:\Users\SOLDER~1\AppData\Local\Temp\ccbih9yx.s:22447  .debug_str:000000000001079e .LASF996
C:\Users\SOLDER~1\AppData\Local\Temp\ccbih9yx.s:19317  .debug_str:0000000000003ba4 .LASF997
C:\Users\SOLDER~1\AppData\Local\Temp\ccbih9yx.s:20715  .debug_str:00000000000095df .LASF998
C:\Users\SOLDER~1\AppData\Local\Temp\ccbih9yx.s:26439  .debug_str:0000000000020bf9 .LASF999
C:\Users\SOLDER~1\AppData\Local\Temp\ccbih9yx.s:29851  .debug_str:000000000002ea56 .LASF1000
C:\Users\SOLDER~1\AppData\Local\Temp\ccbih9yx.s:21987  .debug_str:000000000000e9d2 .LASF1001
C:\Users\SOLDER~1\AppData\Local\Temp\ccbih9yx.s:27439  .debug_str:0000000000024d02 .LASF1002
C:\Users\SOLDER~1\AppData\Local\Temp\ccbih9yx.s:29059  .debug_str:000000000002b754 .LASF1003
C:\Users\SOLDER~1\AppData\Local\Temp\ccbih9yx.s:25195  .debug_str:000000000001ba4a .LASF1004
C:\Users\SOLDER~1\AppData\Local\Temp\ccbih9yx.s:24609  .debug_str:000000000001950c .LASF1005
C:\Users\SOLDER~1\AppData\Local\Temp\ccbih9yx.s:22813  .debug_str:0000000000011f1b .LASF1006
C:\Users\SOLDER~1\AppData\Local\Temp\ccbih9yx.s:19871  .debug_str:0000000000005e5b .LASF1007
C:\Users\SOLDER~1\AppData\Local\Temp\ccbih9yx.s:20433  .debug_str:0000000000008373 .LASF1008
C:\Users\SOLDER~1\AppData\Local\Temp\ccbih9yx.s:27235  .debug_str:0000000000023f75 .LASF1009
C:\Users\SOLDER~1\AppData\Local\Temp\ccbih9yx.s:29567  .debug_str:000000000002d832 .LASF1010
C:\Users\SOLDER~1\AppData\Local\Temp\ccbih9yx.s:22803  .debug_str:0000000000011e7c .LASF1011
C:\Users\SOLDER~1\AppData\Local\Temp\ccbih9yx.s:27809  .debug_str:00000000000265ea .LASF1012
C:\Users\SOLDER~1\AppData\Local\Temp\ccbih9yx.s:29845  .debug_str:000000000002e9fd .LASF1013
C:\Users\SOLDER~1\AppData\Local\Temp\ccbih9yx.s:28285  .debug_str:0000000000028519 .LASF1014
C:\Users\SOLDER~1\AppData\Local\Temp\ccbih9yx.s:25377  .debug_str:000000000001c67f .LASF1015
C:\Users\SOLDER~1\AppData\Local\Temp\ccbih9yx.s:25921  .debug_str:000000000001ea40 .LASF1016
C:\Users\SOLDER~1\AppData\Local\Temp\ccbih9yx.s:20901  .debug_str:000000000000a215 .LASF1017
C:\Users\SOLDER~1\AppData\Local\Temp\ccbih9yx.s:23559  .debug_str:00000000000150de .LASF1018
C:\Users\SOLDER~1\AppData\Local\Temp\ccbih9yx.s:27943  .debug_str:0000000000026f11 .LASF1019
C:\Users\SOLDER~1\AppData\Local\Temp\ccbih9yx.s:21157  .debug_str:000000000000b2dd .LASF1020
C:\Users\SOLDER~1\AppData\Local\Temp\ccbih9yx.s:22777  .debug_str:0000000000011ce6 .LASF1021
C:\Users\SOLDER~1\AppData\Local\Temp\ccbih9yx.s:24843  .debug_str:000000000001a3c9 .LASF1022
C:\Users\SOLDER~1\AppData\Local\Temp\ccbih9yx.s:19133  .debug_str:0000000000002fd8 .LASF1023
C:\Users\SOLDER~1\AppData\Local\Temp\ccbih9yx.s:27993  .debug_str:0000000000027237 .LASF1024
C:\Users\SOLDER~1\AppData\Local\Temp\ccbih9yx.s:26969  .debug_str:0000000000022e3a .LASF1025
C:\Users\SOLDER~1\AppData\Local\Temp\ccbih9yx.s:25629  .debug_str:000000000001d72e .LASF1026
C:\Users\SOLDER~1\AppData\Local\Temp\ccbih9yx.s:21705  .debug_str:000000000000d764 .LASF1027
C:\Users\SOLDER~1\AppData\Local\Temp\ccbih9yx.s:23283  .debug_str:0000000000013e9c .LASF1028
GAS LISTING C:\Users\SOLDER~1\AppData\Local\Temp\ccbih9yx.s 			page 29


C:\Users\SOLDER~1\AppData\Local\Temp\ccbih9yx.s:28767  .debug_str:000000000002a471 .LASF1029
C:\Users\SOLDER~1\AppData\Local\Temp\ccbih9yx.s:20873  .debug_str:000000000000a03a .LASF1030
C:\Users\SOLDER~1\AppData\Local\Temp\ccbih9yx.s:20475  .debug_str:000000000000860c .LASF1031
C:\Users\SOLDER~1\AppData\Local\Temp\ccbih9yx.s:18529  .debug_str:0000000000000877 .LASF1032
C:\Users\SOLDER~1\AppData\Local\Temp\ccbih9yx.s:19833  .debug_str:0000000000005c09 .LASF1033
C:\Users\SOLDER~1\AppData\Local\Temp\ccbih9yx.s:19619  .debug_str:0000000000004e70 .LASF1034
C:\Users\SOLDER~1\AppData\Local\Temp\ccbih9yx.s:26853  .debug_str:0000000000022679 .LASF1035
C:\Users\SOLDER~1\AppData\Local\Temp\ccbih9yx.s:28751  .debug_str:000000000002a36e .LASF1036
C:\Users\SOLDER~1\AppData\Local\Temp\ccbih9yx.s:22531  .debug_str:0000000000010cfd .LASF1037
C:\Users\SOLDER~1\AppData\Local\Temp\ccbih9yx.s:26359  .debug_str:00000000000206d8 .LASF1038
C:\Users\SOLDER~1\AppData\Local\Temp\ccbih9yx.s:27357  .debug_str:000000000002479a .LASF1039
C:\Users\SOLDER~1\AppData\Local\Temp\ccbih9yx.s:20769  .debug_str:0000000000009970 .LASF1040
C:\Users\SOLDER~1\AppData\Local\Temp\ccbih9yx.s:19543  .debug_str:00000000000049b6 .LASF1041
C:\Users\SOLDER~1\AppData\Local\Temp\ccbih9yx.s:22389  .debug_str:0000000000010428 .LASF1042
C:\Users\SOLDER~1\AppData\Local\Temp\ccbih9yx.s:28415  .debug_str:0000000000028d72 .LASF1043
C:\Users\SOLDER~1\AppData\Local\Temp\ccbih9yx.s:26161  .debug_str:000000000001fa0f .LASF1044
C:\Users\SOLDER~1\AppData\Local\Temp\ccbih9yx.s:23725  .debug_str:0000000000015be2 .LASF1045
C:\Users\SOLDER~1\AppData\Local\Temp\ccbih9yx.s:19327  .debug_str:0000000000003c43 .LASF1046
C:\Users\SOLDER~1\AppData\Local\Temp\ccbih9yx.s:27841  .debug_str:000000000002682a .LASF1047
C:\Users\SOLDER~1\AppData\Local\Temp\ccbih9yx.s:19925  .debug_str:0000000000006220 .LASF1048
C:\Users\SOLDER~1\AppData\Local\Temp\ccbih9yx.s:24093  .debug_str:000000000001730e .LASF1049
C:\Users\SOLDER~1\AppData\Local\Temp\ccbih9yx.s:22787  .debug_str:0000000000011d72 .LASF1050
C:\Users\SOLDER~1\AppData\Local\Temp\ccbih9yx.s:25453  .debug_str:000000000001cbaf .LASF1051
C:\Users\SOLDER~1\AppData\Local\Temp\ccbih9yx.s:27829  .debug_str:0000000000026763 .LASF1052
C:\Users\SOLDER~1\AppData\Local\Temp\ccbih9yx.s:21973  .debug_str:000000000000e900 .LASF1053
C:\Users\SOLDER~1\AppData\Local\Temp\ccbih9yx.s:25279  .debug_str:000000000001bfb8 .LASF1054
C:\Users\SOLDER~1\AppData\Local\Temp\ccbih9yx.s:19625  .debug_str:0000000000004ec7 .LASF1055
C:\Users\SOLDER~1\AppData\Local\Temp\ccbih9yx.s:26543  .debug_str:00000000000212d2 .LASF1056
C:\Users\SOLDER~1\AppData\Local\Temp\ccbih9yx.s:26633  .debug_str:000000000002189e .LASF1057
C:\Users\SOLDER~1\AppData\Local\Temp\ccbih9yx.s:25611  .debug_str:000000000001d628 .LASF1058
C:\Users\SOLDER~1\AppData\Local\Temp\ccbih9yx.s:28615  .debug_str:0000000000029a47 .LASF1059
C:\Users\SOLDER~1\AppData\Local\Temp\ccbih9yx.s:26553  .debug_str:0000000000021370 .LASF1060
C:\Users\SOLDER~1\AppData\Local\Temp\ccbih9yx.s:26319  .debug_str:000000000002043c .LASF1061
C:\Users\SOLDER~1\AppData\Local\Temp\ccbih9yx.s:29513  .debug_str:000000000002d4b2 .LASF1062
C:\Users\SOLDER~1\AppData\Local\Temp\ccbih9yx.s:19991  .debug_str:0000000000006693 .LASF1063
C:\Users\SOLDER~1\AppData\Local\Temp\ccbih9yx.s:22297  .debug_str:000000000000fe3d .LASF1064
C:\Users\SOLDER~1\AppData\Local\Temp\ccbih9yx.s:26961  .debug_str:0000000000022db7 .LASF1065
C:\Users\SOLDER~1\AppData\Local\Temp\ccbih9yx.s:26983  .debug_str:0000000000022eff .LASF1066
C:\Users\SOLDER~1\AppData\Local\Temp\ccbih9yx.s:21707  .debug_str:000000000000d77b .LASF1067
C:\Users\SOLDER~1\AppData\Local\Temp\ccbih9yx.s:19529  .debug_str:00000000000048ee .LASF1068
C:\Users\SOLDER~1\AppData\Local\Temp\ccbih9yx.s:22525  .debug_str:0000000000010c92 .LASF1069
C:\Users\SOLDER~1\AppData\Local\Temp\ccbih9yx.s:26837  .debug_str:0000000000022562 .LASF1070
C:\Users\SOLDER~1\AppData\Local\Temp\ccbih9yx.s:25527  .debug_str:000000000001d082 .LASF1071
C:\Users\SOLDER~1\AppData\Local\Temp\ccbih9yx.s:22505  .debug_str:0000000000010b3a .LASF1072
C:\Users\SOLDER~1\AppData\Local\Temp\ccbih9yx.s:27077  .debug_str:000000000002355f .LASF1073
C:\Users\SOLDER~1\AppData\Local\Temp\ccbih9yx.s:18547  .debug_str:00000000000009e4 .LASF1074
C:\Users\SOLDER~1\AppData\Local\Temp\ccbih9yx.s:24795  .debug_str:000000000001a0b5 .LASF1075
C:\Users\SOLDER~1\AppData\Local\Temp\ccbih9yx.s:23303  .debug_str:0000000000013fd9 .LASF1076
C:\Users\SOLDER~1\AppData\Local\Temp\ccbih9yx.s:21509  .debug_str:000000000000ca87 .LASF1077
C:\Users\SOLDER~1\AppData\Local\Temp\ccbih9yx.s:18997  .debug_str:00000000000026f5 .LASF1078
C:\Users\SOLDER~1\AppData\Local\Temp\ccbih9yx.s:27533  .debug_str:00000000000252f1 .LASF1079
C:\Users\SOLDER~1\AppData\Local\Temp\ccbih9yx.s:20593  .debug_str:0000000000008ddb .LASF1080
C:\Users\SOLDER~1\AppData\Local\Temp\ccbih9yx.s:22961  .debug_str:0000000000012868 .LASF1081
C:\Users\SOLDER~1\AppData\Local\Temp\ccbih9yx.s:26395  .debug_str:000000000002091e .LASF1082
C:\Users\SOLDER~1\AppData\Local\Temp\ccbih9yx.s:25855  .debug_str:000000000001e5bb .LASF1083
C:\Users\SOLDER~1\AppData\Local\Temp\ccbih9yx.s:23801  .debug_str:00000000000160c5 .LASF1084
C:\Users\SOLDER~1\AppData\Local\Temp\ccbih9yx.s:19837  .debug_str:0000000000005c45 .LASF1085
GAS LISTING C:\Users\SOLDER~1\AppData\Local\Temp\ccbih9yx.s 			page 30


C:\Users\SOLDER~1\AppData\Local\Temp\ccbih9yx.s:26945  .debug_str:0000000000022ca8 .LASF1086
C:\Users\SOLDER~1\AppData\Local\Temp\ccbih9yx.s:28695  .debug_str:0000000000029f96 .LASF1087
C:\Users\SOLDER~1\AppData\Local\Temp\ccbih9yx.s:26535  .debug_str:000000000002124c .LASF1088
C:\Users\SOLDER~1\AppData\Local\Temp\ccbih9yx.s:19807  .debug_str:0000000000005a69 .LASF1089
C:\Users\SOLDER~1\AppData\Local\Temp\ccbih9yx.s:27851  .debug_str:00000000000268c3 .LASF1090
C:\Users\SOLDER~1\AppData\Local\Temp\ccbih9yx.s:25701  .debug_str:000000000001db9b .LASF1091
C:\Users\SOLDER~1\AppData\Local\Temp\ccbih9yx.s:20169  .debug_str:0000000000007255 .LASF1092
C:\Users\SOLDER~1\AppData\Local\Temp\ccbih9yx.s:24243  .debug_str:0000000000017ccb .LASF1093
C:\Users\SOLDER~1\AppData\Local\Temp\ccbih9yx.s:21675  .debug_str:000000000000d550 .LASF1094
C:\Users\SOLDER~1\AppData\Local\Temp\ccbih9yx.s:18753  .debug_str:000000000000172f .LASF1095
C:\Users\SOLDER~1\AppData\Local\Temp\ccbih9yx.s:19897  .debug_str:0000000000006016 .LASF1096
C:\Users\SOLDER~1\AppData\Local\Temp\ccbih9yx.s:26967  .debug_str:0000000000022e13 .LASF1097
C:\Users\SOLDER~1\AppData\Local\Temp\ccbih9yx.s:26261  .debug_str:000000000002005f .LASF1098
C:\Users\SOLDER~1\AppData\Local\Temp\ccbih9yx.s:20131  .debug_str:0000000000006fda .LASF1099
C:\Users\SOLDER~1\AppData\Local\Temp\ccbih9yx.s:23569  .debug_str:00000000000151a2 .LASF1100
C:\Users\SOLDER~1\AppData\Local\Temp\ccbih9yx.s:27215  .debug_str:0000000000023e19 .LASF1101
C:\Users\SOLDER~1\AppData\Local\Temp\ccbih9yx.s:28887  .debug_str:000000000002ac16 .LASF1102
C:\Users\SOLDER~1\AppData\Local\Temp\ccbih9yx.s:18611  .debug_str:0000000000000e3b .LASF1103
C:\Users\SOLDER~1\AppData\Local\Temp\ccbih9yx.s:18719  .debug_str:000000000000150d .LASF1104
C:\Users\SOLDER~1\AppData\Local\Temp\ccbih9yx.s:26193  .debug_str:000000000001fc09 .LASF1105
C:\Users\SOLDER~1\AppData\Local\Temp\ccbih9yx.s:19779  .debug_str:000000000000588d .LASF1106
C:\Users\SOLDER~1\AppData\Local\Temp\ccbih9yx.s:21309  .debug_str:000000000000bcd4 .LASF1107
C:\Users\SOLDER~1\AppData\Local\Temp\ccbih9yx.s:18793  .debug_str:000000000000199a .LASF1108
C:\Users\SOLDER~1\AppData\Local\Temp\ccbih9yx.s:26275  .debug_str:000000000002013c .LASF1109
C:\Users\SOLDER~1\AppData\Local\Temp\ccbih9yx.s:19873  .debug_str:0000000000005e72 .LASF1110
C:\Users\SOLDER~1\AppData\Local\Temp\ccbih9yx.s:20377  .debug_str:0000000000007fbd .LASF1111
C:\Users\SOLDER~1\AppData\Local\Temp\ccbih9yx.s:20853  .debug_str:0000000000009edc .LASF1112
C:\Users\SOLDER~1\AppData\Local\Temp\ccbih9yx.s:21279  .debug_str:000000000000bafb .LASF1113
C:\Users\SOLDER~1\AppData\Local\Temp\ccbih9yx.s:28197  .debug_str:0000000000027f74 .LASF1114
C:\Users\SOLDER~1\AppData\Local\Temp\ccbih9yx.s:20517  .debug_str:000000000000889c .LASF1115
C:\Users\SOLDER~1\AppData\Local\Temp\ccbih9yx.s:27913  .debug_str:0000000000026cd5 .LASF1116
C:\Users\SOLDER~1\AppData\Local\Temp\ccbih9yx.s:29365  .debug_str:000000000002cae0 .LASF1117
C:\Users\SOLDER~1\AppData\Local\Temp\ccbih9yx.s:28853  .debug_str:000000000002a9d2 .LASF1118
C:\Users\SOLDER~1\AppData\Local\Temp\ccbih9yx.s:23223  .debug_str:0000000000013a69 .LASF1119
C:\Users\SOLDER~1\AppData\Local\Temp\ccbih9yx.s:19545  .debug_str:00000000000049c7 .LASF1120
C:\Users\SOLDER~1\AppData\Local\Temp\ccbih9yx.s:25743  .debug_str:000000000001de9b .LASF1121
C:\Users\SOLDER~1\AppData\Local\Temp\ccbih9yx.s:20633  .debug_str:0000000000009096 .LASF1122
C:\Users\SOLDER~1\AppData\Local\Temp\ccbih9yx.s:29023  .debug_str:000000000002b511 .LASF1123
C:\Users\SOLDER~1\AppData\Local\Temp\ccbih9yx.s:23463  .debug_str:0000000000014ae0 .LASF1124
C:\Users\SOLDER~1\AppData\Local\Temp\ccbih9yx.s:21171  .debug_str:000000000000b3ea .LASF1125
C:\Users\SOLDER~1\AppData\Local\Temp\ccbih9yx.s:29543  .debug_str:000000000002d6b7 .LASF1126
C:\Users\SOLDER~1\AppData\Local\Temp\ccbih9yx.s:27665  .debug_str:0000000000025bfc .LASF1127
C:\Users\SOLDER~1\AppData\Local\Temp\ccbih9yx.s:26729  .debug_str:0000000000021eae .LASF1128
C:\Users\SOLDER~1\AppData\Local\Temp\ccbih9yx.s:24421  .debug_str:0000000000018870 .LASF1129
C:\Users\SOLDER~1\AppData\Local\Temp\ccbih9yx.s:25025  .debug_str:000000000001afa1 .LASF1130
C:\Users\SOLDER~1\AppData\Local\Temp\ccbih9yx.s:20529  .debug_str:000000000000898f .LASF1131
C:\Users\SOLDER~1\AppData\Local\Temp\ccbih9yx.s:26039  .debug_str:000000000001f1f8 .LASF1132
C:\Users\SOLDER~1\AppData\Local\Temp\ccbih9yx.s:21089  .debug_str:000000000000aeb8 .LASF1133
C:\Users\SOLDER~1\AppData\Local\Temp\ccbih9yx.s:24081  .debug_str:0000000000017241 .LASF1134
C:\Users\SOLDER~1\AppData\Local\Temp\ccbih9yx.s:23461  .debug_str:0000000000014abb .LASF1135
C:\Users\SOLDER~1\AppData\Local\Temp\ccbih9yx.s:24091  .debug_str:00000000000172e9 .LASF1136
C:\Users\SOLDER~1\AppData\Local\Temp\ccbih9yx.s:28101  .debug_str:0000000000027909 .LASF1137
C:\Users\SOLDER~1\AppData\Local\Temp\ccbih9yx.s:25977  .debug_str:000000000001edbe .LASF1138
C:\Users\SOLDER~1\AppData\Local\Temp\ccbih9yx.s:27273  .debug_str:0000000000024207 .LASF1139
C:\Users\SOLDER~1\AppData\Local\Temp\ccbih9yx.s:18941  .debug_str:000000000000234e .LASF1140
C:\Users\SOLDER~1\AppData\Local\Temp\ccbih9yx.s:27711  .debug_str:0000000000025f4c .LASF1141
C:\Users\SOLDER~1\AppData\Local\Temp\ccbih9yx.s:26847  .debug_str:0000000000022619 .LASF1142
GAS LISTING C:\Users\SOLDER~1\AppData\Local\Temp\ccbih9yx.s 			page 31


C:\Users\SOLDER~1\AppData\Local\Temp\ccbih9yx.s:25383  .debug_str:000000000001c6d8 .LASF1143
C:\Users\SOLDER~1\AppData\Local\Temp\ccbih9yx.s:29117  .debug_str:000000000002bae4 .LASF1144
C:\Users\SOLDER~1\AppData\Local\Temp\ccbih9yx.s:25873  .debug_str:000000000001e70c .LASF1145
C:\Users\SOLDER~1\AppData\Local\Temp\ccbih9yx.s:25635  .debug_str:000000000001d79a .LASF1146
C:\Users\SOLDER~1\AppData\Local\Temp\ccbih9yx.s:23971  .debug_str:0000000000016b3c .LASF1147
C:\Users\SOLDER~1\AppData\Local\Temp\ccbih9yx.s:29233  .debug_str:000000000002c2b7 .LASF1148
C:\Users\SOLDER~1\AppData\Local\Temp\ccbih9yx.s:26545  .debug_str:00000000000212ee .LASF1149
C:\Users\SOLDER~1\AppData\Local\Temp\ccbih9yx.s:23701  .debug_str:0000000000015a66 .LASF1150
C:\Users\SOLDER~1\AppData\Local\Temp\ccbih9yx.s:25435  .debug_str:000000000001ca65 .LASF1151
C:\Users\SOLDER~1\AppData\Local\Temp\ccbih9yx.s:22519  .debug_str:0000000000010c22 .LASF1152
C:\Users\SOLDER~1\AppData\Local\Temp\ccbih9yx.s:28003  .debug_str:00000000000272e9 .LASF1153
C:\Users\SOLDER~1\AppData\Local\Temp\ccbih9yx.s:24329  .debug_str:0000000000018296 .LASF1154
C:\Users\SOLDER~1\AppData\Local\Temp\ccbih9yx.s:18839  .debug_str:0000000000001ca9 .LASF1155
C:\Users\SOLDER~1\AppData\Local\Temp\ccbih9yx.s:23233  .debug_str:0000000000013b3b .LASF1156
C:\Users\SOLDER~1\AppData\Local\Temp\ccbih9yx.s:26305  .debug_str:0000000000020330 .LASF1157
C:\Users\SOLDER~1\AppData\Local\Temp\ccbih9yx.s:29653  .debug_str:000000000002ddb3 .LASF1158
C:\Users\SOLDER~1\AppData\Local\Temp\ccbih9yx.s:29661  .debug_str:000000000002de19 .LASF1159
C:\Users\SOLDER~1\AppData\Local\Temp\ccbih9yx.s:28249  .debug_str:00000000000282d3 .LASF1160
C:\Users\SOLDER~1\AppData\Local\Temp\ccbih9yx.s:24575  .debug_str:00000000000192a8 .LASF1161
C:\Users\SOLDER~1\AppData\Local\Temp\ccbih9yx.s:24355  .debug_str:0000000000018430 .LASF1162
C:\Users\SOLDER~1\AppData\Local\Temp\ccbih9yx.s:28087  .debug_str:000000000002783d .LASF1163
C:\Users\SOLDER~1\AppData\Local\Temp\ccbih9yx.s:22579  .debug_str:0000000000010fe6 .LASF1164
C:\Users\SOLDER~1\AppData\Local\Temp\ccbih9yx.s:28021  .debug_str:0000000000027417 .LASF1165
C:\Users\SOLDER~1\AppData\Local\Temp\ccbih9yx.s:29713  .debug_str:000000000002e151 .LASF1166
C:\Users\SOLDER~1\AppData\Local\Temp\ccbih9yx.s:26099  .debug_str:000000000001f625 .LASF1167
C:\Users\SOLDER~1\AppData\Local\Temp\ccbih9yx.s:23101  .debug_str:00000000000131cf .LASF1168
C:\Users\SOLDER~1\AppData\Local\Temp\ccbih9yx.s:28567  .debug_str:0000000000029740 .LASF1169
C:\Users\SOLDER~1\AppData\Local\Temp\ccbih9yx.s:20571  .debug_str:0000000000008c37 .LASF1170
C:\Users\SOLDER~1\AppData\Local\Temp\ccbih9yx.s:26589  .debug_str:00000000000215da .LASF1171
C:\Users\SOLDER~1\AppData\Local\Temp\ccbih9yx.s:27437  .debug_str:0000000000024cdb .LASF1172
C:\Users\SOLDER~1\AppData\Local\Temp\ccbih9yx.s:25927  .debug_str:000000000001eaa0 .LASF1173
C:\Users\SOLDER~1\AppData\Local\Temp\ccbih9yx.s:24341  .debug_str:000000000001835c .LASF1174
C:\Users\SOLDER~1\AppData\Local\Temp\ccbih9yx.s:22321  .debug_str:000000000000ffbc .LASF1175
C:\Users\SOLDER~1\AppData\Local\Temp\ccbih9yx.s:26127  .debug_str:000000000001f807 .LASF1176
C:\Users\SOLDER~1\AppData\Local\Temp\ccbih9yx.s:23237  .debug_str:0000000000013b87 .LASF1177
C:\Users\SOLDER~1\AppData\Local\Temp\ccbih9yx.s:22981  .debug_str:00000000000129d0 .LASF1178
C:\Users\SOLDER~1\AppData\Local\Temp\ccbih9yx.s:20845  .debug_str:0000000000009e55 .LASF1179
C:\Users\SOLDER~1\AppData\Local\Temp\ccbih9yx.s:22199  .debug_str:000000000000f745 .LASF1180
C:\Users\SOLDER~1\AppData\Local\Temp\ccbih9yx.s:24269  .debug_str:0000000000017e90 .LASF1181
C:\Users\SOLDER~1\AppData\Local\Temp\ccbih9yx.s:27705  .debug_str:0000000000025ee3 .LASF1182
C:\Users\SOLDER~1\AppData\Local\Temp\ccbih9yx.s:22383  .debug_str:00000000000103be .LASF1183
C:\Users\SOLDER~1\AppData\Local\Temp\ccbih9yx.s:27921  .debug_str:0000000000026d6a .LASF1184
C:\Users\SOLDER~1\AppData\Local\Temp\ccbih9yx.s:24851  .debug_str:000000000001a43b .LASF1185
C:\Users\SOLDER~1\AppData\Local\Temp\ccbih9yx.s:28335  .debug_str:0000000000028881 .LASF1186
C:\Users\SOLDER~1\AppData\Local\Temp\ccbih9yx.s:22893  .debug_str:00000000000123f4 .LASF1187
C:\Users\SOLDER~1\AppData\Local\Temp\ccbih9yx.s:20935  .debug_str:000000000000a459 .LASF1188
C:\Users\SOLDER~1\AppData\Local\Temp\ccbih9yx.s:20277  .debug_str:0000000000007905 .LASF1189
C:\Users\SOLDER~1\AppData\Local\Temp\ccbih9yx.s:18875  .debug_str:0000000000001ef7 .LASF1190
C:\Users\SOLDER~1\AppData\Local\Temp\ccbih9yx.s:22623  .debug_str:00000000000112b4 .LASF1191
C:\Users\SOLDER~1\AppData\Local\Temp\ccbih9yx.s:19361  .debug_str:0000000000003e7d .LASF1192
C:\Users\SOLDER~1\AppData\Local\Temp\ccbih9yx.s:29853  .debug_str:000000000002ea77 .LASF1193
C:\Users\SOLDER~1\AppData\Local\Temp\ccbih9yx.s:24887  .debug_str:000000000001a680 .LASF1194
C:\Users\SOLDER~1\AppData\Local\Temp\ccbih9yx.s:20119  .debug_str:0000000000006f1e .LASF1195
C:\Users\SOLDER~1\AppData\Local\Temp\ccbih9yx.s:25579  .debug_str:000000000001d433 .LASF1196
C:\Users\SOLDER~1\AppData\Local\Temp\ccbih9yx.s:29107  .debug_str:000000000002ba2e .LASF1197
C:\Users\SOLDER~1\AppData\Local\Temp\ccbih9yx.s:23667  .debug_str:0000000000015825 .LASF1198
C:\Users\SOLDER~1\AppData\Local\Temp\ccbih9yx.s:20733  .debug_str:000000000000970a .LASF1199
GAS LISTING C:\Users\SOLDER~1\AppData\Local\Temp\ccbih9yx.s 			page 32


C:\Users\SOLDER~1\AppData\Local\Temp\ccbih9yx.s:26119  .debug_str:000000000001f774 .LASF1200
C:\Users\SOLDER~1\AppData\Local\Temp\ccbih9yx.s:29643  .debug_str:000000000002dd1c .LASF1201
C:\Users\SOLDER~1\AppData\Local\Temp\ccbih9yx.s:24299  .debug_str:00000000000180b6 .LASF1202
C:\Users\SOLDER~1\AppData\Local\Temp\ccbih9yx.s:19685  .debug_str:0000000000005274 .LASF1203
C:\Users\SOLDER~1\AppData\Local\Temp\ccbih9yx.s:18927  .debug_str:0000000000002259 .LASF1204
C:\Users\SOLDER~1\AppData\Local\Temp\ccbih9yx.s:23057  .debug_str:0000000000012ef4 .LASF1205
C:\Users\SOLDER~1\AppData\Local\Temp\ccbih9yx.s:26835  .debug_str:000000000002253b .LASF1206
C:\Users\SOLDER~1\AppData\Local\Temp\ccbih9yx.s:29555  .debug_str:000000000002d77a .LASF1207
C:\Users\SOLDER~1\AppData\Local\Temp\ccbih9yx.s:28515  .debug_str:00000000000293f5 .LASF1208
C:\Users\SOLDER~1\AppData\Local\Temp\ccbih9yx.s:29057  .debug_str:000000000002b72c .LASF1209
C:\Users\SOLDER~1\AppData\Local\Temp\ccbih9yx.s:27873  .debug_str:0000000000026a5e .LASF1210
C:\Users\SOLDER~1\AppData\Local\Temp\ccbih9yx.s:21853  .debug_str:000000000000e12c .LASF1211
C:\Users\SOLDER~1\AppData\Local\Temp\ccbih9yx.s:25287  .debug_str:000000000001c02c .LASF1212
C:\Users\SOLDER~1\AppData\Local\Temp\ccbih9yx.s:19919  .debug_str:00000000000061b9 .LASF1213
C:\Users\SOLDER~1\AppData\Local\Temp\ccbih9yx.s:28925  .debug_str:000000000002ae67 .LASF1214
C:\Users\SOLDER~1\AppData\Local\Temp\ccbih9yx.s:19773  .debug_str:0000000000005828 .LASF1215
C:\Users\SOLDER~1\AppData\Local\Temp\ccbih9yx.s:25899  .debug_str:000000000001e8bf .LASF1216
C:\Users\SOLDER~1\AppData\Local\Temp\ccbih9yx.s:20543  .debug_str:0000000000008a69 .LASF1217
C:\Users\SOLDER~1\AppData\Local\Temp\ccbih9yx.s:19149  .debug_str:00000000000030c5 .LASF1218
C:\Users\SOLDER~1\AppData\Local\Temp\ccbih9yx.s:27123  .debug_str:0000000000023859 .LASF1219
C:\Users\SOLDER~1\AppData\Local\Temp\ccbih9yx.s:26841  .debug_str:000000000002259b .LASF1220
C:\Users\SOLDER~1\AppData\Local\Temp\ccbih9yx.s:26295  .debug_str:0000000000020285 .LASF1221
C:\Users\SOLDER~1\AppData\Local\Temp\ccbih9yx.s:22953  .debug_str:00000000000127f4 .LASF1222
C:\Users\SOLDER~1\AppData\Local\Temp\ccbih9yx.s:19771  .debug_str:0000000000005805 .LASF1223
C:\Users\SOLDER~1\AppData\Local\Temp\ccbih9yx.s:21203  .debug_str:000000000000b5dc .LASF1224
C:\Users\SOLDER~1\AppData\Local\Temp\ccbih9yx.s:24585  .debug_str:0000000000019362 .LASF1225
C:\Users\SOLDER~1\AppData\Local\Temp\ccbih9yx.s:22113  .debug_str:000000000000f1b9 .LASF1226
C:\Users\SOLDER~1\AppData\Local\Temp\ccbih9yx.s:27259  .debug_str:0000000000024112 .LASF1227
C:\Users\SOLDER~1\AppData\Local\Temp\ccbih9yx.s:21075  .debug_str:000000000000adc1 .LASF1228
C:\Users\SOLDER~1\AppData\Local\Temp\ccbih9yx.s:22155  .debug_str:000000000000f465 .LASF1229
C:\Users\SOLDER~1\AppData\Local\Temp\ccbih9yx.s:25455  .debug_str:000000000001cbc0 .LASF1230
C:\Users\SOLDER~1\AppData\Local\Temp\ccbih9yx.s:23139  .debug_str:0000000000013455 .LASF1231
C:\Users\SOLDER~1\AppData\Local\Temp\ccbih9yx.s:24279  .debug_str:0000000000017f59 .LASF1232
C:\Users\SOLDER~1\AppData\Local\Temp\ccbih9yx.s:22477  .debug_str:0000000000010997 .LASF1233
C:\Users\SOLDER~1\AppData\Local\Temp\ccbih9yx.s:20067  .debug_str:0000000000006b7d .LASF1234
C:\Users\SOLDER~1\AppData\Local\Temp\ccbih9yx.s:23191  .debug_str:00000000000137ea .LASF1235
C:\Users\SOLDER~1\AppData\Local\Temp\ccbih9yx.s:19703  .debug_str:000000000000538d .LASF1236
C:\Users\SOLDER~1\AppData\Local\Temp\ccbih9yx.s:27845  .debug_str:0000000000026860 .LASF1237
C:\Users\SOLDER~1\AppData\Local\Temp\ccbih9yx.s:24725  .debug_str:0000000000019c52 .LASF1238
C:\Users\SOLDER~1\AppData\Local\Temp\ccbih9yx.s:21887  .debug_str:000000000000e371 .LASF1239
C:\Users\SOLDER~1\AppData\Local\Temp\ccbih9yx.s:29477  .debug_str:000000000002d28e .LASF1240
C:\Users\SOLDER~1\AppData\Local\Temp\ccbih9yx.s:27003  .debug_str:000000000002305c .LASF1241
C:\Users\SOLDER~1\AppData\Local\Temp\ccbih9yx.s:25693  .debug_str:000000000001db26 .LASF1242
C:\Users\SOLDER~1\AppData\Local\Temp\ccbih9yx.s:25915  .debug_str:000000000001e9e0 .LASF1243
C:\Users\SOLDER~1\AppData\Local\Temp\ccbih9yx.s:19131  .debug_str:0000000000002fb5 .LASF1244
C:\Users\SOLDER~1\AppData\Local\Temp\ccbih9yx.s:21839  .debug_str:000000000000e036 .LASF1245
C:\Users\SOLDER~1\AppData\Local\Temp\ccbih9yx.s:28361  .debug_str:0000000000028a19 .LASF1246
C:\Users\SOLDER~1\AppData\Local\Temp\ccbih9yx.s:27901  .debug_str:0000000000026c1b .LASF1247
C:\Users\SOLDER~1\AppData\Local\Temp\ccbih9yx.s:27681  .debug_str:0000000000025d24 .LASF1248
C:\Users\SOLDER~1\AppData\Local\Temp\ccbih9yx.s:27721  .debug_str:0000000000025fef .LASF1249
C:\Users\SOLDER~1\AppData\Local\Temp\ccbih9yx.s:21425  .debug_str:000000000000c4d5 .LASF1250
C:\Users\SOLDER~1\AppData\Local\Temp\ccbih9yx.s:29499  .debug_str:000000000002d3c6 .LASF1251
C:\Users\SOLDER~1\AppData\Local\Temp\ccbih9yx.s:26137  .debug_str:000000000001f884 .LASF1252
C:\Users\SOLDER~1\AppData\Local\Temp\ccbih9yx.s:22969  .debug_str:00000000000128ec .LASF1253
C:\Users\SOLDER~1\AppData\Local\Temp\ccbih9yx.s:24995  .debug_str:000000000001adc8 .LASF1254
C:\Users\SOLDER~1\AppData\Local\Temp\ccbih9yx.s:25675  .debug_str:000000000001d9f2 .LASF1255
C:\Users\SOLDER~1\AppData\Local\Temp\ccbih9yx.s:25303  .debug_str:000000000001c169 .LASF1256
GAS LISTING C:\Users\SOLDER~1\AppData\Local\Temp\ccbih9yx.s 			page 33


C:\Users\SOLDER~1\AppData\Local\Temp\ccbih9yx.s:24005  .debug_str:0000000000016d11 .LASF1257
C:\Users\SOLDER~1\AppData\Local\Temp\ccbih9yx.s:24311  .debug_str:0000000000018187 .LASF1258
C:\Users\SOLDER~1\AppData\Local\Temp\ccbih9yx.s:28905  .debug_str:000000000002ad1a .LASF1259
C:\Users\SOLDER~1\AppData\Local\Temp\ccbih9yx.s:21225  .debug_str:000000000000b742 .LASF1260
C:\Users\SOLDER~1\AppData\Local\Temp\ccbih9yx.s:27731  .debug_str:00000000000260a0 .LASF1261
C:\Users\SOLDER~1\AppData\Local\Temp\ccbih9yx.s:28859  .debug_str:000000000002aa43 .LASF1262
C:\Users\SOLDER~1\AppData\Local\Temp\ccbih9yx.s:26977  .debug_str:0000000000022ea3 .LASF1263
C:\Users\SOLDER~1\AppData\Local\Temp\ccbih9yx.s:24793  .debug_str:000000000001a095 .LASF1264
C:\Users\SOLDER~1\AppData\Local\Temp\ccbih9yx.s:26941  .debug_str:0000000000022c76 .LASF1265
C:\Users\SOLDER~1\AppData\Local\Temp\ccbih9yx.s:23533  .debug_str:0000000000014f51 .LASF1266
C:\Users\SOLDER~1\AppData\Local\Temp\ccbih9yx.s:20173  .debug_str:00000000000072a0 .LASF1267
C:\Users\SOLDER~1\AppData\Local\Temp\ccbih9yx.s:28503  .debug_str:000000000002931b .LASF1268
C:\Users\SOLDER~1\AppData\Local\Temp\ccbih9yx.s:18999  .debug_str:0000000000002715 .LASF1269
C:\Users\SOLDER~1\AppData\Local\Temp\ccbih9yx.s:21753  .debug_str:000000000000da2a .LASF1270
C:\Users\SOLDER~1\AppData\Local\Temp\ccbih9yx.s:19321  .debug_str:0000000000003bdf .LASF1271
C:\Users\SOLDER~1\AppData\Local\Temp\ccbih9yx.s:27291  .debug_str:0000000000024336 .LASF1272
C:\Users\SOLDER~1\AppData\Local\Temp\ccbih9yx.s:29819  .debug_str:000000000002e854 .LASF1273
C:\Users\SOLDER~1\AppData\Local\Temp\ccbih9yx.s:23029  .debug_str:0000000000012d2c .LASF1274
C:\Users\SOLDER~1\AppData\Local\Temp\ccbih9yx.s:24867  .debug_str:000000000001a52e .LASF1275
C:\Users\SOLDER~1\AppData\Local\Temp\ccbih9yx.s:19939  .debug_str:0000000000006309 .LASF1276
C:\Users\SOLDER~1\AppData\Local\Temp\ccbih9yx.s:21043  .debug_str:000000000000ab8d .LASF1277
C:\Users\SOLDER~1\AppData\Local\Temp\ccbih9yx.s:19273  .debug_str:00000000000038bc .LASF1278
C:\Users\SOLDER~1\AppData\Local\Temp\ccbih9yx.s:18803  .debug_str:0000000000001a3d .LASF1279
C:\Users\SOLDER~1\AppData\Local\Temp\ccbih9yx.s:20197  .debug_str:000000000000741e .LASF1280
C:\Users\SOLDER~1\AppData\Local\Temp\ccbih9yx.s:19395  .debug_str:0000000000004043 .LASF1281
C:\Users\SOLDER~1\AppData\Local\Temp\ccbih9yx.s:22715  .debug_str:00000000000118f6 .LASF1282
C:\Users\SOLDER~1\AppData\Local\Temp\ccbih9yx.s:28761  .debug_str:000000000002a40e .LASF1283
C:\Users\SOLDER~1\AppData\Local\Temp\ccbih9yx.s:23951  .debug_str:00000000000169f8 .LASF1284
C:\Users\SOLDER~1\AppData\Local\Temp\ccbih9yx.s:21785  .debug_str:000000000000dc57 .LASF1285
C:\Users\SOLDER~1\AppData\Local\Temp\ccbih9yx.s:18439  .debug_str:0000000000000218 .LASF1286
C:\Users\SOLDER~1\AppData\Local\Temp\ccbih9yx.s:23193  .debug_str:000000000001380d .LASF1287
C:\Users\SOLDER~1\AppData\Local\Temp\ccbih9yx.s:19343  .debug_str:0000000000003d41 .LASF1288
C:\Users\SOLDER~1\AppData\Local\Temp\ccbih9yx.s:29135  .debug_str:000000000002bc03 .LASF1289
C:\Users\SOLDER~1\AppData\Local\Temp\ccbih9yx.s:22097  .debug_str:000000000000f0ac .LASF1290
C:\Users\SOLDER~1\AppData\Local\Temp\ccbih9yx.s:21149  .debug_str:000000000000b24a .LASF1291
C:\Users\SOLDER~1\AppData\Local\Temp\ccbih9yx.s:28755  .debug_str:000000000002a3ab .LASF1292
C:\Users\SOLDER~1\AppData\Local\Temp\ccbih9yx.s:26681  .debug_str:0000000000021ba1 .LASF1293
C:\Users\SOLDER~1\AppData\Local\Temp\ccbih9yx.s:28187  .debug_str:0000000000027ec1 .LASF1294
C:\Users\SOLDER~1\AppData\Local\Temp\ccbih9yx.s:23585  .debug_str:00000000000152a2 .LASF1295
C:\Users\SOLDER~1\AppData\Local\Temp\ccbih9yx.s:21495  .debug_str:000000000000c9a5 .LASF1296
C:\Users\SOLDER~1\AppData\Local\Temp\ccbih9yx.s:29617  .debug_str:000000000002db68 .LASF1297
C:\Users\SOLDER~1\AppData\Local\Temp\ccbih9yx.s:20371  .debug_str:0000000000007f4d .LASF1298
C:\Users\SOLDER~1\AppData\Local\Temp\ccbih9yx.s:21761  .debug_str:000000000000dab0 .LASF1299
C:\Users\SOLDER~1\AppData\Local\Temp\ccbih9yx.s:29011  .debug_str:000000000002b434 .LASF1300
C:\Users\SOLDER~1\AppData\Local\Temp\ccbih9yx.s:23519  .debug_str:0000000000014e79 .LASF1301
C:\Users\SOLDER~1\AppData\Local\Temp\ccbih9yx.s:21601  .debug_str:000000000000d073 .LASF1302
C:\Users\SOLDER~1\AppData\Local\Temp\ccbih9yx.s:26987  .debug_str:0000000000022f4c .LASF1303
C:\Users\SOLDER~1\AppData\Local\Temp\ccbih9yx.s:24619  .debug_str:00000000000195c2 .LASF1304
C:\Users\SOLDER~1\AppData\Local\Temp\ccbih9yx.s:25343  .debug_str:000000000001c431 .LASF1305
C:\Users\SOLDER~1\AppData\Local\Temp\ccbih9yx.s:20835  .debug_str:0000000000009da0 .LASF1306
C:\Users\SOLDER~1\AppData\Local\Temp\ccbih9yx.s:29179  .debug_str:000000000002bf2b .LASF1307
C:\Users\SOLDER~1\AppData\Local\Temp\ccbih9yx.s:28261  .debug_str:00000000000283aa .LASF1308
C:\Users\SOLDER~1\AppData\Local\Temp\ccbih9yx.s:23257  .debug_str:0000000000013cd3 .LASF1309
C:\Users\SOLDER~1\AppData\Local\Temp\ccbih9yx.s:24897  .debug_str:000000000001a732 .LASF1310
C:\Users\SOLDER~1\AppData\Local\Temp\ccbih9yx.s:23071  .debug_str:0000000000012fd9 .LASF1311
C:\Users\SOLDER~1\AppData\Local\Temp\ccbih9yx.s:29077  .debug_str:000000000002b87c .LASF1312
C:\Users\SOLDER~1\AppData\Local\Temp\ccbih9yx.s:23695  .debug_str:00000000000159fa .LASF1313
GAS LISTING C:\Users\SOLDER~1\AppData\Local\Temp\ccbih9yx.s 			page 34


C:\Users\SOLDER~1\AppData\Local\Temp\ccbih9yx.s:23953  .debug_str:0000000000016a1c .LASF1314
C:\Users\SOLDER~1\AppData\Local\Temp\ccbih9yx.s:29841  .debug_str:000000000002e9b4 .LASF1315
C:\Users\SOLDER~1\AppData\Local\Temp\ccbih9yx.s:19039  .debug_str:00000000000029d6 .LASF1316
C:\Users\SOLDER~1\AppData\Local\Temp\ccbih9yx.s:26067  .debug_str:000000000001f3e7 .LASF1317
C:\Users\SOLDER~1\AppData\Local\Temp\ccbih9yx.s:22683  .debug_str:00000000000116bc .LASF1318
C:\Users\SOLDER~1\AppData\Local\Temp\ccbih9yx.s:20925  .debug_str:000000000000a3a9 .LASF1319
C:\Users\SOLDER~1\AppData\Local\Temp\ccbih9yx.s:23633  .debug_str:00000000000155f1 .LASF1320
C:\Users\SOLDER~1\AppData\Local\Temp\ccbih9yx.s:25401  .debug_str:000000000001c80c .LASF1321
C:\Users\SOLDER~1\AppData\Local\Temp\ccbih9yx.s:29903  .debug_str:000000000002ed73 .LASF1322
C:\Users\SOLDER~1\AppData\Local\Temp\ccbih9yx.s:28845  .debug_str:000000000002a951 .LASF1323
C:\Users\SOLDER~1\AppData\Local\Temp\ccbih9yx.s:25047  .debug_str:000000000001b0d2 .LASF1324
C:\Users\SOLDER~1\AppData\Local\Temp\ccbih9yx.s:22985  .debug_str:0000000000012a1c .LASF1325
C:\Users\SOLDER~1\AppData\Local\Temp\ccbih9yx.s:24517  .debug_str:0000000000018ef1 .LASF1326
C:\Users\SOLDER~1\AppData\Local\Temp\ccbih9yx.s:19839  .debug_str:0000000000005c6d .LASF1327
C:\Users\SOLDER~1\AppData\Local\Temp\ccbih9yx.s:29295  .debug_str:000000000002c69c .LASF1328
C:\Users\SOLDER~1\AppData\Local\Temp\ccbih9yx.s:19333  .debug_str:0000000000003c9d .LASF1329
C:\Users\SOLDER~1\AppData\Local\Temp\ccbih9yx.s:28125  .debug_str:0000000000027a8c .LASF1330
C:\Users\SOLDER~1\AppData\Local\Temp\ccbih9yx.s:18599  .debug_str:0000000000000d82 .LASF1331
C:\Users\SOLDER~1\AppData\Local\Temp\ccbih9yx.s:28937  .debug_str:000000000002af73 .LASF1332
C:\Users\SOLDER~1\AppData\Local\Temp\ccbih9yx.s:27449  .debug_str:0000000000024db6 .LASF1333
C:\Users\SOLDER~1\AppData\Local\Temp\ccbih9yx.s:29399  .debug_str:000000000002cd1e .LASF1334
C:\Users\SOLDER~1\AppData\Local\Temp\ccbih9yx.s:23307  .debug_str:000000000001401a .LASF1335
C:\Users\SOLDER~1\AppData\Local\Temp\ccbih9yx.s:20859  .debug_str:0000000000009f33 .LASF1336
C:\Users\SOLDER~1\AppData\Local\Temp\ccbih9yx.s:21611  .debug_str:000000000000d128 .LASF1337
C:\Users\SOLDER~1\AppData\Local\Temp\ccbih9yx.s:28635  .debug_str:0000000000029ba7 .LASF1338
C:\Users\SOLDER~1\AppData\Local\Temp\ccbih9yx.s:25447  .debug_str:000000000001cb47 .LASF1339
C:\Users\SOLDER~1\AppData\Local\Temp\ccbih9yx.s:24579  .debug_str:00000000000192e9 .LASF1340
C:\Users\SOLDER~1\AppData\Local\Temp\ccbih9yx.s:19499  .debug_str:00000000000046e5 .LASF1341
C:\Users\SOLDER~1\AppData\Local\Temp\ccbih9yx.s:21145  .debug_str:000000000000b212 .LASF1342
C:\Users\SOLDER~1\AppData\Local\Temp\ccbih9yx.s:27287  .debug_str:00000000000242e4 .LASF1343
C:\Users\SOLDER~1\AppData\Local\Temp\ccbih9yx.s:21723  .debug_str:000000000000d871 .LASF1344
C:\Users\SOLDER~1\AppData\Local\Temp\ccbih9yx.s:27813  .debug_str:000000000002662b .LASF1345
C:\Users\SOLDER~1\AppData\Local\Temp\ccbih9yx.s:22637  .debug_str:00000000000113b9 .LASF1346
C:\Users\SOLDER~1\AppData\Local\Temp\ccbih9yx.s:26499  .debug_str:0000000000020fdc .LASF1347
C:\Users\SOLDER~1\AppData\Local\Temp\ccbih9yx.s:23323  .debug_str:0000000000014154 .LASF1348
C:\Users\SOLDER~1\AppData\Local\Temp\ccbih9yx.s:18819  .debug_str:0000000000001b45 .LASF1349
C:\Users\SOLDER~1\AppData\Local\Temp\ccbih9yx.s:26911  .debug_str:0000000000022a72 .LASF1350
C:\Users\SOLDER~1\AppData\Local\Temp\ccbih9yx.s:25123  .debug_str:000000000001b5c5 .LASF1351
C:\Users\SOLDER~1\AppData\Local\Temp\ccbih9yx.s:20999  .debug_str:000000000000a8bf .LASF1352
C:\Users\SOLDER~1\AppData\Local\Temp\ccbih9yx.s:21667  .debug_str:000000000000d4db .LASF1353
C:\Users\SOLDER~1\AppData\Local\Temp\ccbih9yx.s:26071  .debug_str:000000000001f432 .LASF1354
C:\Users\SOLDER~1\AppData\Local\Temp\ccbih9yx.s:25145  .debug_str:000000000001b715 .LASF1355
C:\Users\SOLDER~1\AppData\Local\Temp\ccbih9yx.s:21297  .debug_str:000000000000bc1f .LASF1356
C:\Users\SOLDER~1\AppData\Local\Temp\ccbih9yx.s:19255  .debug_str:000000000000378e .LASF1357
C:\Users\SOLDER~1\AppData\Local\Temp\ccbih9yx.s:20499  .debug_str:000000000000879c .LASF1358
C:\Users\SOLDER~1\AppData\Local\Temp\ccbih9yx.s:27511  .debug_str:0000000000025193 .LASF1359
C:\Users\SOLDER~1\AppData\Local\Temp\ccbih9yx.s:25555  .debug_str:000000000001d296 .LASF1360
C:\Users\SOLDER~1\AppData\Local\Temp\ccbih9yx.s:27085  .debug_str:00000000000235f4 .LASF1361
C:\Users\SOLDER~1\AppData\Local\Temp\ccbih9yx.s:24455  .debug_str:0000000000018ab1 .LASF1362
C:\Users\SOLDER~1\AppData\Local\Temp\ccbih9yx.s:26343  .debug_str:00000000000205b8 .LASF1363
C:\Users\SOLDER~1\AppData\Local\Temp\ccbih9yx.s:19781  .debug_str:00000000000058ae .LASF1364
C:\Users\SOLDER~1\AppData\Local\Temp\ccbih9yx.s:23687  .debug_str:000000000001597c .LASF1365
C:\Users\SOLDER~1\AppData\Local\Temp\ccbih9yx.s:25657  .debug_str:000000000001d8b8 .LASF1366
C:\Users\SOLDER~1\AppData\Local\Temp\ccbih9yx.s:23897  .debug_str:0000000000016685 .LASF1367
C:\Users\SOLDER~1\AppData\Local\Temp\ccbih9yx.s:28657  .debug_str:0000000000029d3f .LASF1368
C:\Users\SOLDER~1\AppData\Local\Temp\ccbih9yx.s:29409  .debug_str:000000000002cdd3 .LASF1369
C:\Users\SOLDER~1\AppData\Local\Temp\ccbih9yx.s:24923  .debug_str:000000000001a8df .LASF1370
GAS LISTING C:\Users\SOLDER~1\AppData\Local\Temp\ccbih9yx.s 			page 35


C:\Users\SOLDER~1\AppData\Local\Temp\ccbih9yx.s:21713  .debug_str:000000000000d7cc .LASF1371
C:\Users\SOLDER~1\AppData\Local\Temp\ccbih9yx.s:20813  .debug_str:0000000000009c0d .LASF1372
C:\Users\SOLDER~1\AppData\Local\Temp\ccbih9yx.s:27265  .debug_str:0000000000024186 .LASF1373
C:\Users\SOLDER~1\AppData\Local\Temp\ccbih9yx.s:28939  .debug_str:000000000002af98 .LASF1374
C:\Users\SOLDER~1\AppData\Local\Temp\ccbih9yx.s:19987  .debug_str:0000000000006635 .LASF1375
C:\Users\SOLDER~1\AppData\Local\Temp\ccbih9yx.s:23033  .debug_str:0000000000012d60 .LASF1376
C:\Users\SOLDER~1\AppData\Local\Temp\ccbih9yx.s:20599  .debug_str:0000000000008e43 .LASF1377
C:\Users\SOLDER~1\AppData\Local\Temp\ccbih9yx.s:25545  .debug_str:000000000001d1ef .LASF1378
C:\Users\SOLDER~1\AppData\Local\Temp\ccbih9yx.s:26819  .debug_str:0000000000022428 .LASF1379
C:\Users\SOLDER~1\AppData\Local\Temp\ccbih9yx.s:27535  .debug_str:0000000000025319 .LASF1380
C:\Users\SOLDER~1\AppData\Local\Temp\ccbih9yx.s:22989  .debug_str:0000000000012a58 .LASF1381
C:\Users\SOLDER~1\AppData\Local\Temp\ccbih9yx.s:19599  .debug_str:0000000000004d3a .LASF1382
C:\Users\SOLDER~1\AppData\Local\Temp\ccbih9yx.s:29383  .debug_str:000000000002cc09 .LASF1383
C:\Users\SOLDER~1\AppData\Local\Temp\ccbih9yx.s:20547  .debug_str:0000000000008aa7 .LASF1384
C:\Users\SOLDER~1\AppData\Local\Temp\ccbih9yx.s:29469  .debug_str:000000000002d1fd .LASF1385
C:\Users\SOLDER~1\AppData\Local\Temp\ccbih9yx.s:22359  .debug_str:00000000000101f3 .LASF1386
C:\Users\SOLDER~1\AppData\Local\Temp\ccbih9yx.s:28851  .debug_str:000000000002a9ad .LASF1387
C:\Users\SOLDER~1\AppData\Local\Temp\ccbih9yx.s:29091  .debug_str:000000000002b949 .LASF1388
C:\Users\SOLDER~1\AppData\Local\Temp\ccbih9yx.s:27011  .debug_str:00000000000230ef .LASF1389
C:\Users\SOLDER~1\AppData\Local\Temp\ccbih9yx.s:28535  .debug_str:000000000002954f .LASF1390
C:\Users\SOLDER~1\AppData\Local\Temp\ccbih9yx.s:23837  .debug_str:00000000000162f6 .LASF1391
C:\Users\SOLDER~1\AppData\Local\Temp\ccbih9yx.s:24161  .debug_str:000000000001777b .LASF1392
C:\Users\SOLDER~1\AppData\Local\Temp\ccbih9yx.s:23421  .debug_str:00000000000147e9 .LASF1393
C:\Users\SOLDER~1\AppData\Local\Temp\ccbih9yx.s:22455  .debug_str:0000000000010829 .LASF1394
C:\Users\SOLDER~1\AppData\Local\Temp\ccbih9yx.s:22649  .debug_str:00000000000114a0 .LASF1395
C:\Users\SOLDER~1\AppData\Local\Temp\ccbih9yx.s:27549  .debug_str:00000000000253dc .LASF1396
C:\Users\SOLDER~1\AppData\Local\Temp\ccbih9yx.s:19933  .debug_str:0000000000006293 .LASF1397
C:\Users\SOLDER~1\AppData\Local\Temp\ccbih9yx.s:21927  .debug_str:000000000000e5c3 .LASF1398
C:\Users\SOLDER~1\AppData\Local\Temp\ccbih9yx.s:27311  .debug_str:0000000000024485 .LASF1399
C:\Users\SOLDER~1\AppData\Local\Temp\ccbih9yx.s:24941  .debug_str:000000000001a9f8 .LASF1400
C:\Users\SOLDER~1\AppData\Local\Temp\ccbih9yx.s:25575  .debug_str:000000000001d3f6 .LASF1401
C:\Users\SOLDER~1\AppData\Local\Temp\ccbih9yx.s:21167  .debug_str:000000000000b3b3 .LASF1402
C:\Users\SOLDER~1\AppData\Local\Temp\ccbih9yx.s:27431  .debug_str:0000000000024c79 .LASF1403
C:\Users\SOLDER~1\AppData\Local\Temp\ccbih9yx.s:28611  .debug_str:00000000000299fc .LASF1404
C:\Users\SOLDER~1\AppData\Local\Temp\ccbih9yx.s:23581  .debug_str:000000000001525e .LASF1405
C:\Users\SOLDER~1\AppData\Local\Temp\ccbih9yx.s:25221  .debug_str:000000000001bbd1 .LASF1406
C:\Users\SOLDER~1\AppData\Local\Temp\ccbih9yx.s:24293  .debug_str:000000000001805c .LASF1407
C:\Users\SOLDER~1\AppData\Local\Temp\ccbih9yx.s:25957  .debug_str:000000000001ec87 .LASF1408
C:\Users\SOLDER~1\AppData\Local\Temp\ccbih9yx.s:24869  .debug_str:000000000001a550 .LASF1409
C:\Users\SOLDER~1\AppData\Local\Temp\ccbih9yx.s:19631  .debug_str:0000000000004f15 .LASF1410
C:\Users\SOLDER~1\AppData\Local\Temp\ccbih9yx.s:19501  .debug_str:000000000000470a .LASF1411
C:\Users\SOLDER~1\AppData\Local\Temp\ccbih9yx.s:20235  .debug_str:000000000000767c .LASF1412
C:\Users\SOLDER~1\AppData\Local\Temp\ccbih9yx.s:27219  .debug_str:0000000000023e69 .LASF1413
C:\Users\SOLDER~1\AppData\Local\Temp\ccbih9yx.s:23905  .debug_str:00000000000166f4 .LASF1414
C:\Users\SOLDER~1\AppData\Local\Temp\ccbih9yx.s:22121  .debug_str:000000000000f238 .LASF1415
C:\Users\SOLDER~1\AppData\Local\Temp\ccbih9yx.s:24831  .debug_str:000000000001a2d1 .LASF1416
C:\Users\SOLDER~1\AppData\Local\Temp\ccbih9yx.s:25633  .debug_str:000000000001d775 .LASF1417
C:\Users\SOLDER~1\AppData\Local\Temp\ccbih9yx.s:21485  .debug_str:000000000000c8e6 .LASF1418
C:\Users\SOLDER~1\AppData\Local\Temp\ccbih9yx.s:29183  .debug_str:000000000002bf72 .LASF1419
C:\Users\SOLDER~1\AppData\Local\Temp\ccbih9yx.s:25361  .debug_str:000000000001c547 .LASF1420
C:\Users\SOLDER~1\AppData\Local\Temp\ccbih9yx.s:18585  .debug_str:0000000000000c75 .LASF1421
C:\Users\SOLDER~1\AppData\Local\Temp\ccbih9yx.s:24835  .debug_str:000000000001a31e .LASF1422
C:\Users\SOLDER~1\AppData\Local\Temp\ccbih9yx.s:20083  .debug_str:0000000000006c7b .LASF1423
C:\Users\SOLDER~1\AppData\Local\Temp\ccbih9yx.s:29635  .debug_str:000000000002dc85 .LASF1424
C:\Users\SOLDER~1\AppData\Local\Temp\ccbih9yx.s:19659  .debug_str:00000000000050c6 .LASF1425
C:\Users\SOLDER~1\AppData\Local\Temp\ccbih9yx.s:28467  .debug_str:00000000000290b5 .LASF1426
C:\Users\SOLDER~1\AppData\Local\Temp\ccbih9yx.s:18903  .debug_str:00000000000020b8 .LASF1427
GAS LISTING C:\Users\SOLDER~1\AppData\Local\Temp\ccbih9yx.s 			page 36


C:\Users\SOLDER~1\AppData\Local\Temp\ccbih9yx.s:23787  .debug_str:0000000000015feb .LASF1428
C:\Users\SOLDER~1\AppData\Local\Temp\ccbih9yx.s:27687  .debug_str:0000000000025d81 .LASF1429
C:\Users\SOLDER~1\AppData\Local\Temp\ccbih9yx.s:29741  .debug_str:000000000002e319 .LASF1430
C:\Users\SOLDER~1\AppData\Local\Temp\ccbih9yx.s:29825  .debug_str:000000000002e8ab .LASF1431
C:\Users\SOLDER~1\AppData\Local\Temp\ccbih9yx.s:21183  .debug_str:000000000000b4ad .LASF1432
C:\Users\SOLDER~1\AppData\Local\Temp\ccbih9yx.s:21849  .debug_str:000000000000e0e5 .LASF1433
C:\Users\SOLDER~1\AppData\Local\Temp\ccbih9yx.s:28957  .debug_str:000000000002b0dd .LASF1434
C:\Users\SOLDER~1\AppData\Local\Temp\ccbih9yx.s:25781  .debug_str:000000000001e105 .LASF1435
C:\Users\SOLDER~1\AppData\Local\Temp\ccbih9yx.s:20491  .debug_str:0000000000008711 .LASF1436
C:\Users\SOLDER~1\AppData\Local\Temp\ccbih9yx.s:19565  .debug_str:0000000000004b1e .LASF1437
C:\Users\SOLDER~1\AppData\Local\Temp\ccbih9yx.s:21471  .debug_str:000000000000c7d8 .LASF1438
C:\Users\SOLDER~1\AppData\Local\Temp\ccbih9yx.s:28511  .debug_str:00000000000293ac .LASF1439
C:\Users\SOLDER~1\AppData\Local\Temp\ccbih9yx.s:23015  .debug_str:0000000000012c29 .LASF1440
C:\Users\SOLDER~1\AppData\Local\Temp\ccbih9yx.s:29119  .debug_str:000000000002bb0b .LASF1441
C:\Users\SOLDER~1\AppData\Local\Temp\ccbih9yx.s:23839  .debug_str:000000000001631b .LASF1442
C:\Users\SOLDER~1\AppData\Local\Temp\ccbih9yx.s:23797  .debug_str:0000000000016080 .LASF1443
C:\Users\SOLDER~1\AppData\Local\Temp\ccbih9yx.s:26313  .debug_str:00000000000203aa .LASF1444
C:\Users\SOLDER~1\AppData\Local\Temp\ccbih9yx.s:20005  .debug_str:000000000000678b .LASF1445
C:\Users\SOLDER~1\AppData\Local\Temp\ccbih9yx.s:20185  .debug_str:0000000000007360 .LASF1446
C:\Users\SOLDER~1\AppData\Local\Temp\ccbih9yx.s:26365  .debug_str:0000000000020734 .LASF1447
C:\Users\SOLDER~1\AppData\Local\Temp\ccbih9yx.s:29071  .debug_str:000000000002b812 .LASF1448
C:\Users\SOLDER~1\AppData\Local\Temp\ccbih9yx.s:20503  .debug_str:00000000000087da .LASF1449
C:\Users\SOLDER~1\AppData\Local\Temp\ccbih9yx.s:26375  .debug_str:00000000000207d6 .LASF1450
C:\Users\SOLDER~1\AppData\Local\Temp\ccbih9yx.s:23321  .debug_str:000000000001412f .LASF1451
C:\Users\SOLDER~1\AppData\Local\Temp\ccbih9yx.s:21625  .debug_str:000000000000d211 .LASF1452
C:\Users\SOLDER~1\AppData\Local\Temp\ccbih9yx.s:19581  .debug_str:0000000000004c2c .LASF1453
C:\Users\SOLDER~1\AppData\Local\Temp\ccbih9yx.s:21073  .debug_str:000000000000ad9c .LASF1454
C:\Users\SOLDER~1\AppData\Local\Temp\ccbih9yx.s:27843  .debug_str:000000000002683b .LASF1455
C:\Users\SOLDER~1\AppData\Local\Temp\ccbih9yx.s:25889  .debug_str:000000000001e80d .LASF1456
C:\Users\SOLDER~1\AppData\Local\Temp\ccbih9yx.s:27421  .debug_str:0000000000024bd7 .LASF1457
C:\Users\SOLDER~1\AppData\Local\Temp\ccbih9yx.s:24679  .debug_str:000000000001995d .LASF1458
C:\Users\SOLDER~1\AppData\Local\Temp\ccbih9yx.s:26665  .debug_str:0000000000021abf .LASF1459
C:\Users\SOLDER~1\AppData\Local\Temp\ccbih9yx.s:19967  .debug_str:00000000000064d8 .LASF1460
C:\Users\SOLDER~1\AppData\Local\Temp\ccbih9yx.s:24031  .debug_str:0000000000016edb .LASF1461
C:\Users\SOLDER~1\AppData\Local\Temp\ccbih9yx.s:23963  .debug_str:0000000000016acd .LASF1462
C:\Users\SOLDER~1\AppData\Local\Temp\ccbih9yx.s:19895  .debug_str:0000000000005ff1 .LASF1463
C:\Users\SOLDER~1\AppData\Local\Temp\ccbih9yx.s:28981  .debug_str:000000000002b250 .LASF1464
C:\Users\SOLDER~1\AppData\Local\Temp\ccbih9yx.s:29663  .debug_str:000000000002de40 .LASF1465
C:\Users\SOLDER~1\AppData\Local\Temp\ccbih9yx.s:25239  .debug_str:000000000001bd14 .LASF1466
C:\Users\SOLDER~1\AppData\Local\Temp\ccbih9yx.s:20043  .debug_str:0000000000006a0a .LASF1467
C:\Users\SOLDER~1\AppData\Local\Temp\ccbih9yx.s:21059  .debug_str:000000000000ac99 .LASF1468
C:\Users\SOLDER~1\AppData\Local\Temp\ccbih9yx.s:25617  .debug_str:000000000001d687 .LASF1469
C:\Users\SOLDER~1\AppData\Local\Temp\ccbih9yx.s:24237  .debug_str:0000000000017c66 .LASF1470
C:\Users\SOLDER~1\AppData\Local\Temp\ccbih9yx.s:21255  .debug_str:000000000000b94f .LASF1471
C:\Users\SOLDER~1\AppData\Local\Temp\ccbih9yx.s:27147  .debug_str:00000000000239ae .LASF1472
C:\Users\SOLDER~1\AppData\Local\Temp\ccbih9yx.s:21763  .debug_str:000000000000dad5 .LASF1473
C:\Users\SOLDER~1\AppData\Local\Temp\ccbih9yx.s:28051  .debug_str:00000000000275f4 .LASF1474
C:\Users\SOLDER~1\AppData\Local\Temp\ccbih9yx.s:28015  .debug_str:00000000000273b8 .LASF1475
C:\Users\SOLDER~1\AppData\Local\Temp\ccbih9yx.s:28743  .debug_str:000000000002a2ea .LASF1476
C:\Users\SOLDER~1\AppData\Local\Temp\ccbih9yx.s:24303  .debug_str:0000000000018104 .LASF1477
C:\Users\SOLDER~1\AppData\Local\Temp\ccbih9yx.s:20867  .debug_str:0000000000009fbe .LASF1478
C:\Users\SOLDER~1\AppData\Local\Temp\ccbih9yx.s:19049  .debug_str:0000000000002a6c .LASF1479
C:\Users\SOLDER~1\AppData\Local\Temp\ccbih9yx.s:21715  .debug_str:000000000000d7f1 .LASF1480
C:\Users\SOLDER~1\AppData\Local\Temp\ccbih9yx.s:29719  .debug_str:000000000002e1ba .LASF1481
C:\Users\SOLDER~1\AppData\Local\Temp\ccbih9yx.s:22675  .debug_str:0000000000011641 .LASF1482
C:\Users\SOLDER~1\AppData\Local\Temp\ccbih9yx.s:21719  .debug_str:000000000000d838 .LASF1483
C:\Users\SOLDER~1\AppData\Local\Temp\ccbih9yx.s:29419  .debug_str:000000000002ce8f .LASF1484
GAS LISTING C:\Users\SOLDER~1\AppData\Local\Temp\ccbih9yx.s 			page 37


C:\Users\SOLDER~1\AppData\Local\Temp\ccbih9yx.s:27339  .debug_str:000000000002466a .LASF1485
C:\Users\SOLDER~1\AppData\Local\Temp\ccbih9yx.s:28779  .debug_str:000000000002a54b .LASF1486
C:\Users\SOLDER~1\AppData\Local\Temp\ccbih9yx.s:24189  .debug_str:0000000000017953 .LASF1487
C:\Users\SOLDER~1\AppData\Local\Temp\ccbih9yx.s:21515  .debug_str:000000000000caf4 .LASF1488
C:\Users\SOLDER~1\AppData\Local\Temp\ccbih9yx.s:23753  .debug_str:0000000000015d8c .LASF1489
C:\Users\SOLDER~1\AppData\Local\Temp\ccbih9yx.s:20913  .debug_str:000000000000a2e1 .LASF1490
C:\Users\SOLDER~1\AppData\Local\Temp\ccbih9yx.s:19907  .debug_str:00000000000060ee .LASF1491
C:\Users\SOLDER~1\AppData\Local\Temp\ccbih9yx.s:27787  .debug_str:00000000000264a1 .LASF1492
C:\Users\SOLDER~1\AppData\Local\Temp\ccbih9yx.s:24909  .debug_str:000000000001a80b .LASF1493
C:\Users\SOLDER~1\AppData\Local\Temp\ccbih9yx.s:22277  .debug_str:000000000000fce4 .LASF1494
C:\Users\SOLDER~1\AppData\Local\Temp\ccbih9yx.s:27645  .debug_str:0000000000025a8d .LASF1495
C:\Users\SOLDER~1\AppData\Local\Temp\ccbih9yx.s:25259  .debug_str:000000000001be82 .LASF1496
C:\Users\SOLDER~1\AppData\Local\Temp\ccbih9yx.s:25919  .debug_str:000000000001ea1b .LASF1497
C:\Users\SOLDER~1\AppData\Local\Temp\ccbih9yx.s:21497  .debug_str:000000000000c9ca .LASF1498
C:\Users\SOLDER~1\AppData\Local\Temp\ccbih9yx.s:29765  .debug_str:000000000002e497 .LASF1499
C:\Users\SOLDER~1\AppData\Local\Temp\ccbih9yx.s:28837  .debug_str:000000000002a8b6 .LASF1500
C:\Users\SOLDER~1\AppData\Local\Temp\ccbih9yx.s:23931  .debug_str:00000000000168a8 .LASF1501
C:\Users\SOLDER~1\AppData\Local\Temp\ccbih9yx.s:19041  .debug_str:00000000000029fa .LASF1502
C:\Users\SOLDER~1\AppData\Local\Temp\ccbih9yx.s:25433  .debug_str:000000000001ca41 .LASF1503
C:\Users\SOLDER~1\AppData\Local\Temp\ccbih9yx.s:19931  .debug_str:000000000000626f .LASF1504
C:\Users\SOLDER~1\AppData\Local\Temp\ccbih9yx.s:26049  .debug_str:000000000001f2a4 .LASF1505
C:\Users\SOLDER~1\AppData\Local\Temp\ccbih9yx.s:20817  .debug_str:0000000000009c75 .LASF1506
C:\Users\SOLDER~1\AppData\Local\Temp\ccbih9yx.s:20783  .debug_str:0000000000009a3e .LASF1507
C:\Users\SOLDER~1\AppData\Local\Temp\ccbih9yx.s:21489  .debug_str:000000000000c93e .LASF1508
C:\Users\SOLDER~1\AppData\Local\Temp\ccbih9yx.s:28421  .debug_str:0000000000028dc3 .LASF1509
C:\Users\SOLDER~1\AppData\Local\Temp\ccbih9yx.s:25831  .debug_str:000000000001e40d .LASF1510
C:\Users\SOLDER~1\AppData\Local\Temp\ccbih9yx.s:23329  .debug_str:00000000000141cc .LASF1511
C:\Users\SOLDER~1\AppData\Local\Temp\ccbih9yx.s:25993  .debug_str:000000000001eecf .LASF1512
C:\Users\SOLDER~1\AppData\Local\Temp\ccbih9yx.s:25979  .debug_str:000000000001ede4 .LASF1513
C:\Users\SOLDER~1\AppData\Local\Temp\ccbih9yx.s:18909  .debug_str:000000000000212d .LASF1514
C:\Users\SOLDER~1\AppData\Local\Temp\ccbih9yx.s:29521  .debug_str:000000000002d525 .LASF1515
C:\Users\SOLDER~1\AppData\Local\Temp\ccbih9yx.s:25685  .debug_str:000000000001da91 .LASF1516
C:\Users\SOLDER~1\AppData\Local\Temp\ccbih9yx.s:26571  .debug_str:00000000000214a1 .LASF1517
C:\Users\SOLDER~1\AppData\Local\Temp\ccbih9yx.s:25063  .debug_str:000000000001b1e1 .LASF1518
C:\Users\SOLDER~1\AppData\Local\Temp\ccbih9yx.s:20419  .debug_str:0000000000008288 .LASF1519
C:\Users\SOLDER~1\AppData\Local\Temp\ccbih9yx.s:29873  .debug_str:000000000002eb97 .LASF1520
C:\Users\SOLDER~1\AppData\Local\Temp\ccbih9yx.s:27387  .debug_str:000000000002497c .LASF1521
C:\Users\SOLDER~1\AppData\Local\Temp\ccbih9yx.s:28707  .debug_str:000000000002a07f .LASF1522
C:\Users\SOLDER~1\AppData\Local\Temp\ccbih9yx.s:19153  .debug_str:0000000000003106 .LASF1523
C:\Users\SOLDER~1\AppData\Local\Temp\ccbih9yx.s:24139  .debug_str:000000000001761a .LASF1524
C:\Users\SOLDER~1\AppData\Local\Temp\ccbih9yx.s:28037  .debug_str:000000000002750d .LASF1525
C:\Users\SOLDER~1\AppData\Local\Temp\ccbih9yx.s:18475  .debug_str:000000000000048d .LASF1526
C:\Users\SOLDER~1\AppData\Local\Temp\ccbih9yx.s:23987  .debug_str:0000000000016c13 .LASF1527
C:\Users\SOLDER~1\AppData\Local\Temp\ccbih9yx.s:21429  .debug_str:000000000000c511 .LASF1528
C:\Users\SOLDER~1\AppData\Local\Temp\ccbih9yx.s:22195  .debug_str:000000000000f6ff .LASF1529
C:\Users\SOLDER~1\AppData\Local\Temp\ccbih9yx.s:20393  .debug_str:00000000000080e8 .LASF1530
C:\Users\SOLDER~1\AppData\Local\Temp\ccbih9yx.s:26931  .debug_str:0000000000022bc2 .LASF1531
C:\Users\SOLDER~1\AppData\Local\Temp\ccbih9yx.s:25133  .debug_str:000000000001b659 .LASF1532
C:\Users\SOLDER~1\AppData\Local\Temp\ccbih9yx.s:19963  .debug_str:0000000000006490 .LASF1533
C:\Users\SOLDER~1\AppData\Local\Temp\ccbih9yx.s:21801  .debug_str:000000000000dd68 .LASF1534
C:\Users\SOLDER~1\AppData\Local\Temp\ccbih9yx.s:29711  .debug_str:000000000002e12d .LASF1535
C:\Users\SOLDER~1\AppData\Local\Temp\ccbih9yx.s:24247  .debug_str:0000000000017d0d .LASF1536
C:\Users\SOLDER~1\AppData\Local\Temp\ccbih9yx.s:18797  .debug_str:00000000000019d9 .LASF1537
C:\Users\SOLDER~1\AppData\Local\Temp\ccbih9yx.s:25101  .debug_str:000000000001b466 .LASF1538
C:\Users\SOLDER~1\AppData\Local\Temp\ccbih9yx.s:24971  .debug_str:000000000001ac02 .LASF1539
C:\Users\SOLDER~1\AppData\Local\Temp\ccbih9yx.s:25663  .debug_str:000000000001d928 .LASF1540
C:\Users\SOLDER~1\AppData\Local\Temp\ccbih9yx.s:21175  .debug_str:000000000000b43c .LASF1541
GAS LISTING C:\Users\SOLDER~1\AppData\Local\Temp\ccbih9yx.s 			page 38


C:\Users\SOLDER~1\AppData\Local\Temp\ccbih9yx.s:29325  .debug_str:000000000002c872 .LASF1542
C:\Users\SOLDER~1\AppData\Local\Temp\ccbih9yx.s:27471  .debug_str:0000000000024f17 .LASF1543
C:\Users\SOLDER~1\AppData\Local\Temp\ccbih9yx.s:18749  .debug_str:00000000000016e8 .LASF1544
C:\Users\SOLDER~1\AppData\Local\Temp\ccbih9yx.s:22257  .debug_str:000000000000fb88 .LASF1545
C:\Users\SOLDER~1\AppData\Local\Temp\ccbih9yx.s:26699  .debug_str:0000000000021cdb .LASF1546
C:\Users\SOLDER~1\AppData\Local\Temp\ccbih9yx.s:25785  .debug_str:000000000001e150 .LASF1547
C:\Users\SOLDER~1\AppData\Local\Temp\ccbih9yx.s:21953  .debug_str:000000000000e7bf .LASF1548
C:\Users\SOLDER~1\AppData\Local\Temp\ccbih9yx.s:29577  .debug_str:000000000002d8c2 .LASF1549
C:\Users\SOLDER~1\AppData\Local\Temp\ccbih9yx.s:20323  .debug_str:0000000000007bfe .LASF1550
C:\Users\SOLDER~1\AppData\Local\Temp\ccbih9yx.s:28177  .debug_str:0000000000027e16 .LASF1551
C:\Users\SOLDER~1\AppData\Local\Temp\ccbih9yx.s:26555  .debug_str:000000000002138b .LASF1552
C:\Users\SOLDER~1\AppData\Local\Temp\ccbih9yx.s:27751  .debug_str:0000000000026218 .LASF1553
C:\Users\SOLDER~1\AppData\Local\Temp\ccbih9yx.s:25001  .debug_str:000000000001ae23 .LASF1554
C:\Users\SOLDER~1\AppData\Local\Temp\ccbih9yx.s:26901  .debug_str:00000000000229aa .LASF1555
C:\Users\SOLDER~1\AppData\Local\Temp\ccbih9yx.s:20375  .debug_str:0000000000007f98 .LASF1556
C:\Users\SOLDER~1\AppData\Local\Temp\ccbih9yx.s:24365  .debug_str:00000000000184c4 .LASF1557
C:\Users\SOLDER~1\AppData\Local\Temp\ccbih9yx.s:26235  .debug_str:000000000001fe9d .LASF1558
C:\Users\SOLDER~1\AppData\Local\Temp\ccbih9yx.s:20231  .debug_str:0000000000007640 .LASF1559
C:\Users\SOLDER~1\AppData\Local\Temp\ccbih9yx.s:29231  .debug_str:000000000002c292 .LASF1560
C:\Users\SOLDER~1\AppData\Local\Temp\ccbih9yx.s:18483  .debug_str:000000000000050d .LASF1561
C:\Users\SOLDER~1\AppData\Local\Temp\ccbih9yx.s:25469  .debug_str:000000000001ccb5 .LASF1562
C:\Users\SOLDER~1\AppData\Local\Temp\ccbih9yx.s:22309  .debug_str:000000000000fefa .LASF1563
C:\Users\SOLDER~1\AppData\Local\Temp\ccbih9yx.s:21379  .debug_str:000000000000c169 .LASF1564
C:\Users\SOLDER~1\AppData\Local\Temp\ccbih9yx.s:27927  .debug_str:0000000000026de5 .LASF1565
C:\Users\SOLDER~1\AppData\Local\Temp\ccbih9yx.s:24147  .debug_str:0000000000017698 .LASF1566
C:\Users\SOLDER~1\AppData\Local\Temp\ccbih9yx.s:22465  .debug_str:00000000000108e1 .LASF1567
C:\Users\SOLDER~1\AppData\Local\Temp\ccbih9yx.s:28451  .debug_str:0000000000028f98 .LASF1568
C:\Users\SOLDER~1\AppData\Local\Temp\ccbih9yx.s:22963  .debug_str:0000000000012890 .LASF1569
C:\Users\SOLDER~1\AppData\Local\Temp\ccbih9yx.s:29261  .debug_str:000000000002c47c .LASF1570
C:\Users\SOLDER~1\AppData\Local\Temp\ccbih9yx.s:29229  .debug_str:000000000002c26e .LASF1571
C:\Users\SOLDER~1\AppData\Local\Temp\ccbih9yx.s:18445  .debug_str:0000000000000280 .LASF1572
C:\Users\SOLDER~1\AppData\Local\Temp\ccbih9yx.s:25445  .debug_str:000000000001cb23 .LASF1573
C:\Users\SOLDER~1\AppData\Local\Temp\ccbih9yx.s:22063  .debug_str:000000000000eea6 .LASF1574
C:\Users\SOLDER~1\AppData\Local\Temp\ccbih9yx.s:20335  .debug_str:0000000000007cf4 .LASF1575
C:\Users\SOLDER~1\AppData\Local\Temp\ccbih9yx.s:22915  .debug_str:00000000000125a4 .LASF1576
C:\Users\SOLDER~1\AppData\Local\Temp\ccbih9yx.s:18539  .debug_str:0000000000000957 .LASF1577
C:\Users\SOLDER~1\AppData\Local\Temp\ccbih9yx.s:23005  .debug_str:0000000000012b8b .LASF1578
C:\Users\SOLDER~1\AppData\Local\Temp\ccbih9yx.s:22053  .debug_str:000000000000edf9 .LASF1579
C:\Users\SOLDER~1\AppData\Local\Temp\ccbih9yx.s:29673  .debug_str:000000000002ded3 .LASF1580
C:\Users\SOLDER~1\AppData\Local\Temp\ccbih9yx.s:27591  .debug_str:00000000000256c1 .LASF1581
C:\Users\SOLDER~1\AppData\Local\Temp\ccbih9yx.s:29111  .debug_str:000000000002ba78 .LASF1582
C:\Users\SOLDER~1\AppData\Local\Temp\ccbih9yx.s:24507  .debug_str:0000000000018e42 .LASF1583
C:\Users\SOLDER~1\AppData\Local\Temp\ccbih9yx.s:22423  .debug_str:00000000000105f0 .LASF1584
C:\Users\SOLDER~1\AppData\Local\Temp\ccbih9yx.s:24003  .debug_str:0000000000016cec .LASF1585
C:\Users\SOLDER~1\AppData\Local\Temp\ccbih9yx.s:21253  .debug_str:000000000000b92a .LASF1586
C:\Users\SOLDER~1\AppData\Local\Temp\ccbih9yx.s:23235  .debug_str:0000000000013b62 .LASF1587
C:\Users\SOLDER~1\AppData\Local\Temp\ccbih9yx.s:28129  .debug_str:0000000000027acd .LASF1588
C:\Users\SOLDER~1\AppData\Local\Temp\ccbih9yx.s:20601  .debug_str:0000000000008e67 .LASF1589
C:\Users\SOLDER~1\AppData\Local\Temp\ccbih9yx.s:22527  .debug_str:0000000000010cb4 .LASF1590
C:\Users\SOLDER~1\AppData\Local\Temp\ccbih9yx.s:27889  .debug_str:0000000000026b79 .LASF1591
C:\Users\SOLDER~1\AppData\Local\Temp\ccbih9yx.s:25493  .debug_str:000000000001ce5b .LASF1592
C:\Users\SOLDER~1\AppData\Local\Temp\ccbih9yx.s:28143  .debug_str:0000000000027bce .LASF1593
C:\Users\SOLDER~1\AppData\Local\Temp\ccbih9yx.s:21739  .debug_str:000000000000d958 .LASF1594
C:\Users\SOLDER~1\AppData\Local\Temp\ccbih9yx.s:18589  .debug_str:0000000000000cbf .LASF1595
C:\Users\SOLDER~1\AppData\Local\Temp\ccbih9yx.s:29177  .debug_str:000000000002bf06 .LASF1596
C:\Users\SOLDER~1\AppData\Local\Temp\ccbih9yx.s:24185  .debug_str:000000000001790a .LASF1597
C:\Users\SOLDER~1\AppData\Local\Temp\ccbih9yx.s:27043  .debug_str:0000000000023323 .LASF1598
GAS LISTING C:\Users\SOLDER~1\AppData\Local\Temp\ccbih9yx.s 			page 39


C:\Users\SOLDER~1\AppData\Local\Temp\ccbih9yx.s:29309  .debug_str:000000000002c762 .LASF1599
C:\Users\SOLDER~1\AppData\Local\Temp\ccbih9yx.s:23827  .debug_str:000000000001625c .LASF1600
C:\Users\SOLDER~1\AppData\Local\Temp\ccbih9yx.s:18417  .debug_str:00000000000000e7 .LASF1601
C:\Users\SOLDER~1\AppData\Local\Temp\ccbih9yx.s:24625  .debug_str:0000000000019634 .LASF1602
C:\Users\SOLDER~1\AppData\Local\Temp\ccbih9yx.s:24591  .debug_str:00000000000193cf .LASF1603
C:\Users\SOLDER~1\AppData\Local\Temp\ccbih9yx.s:25281  .debug_str:000000000001bfd3 .LASF1604
C:\Users\SOLDER~1\AppData\Local\Temp\ccbih9yx.s:20789  .debug_str:0000000000009a9d .LASF1605
C:\Users\SOLDER~1\AppData\Local\Temp\ccbih9yx.s:28919  .debug_str:000000000002ae06 .LASF1606
C:\Users\SOLDER~1\AppData\Local\Temp\ccbih9yx.s:27143  .debug_str:0000000000023971 .LASF1607
C:\Users\SOLDER~1\AppData\Local\Temp\ccbih9yx.s:29781  .debug_str:000000000002e5b7 .LASF1608
C:\Users\SOLDER~1\AppData\Local\Temp\ccbih9yx.s:23311  .debug_str:0000000000014060 .LASF1609
C:\Users\SOLDER~1\AppData\Local\Temp\ccbih9yx.s:21835  .debug_str:000000000000dfd6 .LASF1610
C:\Users\SOLDER~1\AppData\Local\Temp\ccbih9yx.s:26109  .debug_str:000000000001f6c1 .LASF1611
C:\Users\SOLDER~1\AppData\Local\Temp\ccbih9yx.s:19091  .debug_str:0000000000002cf0 .LASF1612
C:\Users\SOLDER~1\AppData\Local\Temp\ccbih9yx.s:26447  .debug_str:0000000000020c71 .LASF1613
C:\Users\SOLDER~1\AppData\Local\Temp\ccbih9yx.s:27935  .debug_str:0000000000026e6b .LASF1614
C:\Users\SOLDER~1\AppData\Local\Temp\ccbih9yx.s:23341  .debug_str:00000000000142a0 .LASF1615
C:\Users\SOLDER~1\AppData\Local\Temp\ccbih9yx.s:20455  .debug_str:00000000000084d5 .LASF1616
C:\Users\SOLDER~1\AppData\Local\Temp\ccbih9yx.s:22825  .debug_str:0000000000011fd9 .LASF1617
C:\Users\SOLDER~1\AppData\Local\Temp\ccbih9yx.s:20115  .debug_str:0000000000006ec5 .LASF1618
C:\Users\SOLDER~1\AppData\Local\Temp\ccbih9yx.s:22049  .debug_str:000000000000edae .LASF1619
C:\Users\SOLDER~1\AppData\Local\Temp\ccbih9yx.s:26973  .debug_str:0000000000022e6b .LASF1620
C:\Users\SOLDER~1\AppData\Local\Temp\ccbih9yx.s:19435  .debug_str:00000000000042cf .LASF1621
C:\Users\SOLDER~1\AppData\Local\Temp\ccbih9yx.s:21347  .debug_str:000000000000bf2b .LASF1622
C:\Users\SOLDER~1\AppData\Local\Temp\ccbih9yx.s:26735  .debug_str:0000000000021f0b .LASF1623
C:\Users\SOLDER~1\AppData\Local\Temp\ccbih9yx.s:24391  .debug_str:0000000000018689 .LASF1624
C:\Users\SOLDER~1\AppData\Local\Temp\ccbih9yx.s:25115  .debug_str:000000000001b53c .LASF1625
C:\Users\SOLDER~1\AppData\Local\Temp\ccbih9yx.s:20607  .debug_str:0000000000008ecc .LASF1626
C:\Users\SOLDER~1\AppData\Local\Temp\ccbih9yx.s:28929  .debug_str:000000000002aeb0 .LASF1627
C:\Users\SOLDER~1\AppData\Local\Temp\ccbih9yx.s:28009  .debug_str:000000000002735c .LASF1628
C:\Users\SOLDER~1\AppData\Local\Temp\ccbih9yx.s:20569  .debug_str:0000000000008c11 .LASF1629
C:\Users\SOLDER~1\AppData\Local\Temp\ccbih9yx.s:24657  .debug_str:00000000000197dc .LASF1630
C:\Users\SOLDER~1\AppData\Local\Temp\ccbih9yx.s:22045  .debug_str:000000000000ed68 .LASF1631
C:\Users\SOLDER~1\AppData\Local\Temp\ccbih9yx.s:27953  .debug_str:0000000000026f8c .LASF1632
C:\Users\SOLDER~1\AppData\Local\Temp\ccbih9yx.s:22589  .debug_str:0000000000011099 .LASF1633
C:\Users\SOLDER~1\AppData\Local\Temp\ccbih9yx.s:28855  .debug_str:000000000002a9fa .LASF1634
C:\Users\SOLDER~1\AppData\Local\Temp\ccbih9yx.s:27229  .debug_str:0000000000023f17 .LASF1635
C:\Users\SOLDER~1\AppData\Local\Temp\ccbih9yx.s:29547  .debug_str:000000000002d6f8 .LASF1636
C:\Users\SOLDER~1\AppData\Local\Temp\ccbih9yx.s:25069  .debug_str:000000000001b23f .LASF1637
C:\Users\SOLDER~1\AppData\Local\Temp\ccbih9yx.s:21659  .debug_str:000000000000d455 .LASF1638
C:\Users\SOLDER~1\AppData\Local\Temp\ccbih9yx.s:19835  .debug_str:0000000000005c20 .LASF1639
C:\Users\SOLDER~1\AppData\Local\Temp\ccbih9yx.s:22533  .debug_str:0000000000010d14 .LASF1640
C:\Users\SOLDER~1\AppData\Local\Temp\ccbih9yx.s:25177  .debug_str:000000000001b8fb .LASF1641
C:\Users\SOLDER~1\AppData\Local\Temp\ccbih9yx.s:29651  .debug_str:000000000002dd8d .LASF1642
C:\Users\SOLDER~1\AppData\Local\Temp\ccbih9yx.s:28613  .debug_str:0000000000029a21 .LASF1643
C:\Users\SOLDER~1\AppData\Local\Temp\ccbih9yx.s:24807  .debug_str:000000000001a15f .LASF1644
C:\Users\SOLDER~1\AppData\Local\Temp\ccbih9yx.s:22733  .debug_str:00000000000119fb .LASF1645
C:\Users\SOLDER~1\AppData\Local\Temp\ccbih9yx.s:24281  .debug_str:0000000000017f7d .LASF1646
C:\Users\SOLDER~1\AppData\Local\Temp\ccbih9yx.s:19587  .debug_str:0000000000004c90 .LASF1647
C:\Users\SOLDER~1\AppData\Local\Temp\ccbih9yx.s:23443  .debug_str:000000000001498f .LASF1648
C:\Users\SOLDER~1\AppData\Local\Temp\ccbih9yx.s:19087  .debug_str:0000000000002caf .LASF1649
C:\Users\SOLDER~1\AppData\Local\Temp\ccbih9yx.s:27871  .debug_str:0000000000026a38 .LASF1650
C:\Users\SOLDER~1\AppData\Local\Temp\ccbih9yx.s:29847  .debug_str:000000000002ea14 .LASF1651
C:\Users\SOLDER~1\AppData\Local\Temp\ccbih9yx.s:19199  .debug_str:0000000000003414 .LASF1652
C:\Users\SOLDER~1\AppData\Local\Temp\ccbih9yx.s:27199  .debug_str:0000000000023d0e .LASF1653
C:\Users\SOLDER~1\AppData\Local\Temp\ccbih9yx.s:29147  .debug_str:000000000002bcc5 .LASF1654
C:\Users\SOLDER~1\AppData\Local\Temp\ccbih9yx.s:23049  .debug_str:0000000000012e5b .LASF1655
GAS LISTING C:\Users\SOLDER~1\AppData\Local\Temp\ccbih9yx.s 			page 40


C:\Users\SOLDER~1\AppData\Local\Temp\ccbih9yx.s:20629  .debug_str:000000000000904e .LASF1656
C:\Users\SOLDER~1\AppData\Local\Temp\ccbih9yx.s:23353  .debug_str:0000000000014360 .LASF1657
C:\Users\SOLDER~1\AppData\Local\Temp\ccbih9yx.s:28367  .debug_str:0000000000028a63 .LASF1658
C:\Users\SOLDER~1\AppData\Local\Temp\ccbih9yx.s:25215  .debug_str:000000000001bb75 .LASF1659
C:\Users\SOLDER~1\AppData\Local\Temp\ccbih9yx.s:24337  .debug_str:0000000000018317 .LASF1660
C:\Users\SOLDER~1\AppData\Local\Temp\ccbih9yx.s:19259  .debug_str:00000000000037d3 .LASF1661
C:\Users\SOLDER~1\AppData\Local\Temp\ccbih9yx.s:20891  .debug_str:000000000000a177 .LASF1662
C:\Users\SOLDER~1\AppData\Local\Temp\ccbih9yx.s:26219  .debug_str:000000000001fd9d .LASF1663
C:\Users\SOLDER~1\AppData\Local\Temp\ccbih9yx.s:20729  .debug_str:00000000000096c0 .LASF1664
C:\Users\SOLDER~1\AppData\Local\Temp\ccbih9yx.s:26803  .debug_str:00000000000222fe .LASF1665
C:\Users\SOLDER~1\AppData\Local\Temp\ccbih9yx.s:21605  .debug_str:000000000000d0bd .LASF1666
C:\Users\SOLDER~1\AppData\Local\Temp\ccbih9yx.s:21565  .debug_str:000000000000ce20 .LASF1667
C:\Users\SOLDER~1\AppData\Local\Temp\ccbih9yx.s:22305  .debug_str:000000000000feb2 .LASF1668
C:\Users\SOLDER~1\AppData\Local\Temp\ccbih9yx.s:29235  .debug_str:000000000002c2e0 .LASF1669
C:\Users\SOLDER~1\AppData\Local\Temp\ccbih9yx.s:25841  .debug_str:000000000001e4bb .LASF1670
C:\Users\SOLDER~1\AppData\Local\Temp\ccbih9yx.s:24155  .debug_str:0000000000017733 .LASF1671
C:\Users\SOLDER~1\AppData\Local\Temp\ccbih9yx.s:26749  .debug_str:0000000000021fdc .LASF1672
C:\Users\SOLDER~1\AppData\Local\Temp\ccbih9yx.s:21419  .debug_str:000000000000c44c .LASF1673
C:\Users\SOLDER~1\AppData\Local\Temp\ccbih9yx.s:29051  .debug_str:000000000002b6c1 .LASF1674
C:\Users\SOLDER~1\AppData\Local\Temp\ccbih9yx.s:24893  .debug_str:000000000001a6f0 .LASF1675
C:\Users\SOLDER~1\AppData\Local\Temp\ccbih9yx.s:21055  .debug_str:000000000000ac4f .LASF1676
C:\Users\SOLDER~1\AppData\Local\Temp\ccbih9yx.s:19007  .debug_str:0000000000002795 .LASF1677
C:\Users\SOLDER~1\AppData\Local\Temp\ccbih9yx.s:20519  .debug_str:00000000000088c5 .LASF1678
C:\Users\SOLDER~1\AppData\Local\Temp\ccbih9yx.s:27263  .debug_str:0000000000024160 .LASF1679
C:\Users\SOLDER~1\AppData\Local\Temp\ccbih9yx.s:25315  .debug_str:000000000001c252 .LASF1680
C:\Users\SOLDER~1\AppData\Local\Temp\ccbih9yx.s:29339  .debug_str:000000000002c949 .LASF1681
C:\Users\SOLDER~1\AppData\Local\Temp\ccbih9yx.s:24217  .debug_str:0000000000017b14 .LASF1682
C:\Users\SOLDER~1\AppData\Local\Temp\ccbih9yx.s:26117  .debug_str:000000000001f74e .LASF1683
C:\Users\SOLDER~1\AppData\Local\Temp\ccbih9yx.s:19537  .debug_str:0000000000004952 .LASF1684
C:\Users\SOLDER~1\AppData\Local\Temp\ccbih9yx.s:23433  .debug_str:00000000000148ee .LASF1685
C:\Users\SOLDER~1\AppData\Local\Temp\ccbih9yx.s:25419  .debug_str:000000000001c937 .LASF1686
C:\Users\SOLDER~1\AppData\Local\Temp\ccbih9yx.s:19315  .debug_str:0000000000003b7e .LASF1687
C:\Users\SOLDER~1\AppData\Local\Temp\ccbih9yx.s:28389  .debug_str:0000000000028bad .LASF1688
C:\Users\SOLDER~1\AppData\Local\Temp\ccbih9yx.s:29161  .debug_str:000000000002bdd2 .LASF1689
C:\Users\SOLDER~1\AppData\Local\Temp\ccbih9yx.s:24681  .debug_str:0000000000019982 .LASF1690
C:\Users\SOLDER~1\AppData\Local\Temp\ccbih9yx.s:21465  .debug_str:000000000000c76d .LASF1691
C:\Users\SOLDER~1\AppData\Local\Temp\ccbih9yx.s:20579  .debug_str:0000000000008cd2 .LASF1692
C:\Users\SOLDER~1\AppData\Local\Temp\ccbih9yx.s:21959  .debug_str:000000000000e80d .LASF1693
C:\Users\SOLDER~1\AppData\Local\Temp\ccbih9yx.s:28691  .debug_str:0000000000029f53 .LASF1694
C:\Users\SOLDER~1\AppData\Local\Temp\ccbih9yx.s:25269  .debug_str:000000000001bf0a .LASF1695
C:\Users\SOLDER~1\AppData\Local\Temp\ccbih9yx.s:25003  .debug_str:000000000001ae48 .LASF1696
C:\Users\SOLDER~1\AppData\Local\Temp\ccbih9yx.s:19193  .debug_str:00000000000033a7 .LASF1697
C:\Users\SOLDER~1\AppData\Local\Temp\ccbih9yx.s:25871  .debug_str:000000000001e6e7 .LASF1698
C:\Users\SOLDER~1\AppData\Local\Temp\ccbih9yx.s:25745  .debug_str:000000000001dec3 .LASF1699
C:\Users\SOLDER~1\AppData\Local\Temp\ccbih9yx.s:26449  .debug_str:0000000000020c97 .LASF1700
C:\Users\SOLDER~1\AppData\Local\Temp\ccbih9yx.s:21969  .debug_str:000000000000e8b6 .LASF1701
C:\Users\SOLDER~1\AppData\Local\Temp\ccbih9yx.s:18617  .debug_str:0000000000000e91 .LASF1702
C:\Users\SOLDER~1\AppData\Local\Temp\ccbih9yx.s:28345  .debug_str:0000000000028932 .LASF1703
C:\Users\SOLDER~1\AppData\Local\Temp\ccbih9yx.s:19521  .debug_str:0000000000004869 .LASF1704
C:\Users\SOLDER~1\AppData\Local\Temp\ccbih9yx.s:29223  .debug_str:000000000002c21e .LASF1705
C:\Users\SOLDER~1\AppData\Local\Temp\ccbih9yx.s:22091  .debug_str:000000000000f04a .LASF1706
C:\Users\SOLDER~1\AppData\Local\Temp\ccbih9yx.s:21141  .debug_str:000000000000b1d1 .LASF1707
C:\Users\SOLDER~1\AppData\Local\Temp\ccbih9yx.s:28835  .debug_str:000000000002a890 .LASF1708
C:\Users\SOLDER~1\AppData\Local\Temp\ccbih9yx.s:26759  .debug_str:000000000002207d .LASF1709
C:\Users\SOLDER~1\AppData\Local\Temp\ccbih9yx.s:23129  .debug_str:00000000000133a8 .LASF1710
C:\Users\SOLDER~1\AppData\Local\Temp\ccbih9yx.s:23577  .debug_str:0000000000015228 .LASF1711
C:\Users\SOLDER~1\AppData\Local\Temp\ccbih9yx.s:29749  .debug_str:000000000002e3a1 .LASF1712
GAS LISTING C:\Users\SOLDER~1\AppData\Local\Temp\ccbih9yx.s 			page 41


C:\Users\SOLDER~1\AppData\Local\Temp\ccbih9yx.s:23171  .debug_str:0000000000013691 .LASF1713
C:\Users\SOLDER~1\AppData\Local\Temp\ccbih9yx.s:20449  .debug_str:0000000000008461 .LASF1714
C:\Users\SOLDER~1\AppData\Local\Temp\ccbih9yx.s:22405  .debug_str:00000000000104fd .LASF1715
C:\Users\SOLDER~1\AppData\Local\Temp\ccbih9yx.s:20203  .debug_str:0000000000007489 .LASF1716
C:\Users\SOLDER~1\AppData\Local\Temp\ccbih9yx.s:18917  .debug_str:00000000000021b3 .LASF1717
C:\Users\SOLDER~1\AppData\Local\Temp\ccbih9yx.s:21681  .debug_str:000000000000d5a5 .LASF1718
C:\Users\SOLDER~1\AppData\Local\Temp\ccbih9yx.s:27063  .debug_str:000000000002347d .LASF1719
C:\Users\SOLDER~1\AppData\Local\Temp\ccbih9yx.s:24701  .debug_str:0000000000019acf .LASF1720
C:\Users\SOLDER~1\AppData\Local\Temp\ccbih9yx.s:25431  .debug_str:000000000001ca1b .LASF1721
C:\Users\SOLDER~1\AppData\Local\Temp\ccbih9yx.s:20915  .debug_str:000000000000a306 .LASF1722
C:\Users\SOLDER~1\AppData\Local\Temp\ccbih9yx.s:29267  .debug_str:000000000002c4d9 .LASF1723
C:\Users\SOLDER~1\AppData\Local\Temp\ccbih9yx.s:28343  .debug_str:000000000002890c .LASF1724
C:\Users\SOLDER~1\AppData\Local\Temp\ccbih9yx.s:23335  .debug_str:0000000000014241 .LASF1725
C:\Users\SOLDER~1\AppData\Local\Temp\ccbih9yx.s:24981  .debug_str:000000000001ace3 .LASF1726
C:\Users\SOLDER~1\AppData\Local\Temp\ccbih9yx.s:21661  .debug_str:000000000000d47a .LASF1727
C:\Users\SOLDER~1\AppData\Local\Temp\ccbih9yx.s:27651  .debug_str:0000000000025af8 .LASF1728
C:\Users\SOLDER~1\AppData\Local\Temp\ccbih9yx.s:23645  .debug_str:00000000000156ad .LASF1729
C:\Users\SOLDER~1\AppData\Local\Temp\ccbih9yx.s:19319  .debug_str:0000000000003bbb .LASF1730
C:\Users\SOLDER~1\AppData\Local\Temp\ccbih9yx.s:28537  .debug_str:0000000000029574 .LASF1731
C:\Users\SOLDER~1\AppData\Local\Temp\ccbih9yx.s:29255  .debug_str:000000000002c40e .LASF1732
C:\Users\SOLDER~1\AppData\Local\Temp\ccbih9yx.s:24787  .debug_str:000000000001a027 .LASF1733
C:\Users\SOLDER~1\AppData\Local\Temp\ccbih9yx.s:21287  .debug_str:000000000000bb7b .LASF1734
C:\Users\SOLDER~1\AppData\Local\Temp\ccbih9yx.s:20017  .debug_str:000000000000686e .LASF1735
C:\Users\SOLDER~1\AppData\Local\Temp\ccbih9yx.s:19859  .debug_str:0000000000005db3 .LASF1736
C:\Users\SOLDER~1\AppData\Local\Temp\ccbih9yx.s:23823  .debug_str:0000000000016223 .LASF1737
C:\Users\SOLDER~1\AppData\Local\Temp\ccbih9yx.s:19271  .debug_str:0000000000003897 .LASF1738
C:\Users\SOLDER~1\AppData\Local\Temp\ccbih9yx.s:19821  .debug_str:0000000000005b6b .LASF1739
C:\Users\SOLDER~1\AppData\Local\Temp\ccbih9yx.s:27491  .debug_str:0000000000025063 .LASF1740
C:\Users\SOLDER~1\AppData\Local\Temp\ccbih9yx.s:25375  .debug_str:000000000001c65a .LASF1741
C:\Users\SOLDER~1\AppData\Local\Temp\ccbih9yx.s:29205  .debug_str:000000000002c10a .LASF1742
C:\Users\SOLDER~1\AppData\Local\Temp\ccbih9yx.s:22241  .debug_str:000000000000fa41 .LASF1743
C:\Users\SOLDER~1\AppData\Local\Temp\ccbih9yx.s:20187  .debug_str:0000000000007384 .LASF1744
C:\Users\SOLDER~1\AppData\Local\Temp\ccbih9yx.s:21809  .debug_str:000000000000ddf8 .LASF1745
C:\Users\SOLDER~1\AppData\Local\Temp\ccbih9yx.s:27133  .debug_str:0000000000023903 .LASF1746
C:\Users\SOLDER~1\AppData\Local\Temp\ccbih9yx.s:20965  .debug_str:000000000000a68d .LASF1747
C:\Users\SOLDER~1\AppData\Local\Temp\ccbih9yx.s:25911  .debug_str:000000000001e999 .LASF1748
C:\Users\SOLDER~1\AppData\Local\Temp\ccbih9yx.s:29889  .debug_str:000000000002ec98 .LASF1749
C:\Users\SOLDER~1\AppData\Local\Temp\ccbih9yx.s:20291  .debug_str:00000000000079dd .LASF1750
C:\Users\SOLDER~1\AppData\Local\Temp\ccbih9yx.s:25771  .debug_str:000000000001e057 .LASF1751
C:\Users\SOLDER~1\AppData\Local\Temp\ccbih9yx.s:23281  .debug_str:0000000000013e77 .LASF1752
C:\Users\SOLDER~1\AppData\Local\Temp\ccbih9yx.s:24053  .debug_str:0000000000017054 .LASF1753
C:\Users\SOLDER~1\AppData\Local\Temp\ccbih9yx.s:19507  .debug_str:000000000000477a .LASF1754
C:\Users\SOLDER~1\AppData\Local\Temp\ccbih9yx.s:27819  .debug_str:00000000000266a5 .LASF1755
C:\Users\SOLDER~1\AppData\Local\Temp\ccbih9yx.s:26909  .debug_str:0000000000022a4d .LASF1756
C:\Users\SOLDER~1\AppData\Local\Temp\ccbih9yx.s:21983  .debug_str:000000000000e996 .LASF1757
C:\Users\SOLDER~1\AppData\Local\Temp\ccbih9yx.s:23659  .debug_str:000000000001579e .LASF1758
C:\Users\SOLDER~1\AppData\Local\Temp\ccbih9yx.s:25941  .debug_str:000000000001eb7a .LASF1759
C:\Users\SOLDER~1\AppData\Local\Temp\ccbih9yx.s:20443  .debug_str:0000000000008407 .LASF1760
C:\Users\SOLDER~1\AppData\Local\Temp\ccbih9yx.s:26521  .debug_str:0000000000021170 .LASF1761
C:\Users\SOLDER~1\AppData\Local\Temp\ccbih9yx.s:21311  .debug_str:000000000000bcf4 .LASF1762
C:\Users\SOLDER~1\AppData\Local\Temp\ccbih9yx.s:18945  .debug_str:0000000000002394 .LASF1763
C:\Users\SOLDER~1\AppData\Local\Temp\ccbih9yx.s:21899  .debug_str:000000000000e42a .LASF1764
C:\Users\SOLDER~1\AppData\Local\Temp\ccbih9yx.s:22769  .debug_str:0000000000011c68 .LASF1765
C:\Users\SOLDER~1\AppData\Local\Temp\ccbih9yx.s:25553  .debug_str:000000000001d272 .LASF1766
C:\Users\SOLDER~1\AppData\Local\Temp\ccbih9yx.s:23843  .debug_str:0000000000016357 .LASF1767
C:\Users\SOLDER~1\AppData\Local\Temp\ccbih9yx.s:26479  .debug_str:0000000000020e84 .LASF1768
C:\Users\SOLDER~1\AppData\Local\Temp\ccbih9yx.s:24119  .debug_str:00000000000174ca .LASF1769
GAS LISTING C:\Users\SOLDER~1\AppData\Local\Temp\ccbih9yx.s 			page 42


C:\Users\SOLDER~1\AppData\Local\Temp\ccbih9yx.s:28555  .debug_str:000000000002967e .LASF1770
C:\Users\SOLDER~1\AppData\Local\Temp\ccbih9yx.s:27589  .debug_str:000000000002569c .LASF1771
C:\Users\SOLDER~1\AppData\Local\Temp\ccbih9yx.s:23819  .debug_str:00000000000161e3 .LASF1772
C:\Users\SOLDER~1\AppData\Local\Temp\ccbih9yx.s:21637  .debug_str:000000000000d2da .LASF1773
C:\Users\SOLDER~1\AppData\Local\Temp\ccbih9yx.s:23165  .debug_str:0000000000013623 .LASF1774
C:\Users\SOLDER~1\AppData\Local\Temp\ccbih9yx.s:22703  .debug_str:0000000000011816 .LASF1775
C:\Users\SOLDER~1\AppData\Local\Temp\ccbih9yx.s:27933  .debug_str:0000000000026e46 .LASF1776
C:\Users\SOLDER~1\AppData\Local\Temp\ccbih9yx.s:29615  .debug_str:000000000002db43 .LASF1777
C:\Users\SOLDER~1\AppData\Local\Temp\ccbih9yx.s:26777  .debug_str:0000000000022181 .LASF1778
C:\Users\SOLDER~1\AppData\Local\Temp\ccbih9yx.s:26203  .debug_str:000000000001fca1 .LASF1779
C:\Users\SOLDER~1\AppData\Local\Temp\ccbih9yx.s:22185  .debug_str:000000000000f646 .LASF1780
C:\Users\SOLDER~1\AppData\Local\Temp\ccbih9yx.s:26145  .debug_str:000000000001f90d .LASF1781
C:\Users\SOLDER~1\AppData\Local\Temp\ccbih9yx.s:28043  .debug_str:0000000000027575 .LASF1782
C:\Users\SOLDER~1\AppData\Local\Temp\ccbih9yx.s:22039  .debug_str:000000000000ed04 .LASF1783
C:\Users\SOLDER~1\AppData\Local\Temp\ccbih9yx.s:19525  .debug_str:00000000000048a8 .LASF1784
C:\Users\SOLDER~1\AppData\Local\Temp\ccbih9yx.s:20301  .debug_str:0000000000007a91 .LASF1785
C:\Users\SOLDER~1\AppData\Local\Temp\ccbih9yx.s:27269  .debug_str:00000000000241c7 .LASF1786
C:\Users\SOLDER~1\AppData\Local\Temp\ccbih9yx.s:24175  .debug_str:0000000000017848 .LASF1787
C:\Users\SOLDER~1\AppData\Local\Temp\ccbih9yx.s:23241  .debug_str:0000000000013bc6 .LASF1788
C:\Users\SOLDER~1\AppData\Local\Temp\ccbih9yx.s:29789  .debug_str:000000000002e63c .LASF1789
C:\Users\SOLDER~1\AppData\Local\Temp\ccbih9yx.s:19817  .debug_str:0000000000005b22 .LASF1790
C:\Users\SOLDER~1\AppData\Local\Temp\ccbih9yx.s:18703  .debug_str:00000000000013f6 .LASF1791
C:\Users\SOLDER~1\AppData\Local\Temp\ccbih9yx.s:24723  .debug_str:0000000000019c2e .LASF1792
C:\Users\SOLDER~1\AppData\Local\Temp\ccbih9yx.s:19297  .debug_str:0000000000003a4e .LASF1793
C:\Users\SOLDER~1\AppData\Local\Temp\ccbih9yx.s:25497  .debug_str:000000000001ceac .LASF1794
C:\Users\SOLDER~1\AppData\Local\Temp\ccbih9yx.s:25459  .debug_str:000000000001cc0a .LASF1795
C:\Users\SOLDER~1\AppData\Local\Temp\ccbih9yx.s:26169  .debug_str:000000000001fa8e .LASF1796
C:\Users\SOLDER~1\AppData\Local\Temp\ccbih9yx.s:22513  .debug_str:0000000000010bb5 .LASF1797
C:\Users\SOLDER~1\AppData\Local\Temp\ccbih9yx.s:29829  .debug_str:000000000002e8f7 .LASF1798
C:\Users\SOLDER~1\AppData\Local\Temp\ccbih9yx.s:28055  .debug_str:0000000000027644 .LASF1799
C:\Users\SOLDER~1\AppData\Local\Temp\ccbih9yx.s:19243  .debug_str:00000000000036ca .LASF1800
C:\Users\SOLDER~1\AppData\Local\Temp\ccbih9yx.s:20359  .debug_str:0000000000007e82 .LASF1801
C:\Users\SOLDER~1\AppData\Local\Temp\ccbih9yx.s:26041  .debug_str:000000000001f21d .LASF1802
C:\Users\SOLDER~1\AppData\Local\Temp\ccbih9yx.s:23921  .debug_str:00000000000167fc .LASF1803
C:\Users\SOLDER~1\AppData\Local\Temp\ccbih9yx.s:19971  .debug_str:000000000000651e .LASF1804
C:\Users\SOLDER~1\AppData\Local\Temp\ccbih9yx.s:29437  .debug_str:000000000002cff5 .LASF1805
C:\Users\SOLDER~1\AppData\Local\Temp\ccbih9yx.s:19405  .debug_str:00000000000040fb .LASF1806
C:\Users\SOLDER~1\AppData\Local\Temp\ccbih9yx.s:26281  .debug_str:0000000000020195 .LASF1807
C:\Users\SOLDER~1\AppData\Local\Temp\ccbih9yx.s:24127  .debug_str:000000000001754b .LASF1808
C:\Users\SOLDER~1\AppData\Local\Temp\ccbih9yx.s:25787  .debug_str:000000000001e175 .LASF1809
C:\Users\SOLDER~1\AppData\Local\Temp\ccbih9yx.s:23097  .debug_str:0000000000013187 .LASF1810
C:\Users\SOLDER~1\AppData\Local\Temp\ccbih9yx.s:25043  .debug_str:000000000001b090 .LASF1811
C:\Users\SOLDER~1\AppData\Local\Temp\ccbih9yx.s:18477  .debug_str:00000000000004b2 .LASF1812
C:\Users\SOLDER~1\AppData\Local\Temp\ccbih9yx.s:22435  .debug_str:00000000000106ba .LASF1813
C:\Users\SOLDER~1\AppData\Local\Temp\ccbih9yx.s:24375  .debug_str:0000000000018577 .LASF1814
C:\Users\SOLDER~1\AppData\Local\Temp\ccbih9yx.s:29755  .debug_str:000000000002e403 .LASF1815
C:\Users\SOLDER~1\AppData\Local\Temp\ccbih9yx.s:25739  .debug_str:000000000001de55 .LASF1816
C:\Users\SOLDER~1\AppData\Local\Temp\ccbih9yx.s:28513  .debug_str:00000000000293d0 .LASF1817
C:\Users\SOLDER~1\AppData\Local\Temp\ccbih9yx.s:23589  .debug_str:00000000000152d9 .LASF1818
C:\Users\SOLDER~1\AppData\Local\Temp\ccbih9yx.s:20403  .debug_str:0000000000008185 .LASF1819
C:\Users\SOLDER~1\AppData\Local\Temp\ccbih9yx.s:19477  .debug_str:0000000000004573 .LASF1820
C:\Users\SOLDER~1\AppData\Local\Temp\ccbih9yx.s:25955  .debug_str:000000000001ec62 .LASF1821
C:\Users\SOLDER~1\AppData\Local\Temp\ccbih9yx.s:27585  .debug_str:0000000000025655 .LASF1822
C:\Users\SOLDER~1\AppData\Local\Temp\ccbih9yx.s:22949  .debug_str:00000000000127ae .LASF1823
C:\Users\SOLDER~1\AppData\Local\Temp\ccbih9yx.s:28865  .debug_str:000000000002aab3 .LASF1824
C:\Users\SOLDER~1\AppData\Local\Temp\ccbih9yx.s:23489  .debug_str:0000000000014ca6 .LASF1825
C:\Users\SOLDER~1\AppData\Local\Temp\ccbih9yx.s:29775  .debug_str:000000000002e53b .LASF1826
GAS LISTING C:\Users\SOLDER~1\AppData\Local\Temp\ccbih9yx.s 			page 43


C:\Users\SOLDER~1\AppData\Local\Temp\ccbih9yx.s:28195  .debug_str:0000000000027f50 .LASF1827
C:\Users\SOLDER~1\AppData\Local\Temp\ccbih9yx.s:18923  .debug_str:0000000000002221 .LASF1828
C:\Users\SOLDER~1\AppData\Local\Temp\ccbih9yx.s:25947  .debug_str:000000000001ebda .LASF1829
C:\Users\SOLDER~1\AppData\Local\Temp\ccbih9yx.s:20787  .debug_str:0000000000009a79 .LASF1830
C:\Users\SOLDER~1\AppData\Local\Temp\ccbih9yx.s:20741  .debug_str:000000000000978b .LASF1831
C:\Users\SOLDER~1\AppData\Local\Temp\ccbih9yx.s:23435  .debug_str:0000000000014914 .LASF1832
C:\Users\SOLDER~1\AppData\Local\Temp\ccbih9yx.s:28111  .debug_str:0000000000027996 .LASF1833
C:\Users\SOLDER~1\AppData\Local\Temp\ccbih9yx.s:21085  .debug_str:000000000000ae71 .LASF1834
C:\Users\SOLDER~1\AppData\Local\Temp\ccbih9yx.s:20065  .debug_str:0000000000006b58 .LASF1835
C:\Users\SOLDER~1\AppData\Local\Temp\ccbih9yx.s:27727  .debug_str:000000000002605b .LASF1836
C:\Users\SOLDER~1\AppData\Local\Temp\ccbih9yx.s:25703  .debug_str:000000000001dbc3 .LASF1837
C:\Users\SOLDER~1\AppData\Local\Temp\ccbih9yx.s:26593  .debug_str:0000000000021619 .LASF1838
C:\Users\SOLDER~1\AppData\Local\Temp\ccbih9yx.s:22583  .debug_str:0000000000011033 .LASF1839
C:\Users\SOLDER~1\AppData\Local\Temp\ccbih9yx.s:21361  .debug_str:000000000000c02c .LASF1840
C:\Users\SOLDER~1\AppData\Local\Temp\ccbih9yx.s:22057  .debug_str:000000000000ee3e .LASF1841
C:\Users\SOLDER~1\AppData\Local\Temp\ccbih9yx.s:24613  .debug_str:0000000000019548 .LASF1842
C:\Users\SOLDER~1\AppData\Local\Temp\ccbih9yx.s:21293  .debug_str:000000000000bbe2 .LASF1843
C:\Users\SOLDER~1\AppData\Local\Temp\ccbih9yx.s:26239  .debug_str:000000000001fede .LASF1844
C:\Users\SOLDER~1\AppData\Local\Temp\ccbih9yx.s:18707  .debug_str:000000000000143a .LASF1845
C:\Users\SOLDER~1\AppData\Local\Temp\ccbih9yx.s:20615  .debug_str:0000000000008f5a .LASF1846
C:\Users\SOLDER~1\AppData\Local\Temp\ccbih9yx.s:26019  .debug_str:000000000001f09b .LASF1847
C:\Users\SOLDER~1\AppData\Local\Temp\ccbih9yx.s:23605  .debug_str:0000000000015410 .LASF1848
C:\Users\SOLDER~1\AppData\Local\Temp\ccbih9yx.s:24387  .debug_str:0000000000018644 .LASF1849
C:\Users\SOLDER~1\AppData\Local\Temp\ccbih9yx.s:19843  .debug_str:0000000000005cba .LASF1850
C:\Users\SOLDER~1\AppData\Local\Temp\ccbih9yx.s:28155  .debug_str:0000000000027cb7 .LASF1851
C:\Users\SOLDER~1\AppData\Local\Temp\ccbih9yx.s:27245  .debug_str:0000000000024015 .LASF1852
C:\Users\SOLDER~1\AppData\Local\Temp\ccbih9yx.s:28445  .debug_str:0000000000028f24 .LASF1853
C:\Users\SOLDER~1\AppData\Local\Temp\ccbih9yx.s:23915  .debug_str:000000000001679c .LASF1854
C:\Users\SOLDER~1\AppData\Local\Temp\ccbih9yx.s:27083  .debug_str:00000000000235d0 .LASF1855
C:\Users\SOLDER~1\AppData\Local\Temp\ccbih9yx.s:24749  .debug_str:0000000000019dab .LASF1856
C:\Users\SOLDER~1\AppData\Local\Temp\ccbih9yx.s:27701  .debug_str:0000000000025e98 .LASF1857
C:\Users\SOLDER~1\AppData\Local\Temp\ccbih9yx.s:22529  .debug_str:0000000000010cd9 .LASF1858
C:\Users\SOLDER~1\AppData\Local\Temp\ccbih9yx.s:22497  .debug_str:0000000000010abe .LASF1859
C:\Users\SOLDER~1\AppData\Local\Temp\ccbih9yx.s:29351  .debug_str:000000000002ca04 .LASF1860
C:\Users\SOLDER~1\AppData\Local\Temp\ccbih9yx.s:21071  .debug_str:000000000000ad78 .LASF1861
C:\Users\SOLDER~1\AppData\Local\Temp\ccbih9yx.s:26715  .debug_str:0000000000021dc7 .LASF1862
C:\Users\SOLDER~1\AppData\Local\Temp\ccbih9yx.s:25017  .debug_str:000000000001af2f .LASF1863
C:\Users\SOLDER~1\AppData\Local\Temp\ccbih9yx.s:27647  .debug_str:0000000000025ab2 .LASF1864
C:\Users\SOLDER~1\AppData\Local\Temp\ccbih9yx.s:24443  .debug_str:00000000000189ef .LASF1865
C:\Users\SOLDER~1\AppData\Local\Temp\ccbih9yx.s:28873  .debug_str:000000000002ab3a .LASF1866
C:\Users\SOLDER~1\AppData\Local\Temp\ccbih9yx.s:27825  .debug_str:0000000000026718 .LASF1867
C:\Users\SOLDER~1\AppData\Local\Temp\ccbih9yx.s:24065  .debug_str:0000000000017124 .LASF1868
C:\Users\SOLDER~1\AppData\Local\Temp\ccbih9yx.s:21971  .debug_str:000000000000e8db .LASF1869
C:\Users\SOLDER~1\AppData\Local\Temp\ccbih9yx.s:23495  .debug_str:0000000000014d0e .LASF1870
C:\Users\SOLDER~1\AppData\Local\Temp\ccbih9yx.s:18757  .debug_str:0000000000001774 .LASF1871
C:\Users\SOLDER~1\AppData\Local\Temp\ccbih9yx.s:28273  .debug_str:000000000002845f .LASF1872
C:\Users\SOLDER~1\AppData\Local\Temp\ccbih9yx.s:27249  .debug_str:0000000000024067 .LASF1873
C:\Users\SOLDER~1\AppData\Local\Temp\ccbih9yx.s:27097  .debug_str:00000000000236c6 .LASF1874
C:\Users\SOLDER~1\AppData\Local\Temp\ccbih9yx.s:29089  .debug_str:000000000002b924 .LASF1875
C:\Users\SOLDER~1\AppData\Local\Temp\ccbih9yx.s:26649  .debug_str:00000000000219a7 .LASF1876
C:\Users\SOLDER~1\AppData\Local\Temp\ccbih9yx.s:25399  .debug_str:000000000001c7e7 .LASF1877
C:\Users\SOLDER~1\AppData\Local\Temp\ccbih9yx.s:28375  .debug_str:0000000000028ae3 .LASF1878
C:\Users\SOLDER~1\AppData\Local\Temp\ccbih9yx.s:27053  .debug_str:00000000000233d6 .LASF1879
C:\Users\SOLDER~1\AppData\Local\Temp\ccbih9yx.s:19865  .debug_str:0000000000005e07 .LASF1880
C:\Users\SOLDER~1\AppData\Local\Temp\ccbih9yx.s:20625  .debug_str:0000000000009007 .LASF1881
C:\Users\SOLDER~1\AppData\Local\Temp\ccbih9yx.s:27601  .debug_str:0000000000025777 .LASF1882
C:\Users\SOLDER~1\AppData\Local\Temp\ccbih9yx.s:24485  .debug_str:0000000000018cbf .LASF1883
GAS LISTING C:\Users\SOLDER~1\AppData\Local\Temp\ccbih9yx.s 			page 44


C:\Users\SOLDER~1\AppData\Local\Temp\ccbih9yx.s:18671  .debug_str:00000000000011e6 .LASF1884
C:\Users\SOLDER~1\AppData\Local\Temp\ccbih9yx.s:18521  .debug_str:0000000000000815 .LASF1885
C:\Users\SOLDER~1\AppData\Local\Temp\ccbih9yx.s:20163  .debug_str:00000000000071e0 .LASF1886
C:\Users\SOLDER~1\AppData\Local\Temp\ccbih9yx.s:19877  .debug_str:0000000000005eb9 .LASF1887
C:\Users\SOLDER~1\AppData\Local\Temp\ccbih9yx.s:25879  .debug_str:000000000001e776 .LASF1888
C:\Users\SOLDER~1\AppData\Local\Temp\ccbih9yx.s:20495  .debug_str:0000000000008753 .LASF1889
C:\Users\SOLDER~1\AppData\Local\Temp\ccbih9yx.s:26743  .debug_str:0000000000021f7d .LASF1890
C:\Users\SOLDER~1\AppData\Local\Temp\ccbih9yx.s:26709  .debug_str:0000000000021d56 .LASF1891
C:\Users\SOLDER~1\AppData\Local\Temp\ccbih9yx.s:27331  .debug_str:00000000000245e4 .LASF1892
C:\Users\SOLDER~1\AppData\Local\Temp\ccbih9yx.s:22879  .debug_str:0000000000012334 .LASF1893
C:\Users\SOLDER~1\AppData\Local\Temp\ccbih9yx.s:19487  .debug_str:000000000000461f .LASF1894
C:\Users\SOLDER~1\AppData\Local\Temp\ccbih9yx.s:29265  .debug_str:000000000002c4b5 .LASF1895
C:\Users\SOLDER~1\AppData\Local\Temp\ccbih9yx.s:20435  .debug_str:0000000000008394 .LASF1896
C:\Users\SOLDER~1\AppData\Local\Temp\ccbih9yx.s:20679  .debug_str:00000000000093d0 .LASF1897
C:\Users\SOLDER~1\AppData\Local\Temp\ccbih9yx.s:25079  .debug_str:000000000001b2eb .LASF1898
C:\Users\SOLDER~1\AppData\Local\Temp\ccbih9yx.s:24177  .debug_str:000000000001786d .LASF1899
C:\Users\SOLDER~1\AppData\Local\Temp\ccbih9yx.s:20313  .debug_str:0000000000007b67 .LASF1900
C:\Users\SOLDER~1\AppData\Local\Temp\ccbih9yx.s:29777  .debug_str:000000000002e55f .LASF1901
C:\Users\SOLDER~1\AppData\Local\Temp\ccbih9yx.s:19741  .debug_str:00000000000055c7 .LASF1902
C:\Users\SOLDER~1\AppData\Local\Temp\ccbih9yx.s:29373  .debug_str:000000000002cb62 .LASF1903
C:\Users\SOLDER~1\AppData\Local\Temp\ccbih9yx.s:24589  .debug_str:00000000000193aa .LASF1904
C:\Users\SOLDER~1\AppData\Local\Temp\ccbih9yx.s:26123  .debug_str:000000000001f7bb .LASF1905
C:\Users\SOLDER~1\AppData\Local\Temp\ccbih9yx.s:23429  .debug_str:0000000000014892 .LASF1906
C:\Users\SOLDER~1\AppData\Local\Temp\ccbih9yx.s:25355  .debug_str:000000000001c4e4 .LASF1907
C:\Users\SOLDER~1\AppData\Local\Temp\ccbih9yx.s:18791  .debug_str:0000000000001975 .LASF1908
C:\Users\SOLDER~1\AppData\Local\Temp\ccbih9yx.s:22667  .debug_str:00000000000115d6 .LASF1909
C:\Users\SOLDER~1\AppData\Local\Temp\ccbih9yx.s:24689  .debug_str:0000000000019a04 .LASF1910
C:\Users\SOLDER~1\AppData\Local\Temp\ccbih9yx.s:18575  .debug_str:0000000000000bca .LASF1911
C:\Users\SOLDER~1\AppData\Local\Temp\ccbih9yx.s:27621  .debug_str:00000000000258e3 .LASF1912
C:\Users\SOLDER~1\AppData\Local\Temp\ccbih9yx.s:28387  .debug_str:0000000000028b88 .LASF1913
C:\Users\SOLDER~1\AppData\Local\Temp\ccbih9yx.s:23939  .debug_str:0000000000016936 .LASF1914
C:\Users\SOLDER~1\AppData\Local\Temp\ccbih9yx.s:29139  .debug_str:000000000002bc49 .LASF1915
C:\Users\SOLDER~1\AppData\Local\Temp\ccbih9yx.s:19811  .debug_str:0000000000005ab5 .LASF1916
C:\Users\SOLDER~1\AppData\Local\Temp\ccbih9yx.s:26277  .debug_str:000000000002015d .LASF1917
C:\Users\SOLDER~1\AppData\Local\Temp\ccbih9yx.s:24863  .debug_str:000000000001a4ea .LASF1918
C:\Users\SOLDER~1\AppData\Local\Temp\ccbih9yx.s:24187  .debug_str:000000000001792f .LASF1919
C:\Users\SOLDER~1\AppData\Local\Temp\ccbih9yx.s:18659  .debug_str:0000000000001123 .LASF1920
C:\Users\SOLDER~1\AppData\Local\Temp\ccbih9yx.s:24769  .debug_str:0000000000019eee .LASF1921
C:\Users\SOLDER~1\AppData\Local\Temp\ccbih9yx.s:19423  .debug_str:0000000000004228 .LASF1922
C:\Users\SOLDER~1\AppData\Local\Temp\ccbih9yx.s:19389  .debug_str:0000000000003fea .LASF1923
C:\Users\SOLDER~1\AppData\Local\Temp\ccbih9yx.s:27065  .debug_str:00000000000234a3 .LASF1924
C:\Users\SOLDER~1\AppData\Local\Temp\ccbih9yx.s:27095  .debug_str:00000000000236a2 .LASF1925
C:\Users\SOLDER~1\AppData\Local\Temp\ccbih9yx.s:23785  .debug_str:0000000000015fc7 .LASF1926
C:\Users\SOLDER~1\AppData\Local\Temp\ccbih9yx.s:22007  .debug_str:000000000000eadc .LASF1927
C:\Users\SOLDER~1\AppData\Local\Temp\ccbih9yx.s:28163  .debug_str:0000000000027d3d .LASF1928
C:\Users\SOLDER~1\AppData\Local\Temp\ccbih9yx.s:28353  .debug_str:00000000000289a0 .LASF1929
C:\Users\SOLDER~1\AppData\Local\Temp\ccbih9yx.s:21321  .debug_str:000000000000bd85 .LASF1930
C:\Users\SOLDER~1\AppData\Local\Temp\ccbih9yx.s:20407  .debug_str:00000000000081c5 .LASF1931
C:\Users\SOLDER~1\AppData\Local\Temp\ccbih9yx.s:28949  .debug_str:000000000002b04a .LASF1932
C:\Users\SOLDER~1\AppData\Local\Temp\ccbih9yx.s:21769  .debug_str:000000000000db5f .LASF1933
C:\Users\SOLDER~1\AppData\Local\Temp\ccbih9yx.s:27507  .debug_str:0000000000025135 .LASF1934
C:\Users\SOLDER~1\AppData\Local\Temp\ccbih9yx.s:18407  .debug_str:0000000000000023 .LASF1935
C:\Users\SOLDER~1\AppData\Local\Temp\ccbih9yx.s:20823  .debug_str:0000000000009cc9 .LASF1936
C:\Users\SOLDER~1\AppData\Local\Temp\ccbih9yx.s:22411  .debug_str:0000000000010555 .LASF1937
C:\Users\SOLDER~1\AppData\Local\Temp\ccbih9yx.s:19669  .debug_str:0000000000005183 .LASF1938
C:\Users\SOLDER~1\AppData\Local\Temp\ccbih9yx.s:21619  .debug_str:000000000000d1a6 .LASF1939
C:\Users\SOLDER~1\AppData\Local\Temp\ccbih9yx.s:26467  .debug_str:0000000000020db1 .LASF1940
GAS LISTING C:\Users\SOLDER~1\AppData\Local\Temp\ccbih9yx.s 			page 45


C:\Users\SOLDER~1\AppData\Local\Temp\ccbih9yx.s:18929  .debug_str:000000000000227f .LASF1941
C:\Users\SOLDER~1\AppData\Local\Temp\ccbih9yx.s:24223  .debug_str:0000000000017b7a .LASF1942
C:\Users\SOLDER~1\AppData\Local\Temp\ccbih9yx.s:26325  .debug_str:000000000002049c .LASF1943
C:\Users\SOLDER~1\AppData\Local\Temp\ccbih9yx.s:28339  .debug_str:00000000000288cb .LASF1944
C:\Users\SOLDER~1\AppData\Local\Temp\ccbih9yx.s:24611  .debug_str:0000000000019523 .LASF1945
C:\Users\SOLDER~1\AppData\Local\Temp\ccbih9yx.s:20189  .debug_str:00000000000073a9 .LASF1946
C:\Users\SOLDER~1\AppData\Local\Temp\ccbih9yx.s:28507  .debug_str:0000000000029361 .LASF1947
C:\Users\SOLDER~1\AppData\Local\Temp\ccbih9yx.s:27485  .debug_str:0000000000025012 .LASF1948
C:\Users\SOLDER~1\AppData\Local\Temp\ccbih9yx.s:25865  .debug_str:000000000001e67e .LASF1949
C:\Users\SOLDER~1\AppData\Local\Temp\ccbih9yx.s:24257  .debug_str:0000000000017dcb .LASF1950
C:\Users\SOLDER~1\AppData\Local\Temp\ccbih9yx.s:21805  .debug_str:000000000000ddb3 .LASF1951
C:\Users\SOLDER~1\AppData\Local\Temp\ccbih9yx.s:22817  .debug_str:0000000000011f5e .LASF1952
C:\Users\SOLDER~1\AppData\Local\Temp\ccbih9yx.s:28911  .debug_str:000000000002ad70 .LASF1953
C:\Users\SOLDER~1\AppData\Local\Temp\ccbih9yx.s:23727  .debug_str:0000000000015bf4 .LASF1954
C:\Users\SOLDER~1\AppData\Local\Temp\ccbih9yx.s:23685  .debug_str:0000000000015958 .LASF1955
C:\Users\SOLDER~1\AppData\Local\Temp\ccbih9yx.s:24417  .debug_str:0000000000018823 .LASF1956
C:\Users\SOLDER~1\AppData\Local\Temp\ccbih9yx.s:27255  .debug_str:00000000000240c9 .LASF1957
C:\Users\SOLDER~1\AppData\Local\Temp\ccbih9yx.s:27997  .debug_str:000000000002727e .LASF1958
C:\Users\SOLDER~1\AppData\Local\Temp\ccbih9yx.s:26177  .debug_str:000000000001fb12 .LASF1959
C:\Users\SOLDER~1\AppData\Local\Temp\ccbih9yx.s:28857  .debug_str:000000000002aa1f .LASF1960
C:\Users\SOLDER~1\AppData\Local\Temp\ccbih9yx.s:24665  .debug_str:0000000000019879 .LASF1961
C:\Users\SOLDER~1\AppData\Local\Temp\ccbih9yx.s:27663  .debug_str:0000000000025bd7 .LASF1962
C:\Users\SOLDER~1\AppData\Local\Temp\ccbih9yx.s:28157  .debug_str:0000000000027cdc .LASF1963
C:\Users\SOLDER~1\AppData\Local\Temp\ccbih9yx.s:24403  .debug_str:000000000001873c .LASF1964
C:\Users\SOLDER~1\AppData\Local\Temp\ccbih9yx.s:24789  .debug_str:000000000001a04b .LASF1965
C:\Users\SOLDER~1\AppData\Local\Temp\ccbih9yx.s:23833  .debug_str:00000000000162b6 .LASF1966
C:\Users\SOLDER~1\AppData\Local\Temp\ccbih9yx.s:19075  .debug_str:0000000000002bd5 .LASF1967
C:\Users\SOLDER~1\AppData\Local\Temp\ccbih9yx.s:28621  .debug_str:0000000000029a95 .LASF1968
C:\Users\SOLDER~1\AppData\Local\Temp\ccbih9yx.s:24717  .debug_str:0000000000019bca .LASF1969
C:\Users\SOLDER~1\AppData\Local\Temp\ccbih9yx.s:27441  .debug_str:0000000000024d23 .LASF1970
C:\Users\SOLDER~1\AppData\Local\Temp\ccbih9yx.s:29415  .debug_str:000000000002ce3f .LASF1971
C:\Users\SOLDER~1\AppData\Local\Temp\ccbih9yx.s:22757  .debug_str:0000000000011b92 .LASF1972
C:\Users\SOLDER~1\AppData\Local\Temp\ccbih9yx.s:26687  .debug_str:0000000000021bfa .LASF1973
C:\Users\SOLDER~1\AppData\Local\Temp\ccbih9yx.s:28713  .debug_str:000000000002a0e3 .LASF1974
C:\Users\SOLDER~1\AppData\Local\Temp\ccbih9yx.s:22629  .debug_str:0000000000011315 .LASF1975
C:\Users\SOLDER~1\AppData\Local\Temp\ccbih9yx.s:20207  .debug_str:00000000000074c9 .LASF1976
C:\Users\SOLDER~1\AppData\Local\Temp\ccbih9yx.s:20847  .debug_str:0000000000009e7d .LASF1977
C:\Users\SOLDER~1\AppData\Local\Temp\ccbih9yx.s:18571  .debug_str:0000000000000b82 .LASF1978
C:\Users\SOLDER~1\AppData\Local\Temp\ccbih9yx.s:24713  .debug_str:0000000000019b93 .LASF1979
C:\Users\SOLDER~1\AppData\Local\Temp\ccbih9yx.s:23813  .debug_str:0000000000016180 .LASF1980
C:\Users\SOLDER~1\AppData\Local\Temp\ccbih9yx.s:18841  .debug_str:0000000000001cd2 .LASF1981
C:\Users\SOLDER~1\AppData\Local\Temp\ccbih9yx.s:20497  .debug_str:0000000000008777 .LASF1982
C:\Users\SOLDER~1\AppData\Local\Temp\ccbih9yx.s:21057  .debug_str:000000000000ac75 .LASF1983
C:\Users\SOLDER~1\AppData\Local\Temp\ccbih9yx.s:27041  .debug_str:00000000000232ff .LASF1984
C:\Users\SOLDER~1\AppData\Local\Temp\ccbih9yx.s:22743  .debug_str:0000000000011aa5 .LASF1985
C:\Users\SOLDER~1\AppData\Local\Temp\ccbih9yx.s:27937  .debug_str:0000000000026e91 .LASF1986
C:\Users\SOLDER~1\AppData\Local\Temp\ccbih9yx.s:27895  .debug_str:0000000000026bba .LASF1987
C:\Users\SOLDER~1\AppData\Local\Temp\ccbih9yx.s:28645  .debug_str:0000000000029c5f .LASF1988
C:\Users\SOLDER~1\AppData\Local\Temp\ccbih9yx.s:19961  .debug_str:000000000000646c .LASF1989
C:\Users\SOLDER~1\AppData\Local\Temp\ccbih9yx.s:21371  .debug_str:000000000000c0ef .LASF1990
C:\Users\SOLDER~1\AppData\Local\Temp\ccbih9yx.s:18935  .debug_str:00000000000022e1 .LASF1991
C:\Users\SOLDER~1\AppData\Local\Temp\ccbih9yx.s:21607  .debug_str:000000000000d0e2 .LASF1992
C:\Users\SOLDER~1\AppData\Local\Temp\ccbih9yx.s:26663  .debug_str:0000000000021a9a .LASF1993
C:\Users\SOLDER~1\AppData\Local\Temp\ccbih9yx.s:25391  .debug_str:000000000001c755 .LASF1994
C:\Users\SOLDER~1\AppData\Local\Temp\ccbih9yx.s:24491  .debug_str:0000000000018d2e .LASF1995
C:\Users\SOLDER~1\AppData\Local\Temp\ccbih9yx.s:20639  .debug_str:0000000000009118 .LASF1996
C:\Users\SOLDER~1\AppData\Local\Temp\ccbih9yx.s:18603  .debug_str:0000000000000dc9 .LASF1997
GAS LISTING C:\Users\SOLDER~1\AppData\Local\Temp\ccbih9yx.s 			page 46


C:\Users\SOLDER~1\AppData\Local\Temp\ccbih9yx.s:19993  .debug_str:00000000000066b4 .LASF1998
C:\Users\SOLDER~1\AppData\Local\Temp\ccbih9yx.s:26831  .debug_str:00000000000224f3 .LASF1999
C:\Users\SOLDER~1\AppData\Local\Temp\ccbih9yx.s:24907  .debug_str:000000000001a7e6 .LASF2000
C:\Users\SOLDER~1\AppData\Local\Temp\ccbih9yx.s:26429  .debug_str:0000000000020b51 .LASF2001
C:\Users\SOLDER~1\AppData\Local\Temp\ccbih9yx.s:23677  .debug_str:00000000000158cb .LASF2002
C:\Users\SOLDER~1\AppData\Local\Temp\ccbih9yx.s:25587  .debug_str:000000000001d4c4 .LASF2003
C:\Users\SOLDER~1\AppData\Local\Temp\ccbih9yx.s:19025  .debug_str:00000000000028f6 .LASF2004
C:\Users\SOLDER~1\AppData\Local\Temp\ccbih9yx.s:22993  .debug_str:0000000000012a8e .LASF2005
C:\Users\SOLDER~1\AppData\Local\Temp\ccbih9yx.s:18637  .debug_str:0000000000000fbf .LASF2006
C:\Users\SOLDER~1\AppData\Local\Temp\ccbih9yx.s:18883  .debug_str:0000000000001f8d .LASF2007
C:\Users\SOLDER~1\AppData\Local\Temp\ccbih9yx.s:27961  .debug_str:0000000000027017 .LASF2008
C:\Users\SOLDER~1\AppData\Local\Temp\ccbih9yx.s:28651  .debug_str:0000000000029cca .LASF2009
C:\Users\SOLDER~1\AppData\Local\Temp\ccbih9yx.s:21523  .debug_str:000000000000cb5b .LASF2010
C:\Users\SOLDER~1\AppData\Local\Temp\ccbih9yx.s:20955  .debug_str:000000000000a5d4 .LASF2011
C:\Users\SOLDER~1\AppData\Local\Temp\ccbih9yx.s:20057  .debug_str:0000000000006ade .LASF2012
C:\Users\SOLDER~1\AppData\Local\Temp\ccbih9yx.s:20325  .debug_str:0000000000007c23 .LASF2013
C:\Users\SOLDER~1\AppData\Local\Temp\ccbih9yx.s:28251  .debug_str:00000000000282fa .LASF2014
C:\Users\SOLDER~1\AppData\Local\Temp\ccbih9yx.s:25321  .debug_str:000000000001c298 .LASF2015
C:\Users\SOLDER~1\AppData\Local\Temp\ccbih9yx.s:19819  .debug_str:0000000000005b47 .LASF2016
C:\Users\SOLDER~1\AppData\Local\Temp\ccbih9yx.s:25931  .debug_str:000000000001eae0 .LASF2017
C:\Users\SOLDER~1\AppData\Local\Temp\ccbih9yx.s:20717  .debug_str:0000000000009600 .LASF2018
C:\Users\SOLDER~1\AppData\Local\Temp\ccbih9yx.s:20591  .debug_str:0000000000008db7 .LASF2019
C:\Users\SOLDER~1\AppData\Local\Temp\ccbih9yx.s:21291  .debug_str:000000000000bbbe .LASF2020
C:\Users\SOLDER~1\AppData\Local\Temp\ccbih9yx.s:28313  .debug_str:0000000000028716 .LASF2021
C:\Users\SOLDER~1\AppData\Local\Temp\ccbih9yx.s:24955  .debug_str:000000000001aacd .LASF2022
C:\Users\SOLDER~1\AppData\Local\Temp\ccbih9yx.s:23227  .debug_str:0000000000013ac3 .LASF2023
C:\Users\SOLDER~1\AppData\Local\Temp\ccbih9yx.s:29281  .debug_str:000000000002c5b6 .LASF2024
C:\Users\SOLDER~1\AppData\Local\Temp\ccbih9yx.s:29685  .debug_str:000000000002df8f .LASF2025
C:\Users\SOLDER~1\AppData\Local\Temp\ccbih9yx.s:22133  .debug_str:000000000000f2df .LASF2026
C:\Users\SOLDER~1\AppData\Local\Temp\ccbih9yx.s:20731  .debug_str:00000000000096e5 .LASF2027
C:\Users\SOLDER~1\AppData\Local\Temp\ccbih9yx.s:28403  .debug_str:0000000000028c8d .LASF2028
C:\Users\SOLDER~1\AppData\Local\Temp\ccbih9yx.s:26347  .debug_str:0000000000020600 .LASF2029
C:\Users\SOLDER~1\AppData\Local\Temp\ccbih9yx.s:27741  .debug_str:000000000002614e .LASF2030
C:\Users\SOLDER~1\AppData\Local\Temp\ccbih9yx.s:23155  .debug_str:0000000000013581 .LASF2031
C:\Users\SOLDER~1\AppData\Local\Temp\ccbih9yx.s:21065  .debug_str:000000000000ad22 .LASF2032
C:\Users\SOLDER~1\AppData\Local\Temp\ccbih9yx.s:22729  .debug_str:00000000000119c4 .LASF2033
C:\Users\SOLDER~1\AppData\Local\Temp\ccbih9yx.s:19923  .debug_str:00000000000061fb .LASF2034
C:\Users\SOLDER~1\AppData\Local\Temp\ccbih9yx.s:21859  .debug_str:000000000000e19a .LASF2035
C:\Users\SOLDER~1\AppData\Local\Temp\ccbih9yx.s:29323  .debug_str:000000000002c84d .LASF2036
C:\Users\SOLDER~1\AppData\Local\Temp\ccbih9yx.s:28781  .debug_str:000000000002a570 .LASF2037
C:\Users\SOLDER~1\AppData\Local\Temp\ccbih9yx.s:20697  .debug_str:00000000000094d3 .LASF2038
C:\Users\SOLDER~1\AppData\Local\Temp\ccbih9yx.s:26647  .debug_str:0000000000021982 .LASF2039
C:\Users\SOLDER~1\AppData\Local\Temp\ccbih9yx.s:24213  .debug_str:0000000000017ac0 .LASF2040
C:\Users\SOLDER~1\AppData\Local\Temp\ccbih9yx.s:24933  .debug_str:000000000001a968 .LASF2041
C:\Users\SOLDER~1\AppData\Local\Temp\ccbih9yx.s:26769  .debug_str:000000000002211c .LASF2042
C:\Users\SOLDER~1\AppData\Local\Temp\ccbih9yx.s:28739  .debug_str:000000000002a2b2 .LASF2043
C:\Users\SOLDER~1\AppData\Local\Temp\ccbih9yx.s:27815  .debug_str:000000000002664f .LASF2044
C:\Users\SOLDER~1\AppData\Local\Temp\ccbih9yx.s:22895  .debug_str:000000000001241d .LASF2045
C:\Users\SOLDER~1\AppData\Local\Temp\ccbih9yx.s:24567  .debug_str:0000000000019220 .LASF2046
C:\Users\SOLDER~1\AppData\Local\Temp\ccbih9yx.s:20669  .debug_str:0000000000009314 .LASF2047
C:\Users\SOLDER~1\AppData\Local\Temp\ccbih9yx.s:26653  .debug_str:00000000000219ee .LASF2048
C:\Users\SOLDER~1\AppData\Local\Temp\ccbih9yx.s:21261  .debug_str:000000000000b9ad .LASF2049
C:\Users\SOLDER~1\AppData\Local\Temp\ccbih9yx.s:27539  .debug_str:0000000000025351 .LASF2050
C:\Users\SOLDER~1\AppData\Local\Temp\ccbih9yx.s:26217  .debug_str:000000000001fd78 .LASF2051
C:\Users\SOLDER~1\AppData\Local\Temp\ccbih9yx.s:28141  .debug_str:0000000000027ba9 .LASF2052
C:\Users\SOLDER~1\AppData\Local\Temp\ccbih9yx.s:23693  .debug_str:00000000000159d5 .LASF2053
C:\Users\SOLDER~1\AppData\Local\Temp\ccbih9yx.s:29411  .debug_str:000000000002cdf8 .LASF2054
GAS LISTING C:\Users\SOLDER~1\AppData\Local\Temp\ccbih9yx.s 			page 47


C:\Users\SOLDER~1\AppData\Local\Temp\ccbih9yx.s:18557  .debug_str:0000000000000a8e .LASF2055
C:\Users\SOLDER~1\AppData\Local\Temp\ccbih9yx.s:21211  .debug_str:000000000000b657 .LASF2056
C:\Users\SOLDER~1\AppData\Local\Temp\ccbih9yx.s:27525  .debug_str:000000000002527b .LASF2057
C:\Users\SOLDER~1\AppData\Local\Temp\ccbih9yx.s:28583  .debug_str:0000000000029824 .LASF2058
C:\Users\SOLDER~1\AppData\Local\Temp\ccbih9yx.s:19571  .debug_str:0000000000004b7e .LASF2059
C:\Users\SOLDER~1\AppData\Local\Temp\ccbih9yx.s:27243  .debug_str:0000000000023fef .LASF2060
C:\Users\SOLDER~1\AppData\Local\Temp\ccbih9yx.s:29527  .debug_str:000000000002d58e .LASF2061
C:\Users\SOLDER~1\AppData\Local\Temp\ccbih9yx.s:26601  .debug_str:0000000000021690 .LASF2062
C:\Users\SOLDER~1\AppData\Local\Temp\ccbih9yx.s:21981  .debug_str:000000000000e970 .LASF2063
C:\Users\SOLDER~1\AppData\Local\Temp\ccbih9yx.s:29241  .debug_str:000000000002c341 .LASF2064
C:\Users\SOLDER~1\AppData\Local\Temp\ccbih9yx.s:21563  .debug_str:000000000000cdfa .LASF2065
C:\Users\SOLDER~1\AppData\Local\Temp\ccbih9yx.s:18783  .debug_str:00000000000018cc .LASF2066
C:\Users\SOLDER~1\AppData\Local\Temp\ccbih9yx.s:20727  .debug_str:000000000000969a .LASF2067
C:\Users\SOLDER~1\AppData\Local\Temp\ccbih9yx.s:20041  .debug_str:00000000000069e4 .LASF2068
C:\Users\SOLDER~1\AppData\Local\Temp\ccbih9yx.s:29639  .debug_str:000000000002dcd3 .LASF2069
C:\Users\SOLDER~1\AppData\Local\Temp\ccbih9yx.s:20127  .debug_str:0000000000006fa3 .LASF2070
C:\Users\SOLDER~1\AppData\Local\Temp\ccbih9yx.s:25515  .debug_str:000000000001cfb0 .LASF2071
C:\Users\SOLDER~1\AppData\Local\Temp\ccbih9yx.s:23019  .debug_str:0000000000012c87 .LASF2072
C:\Users\SOLDER~1\AppData\Local\Temp\ccbih9yx.s:27805  .debug_str:00000000000265a9 .LASF2073
C:\Users\SOLDER~1\AppData\Local\Temp\ccbih9yx.s:19267  .debug_str:0000000000003856 .LASF2074
C:\Users\SOLDER~1\AppData\Local\Temp\ccbih9yx.s:27577  .debug_str:00000000000255ca .LASF2075
C:\Users\SOLDER~1\AppData\Local\Temp\ccbih9yx.s:26667  .debug_str:0000000000021ae4 .LASF2076
C:\Users\SOLDER~1\AppData\Local\Temp\ccbih9yx.s:21735  .debug_str:000000000000d91a .LASF2077
C:\Users\SOLDER~1\AppData\Local\Temp\ccbih9yx.s:23417  .debug_str:000000000001479c .LASF2078
C:\Users\SOLDER~1\AppData\Local\Temp\ccbih9yx.s:24943  .debug_str:000000000001aa1d .LASF2079
C:\Users\SOLDER~1\AppData\Local\Temp\ccbih9yx.s:19415  .debug_str:00000000000041a8 .LASF2080
C:\Users\SOLDER~1\AppData\Local\Temp\ccbih9yx.s:25529  .debug_str:000000000001d0a4 .LASF2081
C:\Users\SOLDER~1\AppData\Local\Temp\ccbih9yx.s:24399  .debug_str:0000000000018705 .LASF2082
C:\Users\SOLDER~1\AppData\Local\Temp\ccbih9yx.s:20201  .debug_str:0000000000007464 .LASF2083
C:\Users\SOLDER~1\AppData\Local\Temp\ccbih9yx.s:20887  .debug_str:000000000000a130 .LASF2084
C:\Users\SOLDER~1\AppData\Local\Temp\ccbih9yx.s:23627  .debug_str:0000000000015587 .LASF2085
C:\Users\SOLDER~1\AppData\Local\Temp\ccbih9yx.s:22983  .debug_str:00000000000129f7 .LASF2086
C:\Users\SOLDER~1\AppData\Local\Temp\ccbih9yx.s:25711  .debug_str:000000000001dc4e .LASF2087
C:\Users\SOLDER~1\AppData\Local\Temp\ccbih9yx.s:25475  .debug_str:000000000001cd3a .LASF2088
C:\Users\SOLDER~1\AppData\Local\Temp\ccbih9yx.s:23859  .debug_str:0000000000016448 .LASF2089
C:\Users\SOLDER~1\AppData\Local\Temp\ccbih9yx.s:28293  .debug_str:000000000002858d .LASF2090
C:\Users\SOLDER~1\AppData\Local\Temp\ccbih9yx.s:25335  .debug_str:000000000001c3aa .LASF2091
C:\Users\SOLDER~1\AppData\Local\Temp\ccbih9yx.s:23557  .debug_str:00000000000150b8 .LASF2092
C:\Users\SOLDER~1\AppData\Local\Temp\ccbih9yx.s:21391  .debug_str:000000000000c253 .LASF2093
C:\Users\SOLDER~1\AppData\Local\Temp\ccbih9yx.s:22901  .debug_str:0000000000012496 .LASF2094
C:\Users\SOLDER~1\AppData\Local\Temp\ccbih9yx.s:29787  .debug_str:000000000002e616 .LASF2095
C:\Users\SOLDER~1\AppData\Local\Temp\ccbih9yx.s:27677  .debug_str:0000000000025cd2 .LASF2096
C:\Users\SOLDER~1\AppData\Local\Temp\ccbih9yx.s:24561  .debug_str:00000000000191b4 .LASF2097
C:\Users\SOLDER~1\AppData\Local\Temp\ccbih9yx.s:26539  .debug_str:0000000000021296 .LASF2098
C:\Users\SOLDER~1\AppData\Local\Temp\ccbih9yx.s:28509  .debug_str:0000000000029386 .LASF2099
C:\Users\SOLDER~1\AppData\Local\Temp\ccbih9yx.s:23027  .debug_str:0000000000012d06 .LASF2100
C:\Users\SOLDER~1\AppData\Local\Temp\ccbih9yx.s:25895  .debug_str:000000000001e875 .LASF2101
C:\Users\SOLDER~1\AppData\Local\Temp\ccbih9yx.s:27785  .debug_str:000000000002647b .LASF2102
C:\Users\SOLDER~1\AppData\Local\Temp\ccbih9yx.s:21781  .debug_str:000000000000dc12 .LASF2103
C:\Users\SOLDER~1\AppData\Local\Temp\ccbih9yx.s:19287  .debug_str:000000000000399d .LASF2104
C:\Users\SOLDER~1\AppData\Local\Temp\ccbih9yx.s:20039  .debug_str:00000000000069be .LASF2105
C:\Users\SOLDER~1\AppData\Local\Temp\ccbih9yx.s:27025  .debug_str:00000000000231d4 .LASF2106
C:\Users\SOLDER~1\AppData\Local\Temp\ccbih9yx.s:23909  .debug_str:0000000000016738 .LASF2107
C:\Users\SOLDER~1\AppData\Local\Temp\ccbih9yx.s:22967  .debug_str:00000000000128c6 .LASF2108
C:\Users\SOLDER~1\AppData\Local\Temp\ccbih9yx.s:29533  .debug_str:000000000002d5f7 .LASF2109
C:\Users\SOLDER~1\AppData\Local\Temp\ccbih9yx.s:28347  .debug_str:0000000000028957 .LASF2110
C:\Users\SOLDER~1\AppData\Local\Temp\ccbih9yx.s:29191  .debug_str:000000000002c01f .LASF2111
GAS LISTING C:\Users\SOLDER~1\AppData\Local\Temp\ccbih9yx.s 			page 48


C:\Users\SOLDER~1\AppData\Local\Temp\ccbih9yx.s:23615  .debug_str:00000000000154ba .LASF2112
C:\Users\SOLDER~1\AppData\Local\Temp\ccbih9yx.s:29723  .debug_str:000000000002e1f7 .LASF2113
C:\Users\SOLDER~1\AppData\Local\Temp\ccbih9yx.s:24531  .debug_str:0000000000018fda .LASF2114
C:\Users\SOLDER~1\AppData\Local\Temp\ccbih9yx.s:24489  .debug_str:0000000000018d09 .LASF2115
C:\Users\SOLDER~1\AppData\Local\Temp\ccbih9yx.s:25183  .debug_str:000000000001b95b .LASF2116
C:\Users\SOLDER~1\AppData\Local\Temp\ccbih9yx.s:20683  .debug_str:0000000000009424 .LASF2117
C:\Users\SOLDER~1\AppData\Local\Temp\ccbih9yx.s:28815  .debug_str:000000000002a76a .LASF2118
C:\Users\SOLDER~1\AppData\Local\Temp\ccbih9yx.s:26949  .debug_str:0000000000022cf3 .LASF2119
C:\Users\SOLDER~1\AppData\Local\Temp\ccbih9yx.s:29669  .debug_str:000000000002de98 .LASF2120
C:\Users\SOLDER~1\AppData\Local\Temp\ccbih9yx.s:20101  .debug_str:0000000000006dbe .LASF2121
C:\Users\SOLDER~1\AppData\Local\Temp\ccbih9yx.s:24603  .debug_str:00000000000194a9 .LASF2122
C:\Users\SOLDER~1\AppData\Local\Temp\ccbih9yx.s:23655  .debug_str:000000000001575e .LASF2123
C:\Users\SOLDER~1\AppData\Local\Temp\ccbih9yx.s:22339  .debug_str:00000000000100c5 .LASF2124
C:\Users\SOLDER~1\AppData\Local\Temp\ccbih9yx.s:29187  .debug_str:000000000002bfc1 .LASF2125
C:\Users\SOLDER~1\AppData\Local\Temp\ccbih9yx.s:19175  .debug_str:000000000000326e .LASF2126
C:\Users\SOLDER~1\AppData\Local\Temp\ccbih9yx.s:26053  .debug_str:000000000001f2ec .LASF2127
C:\Users\SOLDER~1\AppData\Local\Temp\ccbih9yx.s:24023  .debug_str:0000000000016e43 .LASF2128
C:\Users\SOLDER~1\AppData\Local\Temp\ccbih9yx.s:26573  .debug_str:00000000000214c6 .LASF2129
C:\Users\SOLDER~1\AppData\Local\Temp\ccbih9yx.s:22839  .debug_str:00000000000120ae .LASF2130
C:\Users\SOLDER~1\AppData\Local\Temp\ccbih9yx.s:21115  .debug_str:000000000000b03b .LASF2131
C:\Users\SOLDER~1\AppData\Local\Temp\ccbih9yx.s:29737  .debug_str:000000000002e2d1 .LASF2132
C:\Users\SOLDER~1\AppData\Local\Temp\ccbih9yx.s:22171  .debug_str:000000000000f571 .LASF2133
C:\Users\SOLDER~1\AppData\Local\Temp\ccbih9yx.s:24137  .debug_str:00000000000175f4 .LASF2134
C:\Users\SOLDER~1\AppData\Local\Temp\ccbih9yx.s:29587  .debug_str:000000000002d962 .LASF2135
C:\Users\SOLDER~1\AppData\Local\Temp\ccbih9yx.s:23471  .debug_str:0000000000014b6e .LASF2136
C:\Users\SOLDER~1\AppData\Local\Temp\ccbih9yx.s:27797  .debug_str:000000000002651b .LASF2137
C:\Users\SOLDER~1\AppData\Local\Temp\ccbih9yx.s:23343  .debug_str:00000000000142c6 .LASF2138
C:\Users\SOLDER~1\AppData\Local\Temp\ccbih9yx.s:20157  .debug_str:0000000000007192 .LASF2139
C:\Users\SOLDER~1\AppData\Local\Temp\ccbih9yx.s:19237  .debug_str:0000000000003665 .LASF2140
C:\Users\SOLDER~1\AppData\Local\Temp\ccbih9yx.s:25997  .debug_str:000000000001ef05 .LASF2141
C:\Users\SOLDER~1\AppData\Local\Temp\ccbih9yx.s:27327  .debug_str:00000000000245ab .LASF2142
C:\Users\SOLDER~1\AppData\Local\Temp\ccbih9yx.s:21833  .debug_str:000000000000dfb1 .LASF2143
C:\Users\SOLDER~1\AppData\Local\Temp\ccbih9yx.s:27839  .debug_str:0000000000026805 .LASF2144
C:\Users\SOLDER~1\AppData\Local\Temp\ccbih9yx.s:22479  .debug_str:00000000000109bb .LASF2145
C:\Users\SOLDER~1\AppData\Local\Temp\ccbih9yx.s:28747  .debug_str:000000000002a334 .LASF2146
C:\Users\SOLDER~1\AppData\Local\Temp\ccbih9yx.s:28709  .debug_str:000000000002a0a4 .LASF2147
C:\Users\SOLDER~1\AppData\Local\Temp\ccbih9yx.s:29433  .debug_str:000000000002cfab .LASF2148
C:\Users\SOLDER~1\AppData\Local\Temp\ccbih9yx.s:25907  .debug_str:000000000001e950 .LASF2149
C:\Users\SOLDER~1\AppData\Local\Temp\ccbih9yx.s:21455  .debug_str:000000000000c6c8 .LASF2150
C:\Users\SOLDER~1\AppData\Local\Temp\ccbih9yx.s:19717  .debug_str:000000000000545d .LASF2151
C:\Users\SOLDER~1\AppData\Local\Temp\ccbih9yx.s:23565  .debug_str:0000000000015142 .LASF2152
C:\Users\SOLDER~1\AppData\Local\Temp\ccbih9yx.s:27857  .debug_str:0000000000026938 .LASF2153
C:\Users\SOLDER~1\AppData\Local\Temp\ccbih9yx.s:20837  .debug_str:0000000000009dc5 .LASF2154
C:\Users\SOLDER~1\AppData\Local\Temp\ccbih9yx.s:19909  .debug_str:0000000000006113 .LASF2155
C:\Users\SOLDER~1\AppData\Local\Temp\ccbih9yx.s:27481  .debug_str:0000000000024fc7 .LASF2156
C:\Users\SOLDER~1\AppData\Local\Temp\ccbih9yx.s:25457  .debug_str:000000000001cbe4 .LASF2157
C:\Users\SOLDER~1\AppData\Local\Temp\ccbih9yx.s:26927  .debug_str:0000000000022b78 .LASF2158
C:\Users\SOLDER~1\AppData\Local\Temp\ccbih9yx.s:22337  .debug_str:000000000001009f .LASF2159
C:\Users\SOLDER~1\AppData\Local\Temp\ccbih9yx.s:20271  .debug_str:000000000000787d .LASF2160
C:\Users\SOLDER~1\AppData\Local\Temp\ccbih9yx.s:29579  .debug_str:000000000002d8e7 .LASF2161
C:\Users\SOLDER~1\AppData\Local\Temp\ccbih9yx.s:19103  .debug_str:0000000000002db9 .LASF2162
C:\Users\SOLDER~1\AppData\Local\Temp\ccbih9yx.s:21051  .debug_str:000000000000ac06 .LASF2163
C:\Users\SOLDER~1\AppData\Local\Temp\ccbih9yx.s:25999  .debug_str:000000000001ef2b .LASF2164
C:\Users\SOLDER~1\AppData\Local\Temp\ccbih9yx.s:18463  .debug_str:00000000000003cd .LASF2165
C:\Users\SOLDER~1\AppData\Local\Temp\ccbih9yx.s:20373  .debug_str:0000000000007f72 .LASF2166
C:\Users\SOLDER~1\AppData\Local\Temp\ccbih9yx.s:25765  .debug_str:000000000001dffb .LASF2167
C:\Users\SOLDER~1\AppData\Local\Temp\ccbih9yx.s:23363  .debug_str:0000000000014421 .LASF2168
GAS LISTING C:\Users\SOLDER~1\AppData\Local\Temp\ccbih9yx.s 			page 49


C:\Users\SOLDER~1\AppData\Local\Temp\ccbih9yx.s:24151  .debug_str:00000000000176eb .LASF2169
C:\Users\SOLDER~1\AppData\Local\Temp\ccbih9yx.s:19591  .debug_str:0000000000004cc9 .LASF2170
C:\Users\SOLDER~1\AppData\Local\Temp\ccbih9yx.s:27903  .debug_str:0000000000026c3f .LASF2171
C:\Users\SOLDER~1\AppData\Local\Temp\ccbih9yx.s:26993  .debug_str:0000000000022fb2 .LASF2172
C:\Users\SOLDER~1\AppData\Local\Temp\ccbih9yx.s:21975  .debug_str:000000000000e911 .LASF2173
C:\Users\SOLDER~1\AppData\Local\Temp\ccbih9yx.s:23649  .debug_str:00000000000156e9 .LASF2174
C:\Users\SOLDER~1\AppData\Local\Temp\ccbih9yx.s:25031  .debug_str:000000000001afff .LASF2175
C:\Users\SOLDER~1\AppData\Local\Temp\ccbih9yx.s:24291  .debug_str:0000000000018038 .LASF2176
C:\Users\SOLDER~1\AppData\Local\Temp\ccbih9yx.s:23647  .debug_str:00000000000156d1 .LASF2177
C:\Users\SOLDER~1\AppData\Local\Temp\ccbih9yx.s:25307  .debug_str:000000000001c1bb .LASF2178
C:\Users\SOLDER~1\AppData\Local\Temp\ccbih9yx.s:22323  .debug_str:000000000000ffe3 .LASF2179
C:\Users\SOLDER~1\AppData\Local\Temp\ccbih9yx.s:24409  .debug_str:0000000000018798 .LASF2180
C:\Users\SOLDER~1\AppData\Local\Temp\ccbih9yx.s:20749  .debug_str:000000000000980f .LASF2181
C:\Users\SOLDER~1\AppData\Local\Temp\ccbih9yx.s:22575  .debug_str:0000000000010fad .LASF2182
C:\Users\SOLDER~1\AppData\Local\Temp\ccbih9yx.s:18979  .debug_str:00000000000025c7 .LASF2183
C:\Users\SOLDER~1\AppData\Local\Temp\ccbih9yx.s:27773  .debug_str:00000000000263b2 .LASF2184
C:\Users\SOLDER~1\AppData\Local\Temp\ccbih9yx.s:23265  .debug_str:0000000000013d78 .LASF2185
C:\Users\SOLDER~1\AppData\Local\Temp\ccbih9yx.s:21377  .debug_str:000000000000c148 .LASF2186
C:\Users\SOLDER~1\AppData\Local\Temp\ccbih9yx.s:20695  .debug_str:00000000000094c0 .LASF2187
C:\Users\SOLDER~1\AppData\Local\Temp\ccbih9yx.s:26489  .debug_str:0000000000020f23 .LASF2188
C:\Users\SOLDER~1\AppData\Local\Temp\ccbih9yx.s:26263  .debug_str:0000000000020086 .LASF2189
C:\Users\SOLDER~1\AppData\Local\Temp\ccbih9yx.s:23201  .debug_str:00000000000138b9 .LASF2190
C:\Users\SOLDER~1\AppData\Local\Temp\ccbih9yx.s:21989  .debug_str:000000000000e9e9 .LASF2191
C:\Users\SOLDER~1\AppData\Local\Temp\ccbih9yx.s:23147  .debug_str:00000000000134f1 .LASF2192
C:\Users\SOLDER~1\AppData\Local\Temp\ccbih9yx.s:27541  .debug_str:0000000000025376 .LASF2193
C:\Users\SOLDER~1\AppData\Local\Temp\ccbih9yx.s:28847  .debug_str:000000000002a976 .LASF2194
C:\Users\SOLDER~1\AppData\Local\Temp\ccbih9yx.s:26201  .debug_str:000000000001fc8e .LASF2195
C:\Users\SOLDER~1\AppData\Local\Temp\ccbih9yx.s:25057  .debug_str:000000000001b18c .LASF2196
C:\Users\SOLDER~1\AppData\Local\Temp\ccbih9yx.s:21911  .debug_str:000000000000e4d8 .LASF2197
C:\Users\SOLDER~1\AppData\Local\Temp\ccbih9yx.s:25403  .debug_str:000000000001c831 .LASF2198
C:\Users\SOLDER~1\AppData\Local\Temp\ccbih9yx.s:27495  .debug_str:00000000000250aa .LASF2199
C:\Users\SOLDER~1\AppData\Local\Temp\ccbih9yx.s:21451  .debug_str:000000000000c687 .LASF2200
C:\Users\SOLDER~1\AppData\Local\Temp\ccbih9yx.s:19217  .debug_str:0000000000003537 .LASF2201
C:\Users\SOLDER~1\AppData\Local\Temp\ccbih9yx.s:19605  .debug_str:0000000000004d9b .LASF2202
C:\Users\SOLDER~1\AppData\Local\Temp\ccbih9yx.s:28443  .debug_str:0000000000028f10 .LASF2203
C:\Users\SOLDER~1\AppData\Local\Temp\ccbih9yx.s:29531  .debug_str:000000000002d5d6 .LASF2204
C:\Users\SOLDER~1\AppData\Local\Temp\ccbih9yx.s:23751  .debug_str:0000000000015d79 .LASF2205
C:\Users\SOLDER~1\AppData\Local\Temp\ccbih9yx.s:18963  .debug_str:00000000000024c3 .LASF2206
C:\Users\SOLDER~1\AppData\Local\Temp\ccbih9yx.s:18925  .debug_str:0000000000002245 .LASF2207
C:\Users\SOLDER~1\AppData\Local\Temp\ccbih9yx.s:25887  .debug_str:000000000001e7ec .LASF2208
C:\Users\SOLDER~1\AppData\Local\Temp\ccbih9yx.s:25011  .debug_str:000000000001aedd .LASF2209
C:\Users\SOLDER~1\AppData\Local\Temp\ccbih9yx.s:22475  .debug_str:0000000000010976 .LASF2210
C:\Users\SOLDER~1\AppData\Local\Temp\ccbih9yx.s:22727  .debug_str:00000000000119b0 .LASF2211
C:\Users\SOLDER~1\AppData\Local\Temp\ccbih9yx.s:24069  .debug_str:0000000000017167 .LASF2212
C:\Users\SOLDER~1\AppData\Local\Temp\ccbih9yx.s:29171  .debug_str:000000000002bea2 .LASF2213
C:\Users\SOLDER~1\AppData\Local\Temp\ccbih9yx.s:26621  .debug_str:00000000000217d2 .LASF2214
C:\Users\SOLDER~1\AppData\Local\Temp\ccbih9yx.s:24733  .debug_str:0000000000019cd6 .LASF2215
C:\Users\SOLDER~1\AppData\Local\Temp\ccbih9yx.s:23947  .debug_str:00000000000169b9 .LASF2216
C:\Users\SOLDER~1\AppData\Local\Temp\ccbih9yx.s:19179  .debug_str:00000000000032ba .LASF2217
C:\Users\SOLDER~1\AppData\Local\Temp\ccbih9yx.s:23877  .debug_str:000000000001656d .LASF2218
C:\Users\SOLDER~1\AppData\Local\Temp\ccbih9yx.s:28399  .debug_str:0000000000028c63 .LASF2219
C:\Users\SOLDER~1\AppData\Local\Temp\ccbih9yx.s:21021  .debug_str:000000000000aa36 .LASF2220
C:\Users\SOLDER~1\AppData\Local\Temp\ccbih9yx.s:26175  .debug_str:000000000001faff .LASF2221
C:\Users\SOLDER~1\AppData\Local\Temp\ccbih9yx.s:28039  .debug_str:0000000000027532 .LASF2222
C:\Users\SOLDER~1\AppData\Local\Temp\ccbih9yx.s:19995  .debug_str:00000000000066d9 .LASF2223
C:\Users\SOLDER~1\AppData\Local\Temp\ccbih9yx.s:20721  .debug_str:000000000000963c .LASF2224
C:\Users\SOLDER~1\AppData\Local\Temp\ccbih9yx.s:22887  .debug_str:00000000000123a6 .LASF2225
GAS LISTING C:\Users\SOLDER~1\AppData\Local\Temp\ccbih9yx.s 			page 50


C:\Users\SOLDER~1\AppData\Local\Temp\ccbih9yx.s:23309  .debug_str:000000000001403f .LASF2226
C:\Users\SOLDER~1\AppData\Local\Temp\ccbih9yx.s:25427  .debug_str:000000000001c9d1 .LASF2227
C:\Users\SOLDER~1\AppData\Local\Temp\ccbih9yx.s:29321  .debug_str:000000000002c82c .LASF2228
C:\Users\SOLDER~1\AppData\Local\Temp\ccbih9yx.s:20457  .debug_str:00000000000084fb .LASF2229
C:\Users\SOLDER~1\AppData\Local\Temp\ccbih9yx.s:26501  .debug_str:0000000000021000 .LASF2230
C:\Users\SOLDER~1\AppData\Local\Temp\ccbih9yx.s:27381  .debug_str:0000000000024930 .LASF2231
C:\Users\SOLDER~1\AppData\Local\Temp\ccbih9yx.s:23355  .debug_str:0000000000014386 .LASF2232
C:\Users\SOLDER~1\AppData\Local\Temp\ccbih9yx.s:20061  .debug_str:0000000000006b1b .LASF2233
C:\Users\SOLDER~1\AppData\Local\Temp\ccbih9yx.s:22795  .debug_str:0000000000011de9 .LASF2234
C:\Users\SOLDER~1\AppData\Local\Temp\ccbih9yx.s:19683  .debug_str:0000000000005260 .LASF2235
C:\Users\SOLDER~1\AppData\Local\Temp\ccbih9yx.s:29377  .debug_str:000000000002cbb1 .LASF2236
C:\Users\SOLDER~1\AppData\Local\Temp\ccbih9yx.s:26229  .debug_str:000000000001fe43 .LASF2237
C:\Users\SOLDER~1\AppData\Local\Temp\ccbih9yx.s:28799  .debug_str:000000000002a683 .LASF2238
C:\Users\SOLDER~1\AppData\Local\Temp\ccbih9yx.s:21673  .debug_str:000000000000d53c .LASF2239
C:\Users\SOLDER~1\AppData\Local\Temp\ccbih9yx.s:23113  .debug_str:000000000001329a .LASF2240
C:\Users\SOLDER~1\AppData\Local\Temp\ccbih9yx.s:18887  .debug_str:0000000000001fc4 .LASF2241
C:\Users\SOLDER~1\AppData\Local\Temp\ccbih9yx.s:27877  .debug_str:0000000000026aa3 .LASF2242
C:\Users\SOLDER~1\AppData\Local\Temp\ccbih9yx.s:27821  .debug_str:00000000000266ca .LASF2243
C:\Users\SOLDER~1\AppData\Local\Temp\ccbih9yx.s:22261  .debug_str:000000000000fbd1 .LASF2244
C:\Users\SOLDER~1\AppData\Local\Temp\ccbih9yx.s:18489  .debug_str:000000000000057c .LASF2245
C:\Users\SOLDER~1\AppData\Local\Temp\ccbih9yx.s:18441  .debug_str:000000000000023c .LASF2246
C:\Users\SOLDER~1\AppData\Local\Temp\ccbih9yx.s:24195  .debug_str:00000000000179b1 .LASF2247
C:\Users\SOLDER~1\AppData\Local\Temp\ccbih9yx.s:20345  .debug_str:0000000000007d90 .LASF2248
C:\Users\SOLDER~1\AppData\Local\Temp\ccbih9yx.s:23381  .debug_str:000000000001455c .LASF2249
C:\Users\SOLDER~1\AppData\Local\Temp\ccbih9yx.s:21609  .debug_str:000000000000d106 .LASF2250
C:\Users\SOLDER~1\AppData\Local\Temp\ccbih9yx.s:21087  .debug_str:000000000000ae96 .LASF2251
C:\Users\SOLDER~1\AppData\Local\Temp\ccbih9yx.s:29505  .debug_str:000000000002d429 .LASF2252
C:\Users\SOLDER~1\AppData\Local\Temp\ccbih9yx.s:22781  .debug_str:0000000000011d1c .LASF2253
C:\Users\SOLDER~1\AppData\Local\Temp\ccbih9yx.s:24535  .debug_str:0000000000019021 .LASF2254
C:\Users\SOLDER~1\AppData\Local\Temp\ccbih9yx.s:24073  .debug_str:00000000000171aa .LASF2255
C:\Users\SOLDER~1\AppData\Local\Temp\ccbih9yx.s:26513  .debug_str:00000000000210e9 .LASF2256
C:\Users\SOLDER~1\AppData\Local\Temp\ccbih9yx.s:28573  .debug_str:00000000000297b1 .LASF2257
C:\Users\SOLDER~1\AppData\Local\Temp\ccbih9yx.s:21513  .debug_str:000000000000cad3 .LASF2258
C:\Users\SOLDER~1\AppData\Local\Temp\ccbih9yx.s:19061  .debug_str:0000000000002b25 .LASF2259
C:\Users\SOLDER~1\AppData\Local\Temp\ccbih9yx.s:27079  .debug_str:0000000000023581 .LASF2260
C:\Users\SOLDER~1\AppData\Local\Temp\ccbih9yx.s:24651  .debug_str:0000000000019790 .LASF2261
C:\Users\SOLDER~1\AppData\Local\Temp\ccbih9yx.s:20421  .debug_str:00000000000082ad .LASF2262
C:\Users\SOLDER~1\AppData\Local\Temp\ccbih9yx.s:19645  .debug_str:0000000000004ff8 .LASF2263
C:\Users\SOLDER~1\AppData\Local\Temp\ccbih9yx.s:26179  .debug_str:000000000001fb36 .LASF2264
C:\Users\SOLDER~1\AppData\Local\Temp\ccbih9yx.s:22597  .debug_str:0000000000011132 .LASF2265
C:\Users\SOLDER~1\AppData\Local\Temp\ccbih9yx.s:22135  .debug_str:000000000000f304 .LASF2266
C:\Users\SOLDER~1\AppData\Local\Temp\ccbih9yx.s:24607  .debug_str:00000000000194f8 .LASF2267
C:\Users\SOLDER~1\AppData\Local\Temp\ccbih9yx.s:21933  .debug_str:000000000000e645 .LASF2268
C:\Users\SOLDER~1\AppData\Local\Temp\ccbih9yx.s:18661  .debug_str:0000000000001147 .LASF2269
C:\Users\SOLDER~1\AppData\Local\Temp\ccbih9yx.s:28059  .debug_str:0000000000027685 .LASF2270
C:\Users\SOLDER~1\AppData\Local\Temp\ccbih9yx.s:28797  .debug_str:000000000002a66f .LASF2271
C:\Users\SOLDER~1\AppData\Local\Temp\ccbih9yx.s:28987  .debug_str:000000000002b2b1 .LASF2272
C:\Users\SOLDER~1\AppData\Local\Temp\ccbih9yx.s:28079  .debug_str:00000000000277d2 .LASF2273
C:\Users\SOLDER~1\AppData\Local\Temp\ccbih9yx.s:18531  .debug_str:0000000000000898 .LASF2274
C:\Users\SOLDER~1\AppData\Local\Temp\ccbih9yx.s:18609  .debug_str:0000000000000e27 .LASF2275
C:\Users\SOLDER~1\AppData\Local\Temp\ccbih9yx.s:20777  .debug_str:00000000000099e3 .LASF2276
C:\Users\SOLDER~1\AppData\Local\Temp\ccbih9yx.s:25991  .debug_str:000000000001eeba .LASF2277
C:\Users\SOLDER~1\AppData\Local\Temp\ccbih9yx.s:20315  .debug_str:0000000000007b8c .LASF2278
C:\Users\SOLDER~1\AppData\Local\Temp\ccbih9yx.s:29839  .debug_str:000000000002e99f .LASF2279
C:\Users\SOLDER~1\AppData\Local\Temp\ccbih9yx.s:22881  .debug_str:0000000000012358 .LASF2280
C:\Users\SOLDER~1\AppData\Local\Temp\ccbih9yx.s:26061  .debug_str:000000000001f378 .LASF2281
C:\Users\SOLDER~1\AppData\Local\Temp\ccbih9yx.s:29445  .debug_str:000000000002d07c .LASF2282
GAS LISTING C:\Users\SOLDER~1\AppData\Local\Temp\ccbih9yx.s 			page 51


C:\Users\SOLDER~1\AppData\Local\Temp\ccbih9yx.s:20253  .debug_str:000000000000777b .LASF2283
C:\Users\SOLDER~1\AppData\Local\Temp\ccbih9yx.s:19019  .debug_str:000000000000288c .LASF2284
C:\Users\SOLDER~1\AppData\Local\Temp\ccbih9yx.s:26353  .debug_str:000000000002066d .LASF2285
C:\Users\SOLDER~1\AppData\Local\Temp\ccbih9yx.s:20213  .debug_str:000000000000751c .LASF2286
C:\Users\SOLDER~1\AppData\Local\Temp\ccbih9yx.s:24157  .debug_str:0000000000017758 .LASF2287
C:\Users\SOLDER~1\AppData\Local\Temp\ccbih9yx.s:22833  .debug_str:000000000001204a .LASF2288
C:\Users\SOLDER~1\AppData\Local\Temp\ccbih9yx.s:20339  .debug_str:0000000000007d3d .LASF2289
C:\Users\SOLDER~1\AppData\Local\Temp\ccbih9yx.s:25601  .debug_str:000000000001d592 .LASF2290
C:\Users\SOLDER~1\AppData\Local\Temp\ccbih9yx.s:26097  .debug_str:000000000001f610 .LASF2291
C:\Users\SOLDER~1\AppData\Local\Temp\ccbih9yx.s:23247  .debug_str:0000000000013c1d .LASF2292
C:\Users\SOLDER~1\AppData\Local\Temp\ccbih9yx.s:19427  .debug_str:0000000000004260 .LASF2293
C:\Users\SOLDER~1\AppData\Local\Temp\ccbih9yx.s:23501  .debug_str:0000000000014d60 .LASF2294
C:\Users\SOLDER~1\AppData\Local\Temp\ccbih9yx.s:29807  .debug_str:000000000002e799 .LASF2295
C:\Users\SOLDER~1\AppData\Local\Temp\ccbih9yx.s:20267  .debug_str:0000000000007842 .LASF2296
C:\Users\SOLDER~1\AppData\Local\Temp\ccbih9yx.s:28759  .debug_str:000000000002a3fa .LASF2297
C:\Users\SOLDER~1\AppData\Local\Temp\ccbih9yx.s:26989  .debug_str:0000000000022f71 .LASF2298
C:\Users\SOLDER~1\AppData\Local\Temp\ccbih9yx.s:23117  .debug_str:00000000000132da .LASF2299
C:\Users\SOLDER~1\AppData\Local\Temp\ccbih9yx.s:26293  .debug_str:0000000000020263 .LASF2300
C:\Users\SOLDER~1\AppData\Local\Temp\ccbih9yx.s:29083  .debug_str:000000000002b8e0 .LASF2301
C:\Users\SOLDER~1\AppData\Local\Temp\ccbih9yx.s:22619  .debug_str:0000000000011280 .LASF2302
C:\Users\SOLDER~1\AppData\Local\Temp\ccbih9yx.s:26775  .debug_str:000000000002216c .LASF2303
C:\Users\SOLDER~1\AppData\Local\Temp\ccbih9yx.s:24135  .debug_str:00000000000175d2 .LASF2304
C:\Users\SOLDER~1\AppData\Local\Temp\ccbih9yx.s:23041  .debug_str:0000000000012dea .LASF2305
C:\Users\SOLDER~1\AppData\Local\Temp\ccbih9yx.s:25477  .debug_str:000000000001cd5f .LASF2306
C:\Users\SOLDER~1\AppData\Local\Temp\ccbih9yx.s:28801  .debug_str:000000000002a6a3 .LASF2307
C:\Users\SOLDER~1\AppData\Local\Temp\ccbih9yx.s:22659  .debug_str:0000000000011549 .LASF2308
C:\Users\SOLDER~1\AppData\Local\Temp\ccbih9yx.s:23369  .debug_str:0000000000014498 .LASF2309
C:\Users\SOLDER~1\AppData\Local\Temp\ccbih9yx.s:22009  .debug_str:000000000000eb00 .LASF2310
C:\Users\SOLDER~1\AppData\Local\Temp\ccbih9yx.s:21069  .debug_str:000000000000ad63 .LASF2311
C:\Users\SOLDER~1\AppData\Local\Temp\ccbih9yx.s:28679  .debug_str:0000000000029e8c .LASF2312
C:\Users\SOLDER~1\AppData\Local\Temp\ccbih9yx.s:28819  .debug_str:000000000002a7b1 .LASF2313
C:\Users\SOLDER~1\AppData\Local\Temp\ccbih9yx.s:21397  .debug_str:000000000000c2c1 .LASF2314
C:\Users\SOLDER~1\AppData\Local\Temp\ccbih9yx.s:23077  .debug_str:0000000000013038 .LASF2315
C:\Users\SOLDER~1\AppData\Local\Temp\ccbih9yx.s:22785  .debug_str:0000000000011d50 .LASF2316
C:\Users\SOLDER~1\AppData\Local\Temp\ccbih9yx.s:20287  .debug_str:00000000000079ae .LASF2317
C:\Users\SOLDER~1\AppData\Local\Temp\ccbih9yx.s:22591  .debug_str:00000000000110be .LASF2318
C:\Users\SOLDER~1\AppData\Local\Temp\ccbih9yx.s:29519  .debug_str:000000000002d510 .LASF2319
C:\Users\SOLDER~1\AppData\Local\Temp\ccbih9yx.s:23723  .debug_str:0000000000015bc0 .LASF2320
C:\Users\SOLDER~1\AppData\Local\Temp\ccbih9yx.s:26789  .debug_str:0000000000022229 .LASF2321
C:\Users\SOLDER~1\AppData\Local\Temp\ccbih9yx.s:24173  .debug_str:0000000000017828 .LASF2322
C:\Users\SOLDER~1\AppData\Local\Temp\ccbih9yx.s:27167  .debug_str:0000000000023b06 .LASF2323
C:\Users\SOLDER~1\AppData\Local\Temp\ccbih9yx.s:26631  .debug_str:000000000002187c .LASF2324
C:\Users\SOLDER~1\AppData\Local\Temp\ccbih9yx.s:25577  .debug_str:000000000001d41b .LASF2325
C:\Users\SOLDER~1\AppData\Local\Temp\ccbih9yx.s:20223  .debug_str:00000000000075af .LASF2326
C:\Users\SOLDER~1\AppData\Local\Temp\ccbih9yx.s:25283  .debug_str:000000000001bff8 .LASF2327
C:\Users\SOLDER~1\AppData\Local\Temp\ccbih9yx.s:21001  .debug_str:000000000000a8e3 .LASF2328
C:\Users\SOLDER~1\AppData\Local\Temp\ccbih9yx.s:20905  .debug_str:000000000000a24d .LASF2329
C:\Users\SOLDER~1\AppData\Local\Temp\ccbih9yx.s:19723  .debug_str:00000000000054a6 .LASF2330
C:\Users\SOLDER~1\AppData\Local\Temp\ccbih9yx.s:18763  .debug_str:00000000000017d4 .LASF2331
C:\Users\SOLDER~1\AppData\Local\Temp\ccbih9yx.s:29007  .debug_str:000000000002b3e9 .LASF2332
C:\Users\SOLDER~1\AppData\Local\Temp\ccbih9yx.s:19673  .debug_str:00000000000051ba .LASF2333
C:\Users\SOLDER~1\AppData\Local\Temp\ccbih9yx.s:28311  .debug_str:00000000000286f4 .LASF2334
C:\Users\SOLDER~1\AppData\Local\Temp\ccbih9yx.s:21285  .debug_str:000000000000bb63 .LASF2335
C:\Users\SOLDER~1\AppData\Local\Temp\ccbih9yx.s:26057  .debug_str:000000000001f334 .LASF2336
C:\Users\SOLDER~1\AppData\Local\Temp\ccbih9yx.s:21745  .debug_str:000000000000d9bf .LASF2337
C:\Users\SOLDER~1\AppData\Local\Temp\ccbih9yx.s:29503  .debug_str:000000000002d406 .LASF2338
C:\Users\SOLDER~1\AppData\Local\Temp\ccbih9yx.s:21525  .debug_str:000000000000cb80 .LASF2339
GAS LISTING C:\Users\SOLDER~1\AppData\Local\Temp\ccbih9yx.s 			page 52


C:\Users\SOLDER~1\AppData\Local\Temp\ccbih9yx.s:26259  .debug_str:000000000002003a .LASF2340
C:\Users\SOLDER~1\AppData\Local\Temp\ccbih9yx.s:26135  .debug_str:000000000001f86a .LASF2341
C:\Users\SOLDER~1\AppData\Local\Temp\ccbih9yx.s:26827  .debug_str:00000000000224a5 .LASF2342
C:\Users\SOLDER~1\AppData\Local\Temp\ccbih9yx.s:21387  .debug_str:000000000000c209 .LASF2343
C:\Users\SOLDER~1\AppData\Local\Temp\ccbih9yx.s:27897  .debug_str:0000000000026bde .LASF2344
C:\Users\SOLDER~1\AppData\Local\Temp\ccbih9yx.s:22511  .debug_str:0000000000010b9e .LASF2345
C:\Users\SOLDER~1\AppData\Local\Temp\ccbih9yx.s:21893  .debug_str:000000000000e3c8 .LASF2346
C:\Users\SOLDER~1\AppData\Local\Temp\ccbih9yx.s:28207  .debug_str:0000000000028035 .LASF2347
C:\Users\SOLDER~1\AppData\Local\Temp\ccbih9yx.s:26433  .debug_str:0000000000020ba0 .LASF2348
C:\Users\SOLDER~1\AppData\Local\Temp\ccbih9yx.s:20357  .debug_str:0000000000007e66 .LASF2349
C:\Users\SOLDER~1\AppData\Local\Temp\ccbih9yx.s:25255  .debug_str:000000000001be2e .LASF2350
C:\Users\SOLDER~1\AppData\Local\Temp\ccbih9yx.s:28401  .debug_str:0000000000028c77 .LASF2351
C:\Users\SOLDER~1\AppData\Local\Temp\ccbih9yx.s:26923  .debug_str:0000000000022b36 .LASF2352
C:\Users\SOLDER~1\AppData\Local\Temp\ccbih9yx.s:20979  .debug_str:000000000000a76d .LASF2353
C:\Users\SOLDER~1\AppData\Local\Temp\ccbih9yx.s:29413  .debug_str:000000000002ce1d .LASF2354
C:\Users\SOLDER~1\AppData\Local\Temp\ccbih9yx.s:21751  .debug_str:000000000000da12 .LASF2355
C:\Users\SOLDER~1\AppData\Local\Temp\ccbih9yx.s:24473  .debug_str:0000000000018bed .LASF2356
C:\Users\SOLDER~1\AppData\Local\Temp\ccbih9yx.s:21349  .debug_str:000000000000bf51 .LASF2357
C:\Users\SOLDER~1\AppData\Local\Temp\ccbih9yx.s:25233  .debug_str:000000000001bc9e .LASF2358
C:\Users\SOLDER~1\AppData\Local\Temp\ccbih9yx.s:22217  .debug_str:000000000000f8b9 .LASF2359
C:\Users\SOLDER~1\AppData\Local\Temp\ccbih9yx.s:25637  .debug_str:000000000001d7c1 .LASF2360
C:\Users\SOLDER~1\AppData\Local\Temp\ccbih9yx.s:26329  .debug_str:00000000000204df .LASF2361
C:\Users\SOLDER~1\AppData\Local\Temp\ccbih9yx.s:21789  .debug_str:000000000000dc9b .LASF2362
C:\Users\SOLDER~1\AppData\Local\Temp\ccbih9yx.s:23047  .debug_str:0000000000012e43 .LASF2363
C:\Users\SOLDER~1\AppData\Local\Temp\ccbih9yx.s:21111  .debug_str:000000000000b004 .LASF2364
C:\Users\SOLDER~1\AppData\Local\Temp\ccbih9yx.s:28971  .debug_str:000000000002b1c9 .LASF2365
C:\Users\SOLDER~1\AppData\Local\Temp\ccbih9yx.s:26251  .debug_str:000000000001ffb0 .LASF2366
C:\Users\SOLDER~1\AppData\Local\Temp\ccbih9yx.s:24947  .debug_str:000000000001aa5a .LASF2367
C:\Users\SOLDER~1\AppData\Local\Temp\ccbih9yx.s:26345  .debug_str:00000000000205dd .LASF2368
C:\Users\SOLDER~1\AppData\Local\Temp\ccbih9yx.s:24447  .debug_str:0000000000018a33 .LASF2369
C:\Users\SOLDER~1\AppData\Local\Temp\ccbih9yx.s:19015  .debug_str:0000000000002813 .LASF2370
C:\Users\SOLDER~1\AppData\Local\Temp\ccbih9yx.s:19469  .debug_str:00000000000044f1 .LASF2371
C:\Users\SOLDER~1\AppData\Local\Temp\ccbih9yx.s:25863  .debug_str:000000000001e65b .LASF2372
C:\Users\SOLDER~1\AppData\Local\Temp\ccbih9yx.s:19453  .debug_str:00000000000043fb .LASF2373
C:\Users\SOLDER~1\AppData\Local\Temp\ccbih9yx.s:19289  .debug_str:00000000000039c3 .LASF2374
C:\Users\SOLDER~1\AppData\Local\Temp\ccbih9yx.s:19911  .debug_str:0000000000006139 .LASF2375
C:\Users\SOLDER~1\AppData\Local\Temp\ccbih9yx.s:24771  .debug_str:0000000000019f12 .LASF2376
C:\Users\SOLDER~1\AppData\Local\Temp\ccbih9yx.s:20923  .debug_str:000000000000a387 .LASF2377
C:\Users\SOLDER~1\AppData\Local\Temp\ccbih9yx.s:19167  .debug_str:00000000000031f3 .LASF2378
C:\Users\SOLDER~1\AppData\Local\Temp\ccbih9yx.s:28697  .debug_str:0000000000029fbe .LASF2379
C:\Users\SOLDER~1\AppData\Local\Temp\ccbih9yx.s:28107  .debug_str:0000000000027967 .LASF2380
C:\Users\SOLDER~1\AppData\Local\Temp\ccbih9yx.s:18519  .debug_str:00000000000007ff .LASF2381
C:\Users\SOLDER~1\AppData\Local\Temp\ccbih9yx.s:29799  .debug_str:000000000002e708 .LASF2382
C:\Users\SOLDER~1\AppData\Local\Temp\ccbih9yx.s:25271  .debug_str:000000000001bf2f .LASF2383
C:\Users\SOLDER~1\AppData\Local\Temp\ccbih9yx.s:21401  .debug_str:000000000000c315 .LASF2384
C:\Users\SOLDER~1\AppData\Local\Temp\ccbih9yx.s:29361  .debug_str:000000000002caa8 .LASF2385
C:\Users\SOLDER~1\AppData\Local\Temp\ccbih9yx.s:28737  .debug_str:000000000002a290 .LASF2386
C:\Users\SOLDER~1\AppData\Local\Temp\ccbih9yx.s:29061  .debug_str:000000000002b76b .LASF2387
C:\Users\SOLDER~1\AppData\Local\Temp\ccbih9yx.s:29541  .debug_str:000000000002d695 .LASF2388
C:\Users\SOLDER~1\AppData\Local\Temp\ccbih9yx.s:23531  .debug_str:0000000000014f3a .LASF2389
C:\Users\SOLDER~1\AppData\Local\Temp\ccbih9yx.s:20055  .debug_str:0000000000006abd .LASF2390
C:\Users\SOLDER~1\AppData\Local\Temp\ccbih9yx.s:22537  .debug_str:0000000000010d4b .LASF2391
C:\Users\SOLDER~1\AppData\Local\Temp\ccbih9yx.s:26033  .debug_str:000000000001f194 .LASF2392
C:\Users\SOLDER~1\AppData\Local\Temp\ccbih9yx.s:20019  .debug_str:0000000000006892 .LASF2393
C:\Users\SOLDER~1\AppData\Local\Temp\ccbih9yx.s:25339  .debug_str:000000000001c3ec .LASF2394
C:\Users\SOLDER~1\AppData\Local\Temp\ccbih9yx.s:25073  .debug_str:000000000001b295 .LASF2395
C:\Users\SOLDER~1\AppData\Local\Temp\ccbih9yx.s:19053  .debug_str:0000000000002ab4 .LASF2396
GAS LISTING C:\Users\SOLDER~1\AppData\Local\Temp\ccbih9yx.s 			page 53


C:\Users\SOLDER~1\AppData\Local\Temp\ccbih9yx.s:21821  .debug_str:000000000000dec9 .LASF2397
C:\Users\SOLDER~1\AppData\Local\Temp\ccbih9yx.s:23159  .debug_str:00000000000135bc .LASF2398
C:\Users\SOLDER~1\AppData\Local\Temp\ccbih9yx.s:27257  .debug_str:00000000000240ed .LASF2399
C:\Users\SOLDER~1\AppData\Local\Temp\ccbih9yx.s:20511  .debug_str:0000000000008845 .LASF2400
C:\Users\SOLDER~1\AppData\Local\Temp\ccbih9yx.s:22035  .debug_str:000000000000ecc5 .LASF2401
C:\Users\SOLDER~1\AppData\Local\Temp\ccbih9yx.s:22735  .debug_str:0000000000011a21 .LASF2402
C:\Users\SOLDER~1\AppData\Local\Temp\ccbih9yx.s:27111  .debug_str:0000000000023796 .LASF2403
C:\Users\SOLDER~1\AppData\Local\Temp\ccbih9yx.s:22163  .debug_str:000000000000f4e0 .LASF2404
C:\Users\SOLDER~1\AppData\Local\Temp\ccbih9yx.s:21197  .debug_str:000000000000b58e .LASF2405
C:\Users\SOLDER~1\AppData\Local\Temp\ccbih9yx.s:27555  .debug_str:0000000000025457 .LASF2406
C:\Users\SOLDER~1\AppData\Local\Temp\ccbih9yx.s:25173  .debug_str:000000000001b8b9 .LASF2407
C:\Users\SOLDER~1\AppData\Local\Temp\ccbih9yx.s:23407  .debug_str:000000000001470c .LASF2408
C:\Users\SOLDER~1\AppData\Local\Temp\ccbih9yx.s:25547  .debug_str:000000000001d213 .LASF2409
C:\Users\SOLDER~1\AppData\Local\Temp\ccbih9yx.s:19573  .debug_str:0000000000004ba4 .LASF2410
C:\Users\SOLDER~1\AppData\Local\Temp\ccbih9yx.s:20015  .debug_str:0000000000006858 .LASF2411
C:\Users\SOLDER~1\AppData\Local\Temp\ccbih9yx.s:21099  .debug_str:000000000000af49 .LASF2412
C:\Users\SOLDER~1\AppData\Local\Temp\ccbih9yx.s:21427  .debug_str:000000000000c4f9 .LASF2413
C:\Users\SOLDER~1\AppData\Local\Temp\ccbih9yx.s:26413  .debug_str:0000000000020a58 .LASF2414
C:\Users\SOLDER~1\AppData\Local\Temp\ccbih9yx.s:20159  .debug_str:00000000000071b8 .LASF2415
C:\Users\SOLDER~1\AppData\Local\Temp\ccbih9yx.s:19437  .debug_str:00000000000042f5 .LASF2416
C:\Users\SOLDER~1\AppData\Local\Temp\ccbih9yx.s:25149  .debug_str:000000000001b75f .LASF2417
C:\Users\SOLDER~1\AppData\Local\Temp\ccbih9yx.s:22253  .debug_str:000000000000fb2d .LASF2418
C:\Users\SOLDER~1\AppData\Local\Temp\ccbih9yx.s:23831  .debug_str:000000000001629f .LASF2419
C:\Users\SOLDER~1\AppData\Local\Temp\ccbih9yx.s:25877  .debug_str:000000000001e755 .LASF2420
C:\Users\SOLDER~1\AppData\Local\Temp\ccbih9yx.s:18627  .debug_str:0000000000000f3f .LASF2421
C:\Users\SOLDER~1\AppData\Local\Temp\ccbih9yx.s:18743  .debug_str:0000000000001687 .LASF2422
C:\Users\SOLDER~1\AppData\Local\Temp\ccbih9yx.s:19621  .debug_str:0000000000004e91 .LASF2423
C:\Users\SOLDER~1\AppData\Local\Temp\ccbih9yx.s:29565  .debug_str:000000000002d810 .LASF2424
C:\Users\SOLDER~1\AppData\Local\Temp\ccbih9yx.s:21221  .debug_str:000000000000b6fd .LASF2425
C:\Users\SOLDER~1\AppData\Local\Temp\ccbih9yx.s:23291  .debug_str:0000000000013f32 .LASF2426
C:\Users\SOLDER~1\AppData\Local\Temp\ccbih9yx.s:24113  .debug_str:0000000000017463 .LASF2427
C:\Users\SOLDER~1\AppData\Local\Temp\ccbih9yx.s:20011  .debug_str:0000000000006818 .LASF2428
C:\Users\SOLDER~1\AppData\Local\Temp\ccbih9yx.s:18745  .debug_str:00000000000016a9 .LASF2429
C:\Users\SOLDER~1\AppData\Local\Temp\ccbih9yx.s:23487  .debug_str:0000000000014c81 .LASF2430
C:\Users\SOLDER~1\AppData\Local\Temp\ccbih9yx.s:25563  .debug_str:000000000001d32f .LASF2431
C:\Users\SOLDER~1\AppData\Local\Temp\ccbih9yx.s:18443  .debug_str:000000000000025d .LASF2432
C:\Users\SOLDER~1\AppData\Local\Temp\ccbih9yx.s:18629  .debug_str:0000000000000f57 .LASF2433
C:\Users\SOLDER~1\AppData\Local\Temp\ccbih9yx.s:25147  .debug_str:000000000001b73a .LASF2434
C:\Users\SOLDER~1\AppData\Local\Temp\ccbih9yx.s:29173  .debug_str:000000000002beb5 .LASF2435
C:\Users\SOLDER~1\AppData\Local\Temp\ccbih9yx.s:18899  .debug_str:0000000000002071 .LASF2436
C:\Users\SOLDER~1\AppData\Local\Temp\ccbih9yx.s:29473  .debug_str:000000000002d245 .LASF2437
C:\Users\SOLDER~1\AppData\Local\Temp\ccbih9yx.s:27659  .debug_str:0000000000025b99 .LASF2438
C:\Users\SOLDER~1\AppData\Local\Temp\ccbih9yx.s:28805  .debug_str:000000000002a6dc .LASF2439
C:\Users\SOLDER~1\AppData\Local\Temp\ccbih9yx.s:24307  .debug_str:0000000000018149 .LASF2440
C:\Users\SOLDER~1\AppData\Local\Temp\ccbih9yx.s:21597  .debug_str:000000000000d045 .LASF2441
C:\Users\SOLDER~1\AppData\Local\Temp\ccbih9yx.s:23983  .debug_str:0000000000016beb .LASF2442
C:\Users\SOLDER~1\AppData\Local\Temp\ccbih9yx.s:29125  .debug_str:000000000002bb65 .LASF2443
C:\Users\SOLDER~1\AppData\Local\Temp\ccbih9yx.s:19147  .debug_str:00000000000030a3 .LASF2444
C:\Users\SOLDER~1\AppData\Local\Temp\ccbih9yx.s:21599  .debug_str:000000000000d05b .LASF2445
C:\Users\SOLDER~1\AppData\Local\Temp\ccbih9yx.s:25665  .debug_str:000000000001d94c .LASF2446
C:\Users\SOLDER~1\AppData\Local\Temp\ccbih9yx.s:21295  .debug_str:000000000000bc07 .LASF2447
C:\Users\SOLDER~1\AppData\Local\Temp\ccbih9yx.s:26451  .debug_str:0000000000020cbc .LASF2448
C:\Users\SOLDER~1\AppData\Local\Temp\ccbih9yx.s:26191  .debug_str:000000000001fbf2 .LASF2449
C:\Users\SOLDER~1\AppData\Local\Temp\ccbih9yx.s:23481  .debug_str:0000000000014c2c .LASF2450
C:\Users\SOLDER~1\AppData\Local\Temp\ccbih9yx.s:23841  .debug_str:000000000001633f .LASF2451
C:\Users\SOLDER~1\AppData\Local\Temp\ccbih9yx.s:23051  .debug_str:0000000000012e81 .LASF2452
C:\Users\SOLDER~1\AppData\Local\Temp\ccbih9yx.s:27277  .debug_str:0000000000024241 .LASF2453
GAS LISTING C:\Users\SOLDER~1\AppData\Local\Temp\ccbih9yx.s 			page 54


C:\Users\SOLDER~1\AppData\Local\Temp\ccbih9yx.s:21683  .debug_str:000000000000d5cb .LASF2454
C:\Users\SOLDER~1\AppData\Local\Temp\ccbih9yx.s:28907  .debug_str:000000000002ad3e .LASF2455
C:\Users\SOLDER~1\AppData\Local\Temp\ccbih9yx.s:27461  .debug_str:0000000000024e64 .LASF2456
C:\Users\SOLDER~1\AppData\Local\Temp\ccbih9yx.s:21903  .debug_str:000000000000e476 .LASF2457
C:\Users\SOLDER~1\AppData\Local\Temp\ccbih9yx.s:28281  .debug_str:00000000000284d1 .LASF2458
C:\Users\SOLDER~1\AppData\Local\Temp\ccbih9yx.s:21603  .debug_str:000000000000d098 .LASF2459
C:\Users\SOLDER~1\AppData\Local\Temp\ccbih9yx.s:26323  .debug_str:0000000000020477 .LASF2460
C:\Users\SOLDER~1\AppData\Local\Temp\ccbih9yx.s:18851  .debug_str:0000000000001d7e .LASF2461
C:\Users\SOLDER~1\AppData\Local\Temp\ccbih9yx.s:27769  .debug_str:0000000000026360 .LASF2462
C:\Users\SOLDER~1\AppData\Local\Temp\ccbih9yx.s:21467  .debug_str:000000000000c793 .LASF2463
C:\Users\SOLDER~1\AppData\Local\Temp\ccbih9yx.s:27985  .debug_str:00000000000271a5 .LASF2464
C:\Users\SOLDER~1\AppData\Local\Temp\ccbih9yx.s:20541  .debug_str:0000000000008a52 .LASF2465
C:\Users\SOLDER~1\AppData\Local\Temp\ccbih9yx.s:21727  .debug_str:000000000000d8b3 .LASF2466
C:\Users\SOLDER~1\AppData\Local\Temp\ccbih9yx.s:22175  .debug_str:000000000000f5b9 .LASF2467
C:\Users\SOLDER~1\AppData\Local\Temp\ccbih9yx.s:20413  .debug_str:0000000000008213 .LASF2468
C:\Users\SOLDER~1\AppData\Local\Temp\ccbih9yx.s:19331  .debug_str:0000000000003c81 .LASF2469
C:\Users\SOLDER~1\AppData\Local\Temp\ccbih9yx.s:25329  .debug_str:000000000001c34f .LASF2470
C:\Users\SOLDER~1\AppData\Local\Temp\ccbih9yx.s:27709  .debug_str:0000000000025f36 .LASF2471
C:\Users\SOLDER~1\AppData\Local\Temp\ccbih9yx.s:26747  .debug_str:0000000000021fbc .LASF2472
C:\Users\SOLDER~1\AppData\Local\Temp\ccbih9yx.s:25213  .debug_str:000000000001bb5d .LASF2473
C:\Users\SOLDER~1\AppData\Local\Temp\ccbih9yx.s:23383  .debug_str:000000000001457d .LASF2474
C:\Users\SOLDER~1\AppData\Local\Temp\ccbih9yx.s:29297  .debug_str:000000000002c6c1 .LASF2475
C:\Users\SOLDER~1\AppData\Local\Temp\ccbih9yx.s:29913  .debug_str:000000000002ee1f .LASF2476
C:\Users\SOLDER~1\AppData\Local\Temp\ccbih9yx.s:28985  .debug_str:000000000002b299 .LASF2477
C:\Users\SOLDER~1\AppData\Local\Temp\ccbih9yx.s:19265  .debug_str:0000000000003834 .LASF2478
C:\Users\SOLDER~1\AppData\Local\Temp\ccbih9yx.s:29557  .debug_str:000000000002d7a1 .LASF2479
C:\Users\SOLDER~1\AppData\Local\Temp\ccbih9yx.s:26199  .debug_str:000000000001fc6d .LASF2480
C:\Users\SOLDER~1\AppData\Local\Temp\ccbih9yx.s:21677  .debug_str:000000000000d577 .LASF2481
C:\Users\SOLDER~1\AppData\Local\Temp\ccbih9yx.s:27239  .debug_str:0000000000023fb1 .LASF2482
C:\Users\SOLDER~1\AppData\Local\Temp\ccbih9yx.s:23415  .debug_str:0000000000014784 .LASF2483
C:\Users\SOLDER~1\AppData\Local\Temp\ccbih9yx.s:26557  .debug_str:00000000000213b0 .LASF2484
C:\Users\SOLDER~1\AppData\Local\Temp\ccbih9yx.s:25013  .debug_str:000000000001aef1 .LASF2485
C:\Users\SOLDER~1\AppData\Local\Temp\ccbih9yx.s:20303  .debug_str:0000000000007ab6 .LASF2486
C:\Users\SOLDER~1\AppData\Local\Temp\ccbih9yx.s:27735  .debug_str:00000000000260e4 .LASF2487
C:\Users\SOLDER~1\AppData\Local\Temp\ccbih9yx.s:25087  .debug_str:000000000001b36e .LASF2488
C:\Users\SOLDER~1\AppData\Local\Temp\ccbih9yx.s:24527  .debug_str:0000000000018f9e .LASF2489
C:\Users\SOLDER~1\AppData\Local\Temp\ccbih9yx.s:29221  .debug_str:000000000002c1f9 .LASF2490
C:\Users\SOLDER~1\AppData\Local\Temp\ccbih9yx.s:29213  .debug_str:000000000002c18c .LASF2491
C:\Users\SOLDER~1\AppData\Local\Temp\ccbih9yx.s:24693  .debug_str:0000000000019a3e .LASF2492
C:\Users\SOLDER~1\AppData\Local\Temp\ccbih9yx.s:29837  .debug_str:000000000002e97a .LASF2493
C:\Users\SOLDER~1\AppData\Local\Temp\ccbih9yx.s:19357  .debug_str:0000000000003e30 .LASF2494
C:\Users\SOLDER~1\AppData\Local\Temp\ccbih9yx.s:25209  .debug_str:000000000001bb23 .LASF2495
C:\Users\SOLDER~1\AppData\Local\Temp\ccbih9yx.s:24597  .debug_str:0000000000019439 .LASF2496
C:\Users\SOLDER~1\AppData\Local\Temp\ccbih9yx.s:26373  .debug_str:00000000000207b4 .LASF2497
C:\Users\SOLDER~1\AppData\Local\Temp\ccbih9yx.s:24643  .debug_str:0000000000019729 .LASF2498
C:\Users\SOLDER~1\AppData\Local\Temp\ccbih9yx.s:27661  .debug_str:0000000000025bbb .LASF2499
C:\Users\SOLDER~1\AppData\Local\Temp\ccbih9yx.s:28283  .debug_str:00000000000284f4 .LASF2500
C:\Users\SOLDER~1\AppData\Local\Temp\ccbih9yx.s:24737  .debug_str:0000000000019d08 .LASF2501
C:\Users\SOLDER~1\AppData\Local\Temp\ccbih9yx.s:29237  .debug_str:000000000002c305 .LASF2502
C:\Users\SOLDER~1\AppData\Local\Temp\ccbih9yx.s:21357  .debug_str:000000000000bfec .LASF2503
C:\Users\SOLDER~1\AppData\Local\Temp\ccbih9yx.s:24285  .debug_str:0000000000017fc8 .LASF2504
C:\Users\SOLDER~1\AppData\Local\Temp\ccbih9yx.s:25463  .debug_str:000000000001cc4f .LASF2505
C:\Users\SOLDER~1\AppData\Local\Temp\ccbih9yx.s:22699  .debug_str:00000000000117e3 .LASF2506
C:\Users\SOLDER~1\AppData\Local\Temp\ccbih9yx.s:25083  .debug_str:000000000001b333 .LASF2507
C:\Users\SOLDER~1\AppData\Local\Temp\ccbih9yx.s:23505  .debug_str:0000000000014d9e .LASF2508
C:\Users\SOLDER~1\AppData\Local\Temp\ccbih9yx.s:20899  .debug_str:000000000000a1fe .LASF2509
C:\Users\SOLDER~1\AppData\Local\Temp\ccbih9yx.s:20621  .debug_str:0000000000008fbf .LASF2510
GAS LISTING C:\Users\SOLDER~1\AppData\Local\Temp\ccbih9yx.s 			page 55


C:\Users\SOLDER~1\AppData\Local\Temp\ccbih9yx.s:18555  .debug_str:0000000000000a76 .LASF2511
C:\Users\SOLDER~1\AppData\Local\Temp\ccbih9yx.s:19973  .debug_str:0000000000006543 .LASF2512
C:\Users\SOLDER~1\AppData\Local\Temp\ccbih9yx.s:19551  .debug_str:0000000000004a1e .LASF2513
C:\Users\SOLDER~1\AppData\Local\Temp\ccbih9yx.s:19291  .debug_str:00000000000039e8 .LASF2514
C:\Users\SOLDER~1\AppData\Local\Temp\ccbih9yx.s:21155  .debug_str:000000000000b2c5 .LASF2515
C:\Users\SOLDER~1\AppData\Local\Temp\ccbih9yx.s:24553  .debug_str:0000000000019134 .LASF2516
C:\Users\SOLDER~1\AppData\Local\Temp\ccbih9yx.s:19725  .debug_str:00000000000054c7 .LASF2517
C:\Users\SOLDER~1\AppData\Local\Temp\ccbih9yx.s:21925  .debug_str:000000000000e5a0 .LASF2518
C:\Users\SOLDER~1\AppData\Local\Temp\ccbih9yx.s:27419  .debug_str:0000000000024bb2 .LASF2519
C:\Users\SOLDER~1\AppData\Local\Temp\ccbih9yx.s:20673  .debug_str:000000000000934c .LASF2520
C:\Users\SOLDER~1\AppData\Local\Temp\ccbih9yx.s:28909  .debug_str:000000000002ad56 .LASF2521
C:\Users\SOLDER~1\AppData\Local\Temp\ccbih9yx.s:21433  .debug_str:000000000000c54c .LASF2522
C:\Users\SOLDER~1\AppData\Local\Temp\ccbih9yx.s:27197  .debug_str:0000000000023ce9 .LASF2523
C:\Users\SOLDER~1\AppData\Local\Temp\ccbih9yx.s:22251  .debug_str:000000000000fb08 .LASF2524
C:\Users\SOLDER~1\AppData\Local\Temp\ccbih9yx.s:27837  .debug_str:00000000000267ee .LASF2525
C:\Users\SOLDER~1\AppData\Local\Temp\ccbih9yx.s:19575  .debug_str:0000000000004bc9 .LASF2526
C:\Users\SOLDER~1\AppData\Local\Temp\ccbih9yx.s:19197  .debug_str:00000000000033f2 .LASF2527
C:\Users\SOLDER~1\AppData\Local\Temp\ccbih9yx.s:26603  .debug_str:00000000000216b6 .LASF2528
C:\Users\SOLDER~1\AppData\Local\Temp\ccbih9yx.s:24571  .debug_str:000000000001926d .LASF2529
C:\Users\SOLDER~1\AppData\Local\Temp\ccbih9yx.s:19649  .debug_str:0000000000005023 .LASF2530
C:\Users\SOLDER~1\AppData\Local\Temp\ccbih9yx.s:28363  .debug_str:0000000000028a3d .LASF2531
C:\Users\SOLDER~1\AppData\Local\Temp\ccbih9yx.s:19601  .debug_str:0000000000004d5e .LASF2532
C:\Users\SOLDER~1\AppData\Local\Temp\ccbih9yx.s:29697  .debug_str:000000000002e068 .LASF2533
C:\Users\SOLDER~1\AppData\Local\Temp\ccbih9yx.s:18805  .debug_str:0000000000001a61 .LASF2534
C:\Users\SOLDER~1\AppData\Local\Temp\ccbih9yx.s:19459  .debug_str:0000000000004459 .LASF2535
C:\Users\SOLDER~1\AppData\Local\Temp\ccbih9yx.s:24743  .debug_str:0000000000019d54 .LASF2536
C:\Users\SOLDER~1\AppData\Local\Temp\ccbih9yx.s:26303  .debug_str:0000000000020319 .LASF2537
C:\Users\SOLDER~1\AppData\Local\Temp\ccbih9yx.s:19123  .debug_str:0000000000002f38 .LASF2538
C:\Users\SOLDER~1\AppData\Local\Temp\ccbih9yx.s:22149  .debug_str:000000000000f40e .LASF2539
C:\Users\SOLDER~1\AppData\Local\Temp\ccbih9yx.s:25059  .debug_str:000000000001b1ad .LASF2540
C:\Users\SOLDER~1\AppData\Local\Temp\ccbih9yx.s:28955  .debug_str:000000000002b0c6 .LASF2541
C:\Users\SOLDER~1\AppData\Local\Temp\ccbih9yx.s:19349  .debug_str:0000000000003da3 .LASF2542
C:\Users\SOLDER~1\AppData\Local\Temp\ccbih9yx.s:24779  .debug_str:0000000000019fa7 .LASF2543
C:\Users\SOLDER~1\AppData\Local\Temp\ccbih9yx.s:22889  .debug_str:00000000000123ba .LASF2544
C:\Users\SOLDER~1\AppData\Local\Temp\ccbih9yx.s:18633  .debug_str:0000000000000f91 .LASF2545
C:\Users\SOLDER~1\AppData\Local\Temp\ccbih9yx.s:29075  .debug_str:000000000002b857 .LASF2546
C:\Users\SOLDER~1\AppData\Local\Temp\ccbih9yx.s:20219  .debug_str:000000000000756f .LASF2547
C:\Users\SOLDER~1\AppData\Local\Temp\ccbih9yx.s:28269  .debug_str:000000000002841d .LASF2548
C:\Users\SOLDER~1\AppData\Local\Temp\ccbih9yx.s:21793  .debug_str:000000000000dce1 .LASF2549
C:\Users\SOLDER~1\AppData\Local\Temp\ccbih9yx.s:27633  .debug_str:00000000000259ca .LASF2550
C:\Users\SOLDER~1\AppData\Local\Temp\ccbih9yx.s:23333  .debug_str:000000000001422a .LASF2551
C:\Users\SOLDER~1\AppData\Local\Temp\ccbih9yx.s:21101  .debug_str:000000000000af69 .LASF2552
C:\Users\SOLDER~1\AppData\Local\Temp\ccbih9yx.s:24931  .debug_str:000000000001a951 .LASF2553
C:\Users\SOLDER~1\AppData\Local\Temp\ccbih9yx.s:20971  .debug_str:000000000000a6f1 .LASF2554
C:\Users\SOLDER~1\AppData\Local\Temp\ccbih9yx.s:26401  .debug_str:0000000000020991 .LASF2555
C:\Users\SOLDER~1\AppData\Local\Temp\ccbih9yx.s:19689  .debug_str:00000000000052c6 .LASF2556
C:\Users\SOLDER~1\AppData\Local\Temp\ccbih9yx.s:24653  .debug_str:00000000000197a4 .LASF2557
C:\Users\SOLDER~1\AppData\Local\Temp\ccbih9yx.s:24695  .debug_str:0000000000019a61 .LASF2558
C:\Users\SOLDER~1\AppData\Local\Temp\ccbih9yx.s:25029  .debug_str:000000000001afe8 .LASF2559
C:\Users\SOLDER~1\AppData\Local\Temp\ccbih9yx.s:21029  .debug_str:000000000000aaaf .LASF2560
C:\Users\SOLDER~1\AppData\Local\Temp\ccbih9yx.s:26497  .debug_str:0000000000020fc5 .LASF2561
C:\Users\SOLDER~1\AppData\Local\Temp\ccbih9yx.s:24289  .debug_str:0000000000018013 .LASF2562
C:\Users\SOLDER~1\AppData\Local\Temp\ccbih9yx.s:28097  .debug_str:00000000000278d6 .LASF2563
C:\Users\SOLDER~1\AppData\Local\Temp\ccbih9yx.s:29303  .debug_str:000000000002c702 .LASF2564
C:\Users\SOLDER~1\AppData\Local\Temp\ccbih9yx.s:29731  .debug_str:000000000002e276 .LASF2565
C:\Users\SOLDER~1\AppData\Local\Temp\ccbih9yx.s:22747  .debug_str:0000000000011aea .LASF2566
C:\Users\SOLDER~1\AppData\Local\Temp\ccbih9yx.s:19695  .debug_str:000000000000531f .LASF2567
GAS LISTING C:\Users\SOLDER~1\AppData\Local\Temp\ccbih9yx.s 			page 56


C:\Users\SOLDER~1\AppData\Local\Temp\ccbih9yx.s:27767  .debug_str:000000000002633b .LASF2568
C:\Users\SOLDER~1\AppData\Local\Temp\ccbih9yx.s:21299  .debug_str:000000000000bc44 .LASF2569
C:\Users\SOLDER~1\AppData\Local\Temp\ccbih9yx.s:21327  .debug_str:000000000000bdf2 .LASF2570
C:\Users\SOLDER~1\AppData\Local\Temp\ccbih9yx.s:22909  .debug_str:0000000000012547 .LASF2571
C:\Users\SOLDER~1\AppData\Local\Temp\ccbih9yx.s:26289  .debug_str:000000000002021a .LASF2572
C:\Users\SOLDER~1\AppData\Local\Temp\ccbih9yx.s:25749  .debug_str:000000000001df0a .LASF2573
C:\Users\SOLDER~1\AppData\Local\Temp\ccbih9yx.s:19079  .debug_str:0000000000002c25 .LASF2574
C:\Users\SOLDER~1\AppData\Local\Temp\ccbih9yx.s:23895  .debug_str:000000000001666c .LASF2575
C:\Users\SOLDER~1\AppData\Local\Temp\ccbih9yx.s:25109  .debug_str:000000000001b4db .LASF2576
C:\Users\SOLDER~1\AppData\Local\Temp\ccbih9yx.s:21955  .debug_str:000000000000e7e4 .LASF2577
C:\Users\SOLDER~1\AppData\Local\Temp\ccbih9yx.s:25755  .debug_str:000000000001df67 .LASF2578
C:\Users\SOLDER~1\AppData\Local\Temp\ccbih9yx.s:20075  .debug_str:0000000000006bf9 .LASF2579
C:\Users\SOLDER~1\AppData\Local\Temp\ccbih9yx.s:21439  .debug_str:000000000000c5a4 .LASF2580
C:\Users\SOLDER~1\AppData\Local\Temp\ccbih9yx.s:29707  .debug_str:000000000002e0f6 .LASF2581
C:\Users\SOLDER~1\AppData\Local\Temp\ccbih9yx.s:27477  .debug_str:0000000000024f83 .LASF2582
C:\Users\SOLDER~1\AppData\Local\Temp\ccbih9yx.s:22749  .debug_str:0000000000011b0f .LASF2583
C:\Users\SOLDER~1\AppData\Local\Temp\ccbih9yx.s:26549  .debug_str:0000000000021335 .LASF2584
C:\Users\SOLDER~1\AppData\Local\Temp\ccbih9yx.s:25905  .debug_str:000000000001e937 .LASF2585
C:\Users\SOLDER~1\AppData\Local\Temp\ccbih9yx.s:22083  .debug_str:000000000000efcd .LASF2586
C:\Users\SOLDER~1\AppData\Local\Temp\ccbih9yx.s:24051  .debug_str:000000000001703b .LASF2587
C:\Users\SOLDER~1\AppData\Local\Temp\ccbih9yx.s:18713  .debug_str:00000000000014aa .LASF2588
C:\Users\SOLDER~1\AppData\Local\Temp\ccbih9yx.s:22117  .debug_str:000000000000f1ff .LASF2589
C:\Users\SOLDER~1\AppData\Local\Temp\ccbih9yx.s:21895  .debug_str:000000000000e3e8 .LASF2590
C:\Users\SOLDER~1\AppData\Local\Temp\ccbih9yx.s:24891  .debug_str:000000000001a6d7 .LASF2591
C:\Users\SOLDER~1\AppData\Local\Temp\ccbih9yx.s:19633  .debug_str:0000000000004f39 .LASF2592
C:\Users\SOLDER~1\AppData\Local\Temp\ccbih9yx.s:26141  .debug_str:000000000001f8cf .LASF2593
C:\Users\SOLDER~1\AppData\Local\Temp\ccbih9yx.s:25845  .debug_str:000000000001e4fb .LASF2594
C:\Users\SOLDER~1\AppData\Local\Temp\ccbih9yx.s:24459  .debug_str:0000000000018af2 .LASF2595
C:\Users\SOLDER~1\AppData\Local\Temp\ccbih9yx.s:18823  .debug_str:0000000000001ba0 .LASF2596
C:\Users\SOLDER~1\AppData\Local\Temp\ccbih9yx.s:22791  .debug_str:0000000000011dac .LASF2597
C:\Users\SOLDER~1\AppData\Local\Temp\ccbih9yx.s:29305  .debug_str:000000000002c727 .LASF2598
C:\Users\SOLDER~1\AppData\Local\Temp\ccbih9yx.s:21143  .debug_str:000000000000b1f7 .LASF2599
C:\Users\SOLDER~1\AppData\Local\Temp\ccbih9yx.s:25471  .debug_str:000000000001ccda .LASF2600
C:\Users\SOLDER~1\AppData\Local\Temp\ccbih9yx.s:19417  .debug_str:00000000000041cd .LASF2601
C:\Users\SOLDER~1\AppData\Local\Temp\ccbih9yx.s:21635  .debug_str:000000000000d2b2 .LASF2602
C:\Users\SOLDER~1\AppData\Local\Temp\ccbih9yx.s:29319  .debug_str:000000000002c811 .LASF2603
C:\Users\SOLDER~1\AppData\Local\Temp\ccbih9yx.s:24939  .debug_str:000000000001a9d0 .LASF2604
C:\Users\SOLDER~1\AppData\Local\Temp\ccbih9yx.s:24183  .debug_str:00000000000178ef .LASF2605
C:\Users\SOLDER~1\AppData\Local\Temp\ccbih9yx.s:20297  .debug_str:0000000000007a3f .LASF2606
C:\Users\SOLDER~1\AppData\Local\Temp\ccbih9yx.s:25949  .debug_str:000000000001ebfe .LASF2607
C:\Users\SOLDER~1\AppData\Local\Temp\ccbih9yx.s:29753  .debug_str:000000000002e3db .LASF2608
C:\Users\SOLDER~1\AppData\Local\Temp\ccbih9yx.s:24361  .debug_str:000000000001848b .LASF2609
C:\Users\SOLDER~1\AppData\Local\Temp\ccbih9yx.s:23391  .debug_str:000000000001461a .LASF2610
C:\Users\SOLDER~1\AppData\Local\Temp\ccbih9yx.s:22691  .debug_str:000000000001174f .LASF2611
C:\Users\SOLDER~1\AppData\Local\Temp\ccbih9yx.s:28595  .debug_str:00000000000298d7 .LASF2612
C:\Users\SOLDER~1\AppData\Local\Temp\ccbih9yx.s:22213  .debug_str:000000000000f87e .LASF2613
C:\Users\SOLDER~1\AppData\Local\Temp\ccbih9yx.s:19421  .debug_str:0000000000004202 .LASF2614
C:\Users\SOLDER~1\AppData\Local\Temp\ccbih9yx.s:18493  .debug_str:00000000000005c5 .LASF2615
C:\Users\SOLDER~1\AppData\Local\Temp\ccbih9yx.s:25351  .debug_str:000000000001c49e .LASF2616
C:\Users\SOLDER~1\AppData\Local\Temp\ccbih9yx.s:28075  .debug_str:0000000000027789 .LASF2617
C:\Users\SOLDER~1\AppData\Local\Temp\ccbih9yx.s:19947  .debug_str:000000000000638d .LASF2618
C:\Users\SOLDER~1\AppData\Local\Temp\ccbih9yx.s:26187  .debug_str:000000000001fbad .LASF2619
C:\Users\SOLDER~1\AppData\Local\Temp\ccbih9yx.s:26245  .debug_str:000000000001ff4f .LASF2620
C:\Users\SOLDER~1\AppData\Local\Temp\ccbih9yx.s:24385  .debug_str:000000000001862c .LASF2621
C:\Users\SOLDER~1\AppData\Local\Temp\ccbih9yx.s:26197  .debug_str:000000000001fc47 .LASF2622
C:\Users\SOLDER~1\AppData\Local\Temp\ccbih9yx.s:21567  .debug_str:000000000000ce45 .LASF2623
C:\Users\SOLDER~1\AppData\Local\Temp\ccbih9yx.s:26895  .debug_str:000000000002294a .LASF2624
GAS LISTING C:\Users\SOLDER~1\AppData\Local\Temp\ccbih9yx.s 			page 57


C:\Users\SOLDER~1\AppData\Local\Temp\ccbih9yx.s:20531  .debug_str:00000000000089b6 .LASF2625
C:\Users\SOLDER~1\AppData\Local\Temp\ccbih9yx.s:22453  .debug_str:0000000000010803 .LASF2626
C:\Users\SOLDER~1\AppData\Local\Temp\ccbih9yx.s:18649  .debug_str:000000000000106f .LASF2627
C:\Users\SOLDER~1\AppData\Local\Temp\ccbih9yx.s:19055  .debug_str:0000000000002ad6 .LASF2628
C:\Users\SOLDER~1\AppData\Local\Temp\ccbih9yx.s:28229  .debug_str:000000000002819f .LASF2629
C:\Users\SOLDER~1\AppData\Local\Temp\ccbih9yx.s:28721  .debug_str:000000000002a17d .LASF2630
C:\Users\SOLDER~1\AppData\Local\Temp\ccbih9yx.s:26423  .debug_str:0000000000020b10 .LASF2631
C:\Users\SOLDER~1\AppData\Local\Temp\ccbih9yx.s:19903  .debug_str:00000000000060a5 .LASF2632
C:\Users\SOLDER~1\AppData\Local\Temp\ccbih9yx.s:29877  .debug_str:000000000002ebd8 .LASF2633
C:\Users\SOLDER~1\AppData\Local\Temp\ccbih9yx.s:22609  .debug_str:00000000000111ce .LASF2634
C:\Users\SOLDER~1\AppData\Local\Temp\ccbih9yx.s:21997  .debug_str:000000000000ea3a .LASF2635
C:\Users\SOLDER~1\AppData\Local\Temp\ccbih9yx.s:27039  .debug_str:00000000000232d8 .LASF2636
C:\Users\SOLDER~1\AppData\Local\Temp\ccbih9yx.s:28161  .debug_str:0000000000027d23 .LASF2637
C:\Users\SOLDER~1\AppData\Local\Temp\ccbih9yx.s:26125  .debug_str:000000000001f7e0 .LASF2638
C:\Users\SOLDER~1\AppData\Local\Temp\ccbih9yx.s:18747  .debug_str:00000000000016ce .LASF2639
C:\Users\SOLDER~1\AppData\Local\Temp\ccbih9yx.s:24141  .debug_str:000000000001763f .LASF2640
C:\Users\SOLDER~1\AppData\Local\Temp\ccbih9yx.s:28619  .debug_str:0000000000029a7b .LASF2641
C:\Users\SOLDER~1\AppData\Local\Temp\ccbih9yx.s:20179  .debug_str:0000000000007302 .LASF2642
C:\Users\SOLDER~1\AppData\Local\Temp\ccbih9yx.s:26861  .debug_str:00000000000226f7 .LASF2643
C:\Users\SOLDER~1\AppData\Local\Temp\ccbih9yx.s:21649  .debug_str:000000000000d3b1 .LASF2644
C:\Users\SOLDER~1\AppData\Local\Temp\ccbih9yx.s:25265  .debug_str:000000000001bed8 .LASF2645
C:\Users\SOLDER~1\AppData\Local\Temp\ccbih9yx.s:23607  .debug_str:0000000000015435 .LASF2646
C:\Users\SOLDER~1\AppData\Local\Temp\ccbih9yx.s:23643  .debug_str:0000000000015693 .LASF2647
C:\Users\SOLDER~1\AppData\Local\Temp\ccbih9yx.s:26459  .debug_str:0000000000020d38 .LASF2648
C:\Users\SOLDER~1\AppData\Local\Temp\ccbih9yx.s:21885  .debug_str:000000000000e357 .LASF2649
C:\Users\SOLDER~1\AppData\Local\Temp\ccbih9yx.s:28105  .debug_str:0000000000027940 .LASF2650
C:\Users\SOLDER~1\AppData\Local\Temp\ccbih9yx.s:20285  .debug_str:0000000000007994 .LASF2651
C:\Users\SOLDER~1\AppData\Local\Temp\ccbih9yx.s:25325  .debug_str:000000000001c2df .LASF2652
C:\Users\SOLDER~1\AppData\Local\Temp\ccbih9yx.s:20881  .debug_str:000000000000a0ce .LASF2653
C:\Users\SOLDER~1\AppData\Local\Temp\ccbih9yx.s:19023  .debug_str:00000000000028d0 .LASF2654
C:\Users\SOLDER~1\AppData\Local\Temp\ccbih9yx.s:19003  .debug_str:000000000000275f .LASF2655
C:\Users\SOLDER~1\AppData\Local\Temp\ccbih9yx.s:25053  .debug_str:000000000001b148 .LASF2656
C:\Users\SOLDER~1\AppData\Local\Temp\ccbih9yx.s:26963  .debug_str:0000000000022dd8 .LASF2657
C:\Users\SOLDER~1\AppData\Local\Temp\ccbih9yx.s:19739  .debug_str:00000000000055a1 .LASF2658
C:\Users\SOLDER~1\AppData\Local\Temp\ccbih9yx.s:26703  .debug_str:0000000000021d19 .LASF2659
C:\Users\SOLDER~1\AppData\Local\Temp\ccbih9yx.s:25833  .debug_str:000000000001e431 .LASF2660
C:\Users\SOLDER~1\AppData\Local\Temp\ccbih9yx.s:24855  .debug_str:000000000001a479 .LASF2661
C:\Users\SOLDER~1\AppData\Local\Temp\ccbih9yx.s:25799  .debug_str:000000000001e226 .LASF2662
C:\Users\SOLDER~1\AppData\Local\Temp\ccbih9yx.s:22943  .debug_str:0000000000012747 .LASF2663
C:\Users\SOLDER~1\AppData\Local\Temp\ccbih9yx.s:26493  .debug_str:0000000000020f65 .LASF2664
C:\Users\SOLDER~1\AppData\Local\Temp\ccbih9yx.s:21049  .debug_str:000000000000abee .LASF2665
C:\Users\SOLDER~1\AppData\Local\Temp\ccbih9yx.s:22023  .debug_str:000000000000ebfd .LASF2666
C:\Users\SOLDER~1\AppData\Local\Temp\ccbih9yx.s:19163  .debug_str:00000000000031c8 .LASF2667
C:\Users\SOLDER~1\AppData\Local\Temp\ccbih9yx.s:18669  .debug_str:00000000000011c0 .LASF2668
C:\Users\SOLDER~1\AppData\Local\Temp\ccbih9yx.s:19481  .debug_str:00000000000045b8 .LASF2669
C:\Users\SOLDER~1\AppData\Local\Temp\ccbih9yx.s:27377  .debug_str:00000000000248fc .LASF2670
C:\Users\SOLDER~1\AppData\Local\Temp\ccbih9yx.s:26851  .debug_str:0000000000022661 .LASF2671
C:\Users\SOLDER~1\AppData\Local\Temp\ccbih9yx.s:19577  .debug_str:0000000000004be9 .LASF2672
C:\Users\SOLDER~1\AppData\Local\Temp\ccbih9yx.s:27531  .debug_str:00000000000252d7 .LASF2673
C:\Users\SOLDER~1\AppData\Local\Temp\ccbih9yx.s:26577  .debug_str:000000000002150e .LASF2674
C:\Users\SOLDER~1\AppData\Local\Temp\ccbih9yx.s:25929  .debug_str:000000000001eac6 .LASF2675
C:\Users\SOLDER~1\AppData\Local\Temp\ccbih9yx.s:24697  .debug_str:0000000000019a86 .LASF2676
C:\Users\SOLDER~1\AppData\Local\Temp\ccbih9yx.s:24335  .debug_str:00000000000182fd .LASF2677
C:\Users\SOLDER~1\AppData\Local\Temp\ccbih9yx.s:23761  .debug_str:0000000000015e15 .LASF2678
C:\Users\SOLDER~1\AppData\Local\Temp\ccbih9yx.s:22669  .debug_str:00000000000115fb .LASF2679
C:\Users\SOLDER~1\AppData\Local\Temp\ccbih9yx.s:19913  .debug_str:0000000000006150 .LASF2680
C:\Users\SOLDER~1\AppData\Local\Temp\ccbih9yx.s:20927  .debug_str:000000000000a3cd .LASF2681
GAS LISTING C:\Users\SOLDER~1\AppData\Local\Temp\ccbih9yx.s 			page 58


C:\Users\SOLDER~1\AppData\Local\Temp\ccbih9yx.s:29385  .debug_str:000000000002cc2d .LASF2682
C:\Users\SOLDER~1\AppData\Local\Temp\ccbih9yx.s:19309  .debug_str:0000000000003b27 .LASF2683
C:\Users\SOLDER~1\AppData\Local\Temp\ccbih9yx.s:19347  .debug_str:0000000000003d7c .LASF2684
C:\Users\SOLDER~1\AppData\Local\Temp\ccbih9yx.s:25869  .debug_str:000000000001e6cd .LASF2685
C:\Users\SOLDER~1\AppData\Local\Temp\ccbih9yx.s:26139  .debug_str:000000000001f8a8 .LASF2686
C:\Users\SOLDER~1\AppData\Local\Temp\ccbih9yx.s:27429  .debug_str:0000000000024c5f .LASF2687
C:\Users\SOLDER~1\AppData\Local\Temp\ccbih9yx.s:24219  .debug_str:0000000000017b3a .LASF2688
C:\Users\SOLDER~1\AppData\Local\Temp\ccbih9yx.s:25823  .debug_str:000000000001e3a8 .LASF2689
C:\Users\SOLDER~1\AppData\Local\Temp\ccbih9yx.s:25727  .debug_str:000000000001dd77 .LASF2690
C:\Users\SOLDER~1\AppData\Local\Temp\ccbih9yx.s:24245  .debug_str:0000000000017cf3 .LASF2691
C:\Users\SOLDER~1\AppData\Local\Temp\ccbih9yx.s:26951  .debug_str:0000000000022d18 .LASF2692
C:\Users\SOLDER~1\AppData\Local\Temp\ccbih9yx.s:19709  .debug_str:00000000000053e3 .LASF2693
C:\Users\SOLDER~1\AppData\Local\Temp\ccbih9yx.s:18915  .debug_str:000000000000218d .LASF2694
C:\Users\SOLDER~1\AppData\Local\Temp\ccbih9yx.s:29347  .debug_str:000000000002c9d1 .LASF2695
C:\Users\SOLDER~1\AppData\Local\Temp\ccbih9yx.s:23151  .debug_str:000000000001353d .LASF2696
C:\Users\SOLDER~1\AppData\Local\Temp\ccbih9yx.s:23069  .debug_str:0000000000012fc1 .LASF2697
C:\Users\SOLDER~1\AppData\Local\Temp\ccbih9yx.s:19517  .debug_str:0000000000004821 .LASF2698
C:\Users\SOLDER~1\AppData\Local\Temp\ccbih9yx.s:25549  .debug_str:000000000001d22f .LASF2699
C:\Users\SOLDER~1\AppData\Local\Temp\ccbih9yx.s:25821  .debug_str:000000000001e382 .LASF2700
C:\Users\SOLDER~1\AppData\Local\Temp\ccbih9yx.s:29897  .debug_str:000000000002ed1c .LASF2701
C:\Users\SOLDER~1\AppData\Local\Temp\ccbih9yx.s:25783  .debug_str:000000000001e12a .LASF2702
C:\Users\SOLDER~1\AppData\Local\Temp\ccbih9yx.s:21757  .debug_str:000000000000da6e .LASF2703
C:\Users\SOLDER~1\AppData\Local\Temp\ccbih9yx.s:26389  .debug_str:00000000000208b9 .LASF2704
C:\Users\SOLDER~1\AppData\Local\Temp\ccbih9yx.s:19879  .debug_str:0000000000005edd .LASF2705
C:\Users\SOLDER~1\AppData\Local\Temp\ccbih9yx.s:21907  .debug_str:000000000000e499 .LASF2706
C:\Users\SOLDER~1\AppData\Local\Temp\ccbih9yx.s:29497  .debug_str:000000000002d3ae .LASF2707
C:\Users\SOLDER~1\AppData\Local\Temp\ccbih9yx.s:23411  .debug_str:0000000000014740 .LASF2708
C:\Users\SOLDER~1\AppData\Local\Temp\ccbih9yx.s:27657  .debug_str:0000000000025b81 .LASF2709
C:\Users\SOLDER~1\AppData\Local\Temp\ccbih9yx.s:28295  .debug_str:00000000000285b3 .LASF2710
C:\Users\SOLDER~1\AppData\Local\Temp\ccbih9yx.s:25795  .debug_str:000000000001e1e3 .LASF2711
C:\Users\SOLDER~1\AppData\Local\Temp\ccbih9yx.s:26185  .debug_str:000000000001fb87 .LASF2712
C:\Users\SOLDER~1\AppData\Local\Temp\ccbih9yx.s:24205  .debug_str:0000000000017a5d .LASF2713
C:\Users\SOLDER~1\AppData\Local\Temp\ccbih9yx.s:26515  .debug_str:000000000002110b .LASF2714
C:\Users\SOLDER~1\AppData\Local\Temp\ccbih9yx.s:20595  .debug_str:0000000000008e03 .LASF2715
C:\Users\SOLDER~1\AppData\Local\Temp\ccbih9yx.s:19387  .debug_str:0000000000003fc3 .LASF2716
C:\Users\SOLDER~1\AppData\Local\Temp\ccbih9yx.s:20795  .debug_str:0000000000009b06 .LASF2717
C:\Users\SOLDER~1\AppData\Local\Temp\ccbih9yx.s:18577  .debug_str:0000000000000bef .LASF2718
C:\Users\SOLDER~1\AppData\Local\Temp\ccbih9yx.s:18413  .debug_str:00000000000000a4 .LASF2719
C:\Users\SOLDER~1\AppData\Local\Temp\ccbih9yx.s:26249  .debug_str:000000000001ff89 .LASF2720
C:\Users\SOLDER~1\AppData\Local\Temp\ccbih9yx.s:24315  .debug_str:00000000000181bf .LASF2721
C:\Users\SOLDER~1\AppData\Local\Temp\ccbih9yx.s:27045  .debug_str:0000000000023348 .LASF2722
C:\Users\SOLDER~1\AppData\Local\Temp\ccbih9yx.s:27285  .debug_str:00000000000242ca .LASF2723
C:\Users\SOLDER~1\AppData\Local\Temp\ccbih9yx.s:25597  .debug_str:000000000001d558 .LASF2724
C:\Users\SOLDER~1\AppData\Local\Temp\ccbih9yx.s:25679  .debug_str:000000000001da3f .LASF2725
C:\Users\SOLDER~1\AppData\Local\Temp\ccbih9yx.s:20961  .debug_str:000000000000a640 .LASF2726
C:\Users\SOLDER~1\AppData\Local\Temp\ccbih9yx.s:24097  .debug_str:0000000000017333 .LASF2727
C:\Users\SOLDER~1\AppData\Local\Temp\ccbih9yx.s:18901  .debug_str:0000000000002091 .LASF2728
C:\Users\SOLDER~1\AppData\Local\Temp\ccbih9yx.s:22349  .debug_str:000000000001016f .LASF2729
C:\Users\SOLDER~1\AppData\Local\Temp\ccbih9yx.s:20567  .debug_str:0000000000008bea .LASF2730
C:\Users\SOLDER~1\AppData\Local\Temp\ccbih9yx.s:20707  .debug_str:000000000000957e .LASF2731
C:\Users\SOLDER~1\AppData\Local\Temp\ccbih9yx.s:29273  .debug_str:000000000002c530 .LASF2732
C:\Users\SOLDER~1\AppData\Local\Temp\ccbih9yx.s:29407  .debug_str:000000000002cdb6 .LASF2733
C:\Users\SOLDER~1\AppData\Local\Temp\ccbih9yx.s:27637  .debug_str:0000000000025a0a .LASF2734
C:\Users\SOLDER~1\AppData\Local\Temp\ccbih9yx.s:27479  .debug_str:0000000000024faa .LASF2735
C:\Users\SOLDER~1\AppData\Local\Temp\ccbih9yx.s:22167  .debug_str:000000000000f51f .LASF2736
C:\Users\SOLDER~1\AppData\Local\Temp\ccbih9yx.s:25607  .debug_str:000000000001d5f6 .LASF2737
C:\Users\SOLDER~1\AppData\Local\Temp\ccbih9yx.s:28259  .debug_str:000000000002837f .LASF2738
GAS LISTING C:\Users\SOLDER~1\AppData\Local\Temp\ccbih9yx.s 			page 59


C:\Users\SOLDER~1\AppData\Local\Temp\ccbih9yx.s:23747  .debug_str:0000000000015d45 .LASF2739
C:\Users\SOLDER~1\AppData\Local\Temp\ccbih9yx.s:23065  .debug_str:0000000000012f6f .LASF2740
C:\Users\SOLDER~1\AppData\Local\Temp\ccbih9yx.s:20463  .debug_str:0000000000008547 .LASF2741
C:\Users\SOLDER~1\AppData\Local\Temp\ccbih9yx.s:19305  .debug_str:0000000000003ad4 .LASF2742
C:\Users\SOLDER~1\AppData\Local\Temp\ccbih9yx.s:24581  .debug_str:000000000001930e .LASF2743
C:\Users\SOLDER~1\AppData\Local\Temp\ccbih9yx.s:23665  .debug_str:00000000000157fa .LASF2744
C:\Users\SOLDER~1\AppData\Local\Temp\ccbih9yx.s:29559  .debug_str:000000000002d7b8 .LASF2745
C:\Users\SOLDER~1\AppData\Local\Temp\ccbih9yx.s:19161  .debug_str:000000000000319d .LASF2746
C:\Users\SOLDER~1\AppData\Local\Temp\ccbih9yx.s:27631  .debug_str:00000000000259ad .LASF2747
C:\Users\SOLDER~1\AppData\Local\Temp\ccbih9yx.s:27261  .debug_str:0000000000024135 .LASF2748
C:\Users\SOLDER~1\AppData\Local\Temp\ccbih9yx.s:25769  .debug_str:000000000001e03a .LASF2749
C:\Users\SOLDER~1\AppData\Local\Temp\ccbih9yx.s:25541  .debug_str:000000000001d1a3 .LASF2750
C:\Users\SOLDER~1\AppData\Local\Temp\ccbih9yx.s:23999  .debug_str:0000000000016cca .LASF2751
C:\Users\SOLDER~1\AppData\Local\Temp\ccbih9yx.s:28203  .debug_str:0000000000027fe5 .LASF2752
C:\Users\SOLDER~1\AppData\Local\Temp\ccbih9yx.s:19509  .debug_str:000000000000479f .LASF2753
C:\Users\SOLDER~1\AppData\Local\Temp\ccbih9yx.s:22561  .debug_str:0000000000010ed0 .LASF2754
C:\Users\SOLDER~1\AppData\Local\Temp\ccbih9yx.s:29397  .debug_str:000000000002ccff .LASF2755
C:\Users\SOLDER~1\AppData\Local\Temp\ccbih9yx.s:26511  .debug_str:00000000000210bd .LASF2756
C:\Users\SOLDER~1\AppData\Local\Temp\ccbih9yx.s:27733  .debug_str:00000000000260c5 .LASF2757
C:\Users\SOLDER~1\AppData\Local\Temp\ccbih9yx.s:28765  .debug_str:000000000002a445 .LASF2758
C:\Users\SOLDER~1\AppData\Local\Temp\ccbih9yx.s:26047  .debug_str:000000000001f285 .LASF2759
C:\Users\SOLDER~1\AppData\Local\Temp\ccbih9yx.s:24959  .debug_str:000000000001ab16 .LASF2760
C:\Users\SOLDER~1\AppData\Local\Temp\ccbih9yx.s:24445  .debug_str:0000000000018a14 .LASF2761
C:\Users\SOLDER~1\AppData\Local\Temp\ccbih9yx.s:22899  .debug_str:000000000001246a .LASF2762
C:\Users\SOLDER~1\AppData\Local\Temp\ccbih9yx.s:22779  .debug_str:0000000000011cfd .LASF2763
C:\Users\SOLDER~1\AppData\Local\Temp\ccbih9yx.s:24431  .debug_str:00000000000188fc .LASF2764
C:\Users\SOLDER~1\AppData\Local\Temp\ccbih9yx.s:21045  .debug_str:000000000000abaf .LASF2765
C:\Users\SOLDER~1\AppData\Local\Temp\ccbih9yx.s:19655  .debug_str:000000000000507d .LASF2766
C:\Users\SOLDER~1\AppData\Local\Temp\ccbih9yx.s:21783  .debug_str:000000000000dc38 .LASF2767
C:\Users\SOLDER~1\AppData\Local\Temp\ccbih9yx.s:29207  .debug_str:000000000002c12f .LASF2768
C:\Users\SOLDER~1\AppData\Local\Temp\ccbih9yx.s:25973  .debug_str:000000000001ed86 .LASF2769
C:\Users\SOLDER~1\AppData\Local\Temp\ccbih9yx.s:19249  .debug_str:000000000000371a .LASF2770
C:\Users\SOLDER~1\AppData\Local\Temp\ccbih9yx.s:19823  .debug_str:0000000000005b90 .LASF2771
C:\Users\SOLDER~1\AppData\Local\Temp\ccbih9yx.s:29387  .debug_str:000000000002cc54 .LASF2772
C:\Users\SOLDER~1\AppData\Local\Temp\ccbih9yx.s:26335  .debug_str:0000000000020542 .LASF2773
C:\Users\SOLDER~1\AppData\Local\Temp\ccbih9yx.s:23453  .debug_str:0000000000014a41 .LASF2774
C:\Users\SOLDER~1\AppData\Local\Temp\ccbih9yx.s:19651  .debug_str:0000000000005048 .LASF2775
C:\Users\SOLDER~1\AppData\Local\Temp\ccbih9yx.s:29367  .debug_str:000000000002cb09 .LASF2776
C:\Users\SOLDER~1\AppData\Local\Temp\ccbih9yx.s:28825  .debug_str:000000000002a7fe .LASF2777
C:\Users\SOLDER~1\AppData\Local\Temp\ccbih9yx.s:23991  .debug_str:0000000000016c50 .LASF2778
C:\Users\SOLDER~1\AppData\Local\Temp\ccbih9yx.s:20765  .debug_str:0000000000009931 .LASF2779
C:\Users\SOLDER~1\AppData\Local\Temp\ccbih9yx.s:21189  .debug_str:000000000000b512 .LASF2780
C:\Users\SOLDER~1\AppData\Local\Temp\ccbih9yx.s:18871  .debug_str:0000000000001eb8 .LASF2781
C:\Users\SOLDER~1\AppData\Local\Temp\ccbih9yx.s:18711  .debug_str:0000000000001483 .LASF2782
C:\Users\SOLDER~1\AppData\Local\Temp\ccbih9yx.s:28489  .debug_str:0000000000029223 .LASF2783
C:\Users\SOLDER~1\AppData\Local\Temp\ccbih9yx.s:19403  .debug_str:00000000000040d4 .LASF2784
C:\Users\SOLDER~1\AppData\Local\Temp\ccbih9yx.s:19431  .debug_str:0000000000004293 .LASF2785
C:\Users\SOLDER~1\AppData\Local\Temp\ccbih9yx.s:26421  .debug_str:0000000000020ae9 .LASF2786
C:\Users\SOLDER~1\AppData\Local\Temp\ccbih9yx.s:24729  .debug_str:0000000000019c97 .LASF2787
C:\Users\SOLDER~1\AppData\Local\Temp\ccbih9yx.s:23067  .debug_str:0000000000012f9a .LASF2788
C:\Users\SOLDER~1\AppData\Local\Temp\ccbih9yx.s:22819  .debug_str:0000000000011f82 .LASF2789
C:\Users\SOLDER~1\AppData\Local\Temp\ccbih9yx.s:21215  .debug_str:000000000000b69f .LASF2790
C:\Users\SOLDER~1\AppData\Local\Temp\ccbih9yx.s:23957  .debug_str:0000000000016a73 .LASF2791
C:\Users\SOLDER~1\AppData\Local\Temp\ccbih9yx.s:23943  .debug_str:000000000001697d .LASF2792
C:\Users\SOLDER~1\AppData\Local\Temp\ccbih9yx.s:20343  .debug_str:0000000000007d75 .LASF2793
C:\Users\SOLDER~1\AppData\Local\Temp\ccbih9yx.s:26517  .debug_str:0000000000021132 .LASF2794
C:\Users\SOLDER~1\AppData\Local\Temp\ccbih9yx.s:25803  .debug_str:000000000001e26f .LASF2795
GAS LISTING C:\Users\SOLDER~1\AppData\Local\Temp\ccbih9yx.s 			page 60


C:\Users\SOLDER~1\AppData\Local\Temp\ccbih9yx.s:23209  .debug_str:0000000000013943 .LASF2796
C:\Users\SOLDER~1\AppData\Local\Temp\ccbih9yx.s:28581  .debug_str:0000000000029809 .LASF2797
C:\Users\SOLDER~1\AppData\Local\Temp\ccbih9yx.s:18497  .debug_str:0000000000000603 .LASF2798
C:\Users\SOLDER~1\AppData\Local\Temp\ccbih9yx.s:26823  .debug_str:0000000000022477 .LASF2799
C:\Users\SOLDER~1\AppData\Local\Temp\ccbih9yx.s:26163  .debug_str:000000000001fa2b .LASF2800
C:\Users\SOLDER~1\AppData\Local\Temp\ccbih9yx.s:25227  .debug_str:000000000001bc51 .LASF2801
C:\Users\SOLDER~1\AppData\Local\Temp\ccbih9yx.s:24171  .debug_str:0000000000017800 .LASF2802
C:\Users\SOLDER~1\AppData\Local\Temp\ccbih9yx.s:23599  .debug_str:00000000000153ab .LASF2803
C:\Users\SOLDER~1\AppData\Local\Temp\ccbih9yx.s:25603  .debug_str:000000000001d5b3 .LASF2804
C:\Users\SOLDER~1\AppData\Local\Temp\ccbih9yx.s:21939  .debug_str:000000000000e6ac .LASF2805
C:\Users\SOLDER~1\AppData\Local\Temp\ccbih9yx.s:20869  .debug_str:0000000000009fe2 .LASF2806
C:\Users\SOLDER~1\AppData\Local\Temp\ccbih9yx.s:20241  .debug_str:00000000000076d7 .LASF2807
C:\Users\SOLDER~1\AppData\Local\Temp\ccbih9yx.s:18907  .debug_str:0000000000002105 .LASF2808
C:\Users\SOLDER~1\AppData\Local\Temp\ccbih9yx.s:18619  .debug_str:0000000000000eb6 .LASF2809
C:\Users\SOLDER~1\AppData\Local\Temp\ccbih9yx.s:20483  .debug_str:00000000000086a2 .LASF2810
C:\Users\SOLDER~1\AppData\Local\Temp\ccbih9yx.s:28471  .debug_str:00000000000290f7 .LASF2811
C:\Users\SOLDER~1\AppData\Local\Temp\ccbih9yx.s:29277  .debug_str:000000000002c57c .LASF2812
C:\Users\SOLDER~1\AppData\Local\Temp\ccbih9yx.s:18877  .debug_str:0000000000001f1e .LASF2813
C:\Users\SOLDER~1\AppData\Local\Temp\ccbih9yx.s:25465  .debug_str:000000000001cc67 .LASF2814
C:\Users\SOLDER~1\AppData\Local\Temp\ccbih9yx.s:26357  .debug_str:00000000000206bb .LASF2815
C:\Users\SOLDER~1\AppData\Local\Temp\ccbih9yx.s:18807  .debug_str:0000000000001a82 .LASF2816
C:\Users\SOLDER~1\AppData\Local\Temp\ccbih9yx.s:26029  .debug_str:000000000001f14c .LASF2817
C:\Users\SOLDER~1\AppData\Local\Temp\ccbih9yx.s:24071  .debug_str:0000000000017188 .LASF2818
C:\Users\SOLDER~1\AppData\Local\Temp\ccbih9yx.s:26287  .debug_str:00000000000201f5 .LASF2819
C:\Users\SOLDER~1\AppData\Local\Temp\ccbih9yx.s:20153  .debug_str:000000000000714a .LASF2820
C:\Users\SOLDER~1\AppData\Local\Temp\ccbih9yx.s:26679  .debug_str:0000000000021b8a .LASF2821
C:\Users\SOLDER~1\AppData\Local\Temp\ccbih9yx.s:20355  .debug_str:0000000000007e41 .LASF2822
C:\Users\SOLDER~1\AppData\Local\Temp\ccbih9yx.s:19239  .debug_str:000000000000368b .LASF2823
C:\Users\SOLDER~1\AppData\Local\Temp\ccbih9yx.s:24525  .debug_str:0000000000018f78 .LASF2824
C:\Users\SOLDER~1\AppData\Local\Temp\ccbih9yx.s:27297  .debug_str:000000000002439b .LASF2825
C:\Users\SOLDER~1\AppData\Local\Temp\ccbih9yx.s:22741  .debug_str:0000000000011a7f .LASF2826
C:\Users\SOLDER~1\AppData\Local\Temp\ccbih9yx.s:19533  .debug_str:0000000000004928 .LASF2827
C:\Users\SOLDER~1\AppData\Local\Temp\ccbih9yx.s:26865  .debug_str:000000000002272d .LASF2828
C:\Users\SOLDER~1\AppData\Local\Temp\ccbih9yx.s:23657  .debug_str:0000000000015784 .LASF2829
C:\Users\SOLDER~1\AppData\Local\Temp\ccbih9yx.s:28393  .debug_str:0000000000028bfa .LASF2830
C:\Users\SOLDER~1\AppData\Local\Temp\ccbih9yx.s:25815  .debug_str:000000000001e31c .LASF2831
C:\Users\SOLDER~1\AppData\Local\Temp\ccbih9yx.s:29917  .debug_str:000000000002ee60 .LASF2832
C:\Users\SOLDER~1\AppData\Local\Temp\ccbih9yx.s:24705  .debug_str:0000000000019b1b .LASF2833
C:\Users\SOLDER~1\AppData\Local\Temp\ccbih9yx.s:22663  .debug_str:000000000001158f .LASF2834
C:\Users\SOLDER~1\AppData\Local\Temp\ccbih9yx.s:23935  .debug_str:00000000000168f0 .LASF2835
C:\Users\SOLDER~1\AppData\Local\Temp\ccbih9yx.s:19899  .debug_str:000000000000603d .LASF2836
C:\Users\SOLDER~1\AppData\Local\Temp\ccbih9yx.s:25393  .debug_str:000000000001c77a .LASF2837
C:\Users\SOLDER~1\AppData\Local\Temp\ccbih9yx.s:22605  .debug_str:0000000000011188 .LASF2838
C:\Users\SOLDER~1\AppData\Local\Temp\ccbih9yx.s:19493  .debug_str:000000000000468d .LASF2839
C:\Users\SOLDER~1\AppData\Local\Temp\ccbih9yx.s:28605  .debug_str:000000000002999a .LASF2840
C:\Users\SOLDER~1\AppData\Local\Temp\ccbih9yx.s:28069  .debug_str:0000000000027719 .LASF2841
C:\Users\SOLDER~1\AppData\Local\Temp\ccbih9yx.s:25423  .debug_str:000000000001c980 .LASF2842
C:\Users\SOLDER~1\AppData\Local\Temp\ccbih9yx.s:26205  .debug_str:000000000001fcc6 .LASF2843
C:\Users\SOLDER~1\AppData\Local\Temp\ccbih9yx.s:27987  .debug_str:00000000000271ca .LASF2844
C:\Users\SOLDER~1\AppData\Local\Temp\ccbih9yx.s:28317  .debug_str:0000000000028763 .LASF2845
C:\Users\SOLDER~1\AppData\Local\Temp\ccbih9yx.s:21829  .debug_str:000000000000df48 .LASF2846
C:\Users\SOLDER~1\AppData\Local\Temp\ccbih9yx.s:25299  .debug_str:000000000001c120 .LASF2847
C:\Users\SOLDER~1\AppData\Local\Temp\ccbih9yx.s:29879  .debug_str:000000000002ebf2 .LASF2848
C:\Users\SOLDER~1\AppData\Local\Temp\ccbih9yx.s:25353  .debug_str:000000000001c4c4 .LASF2849
C:\Users\SOLDER~1\AppData\Local\Temp\ccbih9yx.s:23255  .debug_str:0000000000013ca6 .LASF2850
C:\Users\SOLDER~1\AppData\Local\Temp\ccbih9yx.s:29441  .debug_str:000000000002d03f .LASF2851
C:\Users\SOLDER~1\AppData\Local\Temp\ccbih9yx.s:21655  .debug_str:000000000000d419 .LASF2852
GAS LISTING C:\Users\SOLDER~1\AppData\Local\Temp\ccbih9yx.s 			page 61


C:\Users\SOLDER~1\AppData\Local\Temp\ccbih9yx.s:21267  .debug_str:000000000000ba13 .LASF2853
C:\Users\SOLDER~1\AppData\Local\Temp\ccbih9yx.s:28745  .debug_str:000000000002a30e .LASF2854
C:\Users\SOLDER~1\AppData\Local\Temp\ccbih9yx.s:24993  .debug_str:000000000001ada4 .LASF2855
C:\Users\SOLDER~1\AppData\Local\Temp\ccbih9yx.s:29123  .debug_str:000000000002bb42 .LASF2856
C:\Users\SOLDER~1\AppData\Local\Temp\ccbih9yx.s:21479  .debug_str:000000000000c86a .LASF2857
C:\Users\SOLDER~1\AppData\Local\Temp\ccbih9yx.s:25909  .debug_str:000000000001e975 .LASF2858
C:\Users\SOLDER~1\AppData\Local\Temp\ccbih9yx.s:19727  .debug_str:00000000000054e0 .LASF2859
C:\Users\SOLDER~1\AppData\Local\Temp\ccbih9yx.s:19263  .debug_str:000000000000380c .LASF2860
C:\Users\SOLDER~1\AppData\Local\Temp\ccbih9yx.s:27969  .debug_str:000000000002709f .LASF2861
C:\Users\SOLDER~1\AppData\Local\Temp\ccbih9yx.s:20337  .debug_str:0000000000007d18 .LASF2862
C:\Users\SOLDER~1\AppData\Local\Temp\ccbih9yx.s:26509  .debug_str:0000000000021096 .LASF2863
C:\Users\SOLDER~1\AppData\Local\Temp\ccbih9yx.s:26031  .debug_str:000000000001f16c .LASF2864
C:\Users\SOLDER~1\AppData\Local\Temp\ccbih9yx.s:22847  .debug_str:0000000000012133 .LASF2865
C:\Users\SOLDER~1\AppData\Local\Temp\ccbih9yx.s:21359  .debug_str:000000000000c004 .LASF2866
C:\Users\SOLDER~1\AppData\Local\Temp\ccbih9yx.s:22541  .debug_str:0000000000010d8a .LASF2867
C:\Users\SOLDER~1\AppData\Local\Temp\ccbih9yx.s:23121  .debug_str:0000000000013318 .LASF2868
C:\Users\SOLDER~1\AppData\Local\Temp\ccbih9yx.s:29785  .debug_str:000000000002e5ed .LASF2869
C:\Users\SOLDER~1\AppData\Local\Temp\ccbih9yx.s:23133  .debug_str:00000000000133f0 .LASF2870
C:\Users\SOLDER~1\AppData\Local\Temp\ccbih9yx.s:29259  .debug_str:000000000002c453 .LASF2871
C:\Users\SOLDER~1\AppData\Local\Temp\ccbih9yx.s:29375  .debug_str:000000000002cb87 .LASF2872
C:\Users\SOLDER~1\AppData\Local\Temp\ccbih9yx.s:25005  .debug_str:000000000001ae6d .LASF2873
C:\Users\SOLDER~1\AppData\Local\Temp\ccbih9yx.s:29289  .debug_str:000000000002c64e .LASF2874
C:\Users\SOLDER~1\AppData\Local\Temp\ccbih9yx.s:26487  .debug_str:0000000000020efa .LASF2875
C:\Users\SOLDER~1\AppData\Local\Temp\ccbih9yx.s:22141  .debug_str:000000000000f36f .LASF2876
C:\Users\SOLDER~1\AppData\Local\Temp\ccbih9yx.s:22245  .debug_str:000000000000fa8c .LASF2877
C:\Users\SOLDER~1\AppData\Local\Temp\ccbih9yx.s:22153  .debug_str:000000000000f43b .LASF2878
C:\Users\SOLDER~1\AppData\Local\Temp\ccbih9yx.s:24165  .debug_str:00000000000177be .LASF2879
C:\Users\SOLDER~1\AppData\Local\Temp\ccbih9yx.s:29745  .debug_str:000000000002e356 .LASF2880
C:\Users\SOLDER~1\AppData\Local\Temp\ccbih9yx.s:21669  .debug_str:000000000000d500 .LASF2881
C:\Users\SOLDER~1\AppData\Local\Temp\ccbih9yx.s:25751  .debug_str:000000000001df23 .LASF2882
C:\Users\SOLDER~1\AppData\Local\Temp\ccbih9yx.s:28961  .debug_str:000000000002b11e .LASF2883
C:\Users\SOLDER~1\AppData\Local\Temp\ccbih9yx.s:20167  .debug_str:000000000000722b .LASF2884
C:\Users\SOLDER~1\AppData\Local\Temp\ccbih9yx.s:27163  .debug_str:0000000000023ac0 .LASF2885
C:\Users\SOLDER~1\AppData\Local\Temp\ccbih9yx.s:19841  .debug_str:0000000000005c92 .LASF2886
C:\Users\SOLDER~1\AppData\Local\Temp\ccbih9yx.s:20453  .debug_str:00000000000084ab .LASF2887
C:\Users\SOLDER~1\AppData\Local\Temp\ccbih9yx.s:21151  .debug_str:000000000000b26f .LASF2888
C:\Users\SOLDER~1\AppData\Local\Temp\ccbih9yx.s:21201  .debug_str:000000000000b5c2 .LASF2889
C:\Users\SOLDER~1\AppData\Local\Temp\ccbih9yx.s:20155  .debug_str:000000000000716a .LASF2890
C:\Users\SOLDER~1\AppData\Local\Temp\ccbih9yx.s:19191  .debug_str:000000000000337d .LASF2891
C:\Users\SOLDER~1\AppData\Local\Temp\ccbih9yx.s:21857  .debug_str:000000000000e170 .LASF2892
C:\Users\SOLDER~1\AppData\Local\Temp\ccbih9yx.s:23903  .debug_str:00000000000166d9 .LASF2893
C:\Users\SOLDER~1\AppData\Local\Temp\ccbih9yx.s:29585  .debug_str:000000000002d93a .LASF2894
C:\Users\SOLDER~1\AppData\Local\Temp\ccbih9yx.s:21061  .debug_str:000000000000acbe .LASF2895
C:\Users\SOLDER~1\AppData\Local\Temp\ccbih9yx.s:28665  .debug_str:0000000000029d9f .LASF2896
C:\Users\SOLDER~1\AppData\Local\Temp\ccbih9yx.s:29665  .debug_str:000000000002de65 .LASF2897
C:\Users\SOLDER~1\AppData\Local\Temp\ccbih9yx.s:29449  .debug_str:000000000002d0be .LASF2898
C:\Users\SOLDER~1\AppData\Local\Temp\ccbih9yx.s:19675  .debug_str:00000000000051d2 .LASF2899
C:\Users\SOLDER~1\AppData\Local\Temp\ccbih9yx.s:20651  .debug_str:00000000000091f3 .LASF2900
C:\Users\SOLDER~1\AppData\Local\Temp\ccbih9yx.s:25605  .debug_str:000000000001d5db .LASF2901
C:\Users\SOLDER~1\AppData\Local\Temp\ccbih9yx.s:21553  .debug_str:000000000000cd55 .LASF2902
C:\Users\SOLDER~1\AppData\Local\Temp\ccbih9yx.s:23399  .debug_str:0000000000014695 .LASF2903
C:\Users\SOLDER~1\AppData\Local\Temp\ccbih9yx.s:28303  .debug_str:000000000002866a .LASF2904
C:\Users\SOLDER~1\AppData\Local\Temp\ccbih9yx.s:20831  .debug_str:0000000000009d72 .LASF2905
C:\Users\SOLDER~1\AppData\Local\Temp\ccbih9yx.s:28411  .debug_str:0000000000028d27 .LASF2906
C:\Users\SOLDER~1\AppData\Local\Temp\ccbih9yx.s:24435  .debug_str:0000000000018940 .LASF2907
C:\Users\SOLDER~1\AppData\Local\Temp\ccbih9yx.s:21871  .debug_str:000000000000e26b .LASF2908
C:\Users\SOLDER~1\AppData\Local\Temp\ccbih9yx.s:26599  .debug_str:0000000000021675 .LASF2909
GAS LISTING C:\Users\SOLDER~1\AppData\Local\Temp\ccbih9yx.s 			page 62


C:\Users\SOLDER~1\AppData\Local\Temp\ccbih9yx.s:27347  .debug_str:00000000000246f4 .LASF2910
C:\Users\SOLDER~1\AppData\Local\Temp\ccbih9yx.s:22689  .debug_str:0000000000011725 .LASF2911
C:\Users\SOLDER~1\AppData\Local\Temp\ccbih9yx.s:21765  .debug_str:000000000000daf9 .LASF2912
C:\Users\SOLDER~1\AppData\Local\Temp\ccbih9yx.s:22107  .debug_str:000000000000f146 .LASF2913
C:\Users\SOLDER~1\AppData\Local\Temp\ccbih9yx.s:19071  .debug_str:0000000000002b97 .LASF2914
C:\Users\SOLDER~1\AppData\Local\Temp\ccbih9yx.s:24425  .debug_str:00000000000188b1 .LASF2915
C:\Users\SOLDER~1\AppData\Local\Temp\ccbih9yx.s:18487  .debug_str:0000000000000555 .LASF2916
C:\Users\SOLDER~1\AppData\Local\Temp\ccbih9yx.s:27075  .debug_str:0000000000023536 .LASF2917
C:\Users\SOLDER~1\AppData\Local\Temp\ccbih9yx.s:21879  .debug_str:000000000000e2f2 .LASF2918
C:\Users\SOLDER~1\AppData\Local\Temp\ccbih9yx.s:26025  .debug_str:000000000001f112 .LASF2919
C:\Users\SOLDER~1\AppData\Local\Temp\ccbih9yx.s:27315  .debug_str:00000000000244c0 .LASF2920
C:\Users\SOLDER~1\AppData\Local\Temp\ccbih9yx.s:25721  .debug_str:000000000001dd08 .LASF2921
C:\Users\SOLDER~1\AppData\Local\Temp\ccbih9yx.s:22361  .debug_str:0000000000010218 .LASF2922
C:\Users\SOLDER~1\AppData\Local\Temp\ccbih9yx.s:27371  .debug_str:000000000002489b .LASF2923
C:\Users\SOLDER~1\AppData\Local\Temp\ccbih9yx.s:24497  .debug_str:0000000000018d9c .LASF2924
C:\Users\SOLDER~1\AppData\Local\Temp\ccbih9yx.s:24059  .debug_str:00000000000170be .LASF2925
C:\Users\SOLDER~1\AppData\Local\Temp\ccbih9yx.s:23345  .debug_str:00000000000142ec .LASF2926
C:\Users\SOLDER~1\AppData\Local\Temp\ccbih9yx.s:21663  .debug_str:000000000000d49e .LASF2927
C:\Users\SOLDER~1\AppData\Local\Temp\ccbih9yx.s:28577  .debug_str:00000000000297d8 .LASF2928
C:\Users\SOLDER~1\AppData\Local\Temp\ccbih9yx.s:24287  .debug_str:0000000000017fea .LASF2929
C:\Users\SOLDER~1\AppData\Local\Temp\ccbih9yx.s:25735  .debug_str:000000000001de05 .LASF2930
C:\Users\SOLDER~1\AppData\Local\Temp\ccbih9yx.s:27425  .debug_str:0000000000024c22 .LASF2931
C:\Users\SOLDER~1\AppData\Local\Temp\ccbih9yx.s:27929  .debug_str:0000000000026e0a .LASF2932
C:\Users\SOLDER~1\AppData\Local\Temp\ccbih9yx.s:28315  .debug_str:000000000002873a .LASF2933
C:\Users\SOLDER~1\AppData\Local\Temp\ccbih9yx.s:25613  .debug_str:000000000001d643 .LASF2934
C:\Users\SOLDER~1\AppData\Local\Temp\ccbih9yx.s:24423  .debug_str:0000000000018897 .LASF2935
C:\Users\SOLDER~1\AppData\Local\Temp\ccbih9yx.s:27475  .debug_str:0000000000024f5c .LASF2936
C:\Users\SOLDER~1\AppData\Local\Temp\ccbih9yx.s:18415  .debug_str:00000000000000be .LASF2937
C:\Users\SOLDER~1\AppData\Local\Temp\ccbih9yx.s:27725  .debug_str:0000000000026032 .LASF2938
C:\Users\SOLDER~1\AppData\Local\Temp\ccbih9yx.s:18675  .debug_str:0000000000001227 .LASF2939
C:\Users\SOLDER~1\AppData\Local\Temp\ccbih9yx.s:19563  .debug_str:0000000000004af7 .LASF2940
C:\Users\SOLDER~1\AppData\Local\Temp\ccbih9yx.s:20279  .debug_str:000000000000792b .LASF2941
C:\Users\SOLDER~1\AppData\Local\Temp\ccbih9yx.s:27251  .debug_str:000000000002408c .LASF2942
C:\Users\SOLDER~1\AppData\Local\Temp\ccbih9yx.s:27141  .debug_str:0000000000023957 .LASF2943
C:\Users\SOLDER~1\AppData\Local\Temp\ccbih9yx.s:20477  .debug_str:0000000000008623 .LASF2944
C:\Users\SOLDER~1\AppData\Local\Temp\ccbih9yx.s:23217  .debug_str:0000000000013a04 .LASF2945
C:\Users\SOLDER~1\AppData\Local\Temp\ccbih9yx.s:24777  .debug_str:0000000000019f7e .LASF2946
C:\Users\SOLDER~1\AppData\Local\Temp\ccbih9yx.s:23867  .debug_str:00000000000164f0 .LASF2947
C:\Users\SOLDER~1\AppData\Local\Temp\ccbih9yx.s:24319  .debug_str:00000000000181f6 .LASF2948
C:\Users\SOLDER~1\AppData\Local\Temp\ccbih9yx.s:24577  .debug_str:00000000000192cf .LASF2949
C:\Users\SOLDER~1\AppData\Local\Temp\ccbih9yx.s:23003  .debug_str:0000000000012b63 .LASF2950
C:\Users\SOLDER~1\AppData\Local\Temp\ccbih9yx.s:24677  .debug_str:0000000000019933 .LASF2951
C:\Users\SOLDER~1\AppData\Local\Temp\ccbih9yx.s:19159  .debug_str:0000000000003173 .LASF2952
C:\Users\SOLDER~1\AppData\Local\Temp\ccbih9yx.s:18615  .debug_str:0000000000000e77 .LASF2953
C:\Users\SOLDER~1\AppData\Local\Temp\ccbih9yx.s:24483  .debug_str:0000000000018c97 .LASF2954
C:\Users\SOLDER~1\AppData\Local\Temp\ccbih9yx.s:27707  .debug_str:0000000000025f0c .LASF2955
C:\Users\SOLDER~1\AppData\Local\Temp\ccbih9yx.s:28441  .debug_str:0000000000028ee6 .LASF2956
C:\Users\SOLDER~1\AppData\Local\Temp\ccbih9yx.s:18975  .debug_str:000000000000258c .LASF2957
C:\Users\SOLDER~1\AppData\Local\Temp\ccbih9yx.s:22095  .debug_str:000000000000f083 .LASF2958
C:\Users\SOLDER~1\AppData\Local\Temp\ccbih9yx.s:29417  .debug_str:000000000002ce64 .LASF2959
C:\Users\SOLDER~1\AppData\Local\Temp\ccbih9yx.s:22639  .debug_str:00000000000113dd .LASF2960
C:\Users\SOLDER~1\AppData\Local\Temp\ccbih9yx.s:24105  .debug_str:00000000000173c8 .LASF2961
C:\Users\SOLDER~1\AppData\Local\Temp\ccbih9yx.s:20025  .debug_str:00000000000068e9 .LASF2962
C:\Users\SOLDER~1\AppData\Local\Temp\ccbih9yx.s:19769  .debug_str:00000000000057da .LASF2963
C:\Users\SOLDER~1\AppData\Local\Temp\ccbih9yx.s:27443  .debug_str:0000000000024d48 .LASF2964
C:\Users\SOLDER~1\AppData\Local\Temp\ccbih9yx.s:29849  .debug_str:000000000002ea3a .LASF2965
C:\Users\SOLDER~1\AppData\Local\Temp\ccbih9yx.s:19891  .debug_str:0000000000005fab .LASF2966
GAS LISTING C:\Users\SOLDER~1\AppData\Local\Temp\ccbih9yx.s 			page 63


C:\Users\SOLDER~1\AppData\Local\Temp\ccbih9yx.s:18429  .debug_str:0000000000000175 .LASF2967
C:\Users\SOLDER~1\AppData\Local\Temp\ccbih9yx.s:27833  .debug_str:00000000000267a0 .LASF2968
C:\Users\SOLDER~1\AppData\Local\Temp\ccbih9yx.s:26733  .debug_str:0000000000021eef .LASF2969
C:\Users\SOLDER~1\AppData\Local\Temp\ccbih9yx.s:23623  .debug_str:000000000001553e .LASF2970
C:\Users\SOLDER~1\AppData\Local\Temp\ccbih9yx.s:22187  .debug_str:000000000000f66b .LASF2971
C:\Users\SOLDER~1\AppData\Local\Temp\ccbih9yx.s:27005  .debug_str:000000000002307f .LASF2972
C:\Users\SOLDER~1\AppData\Local\Temp\ccbih9yx.s:21033  .debug_str:000000000000aafd .LASF2973
C:\Users\SOLDER~1\AppData\Local\Temp\ccbih9yx.s:18867  .debug_str:0000000000001e72 .LASF2974
C:\Users\SOLDER~1\AppData\Local\Temp\ccbih9yx.s:23127  .debug_str:000000000001337d .LASF2975
C:\Users\SOLDER~1\AppData\Local\Temp\ccbih9yx.s:20701  .debug_str:0000000000009513 .LASF2976
C:\Users\SOLDER~1\AppData\Local\Temp\ccbih9yx.s:26791  .debug_str:000000000002223f .LASF2977
C:\Users\SOLDER~1\AppData\Local\Temp\ccbih9yx.s:29421  .debug_str:000000000002ceb4 .LASF2978
C:\Users\SOLDER~1\AppData\Local\Temp\ccbih9yx.s:21393  .debug_str:000000000000c279 .LASF2979
C:\Users\SOLDER~1\AppData\Local\Temp\ccbih9yx.s:27017  .debug_str:000000000002313b .LASF2980
C:\Users\SOLDER~1\AppData\Local\Temp\ccbih9yx.s:20987  .debug_str:000000000000a7e3 .LASF2981
C:\Users\SOLDER~1\AppData\Local\Temp\ccbih9yx.s:29403  .debug_str:000000000002cd6c .LASF2982
C:\Users\SOLDER~1\AppData\Local\Temp\ccbih9yx.s:23811  .debug_str:0000000000016167 .LASF2983
C:\Users\SOLDER~1\AppData\Local\Temp\ccbih9yx.s:25737  .debug_str:000000000001de2e .LASF2984
C:\Users\SOLDER~1\AppData\Local\Temp\ccbih9yx.s:24605  .debug_str:00000000000194cf .LASF2985
C:\Users\SOLDER~1\AppData\Local\Temp\ccbih9yx.s:19353  .debug_str:0000000000003dde .LASF2986
C:\Users\SOLDER~1\AppData\Local\Temp\ccbih9yx.s:29315  .debug_str:000000000002c7ce .LASF2987
C:\Users\SOLDER~1\AppData\Local\Temp\ccbih9yx.s:23025  .debug_str:0000000000012cdf .LASF2988
C:\Users\SOLDER~1\AppData\Local\Temp\ccbih9yx.s:23215  .debug_str:00000000000139db .LASF2989
C:\Users\SOLDER~1\AppData\Local\Temp\ccbih9yx.s:19801  .debug_str:00000000000059fd .LASF2990
C:\Users\SOLDER~1\AppData\Local\Temp\ccbih9yx.s:29815  .debug_str:000000000002e81f .LASF2991
C:\Users\SOLDER~1\AppData\Local\Temp\ccbih9yx.s:18905  .debug_str:00000000000020dd .LASF2992
C:\Users\SOLDER~1\AppData\Local\Temp\ccbih9yx.s:27959  .debug_str:0000000000026fed .LASF2993
C:\Users\SOLDER~1\AppData\Local\Temp\ccbih9yx.s:20933  .debug_str:000000000000a42f .LASF2994
C:\Users\SOLDER~1\AppData\Local\Temp\ccbih9yx.s:19089  .debug_str:0000000000002cd5 .LASF2995
C:\Users\SOLDER~1\AppData\Local\Temp\ccbih9yx.s:27777  .debug_str:000000000002640d .LASF2996
C:\Users\SOLDER~1\AppData\Local\Temp\ccbih9yx.s:21759  .debug_str:000000000000da86 .LASF2997
C:\Users\SOLDER~1\AppData\Local\Temp\ccbih9yx.s:23289  .debug_str:0000000000013f08 .LASF2998
C:\Users\SOLDER~1\AppData\Local\Temp\ccbih9yx.s:29863  .debug_str:000000000002eb13 .LASF2999
C:\Users\SOLDER~1\AppData\Local\Temp\ccbih9yx.s:22291  .debug_str:000000000000fdd3 .LASF3000
C:\Users\SOLDER~1\AppData\Local\Temp\ccbih9yx.s:25945  .debug_str:000000000001ebb0 .LASF3001
C:\Users\SOLDER~1\AppData\Local\Temp\ccbih9yx.s:23169  .debug_str:0000000000013667 .LASF3002
C:\Users\SOLDER~1\AppData\Local\Temp\ccbih9yx.s:26745  .debug_str:0000000000021fa1 .LASF3003
C:\Users\SOLDER~1\AppData\Local\Temp\ccbih9yx.s:23717  .debug_str:0000000000015b53 .LASF3004
C:\Users\SOLDER~1\AppData\Local\Temp\ccbih9yx.s:27399  .debug_str:0000000000024a7b .LASF3005
C:\Users\SOLDER~1\AppData\Local\Temp\ccbih9yx.s:25235  .debug_str:000000000001bcc0 .LASF3006
C:\Users\SOLDER~1\AppData\Local\Temp\ccbih9yx.s:26799  .debug_str:00000000000222c4 .LASF3007
C:\Users\SOLDER~1\AppData\Local\Temp\ccbih9yx.s:25861  .debug_str:000000000001e633 .LASF3008
C:\Users\SOLDER~1\AppData\Local\Temp\ccbih9yx.s:29317  .debug_str:000000000002c7e7 .LASF3009
C:\Users\SOLDER~1\AppData\Local\Temp\ccbih9yx.s:24911  .debug_str:000000000001a830 .LASF3010
C:\Users\SOLDER~1\AppData\Local\Temp\ccbih9yx.s:29545  .debug_str:000000000002d6dd .LASF3011
C:\Users\SOLDER~1\AppData\Local\Temp\ccbih9yx.s:26211  .debug_str:000000000001fd0d .LASF3012
C:\Users\SOLDER~1\AppData\Local\Temp\ccbih9yx.s:20723  .debug_str:000000000000965d .LASF3013
C:\Users\SOLDER~1\AppData\Local\Temp\ccbih9yx.s:22387  .debug_str:00000000000103fe .LASF3014
C:\Users\SOLDER~1\AppData\Local\Temp\ccbih9yx.s:23273  .debug_str:0000000000013df2 .LASF3015
C:\Users\SOLDER~1\AppData\Local\Temp\ccbih9yx.s:24249  .debug_str:0000000000017d31 .LASF3016
C:\Users\SOLDER~1\AppData\Local\Temp\ccbih9yx.s:21341  .debug_str:000000000000bed9 .LASF3017
C:\Users\SOLDER~1\AppData\Local\Temp\ccbih9yx.s:20753  .debug_str:000000000000985d .LASF3018
C:\Users\SOLDER~1\AppData\Local\Temp\ccbih9yx.s:19457  .debug_str:0000000000004441 .LASF3019
C:\Users\SOLDER~1\AppData\Local\Temp\ccbih9yx.s:29761  .debug_str:000000000002e464 .LASF3020
C:\Users\SOLDER~1\AppData\Local\Temp\ccbih9yx.s:29085  .debug_str:000000000002b8f5 .LASF3021
C:\Users\SOLDER~1\AppData\Local\Temp\ccbih9yx.s:25729  .debug_str:000000000001dd9e .LASF3022
C:\Users\SOLDER~1\AppData\Local\Temp\ccbih9yx.s:27151  .debug_str:00000000000239ec .LASF3023
GAS LISTING C:\Users\SOLDER~1\AppData\Local\Temp\ccbih9yx.s 			page 64


C:\Users\SOLDER~1\AppData\Local\Temp\ccbih9yx.s:27715  .debug_str:0000000000025f86 .LASF3024
C:\Users\SOLDER~1\AppData\Local\Temp\ccbih9yx.s:25387  .debug_str:000000000001c721 .LASF3025
C:\Users\SOLDER~1\AppData\Local\Temp\ccbih9yx.s:18991  .debug_str:0000000000002688 .LASF3026
C:\Users\SOLDER~1\AppData\Local\Temp\ccbih9yx.s:23513  .debug_str:0000000000014e21 .LASF3027
C:\Users\SOLDER~1\AppData\Local\Temp\ccbih9yx.s:28047  .debug_str:00000000000275ad .LASF3028
C:\Users\SOLDER~1\AppData\Local\Temp\ccbih9yx.s:21593  .debug_str:000000000000d00f .LASF3029
C:\Users\SOLDER~1\AppData\Local\Temp\ccbih9yx.s:23465  .debug_str:0000000000014b08 .LASF3030
C:\Users\SOLDER~1\AppData\Local\Temp\ccbih9yx.s:29743  .debug_str:000000000002e33e .LASF3031
C:\Users\SOLDER~1\AppData\Local\Temp\ccbih9yx.s:20649  .debug_str:00000000000091d1 .LASF3032
C:\Users\SOLDER~1\AppData\Local\Temp\ccbih9yx.s:29337  .debug_str:000000000002c931 .LASF3033
C:\Users\SOLDER~1\AppData\Local\Temp\ccbih9yx.s:22905  .debug_str:00000000000124e6 .LASF3034
C:\Users\SOLDER~1\AppData\Local\Temp\ccbih9yx.s:28711  .debug_str:000000000002a0c9 .LASF3035
C:\Users\SOLDER~1\AppData\Local\Temp\ccbih9yx.s:20885  .debug_str:000000000000a10d .LASF3036
C:\Users\SOLDER~1\AppData\Local\Temp\ccbih9yx.s:26971  .debug_str:0000000000022e51 .LASF3037
C:\Users\SOLDER~1\AppData\Local\Temp\ccbih9yx.s:18809  .debug_str:0000000000001aad .LASF3038
C:\Users\SOLDER~1\AppData\Local\Temp\ccbih9yx.s:18863  .debug_str:0000000000001e2f .LASF3039
C:\Users\SOLDER~1\AppData\Local\Temp\ccbih9yx.s:19029  .debug_str:000000000000293c .LASF3040
C:\Users\SOLDER~1\AppData\Local\Temp\ccbih9yx.s:23757  .debug_str:0000000000015ddf .LASF3041
C:\Users\SOLDER~1\AppData\Local\Temp\ccbih9yx.s:22459  .debug_str:000000000001087b .LASF3042
C:\Users\SOLDER~1\AppData\Local\Temp\ccbih9yx.s:22001  .debug_str:000000000000ea77 .LASF3043
C:\Users\SOLDER~1\AppData\Local\Temp\ccbih9yx.s:24563  .debug_str:00000000000191da .LASF3044
C:\Users\SOLDER~1\AppData\Local\Temp\ccbih9yx.s:20383  .debug_str:0000000000008019 .LASF3045
C:\Users\SOLDER~1\AppData\Local\Temp\ccbih9yx.s:21665  .debug_str:000000000000d4b8 .LASF3046
C:\Users\SOLDER~1\AppData\Local\Temp\ccbih9yx.s:24309  .debug_str:000000000001816e .LASF3047
C:\Users\SOLDER~1\AppData\Local\Temp\ccbih9yx.s:26947  .debug_str:0000000000022cd0 .LASF3048
C:\Users\SOLDER~1\AppData\Local\Temp\ccbih9yx.s:22835  .debug_str:000000000001206c .LASF3049
C:\Users\SOLDER~1\AppData\Local\Temp\ccbih9yx.s:26113  .debug_str:000000000001f708 .LASF3050
C:\Users\SOLDER~1\AppData\Local\Temp\ccbih9yx.s:20501  .debug_str:00000000000087c1 .LASF3051
C:\Users\SOLDER~1\AppData\Local\Temp\ccbih9yx.s:21331  .debug_str:000000000000be3c .LASF3052
C:\Users\SOLDER~1\AppData\Local\Temp\ccbih9yx.s:18697  .debug_str:0000000000001390 .LASF3053
C:\Users\SOLDER~1\AppData\Local\Temp\ccbih9yx.s:29703  .debug_str:000000000002e0c1 .LASF3054
C:\Users\SOLDER~1\AppData\Local\Temp\ccbih9yx.s:28287  .debug_str:000000000002853a .LASF3055
C:\Users\SOLDER~1\AppData\Local\Temp\ccbih9yx.s:23641  .debug_str:0000000000015670 .LASF3056
C:\Users\SOLDER~1\AppData\Local\Temp\ccbih9yx.s:26385  .debug_str:0000000000020884 .LASF3057
C:\Users\SOLDER~1\AppData\Local\Temp\ccbih9yx.s:22945  .debug_str:000000000001275f .LASF3058
C:\Users\SOLDER~1\AppData\Local\Temp\ccbih9yx.s:23529  .debug_str:0000000000014f21 .LASF3059
C:\Users\SOLDER~1\AppData\Local\Temp\ccbih9yx.s:20521  .debug_str:00000000000088eb .LASF3060
C:\Users\SOLDER~1\AppData\Local\Temp\ccbih9yx.s:22631  .debug_str:000000000001133a .LASF3061
C:\Users\SOLDER~1\AppData\Local\Temp\ccbih9yx.s:24747  .debug_str:0000000000019d88 .LASF3062
C:\Users\SOLDER~1\AppData\Local\Temp\ccbih9yx.s:18829  .debug_str:0000000000001c01 .LASF3063
C:\Users\SOLDER~1\AppData\Local\Temp\ccbih9yx.s:19341  .debug_str:0000000000003d1e .LASF3064
C:\Users\SOLDER~1\AppData\Local\Temp\ccbih9yx.s:27967  .debug_str:0000000000027086 .LASF3065
C:\Users\SOLDER~1\AppData\Local\Temp\ccbih9yx.s:24253  .debug_str:0000000000017d7f .LASF3066
C:\Users\SOLDER~1\AppData\Local\Temp\ccbih9yx.s:25129  .debug_str:000000000001b628 .LASF3067
C:\Users\SOLDER~1\AppData\Local\Temp\ccbih9yx.s:22481  .debug_str:00000000000109e0 .LASF3068
C:\Users\SOLDER~1\AppData\Local\Temp\ccbih9yx.s:24359  .debug_str:0000000000018470 .LASF3069
C:\Users\SOLDER~1\AppData\Local\Temp\ccbih9yx.s:28983  .debug_str:000000000002b275 .LASF3070
C:\Users\SOLDER~1\AppData\Local\Temp\ccbih9yx.s:25143  .debug_str:000000000001b6fa .LASF3071
C:\Users\SOLDER~1\AppData\Local\Temp\ccbih9yx.s:20745  .debug_str:00000000000097cc .LASF3072
C:\Users\SOLDER~1\AppData\Local\Temp\ccbih9yx.s:28811  .debug_str:000000000002a73a .LASF3073
C:\Users\SOLDER~1\AppData\Local\Temp\ccbih9yx.s:28305  .debug_str:0000000000028694 .LASF3074
C:\Users\SOLDER~1\AppData\Local\Temp\ccbih9yx.s:29327  .debug_str:000000000002c896 .LASF3075
C:\Users\SOLDER~1\AppData\Local\Temp\ccbih9yx.s:25807  .debug_str:000000000001e2a3 .LASF3076
C:\Users\SOLDER~1\AppData\Local\Temp\ccbih9yx.s:29211  .debug_str:000000000002c171 .LASF3077
C:\Users\SOLDER~1\AppData\Local\Temp\ccbih9yx.s:20363  .debug_str:0000000000007ec4 .LASF3078
C:\Users\SOLDER~1\AppData\Local\Temp\ccbih9yx.s:25621  .debug_str:000000000001d6c7 .LASF3079
C:\Users\SOLDER~1\AppData\Local\Temp\ccbih9yx.s:28267  .debug_str:00000000000283f8 .LASF3080
GAS LISTING C:\Users\SOLDER~1\AppData\Local\Temp\ccbih9yx.s 			page 65


C:\Users\SOLDER~1\AppData\Local\Temp\ccbih9yx.s:21243  .debug_str:000000000000b874 .LASF3081
C:\Users\SOLDER~1\AppData\Local\Temp\ccbih9yx.s:28551  .debug_str:0000000000029654 .LASF3082
C:\Users\SOLDER~1\AppData\Local\Temp\ccbih9yx.s:19345  .debug_str:0000000000003d65 .LASF3083
C:\Users\SOLDER~1\AppData\Local\Temp\ccbih9yx.s:19917  .debug_str:0000000000006194 .LASF3084
C:\Users\SOLDER~1\AppData\Local\Temp\ccbih9yx.s:28969  .debug_str:000000000002b1b2 .LASF3085
C:\Users\SOLDER~1\AppData\Local\Temp\ccbih9yx.s:23597  .debug_str:0000000000015386 .LASF3086
C:\Users\SOLDER~1\AppData\Local\Temp\ccbih9yx.s:27049  .debug_str:0000000000023391 .LASF3087
C:\Users\SOLDER~1\AppData\Local\Temp\ccbih9yx.s:23561  .debug_str:00000000000150ff .LASF3088
C:\Users\SOLDER~1\AppData\Local\Temp\ccbih9yx.s:25205  .debug_str:000000000001baf8 .LASF3089
C:\Users\SOLDER~1\AppData\Local\Temp\ccbih9yx.s:24301  .debug_str:00000000000180df .LASF3090
C:\Users\SOLDER~1\AppData\Local\Temp\ccbih9yx.s:28475  .debug_str:0000000000029139 .LASF3091
C:\Users\SOLDER~1\AppData\Local\Temp\ccbih9yx.s:19761  .debug_str:000000000000573c .LASF3092
C:\Users\SOLDER~1\AppData\Local\Temp\ccbih9yx.s:21477  .debug_str:000000000000c853 .LASF3093
C:\Users\SOLDER~1\AppData\Local\Temp\ccbih9yx.s:27671  .debug_str:0000000000025c6b .LASF3094
C:\Users\SOLDER~1\AppData\Local\Temp\ccbih9yx.s:23817  .debug_str:00000000000161cc .LASF3095
C:\Users\SOLDER~1\AppData\Local\Temp\ccbih9yx.s:26157  .debug_str:000000000001f9d4 .LASF3096
C:\Users\SOLDER~1\AppData\Local\Temp\ccbih9yx.s:29225  .debug_str:000000000002c244 .LASF3097
C:\Users\SOLDER~1\AppData\Local\Temp\ccbih9yx.s:22069  .debug_str:000000000000eefa .LASF3098
C:\Users\SOLDER~1\AppData\Local\Temp\ccbih9yx.s:23851  .debug_str:00000000000163d1 .LASF3099
C:\Users\SOLDER~1\AppData\Local\Temp\ccbih9yx.s:29069  .debug_str:000000000002b7ec .LASF3100
C:\Users\SOLDER~1\AppData\Local\Temp\ccbih9yx.s:22709  .debug_str:000000000001188d .LASF3101
C:\Users\SOLDER~1\AppData\Local\Temp\ccbih9yx.s:22025  .debug_str:000000000000ec23 .LASF3102
C:\Users\SOLDER~1\AppData\Local\Temp\ccbih9yx.s:23619  .debug_str:0000000000015505 .LASF3103
C:\Users\SOLDER~1\AppData\Local\Temp\ccbih9yx.s:21079  .debug_str:000000000000adf6 .LASF3104
C:\Users\SOLDER~1\AppData\Local\Temp\ccbih9yx.s:21909  .debug_str:000000000000e4bf .LASF3105
C:\Users\SOLDER~1\AppData\Local\Temp\ccbih9yx.s:28783  .debug_str:000000000002a595 .LASF3106
C:\Users\SOLDER~1\AppData\Local\Temp\ccbih9yx.s:20265  .debug_str:0000000000007829 .LASF3107
C:\Users\SOLDER~1\AppData\Local\Temp\ccbih9yx.s:26617  .debug_str:0000000000021790 .LASF3108
C:\Users\SOLDER~1\AppData\Local\Temp\ccbih9yx.s:18639  .debug_str:0000000000000fe4 .LASF3109
C:\Users\SOLDER~1\AppData\Local\Temp\ccbih9yx.s:23679  .debug_str:00000000000158f0 .LASF3110
C:\Users\SOLDER~1\AppData\Local\Temp\ccbih9yx.s:23543  .debug_str:0000000000014fef .LASF3111
C:\Users\SOLDER~1\AppData\Local\Temp\ccbih9yx.s:27469  .debug_str:0000000000024ef2 .LASF3112
C:\Users\SOLDER~1\AppData\Local\Temp\ccbih9yx.s:27145  .debug_str:0000000000023996 .LASF3113
C:\Users\SOLDER~1\AppData\Local\Temp\ccbih9yx.s:25521  .debug_str:000000000001d00c .LASF3114
C:\Users\SOLDER~1\AppData\Local\Temp\ccbih9yx.s:21437  .debug_str:000000000000c58c .LASF3115
C:\Users\SOLDER~1\AppData\Local\Temp\ccbih9yx.s:27055  .debug_str:00000000000233fb .LASF3116
C:\Users\SOLDER~1\AppData\Local\Temp\ccbih9yx.s:22313  .debug_str:000000000000ff45 .LASF3117
C:\Users\SOLDER~1\AppData\Local\Temp\ccbih9yx.s:29101  .debug_str:000000000002b9ca .LASF3118
C:\Users\SOLDER~1\AppData\Local\Temp\ccbih9yx.s:24951  .debug_str:000000000001aa86 .LASF3119
C:\Users\SOLDER~1\AppData\Local\Temp\ccbih9yx.s:25683  .debug_str:000000000001da6c .LASF3120
C:\Users\SOLDER~1\AppData\Local\Temp\ccbih9yx.s:23239  .debug_str:0000000000013bae .LASF3121
C:\Users\SOLDER~1\AppData\Local\Temp\ccbih9yx.s:28725  .debug_str:000000000002a1ca .LASF3122
C:\Users\SOLDER~1\AppData\Local\Temp\ccbih9yx.s:20045  .debug_str:0000000000006a2f .LASF3123
C:\Users\SOLDER~1\AppData\Local\Temp\ccbih9yx.s:20839  .debug_str:0000000000009deb .LASF3124
C:\Users\SOLDER~1\AppData\Local\Temp\ccbih9yx.s:19943  .debug_str:0000000000006350 .LASF3125
C:\Users\SOLDER~1\AppData\Local\Temp\ccbih9yx.s:22861  .debug_str:0000000000012217 .LASF3126
C:\Users\SOLDER~1\AppData\Local\Temp\ccbih9yx.s:19139  .debug_str:0000000000003022 .LASF3127
C:\Users\SOLDER~1\AppData\Local\Temp\ccbih9yx.s:28245  .debug_str:000000000002829b .LASF3128
C:\Users\SOLDER~1\AppData\Local\Temp\ccbih9yx.s:28081  .debug_str:00000000000277e5 .LASF3129
C:\Users\SOLDER~1\AppData\Local\Temp\ccbih9yx.s:22249  .debug_str:000000000000fae3 .LASF3130
C:\Users\SOLDER~1\AppData\Local\Temp\ccbih9yx.s:28547  .debug_str:0000000000029611 .LASF3131
C:\Users\SOLDER~1\AppData\Local\Temp\ccbih9yx.s:23327  .debug_str:00000000000141a6 .LASF3132
C:\Users\SOLDER~1\AppData\Local\Temp\ccbih9yx.s:23497  .debug_str:0000000000014d33 .LASF3133
C:\Users\SOLDER~1\AppData\Local\Temp\ccbih9yx.s:18891  .debug_str:0000000000001fed .LASF3134
C:\Users\SOLDER~1\AppData\Local\Temp\ccbih9yx.s:22087  .debug_str:000000000000f010 .LASF3135
C:\Users\SOLDER~1\AppData\Local\Temp\ccbih9yx.s:24131  .debug_str:0000000000017593 .LASF3136
C:\Users\SOLDER~1\AppData\Local\Temp\ccbih9yx.s:20461  .debug_str:000000000000852e .LASF3137
GAS LISTING C:\Users\SOLDER~1\AppData\Local\Temp\ccbih9yx.s 			page 66


C:\Users\SOLDER~1\AppData\Local\Temp\ccbih9yx.s:26231  .debug_str:000000000001fe56 .LASF3138
C:\Users\SOLDER~1\AppData\Local\Temp\ccbih9yx.s:27105  .debug_str:0000000000023749 .LASF3139
C:\Users\SOLDER~1\AppData\Local\Temp\ccbih9yx.s:18523  .debug_str:000000000000083a .LASF3140
C:\Users\SOLDER~1\AppData\Local\Temp\ccbih9yx.s:28821  .debug_str:000000000002a7c5 .LASF3141
C:\Users\SOLDER~1\AppData\Local\Temp\ccbih9yx.s:20165  .debug_str:0000000000007205 .LASF3142
C:\Users\SOLDER~1\AppData\Local\Temp\ccbih9yx.s:19735  .debug_str:000000000000556e .LASF3143
C:\Users\SOLDER~1\AppData\Local\Temp\ccbih9yx.s:24233  .debug_str:0000000000017c1e .LASF3144
C:\Users\SOLDER~1\AppData\Local\Temp\ccbih9yx.s:28903  .debug_str:000000000002ad04 .LASF3145
C:\Users\SOLDER~1\AppData\Local\Temp\ccbih9yx.s:20735  .debug_str:0000000000009733 .LASF3146
C:\Users\SOLDER~1\AppData\Local\Temp\ccbih9yx.s:26541  .debug_str:00000000000212bc .LASF3147
C:\Users\SOLDER~1\AppData\Local\Temp\ccbih9yx.s:19815  .debug_str:0000000000005b02 .LASF3148
C:\Users\SOLDER~1\AppData\Local\Temp\ccbih9yx.s:24265  .debug_str:0000000000017e5c .LASF3149
C:\Users\SOLDER~1\AppData\Local\Temp\ccbih9yx.s:28357  .debug_str:00000000000289db .LASF3150
C:\Users\SOLDER~1\AppData\Local\Temp\ccbih9yx.s:26519  .debug_str:000000000002115a .LASF3151
C:\Users\SOLDER~1\AppData\Local\Temp\ccbih9yx.s:27695  .debug_str:0000000000025e1b .LASF3152
C:\Users\SOLDER~1\AppData\Local\Temp\ccbih9yx.s:24671  .debug_str:00000000000198d4 .LASF3153
C:\Users\SOLDER~1\AppData\Local\Temp\ccbih9yx.s:18977  .debug_str:00000000000025a7 .LASF3154
C:\Users\SOLDER~1\AppData\Local\Temp\ccbih9yx.s:22759  .debug_str:0000000000011bb7 .LASF3155
C:\Users\SOLDER~1\AppData\Local\Temp\ccbih9yx.s:28035  .debug_str:00000000000274ed .LASF3156
C:\Users\SOLDER~1\AppData\Local\Temp\ccbih9yx.s:20851  .debug_str:0000000000009ec6 .LASF3157
C:\Users\SOLDER~1\AppData\Local\Temp\ccbih9yx.s:26685  .debug_str:0000000000021bda .LASF3158
C:\Users\SOLDER~1\AppData\Local\Temp\ccbih9yx.s:19063  .debug_str:0000000000002b39 .LASF3159
C:\Users\SOLDER~1\AppData\Local\Temp\ccbih9yx.s:26991  .debug_str:0000000000022f92 .LASF3160
C:\Users\SOLDER~1\AppData\Local\Temp\ccbih9yx.s:28675  .debug_str:0000000000029e43 .LASF3161
C:\Users\SOLDER~1\AppData\Local\Temp\ccbih9yx.s:29345  .debug_str:000000000002c9b1 .LASF3162
C:\Users\SOLDER~1\AppData\Local\Temp\ccbih9yx.s:28973  .debug_str:000000000002b1e1 .LASF3163
C:\Users\SOLDER~1\AppData\Local\Temp\ccbih9yx.s:26363  .debug_str:0000000000020713 .LASF3164
C:\Users\SOLDER~1\AppData\Local\Temp\ccbih9yx.s:21917  .debug_str:000000000000e533 .LASF3165
C:\Users\SOLDER~1\AppData\Local\Temp\ccbih9yx.s:26957  .debug_str:0000000000022d6f .LASF3166
C:\Users\SOLDER~1\AppData\Local\Temp\ccbih9yx.s:22765  .debug_str:0000000000011c2a .LASF3167
C:\Users\SOLDER~1\AppData\Local\Temp\ccbih9yx.s:29487  .debug_str:000000000002d329 .LASF3168
C:\Users\SOLDER~1\AppData\Local\Temp\ccbih9yx.s:21119  .debug_str:000000000000b06e .LASF3169
C:\Users\SOLDER~1\AppData\Local\Temp\ccbih9yx.s:27675  .debug_str:0000000000025cb1 .LASF3170
C:\Users\SOLDER~1\AppData\Local\Temp\ccbih9yx.s:19393  .debug_str:000000000000402b .LASF3171
C:\Users\SOLDER~1\AppData\Local\Temp\ccbih9yx.s:27673  .debug_str:0000000000025c90 .LASF3172
C:\Users\SOLDER~1\AppData\Local\Temp\ccbih9yx.s:19467  .debug_str:00000000000044d9 .LASF3173
C:\Users\SOLDER~1\AppData\Local\Temp\ccbih9yx.s:23763  .debug_str:0000000000015e3c .LASF3174
C:\Users\SOLDER~1\AppData\Local\Temp\ccbih9yx.s:24745  .debug_str:0000000000019d75 .LASF3175
C:\Users\SOLDER~1\AppData\Local\Temp\ccbih9yx.s:25543  .debug_str:000000000001d1ce .LASF3176
C:\Users\SOLDER~1\AppData\Local\Temp\ccbih9yx.s:22831  .debug_str:0000000000012037 .LASF3177
C:\Users\SOLDER~1\AppData\Local\Temp\ccbih9yx.s:25051  .debug_str:000000000001b127 .LASF3178
C:\Users\SOLDER~1\AppData\Local\Temp\ccbih9yx.s:20919  .debug_str:000000000000a341 .LASF3179
C:\Users\SOLDER~1\AppData\Local\Temp\ccbih9yx.s:27473  .debug_str:0000000000024f3b .LASF3180
C:\Users\SOLDER~1\AppData\Local\Temp\ccbih9yx.s:21269  .debug_str:000000000000ba2b .LASF3181
C:\Users\SOLDER~1\AppData\Local\Temp\ccbih9yx.s:25925  .debug_str:000000000001ea7f .LASF3182
C:\Users\SOLDER~1\AppData\Local\Temp\ccbih9yx.s:28741  .debug_str:000000000002a2d7 .LASF3183
C:\Users\SOLDER~1\AppData\Local\Temp\ccbih9yx.s:28337  .debug_str:00000000000288aa .LASF3184
C:\Users\SOLDER~1\AppData\Local\Temp\ccbih9yx.s:26825  .debug_str:0000000000022492 .LASF3185
C:\Users\SOLDER~1\AppData\Local\Temp\ccbih9yx.s:26491  .debug_str:0000000000020f44 .LASF3186
C:\Users\SOLDER~1\AppData\Local\Temp\ccbih9yx.s:24977  .debug_str:000000000001aca6 .LASF3187
C:\Users\SOLDER~1\AppData\Local\Temp\ccbih9yx.s:22021  .debug_str:000000000000ebdc .LASF3188
C:\Users\SOLDER~1\AppData\Local\Temp\ccbih9yx.s:23081  .debug_str:000000000001305b .LASF3189
C:\Users\SOLDER~1\AppData\Local\Temp\ccbih9yx.s:18665  .debug_str:000000000000118c .LASF3190
C:\Users\SOLDER~1\AppData\Local\Temp\ccbih9yx.s:20929  .debug_str:000000000000a3e7 .LASF3191
C:\Users\SOLDER~1\AppData\Local\Temp\ccbih9yx.s:28397  .debug_str:0000000000028c42 .LASF3192
C:\Users\SOLDER~1\AppData\Local\Temp\ccbih9yx.s:19281  .debug_str:0000000000003943 .LASF3193
C:\Users\SOLDER~1\AppData\Local\Temp\ccbih9yx.s:23767  .debug_str:0000000000015e80 .LASF3194
GAS LISTING C:\Users\SOLDER~1\AppData\Local\Temp\ccbih9yx.s 			page 67


C:\Users\SOLDER~1\AppData\Local\Temp\ccbih9yx.s:28813  .debug_str:000000000002a755 .LASF3195
C:\Users\SOLDER~1\AppData\Local\Temp\ccbih9yx.s:20889  .debug_str:000000000000a155 .LASF3196
C:\Users\SOLDER~1\AppData\Local\Temp\ccbih9yx.s:23555  .debug_str:00000000000150a3 .LASF3197
C:\Users\SOLDER~1\AppData\Local\Temp\ccbih9yx.s:25385  .debug_str:000000000001c6ff .LASF3198
C:\Users\SOLDER~1\AppData\Local\Temp\ccbih9yx.s:19057  .debug_str:0000000000002afc .LASF3199
C:\Users\SOLDER~1\AppData\Local\Temp\ccbih9yx.s:24481  .debug_str:0000000000018c75 .LASF3200
C:\Users\SOLDER~1\AppData\Local\Temp\ccbih9yx.s:23847  .debug_str:000000000001639d .LASF3201
C:\Users\SOLDER~1\AppData\Local\Temp\ccbih9yx.s:20631  .debug_str:0000000000009074 .LASF3202
C:\Users\SOLDER~1\AppData\Local\Temp\ccbih9yx.s:27193  .debug_str:0000000000023cad .LASF3203
C:\Users\SOLDER~1\AppData\Local\Temp\ccbih9yx.s:21951  .debug_str:000000000000e79d .LASF3204
C:\Users\SOLDER~1\AppData\Local\Temp\ccbih9yx.s:20467  .debug_str:0000000000008584 .LASF3205
C:\Users\SOLDER~1\AppData\Local\Temp\ccbih9yx.s:19979  .debug_str:00000000000065a5 .LASF3206
C:\Users\SOLDER~1\AppData\Local\Temp\ccbih9yx.s:27713  .debug_str:0000000000025f72 .LASF3207
C:\Users\SOLDER~1\AppData\Local\Temp\ccbih9yx.s:20811  .debug_str:0000000000009bec .LASF3208
C:\Users\SOLDER~1\AppData\Local\Temp\ccbih9yx.s:22867  .debug_str:0000000000012275 .LASF3209
C:\Users\SOLDER~1\AppData\Local\Temp\ccbih9yx.s:22863  .debug_str:000000000001223c .LASF3210
C:\Users\SOLDER~1\AppData\Local\Temp\ccbih9yx.s:23925  .debug_str:0000000000016844 .LASF3211
C:\Users\SOLDER~1\AppData\Local\Temp\ccbih9yx.s:28217  .debug_str:00000000000280ee .LASF3212
C:\Users\SOLDER~1\AppData\Local\Temp\ccbih9yx.s:27847  .debug_str:0000000000026883 .LASF3213
C:\Users\SOLDER~1\AppData\Local\Temp\ccbih9yx.s:25573  .debug_str:000000000001d3d7 .LASF3214
C:\Users\SOLDER~1\AppData\Local\Temp\ccbih9yx.s:19847  .debug_str:0000000000005d00 .LASF3215
C:\Users\SOLDER~1\AppData\Local\Temp\ccbih9yx.s:27295  .debug_str:000000000002437a .LASF3216
C:\Users\SOLDER~1\AppData\Local\Temp\ccbih9yx.s:28543  .debug_str:00000000000295d4 .LASF3217
C:\Users\SOLDER~1\AppData\Local\Temp\ccbih9yx.s:22103  .debug_str:000000000000f10d .LASF3218
C:\Users\SOLDER~1\AppData\Local\Temp\ccbih9yx.s:25719  .debug_str:000000000001dce7 .LASF3219
C:\Users\SOLDER~1\AppData\Local\Temp\ccbih9yx.s:23899  .debug_str:00000000000166aa .LASF3220
C:\Users\SOLDER~1\AppData\Local\Temp\ccbih9yx.s:25725  .debug_str:000000000001dd56 .LASF3221
C:\Users\SOLDER~1\AppData\Local\Temp\ccbih9yx.s:21041  .debug_str:000000000000ab6c .LASF3222
C:\Users\SOLDER~1\AppData\Local\Temp\ccbih9yx.s:20513  .debug_str:000000000000886a .LASF3223
C:\Users\SOLDER~1\AppData\Local\Temp\ccbih9yx.s:19375  .debug_str:0000000000003ef9 .LASF3224
C:\Users\SOLDER~1\AppData\Local\Temp\ccbih9yx.s:20199  .debug_str:0000000000007442 .LASF3225
C:\Users\SOLDER~1\AppData\Local\Temp\ccbih9yx.s:28435  .debug_str:0000000000028e8d .LASF3226
C:\Users\SOLDER~1\AppData\Local\Temp\ccbih9yx.s:26455  .debug_str:0000000000020cfb .LASF3227
C:\Users\SOLDER~1\AppData\Local\Temp\ccbih9yx.s:23941  .debug_str:000000000001695b .LASF3228
C:\Users\SOLDER~1\AppData\Local\Temp\ccbih9yx.s:21235  .debug_str:000000000000b7f5 .LASF3229
C:\Users\SOLDER~1\AppData\Local\Temp\ccbih9yx.s:18605  .debug_str:0000000000000dee .LASF3230
C:\Users\SOLDER~1\AppData\Local\Temp\ccbih9yx.s:27569  .debug_str:000000000002555b .LASF3231
C:\Users\SOLDER~1\AppData\Local\Temp\ccbih9yx.s:28705  .debug_str:000000000002a061 .LASF3232
C:\Users\SOLDER~1\AppData\Local\Temp\ccbih9yx.s:18859  .debug_str:0000000000001df5 .LASF3233
C:\Users\SOLDER~1\AppData\Local\Temp\ccbih9yx.s:22925  .debug_str:0000000000012642 .LASF3234
C:\Users\SOLDER~1\AppData\Local\Temp\ccbih9yx.s:29605  .debug_str:000000000002da84 .LASF3235
C:\Users\SOLDER~1\AppData\Local\Temp\ccbih9yx.s:27407  .debug_str:0000000000024b09 .LASF3236
C:\Users\SOLDER~1\AppData\Local\Temp\ccbih9yx.s:22047  .debug_str:000000000000ed8d .LASF3237
C:\Users\SOLDER~1\AppData\Local\Temp\ccbih9yx.s:25691  .debug_str:000000000001db05 .LASF3238
C:\Users\SOLDER~1\AppData\Local\Temp\ccbih9yx.s:29257  .debug_str:000000000002c432 .LASF3239
C:\Users\SOLDER~1\AppData\Local\Temp\ccbih9yx.s:21375  .debug_str:000000000000c127 .LASF3240
C:\Users\SOLDER~1\AppData\Local\Temp\ccbih9yx.s:27455  .debug_str:0000000000024e1f .LASF3241
C:\Users\SOLDER~1\AppData\Local\Temp\ccbih9yx.s:29153  .debug_str:000000000002bd41 .LASF3242
C:\Users\SOLDER~1\AppData\Local\Temp\ccbih9yx.s:23115  .debug_str:00000000000132bb .LASF3243
C:\Users\SOLDER~1\AppData\Local\Temp\ccbih9yx.s:22293  .debug_str:000000000000fdfb .LASF3244
C:\Users\SOLDER~1\AppData\Local\Temp\ccbih9yx.s:28165  .debug_str:0000000000027d61 .LASF3245
C:\Users\SOLDER~1\AppData\Local\Temp\ccbih9yx.s:25857  .debug_str:000000000001e5e3 .LASF3246
C:\Users\SOLDER~1\AppData\Local\Temp\ccbih9yx.s:28325  .debug_str:0000000000028801 .LASF3247
C:\Users\SOLDER~1\AppData\Local\Temp\ccbih9yx.s:22143  .debug_str:000000000000f399 .LASF3248
C:\Users\SOLDER~1\AppData\Local\Temp\ccbih9yx.s:29055  .debug_str:000000000002b70b .LASF3249
C:\Users\SOLDER~1\AppData\Local\Temp\ccbih9yx.s:23541  .debug_str:0000000000014fc0 .LASF3250
C:\Users\SOLDER~1\AppData\Local\Temp\ccbih9yx.s:29699  .debug_str:000000000002e07f .LASF3251
GAS LISTING C:\Users\SOLDER~1\AppData\Local\Temp\ccbih9yx.s 			page 68


C:\Users\SOLDER~1\AppData\Local\Temp\ccbih9yx.s:28777  .debug_str:000000000002a51c .LASF3252
C:\Users\SOLDER~1\AppData\Local\Temp\ccbih9yx.s:27753  .debug_str:000000000002623d .LASF3253
C:\Users\SOLDER~1\AppData\Local\Temp\ccbih9yx.s:28501  .debug_str:00000000000292ea .LASF3254
C:\Users\SOLDER~1\AppData\Local\Temp\ccbih9yx.s:25369  .debug_str:000000000001c5ea .LASF3255
C:\Users\SOLDER~1\AppData\Local\Temp\ccbih9yx.s:22647  .debug_str:0000000000011464 .LASF3256
C:\Users\SOLDER~1\AppData\Local\Temp\ccbih9yx.s:20327  .debug_str:0000000000007c48 .LASF3257
C:\Users\SOLDER~1\AppData\Local\Temp\ccbih9yx.s:21283  .debug_str:000000000000bb44 .LASF3258
C:\Users\SOLDER~1\AppData\Local\Temp\ccbih9yx.s:25199  .debug_str:000000000001ba93 .LASF3259
C:\Users\SOLDER~1\AppData\Local\Temp\ccbih9yx.s:22451  .debug_str:00000000000107d4 .LASF3260
C:\Users\SOLDER~1\AppData\Local\Temp\ccbih9yx.s:25099  .debug_str:000000000001b437 .LASF3261
C:\Users\SOLDER~1\AppData\Local\Temp\ccbih9yx.s:26723  .debug_str:0000000000021e46 .LASF3262
C:\Users\SOLDER~1\AppData\Local\Temp\ccbih9yx.s:27281  .debug_str:0000000000024276 .LASF3263
C:\Users\SOLDER~1\AppData\Local\Temp\ccbih9yx.s:20471  .debug_str:00000000000085b7 .LASF3264
C:\Users\SOLDER~1\AppData\Local\Temp\ccbih9yx.s:28223  .debug_str:0000000000028149 .LASF3265
C:\Users\SOLDER~1\AppData\Local\Temp\ccbih9yx.s:24661  .debug_str:0000000000019824 .LASF3266
C:\Users\SOLDER~1\AppData\Local\Temp\ccbih9yx.s:21441  .debug_str:000000000000c5cb .LASF3267
C:\Users\SOLDER~1\AppData\Local\Temp\ccbih9yx.s:20681  .debug_str:00000000000093f5 .LASF3268
C:\Users\SOLDER~1\AppData\Local\Temp\ccbih9yx.s:20391  .debug_str:00000000000080b3 .LASF3269
C:\Users\SOLDER~1\AppData\Local\Temp\ccbih9yx.s:22205  .debug_str:000000000000f7cd .LASF3270
C:\Users\SOLDER~1\AppData\Local\Temp\ccbih9yx.s:24411  .debug_str:00000000000187b7 .LASF3271
C:\Users\SOLDER~1\AppData\Local\Temp\ccbih9yx.s:23431  .debug_str:00000000000148b7 .LASF3272
C:\Users\SOLDER~1\AppData\Local\Temp\ccbih9yx.s:25695  .debug_str:000000000001db49 .LASF3273
C:\Users\SOLDER~1\AppData\Local\Temp\ccbih9yx.s:18949  .debug_str:00000000000023dd .LASF3274
C:\Users\SOLDER~1\AppData\Local\Temp\ccbih9yx.s:21945  .debug_str:000000000000e70f .LASF3275
C:\Users\SOLDER~1\AppData\Local\Temp\ccbih9yx.s:23613  .debug_str:000000000001548b .LASF3276
C:\Users\SOLDER~1\AppData\Local\Temp\ccbih9yx.s:26011  .debug_str:000000000001f00f .LASF3277
C:\Users\SOLDER~1\AppData\Local\Temp\ccbih9yx.s:26905  .debug_str:00000000000229e6 .LASF3278
C:\Users\SOLDER~1\AppData\Local\Temp\ccbih9yx.s:29803  .debug_str:000000000002e744 .LASF3279
C:\Users\SOLDER~1\AppData\Local\Temp\ccbih9yx.s:28685  .debug_str:0000000000029ef3 .LASF3280
C:\Users\SOLDER~1\AppData\Local\Temp\ccbih9yx.s:28951  .debug_str:000000000002b06f .LASF3281
C:\Users\SOLDER~1\AppData\Local\Temp\ccbih9yx.s:20557  .debug_str:0000000000008b6a .LASF3282
C:\Users\SOLDER~1\AppData\Local\Temp\ccbih9yx.s:24251  .debug_str:0000000000017d53 .LASF3283
C:\Users\SOLDER~1\AppData\Local\Temp\ccbih9yx.s:29463  .debug_str:000000000002d192 .LASF3284
C:\Users\SOLDER~1\AppData\Local\Temp\ccbih9yx.s:27375  .debug_str:00000000000248ce .LASF3285
C:\Users\SOLDER~1\AppData\Local\Temp\ccbih9yx.s:21949  .debug_str:000000000000e76a .LASF3286
C:\Users\SOLDER~1\AppData\Local\Temp\ccbih9yx.s:23477  .debug_str:0000000000014be3 .LASF3287
C:\Users\SOLDER~1\AppData\Local\Temp\ccbih9yx.s:21399  .debug_str:000000000000c2e2 .LASF3288
C:\Users\SOLDER~1\AppData\Local\Temp\ccbih9yx.s:22665  .debug_str:00000000000115b6 .LASF3289
C:\Users\SOLDER~1\AppData\Local\Temp\ccbih9yx.s:23277  .debug_str:0000000000013e29 .LASF3290
C:\Users\SOLDER~1\AppData\Local\Temp\ccbih9yx.s:22661  .debug_str:000000000001156b .LASF3291
C:\Users\SOLDER~1\AppData\Local\Temp\ccbih9yx.s:25885  .debug_str:000000000001e7bb .LASF3292
C:\Users\SOLDER~1\AppData\Local\Temp\ccbih9yx.s:23045  .debug_str:0000000000012e1b .LASF3293
C:\Users\SOLDER~1\AppData\Local\Temp\ccbih9yx.s:28147  .debug_str:0000000000027c16 .LASF3294
C:\Users\SOLDER~1\AppData\Local\Temp\ccbih9yx.s:25565  .debug_str:000000000001d349 .LASF3295
C:\Users\SOLDER~1\AppData\Local\Temp\ccbih9yx.s:26691  .debug_str:0000000000021c4f .LASF3296
C:\Users\SOLDER~1\AppData\Local\Temp\ccbih9yx.s:24235  .debug_str:0000000000017c3e .LASF3297
C:\Users\SOLDER~1\AppData\Local\Temp\ccbih9yx.s:19765  .debug_str:0000000000005788 .LASF3298
C:\Users\SOLDER~1\AppData\Local\Temp\ccbih9yx.s:22223  .debug_str:000000000000f906 .LASF3299
C:\Users\SOLDER~1\AppData\Local\Temp\ccbih9yx.s:23807  .debug_str:000000000001611b .LASF3300
C:\Users\SOLDER~1\AppData\Local\Temp\ccbih9yx.s:25667  .debug_str:000000000001d96e .LASF3301
C:\Users\SOLDER~1\AppData\Local\Temp\ccbih9yx.s:25237  .debug_str:000000000001bcea .LASF3302
C:\Users\SOLDER~1\AppData\Local\Temp\ccbih9yx.s:21577  .debug_str:000000000000cecc .LASF3303
C:\Users\SOLDER~1\AppData\Local\Temp\ccbih9yx.s:19171  .debug_str:0000000000003227 .LASF3304
C:\Users\SOLDER~1\AppData\Local\Temp\ccbih9yx.s:25225  .debug_str:000000000001bc25 .LASF3305
C:\Users\SOLDER~1\AppData\Local\Temp\ccbih9yx.s:20583  .debug_str:0000000000008d19 .LASF3306
C:\Users\SOLDER~1\AppData\Local\Temp\ccbih9yx.s:22019  .debug_str:000000000000eba9 .LASF3307
C:\Users\SOLDER~1\AppData\Local\Temp\ccbih9yx.s:19475  .debug_str:000000000000453d .LASF3308
GAS LISTING C:\Users\SOLDER~1\AppData\Local\Temp\ccbih9yx.s 			page 69


C:\Users\SOLDER~1\AppData\Local\Temp\ccbih9yx.s:22363  .debug_str:0000000000010241 .LASF3309
C:\Users\SOLDER~1\AppData\Local\Temp\ccbih9yx.s:19653  .debug_str:0000000000005061 .LASF3310
C:\Users\SOLDER~1\AppData\Local\Temp\ccbih9yx.s:18457  .debug_str:000000000000035e .LASF3311
C:\Users\SOLDER~1\AppData\Local\Temp\ccbih9yx.s:20855  .debug_str:0000000000009f05 .LASF3312
C:\Users\SOLDER~1\AppData\Local\Temp\ccbih9yx.s:25953  .debug_str:000000000001ec3c .LASF3313
C:\Users\SOLDER~1\AppData\Local\Temp\ccbih9yx.s:29769  .debug_str:000000000002e4e2 .LASF3314
C:\Users\SOLDER~1\AppData\Local\Temp\ccbih9yx.s:18645  .debug_str:0000000000001037 .LASF3315
C:\Users\SOLDER~1\AppData\Local\Temp\ccbih9yx.s:19323  .debug_str:0000000000003c00 .LASF3316
C:\Users\SOLDER~1\AppData\Local\Temp\ccbih9yx.s:23863  .debug_str:00000000000164a9 .LASF3317
C:\Users\SOLDER~1\AppData\Local\Temp\ccbih9yx.s:24861  .debug_str:000000000001a4c1 .LASF3318
C:\Users\SOLDER~1\AppData\Local\Temp\ccbih9yx.s:24419  .debug_str:0000000000018847 .LASF3319
C:\Users\SOLDER~1\AppData\Local\Temp\ccbih9yx.s:29457  .debug_str:000000000002d12d .LASF3320
C:\Users\SOLDER~1\AppData\Local\Temp\ccbih9yx.s:26009  .debug_str:000000000001efe6 .LASF3321
C:\Users\SOLDER~1\AppData\Local\Temp\ccbih9yx.s:22565  .debug_str:0000000000010f15 .LASF3322
C:\Users\SOLDER~1\AppData\Local\Temp\ccbih9yx.s:19095  .debug_str:0000000000002d33 .LASF3323
C:\Users\SOLDER~1\AppData\Local\Temp\ccbih9yx.s:27117  .debug_str:00000000000237f2 .LASF3324
C:\Users\SOLDER~1\AppData\Local\Temp\ccbih9yx.s:23251  .debug_str:0000000000013c5c .LASF3325
C:\Users\SOLDER~1\AppData\Local\Temp\ccbih9yx.s:22693  .debug_str:000000000001176a .LASF3326
C:\Users\SOLDER~1\AppData\Local\Temp\ccbih9yx.s:22145  .debug_str:000000000000f3c8 .LASF3327
C:\Users\SOLDER~1\AppData\Local\Temp\ccbih9yx.s:24493  .debug_str:0000000000018d53 .LASF3328
C:\Users\SOLDER~1\AppData\Local\Temp\ccbih9yx.s:27183  .debug_str:0000000000023c13 .LASF3329
C:\Users\SOLDER~1\AppData\Local\Temp\ccbih9yx.s:18491  .debug_str:000000000000059c .LASF3330
C:\Users\SOLDER~1\AppData\Local\Temp\ccbih9yx.s:20003  .debug_str:0000000000006762 .LASF3331
C:\Users\SOLDER~1\AppData\Local\Temp\ccbih9yx.s:19001  .debug_str:0000000000002736 .LASF3332
C:\Users\SOLDER~1\AppData\Local\Temp\ccbih9yx.s:26107  .debug_str:000000000001f698 .LASF3333
C:\Users\SOLDER~1\AppData\Local\Temp\ccbih9yx.s:28449  .debug_str:0000000000028f6f .LASF3334
C:\Users\SOLDER~1\AppData\Local\Temp\ccbih9yx.s:21363  .debug_str:000000000000c051 .LASF3335
C:\Users\SOLDER~1\AppData\Local\Temp\ccbih9yx.s:26381  .debug_str:0000000000020834 .LASF3336
C:\Users\SOLDER~1\AppData\Local\Temp\ccbih9yx.s:19617  .debug_str:0000000000004e47 .LASF3337
C:\Users\SOLDER~1\AppData\Local\Temp\ccbih9yx.s:20551  .debug_str:0000000000008af8 .LASF3338
C:\Users\SOLDER~1\AppData\Local\Temp\ccbih9yx.s:22139  .debug_str:000000000000f346 .LASF3339
C:\Users\SOLDER~1\AppData\Local\Temp\ccbih9yx.s:20063  .debug_str:0000000000006b2f .LASF3340
C:\Users\SOLDER~1\AppData\Local\Temp\ccbih9yx.s:29813  .debug_str:000000000002e7f6 .LASF3341
C:\Users\SOLDER~1\AppData\Local\Temp\ccbih9yx.s:25411  .debug_str:000000000001c8b4 .LASF3342
C:\Users\SOLDER~1\AppData\Local\Temp\ccbih9yx.s:26253  .debug_str:000000000001ffd2 .LASF3343
C:\Users\SOLDER~1\AppData\Local\Temp\ccbih9yx.s:24519  .debug_str:0000000000018f16 .LASF3344
C:\Users\SOLDER~1\AppData\Local\Temp\ccbih9yx.s:22713  .debug_str:00000000000118cd .LASF3345
C:\Users\SOLDER~1\AppData\Local\Temp\ccbih9yx.s:20227  .debug_str:00000000000075f2 .LASF3346
C:\Users\SOLDER~1\AppData\Local\Temp\ccbih9yx.s:28867  .debug_str:000000000002aad7 .LASF3347
C:\Users\SOLDER~1\AppData\Local\Temp\ccbih9yx.s:21233  .debug_str:000000000000b7d9 .LASF3348
C:\Users\SOLDER~1\AppData\Local\Temp\ccbih9yx.s:23601  .debug_str:00000000000153c6 .LASF3349
C:\Users\SOLDER~1\AppData\Local\Temp\ccbih9yx.s:26731  .debug_str:0000000000021ed3 .LASF3350
C:\Users\SOLDER~1\AppData\Local\Temp\ccbih9yx.s:26037  .debug_str:000000000001f1d2 .LASF3351
C:\Users\SOLDER~1\AppData\Local\Temp\ccbih9yx.s:23347  .debug_str:0000000000014315 .LASF3352
C:\Users\SOLDER~1\AppData\Local\Temp\ccbih9yx.s:23629  .debug_str:00000000000155ac .LASF3353
C:\Users\SOLDER~1\AppData\Local\Temp\ccbih9yx.s:23357  .debug_str:00000000000143a7 .LASF3354
C:\Users\SOLDER~1\AppData\Local\Temp\ccbih9yx.s:19887  .debug_str:0000000000005f5c .LASF3355
C:\Users\SOLDER~1\AppData\Local\Temp\ccbih9yx.s:27919  .debug_str:0000000000026d41 .LASF3356
C:\Users\SOLDER~1\AppData\Local\Temp\ccbih9yx.s:24537  .debug_str:0000000000019043 .LASF3357
C:\Users\SOLDER~1\AppData\Local\Temp\ccbih9yx.s:24369  .debug_str:000000000001851b .LASF3358
C:\Users\SOLDER~1\AppData\Local\Temp\ccbih9yx.s:29105  .debug_str:000000000002ba05 .LASF3359
C:\Users\SOLDER~1\AppData\Local\Temp\ccbih9yx.s:21405  .debug_str:000000000000c359 .LASF3360
C:\Users\SOLDER~1\AppData\Local\Temp\ccbih9yx.s:26167  .debug_str:000000000001fa65 .LASF3361
C:\Users\SOLDER~1\AppData\Local\Temp\ccbih9yx.s:28933  .debug_str:000000000002af10 .LASF3362
C:\Users\SOLDER~1\AppData\Local\Temp\ccbih9yx.s:28453  .debug_str:0000000000028fbc .LASF3363
C:\Users\SOLDER~1\AppData\Local\Temp\ccbih9yx.s:26341  .debug_str:000000000002058f .LASF3364
C:\Users\SOLDER~1\AppData\Local\Temp\ccbih9yx.s:25709  .debug_str:000000000001dc25 .LASF3365
GAS LISTING C:\Users\SOLDER~1\AppData\Local\Temp\ccbih9yx.s 			page 70


C:\Users\SOLDER~1\AppData\Local\Temp\ccbih9yx.s:26817  .debug_str:00000000000223ff .LASF3366
C:\Users\SOLDER~1\AppData\Local\Temp\ccbih9yx.s:27941  .debug_str:0000000000026ee8 .LASF3367
C:\Users\SOLDER~1\AppData\Local\Temp\ccbih9yx.s:29009  .debug_str:000000000002b40b .LASF3368
C:\Users\SOLDER~1\AppData\Local\Temp\ccbih9yx.s:22225  .debug_str:000000000000f92e .LASF3369
C:\Users\SOLDER~1\AppData\Local\Temp\ccbih9yx.s:26921  .debug_str:0000000000022b0d .LASF3370
C:\Users\SOLDER~1\AppData\Local\Temp\ccbih9yx.s:27861  .debug_str:0000000000026982 .LASF3371
C:\Users\SOLDER~1\AppData\Local\Temp\ccbih9yx.s:21313  .debug_str:000000000000bd18 .LASF3372
C:\Users\SOLDER~1\AppData\Local\Temp\ccbih9yx.s:29637  .debug_str:000000000002dcaa .LASF3373
C:\Users\SOLDER~1\AppData\Local\Temp\ccbih9yx.s:19355  .debug_str:0000000000003e07 .LASF3374
C:\Users\SOLDER~1\AppData\Local\Temp\ccbih9yx.s:28289  .debug_str:0000000000028553 .LASF3375
C:\Users\SOLDER~1\AppData\Local\Temp\ccbih9yx.s:21133  .debug_str:000000000000b14d .LASF3376
C:\Users\SOLDER~1\AppData\Local\Temp\ccbih9yx.s:22913  .debug_str:000000000001257b .LASF3377
C:\Users\SOLDER~1\AppData\Local\Temp\ccbih9yx.s:20221  .debug_str:0000000000007586 .LASF3378
C:\Users\SOLDER~1\AppData\Local\Temp\ccbih9yx.s:24775  .debug_str:0000000000019f55 .LASF3379
C:\Users\SOLDER~1\AppData\Local\Temp\ccbih9yx.s:22975  .debug_str:0000000000012965 .LASF3380
C:\Users\SOLDER~1\AppData\Local\Temp\ccbih9yx.s:26081  .debug_str:000000000001f4c4 .LASF3381
C:\Users\SOLDER~1\AppData\Local\Temp\ccbih9yx.s:24193  .debug_str:0000000000017995 .LASF3382
C:\Users\SOLDER~1\AppData\Local\Temp\ccbih9yx.s:29687  .debug_str:000000000002dfb4 .LASF3383
C:\Users\SOLDER~1\AppData\Local\Temp\ccbih9yx.s:25135  .debug_str:000000000001b67e .LASF3384
C:\Users\SOLDER~1\AppData\Local\Temp\ccbih9yx.s:24731  .debug_str:0000000000019cb0 .LASF3385
C:\Users\SOLDER~1\AppData\Local\Temp\ccbih9yx.s:28601  .debug_str:0000000000029952 .LASF3386
C:\Users\SOLDER~1\AppData\Local\Temp\ccbih9yx.s:23419  .debug_str:00000000000147c2 .LASF3387
C:\Users\SOLDER~1\AppData\Local\Temp\ccbih9yx.s:29371  .debug_str:000000000002cb44 .LASF3388
C:\Users\SOLDER~1\AppData\Local\Temp\ccbih9yx.s:23507  .debug_str:0000000000014dc0 .LASF3389
C:\Users\SOLDER~1\AppData\Local\Temp\ccbih9yx.s:25849  .debug_str:000000000001e54d .LASF3390
C:\Users\SOLDER~1\AppData\Local\Temp\ccbih9yx.s:29909  .debug_str:000000000002ede0 .LASF3391
C:\Users\SOLDER~1\AppData\Local\Temp\ccbih9yx.s:22033  .debug_str:000000000000ec9c .LASF3392
C:\Users\SOLDER~1\AppData\Local\Temp\ccbih9yx.s:20589  .debug_str:0000000000008d8e .LASF3393
C:\Users\SOLDER~1\AppData\Local\Temp\ccbih9yx.s:18725  .debug_str:000000000000156e .LASF3394
C:\Users\SOLDER~1\AppData\Local\Temp\ccbih9yx.s:27573  .debug_str:0000000000025586 .LASF3395
C:\Users\SOLDER~1\AppData\Local\Temp\ccbih9yx.s:27693  .debug_str:0000000000025df2 .LASF3396
C:\Users\SOLDER~1\AppData\Local\Temp\ccbih9yx.s:24783  .debug_str:0000000000019fe0 .LASF3397
C:\Users\SOLDER~1\AppData\Local\Temp\ccbih9yx.s:21861  .debug_str:000000000000e1bf .LASF3398
C:\Users\SOLDER~1\AppData\Local\Temp\ccbih9yx.s:20893  .debug_str:000000000000a19d .LASF3399
C:\Users\SOLDER~1\AppData\Local\Temp\ccbih9yx.s:24041  .debug_str:0000000000016f7d .LASF3400
C:\Users\SOLDER~1\AppData\Local\Temp\ccbih9yx.s:24255  .debug_str:0000000000017da2 .LASF3401
C:\Users\SOLDER~1\AppData\Local\Temp\ccbih9yx.s:28699  .debug_str:0000000000029fda .LASF3402
C:\Users\SOLDER~1\AppData\Local\Temp\ccbih9yx.s:24035  .debug_str:0000000000016f1d .LASF3403
C:\Users\SOLDER~1\AppData\Local\Temp\ccbih9yx.s:27905  .debug_str:0000000000026c65 .LASF3404
C:\Users\SOLDER~1\AppData\Local\Temp\ccbih9yx.s:21137  .debug_str:000000000000b187 .LASF3405
C:\Users\SOLDER~1\AppData\Local\Temp\ccbih9yx.s:25867  .debug_str:000000000001e6a3 .LASF3406
C:\Users\SOLDER~1\AppData\Local\Temp\ccbih9yx.s:19085  .debug_str:0000000000002c85 .LASF3407
C:\Users\SOLDER~1\AppData\Local\Temp\ccbih9yx.s:20773  .debug_str:000000000000999e .LASF3408
C:\Users\SOLDER~1\AppData\Local\Temp\ccbih9yx.s:28549  .debug_str:000000000002962a .LASF3409
C:\Users\SOLDER~1\AppData\Local\Temp\ccbih9yx.s:29287  .debug_str:000000000002c624 .LASF3410
C:\Users\SOLDER~1\AppData\Local\Temp\ccbih9yx.s:19251  .debug_str:0000000000003746 .LASF3411
C:\Users\SOLDER~1\AppData\Local\Temp\ccbih9yx.s:28993  .debug_str:000000000002b30f .LASF3412
C:\Users\SOLDER~1\AppData\Local\Temp\ccbih9yx.s:27181  .debug_str:0000000000023be9 .LASF3413
C:\Users\SOLDER~1\AppData\Local\Temp\ccbih9yx.s:25441  .debug_str:000000000001cacf .LASF3414
C:\Users\SOLDER~1\AppData\Local\Temp\ccbih9yx.s:23697  .debug_str:0000000000015a1e .LASF3415
C:\Users\SOLDER~1\AppData\Local\Temp\ccbih9yx.s:28757  .debug_str:000000000002a3d0 .LASF3416
C:\Users\SOLDER~1\AppData\Local\Temp\ccbih9yx.s:20133  .debug_str:0000000000007000 .LASF3417
C:\Users\SOLDER~1\AppData\Local\Temp\ccbih9yx.s:23515  .debug_str:0000000000014e39 .LASF3418
C:\Users\SOLDER~1\AppData\Local\Temp\ccbih9yx.s:22539  .debug_str:0000000000010d63 .LASF3419
C:\Users\SOLDER~1\AppData\Local\Temp\ccbih9yx.s:22043  .debug_str:000000000000ed4b .LASF3420
C:\Users\SOLDER~1\AppData\Local\Temp\ccbih9yx.s:27333  .debug_str:0000000000024608 .LASF3421
C:\Users\SOLDER~1\AppData\Local\Temp\ccbih9yx.s:27543  .debug_str:0000000000025389 .LASF3422
GAS LISTING C:\Users\SOLDER~1\AppData\Local\Temp\ccbih9yx.s 			page 71


C:\Users\SOLDER~1\AppData\Local\Temp\ccbih9yx.s:22711  .debug_str:00000000000118a6 .LASF3423
C:\Users\SOLDER~1\AppData\Local\Temp\ccbih9yx.s:28409  .debug_str:0000000000028d09 .LASF3424
C:\Users\SOLDER~1\AppData\Local\Temp\ccbih9yx.s:25777  .debug_str:000000000001e0c4 .LASF3425
C:\Users\SOLDER~1\AppData\Local\Temp\ccbih9yx.s:26331  .debug_str:00000000000204f7 .LASF3426
C:\Users\SOLDER~1\AppData\Local\Temp\ccbih9yx.s:22903  .debug_str:00000000000124bc .LASF3427
C:\Users\SOLDER~1\AppData\Local\Temp\ccbih9yx.s:24761  .debug_str:0000000000019e60 .LASF3428
C:\Users\SOLDER~1\AppData\Local\Temp\ccbih9yx.s:19313  .debug_str:0000000000003b54 .LASF3429
C:\Users\SOLDER~1\AppData\Local\Temp\ccbih9yx.s:24099  .debug_str:000000000001734d .LASF3430
C:\Users\SOLDER~1\AppData\Local\Temp\ccbih9yx.s:20613  .debug_str:0000000000008f30 .LASF3431
C:\Users\SOLDER~1\AppData\Local\Temp\ccbih9yx.s:26431  .debug_str:0000000000020b76 .LASF3432
C:\Users\SOLDER~1\AppData\Local\Temp\ccbih9yx.s:29185  .debug_str:000000000002bf97 .LASF3433
C:\Users\SOLDER~1\AppData\Local\Temp\ccbih9yx.s:22545  .debug_str:0000000000010dd0 .LASF3434
C:\Users\SOLDER~1\AppData\Local\Temp\ccbih9yx.s:23229  .debug_str:0000000000013ae7 .LASF3435
C:\Users\SOLDER~1\AppData\Local\Temp\ccbih9yx.s:25963  .debug_str:000000000001ecf0 .LASF3436
C:\Users\SOLDER~1\AppData\Local\Temp\ccbih9yx.s:28717  .debug_str:000000000002a134 .LASF3437
C:\Users\SOLDER~1\AppData\Local\Temp\ccbih9yx.s:19977  .debug_str:000000000000657b .LASF3438
C:\Users\SOLDER~1\AppData\Local\Temp\ccbih9yx.s:22737  .debug_str:0000000000011a44 .LASF3439
C:\Users\SOLDER~1\AppData\Local\Temp\ccbih9yx.s:20523  .debug_str:000000000000890e .LASF3440
C:\Users\SOLDER~1\AppData\Local\Temp\ccbih9yx.s:25241  .debug_str:000000000001bd39 .LASF3441
C:\Users\SOLDER~1\AppData\Local\Temp\ccbih9yx.s:18473  .debug_str:0000000000000463 .LASF3442
C:\Users\SOLDER~1\AppData\Local\Temp\ccbih9yx.s:21409  .debug_str:000000000000c39c .LASF3443
C:\Users\SOLDER~1\AppData\Local\Temp\ccbih9yx.s:27881  .debug_str:0000000000026ae2 .LASF3444
C:\Users\SOLDER~1\AppData\Local\Temp\ccbih9yx.s:19935  .debug_str:00000000000062b8 .LASF3445
C:\Users\SOLDER~1\AppData\Local\Temp\ccbih9yx.s:25847  .debug_str:000000000001e523 .LASF3446
C:\Users\SOLDER~1\AppData\Local\Temp\ccbih9yx.s:23361  .debug_str:00000000000143f7 .LASF3447
C:\Users\SOLDER~1\AppData\Local\Temp\ccbih9yx.s:21557  .debug_str:000000000000cd94 .LASF3448
C:\Users\SOLDER~1\AppData\Local\Temp\ccbih9yx.s:27923  .debug_str:0000000000026d93 .LASF3449
C:\Users\SOLDER~1\AppData\Local\Temp\ccbih9yx.s:29539  .debug_str:000000000002d66b .LASF3450
C:\Users\SOLDER~1\AppData\Local\Temp\ccbih9yx.s:23689  .debug_str:00000000000159a1 .LASF3451
C:\Users\SOLDER~1\AppData\Local\Temp\ccbih9yx.s:25989  .debug_str:000000000001ee90 .LASF3452
C:\Users\SOLDER~1\AppData\Local\Temp\ccbih9yx.s:24261  .debug_str:0000000000017e0c .LASF3453
C:\Users\SOLDER~1\AppData\Local\Temp\ccbih9yx.s:19497  .debug_str:00000000000046c9 .LASF3454
C:\Users\SOLDER~1\AppData\Local\Temp\ccbih9yx.s:24523  .debug_str:0000000000018f60 .LASF3455
C:\Users\SOLDER~1\AppData\Local\Temp\ccbih9yx.s:19047  .debug_str:0000000000002a52 .LASF3456
C:\Users\SOLDER~1\AppData\Local\Temp\ccbih9yx.s:28979  .debug_str:000000000002b236 .LASF3457
C:\Users\SOLDER~1\AppData\Local\Temp\ccbih9yx.s:28193  .debug_str:0000000000027f36 .LASF3458
C:\Users\SOLDER~1\AppData\Local\Temp\ccbih9yx.s:29773  .debug_str:000000000002e520 .LASF3459
C:\Users\SOLDER~1\AppData\Local\Temp\ccbih9yx.s:22721  .debug_str:0000000000011971 .LASF3460
C:\Users\SOLDER~1\AppData\Local\Temp\ccbih9yx.s:27417  .debug_str:0000000000024b99 .LASF3461
C:\Users\SOLDER~1\AppData\Local\Temp\ccbih9yx.s:22821  .debug_str:0000000000011f9b .LASF3462
C:\Users\SOLDER~1\AppData\Local\Temp\ccbih9yx.s:28225  .debug_str:0000000000028168 .LASF3463
C:\Users\SOLDER~1\AppData\Local\Temp\ccbih9yx.s:26737  .debug_str:0000000000021f31 .LASF3464
C:\Users\SOLDER~1\AppData\Local\Temp\ccbih9yx.s:19747  .debug_str:0000000000005629 .LASF3465
C:\Users\SOLDER~1\AppData\Local\Temp\ccbih9yx.s:22179  .debug_str:000000000000f5ee .LASF3466
C:\Users\SOLDER~1\AppData\Local\Temp\ccbih9yx.s:24057  .debug_str:0000000000017099 .LASF3467
C:\Users\SOLDER~1\AppData\Local\Temp\ccbih9yx.s:24231  .debug_str:0000000000017c05 .LASF3468
C:\Users\SOLDER~1\AppData\Local\Temp\ccbih9yx.s:19031  .debug_str:000000000000295f .LASF3469
C:\Users\SOLDER~1\AppData\Local\Temp\ccbih9yx.s:24357  .debug_str:0000000000018457 .LASF3470
C:\Users\SOLDER~1\AppData\Local\Temp\ccbih9yx.s:29065  .debug_str:000000000002b79e .LASF3471
C:\Users\SOLDER~1\AppData\Local\Temp\ccbih9yx.s:25917  .debug_str:000000000001ea03 .LASF3472
C:\Users\SOLDER~1\AppData\Local\Temp\ccbih9yx.s:19299  .debug_str:0000000000003a72 .LASF3473
C:\Users\SOLDER~1\AppData\Local\Temp\ccbih9yx.s:19981  .debug_str:00000000000065c7 .LASF3474
C:\Users\SOLDER~1\AppData\Local\Temp\ccbih9yx.s:23207  .debug_str:000000000001391c .LASF3475
C:\Users\SOLDER~1\AppData\Local\Temp\ccbih9yx.s:21527  .debug_str:000000000000cba5 .LASF3476
C:\Users\SOLDER~1\AppData\Local\Temp\ccbih9yx.s:23313  .debug_str:0000000000014086 .LASF3477
C:\Users\SOLDER~1\AppData\Local\Temp\ccbih9yx.s:20245  .debug_str:0000000000007710 .LASF3478
C:\Users\SOLDER~1\AppData\Local\Temp\ccbih9yx.s:20585  .debug_str:0000000000008d49 .LASF3479
GAS LISTING C:\Users\SOLDER~1\AppData\Local\Temp\ccbih9yx.s 			page 72


C:\Users\SOLDER~1\AppData\Local\Temp\ccbih9yx.s:20193  .debug_str:00000000000073e6 .LASF3480
C:\Users\SOLDER~1\AppData\Local\Temp\ccbih9yx.s:25971  .debug_str:000000000001ed65 .LASF3481
C:\Users\SOLDER~1\AppData\Local\Temp\ccbih9yx.s:28975  .debug_str:000000000002b1f9 .LASF3482
C:\Users\SOLDER~1\AppData\Local\Temp\ccbih9yx.s:19151  .debug_str:00000000000030e5 .LASF3483
C:\Users\SOLDER~1\AppData\Local\Temp\ccbih9yx.s:26757  .debug_str:0000000000022065 .LASF3484
C:\Users\SOLDER~1\AppData\Local\Temp\ccbih9yx.s:19751  .debug_str:0000000000005671 .LASF3485
C:\Users\SOLDER~1\AppData\Local\Temp\ccbih9yx.s:20367  .debug_str:0000000000007f10 .LASF3486
C:\Users\SOLDER~1\AppData\Local\Temp\ccbih9yx.s:19129  .debug_str:0000000000002f92 .LASF3487
C:\Users\SOLDER~1\AppData\Local\Temp\ccbih9yx.s:28279  .debug_str:00000000000284b7 .LASF3488
C:\Users\SOLDER~1\AppData\Local\Temp\ccbih9yx.s:24449  .debug_str:0000000000018a58 .LASF3489
C:\Users\SOLDER~1\AppData\Local\Temp\ccbih9yx.s:25811  .debug_str:000000000001e2ea .LASF3490
C:\Users\SOLDER~1\AppData\Local\Temp\ccbih9yx.s:23109  .debug_str:000000000001325f .LASF3491
C:\Users\SOLDER~1\AppData\Local\Temp\ccbih9yx.s:25345  .debug_str:000000000001c456 .LASF3492
C:\Users\SOLDER~1\AppData\Local\Temp\ccbih9yx.s:21883  .debug_str:000000000000e333 .LASF3493
C:\Users\SOLDER~1\AppData\Local\Temp\ccbih9yx.s:21339  .debug_str:000000000000beb5 .LASF3494
C:\Users\SOLDER~1\AppData\Local\Temp\ccbih9yx.s:26397  .debug_str:0000000000020946 .LASF3495
C:\Users\SOLDER~1\AppData\Local\Temp\ccbih9yx.s:28885  .debug_str:000000000002abf2 .LASF3496
C:\Users\SOLDER~1\AppData\Local\Temp\ccbih9yx.s:27963  .debug_str:000000000002703c .LASF3497
C:\Users\SOLDER~1\AppData\Local\Temp\ccbih9yx.s:20107  .debug_str:0000000000006e24 .LASF3498
C:\Users\SOLDER~1\AppData\Local\Temp\ccbih9yx.s:24441  .debug_str:00000000000189ca .LASF3499
C:\Users\SOLDER~1\AppData\Local\Temp\ccbih9yx.s:23821  .debug_str:0000000000016208 .LASF3500
C:\Users\SOLDER~1\AppData\Local\Temp\ccbih9yx.s:19711  .debug_str:00000000000053fb .LASF3501
C:\Users\SOLDER~1\AppData\Local\Temp\ccbih9yx.s:19067  .debug_str:0000000000002b68 .LASF3502
C:\Users\SOLDER~1\AppData\Local\Temp\ccbih9yx.s:21037  .debug_str:000000000000ab34 .LASF3503
C:\Users\SOLDER~1\AppData\Local\Temp\ccbih9yx.s:27157  .debug_str:0000000000023a67 .LASF3504
C:\Users\SOLDER~1\AppData\Local\Temp\ccbih9yx.s:29821  .debug_str:000000000002e875 .LASF3505
C:\Users\SOLDER~1\AppData\Local\Temp\ccbih9yx.s:27445  .debug_str:0000000000024d73 .LASF3506
C:\Users\SOLDER~1\AppData\Local\Temp\ccbih9yx.s:22793  .debug_str:0000000000011dc7 .LASF3507
C:\Users\SOLDER~1\AppData\Local\Temp\ccbih9yx.s:28257  .debug_str:000000000002835a .LASF3508
C:\Users\SOLDER~1\AppData\Local\Temp\ccbih9yx.s:20427  .debug_str:00000000000082fc .LASF3509
C:\Users\SOLDER~1\AppData\Local\Temp\ccbih9yx.s:25413  .debug_str:000000000001c8dd .LASF3510
C:\Users\SOLDER~1\AppData\Local\Temp\ccbih9yx.s:27999  .debug_str:00000000000272a2 .LASF3511
C:\Users\SOLDER~1\AppData\Local\Temp\ccbih9yx.s:29219  .debug_str:000000000002c1e0 .LASF3512
C:\Users\SOLDER~1\AppData\Local\Temp\ccbih9yx.s:22013  .debug_str:000000000000eb47 .LASF3513
C:\Users\SOLDER~1\AppData\Local\Temp\ccbih9yx.s:29627  .debug_str:000000000002dc17 .LASF3514
C:\Users\SOLDER~1\AppData\Local\Temp\ccbih9yx.s:25903  .debug_str:000000000001e914 .LASF3515
C:\Users\SOLDER~1\AppData\Local\Temp\ccbih9yx.s:27783  .debug_str:0000000000026462 .LASF3516
C:\Users\SOLDER~1\AppData\Local\Temp\ccbih9yx.s:19855  .debug_str:0000000000005d6e .LASF3517
C:\Users\SOLDER~1\AppData\Local\Temp\ccbih9yx.s:28431  .debug_str:0000000000028e57 .LASF3518
C:\Users\SOLDER~1\AppData\Local\Temp\ccbih9yx.s:24773  .debug_str:0000000000019f32 .LASF3519
C:\Users\SOLDER~1\AppData\Local\Temp\ccbih9yx.s:24063  .debug_str:000000000001710b .LASF3520
C:\Users\SOLDER~1\AppData\Local\Temp\ccbih9yx.s:28793  .debug_str:000000000002a638 .LASF3521
C:\Users\SOLDER~1\AppData\Local\Temp\ccbih9yx.s:22129  .debug_str:000000000000f2aa .LASF3522
C:\Users\SOLDER~1\AppData\Local\Temp\ccbih9yx.s:25085  .debug_str:000000000001b34b .LASF3523
C:\Users\SOLDER~1\AppData\Local\Temp\ccbih9yx.s:20255  .debug_str:0000000000007790 .LASF3524
C:\Users\SOLDER~1\AppData\Local\Temp\ccbih9yx.s:23765  .debug_str:0000000000015e5d .LASF3525
C:\Users\SOLDER~1\AppData\Local\Temp\ccbih9yx.s:19065  .debug_str:0000000000002b4f .LASF3526
C:\Users\SOLDER~1\AppData\Local\Temp\ccbih9yx.s:24077  .debug_str:00000000000171ff .LASF3527
C:\Users\SOLDER~1\AppData\Local\Temp\ccbih9yx.s:28485  .debug_str:00000000000291e9 .LASF3528
C:\Users\SOLDER~1\AppData\Local\Temp\ccbih9yx.s:18765  .debug_str:00000000000017ec .LASF3529
C:\Users\SOLDER~1\AppData\Local\Temp\ccbih9yx.s:29253  .debug_str:000000000002c3f1 .LASF3530
C:\Users\SOLDER~1\AppData\Local\Temp\ccbih9yx.s:24103  .debug_str:00000000000173a2 .LASF3531
C:\Users\SOLDER~1\AppData\Local\Temp\ccbih9yx.s:23439  .debug_str:0000000000014952 .LASF3532
C:\Users\SOLDER~1\AppData\Local\Temp\ccbih9yx.s:21797  .debug_str:000000000000dd26 .LASF3533
C:\Users\SOLDER~1\AppData\Local\Temp\ccbih9yx.s:29005  .debug_str:000000000002b3d0 .LASF3534
C:\Users\SOLDER~1\AppData\Local\Temp\ccbih9yx.s:22227  .debug_str:000000000000f957 .LASF3535
C:\Users\SOLDER~1\AppData\Local\Temp\ccbih9yx.s:26533  .debug_str:0000000000021236 .LASF3536
GAS LISTING C:\Users\SOLDER~1\AppData\Local\Temp\ccbih9yx.s 			page 73


C:\Users\SOLDER~1\AppData\Local\Temp\ccbih9yx.s:19461  .debug_str:0000000000004470 .LASF3537
C:\Users\SOLDER~1\AppData\Local\Temp\ccbih9yx.s:22489  .debug_str:0000000000010a50 .LASF3538
C:\Users\SOLDER~1\AppData\Local\Temp\ccbih9yx.s:26559  .debug_str:00000000000213d2 .LASF3539
C:\Users\SOLDER~1\AppData\Local\Temp\ccbih9yx.s:23729  .debug_str:0000000000015c18 .LASF3540
C:\Users\SOLDER~1\AppData\Local\Temp\ccbih9yx.s:25333  .debug_str:000000000001c388 .LASF3541
C:\Users\SOLDER~1\AppData\Local\Temp\ccbih9yx.s:18451  .debug_str:0000000000000306 .LASF3542
C:\Users\SOLDER~1\AppData\Local\Temp\ccbih9yx.s:22089  .debug_str:000000000000f029 .LASF3543
C:\Users\SOLDER~1\AppData\Local\Temp\ccbih9yx.s:26809  .debug_str:0000000000022378 .LASF3544
C:\Users\SOLDER~1\AppData\Local\Temp\ccbih9yx.s:29569  .debug_str:000000000002d853 .LASF3545
C:\Users\SOLDER~1\AppData\Local\Temp\ccbih9yx.s:26607  .debug_str:0000000000021700 .LASF3546
C:\Users\SOLDER~1\AppData\Local\Temp\ccbih9yx.s:19965  .debug_str:00000000000064b5 .LASF3547
C:\Users\SOLDER~1\AppData\Local\Temp\ccbih9yx.s:19829  .debug_str:0000000000005bd1 .LASF3548
C:\Users\SOLDER~1\AppData\Local\Temp\ccbih9yx.s:21501  .debug_str:000000000000ca12 .LASF3549
C:\Users\SOLDER~1\AppData\Local\Temp\ccbih9yx.s:18621  .debug_str:0000000000000ed1 .LASF3550
C:\Users\SOLDER~1\AppData\Local\Temp\ccbih9yx.s:22317  .debug_str:000000000000ff81 .LASF3551
C:\Users\SOLDER~1\AppData\Local\Temp\ccbih9yx.s:20059  .debug_str:0000000000006b03 .LASF3552
C:\Users\SOLDER~1\AppData\Local\Temp\ccbih9yx.s:19641  .debug_str:0000000000004fb9 .LASF3553
C:\Users\SOLDER~1\AppData\Local\Temp\ccbih9yx.s:18825  .debug_str:0000000000001bc8 .LASF3554
C:\Users\SOLDER~1\AppData\Local\Temp\ccbih9yx.s:27517  .debug_str:00000000000251f5 .LASF3555
C:\Users\SOLDER~1\AppData\Local\Temp\ccbih9yx.s:18607  .debug_str:0000000000000e10 .LASF3556
C:\Users\SOLDER~1\AppData\Local\Temp\ccbih9yx.s:24903  .debug_str:000000000001a7ac .LASF3557
C:\Users\SOLDER~1\AppData\Local\Temp\ccbih9yx.s:22105  .debug_str:000000000000f12e .LASF3558
C:\Users\SOLDER~1\AppData\Local\Temp\ccbih9yx.s:18931  .debug_str:00000000000022a4 .LASF3559
C:\Users\SOLDER~1\AppData\Local\Temp\ccbih9yx.s:19693  .debug_str:0000000000005304 .LASF3560
C:\Users\SOLDER~1\AppData\Local\Temp\ccbih9yx.s:21991  .debug_str:000000000000e9fc .LASF3561
C:\Users\SOLDER~1\AppData\Local\Temp\ccbih9yx.s:22865  .debug_str:0000000000012259 .LASF3562
C:\Users\SOLDER~1\AppData\Local\Temp\ccbih9yx.s:29353  .debug_str:000000000002ca28 .LASF3563
C:\Users\SOLDER~1\AppData\Local\Temp\ccbih9yx.s:23777  .debug_str:0000000000015f25 .LASF3564
C:\Users\SOLDER~1\AppData\Local\Temp\ccbih9yx.s:25203  .debug_str:000000000001bad2 .LASF3565
C:\Users\SOLDER~1\AppData\Local\Temp\ccbih9yx.s:25939  .debug_str:000000000001eb63 .LASF3566
C:\Users\SOLDER~1\AppData\Local\Temp\ccbih9yx.s:19027  .debug_str:000000000000291b .LASF3567
C:\Users\SOLDER~1\AppData\Local\Temp\ccbih9yx.s:23989  .debug_str:0000000000016c38 .LASF3568
C:\Users\SOLDER~1\AppData\Local\Temp\ccbih9yx.s:22815  .debug_str:0000000000011f3c .LASF3569
C:\Users\SOLDER~1\AppData\Local\Temp\ccbih9yx.s:29025  .debug_str:000000000002b539 .LASF3570
C:\Users\SOLDER~1\AppData\Local\Temp\ccbih9yx.s:26333  .debug_str:0000000000020521 .LASF3571
C:\Users\SOLDER~1\AppData\Local\Temp\ccbih9yx.s:18983  .debug_str:00000000000025f0 .LASF3572
C:\Users\SOLDER~1\AppData\Local\Temp\ccbih9yx.s:24509  .debug_str:0000000000018e67 .LASF3573
C:\Users\SOLDER~1\AppData\Local\Temp\ccbih9yx.s:22409  .debug_str:0000000000010537 .LASF3574
C:\Users\SOLDER~1\AppData\Local\Temp\ccbih9yx.s:21685  .debug_str:000000000000d5ed .LASF3575
C:\Users\SOLDER~1\AppData\Local\Temp\ccbih9yx.s:27807  .debug_str:00000000000265cf .LASF3576
C:\Users\SOLDER~1\AppData\Local\Temp\ccbih9yx.s:29275  .debug_str:000000000002c557 .LASF3577
C:\Users\SOLDER~1\AppData\Local\Temp\ccbih9yx.s:22077  .debug_str:000000000000ef71 .LASF3578
C:\Users\SOLDER~1\AppData\Local\Temp\ccbih9yx.s:27115  .debug_str:00000000000237cf .LASF3579
C:\Users\SOLDER~1\AppData\Local\Temp\ccbih9yx.s:29675  .debug_str:000000000002def8 .LASF3580
C:\Users\SOLDER~1\AppData\Local\Temp\ccbih9yx.s:19495  .debug_str:00000000000046a8 .LASF3581
C:\Users\SOLDER~1\AppData\Local\Temp\ccbih9yx.s:23855  .debug_str:000000000001640d .LASF3582
C:\Users\SOLDER~1\AppData\Local\Temp\ccbih9yx.s:24201  .debug_str:0000000000017a0e .LASF3583
C:\Users\SOLDER~1\AppData\Local\Temp\ccbih9yx.s:19035  .debug_str:000000000000299b .LASF3584
C:\Users\SOLDER~1\AppData\Local\Temp\ccbih9yx.s:20349  .debug_str:0000000000007dcf .LASF3585
C:\Users\SOLDER~1\AppData\Local\Temp\ccbih9yx.s:18479  .debug_str:00000000000004d7 .LASF3586
C:\Users\SOLDER~1\AppData\Local\Temp\ccbih9yx.s:26787  .debug_str:0000000000022208 .LASF3587
C:\Users\SOLDER~1\AppData\Local\Temp\ccbih9yx.s:22239  .debug_str:000000000000fa2a .LASF3588
C:\Users\SOLDER~1\AppData\Local\Temp\ccbih9yx.s:27609  .debug_str:0000000000025820 .LASF3589
C:\Users\SOLDER~1\AppData\Local\Temp\ccbih9yx.s:27177  .debug_str:0000000000023ba9 .LASF3590
C:\Users\SOLDER~1\AppData\Local\Temp\ccbih9yx.s:29729  .debug_str:000000000002e255 .LASF3591
C:\Users\SOLDER~1\AppData\Local\Temp\ccbih9yx.s:20989  .debug_str:000000000000a7fb .LASF3592
C:\Users\SOLDER~1\AppData\Local\Temp\ccbih9yx.s:22003  .debug_str:000000000000ea91 .LASF3593
GAS LISTING C:\Users\SOLDER~1\AppData\Local\Temp\ccbih9yx.s 			page 74


C:\Users\SOLDER~1\AppData\Local\Temp\ccbih9yx.s:22685  .debug_str:00000000000116e0 .LASF3594
C:\Users\SOLDER~1\AppData\Local\Temp\ccbih9yx.s:19215  .debug_str:0000000000003517 .LASF3595
C:\Users\SOLDER~1\AppData\Local\Temp\ccbih9yx.s:27587  .debug_str:000000000002567a .LASF3596
C:\Users\SOLDER~1\AppData\Local\Temp\ccbih9yx.s:25185  .debug_str:000000000001b980 .LASF3597
C:\Users\SOLDER~1\AppData\Local\Temp\ccbih9yx.s:28999  .debug_str:000000000002b36c .LASF3598
C:\Users\SOLDER~1\AppData\Local\Temp\ccbih9yx.s:21535  .debug_str:000000000000cc23 .LASF3599
C:\Users\SOLDER~1\AppData\Local\Temp\ccbih9yx.s:18511  .debug_str:0000000000000777 .LASF3600
C:\Users\SOLDER~1\AppData\Local\Temp\ccbih9yx.s:28703  .debug_str:000000000002a03d .LASF3601
C:\Users\SOLDER~1\AppData\Local\Temp\ccbih9yx.s:25141  .debug_str:000000000001b6d6 .LASF3602
C:\Users\SOLDER~1\AppData\Local\Temp\ccbih9yx.s:22687  .debug_str:0000000000011701 .LASF3603
C:\Users\SOLDER~1\AppData\Local\Temp\ccbih9yx.s:26093  .debug_str:000000000001f5bf .LASF3604
C:\Users\SOLDER~1\AppData\Local\Temp\ccbih9yx.s:27395  .debug_str:0000000000024a1c .LASF3605
C:\Users\SOLDER~1\AppData\Local\Temp\ccbih9yx.s:25009  .debug_str:000000000001aeb9 .LASF3606
C:\Users\SOLDER~1\AppData\Local\Temp\ccbih9yx.s:21453  .debug_str:000000000000c6a8 .LASF3607
C:\Users\SOLDER~1\AppData\Local\Temp\ccbih9yx.s:25157  .debug_str:000000000001b7ca .LASF3608
C:\Users\SOLDER~1\AppData\Local\Temp\ccbih9yx.s:29271  .debug_str:000000000002c511 .LASF3609
C:\Users\SOLDER~1\AppData\Local\Temp\ccbih9yx.s:22271  .debug_str:000000000000fc82 .LASF3610
C:\Users\SOLDER~1\AppData\Local\Temp\ccbih9yx.s:28597  .debug_str:00000000000298ff .LASF3611
C:\Users\SOLDER~1\AppData\Local\Temp\ccbih9yx.s:18761  .debug_str:00000000000017c1 .LASF3612
C:\Users\SOLDER~1\AppData\Local\Temp\ccbih9yx.s:20537  .debug_str:0000000000008a0f .LASF3613
C:\Users\SOLDER~1\AppData\Local\Temp\ccbih9yx.s:27207  .debug_str:0000000000023d9f .LASF3614
C:\Users\SOLDER~1\AppData\Local\Temp\ccbih9yx.s:26587  .debug_str:00000000000215b8 .LASF3615
C:\Users\SOLDER~1\AppData\Local\Temp\ccbih9yx.s:27107  .debug_str:0000000000023762 .LASF3616
C:\Users\SOLDER~1\AppData\Local\Temp\ccbih9yx.s:28371  .debug_str:0000000000028aa1 .LASF3617
C:\Users\SOLDER~1\AppData\Local\Temp\ccbih9yx.s:27435  .debug_str:0000000000024cc7 .LASF3618
C:\Users\SOLDER~1\AppData\Local\Temp\ccbih9yx.s:21639  .debug_str:000000000000d2ff .LASF3619
C:\Users\SOLDER~1\AppData\Local\Temp\ccbih9yx.s:24045  .debug_str:0000000000016fcb .LASF3620
C:\Users\SOLDER~1\AppData\Local\Temp\ccbih9yx.s:28479  .debug_str:000000000002917b .LASF3621
C:\Users\SOLDER~1\AppData\Local\Temp\ccbih9yx.s:25181  .debug_str:000000000001b946 .LASF3622
C:\Users\SOLDER~1\AppData\Local\Temp\ccbih9yx.s:25077  .debug_str:000000000001b2c9 .LASF3623
C:\Users\SOLDER~1\AppData\Local\Temp\ccbih9yx.s:19373  .debug_str:0000000000003ee4 .LASF3624
C:\Users\SOLDER~1\AppData\Local\Temp\ccbih9yx.s:27223  .debug_str:0000000000023eb5 .LASF3625
C:\Users\SOLDER~1\AppData\Local\Temp\ccbih9yx.s:26595  .debug_str:000000000002163e .LASF3626
C:\Users\SOLDER~1\AppData\Local\Temp\ccbih9yx.s:28945  .debug_str:000000000002b005 .LASF3627
C:\Users\SOLDER~1\AppData\Local\Temp\ccbih9yx.s:24965  .debug_str:000000000001ab9a .LASF3628
C:\Users\SOLDER~1\AppData\Local\Temp\ccbih9yx.s:28253  .debug_str:000000000002831f .LASF3629
C:\Users\SOLDER~1\AppData\Local\Temp\ccbih9yx.s:22957  .debug_str:0000000000012832 .LASF3630
C:\Users\SOLDER~1\AppData\Local\Temp\ccbih9yx.s:28557  .debug_str:00000000000296a3 .LASF3631
C:\Users\SOLDER~1\AppData\Local\Temp\ccbih9yx.s:26643  .debug_str:0000000000021950 .LASF3632
C:\Users\SOLDER~1\AppData\Local\Temp\ccbih9yx.s:24067  .debug_str:0000000000017149 .LASF3633
C:\Users\SOLDER~1\AppData\Local\Temp\ccbih9yx.s:26873  .debug_str:00000000000227c0 .LASF3634
C:\Users\SOLDER~1\AppData\Local\Temp\ccbih9yx.s:24199  .debug_str:00000000000179ee .LASF3635
C:\Users\SOLDER~1\AppData\Local\Temp\ccbih9yx.s:26925  .debug_str:0000000000022b56 .LASF3636
C:\Users\SOLDER~1\AppData\Local\Temp\ccbih9yx.s:22191  .debug_str:000000000000f6aa .LASF3637
C:\Users\SOLDER~1\AppData\Local\Temp\ccbih9yx.s:26257  .debug_str:0000000000020018 .LASF3638
C:\Users\SOLDER~1\AppData\Local\Temp\ccbih9yx.s:22701  .debug_str:0000000000011805 .LASF3639
C:\Users\SOLDER~1\AppData\Local\Temp\ccbih9yx.s:28585  .debug_str:000000000002984a .LASF3640
C:\Users\SOLDER~1\AppData\Local\Temp\ccbih9yx.s:26939  .debug_str:0000000000022c55 .LASF3641
C:\Users\SOLDER~1\AppData\Local\Temp\ccbih9yx.s:21743  .debug_str:000000000000d99e .LASF3642
C:\Users\SOLDER~1\AppData\Local\Temp\ccbih9yx.s:28617  .debug_str:0000000000029a58 .LASF3643
C:\Users\SOLDER~1\AppData\Local\Temp\ccbih9yx.s:27451  .debug_str:0000000000024ddb .LASF3644
C:\Users\SOLDER~1\AppData\Local\Temp\ccbih9yx.s:28791  .debug_str:000000000002a615 .LASF3645
C:\Users\SOLDER~1\AppData\Local\Temp\ccbih9yx.s:29279  .debug_str:000000000002c5a4 .LASF3646
C:\Users\SOLDER~1\AppData\Local\Temp\ccbih9yx.s:20029  .debug_str:0000000000006934 .LASF3647
C:\Users\SOLDER~1\AppData\Local\Temp\ccbih9yx.s:18459  .debug_str:0000000000000384 .LASF3648
C:\Users\SOLDER~1\AppData\Local\Temp\ccbih9yx.s:26007  .debug_str:000000000001efc4 .LASF3649
C:\Users\SOLDER~1\AppData\Local\Temp\ccbih9yx.s:20703  .debug_str:000000000000953e .LASF3650
GAS LISTING C:\Users\SOLDER~1\AppData\Local\Temp\ccbih9yx.s 			page 75


C:\Users\SOLDER~1\AppData\Local\Temp\ccbih9yx.s:23737  .debug_str:0000000000015c8f .LASF3651
C:\Users\SOLDER~1\AppData\Local\Temp\ccbih9yx.s:18587  .debug_str:0000000000000c9a .LASF3652
C:\Users\SOLDER~1\AppData\Local\Temp\ccbih9yx.s:29439  .debug_str:000000000002d01a .LASF3653
C:\Users\SOLDER~1\AppData\Local\Temp\ccbih9yx.s:24587  .debug_str:0000000000019385 .LASF3654
C:\Users\SOLDER~1\AppData\Local\Temp\ccbih9yx.s:29549  .debug_str:000000000002d71d .LASF3655
C:\Users\SOLDER~1\AppData\Local\Temp\ccbih9yx.s:28005  .debug_str:0000000000027312 .LASF3656
C:\Users\SOLDER~1\AppData\Local\Temp\ccbih9yx.s:20759  .debug_str:00000000000098d4 .LASF3657
C:\Users\SOLDER~1\AppData\Local\Temp\ccbih9yx.s:27201  .debug_str:0000000000023d34 .LASF3658
C:\Users\SOLDER~1\AppData\Local\Temp\ccbih9yx.s:29331  .debug_str:000000000002c8df .LASF3659
C:\Users\SOLDER~1\AppData\Local\Temp\ccbih9yx.s:19937  .debug_str:00000000000062e2 .LASF3660
C:\Users\SOLDER~1\AppData\Local\Temp\ccbih9yx.s:18567  .debug_str:0000000000000b4d .LASF3661
C:\Users\SOLDER~1\AppData\Local\Temp\ccbih9yx.s:19881  .debug_str:0000000000005ef5 .LASF3662
C:\Users\SOLDER~1\AppData\Local\Temp\ccbih9yx.s:28519  .debug_str:0000000000029441 .LASF3663
C:\Users\SOLDER~1\AppData\Local\Temp\ccbih9yx.s:19583  .debug_str:0000000000004c51 .LASF3664
C:\Users\SOLDER~1\AppData\Local\Temp\ccbih9yx.s:19127  .debug_str:0000000000002f6f .LASF3665
C:\Users\SOLDER~1\AppData\Local\Temp\ccbih9yx.s:27869  .debug_str:0000000000026a12 .LASF3666
C:\Users\SOLDER~1\AppData\Local\Temp\ccbih9yx.s:23135  .debug_str:000000000001341a .LASF3667
C:\Users\SOLDER~1\AppData\Local\Temp\ccbih9yx.s:24345  .debug_str:0000000000018390 .LASF3668
C:\Users\SOLDER~1\AppData\Local\Temp\ccbih9yx.s:21965  .debug_str:000000000000e878 .LASF3669
C:\Users\SOLDER~1\AppData\Local\Temp\ccbih9yx.s:22229  .debug_str:000000000000f977 .LASF3670
C:\Users\SOLDER~1\AppData\Local\Temp\ccbih9yx.s:26779  .debug_str:00000000000221a6 .LASF3671
C:\Users\SOLDER~1\AppData\Local\Temp\ccbih9yx.s:27849  .debug_str:00000000000268a2 .LASF3672
C:\Users\SOLDER~1\AppData\Local\Temp\ccbih9yx.s:24803  .debug_str:000000000001a11b .LASF3673
C:\Users\SOLDER~1\AppData\Local\Temp\ccbih9yx.s:24825  .debug_str:000000000001a273 .LASF3674
C:\Users\SOLDER~1\AppData\Local\Temp\ccbih9yx.s:20875  .debug_str:000000000000a05b .LASF3675
C:\Users\SOLDER~1\AppData\Local\Temp\ccbih9yx.s:22593  .debug_str:00000000000110e0 .LASF3676
C:\Users\SOLDER~1\AppData\Local\Temp\ccbih9yx.s:26897  .debug_str:0000000000022970 .LASF3677
C:\Users\SOLDER~1\AppData\Local\Temp\ccbih9yx.s:24839  .debug_str:000000000001a37e .LASF3678
C:\Users\SOLDER~1\AppData\Local\Temp\ccbih9yx.s:27127  .debug_str:000000000002389e .LASF3679
C:\Users\SOLDER~1\AppData\Local\Temp\ccbih9yx.s:28473  .debug_str:0000000000029112 .LASF3680
C:\Users\SOLDER~1\AppData\Local\Temp\ccbih9yx.s:29263  .debug_str:000000000002c4a0 .LASF3681
C:\Users\SOLDER~1\AppData\Local\Temp\ccbih9yx.s:23959  .debug_str:0000000000016a8c .LASF3682
C:\Users\SOLDER~1\AppData\Local\Temp\ccbih9yx.s:28947  .debug_str:000000000002b026 .LASF3683
C:\Users\SOLDER~1\AppData\Local\Temp\ccbih9yx.s:22717  .debug_str:000000000001191a .LASF3684
C:\Users\SOLDER~1\AppData\Local\Temp\ccbih9yx.s:26567  .debug_str:000000000002144c .LASF3685
C:\Users\SOLDER~1\AppData\Local\Temp\ccbih9yx.s:22517  .debug_str:0000000000010bfb .LASF3686
C:\Users\SOLDER~1\AppData\Local\Temp\ccbih9yx.s:29827  .debug_str:000000000002e8d0 .LASF3687
C:\Users\SOLDER~1\AppData\Local\Temp\ccbih9yx.s:26585  .debug_str:0000000000021591 .LASF3688
C:\Users\SOLDER~1\AppData\Local\Temp\ccbih9yx.s:20545  .debug_str:0000000000008a92 .LASF3689
C:\Users\SOLDER~1\AppData\Local\Temp\ccbih9yx.s:26575  .debug_str:00000000000214ec .LASF3690
C:\Users\SOLDER~1\AppData\Local\Temp\ccbih9yx.s:23549  .debug_str:000000000001504f .LASF3691
C:\Users\SOLDER~1\AppData\Local\Temp\ccbih9yx.s:19809  .debug_str:0000000000005a91 .LASF3692
C:\Users\SOLDER~1\AppData\Local\Temp\ccbih9yx.s:21431  .debug_str:000000000000c536 .LASF3693
C:\Users\SOLDER~1\AppData\Local\Temp\ccbih9yx.s:28413  .debug_str:0000000000028d4f .LASF3694
C:\Users\SOLDER~1\AppData\Local\Temp\ccbih9yx.s:23457  .debug_str:0000000000014a72 .LASF3695
C:\Users\SOLDER~1\AppData\Local\Temp\ccbih9yx.s:20737  .debug_str:0000000000009753 .LASF3696
C:\Users\SOLDER~1\AppData\Local\Temp\ccbih9yx.s:22037  .debug_str:000000000000ecdf .LASF3697
C:\Users\SOLDER~1\AppData\Local\Temp\ccbih9yx.s:24859  .debug_str:000000000001a49c .LASF3698
C:\Users\SOLDER~1\AppData\Local\Temp\ccbih9yx.s:22211  .debug_str:000000000000f853 .LASF3699
C:\Users\SOLDER~1\AppData\Local\Temp\ccbih9yx.s:25773  .debug_str:000000000001e07c .LASF3700
C:\Users\SOLDER~1\AppData\Local\Temp\ccbih9yx.s:18879  .debug_str:0000000000001f38 .LASF3701
C:\Users\SOLDER~1\AppData\Local\Temp\ccbih9yx.s:22457  .debug_str:000000000001084e .LASF3702
C:\Users\SOLDER~1\AppData\Local\Temp\ccbih9yx.s:21913  .debug_str:000000000000e4ea .LASF3703
C:\Users\SOLDER~1\AppData\Local\Temp\ccbih9yx.s:19223  .debug_str:000000000000357a .LASF3704
C:\Users\SOLDER~1\AppData\Local\Temp\ccbih9yx.s:28001  .debug_str:00000000000272c5 .LASF3705
C:\Users\SOLDER~1\AppData\Local\Temp\ccbih9yx.s:27341  .debug_str:000000000002468f .LASF3706
C:\Users\SOLDER~1\AppData\Local\Temp\ccbih9yx.s:21591  .debug_str:000000000000cfeb .LASF3707
GAS LISTING C:\Users\SOLDER~1\AppData\Local\Temp\ccbih9yx.s 			page 76


C:\Users\SOLDER~1\AppData\Local\Temp\ccbih9yx.s:18957  .debug_str:000000000000245c .LASF3708
C:\Users\SOLDER~1\AppData\Local\Temp\ccbih9yx.s:27583  .debug_str:0000000000025631 .LASF3709
C:\Users\SOLDER~1\AppData\Local\Temp\ccbih9yx.s:19155  .debug_str:000000000000312b .LASF3710
C:\Users\SOLDER~1\AppData\Local\Temp\ccbih9yx.s:18893  .debug_str:0000000000002013 .LASF3711
C:\Users\SOLDER~1\AppData\Local\Temp\ccbih9yx.s:27669  .debug_str:0000000000025c46 .LASF3712
C:\Users\SOLDER~1\AppData\Local\Temp\ccbih9yx.s:28049  .debug_str:00000000000275cf .LASF3713
C:\Users\SOLDER~1\AppData\Local\Temp\ccbih9yx.s:28517  .debug_str:000000000002941c .LASF3714
C:\Users\SOLDER~1\AppData\Local\Temp\ccbih9yx.s:19559  .debug_str:0000000000004aa8 .LASF3715
C:\Users\SOLDER~1\AppData\Local\Temp\ccbih9yx.s:28529  .debug_str:00000000000294f6 .LASF3716
C:\Users\SOLDER~1\AppData\Local\Temp\ccbih9yx.s:24601  .debug_str:0000000000019484 .LASF3717
C:\Users\SOLDER~1\AppData\Local\Temp\ccbih9yx.s:21345  .debug_str:000000000000bf06 .LASF3718
C:\Users\SOLDER~1\AppData\Local\Temp\ccbih9yx.s:27931  .debug_str:0000000000026e31 .LASF3719
C:\Users\SOLDER~1\AppData\Local\Temp\ccbih9yx.s:21651  .debug_str:000000000000d3d8 .LASF3720
C:\Users\SOLDER~1\AppData\Local\Temp\ccbih9yx.s:29721  .debug_str:000000000002e1df .LASF3721
C:\Users\SOLDER~1\AppData\Local\Temp\ccbih9yx.s:28977  .debug_str:000000000002b211 .LASF3722
C:\Users\SOLDER~1\AppData\Local\Temp\ccbih9yx.s:27415  .debug_str:0000000000024b78 .LASF3723
C:\Users\SOLDER~1\AppData\Local\Temp\ccbih9yx.s:29447  .debug_str:000000000002d09d .LASF3724
C:\Users\SOLDER~1\AppData\Local\Temp\ccbih9yx.s:26463  .debug_str:0000000000020d74 .LASF3725
C:\Users\SOLDER~1\AppData\Local\Temp\ccbih9yx.s:23373  .debug_str:00000000000144ce .LASF3726
C:\Users\SOLDER~1\AppData\Local\Temp\ccbih9yx.s:28715  .debug_str:000000000002a108 .LASF3727
C:\Users\SOLDER~1\AppData\Local\Temp\ccbih9yx.s:25311  .debug_str:000000000001c203 .LASF3728
C:\Users\SOLDER~1\AppData\Local\Temp\ccbih9yx.s:23671  .debug_str:000000000001586a .LASF3729
C:\Users\SOLDER~1\AppData\Local\Temp\ccbih9yx.s:24465  .debug_str:0000000000018b57 .LASF3730
C:\Users\SOLDER~1\AppData\Local\Temp\ccbih9yx.s:20319  .debug_str:0000000000007bd5 .LASF3731
C:\Users\SOLDER~1\AppData\Local\Temp\ccbih9yx.s:24987  .debug_str:000000000001ad3c .LASF3732
C:\Users\SOLDER~1\AppData\Local\Temp\ccbih9yx.s:21315  .debug_str:000000000000bd41 .LASF3733
C:\Users\SOLDER~1\AppData\Local\Temp\ccbih9yx.s:24757  .debug_str:0000000000019e26 .LASF3734
C:\Users\SOLDER~1\AppData\Local\Temp\ccbih9yx.s:21241  .debug_str:000000000000b85f .LASF3735
C:\Users\SOLDER~1\AppData\Local\Temp\ccbih9yx.s:19797  .debug_str:00000000000059b9 .LASF3736
C:\Users\SOLDER~1\AppData\Local\Temp\ccbih9yx.s:22279  .debug_str:000000000000fd09 .LASF3737
C:\Users\SOLDER~1\AppData\Local\Temp\ccbih9yx.s:20103  .debug_str:0000000000006de4 .LASF3738
C:\Users\SOLDER~1\AppData\Local\Temp\ccbih9yx.s:19209  .debug_str:00000000000034be .LASF3739
C:\Users\SOLDER~1\AppData\Local\Temp\ccbih9yx.s:26073  .debug_str:000000000001f457 .LASF3740
C:\Users\SOLDER~1\AppData\Local\Temp\ccbih9yx.s:26165  .debug_str:000000000001fa53 .LASF3741
C:\Users\SOLDER~1\AppData\Local\Temp\ccbih9yx.s:21747  .debug_str:000000000000d9d8 .LASF3742
C:\Users\SOLDER~1\AppData\Local\Temp\ccbih9yx.s:29671  .debug_str:000000000002debd .LASF3743
C:\Users\SOLDER~1\AppData\Local\Temp\ccbih9yx.s:19791  .debug_str:0000000000005957 .LASF3744
C:\Users\SOLDER~1\AppData\Local\Temp\ccbih9yx.s:28649  .debug_str:0000000000029cb4 .LASF3745
C:\Users\SOLDER~1\AppData\Local\Temp\ccbih9yx.s:21791  .debug_str:000000000000dcbd .LASF3746
C:\Users\SOLDER~1\AppData\Local\Temp\ccbih9yx.s:26903  .debug_str:00000000000229cf .LASF3747
C:\Users\SOLDER~1\AppData\Local\Temp\ccbih9yx.s:23083  .debug_str:000000000001306e .LASF3748
C:\Users\SOLDER~1\AppData\Local\Temp\ccbih9yx.s:21555  .debug_str:000000000000cd7d .LASF3749
C:\Users\SOLDER~1\AppData\Local\Temp\ccbih9yx.s:28803  .debug_str:000000000002a6b8 .LASF3750
C:\Users\SOLDER~1\AppData\Local\Temp\ccbih9yx.s:25165  .debug_str:000000000001b834 .LASF3751
C:\Users\SOLDER~1\AppData\Local\Temp\ccbih9yx.s:22299  .debug_str:000000000000fe5e .LASF3752
C:\Users\SOLDER~1\AppData\Local\Temp\ccbih9yx.s:25757  .debug_str:000000000001df8e .LASF3753
C:\Users\SOLDER~1\AppData\Local\Temp\ccbih9yx.s:22263  .debug_str:000000000000fbf2 .LASF3754
C:\Users\SOLDER~1\AppData\Local\Temp\ccbih9yx.s:24767  .debug_str:0000000000019ed8 .LASF3755
C:\Users\SOLDER~1\AppData\Local\Temp\ccbih9yx.s:25007  .debug_str:000000000001ae96 .LASF3756
C:\Users\SOLDER~1\AppData\Local\Temp\ccbih9yx.s:22859  .debug_str:0000000000012201 .LASF3757
C:\Users\SOLDER~1\AppData\Local\Temp\ccbih9yx.s:24349  .debug_str:00000000000183de .LASF3758
C:\Users\SOLDER~1\AppData\Local\Temp\ccbih9yx.s:18981  .debug_str:00000000000025da .LASF3759
C:\Users\SOLDER~1\AppData\Local\Temp\ccbih9yx.s:19699  .debug_str:0000000000005348 .LASF3760
C:\Users\SOLDER~1\AppData\Local\Temp\ccbih9yx.s:29247  .debug_str:000000000002c39a .LASF3761
C:\Users\SOLDER~1\AppData\Local\Temp\ccbih9yx.s:29471  .debug_str:000000000002d222 .LASF3762
C:\Users\SOLDER~1\AppData\Local\Temp\ccbih9yx.s:18681  .debug_str:0000000000001292 .LASF3763
C:\Users\SOLDER~1\AppData\Local\Temp\ccbih9yx.s:24407  .debug_str:0000000000018778 .LASF3764
GAS LISTING C:\Users\SOLDER~1\AppData\Local\Temp\ccbih9yx.s 			page 77


C:\Users\SOLDER~1\AppData\Local\Temp\ccbih9yx.s:22569  .debug_str:0000000000010f63 .LASF3765
C:\Users\SOLDER~1\AppData\Local\Temp\ccbih9yx.s:27343  .debug_str:00000000000246b3 .LASF3766
C:\Users\SOLDER~1\AppData\Local\Temp\ccbih9yx.s:21113  .debug_str:000000000000b026 .LASF3767
C:\Users\SOLDER~1\AppData\Local\Temp\ccbih9yx.s:26641  .debug_str:000000000002192d .LASF3768
C:\Users\SOLDER~1\AppData\Local\Temp\ccbih9yx.s:18961  .debug_str:00000000000024ae .LASF3769
C:\Users\SOLDER~1\AppData\Local\Temp\ccbih9yx.s:28121  .debug_str:0000000000027a56 .LASF3770
C:\Users\SOLDER~1\AppData\Local\Temp\ccbih9yx.s:18631  .debug_str:0000000000000f7c .LASF3771
C:\Users\SOLDER~1\AppData\Local\Temp\ccbih9yx.s:27203  .debug_str:0000000000023d5b .LASF3772
C:\Users\SOLDER~1\AppData\Local\Temp\ccbih9yx.s:23199  .debug_str:00000000000138a4 .LASF3773
C:\Users\SOLDER~1\AppData\Local\Temp\ccbih9yx.s:28525  .debug_str:00000000000294a6 .LASF3774
C:\Users\SOLDER~1\AppData\Local\Temp\ccbih9yx.s:25981  .debug_str:000000000001ee09 .LASF3775
C:\Users\SOLDER~1\AppData\Local\Temp\ccbih9yx.s:21631  .debug_str:000000000000d273 .LASF3776
C:\Users\SOLDER~1\AppData\Local\Temp\ccbih9yx.s:20215  .debug_str:000000000000753e .LASF3777
C:\Users\SOLDER~1\AppData\Local\Temp\ccbih9yx.s:27835  .debug_str:00000000000267cb .LASF3778
C:\Users\SOLDER~1\AppData\Local\Temp\ccbih9yx.s:26159  .debug_str:000000000001f9f9 .LASF3779
C:\Users\SOLDER~1\AppData\Local\Temp\ccbih9yx.s:26417  .debug_str:0000000000020aa0 .LASF3780
C:\Users\SOLDER~1\AppData\Local\Temp\ccbih9yx.s:27313  .debug_str:00000000000244aa .LASF3781
C:\Users\SOLDER~1\AppData\Local\Temp\ccbih9yx.s:19401  .debug_str:00000000000040b1 .LASF3782
C:\Users\SOLDER~1\AppData\Local\Temp\ccbih9yx.s:23479  .debug_str:0000000000014c16 .LASF3783
C:\Users\SOLDER~1\AppData\Local\Temp\ccbih9yx.s:22079  .debug_str:000000000000ef8a .LASF3784
C:\Users\SOLDER~1\AppData\Local\Temp\ccbih9yx.s:20071  .debug_str:0000000000006bc2 .LASF3785
C:\Users\SOLDER~1\AppData\Local\Temp\ccbih9yx.s:24283  .debug_str:0000000000017fa3 .LASF3786
C:\Users\SOLDER~1\AppData\Local\Temp\ccbih9yx.s:29451  .debug_str:000000000002d0e6 .LASF3787
C:\Users\SOLDER~1\AppData\Local\Temp\ccbih9yx.s:27317  .debug_str:00000000000244e7 .LASF3788
C:\Users\SOLDER~1\AppData\Local\Temp\ccbih9yx.s:19849  .debug_str:0000000000005d21 .LASF3789
C:\Users\SOLDER~1\AppData\Local\Temp\ccbih9yx.s:20983  .debug_str:000000000000a7af .LASF3790
C:\Users\SOLDER~1\AppData\Local\Temp\ccbih9yx.s:28355  .debug_str:00000000000289c5 .LASF3791
C:\Users\SOLDER~1\AppData\Local\Temp\ccbih9yx.s:27955  .debug_str:0000000000026fb1 .LASF3792
C:\Users\SOLDER~1\AppData\Local\Temp\ccbih9yx.s:25589  .debug_str:000000000001d4e9 .LASF3793
C:\Users\SOLDER~1\AppData\Local\Temp\ccbih9yx.s:29355  .debug_str:000000000002ca4d .LASF3794
C:\Users\SOLDER~1\AppData\Local\Temp\ccbih9yx.s:22397  .debug_str:0000000000010484 .LASF3795
C:\Users\SOLDER~1\AppData\Local\Temp\ccbih9yx.s:20865  .debug_str:0000000000009f9b .LASF3796
C:\Users\SOLDER~1\AppData\Local\Temp\ccbih9yx.s:22301  .debug_str:000000000000fe82 .LASF3797
C:\Users\SOLDER~1\AppData\Local\Temp\ccbih9yx.s:28145  .debug_str:0000000000027bf3 .LASF3798
C:\Users\SOLDER~1\AppData\Local\Temp\ccbih9yx.s:28749  .debug_str:000000000002a359 .LASF3799
C:\Users\SOLDER~1\AppData\Local\Temp\ccbih9yx.s:25231  .debug_str:000000000001bc7c .LASF3800
C:\Users\SOLDER~1\AppData\Local\Temp\ccbih9yx.s:26461  .debug_str:0000000000020d5f .LASF3801
C:\Users\SOLDER~1\AppData\Local\Temp\ccbih9yx.s:24153  .debug_str:0000000000017711 .LASF3802
C:\Users\SOLDER~1\AppData\Local\Temp\ccbih9yx.s:28465  .debug_str:00000000000290a0 .LASF3803
C:\Users\SOLDER~1\AppData\Local\Temp\ccbih9yx.s:26223  .debug_str:000000000001fddd .LASF3804
C:\Users\SOLDER~1\AppData\Local\Temp\ccbih9yx.s:25349  .debug_str:000000000001c488 .LASF3805
C:\Users\SOLDER~1\AppData\Local\Temp\ccbih9yx.s:18485  .debug_str:0000000000000532 .LASF3806
C:\Users\SOLDER~1\AppData\Local\Temp\ccbih9yx.s:29093  .debug_str:000000000002b96e .LASF3807
C:\Users\SOLDER~1\AppData\Local\Temp\ccbih9yx.s:18551  .debug_str:0000000000000a28 .LASF3808
C:\Users\SOLDER~1\AppData\Local\Temp\ccbih9yx.s:23611  .debug_str:0000000000015475 .LASF3809
C:\Users\SOLDER~1\AppData\Local\Temp\ccbih9yx.s:23923  .debug_str:0000000000016821 .LASF3810
C:\Users\SOLDER~1\AppData\Local\Temp\ccbih9yx.s:22571  .debug_str:0000000000010f78 .LASF3811
C:\Users\SOLDER~1\AppData\Local\Temp\ccbih9yx.s:23733  .debug_str:0000000000015c4e .LASF3812
C:\Users\SOLDER~1\AppData\Local\Temp\ccbih9yx.s:20473  .debug_str:00000000000085ee .LASF3813
C:\Users\SOLDER~1\AppData\Local\Temp\ccbih9yx.s:19429  .debug_str:0000000000004275 .LASF3814
C:\Users\SOLDER~1\AppData\Local\Temp\ccbih9yx.s:20657  .debug_str:000000000000923f .LASF3815
C:\Users\SOLDER~1\AppData\Local\Temp\ccbih9yx.s:23711  .debug_str:0000000000015af8 .LASF3816
C:\Users\SOLDER~1\AppData\Local\Temp\ccbih9yx.s:20493  .debug_str:0000000000008736 .LASF3817
C:\Users\SOLDER~1\AppData\Local\Temp\ccbih9yx.s:21687  .debug_str:000000000000d615 .LASF3818
C:\Users\SOLDER~1\AppData\Local\Temp\ccbih9yx.s:19607  .debug_str:0000000000004dbc .LASF3819
C:\Users\SOLDER~1\AppData\Local\Temp\ccbih9yx.s:27383  .debug_str:0000000000024944 .LASF3820
C:\Users\SOLDER~1\AppData\Local\Temp\ccbih9yx.s:19189  .debug_str:000000000000335b .LASF3821
GAS LISTING C:\Users\SOLDER~1\AppData\Local\Temp\ccbih9yx.s 			page 78


C:\Users\SOLDER~1\AppData\Local\Temp\ccbih9yx.s:22275  .debug_str:000000000000fcc2 .LASF3822
C:\Users\SOLDER~1\AppData\Local\Temp\ccbih9yx.s:25491  .debug_str:000000000001ce39 .LASF3823
C:\Users\SOLDER~1\AppData\Local\Temp\ccbih9yx.s:28687  .debug_str:0000000000029f13 .LASF3824
C:\Users\SOLDER~1\AppData\Local\Temp\ccbih9yx.s:20627  .debug_str:000000000000902c .LASF3825
C:\Users\SOLDER~1\AppData\Local\Temp\ccbih9yx.s:26645  .debug_str:0000000000021960 .LASF3826
C:\Users\SOLDER~1\AppData\Local\Temp\ccbih9yx.s:20849  .debug_str:0000000000009ea2 .LASF3827
C:\Users\SOLDER~1\AppData\Local\Temp\ccbih9yx.s:20263  .debug_str:0000000000007807 .LASF3828
C:\Users\SOLDER~1\AppData\Local\Temp\ccbih9yx.s:21457  .debug_str:000000000000c6ed .LASF3829
C:\Users\SOLDER~1\AppData\Local\Temp\ccbih9yx.s:21445  .debug_str:000000000000c611 .LASF3830
C:\Users\SOLDER~1\AppData\Local\Temp\ccbih9yx.s:19115  .debug_str:0000000000002e79 .LASF3831
C:\Users\SOLDER~1\AppData\Local\Temp\ccbih9yx.s:21247  .debug_str:000000000000b8bd .LASF3832
C:\Users\SOLDER~1\AppData\Local\Temp\ccbih9yx.s:27131  .debug_str:00000000000238e2 .LASF3833
C:\Users\SOLDER~1\AppData\Local\Temp\ccbih9yx.s:25261  .debug_str:000000000001bea7 .LASF3834
C:\Users\SOLDER~1\AppData\Local\Temp\ccbih9yx.s:21777  .debug_str:000000000000dbd8 .LASF3835
C:\Users\SOLDER~1\AppData\Local\Temp\ccbih9yx.s:28963  .debug_str:000000000002b148 .LASF3836
C:\Users\SOLDER~1\AppData\Local\Temp\ccbih9yx.s:27047  .debug_str:000000000002336f .LASF3837
C:\Users\SOLDER~1\AppData\Local\Temp\ccbih9yx.s:19491  .debug_str:000000000000466b .LASF3838
C:\Users\SOLDER~1\AppData\Local\Temp\ccbih9yx.s:27309  .debug_str:0000000000024463 .LASF3839
C:\Users\SOLDER~1\AppData\Local\Temp\ccbih9yx.s:26843  .debug_str:00000000000225be .LASF3840
C:\Users\SOLDER~1\AppData\Local\Temp\ccbih9yx.s:19447  .debug_str:0000000000004393 .LASF3841
C:\Users\SOLDER~1\AppData\Local\Temp\ccbih9yx.s:21511  .debug_str:000000000000caa9 .LASF3842
C:\Users\SOLDER~1\AppData\Local\Temp\ccbih9yx.s:28531  .debug_str:000000000002951b .LASF3843
C:\Users\SOLDER~1\AppData\Local\Temp\ccbih9yx.s:20963  .debug_str:000000000000a667 .LASF3844
C:\Users\SOLDER~1\AppData\Local\Temp\ccbih9yx.s:26879  .debug_str:0000000000022822 .LASF3845
C:\Users\SOLDER~1\AppData\Local\Temp\ccbih9yx.s:25481  .debug_str:000000000001cdac .LASF3846
C:\Users\SOLDER~1\AppData\Local\Temp\ccbih9yx.s:22655  .debug_str:0000000000011514 .LASF3847
C:\Users\SOLDER~1\AppData\Local\Temp\ccbih9yx.s:22483  .debug_str:0000000000010a04 .LASF3848
C:\Users\SOLDER~1\AppData\Local\Temp\ccbih9yx.s:23865  .debug_str:00000000000164cf .LASF3849
C:\Users\SOLDER~1\AppData\Local\Temp\ccbih9yx.s:19869  .debug_str:0000000000005e47 .LASF3850
C:\Users\SOLDER~1\AppData\Local\Temp\ccbih9yx.s:21353  .debug_str:000000000000bfa8 .LASF3851
C:\Users\SOLDER~1\AppData\Local\Temp\ccbih9yx.s:21109  .debug_str:000000000000aff1 .LASF3852
C:\Users\SOLDER~1\AppData\Local\Temp\ccbih9yx.s:21139  .debug_str:000000000000b1b1 .LASF3853
C:\Users\SOLDER~1\AppData\Local\Temp\ccbih9yx.s:19125  .debug_str:0000000000002f59 .LASF3854
C:\Users\SOLDER~1\AppData\Local\Temp\ccbih9yx.s:24593  .debug_str:00000000000193f4 .LASF3855
C:\Users\SOLDER~1\AppData\Local\Temp\ccbih9yx.s:21773  .debug_str:000000000000db9d .LASF3856
C:\Users\SOLDER~1\AppData\Local\Temp\ccbih9yx.s:29427  .debug_str:000000000002cf30 .LASF3857
C:\Users\SOLDER~1\AppData\Local\Temp\ccbih9yx.s:29127  .debug_str:000000000002bb7d .LASF3858
C:\Users\SOLDER~1\AppData\Local\Temp\ccbih9yx.s:27553  .debug_str:0000000000025434 .LASF3859
C:\Users\SOLDER~1\AppData\Local\Temp\ccbih9yx.s:25825  .debug_str:000000000001e3c2 .LASF3860
C:\Users\SOLDER~1\AppData\Local\Temp\ccbih9yx.s:18581  .debug_str:0000000000000c2e .LASF3861
C:\Users\SOLDER~1\AppData\Local\Temp\ccbih9yx.s:28589  .debug_str:000000000002989c .LASF3862
C:\Users\SOLDER~1\AppData\Local\Temp\ccbih9yx.s:19285  .debug_str:0000000000003979 .LASF3863
C:\Users\SOLDER~1\AppData\Local\Temp\ccbih9yx.s:29495  .debug_str:000000000002d397 .LASF3864
C:\Users\SOLDER~1\AppData\Local\Temp\ccbih9yx.s:21931  .debug_str:000000000000e621 .LASF3865
C:\Users\SOLDER~1\AppData\Local\Temp\ccbih9yx.s:21107  .debug_str:000000000000afd1 .LASF3866
C:\Users\SOLDER~1\AppData\Local\Temp\ccbih9yx.s:22273  .debug_str:000000000000fca2 .LASF3867
C:\Users\SOLDER~1\AppData\Local\Temp\ccbih9yx.s:24339  .debug_str:000000000001833d .LASF3868
C:\Users\SOLDER~1\AppData\Local\Temp\ccbih9yx.s:25371  .debug_str:000000000001c621 .LASF3869
C:\Users\SOLDER~1\AppData\Local\Temp\ccbih9yx.s:21923  .debug_str:000000000000e581 .LASF3870
C:\Users\SOLDER~1\AppData\Local\Temp\ccbih9yx.s:21127  .debug_str:000000000000b0e6 .LASF3871
C:\Users\SOLDER~1\AppData\Local\Temp\ccbih9yx.s:29595  .debug_str:000000000002d9f7 .LASF3872
C:\Users\SOLDER~1\AppData\Local\Temp\ccbih9yx.s:24437  .debug_str:000000000001896a .LASF3873
C:\Users\SOLDER~1\AppData\Local\Temp\ccbih9yx.s:19381  .debug_str:0000000000003f5b .LASF3874
C:\Users\SOLDER~1\AppData\Local\Temp\ccbih9yx.s:28423  .debug_str:0000000000028de7 .LASF3875
C:\Users\SOLDER~1\AppData\Local\Temp\ccbih9yx.s:20311  .debug_str:0000000000007b47 .LASF3876
C:\Users\SOLDER~1\AppData\Local\Temp\ccbih9yx.s:19379  .debug_str:0000000000003f37 .LASF3877
C:\Users\SOLDER~1\AppData\Local\Temp\ccbih9yx.s:24559  .debug_str:0000000000019190 .LASF3878
GAS LISTING C:\Users\SOLDER~1\AppData\Local\Temp\ccbih9yx.s 			page 79


C:\Users\SOLDER~1\AppData\Local\Temp\ccbih9yx.s:21365  .debug_str:000000000000c07a .LASF3879
C:\Users\SOLDER~1\AppData\Local\Temp\ccbih9yx.s:21447  .debug_str:000000000000c633 .LASF3880
C:\Users\SOLDER~1\AppData\Local\Temp\ccbih9yx.s:27391  .debug_str:00000000000249be .LASF3881
C:\Users\SOLDER~1\AppData\Local\Temp\ccbih9yx.s:22181  .debug_str:000000000000f609 .LASF3882
C:\Users\SOLDER~1\AppData\Local\Temp\ccbih9yx.s:18427  .debug_str:000000000000015d .LASF3883
C:\Users\SOLDER~1\AppData\Local\Temp\ccbih9yx.s:29037  .debug_str:000000000002b60b .LASF3884
C:\Users\SOLDER~1\AppData\Local\Temp\ccbih9yx.s:28455  .debug_str:0000000000028fe5 .LASF3885
C:\Users\SOLDER~1\AppData\Local\Temp\ccbih9yx.s:21811  .debug_str:000000000000de1d .LASF3886
C:\Users\SOLDER~1\AppData\Local\Temp\ccbih9yx.s:26377  .debug_str:00000000000207fb .LASF3887
C:\Users\SOLDER~1\AppData\Local\Temp\ccbih9yx.s:18561  .debug_str:0000000000000acf .LASF3888
C:\Users\SOLDER~1\AppData\Local\Temp\ccbih9yx.s:29681  .debug_str:000000000002df52 .LASF3889
C:\Users\SOLDER~1\AppData\Local\Temp\ccbih9yx.s:21097  .debug_str:000000000000af29 .LASF3890
C:\Users\SOLDER~1\AppData\Local\Temp\ccbih9yx.s:22347  .debug_str:000000000001014d .LASF3891
C:\Users\SOLDER~1\AppData\Local\Temp\ccbih9yx.s:29181  .debug_str:000000000002bf50 .LASF3892
C:\Users\SOLDER~1\AppData\Local\Temp\ccbih9yx.s:20437  .debug_str:00000000000083b8 .LASF3893
C:\Users\SOLDER~1\AppData\Local\Temp\ccbih9yx.s:25509  .debug_str:000000000001cf59 .LASF3894
C:\Users\SOLDER~1\AppData\Local\Temp\ccbih9yx.s:24521  .debug_str:0000000000018f3f .LASF3895
C:\Users\SOLDER~1\AppData\Local\Temp\ccbih9yx.s:26465  .debug_str:0000000000020d95 .LASF3896
C:\Users\SOLDER~1\AppData\Local\Temp\ccbih9yx.s:20767  .debug_str:000000000000994a .LASF3897
C:\Users\SOLDER~1\AppData\Local\Temp\ccbih9yx.s:28169  .debug_str:0000000000027daa .LASF3898
C:\Users\SOLDER~1\AppData\Local\Temp\ccbih9yx.s:18827  .debug_str:0000000000001be0 .LASF3899
C:\Users\SOLDER~1\AppData\Local\Temp\ccbih9yx.s:24123  .debug_str:0000000000017509 .LASF3900
C:\Users\SOLDER~1\AppData\Local\Temp\ccbih9yx.s:28881  .debug_str:000000000002abb8 .LASF3901
C:\Users\SOLDER~1\AppData\Local\Temp\ccbih9yx.s:29695  .debug_str:000000000002e04d .LASF3902
C:\Users\SOLDER~1\AppData\Local\Temp\ccbih9yx.s:22071  .debug_str:000000000000ef1f .LASF3903
C:\Users\SOLDER~1\AppData\Local\Temp\ccbih9yx.s:23397  .debug_str:000000000001467d .LASF3904
C:\Users\SOLDER~1\AppData\Local\Temp\ccbih9yx.s:25415  .debug_str:000000000001c8f6 .LASF3905
C:\Users\SOLDER~1\AppData\Local\Temp\ccbih9yx.s:27323  .debug_str:000000000002456b .LASF3906
C:\Users\SOLDER~1\AppData\Local\Temp\ccbih9yx.s:28383  .debug_str:0000000000028b47 .LASF3907
C:\Users\SOLDER~1\AppData\Local\Temp\ccbih9yx.s:25779  .debug_str:000000000001e0eb .LASF3908
C:\Users\SOLDER~1\AppData\Local\Temp\ccbih9yx.s:29693  .debug_str:000000000002e02a .LASF3909
C:\Users\SOLDER~1\AppData\Local\Temp\ccbih9yx.s:23779  .debug_str:0000000000015f42 .LASF3910
C:\Users\SOLDER~1\AppData\Local\Temp\ccbih9yx.s:29553  .debug_str:000000000002d756 .LASF3911
C:\Users\SOLDER~1\AppData\Local\Temp\ccbih9yx.s:24317  .debug_str:00000000000181d9 .LASF3912
C:\Users\SOLDER~1\AppData\Local\Temp\ccbih9yx.s:28215  .debug_str:00000000000280c8 .LASF3913
C:\Users\SOLDER~1\AppData\Local\Temp\ccbih9yx.s:19513  .debug_str:00000000000047e1 .LASF3914
C:\Users\SOLDER~1\AppData\Local\Temp\ccbih9yx.s:24821  .debug_str:000000000001a23e .LASF3915
C:\Users\SOLDER~1\AppData\Local\Temp\ccbih9yx.s:26013  .debug_str:000000000001f044 .LASF3916
C:\Users\SOLDER~1\AppData\Local\Temp\ccbih9yx.s:26477  .debug_str:0000000000020e62 .LASF3917
C:\Users\SOLDER~1\AppData\Local\Temp\ccbih9yx.s:23663  .debug_str:00000000000157e2 .LASF3918
C:\Users\SOLDER~1\AppData\Local\Temp\ccbih9yx.s:27745  .debug_str:00000000000261a8 .LASF3919
C:\Users\SOLDER~1\AppData\Local\Temp\ccbih9yx.s:28661  .debug_str:0000000000029d76 .LASF3920
C:\Users\SOLDER~1\AppData\Local\Temp\ccbih9yx.s:27625  .debug_str:0000000000025924 .LASF3921
C:\Users\SOLDER~1\AppData\Local\Temp\ccbih9yx.s:20183  .debug_str:0000000000007346 .LASF3922
C:\Users\SOLDER~1\AppData\Local\Temp\ccbih9yx.s:26565  .debug_str:000000000002142b .LASF3923
C:\Users\SOLDER~1\AppData\Local\Temp\ccbih9yx.s:22577  .debug_str:0000000000010fcd .LASF3924
C:\Users\SOLDER~1\AppData\Local\Temp\ccbih9yx.s:26409  .debug_str:0000000000020a12 .LASF3925
C:\Users\SOLDER~1\AppData\Local\Temp\ccbih9yx.s:19661  .debug_str:00000000000050eb .LASF3926
C:\Users\SOLDER~1\AppData\Local\Temp\ccbih9yx.s:23123  .debug_str:0000000000013342 .LASF3927
C:\Users\SOLDER~1\AppData\Local\Temp\ccbih9yx.s:20785  .debug_str:0000000000009a62 .LASF3928
C:\Users\SOLDER~1\AppData\Local\Temp\ccbih9yx.s:19253  .debug_str:0000000000003770 .LASF3929
C:\Users\SOLDER~1\AppData\Local\Temp\ccbih9yx.s:20289  .debug_str:00000000000079c3 .LASF3930
C:\Users\SOLDER~1\AppData\Local\Temp\ccbih9yx.s:26027  .debug_str:000000000001f12b .LASF3931
C:\Users\SOLDER~1\AppData\Local\Temp\ccbih9yx.s:25511  .debug_str:000000000001cf70 .LASF3932
C:\Users\SOLDER~1\AppData\Local\Temp\ccbih9yx.s:28231  .debug_str:00000000000281b7 .LASF3933
C:\Users\SOLDER~1\AppData\Local\Temp\ccbih9yx.s:27799  .debug_str:0000000000026541 .LASF3934
C:\Users\SOLDER~1\AppData\Local\Temp\ccbih9yx.s:20779  .debug_str:0000000000009a05 .LASF3935
GAS LISTING C:\Users\SOLDER~1\AppData\Local\Temp\ccbih9yx.s 			page 80


C:\Users\SOLDER~1\AppData\Local\Temp\ccbih9yx.s:21967  .debug_str:000000000000e89e .LASF3936
C:\Users\SOLDER~1\AppData\Local\Temp\ccbih9yx.s:23735  .debug_str:0000000000015c70 .LASF3937
C:\Users\SOLDER~1\AppData\Local\Temp\ccbih9yx.s:19721  .debug_str:000000000000548f .LASF3938
C:\Users\SOLDER~1\AppData\Local\Temp\ccbih9yx.s:20469  .debug_str:0000000000008599 .LASF3939
C:\Users\SOLDER~1\AppData\Local\Temp\ccbih9yx.s:28733  .debug_str:000000000002a258 .LASF3940
C:\Users\SOLDER~1\AppData\Local\Temp\ccbih9yx.s:24267  .debug_str:0000000000017e72 .LASF3941
C:\Users\SOLDER~1\AppData\Local\Temp\ccbih9yx.s:21891  .debug_str:000000000000e3b2 .LASF3942
C:\Users\SOLDER~1\AppData\Local\Temp\ccbih9yx.s:26481  .debug_str:0000000000020ea8 .LASF3943
C:\Users\SOLDER~1\AppData\Local\Temp\ccbih9yx.s:19013  .debug_str:00000000000027f9 .LASF3944
C:\Users\SOLDER~1\AppData\Local\Temp\ccbih9yx.s:25273  .debug_str:000000000001bf47 .LASF3945
C:\Users\SOLDER~1\AppData\Local\Temp\ccbih9yx.s:20425  .debug_str:00000000000082e3 .LASF3946
C:\Users\SOLDER~1\AppData\Local\Temp\ccbih9yx.s:26351  .debug_str:000000000002064a .LASF3947
C:\Users\SOLDER~1\AppData\Local\Temp\ccbih9yx.s:27499  .debug_str:00000000000250da .LASF3948
C:\Users\SOLDER~1\AppData\Local\Temp\ccbih9yx.s:23637  .debug_str:0000000000015631 .LASF3949
C:\Users\SOLDER~1\AppData\Local\Temp\ccbih9yx.s:18683  .debug_str:00000000000012a5 .LASF3950
C:\Users\SOLDER~1\AppData\Local\Temp\ccbih9yx.s:27091  .debug_str:000000000002364c .LASF3951
C:\Users\SOLDER~1\AppData\Local\Temp\ccbih9yx.s:19385  .debug_str:0000000000003fa7 .LASF3952
C:\Users\SOLDER~1\AppData\Local\Temp\ccbih9yx.s:22311  .debug_str:000000000000ff1f .LASF3953
C:\Users\SOLDER~1\AppData\Local\Temp\ccbih9yx.s:23739  .debug_str:0000000000015cb1 .LASF3954
C:\Users\SOLDER~1\AppData\Local\Temp\ccbih9yx.s:20365  .debug_str:0000000000007ee8 .LASF3955
C:\Users\SOLDER~1\AppData\Local\Temp\ccbih9yx.s:18729  .debug_str:00000000000015b2 .LASF3956
C:\Users\SOLDER~1\AppData\Local\Temp\ccbih9yx.s:29901  .debug_str:000000000002ed4e .LASF3957
C:\Users\SOLDER~1\AppData\Local\Temp\ccbih9yx.s:22875  .debug_str:00000000000122f3 .LASF3958
C:\Users\SOLDER~1\AppData\Local\Temp\ccbih9yx.s:24085  .debug_str:0000000000017288 .LASF3959
C:\Users\SOLDER~1\AppData\Local\Temp\ccbih9yx.s:21845  .debug_str:000000000000e097 .LASF3960
C:\Users\SOLDER~1\AppData\Local\Temp\ccbih9yx.s:24347  .debug_str:00000000000183b6 .LASF3961
C:\Users\SOLDER~1\AppData\Local\Temp\ccbih9yx.s:27513  .debug_str:00000000000251b8 .LASF3962
C:\Users\SOLDER~1\AppData\Local\Temp\ccbih9yx.s:21843  .debug_str:000000000000e070 .LASF3963
C:\Users\SOLDER~1\AppData\Local\Temp\ccbih9yx.s:21979  .debug_str:000000000000e954 .LASF3964
C:\Users\SOLDER~1\AppData\Local\Temp\ccbih9yx.s:26411  .debug_str:0000000000020a32 .LASF3965
C:\Users\SOLDER~1\AppData\Local\Temp\ccbih9yx.s:26475  .debug_str:0000000000020e3a .LASF3966
C:\Users\SOLDER~1\AppData\Local\Temp\ccbih9yx.s:25451  .debug_str:000000000001cb87 .LASF3967
C:\Users\SOLDER~1\AppData\Local\Temp\ccbih9yx.s:27233  .debug_str:0000000000023f5a .LASF3968
C:\Users\SOLDER~1\AppData\Local\Temp\ccbih9yx.s:24229  .debug_str:0000000000017be1 .LASF3969
C:\Users\SOLDER~1\AppData\Local\Temp\ccbih9yx.s:21435  .debug_str:000000000000c56f .LASF3970
C:\Users\SOLDER~1\AppData\Local\Temp\ccbih9yx.s:21005  .debug_str:000000000000a929 .LASF3971
C:\Users\SOLDER~1\AppData\Local\Temp\ccbih9yx.s:19523  .debug_str:000000000000488e .LASF3972
C:\Users\SOLDER~1\AppData\Local\Temp\ccbih9yx.s:27755  .debug_str:000000000002626e .LASF3973
C:\Users\SOLDER~1\AppData\Local\Temp\ccbih9yx.s:22233  .debug_str:000000000000f9cd .LASF3974
C:\Users\SOLDER~1\AppData\Local\Temp\ccbih9yx.s:22431  .debug_str:0000000000010673 .LASF3975
C:\Users\SOLDER~1\AppData\Local\Temp\ccbih9yx.s:18541  .debug_str:000000000000097c .LASF3976
C:\Users\SOLDER~1\AppData\Local\Temp\ccbih9yx.s:20085  .debug_str:0000000000006ca0 .LASF3977
C:\Users\SOLDER~1\AppData\Local\Temp\ccbih9yx.s:29783  .debug_str:000000000002e5dc .LASF3978
C:\Users\SOLDER~1\AppData\Local\Temp\ccbih9yx.s:20943  .debug_str:000000000000a4d1 .LASF3979
C:\Users\SOLDER~1\AppData\Local\Temp\ccbih9yx.s:18527  .debug_str:0000000000000865 .LASF3980
C:\Users\SOLDER~1\AppData\Local\Temp\ccbih9yx.s:27917  .debug_str:0000000000026d25 .LASF3981
C:\Users\SOLDER~1\AppData\Local\Temp\ccbih9yx.s:25039  .debug_str:000000000001b059 .LASF3982
C:\Users\SOLDER~1\AppData\Local\Temp\ccbih9yx.s:28349  .debug_str:000000000002897d .LASF3983
C:\Users\SOLDER~1\AppData\Local\Temp\ccbih9yx.s:24167  .debug_str:00000000000177d7 .LASF3984
C:\Users\SOLDER~1\AppData\Local\Temp\ccbih9yx.s:27911  .debug_str:0000000000026cba .LASF3985
C:\Users\SOLDER~1\AppData\Local\Temp\ccbih9yx.s:20515  .debug_str:000000000000888b .LASF3986
C:\Users\SOLDER~1\AppData\Local\Temp\ccbih9yx.s:20035  .debug_str:0000000000006987 .LASF3987
C:\Users\SOLDER~1\AppData\Local\Temp\ccbih9yx.s:25647  .debug_str:000000000001d863 .LASF3988
C:\Users\SOLDER~1\AppData\Local\Temp\ccbih9yx.s:20209  .debug_str:00000000000074ee .LASF3989
C:\Users\SOLDER~1\AppData\Local\Temp\ccbih9yx.s:27781  .debug_str:0000000000026445 .LASF3990
C:\Users\SOLDER~1\AppData\Local\Temp\ccbih9yx.s:19377  .debug_str:0000000000003f1a .LASF3991
C:\Users\SOLDER~1\AppData\Local\Temp\ccbih9yx.s:27225  .debug_str:0000000000023ed7 .LASF3992
GAS LISTING C:\Users\SOLDER~1\AppData\Local\Temp\ccbih9yx.s 			page 81


C:\Users\SOLDER~1\AppData\Local\Temp\ccbih9yx.s:20609  .debug_str:0000000000008ef2 .LASF3993
C:\Users\SOLDER~1\AppData\Local\Temp\ccbih9yx.s:21179  .debug_str:000000000000b474 .LASF3994
C:\Users\SOLDER~1\AppData\Local\Temp\ccbih9yx.s:21461  .debug_str:000000000000c733 .LASF3995
C:\Users\SOLDER~1\AppData\Local\Temp\ccbih9yx.s:27303  .debug_str:00000000000243f4 .LASF3996
C:\Users\SOLDER~1\AppData\Local\Temp\ccbih9yx.s:28891  .debug_str:000000000002ac59 .LASF3997
C:\Users\SOLDER~1\AppData\Local\Temp\ccbih9yx.s:20653  .debug_str:000000000000921d .LASF3998
C:\Users\SOLDER~1\AppData\Local\Temp\ccbih9yx.s:22931  .debug_str:00000000000126a2 .LASF3999
C:\Users\SOLDER~1\AppData\Local\Temp\ccbih9yx.s:23409  .debug_str:000000000001472e .LASF4000
C:\Users\SOLDER~1\AppData\Local\Temp\ccbih9yx.s:28127  .debug_str:0000000000027ab1 .LASF4001
C:\Users\SOLDER~1\AppData\Local\Temp\ccbih9yx.s:29705  .debug_str:000000000002e0e4 .LASF4002
C:\Users\SOLDER~1\AppData\Local\Temp\ccbih9yx.s:18951  .debug_str:000000000000240a .LASF4003
C:\Users\SOLDER~1\AppData\Local\Temp\ccbih9yx.s:23871  .debug_str:000000000001651a .LASF4004
C:\Users\SOLDER~1\AppData\Local\Temp\ccbih9yx.s:25627  .debug_str:000000000001d713 .LASF4005
C:\Users\SOLDER~1\AppData\Local\Temp\ccbih9yx.s:28469  .debug_str:00000000000290da .LASF4006
C:\Users\SOLDER~1\AppData\Local\Temp\ccbih9yx.s:19715  .debug_str:0000000000005440 .LASF4007
C:\Users\SOLDER~1\AppData\Local\Temp\ccbih9yx.s:20401  .debug_str:0000000000008168 .LASF4008
C:\Users\SOLDER~1\AppData\Local\Temp\ccbih9yx.s:18647  .debug_str:000000000000105d .LASF4009
C:\Users\SOLDER~1\AppData\Local\Temp\ccbih9yx.s:28321  .debug_str:00000000000287b8 .LASF4010
C:\Users\SOLDER~1\AppData\Local\Temp\ccbih9yx.s:18613  .debug_str:0000000000000e5b .LASF4011
C:\Users\SOLDER~1\AppData\Local\Temp\ccbih9yx.s:28809  .debug_str:000000000002a71d .LASF4012
C:\Users\SOLDER~1\AppData\Local\Temp\ccbih9yx.s:28341  .debug_str:00000000000288f0 .LASF4013
C:\Users\SOLDER~1\AppData\Local\Temp\ccbih9yx.s:24813  .debug_str:000000000001a1c0 .LASF4014
C:\Users\SOLDER~1\AppData\Local\Temp\ccbih9yx.s:27909  .debug_str:0000000000026c9e .LASF4015
C:\Users\SOLDER~1\AppData\Local\Temp\ccbih9yx.s:18869  .debug_str:0000000000001e9b .LASF4016
C:\Users\SOLDER~1\AppData\Local\Temp\ccbih9yx.s:29389  .debug_str:000000000002cc80 .LASF4017
C:\Users\SOLDER~1\AppData\Local\Temp\ccbih9yx.s:26659  .debug_str:0000000000021a60 .LASF4018
C:\Users\SOLDER~1\AppData\Local\Temp\ccbih9yx.s:18467  .debug_str:0000000000000414 .LASF4019
C:\Users\SOLDER~1\AppData\Local\Temp\ccbih9yx.s:21423  .debug_str:000000000000c4b8 .LASF4020
C:\Users\SOLDER~1\AppData\Local\Temp\ccbih9yx.s:21257  .debug_str:000000000000b973 .LASF4021
C:\Users\SOLDER~1\AppData\Local\Temp\ccbih9yx.s:27279  .debug_str:0000000000024259 .LASF4022
C:\Users\SOLDER~1\AppData\Local\Temp\ccbih9yx.s:27639  .debug_str:0000000000025a35 .LASF4023
C:\Users\SOLDER~1\AppData\Local\Temp\ccbih9yx.s:28255  .debug_str:0000000000028340 .LASF4024
C:\Users\SOLDER~1\AppData\Local\Temp\ccbih9yx.s:19413  .debug_str:000000000000418c .LASF4025
C:\Users\SOLDER~1\AppData\Local\Temp\ccbih9yx.s:25933  .debug_str:000000000001eb04 .LASF4026
C:\Users\SOLDER~1\AppData\Local\Temp\ccbih9yx.s:23509  .debug_str:0000000000014de7 .LASF4027
C:\Users\SOLDER~1\AppData\Local\Temp\ccbih9yx.s:29763  .debug_str:000000000002e486 .LASF4028
C:\Users\SOLDER~1\AppData\Local\Temp\ccbih9yx.s:19269  .debug_str:000000000000387c .LASF4029
C:\Users\SOLDER~1\AppData\Local\Temp\ccbih9yx.s:25155  .debug_str:000000000001b7b9 .LASF4030
C:\Users\SOLDER~1\AppData\Local\Temp\ccbih9yx.s:27803  .debug_str:000000000002658e .LASF4031
C:\Users\SOLDER~1\AppData\Local\Temp\ccbih9yx.s:27119  .debug_str:000000000002381b .LASF4032
C:\Users\SOLDER~1\AppData\Local\Temp\ccbih9yx.s:27021  .debug_str:000000000002318d .LASF4033
C:\Users\SOLDER~1\AppData\Local\Temp\ccbih9yx.s:21259  .debug_str:000000000000b990 .LASF4034
C:\Users\SOLDER~1\AppData\Local\Temp\ccbih9yx.s:28667  .debug_str:0000000000029dc9 .LASF4035
C:\Users\SOLDER~1\AppData\Local\Temp\ccbih9yx.s:20739  .debug_str:0000000000009778 .LASF4036
C:\Users\SOLDER~1\AppData\Local\Temp\ccbih9yx.s:19585  .debug_str:0000000000004c74 .LASF4037
C:\Users\SOLDER~1\AppData\Local\Temp\ccbih9yx.s:24325  .debug_str:0000000000018265 .LASF4038
C:\Users\SOLDER~1\AppData\Local\Temp\ccbih9yx.s:20485  .debug_str:00000000000086ca .LASF4039
C:\Users\SOLDER~1\AppData\Local\Temp\ccbih9yx.s:26441  .debug_str:0000000000020c10 .LASF4040
C:\Users\SOLDER~1\AppData\Local\Temp\ccbih9yx.s:29515  .debug_str:000000000002d4d4 .LASF4041
C:\Users\SOLDER~1\AppData\Local\Temp\ccbih9yx.s:22065  .debug_str:000000000000eeca .LASF4042
C:\Users\SOLDER~1\AppData\Local\Temp\ccbih9yx.s:29619  .debug_str:000000000002db8d .LASF4043
C:\Users\SOLDER~1\AppData\Local\Temp\ccbih9yx.s:26207  .debug_str:000000000001fce3 .LASF4044
C:\Users\SOLDER~1\AppData\Local\Temp\ccbih9yx.s:19775  .debug_str:0000000000005851 .LASF4045
C:\Users\SOLDER~1\AppData\Local\Temp\ccbih9yx.s:25655  .debug_str:000000000001d8a5 .LASF4046
C:\Users\SOLDER~1\AppData\Local\Temp\ccbih9yx.s:19767  .debug_str:00000000000057bd .LASF4047
C:\Users\SOLDER~1\AppData\Local\Temp\ccbih9yx.s:27487  .debug_str:0000000000025037 .LASF4048
C:\Users\SOLDER~1\AppData\Local\Temp\ccbih9yx.s:22613  .debug_str:000000000001121b .LASF4049
GAS LISTING C:\Users\SOLDER~1\AppData\Local\Temp\ccbih9yx.s 			page 82


C:\Users\SOLDER~1\AppData\Local\Temp\ccbih9yx.s:23179  .debug_str:0000000000013712 .LASF4050
C:\Users\SOLDER~1\AppData\Local\Temp\ccbih9yx.s:19081  .debug_str:0000000000002c4c .LASF4051
C:\Users\SOLDER~1\AppData\Local\Temp\ccbih9yx.s:23293  .debug_str:0000000000013f54 .LASF4052
C:\Users\SOLDER~1\AppData\Local\Temp\ccbih9yx.s:22399  .debug_str:000000000001049a .LASF4053
C:\Users\SOLDER~1\AppData\Local\Temp\ccbih9yx.s:22587  .debug_str:0000000000011086 .LASF4054
C:\Users\SOLDER~1\AppData\Local\Temp\ccbih9yx.s:26891  .debug_str:0000000000022905 .LASF4055
C:\Users\SOLDER~1\AppData\Local\Temp\ccbih9yx.s:22503  .debug_str:0000000000010b29 .LASF4056
C:\Users\SOLDER~1\AppData\Local\Temp\ccbih9yx.s:19173  .debug_str:0000000000003253 .LASF4057
C:\Users\SOLDER~1\AppData\Local\Temp\ccbih9yx.s:23039  .debug_str:0000000000012dd9 .LASF4058
C:\Users\SOLDER~1\AppData\Local\Temp\ccbih9yx.s:22955  .debug_str:0000000000012817 .LASF4059
C:\Users\SOLDER~1\AppData\Local\Temp\ccbih9yx.s:20645  .debug_str:0000000000009198 .LASF4060
C:\Users\SOLDER~1\AppData\Local\Temp\ccbih9yx.s:19867  .debug_str:0000000000005e2c .LASF4061
C:\Users\SOLDER~1\AppData\Local\Temp\ccbih9yx.s:26437  .debug_str:0000000000020be6 .LASF4062
C:\Users\SOLDER~1\AppData\Local\Temp\ccbih9yx.s:24111  .debug_str:0000000000017446 .LASF4063
C:\Users\SOLDER~1\AppData\Local\Temp\ccbih9yx.s:26311  .debug_str:0000000000020396 .LASF4064
C:\Users\SOLDER~1\AppData\Local\Temp\ccbih9yx.s:26695  .debug_str:0000000000021ca3 .LASF4065
C:\Users\SOLDER~1\AppData\Local\Temp\ccbih9yx.s:26899  .debug_str:0000000000022996 .LASF4066
C:\Users\SOLDER~1\AppData\Local\Temp\ccbih9yx.s:22911  .debug_str:000000000001255e .LASF4067
C:\Users\SOLDER~1\AppData\Local\Temp\ccbih9yx.s:27031  .debug_str:000000000002323c .LASF4068
C:\Users\SOLDER~1\AppData\Local\Temp\ccbih9yx.s:19915  .debug_str:0000000000006177 .LASF4069
C:\Users\SOLDER~1\AppData\Local\Temp\ccbih9yx.s:27175  .debug_str:0000000000023b95 .LASF4070
C:\Users\SOLDER~1\AppData\Local\Temp\ccbih9yx.s:24397  .debug_str:00000000000186e8 .LASF4071
C:\Users\SOLDER~1\AppData\Local\Temp\ccbih9yx.s:26675  .debug_str:0000000000021b5d .LASF4072
C:\Users\SOLDER~1\AppData\Local\Temp\ccbih9yx.s:18911  .debug_str:0000000000002152 .LASF4073
C:\Users\SOLDER~1\AppData\Local\Temp\ccbih9yx.s:27791  .debug_str:00000000000264db .LASF4074
C:\Users\SOLDER~1\AppData\Local\Temp\ccbih9yx.s:26783  .debug_str:00000000000221d1 .LASF4075
C:\Users\SOLDER~1\AppData\Local\Temp\ccbih9yx.s:23031  .debug_str:0000000000012d4d .LASF4076
C:\Users\SOLDER~1\AppData\Local\Temp\ccbih9yx.s:27593  .debug_str:00000000000256e6 .LASF4077
C:\Users\SOLDER~1\AppData\Local\Temp\ccbih9yx.s:19311  .debug_str:0000000000003b41 .LASF4078
C:\Users\SOLDER~1\AppData\Local\Temp\ccbih9yx.s:22219  .debug_str:000000000000f8d0 .LASF4079
C:\Users\SOLDER~1\AppData\Local\Temp\ccbih9yx.s:21147  .debug_str:000000000000b237 .LASF4080
C:\Users\SOLDER~1\AppData\Local\Temp\ccbih9yx.s:19579  .debug_str:0000000000004c0f .LASF4081
C:\Users\SOLDER~1\AppData\Local\Temp\ccbih9yx.s:28123  .debug_str:0000000000027a79 .LASF4082
C:\Users\SOLDER~1\AppData\Local\Temp\ccbih9yx.s:20743  .debug_str:00000000000097af .LASF4083
C:\Users\SOLDER~1\AppData\Local\Temp\ccbih9yx.s:29121  .debug_str:000000000002bb2f .LASF4084
C:\Users\SOLDER~1\AppData\Local\Temp\ccbih9yx.s:27029  .debug_str:000000000002321f .LASF4085
C:\Users\SOLDER~1\AppData\Local\Temp\ccbih9yx.s:28291  .debug_str:000000000002857c .LASF4086
C:\Users\SOLDER~1\AppData\Local\Temp\ccbih9yx.s:25317  .debug_str:000000000001c278 .LASF4087
C:\Users\SOLDER~1\AppData\Local\Temp\ccbih9yx.s:23447  .debug_str:00000000000149de .LASF4088
C:\Users\SOLDER~1\AppData\Local\Temp\ccbih9yx.s:19397  .debug_str:0000000000004067 .LASF4089
C:\Users\SOLDER~1\AppData\Local\Temp\ccbih9yx.s:25107  .debug_str:000000000001b4c8 .LASF4090
C:\Users\SOLDER~1\AppData\Local\Temp\ccbih9yx.s:29027  .debug_str:000000000002b550 .LASF4091
C:\Users\SOLDER~1\AppData\Local\Temp\ccbih9yx.s:29867  .debug_str:000000000002eb51 .LASF4092
C:\Users\SOLDER~1\AppData\Local\Temp\ccbih9yx.s:20181  .debug_str:0000000000007329 .LASF4093
C:\Users\SOLDER~1\AppData\Local\Temp\ccbih9yx.s:29335  .debug_str:000000000002c91d .LASF4094
C:\Users\SOLDER~1\AppData\Local\Temp\ccbih9yx.s:29583  .debug_str:000000000002d91d .LASF4095
C:\Users\SOLDER~1\AppData\Local\Temp\ccbih9yx.s:24313  .debug_str:00000000000181ab .LASF4096
C:\Users\SOLDER~1\AppData\Local\Temp\ccbih9yx.s:18731  .debug_str:00000000000015cd .LASF4097
C:\Users\SOLDER~1\AppData\Local\Temp\ccbih9yx.s:19535  .debug_str:0000000000004942 .LASF4098
C:\Users\SOLDER~1\AppData\Local\Temp\ccbih9yx.s:29757  .debug_str:000000000002e428 .LASF4099
C:\Users\SOLDER~1\AppData\Local\Temp\ccbih9yx.s:25111  .debug_str:000000000001b502 .LASF4100
C:\Users\SOLDER~1\AppData\Local\Temp\ccbih9yx.s:28883  .debug_str:000000000002abd9 .LASF4101
C:\Users\SOLDER~1\AppData\Local\Temp\ccbih9yx.s:23485  .debug_str:0000000000014c6f .LASF4102
C:\Users\SOLDER~1\AppData\Local\Temp\ccbih9yx.s:19531  .debug_str:000000000000490f .LASF4103
C:\Users\SOLDER~1\AppData\Local\Temp\ccbih9yx.s:21731  .debug_str:000000000000d8f9 .LASF4104
C:\Users\SOLDER~1\AppData\Local\Temp\ccbih9yx.s:20937  .debug_str:000000000000a47f .LASF4105
C:\Users\SOLDER~1\AppData\Local\Temp\ccbih9yx.s:20857  .debug_str:0000000000009f21 .LASF4106
GAS LISTING C:\Users\SOLDER~1\AppData\Local\Temp\ccbih9yx.s 			page 83


C:\Users\SOLDER~1\AppData\Local\Temp\ccbih9yx.s:29509  .debug_str:000000000002d461 .LASF4107
C:\Users\SOLDER~1\AppData\Local\Temp\ccbih9yx.s:24453  .debug_str:0000000000018a9f .LASF4108
C:\Users\SOLDER~1\AppData\Local\Temp\ccbih9yx.s:22563  .debug_str:0000000000010efc .LASF4109
C:\Users\SOLDER~1\AppData\Local\Temp\ccbih9yx.s:19371  .debug_str:0000000000003ed4 .LASF4110
C:\Users\SOLDER~1\AppData\Local\Temp\ccbih9yx.s:26839  .debug_str:0000000000022584 .LASF4111
C:\Users\SOLDER~1\AppData\Local\Temp\ccbih9yx.s:22417  .debug_str:00000000000105b0 .LASF4112
C:\Users\SOLDER~1\AppData\Local\Temp\ccbih9yx.s:24405  .debug_str:0000000000018761 .LASF4113
C:\Users\SOLDER~1\AppData\Local\Temp\ccbih9yx.s:26583  .debug_str:000000000002157f .LASF4114
C:\Users\SOLDER~1\AppData\Local\Temp\ccbih9yx.s:24641  .debug_str:000000000001970d .LASF4115
C:\Users\SOLDER~1\AppData\Local\Temp\ccbih9yx.s:21889  .debug_str:000000000000e394 .LASF4116
C:\Users\SOLDER~1\AppData\Local\Temp\ccbih9yx.s:29537  .debug_str:000000000002d64d .LASF4117
C:\Users\SOLDER~1\AppData\Local\Temp\ccbih9yx.s:20797  .debug_str:0000000000009b20 .LASF4118
C:\Users\SOLDER~1\AppData\Local\Temp\ccbih9yx.s:20105  .debug_str:0000000000006e07 .LASF4119
C:\Users\SOLDER~1\AppData\Local\Temp\ccbih9yx.s:28045  .debug_str:000000000002759a .LASF4120
C:\Users\SOLDER~1\AppData\Local\Temp\ccbih9yx.s:22551  .debug_str:0000000000010e37 .LASF4121
C:\Users\SOLDER~1\AppData\Local\Temp\ccbih9yx.s:19697  .debug_str:0000000000005336 .LASF4122
C:\Users\SOLDER~1\AppData\Local\Temp\ccbih9yx.s:20037  .debug_str:00000000000069a2 .LASF4123
C:\Users\SOLDER~1\AppData\Local\Temp\ccbih9yx.s:23731  .debug_str:0000000000015c30 .LASF4124
C:\Users\SOLDER~1\AppData\Local\Temp\ccbih9yx.s:21163  .debug_str:000000000000b352 .LASF4125
C:\Users\SOLDER~1\AppData\Local\Temp\ccbih9yx.s:18845  .debug_str:0000000000001d16 .LASF4126
C:\Users\SOLDER~1\AppData\Local\Temp\ccbih9yx.s:23525  .debug_str:0000000000014ee9 .LASF4127
C:\Users\SOLDER~1\AppData\Local\Temp\ccbih9yx.s:21307  .debug_str:000000000000bcb7 .LASF4128
C:\Users\SOLDER~1\AppData\Local\Temp\ccbih9yx.s:28659  .debug_str:0000000000029d64 .LASF4129
C:\Users\SOLDER~1\AppData\Local\Temp\ccbih9yx.s:19009  .debug_str:00000000000027bb .LASF4130
C:\Users\SOLDER~1\AppData\Local\Temp\ccbih9yx.s:20969  .debug_str:000000000000a6d3 .LASF4131
C:\Users\SOLDER~1\AppData\Local\Temp\ccbih9yx.s:25697  .debug_str:000000000001db69 .LASF4132
C:\Users\SOLDER~1\AppData\Local\Temp\ccbih9yx.s:21587  .debug_str:000000000000cfa9 .LASF4133
C:\Users\SOLDER~1\AppData\Local\Temp\ccbih9yx.s:19737  .debug_str:0000000000005584 .LASF4134
C:\Users\SOLDER~1\AppData\Local\Temp\ccbih9yx.s:22351  .debug_str:0000000000010189 .LASF4135
C:\Users\SOLDER~1\AppData\Local\Temp\ccbih9yx.s:28017  .debug_str:00000000000273dc .LASF4136
C:\Users\SOLDER~1\AppData\Local\Temp\ccbih9yx.s:27059  .debug_str:0000000000023458 .LASF4137
C:\Users\SOLDER~1\AppData\Local\Temp\ccbih9yx.s:29809  .debug_str:000000000002e7ae .LASF4138
C:\Users\SOLDER~1\AppData\Local\Temp\ccbih9yx.s:23413  .debug_str:0000000000014766 .LASF4139
C:\Users\SOLDER~1\AppData\Local\Temp\ccbih9yx.s:20237  .debug_str:00000000000076a0 .LASF4140
C:\Users\SOLDER~1\AppData\Local\Temp\ccbih9yx.s:27129  .debug_str:00000000000238c4 .LASF4141
C:\Users\SOLDER~1\AppData\Local\Temp\ccbih9yx.s:20397  .debug_str:0000000000008137 .LASF4142
C:\Users\SOLDER~1\AppData\Local\Temp\ccbih9yx.s:28693  .debug_str:0000000000029f79 .LASF4143
C:\Users\SOLDER~1\AppData\Local\Temp\ccbih9yx.s:27275  .debug_str:000000000002422d .LASF4144
C:\Users\SOLDER~1\AppData\Local\Temp\ccbih9yx.s:23563  .debug_str:0000000000015124 .LASF4145
C:\Users\SOLDER~1\AppData\Local\Temp\ccbih9yx.s:21875  .debug_str:000000000000e2aa .LASF4146
C:\Users\SOLDER~1\AppData\Local\Temp\ccbih9yx.s:26869  .debug_str:0000000000022783 .LASF4147
C:\Users\SOLDER~1\AppData\Local\Temp\ccbih9yx.s:27061  .debug_str:000000000002346b .LASF4148
C:\Users\SOLDER~1\AppData\Local\Temp\ccbih9yx.s:19109  .debug_str:0000000000002e25 .LASF4149
C:\Users\SOLDER~1\AppData\Local\Temp\ccbih9yx.s:26327  .debug_str:00000000000204c1 .LASF4150
C:\Users\SOLDER~1\AppData\Local\Temp\ccbih9yx.s:29113  .debug_str:000000000002ba9d .LASF4151
C:\Users\SOLDER~1\AppData\Local\Temp\ccbih9yx.s:26213  .debug_str:000000000001fd35 .LASF4152
C:\Users\SOLDER~1\AppData\Local\Temp\ccbih9yx.s:25253  .debug_str:000000000001be10 .LASF4153
C:\Users\SOLDER~1\AppData\Local\Temp\ccbih9yx.s:19549  .debug_str:0000000000004a09 .LASF4154
C:\Users\SOLDER~1\AppData\Local\Temp\ccbih9yx.s:18969  .debug_str:000000000000253b .LASF4155
C:\Users\SOLDER~1\AppData\Local\Temp\ccbih9yx.s:21047  .debug_str:000000000000abce .LASF4156
C:\Users\SOLDER~1\AppData\Local\Temp\ccbih9yx.s:24389  .debug_str:0000000000018669 .LASF4157
C:\Users\SOLDER~1\AppData\Local\Temp\ccbih9yx.s:28763  .debug_str:000000000002a432 .LASF4158
C:\Users\SOLDER~1\AppData\Local\Temp\ccbih9yx.s:26785  .debug_str:00000000000221ec .LASF4159
C:\Users\SOLDER~1\AppData\Local\Temp\ccbih9yx.s:24667  .debug_str:000000000001989e .LASF4160
C:\Users\SOLDER~1\AppData\Local\Temp\ccbih9yx.s:19005  .debug_str:0000000000002777 .LASF4161
C:\Users\SOLDER~1\AppData\Local\Temp\ccbih9yx.s:22873  .debug_str:00000000000122d5 .LASF4162
C:\Users\SOLDER~1\AppData\Local\Temp\ccbih9yx.s:26307  .debug_str:0000000000020356 .LASF4163
GAS LISTING C:\Users\SOLDER~1\AppData\Local\Temp\ccbih9yx.s 			page 84


C:\Users\SOLDER~1\AppData\Local\Temp\ccbih9yx.s:23887  .debug_str:0000000000016602 .LASF4164
C:\Users\SOLDER~1\AppData\Local\Temp\ccbih9yx.s:20997  .debug_str:000000000000a8a3 .LASF4165
C:\Users\SOLDER~1\AppData\Local\Temp\ccbih9yx.s:27101  .debug_str:000000000002370b .LASF4166
C:\Users\SOLDER~1\AppData\Local\Temp\ccbih9yx.s:27619  .debug_str:00000000000258c5 .LASF4167
C:\Users\SOLDER~1\AppData\Local\Temp\ccbih9yx.s:28175  .debug_str:0000000000027e03 .LASF4168
C:\Users\SOLDER~1\AppData\Local\Temp\ccbih9yx.s:25967  .debug_str:000000000001ed2c .LASF4169
C:\Users\SOLDER~1\AppData\Local\Temp\ccbih9yx.s:29079  .debug_str:000000000002b8a0 .LASF4170
C:\Users\SOLDER~1\AppData\Local\Temp\ccbih9yx.s:25201  .debug_str:000000000001bac0 .LASF4171
C:\Users\SOLDER~1\AppData\Local\Temp\ccbih9yx.s:28385  .debug_str:0000000000028b6c .LASF4172
C:\Users\SOLDER~1\AppData\Local\Temp\ccbih9yx.s:29467  .debug_str:000000000002d1df .LASF4173
C:\Users\SOLDER~1\AppData\Local\Temp\ccbih9yx.s:19623  .debug_str:0000000000004ea9 .LASF4174
C:\Users\SOLDER~1\AppData\Local\Temp\ccbih9yx.s:29709  .debug_str:000000000002e10f .LASF4175
C:\Users\SOLDER~1\AppData\Local\Temp\ccbih9yx.s:26103  .debug_str:000000000001f669 .LASF4176
C:\Users\SOLDER~1\AppData\Local\Temp\ccbih9yx.s:28057  .debug_str:0000000000027668 .LASF4177
C:\Users\SOLDER~1\AppData\Local\Temp\ccbih9yx.s:27567  .debug_str:0000000000025549 .LASF4178
C:\Users\SOLDER~1\AppData\Local\Temp\ccbih9yx.s:22131  .debug_str:000000000000f2c3 .LASF4179
C:\Users\SOLDER~1\AppData\Local\Temp\ccbih9yx.s:24735  .debug_str:0000000000019cea .LASF4180
C:\Users\SOLDER~1\AppData\Local\Temp\ccbih9yx.s:19861  .debug_str:0000000000005dd7 .LASF4181
C:\Users\SOLDER~1\AppData\Local\Temp\ccbih9yx.s:19473  .debug_str:0000000000004529 .LASF4182
C:\Users\SOLDER~1\AppData\Local\Temp\ccbih9yx.s:20137  .debug_str:0000000000007052 .LASF4183
C:\Users\SOLDER~1\AppData\Local\Temp\ccbih9yx.s:27459  .debug_str:0000000000024e50 .LASF4184
C:\Users\SOLDER~1\AppData\Local\Temp\ccbih9yx.s:23301  .debug_str:0000000000013fbc .LASF4185
C:\Users\SOLDER~1\AppData\Local\Temp\ccbih9yx.s:29603  .debug_str:000000000002da71 .LASF4186
C:\Users\SOLDER~1\AppData\Local\Temp\ccbih9yx.s:26673  .debug_str:0000000000021b41 .LASF4187
C:\Users\SOLDER~1\AppData\Local\Temp\ccbih9yx.s:20347  .debug_str:0000000000007db1 .LASF4188
C:\Users\SOLDER~1\AppData\Local\Temp\ccbih9yx.s:25891  .debug_str:000000000001e832 .LASF4189
C:\Users\SOLDER~1\AppData\Local\Temp\ccbih9yx.s:20243  .debug_str:00000000000076f2 .LASF4190
C:\Users\SOLDER~1\AppData\Local\Temp\ccbih9yx.s:20033  .debug_str:0000000000006973 .LASF4191
C:\Users\SOLDER~1\AppData\Local\Temp\ccbih9yx.s:28433  .debug_str:0000000000028e70 .LASF4192
C:\Users\SOLDER~1\AppData\Local\Temp\ccbih9yx.s:18895  .debug_str:0000000000002038 .LASF4193
C:\Users\SOLDER~1\AppData\Local\Temp\ccbih9yx.s:27529  .debug_str:00000000000252b9 .LASF4194
C:\Users\SOLDER~1\AppData\Local\Temp\ccbih9yx.s:21483  .debug_str:000000000000c8c6 .LASF4195
C:\Users\SOLDER~1\AppData\Local\Temp\ccbih9yx.s:25175  .debug_str:000000000001b8db .LASF4196
C:\Users\SOLDER~1\AppData\Local\Temp\ccbih9yx.s:18535  .debug_str:000000000000091e .LASF4197
C:\Users\SOLDER~1\AppData\Local\Temp\ccbih9yx.s:23285  .debug_str:0000000000013ebd .LASF4198
C:\Users\SOLDER~1\AppData\Local\Temp\ccbih9yx.s:23267  .debug_str:0000000000013d8b .LASF4199
C:\Users\SOLDER~1\AppData\Local\Temp\ccbih9yx.s:21011  .debug_str:000000000000a9a7 .LASF4200
C:\Users\SOLDER~1\AppData\Local\Temp\ccbih9yx.s:20819  .debug_str:0000000000009c99 .LASF4201
C:\Users\SOLDER~1\AppData\Local\Temp\ccbih9yx.s:21105  .debug_str:000000000000afb3 .LASF4202
C:\Users\SOLDER~1\AppData\Local\Temp\ccbih9yx.s:22449  .debug_str:00000000000107bf .LASF4203
C:\Users\SOLDER~1\AppData\Local\Temp\ccbih9yx.s:21015  .debug_str:000000000000a9e9 .LASF4204
C:\Users\SOLDER~1\AppData\Local\Temp\ccbih9yx.s:23245  .debug_str:0000000000013bfd .LASF4205
C:\Users\SOLDER~1\AppData\Local\Temp\ccbih9yx.s:24549  .debug_str:00000000000190ef .LASF4206
C:\Users\SOLDER~1\AppData\Local\Temp\ccbih9yx.s:19927  .debug_str:0000000000006238 .LASF4207
C:\Users\SOLDER~1\AppData\Local\Temp\ccbih9yx.s:23125  .debug_str:0000000000013361 .LASF4208
C:\Users\SOLDER~1\AppData\Local\Temp\ccbih9yx.s:20479  .debug_str:000000000000864a .LASF4209
C:\Users\SOLDER~1\AppData\Local\Temp\ccbih9yx.s:28541  .debug_str:00000000000295b6 .LASF4210
C:\Users\SOLDER~1\AppData\Local\Temp\ccbih9yx.s:28539  .debug_str:0000000000029598 .LASF4211
C:\Users\SOLDER~1\AppData\Local\Temp\ccbih9yx.s:18795  .debug_str:00000000000019bb .LASF4212
C:\Users\SOLDER~1\AppData\Local\Temp\ccbih9yx.s:26507  .debug_str:0000000000021084 .LASF4213
C:\Users\SOLDER~1\AppData\Local\Temp\ccbih9yx.s:28093  .debug_str:000000000002789a .LASF4214
C:\Users\SOLDER~1\AppData\Local\Temp\ccbih9yx.s:20445  .debug_str:000000000000842b .LASF4215
C:\Users\SOLDER~1\AppData\Local\Temp\ccbih9yx.s:23669  .debug_str:000000000001584e .LASF4216
C:\Users\SOLDER~1\AppData\Local\Temp\ccbih9yx.s:24095  .debug_str:0000000000017320 .LASF4217
C:\Users\SOLDER~1\AppData\Local\Temp\ccbih9yx.s:18455  .debug_str:0000000000000341 .LASF4218
C:\Users\SOLDER~1\AppData\Local\Temp\ccbih9yx.s:23403  .debug_str:00000000000146d7 .LASF4219
C:\Users\SOLDER~1\AppData\Local\Temp\ccbih9yx.s:28309  .debug_str:00000000000286d7 .LASF4220
GAS LISTING C:\Users\SOLDER~1\AppData\Local\Temp\ccbih9yx.s 			page 85


C:\Users\SOLDER~1\AppData\Local\Temp\ccbih9yx.s:29381  .debug_str:000000000002cbf7 .LASF4221
C:\Users\SOLDER~1\AppData\Local\Temp\ccbih9yx.s:28639  .debug_str:0000000000029bec .LASF4222
C:\Users\SOLDER~1\AppData\Local\Temp\ccbih9yx.s:26129  .debug_str:000000000001f82e .LASF4223
C:\Users\SOLDER~1\AppData\Local\Temp\ccbih9yx.s:28561  .debug_str:00000000000296e7 .LASF4224
C:\Users\SOLDER~1\AppData\Local\Temp\ccbih9yx.s:24415  .debug_str:0000000000018810 .LASF4225
C:\Users\SOLDER~1\AppData\Local\Temp\ccbih9yx.s:22441  .debug_str:0000000000010728 .LASF4226
C:\Users\SOLDER~1\AppData\Local\Temp\ccbih9yx.s:21121  .debug_str:000000000000b086 .LASF4227
C:\Users\SOLDER~1\AppData\Local\Temp\ccbih9yx.s:21193  .debug_str:000000000000b555 .LASF4228
C:\Users\SOLDER~1\AppData\Local\Temp\ccbih9yx.s:23535  .debug_str:0000000000014f72 .LASF4229
C:\Users\SOLDER~1\AppData\Local\Temp\ccbih9yx.s:21067  .debug_str:000000000000ad47 .LASF4230
C:\Users\SOLDER~1\AppData\Local\Temp\ccbih9yx.s:20411  .debug_str:0000000000008201 .LASF4231
C:\Users\SOLDER~1\AppData\Local\Temp\ccbih9yx.s:24895  .debug_str:000000000001a716 .LASF4232
C:\Users\SOLDER~1\AppData\Local\Temp\ccbih9yx.s:22485  .debug_str:0000000000010a17 .LASF4233
C:\Users\SOLDER~1\AppData\Local\Temp\ccbih9yx.s:28943  .debug_str:000000000002afe8 .LASF4234
C:\Users\SOLDER~1\AppData\Local\Temp\ccbih9yx.s:20423  .debug_str:00000000000082cf .LASF4235
C:\Users\SOLDER~1\AppData\Local\Temp\ccbih9yx.s:23043  .debug_str:0000000000012dfe .LASF4236
C:\Users\SOLDER~1\AppData\Local\Temp\ccbih9yx.s:19997  .debug_str:00000000000066ed .LASF4237
C:\Users\SOLDER~1\AppData\Local\Temp\ccbih9yx.s:18501  .debug_str:000000000000064c .LASF4238
C:\Users\SOLDER~1\AppData\Local\Temp\ccbih9yx.s:19165  .debug_str:00000000000031e0 .LASF4239
C:\Users\SOLDER~1\AppData\Local\Temp\ccbih9yx.s:27267  .debug_str:00000000000241ab .LASF4240
C:\Users\SOLDER~1\AppData\Local\Temp\ccbih9yx.s:19135  .debug_str:0000000000002fef .LASF4241
C:\Users\SOLDER~1\AppData\Local\Temp\ccbih9yx.s:26195  .debug_str:000000000001fc2a .LASF4242
C:\Users\SOLDER~1\AppData\Local\Temp\ccbih9yx.s:22031  .debug_str:000000000000ec81 .LASF4243
C:\Users\SOLDER~1\AppData\Local\Temp\ccbih9yx.s:21035  .debug_str:000000000000ab19 .LASF4244
C:\Users\SOLDER~1\AppData\Local\Temp\ccbih9yx.s:26457  .debug_str:0000000000020d1d .LASF4245
C:\Users\SOLDER~1\AppData\Local\Temp\ccbih9yx.s:19073  .debug_str:0000000000002bbd .LASF4246
C:\Users\SOLDER~1\AppData\Local\Temp\ccbih9yx.s:26035  .debug_str:000000000001f1b6 .LASF4247
C:\Users\SOLDER~1\AppData\Local\Temp\ccbih9yx.s:22501  .debug_str:0000000000010b0d .LASF4248
C:\Users\SOLDER~1\AppData\Local\Temp\ccbih9yx.s:18933  .debug_str:00000000000022c5 .LASF4249
C:\Users\SOLDER~1\AppData\Local\Temp\ccbih9yx.s:23639  .debug_str:0000000000015654 .LASF4250
C:\Users\SOLDER~1\AppData\Local\Temp\ccbih9yx.s:26393  .debug_str:0000000000020903 .LASF4251
C:\Users\SOLDER~1\AppData\Local\Temp\ccbih9yx.s:28861  .debug_str:000000000002aa68 .LASF4252
C:\Users\SOLDER~1\AppData\Local\Temp\ccbih9yx.s:24191  .debug_str:0000000000017978 .LASF4253
C:\Users\SOLDER~1\AppData\Local\Temp\ccbih9yx.s:23719  .debug_str:0000000000015b7b .LASF4254
C:\Users\SOLDER~1\AppData\Local\Temp\ccbih9yx.s:21977  .debug_str:000000000000e937 .LASF4255
C:\Users\SOLDER~1\AppData\Local\Temp\ccbih9yx.s:28565  .debug_str:0000000000029723 .LASF4256
C:\Users\SOLDER~1\AppData\Local\Temp\ccbih9yx.s:19391  .debug_str:000000000000400e .LASF4257
C:\Users\SOLDER~1\AppData\Local\Temp\ccbih9yx.s:26453  .debug_str:0000000000020cde .LASF4258
C:\Users\SOLDER~1\AppData\Local\Temp\ccbih9yx.s:19893  .debug_str:0000000000005fd4 .LASF4259
C:\Users\SOLDER~1\AppData\Local\Temp\ccbih9yx.s:22725  .debug_str:0000000000011994 .LASF4260
C:\Users\SOLDER~1\AppData\Local\Temp\ccbih9yx.s:24547  .debug_str:00000000000190d1 .LASF4261
C:\Users\SOLDER~1\AppData\Local\Temp\ccbih9yx.s:27351  .debug_str:0000000000024738 .LASF4262
C:\Users\SOLDER~1\AppData\Local\Temp\ccbih9yx.s:26619  .debug_str:00000000000217b6 .LASF4263
C:\Users\SOLDER~1\AppData\Local\Temp\ccbih9yx.s:27795  .debug_str:00000000000264ff .LASF4264
C:\Users\SOLDER~1\AppData\Local\Temp\ccbih9yx.s:28091  .debug_str:000000000002787f .LASF4265
C:\Users\SOLDER~1\AppData\Local\Temp\ccbih9yx.s:28899  .debug_str:000000000002acd5 .LASF4266
C:\Users\SOLDER~1\AppData\Local\Temp\ccbih9yx.s:28379  .debug_str:0000000000028b1b .LASF4267
C:\Users\SOLDER~1\AppData\Local\Temp\ccbih9yx.s:25619  .debug_str:000000000001d6ac .LASF4268
C:\Users\SOLDER~1\AppData\Local\Temp\ccbih9yx.s:18641  .debug_str:0000000000000ffd .LASF4269
C:\Users\SOLDER~1\AppData\Local\Temp\ccbih9yx.s:26529  .debug_str:00000000000211f9 .LASF4270
C:\Users\SOLDER~1\AppData\Local\Temp\ccbih9yx.s:20399  .debug_str:000000000000814b .LASF4271
C:\Users\SOLDER~1\AppData\Local\Temp\ccbih9yx.s:19643  .debug_str:0000000000004fdb .LASF4272
C:\Users\SOLDER~1\AppData\Local\Temp\ccbih9yx.s:27973  .debug_str:00000000000270e5 .LASF4273
C:\Users\SOLDER~1\AppData\Local\Temp\ccbih9yx.s:18509  .debug_str:000000000000075a .LASF4274
C:\Users\SOLDER~1\AppData\Local\Temp\ccbih9yx.s:27575  .debug_str:00000000000255af .LASF4275
C:\Users\SOLDER~1\AppData\Local\Temp\ccbih9yx.s:19439  .debug_str:0000000000004317 .LASF4276
C:\Users\SOLDER~1\AppData\Local\Temp\ccbih9yx.s:21699  .debug_str:000000000000d6fc .LASF4277
GAS LISTING C:\Users\SOLDER~1\AppData\Local\Temp\ccbih9yx.s 			page 86


C:\Users\SOLDER~1\AppData\Local\Temp\ccbih9yx.s:20441  .debug_str:00000000000083ea .LASF4278
C:\Users\SOLDER~1\AppData\Local\Temp\ccbih9yx.s:29151  .debug_str:000000000002bd24 .LASF4279
C:\Users\SOLDER~1\AppData\Local\Temp\ccbih9yx.s:22543  .debug_str:0000000000010db3 .LASF4280
C:\Users\SOLDER~1\AppData\Local\Temp\ccbih9yx.s:18465  .debug_str:00000000000003f3 .LASF4281
C:\Users\SOLDER~1\AppData\Local\Temp\ccbih9yx.s:20719  .debug_str:0000000000009624 .LASF4282
C:\Users\SOLDER~1\AppData\Local\Temp\ccbih9yx.s:23405  .debug_str:00000000000146ea .LASF4283
C:\Users\SOLDER~1\AppData\Local\Temp\ccbih9yx.s:20191  .debug_str:00000000000073ce .LASF4284
C:\Users\SOLDER~1\AppData\Local\Temp\ccbih9yx.s:21413  .debug_str:000000000000c3eb .LASF4285
C:\Users\SOLDER~1\AppData\Local\Temp\ccbih9yx.s:24379  .debug_str:00000000000185d6 .LASF4286
C:\Users\SOLDER~1\AppData\Local\Temp\ccbih9yx.s:23315  .debug_str:00000000000140a9 .LASF4287
C:\Users\SOLDER~1\AppData\Local\Temp\ccbih9yx.s:26719  .debug_str:0000000000021e0d .LASF4288
C:\Users\SOLDER~1\AppData\Local\Temp\ccbih9yx.s:25809  .debug_str:000000000001e2c7 .LASF4289
C:\Users\SOLDER~1\AppData\Local\Temp\ccbih9yx.s:22547  .debug_str:0000000000010dfa .LASF4290
C:\Users\SOLDER~1\AppData\Local\Temp\ccbih9yx.s:23603  .debug_str:00000000000153ec .LASF4291
C:\Users\SOLDER~1\AppData\Local\Temp\ccbih9yx.s:18695  .debug_str:0000000000001376 .LASF4292
C:\Users\SOLDER~1\AppData\Local\Temp\ccbih9yx.s:24675  .debug_str:000000000001990f .LASF4293
C:\Users\SOLDER~1\AppData\Local\Temp\ccbih9yx.s:25267  .debug_str:000000000001bef2 .LASF4294
C:\Users\SOLDER~1\AppData\Local\Temp\ccbih9yx.s:26443  .debug_str:0000000000020c22 .LASF4295
C:\Users\SOLDER~1\AppData\Local\Temp\ccbih9yx.s:27957  .debug_str:0000000000026fd4 .LASF4296
C:\Users\SOLDER~1\AppData\Local\Temp\ccbih9yx.s:21999  .debug_str:000000000000ea54 .LASF4297
C:\Users\SOLDER~1\AppData\Local\Temp\ccbih9yx.s:23141  .debug_str:0000000000013479 .LASF4298
C:\Users\SOLDER~1\AppData\Local\Temp\ccbih9yx.s:19705  .debug_str:00000000000053b0 .LASF4299
C:\Users\SOLDER~1\AppData\Local\Temp\ccbih9yx.s:21771  .debug_str:000000000000db84 .LASF4300
C:\Users\SOLDER~1\AppData\Local\Temp\ccbih9yx.s:20527  .debug_str:000000000000896c .LASF4301
C:\Users\SOLDER~1\AppData\Local\Temp\ccbih9yx.s:24297  .debug_str:000000000001809e .LASF4302
C:\Users\SOLDER~1\AppData\Local\Temp\ccbih9yx.s:29609  .debug_str:000000000002dac6 .LASF4303
C:\Users\SOLDER~1\AppData\Local\Temp\ccbih9yx.s:18913  .debug_str:000000000000216d .LASF4304
C:\Users\SOLDER~1\AppData\Local\Temp\ccbih9yx.s:23715  .debug_str:0000000000015b29 .LASF4305
C:\Users\SOLDER~1\AppData\Local\Temp\ccbih9yx.s:27761  .debug_str:00000000000262e2 .LASF4306
C:\Users\SOLDER~1\AppData\Local\Temp\ccbih9yx.s:27467  .debug_str:0000000000024ec8 .LASF4307
C:\Users\SOLDER~1\AppData\Local\Temp\ccbih9yx.s:25975  .debug_str:000000000001eda5 .LASF4308
C:\Users\SOLDER~1\AppData\Local\Temp\ccbih9yx.s:29727  .debug_str:000000000002e232 .LASF4309
C:\Users\SOLDER~1\AppData\Local\Temp\ccbih9yx.s:21301  .debug_str:000000000000bc5b .LASF4310
C:\Users\SOLDER~1\AppData\Local\Temp\ccbih9yx.s:22307  .debug_str:000000000000fed7 .LASF4311
C:\Users\SOLDER~1\AppData\Local\Temp\ccbih9yx.s:25065  .debug_str:000000000001b206 .LASF4312
C:\Users\SOLDER~1\AppData\Local\Temp\ccbih9yx.s:25161  .debug_str:000000000001b800 .LASF4313
C:\Users\SOLDER~1\AppData\Local\Temp\ccbih9yx.s:18767  .debug_str:000000000000180f .LASF4314
C:\Users\SOLDER~1\AppData\Local\Temp\ccbih9yx.s:23881  .debug_str:00000000000165af .LASF4315
C:\Users\SOLDER~1\AppData\Local\Temp\ccbih9yx.s:23503  .debug_str:0000000000014d82 .LASF4316
C:\Users\SOLDER~1\AppData\Local\Temp\ccbih9yx.s:20307  .debug_str:0000000000007b00 .LASF4317
C:\Users\SOLDER~1\AppData\Local\Temp\ccbih9yx.s:23769  .debug_str:0000000000015ea1 .LASF4318
C:\Users\SOLDER~1\AppData\Local\Temp\ccbih9yx.s:29423  .debug_str:000000000002cedd .LASF4319
C:\Users\SOLDER~1\AppData\Local\Temp\ccbih9yx.s:29099  .debug_str:000000000002b9b0 .LASF4320
C:\Users\SOLDER~1\AppData\Local\Temp\ccbih9yx.s:28171  .debug_str:0000000000027dc1 .LASF4321
C:\Users\SOLDER~1\AppData\Local\Temp\ccbih9yx.s:26677  .debug_str:0000000000021b6f .LASF4322
C:\Users\SOLDER~1\AppData\Local\Temp\ccbih9yx.s:29313  .debug_str:000000000002c7a9 .LASF4323
C:\Users\SOLDER~1\AppData\Local\Temp\ccbih9yx.s:18861  .debug_str:0000000000001e15 .LASF4324
C:\Users\SOLDER~1\AppData\Local\Temp\ccbih9yx.s:29691  .debug_str:000000000002e006 .LASF4325
C:\Users\SOLDER~1\AppData\Local\Temp\ccbih9yx.s:22645  .debug_str:000000000001144c .LASF4326
C:\Users\SOLDER~1\AppData\Local\Temp\ccbih9yx.s:20353  .debug_str:0000000000007e1f .LASF4327
C:\Users\SOLDER~1\AppData\Local\Temp\ccbih9yx.s:29589  .debug_str:000000000002d988 .LASF4328
C:\Users\SOLDER~1\AppData\Local\Temp\ccbih9yx.s:26881  .debug_str:0000000000022848 .LASF4329
C:\Users\SOLDER~1\AppData\Local\Temp\ccbih9yx.s:26101  .debug_str:000000000001f64e .LASF4330
C:\Users\SOLDER~1\AppData\Local\Temp\ccbih9yx.s:19051  .debug_str:0000000000002a90 .LASF4331
C:\Users\SOLDER~1\AppData\Local\Temp\ccbih9yx.s:23089  .debug_str:00000000000130d8 .LASF4332
C:\Users\SOLDER~1\AppData\Local\Temp\ccbih9yx.s:26111  .debug_str:000000000001f6e7 .LASF4333
C:\Users\SOLDER~1\AppData\Local\Temp\ccbih9yx.s:22891  .debug_str:00000000000123db .LASF4334
GAS LISTING C:\Users\SOLDER~1\AppData\Local\Temp\ccbih9yx.s 			page 87


C:\Users\SOLDER~1\AppData\Local\Temp\ccbih9yx.s:25437  .debug_str:000000000001ca8e .LASF4335
C:\Users\SOLDER~1\AppData\Local\Temp\ccbih9yx.s:24997  .debug_str:000000000001adec .LASF4336
C:\Users\SOLDER~1\AppData\Local\Temp\ccbih9yx.s:19957  .debug_str:0000000000006436 .LASF4337
C:\Users\SOLDER~1\AppData\Local\Temp\ccbih9yx.s:25805  .debug_str:000000000001e28a .LASF4338
C:\Users\SOLDER~1\AppData\Local\Temp\ccbih9yx.s:24685  .debug_str:00000000000199bc .LASF4339
C:\Users\SOLDER~1\AppData\Local\Temp\ccbih9yx.s:25373  .debug_str:000000000001c640 .LASF4340
C:\Users\SOLDER~1\AppData\Local\Temp\ccbih9yx.s:24181  .debug_str:00000000000178cb .LASF4341
C:\Users\SOLDER~1\AppData\Local\Temp\ccbih9yx.s:25615  .debug_str:000000000001d66c .LASF4342
C:\Users\SOLDER~1\AppData\Local\Temp\ccbih9yx.s:23995  .debug_str:0000000000016c8d .LASF4343
C:\Users\SOLDER~1\AppData\Local\Temp\ccbih9yx.s:24087  .debug_str:00000000000172ae .LASF4344
C:\Users\SOLDER~1\AppData\Local\Temp\ccbih9yx.s:27365  .debug_str:000000000002482c .LASF4345
C:\Users\SOLDER~1\AppData\Local\Temp\ccbih9yx.s:22921  .debug_str:0000000000012606 .LASF4346
C:\Users\SOLDER~1\AppData\Local\Temp\ccbih9yx.s:19157  .debug_str:000000000000314f .LASF4347
C:\Users\SOLDER~1\AppData\Local\Temp\ccbih9yx.s:27271  .debug_str:00000000000241ec .LASF4348
C:\Users\SOLDER~1\AppData\Local\Temp\ccbih9yx.s:29053  .debug_str:000000000002b6e7 .LASF4349
C:\Users\SOLDER~1\AppData\Local\Temp\ccbih9yx.s:26919  .debug_str:0000000000022af1 .LASF4350
C:\Users\SOLDER~1\AppData\Local\Temp\ccbih9yx.s:22051  .debug_str:000000000000edd4 .LASF4351
C:\Users\SOLDER~1\AppData\Local\Temp\ccbih9yx.s:23835  .debug_str:00000000000162db .LASF4352
C:\Users\SOLDER~1\AppData\Local\Temp\ccbih9yx.s:19101  .debug_str:0000000000002d95 .LASF4353
C:\Users\SOLDER~1\AppData\Local\Temp\ccbih9yx.s:24703  .debug_str:0000000000019af5 .LASF4354
C:\Users\SOLDER~1\AppData\Local\Temp\ccbih9yx.s:23087  .debug_str:00000000000130b2 .LASF4355
C:\Users\SOLDER~1\AppData\Local\Temp\ccbih9yx.s:25075  .debug_str:000000000001b2ad .LASF4356
C:\Users\SOLDER~1\AppData\Local\Temp\ccbih9yx.s:27027  .debug_str:00000000000231fa .LASF4357
C:\Users\SOLDER~1\AppData\Local\Temp\ccbih9yx.s:21779  .debug_str:000000000000dbf9 .LASF4358
C:\Users\SOLDER~1\AppData\Local\Temp\ccbih9yx.s:22157  .debug_str:000000000000f488 .LASF4359
C:\Users\SOLDER~1\AppData\Local\Temp\ccbih9yx.s:29015  .debug_str:000000000002b47d .LASF4360
C:\Users\SOLDER~1\AppData\Local\Temp\ccbih9yx.s:19183  .debug_str:00000000000032f0 .LASF4361
C:\Users\SOLDER~1\AppData\Local\Temp\ccbih9yx.s:20709  .debug_str:0000000000009598 .LASF4362
C:\Users\SOLDER~1\AppData\Local\Temp\ccbih9yx.s:19463  .debug_str:000000000000448d .LASF4363
C:\Users\SOLDER~1\AppData\Local\Temp\ccbih9yx.s:21305  .debug_str:000000000000bc9c .LASF4364
C:\Users\SOLDER~1\AppData\Local\Temp\ccbih9yx.s:28967  .debug_str:000000000002b18d .LASF4365
C:\Users\SOLDER~1\AppData\Local\Temp\ccbih9yx.s:24121  .debug_str:00000000000174ef .LASF4366
C:\Users\SOLDER~1\AppData\Local\Temp\ccbih9yx.s:29747  .debug_str:000000000002e37d .LASF4367
C:\Users\SOLDER~1\AppData\Local\Temp\ccbih9yx.s:21407  .debug_str:000000000000c382 .LASF4368
C:\Users\SOLDER~1\AppData\Local\Temp\ccbih9yx.s:26713  .debug_str:0000000000021da3 .LASF4369
C:\Users\SOLDER~1\AppData\Local\Temp\ccbih9yx.s:27949  .debug_str:0000000000026f5d .LASF4370
C:\Users\SOLDER~1\AppData\Local\Temp\ccbih9yx.s:20447  .debug_str:000000000000843d .LASF4371
C:\Users\SOLDER~1\AppData\Local\Temp\ccbih9yx.s:29483  .debug_str:000000000002d2ee .LASF4372
C:\Users\SOLDER~1\AppData\Local\Temp\ccbih9yx.s:23459  .debug_str:0000000000014a97 .LASF4373
C:\Users\SOLDER~1\AppData\Local\Temp\ccbih9yx.s:21749  .debug_str:000000000000d9f8 .LASF4374
C:\Users\SOLDER~1\AppData\Local\Temp\ccbih9yx.s:24557  .debug_str:000000000001916c .LASF4375
C:\Users\SOLDER~1\AppData\Local\Temp\ccbih9yx.s:23437  .debug_str:0000000000014938 .LASF4376
C:\Users\SOLDER~1\AppData\Local\Temp\ccbih9yx.s:24829  .debug_str:000000000001a2ad .LASF4377
C:\Users\SOLDER~1\AppData\Local\Temp\ccbih9yx.s:21633  .debug_str:000000000000d296 .LASF4378
C:\Users\SOLDER~1\AppData\Local\Temp\ccbih9yx.s:25593  .debug_str:000000000001d523 .LASF4379
C:\Users\SOLDER~1\AppData\Local\Temp\ccbih9yx.s:27389  .debug_str:00000000000249a1 .LASF4380
C:\Users\SOLDER~1\AppData\Local\Temp\ccbih9yx.s:20597  .debug_str:0000000000008e1d .LASF4381
C:\Users\SOLDER~1\AppData\Local\Temp\ccbih9yx.s:20975  .debug_str:000000000000a736 .LASF4382
C:\Users\SOLDER~1\AppData\Local\Temp\ccbih9yx.s:21529  .debug_str:000000000000cbbe .LASF4383
C:\Users\SOLDER~1\AppData\Local\Temp\ccbih9yx.s:28523  .debug_str:0000000000029483 .LASF4384
C:\Users\SOLDER~1\AppData\Local\Temp\ccbih9yx.s:25089  .debug_str:000000000001b391 .LASF4385
C:\Users\SOLDER~1\AppData\Local\Temp\ccbih9yx.s:21701  .debug_str:000000000000d719 .LASF4386
C:\Users\SOLDER~1\AppData\Local\Temp\ccbih9yx.s:18563  .debug_str:0000000000000af1 .LASF4387
C:\Users\SOLDER~1\AppData\Local\Temp\ccbih9yx.s:20565  .debug_str:0000000000008bc7 .LASF4388
C:\Users\SOLDER~1\AppData\Local\Temp\ccbih9yx.s:23337  .debug_str:0000000000014267 .LASF4389
C:\Users\SOLDER~1\AppData\Local\Temp\ccbih9yx.s:19483  .debug_str:00000000000045d0 .LASF4390
C:\Users\SOLDER~1\AppData\Local\Temp\ccbih9yx.s:19539  .debug_str:0000000000004978 .LASF4391
GAS LISTING C:\Users\SOLDER~1\AppData\Local\Temp\ccbih9yx.s 			page 88


C:\Users\SOLDER~1\AppData\Local\Temp\ccbih9yx.s:29507  .debug_str:000000000002d44b .LASF4392
C:\Users\SOLDER~1\AppData\Local\Temp\ccbih9yx.s:24427  .debug_str:00000000000188ca .LASF4393
C:\Users\SOLDER~1\AppData\Local\Temp\ccbih9yx.s:29629  .debug_str:000000000002dc30 .LASF4394
C:\Users\SOLDER~1\AppData\Local\Temp\ccbih9yx.s:23873  .debug_str:000000000001652b .LASF4395
C:\Users\SOLDER~1\AppData\Local\Temp\ccbih9yx.s:21615  .debug_str:000000000000d164 .LASF4396
C:\Users\SOLDER~1\AppData\Local\Temp\ccbih9yx.s:21199  .debug_str:000000000000b5a5 .LASF4397
C:\Users\SOLDER~1\AppData\Local\Temp\ccbih9yx.s:28271  .debug_str:0000000000028442 .LASF4398
C:\Users\SOLDER~1\AppData\Local\Temp\ccbih9yx.s:19657  .debug_str:00000000000050a9 .LASF4399
C:\Users\SOLDER~1\AppData\Local\Temp\ccbih9yx.s:23249  .debug_str:0000000000013c3f .LASF4400
C:\Users\SOLDER~1\AppData\Local\Temp\ccbih9yx.s:24721  .debug_str:0000000000019c11 .LASF4401
C:\Users\SOLDER~1\AppData\Local\Temp\ccbih9yx.s:24645  .debug_str:000000000001974b .LASF4402
C:\Users\SOLDER~1\AppData\Local\Temp\ccbih9yx.s:25503  .debug_str:000000000001cf08 .LASF4403
C:\Users\SOLDER~1\AppData\Local\Temp\ccbih9yx.s:23305  .debug_str:0000000000013ffa .LASF4404
C:\Users\SOLDER~1\AppData\Local\Temp\ccbih9yx.s:26751  .debug_str:0000000000022001 .LASF4405
C:\Users\SOLDER~1\AppData\Local\Temp\ccbih9yx.s:27581  .debug_str:0000000000025611 .LASF4406
C:\Users\SOLDER~1\AppData\Local\Temp\ccbih9yx.s:22425  .debug_str:0000000000010615 .LASF4407
C:\Users\SOLDER~1\AppData\Local\Temp\ccbih9yx.s:23907  .debug_str:0000000000016718 .LASF4408
C:\Users\SOLDER~1\AppData\Local\Temp\ccbih9yx.s:26611  .debug_str:0000000000021725 .LASF4409
C:\Users\SOLDER~1\AppData\Local\Temp\ccbih9yx.s:24241  .debug_str:0000000000017cab .LASF4410
C:\Users\SOLDER~1\AppData\Local\Temp\ccbih9yx.s:27335  .debug_str:000000000002462f .LASF4411
C:\Users\SOLDER~1\AppData\Local\Temp\ccbih9yx.s:27171  .debug_str:0000000000023b52 .LASF4412
C:\Users\SOLDER~1\AppData\Local\Temp\ccbih9yx.s:27699  .debug_str:0000000000025e74 .LASF4413
C:\Users\SOLDER~1\AppData\Local\Temp\ccbih9yx.s:22419  .debug_str:00000000000105c0 .LASF4414
C:\Users\SOLDER~1\AppData\Local\Temp\ccbih9yx.s:22467  .debug_str:0000000000010905 .LASF4415
C:\Users\SOLDER~1\AppData\Local\Temp\ccbih9yx.s:18989  .debug_str:0000000000002663 .LASF4416
C:\Users\SOLDER~1\AppData\Local\Temp\ccbih9yx.s:24029  .debug_str:0000000000016eb3 .LASF4417
C:\Users\SOLDER~1\AppData\Local\Temp\ccbih9yx.s:19359  .debug_str:0000000000003e55 .LASF4418
C:\Users\SOLDER~1\AppData\Local\Temp\ccbih9yx.s:18993  .debug_str:00000000000026aa .LASF4419
C:\Users\SOLDER~1\AppData\Local\Temp\ccbih9yx.s:20911  .debug_str:000000000000a2ba .LASF4420
C:\Users\SOLDER~1\AppData\Local\Temp\ccbih9yx.s:25523  .debug_str:000000000001d031 .LASF4421
C:\Users\SOLDER~1\AppData\Local\Temp\ccbih9yx.s:24663  .debug_str:0000000000019851 .LASF4422
C:\Users\SOLDER~1\AppData\Local\Temp\ccbih9yx.s:22799  .debug_str:0000000000011e30 .LASF4423
C:\Users\SOLDER~1\AppData\Local\Temp\ccbih9yx.s:25677  .debug_str:000000000001da16 .LASF4424
C:\Users\SOLDER~1\AppData\Local\Temp\ccbih9yx.s:19875  .debug_str:0000000000005e93 .LASF4425
C:\Users\SOLDER~1\AppData\Local\Temp\ccbih9yx.s:23425  .debug_str:0000000000014840 .LASF4426
C:\Users\SOLDER~1\AppData\Local\Temp\ccbih9yx.s:26383  .debug_str:000000000002085d .LASF4427
C:\Users\SOLDER~1\AppData\Local\Temp\ccbih9yx.s:29823  .debug_str:000000000002e898 .LASF4428
C:\Users\SOLDER~1\AppData\Local\Temp\ccbih9yx.s:24919  .debug_str:000000000001a8a5 .LASF4429
C:\Users\SOLDER~1\AppData\Local\Temp\ccbih9yx.s:29551  .debug_str:000000000002d742 .LASF4430
C:\Users\SOLDER~1\AppData\Local\Temp\ccbih9yx.s:28575  .debug_str:00000000000297c4 .LASF4431
C:\Users\SOLDER~1\AppData\Local\Temp\ccbih9yx.s:24669  .debug_str:00000000000198bc .LASF4432
C:\Users\SOLDER~1\AppData\Local\Temp\ccbih9yx.s:24929  .debug_str:000000000001a93e .LASF4433
C:\Users\SOLDER~1\AppData\Local\Temp\ccbih9yx.s:22657  .debug_str:0000000000011535 .LASF4434
C:\Users\SOLDER~1\AppData\Local\Temp\ccbih9yx.s:29369  .debug_str:000000000002cb30 .LASF4435
C:\Users\SOLDER~1\AppData\Local\Temp\ccbih9yx.s:24639  .debug_str:00000000000196fc .LASF4436
C:\Users\SOLDER~1\AppData\Local\Temp\ccbih9yx.s:28247  .debug_str:00000000000282c0 .LASF4437
C:\Users\SOLDER~1\AppData\Local\Temp\ccbih9yx.s:26917  .debug_str:0000000000022add .LASF4438
C:\Users\SOLDER~1\AppData\Local\Temp\ccbih9yx.s:22189  .debug_str:000000000000f696 .LASF4439
C:\Users\SOLDER~1\AppData\Local\Temp\ccbih9yx.s:27537  .debug_str:000000000002533d .LASF4440
C:\Users\SOLDER~1\AppData\Local\Temp\ccbih9yx.s:23977  .debug_str:0000000000016ba6 .LASF4441
C:\Users\SOLDER~1\AppData\Local\Temp\ccbih9yx.s:28327  .debug_str:0000000000028822 .LASF4442
C:\Users\SOLDER~1\AppData\Local\Temp\ccbih9yx.s:23883  .debug_str:00000000000165d1 .LASF4443
C:\Users\SOLDER~1\AppData\Local\Temp\ccbih9yx.s:21317  .debug_str:000000000000bd56 .LASF4444
C:\Users\SOLDER~1\AppData\Local\Temp\ccbih9yx.s:23673  .debug_str:0000000000015893 .LASF4445
C:\Users\SOLDER~1\AppData\Local\Temp\ccbih9yx.s:24429  .debug_str:00000000000188ea .LASF4446
C:\Users\SOLDER~1\AppData\Local\Temp\ccbih9yx.s:21507  .debug_str:000000000000ca70 .LASF4447
C:\Users\SOLDER~1\AppData\Local\Temp\ccbih9yx.s:25247  .debug_str:000000000001bda4 .LASF4448
GAS LISTING C:\Users\SOLDER~1\AppData\Local\Temp\ccbih9yx.s 			page 89


C:\Users\SOLDER~1\AppData\Local\Temp\ccbih9yx.s:26741  .debug_str:0000000000021f65 .LASF4449
C:\Users\SOLDER~1\AppData\Local\Temp\ccbih9yx.s:28427  .debug_str:0000000000028e25 .LASF4450
C:\Users\SOLDER~1\AppData\Local\Temp\ccbih9yx.s:26485  .debug_str:0000000000020ee3 .LASF4451
C:\Users\SOLDER~1\AppData\Local\Temp\ccbih9yx.s:25023  .debug_str:000000000001af8a .LASF4452
C:\Users\SOLDER~1\AppData\Local\Temp\ccbih9yx.s:23183  .debug_str:0000000000013747 .LASF4453
C:\Users\SOLDER~1\AppData\Local\Temp\ccbih9yx.s:25487  .debug_str:000000000001ce0a .LASF4454
C:\Users\SOLDER~1\AppData\Local\Temp\ccbih9yx.s:22827  .debug_str:0000000000011fff .LASF4455
C:\Users\SOLDER~1\AppData\Local\Temp\ccbih9yx.s:27867  .debug_str:00000000000269fb .LASF4456
C:\Users\SOLDER~1\AppData\Local\Temp\ccbih9yx.s:22287  .debug_str:000000000000fd9a .LASF4457
C:\Users\SOLDER~1\AppData\Local\Temp\ccbih9yx.s:28683  .debug_str:0000000000029edd .LASF4458
C:\Users\SOLDER~1\AppData\Local\Temp\ccbih9yx.s:27571  .debug_str:0000000000025572 .LASF4459
C:\Users\SOLDER~1\AppData\Local\Temp\ccbih9yx.s:28609  .debug_str:00000000000299e3 .LASF4460
C:\Users\SOLDER~1\AppData\Local\Temp\ccbih9yx.s:22719  .debug_str:000000000001193e .LASF4461
C:\Users\SOLDER~1\AppData\Local\Temp\ccbih9yx.s:24037  .debug_str:0000000000016f46 .LASF4462
C:\Users\SOLDER~1\AppData\Local\Temp\ccbih9yx.s:24853  .debug_str:000000000001a464 .LASF4463
C:\Users\SOLDER~1\AppData\Local\Temp\ccbih9yx.s:27159  .debug_str:0000000000023a81 .LASF4464
C:\Users\SOLDER~1\AppData\Local\Temp\ccbih9yx.s:25219  .debug_str:000000000001bbbc .LASF4465
C:\Users\SOLDER~1\AppData\Local\Temp\ccbih9yx.s:24827  .debug_str:000000000001a296 .LASF4466
C:\Users\SOLDER~1\AppData\Local\Temp\ccbih9yx.s:24529  .debug_str:0000000000018fc3 .LASF4467
C:\Users\SOLDER~1\AppData\Local\Temp\ccbih9yx.s:25397  .debug_str:000000000001c7d0 .LASF4468
C:\Users\SOLDER~1\AppData\Local\Temp\ccbih9yx.s:23955  .debug_str:0000000000016a40 .LASF4469
C:\Users\SOLDER~1\AppData\Local\Temp\ccbih9yx.s:28329  .debug_str:0000000000028833 .LASF4470
C:\Users\SOLDER~1\AppData\Local\Temp\ccbih9yx.s:29087  .debug_str:000000000002b90d .LASF4471
C:\Users\SOLDER~1\AppData\Local\Temp\ccbih9yx.s:19595  .debug_str:0000000000004d02 .LASF4472
C:\Users\SOLDER~1\AppData\Local\Temp\ccbih9yx.s:29481  .debug_str:000000000002d2d7 .LASF4473
C:\Users\SOLDER~1\AppData\Local\Temp\ccbih9yx.s:22355  .debug_str:00000000000101be .LASF4474
C:\Users\SOLDER~1\AppData\Local\Temp\ccbih9yx.s:28769  .debug_str:000000000002a488 .LASF4475
C:\Users\SOLDER~1\AppData\Local\Temp\ccbih9yx.s:24117  .debug_str:00000000000174b4 .LASF4476
C:\Users\SOLDER~1\AppData\Local\Temp\ccbih9yx.s:25687  .debug_str:000000000001dab6 .LASF4477
C:\Users\SOLDER~1\AppData\Local\Temp\ccbih9yx.s:27977  .debug_str:000000000002711f .LASF4478
C:\Users\SOLDER~1\AppData\Local\Temp\ccbih9yx.s:26697  .debug_str:0000000000021cc0 .LASF4479
C:\Users\SOLDER~1\AppData\Local\Temp\ccbih9yx.s:26627  .debug_str:0000000000021829 .LASF4480
C:\Users\SOLDER~1\AppData\Local\Temp\ccbih9yx.s:22677  .debug_str:0000000000011666 .LASF4481
C:\Users\SOLDER~1\AppData\Local\Temp\ccbih9yx.s:29647  .debug_str:000000000002dd68 .LASF4482
C:\Users\SOLDER~1\AppData\Local\Temp\ccbih9yx.s:20931  .debug_str:000000000000a3fa .LASF4483
C:\Users\SOLDER~1\AppData\Local\Temp\ccbih9yx.s:28669  .debug_str:0000000000029de6 .LASF4484
C:\Users\SOLDER~1\AppData\Local\Temp\ccbih9yx.s:20077  .debug_str:0000000000006c12 .LASF4485
C:\Users\SOLDER~1\AppData\Local\Temp\ccbih9yx.s:25139  .debug_str:000000000001b6bf .LASF4486
C:\Users\SOLDER~1\AppData\Local\Temp\ccbih9yx.s:29429  .debug_str:000000000002cf53 .LASF4487
C:\Users\SOLDER~1\AppData\Local\Temp\ccbih9yx.s:28991  .debug_str:000000000002b2f7 .LASF4488
C:\Users\SOLDER~1\AppData\Local\Temp\ccbih9yx.s:25037  .debug_str:000000000001b041 .LASF4489
C:\Users\SOLDER~1\AppData\Local\Temp\ccbih9yx.s:23173  .debug_str:00000000000136b7 .LASF4490
C:\Users\SOLDER~1\AppData\Local\Temp\ccbih9yx.s:23749  .debug_str:0000000000015d62 .LASF4491
C:\Users\SOLDER~1\AppData\Local\Temp\ccbih9yx.s:22933  .debug_str:00000000000126be .LASF4492
C:\Users\SOLDER~1\AppData\Local\Temp\ccbih9yx.s:28843  .debug_str:000000000002a91a .LASF4493
C:\Users\SOLDER~1\AppData\Local\Temp\ccbih9yx.s:24049  .debug_str:0000000000017002 .LASF4494
C:\Users\SOLDER~1\AppData\Local\Temp\ccbih9yx.s:27597  .debug_str:000000000002572b .LASF4495
C:\Users\SOLDER~1\AppData\Local\Temp\ccbih9yx.s:24179  .debug_str:0000000000017892 .LASF4496
C:\Users\SOLDER~1\AppData\Local\Temp\ccbih9yx.s:26355  .debug_str:0000000000020682 .LASF4497
C:\Users\SOLDER~1\AppData\Local\Temp\ccbih9yx.s:29511  .debug_str:000000000002d47a .LASF4498
C:\Users\SOLDER~1\AppData\Local\Temp\ccbih9yx.s:23449  .debug_str:00000000000149ef .LASF4499
C:\Users\SOLDER~1\AppData\Local\Temp\ccbih9yx.s:24583  .debug_str:000000000001932b .LASF4500
C:\Users\SOLDER~1\AppData\Local\Temp\ccbih9yx.s:25761  .debug_str:000000000001dfb2 .LASF4501
C:\Users\SOLDER~1\AppData\Local\Temp\ccbih9yx.s:26845  .debug_str:00000000000225e2 .LASF4502
C:\Users\SOLDER~1\AppData\Local\Temp\ccbih9yx.s:25293  .debug_str:000000000001c0a2 .LASF4503
C:\Users\SOLDER~1\AppData\Local\Temp\ccbih9yx.s:28073  .debug_str:0000000000027752 .LASF4504
C:\Users\SOLDER~1\AppData\Local\Temp\ccbih9yx.s:26887  .debug_str:00000000000228ad .LASF4505
GAS LISTING C:\Users\SOLDER~1\AppData\Local\Temp\ccbih9yx.s 			page 90


C:\Users\SOLDER~1\AppData\Local\Temp\ccbih9yx.s:18821  .debug_str:0000000000001b69 .LASF4506
C:\Users\SOLDER~1\AppData\Local\Temp\ccbih9yx.s:27629  .debug_str:0000000000025976 .LASF4507
C:\Users\SOLDER~1\AppData\Local\Temp\ccbih9yx.s:19985  .debug_str:00000000000065fb .LASF4508
C:\Users\SOLDER~1\AppData\Local\Temp\ccbih9yx.s:22635  .debug_str:000000000001137f .LASF4509
C:\Users\SOLDER~1\AppData\Local\Temp\ccbih9yx.s:25105  .debug_str:000000000001b4af .LASF4510
C:\Users\SOLDER~1\AppData\Local\Temp\ccbih9yx.s:19351  .debug_str:0000000000003dc4 .LASF4511
C:\Users\SOLDER~1\AppData\Local\Temp\ccbih9yx.s:26623  .debug_str:00000000000217f2 .LASF4512
C:\Users\SOLDER~1\AppData\Local\Temp\ccbih9yx.s:26705  .debug_str:0000000000021d31 .LASF4513
C:\Users\SOLDER~1\AppData\Local\Temp\ccbih9yx.s:26209  .debug_str:000000000001fcf4 .LASF4514
C:\Users\SOLDER~1\AppData\Local\Temp\ccbih9yx.s:20793  .debug_str:0000000000009aed .LASF4515
C:\Users\SOLDER~1\AppData\Local\Temp\ccbih9yx.s:23609  .debug_str:000000000001545c .LASF4516
C:\Users\SOLDER~1\AppData\Local\Temp\ccbih9yx.s:26063  .debug_str:000000000001f38c .LASF4517
C:\Users\SOLDER~1\AppData\Local\Temp\ccbih9yx.s:29871  .debug_str:000000000002eb7f .LASF4518
C:\Users\SOLDER~1\AppData\Local\Temp\ccbih9yx.s:25813  .debug_str:000000000001e302 .LASF4519
C:\Users\SOLDER~1\AppData\Local\Temp\ccbih9yx.s:18687  .debug_str:00000000000012d8 .LASF4520
C:\Users\SOLDER~1\AppData\Local\Temp\ccbih9yx.s:22391  .debug_str:0000000000010443 .LASF4521
C:\Users\SOLDER~1\AppData\Local\Temp\ccbih9yx.s:21503  .debug_str:000000000000ca34 .LASF4522
C:\Users\SOLDER~1\AppData\Local\Temp\ccbih9yx.s:27509  .debug_str:000000000002515a .LASF4523
C:\Users\SOLDER~1\AppData\Local\Temp\ccbih9yx.s:21691  .debug_str:000000000000d679 .LASF4524
C:\Users\SOLDER~1\AppData\Local\Temp\ccbih9yx.s:29063  .debug_str:000000000002b783 .LASF4525
C:\Users\SOLDER~1\AppData\Local\Temp\ccbih9yx.s:24511  .debug_str:0000000000018e8c .LASF4526
C:\Users\SOLDER~1\AppData\Local\Temp\ccbih9yx.s:23537  .debug_str:0000000000014f84 .LASF4527
C:\Users\SOLDER~1\AppData\Local\Temp\ccbih9yx.s:27457  .debug_str:0000000000024e36 .LASF4528
C:\Users\SOLDER~1\AppData\Local\Temp\ccbih9yx.s:28931  .debug_str:000000000002aed6 .LASF4529
C:\Users\SOLDER~1\AppData\Local\Temp\ccbih9yx.s:21191  .debug_str:000000000000b539 .LASF4530
C:\Users\SOLDER~1\AppData\Local\Temp\ccbih9yx.s:27393  .debug_str:00000000000249e4 .LASF4531
C:\Users\SOLDER~1\AppData\Local\Temp\ccbih9yx.s:27035  .debug_str:0000000000023274 .LASF4532
C:\Users\SOLDER~1\AppData\Local\Temp\ccbih9yx.s:25537  .debug_str:000000000001d149 .LASF4533
C:\Users\SOLDER~1\AppData\Local\Temp\ccbih9yx.s:27697  .debug_str:0000000000025e3b .LASF4534
C:\Users\SOLDER~1\AppData\Local\Temp\ccbih9yx.s:29149  .debug_str:000000000002bceb .LASF4535
C:\Users\SOLDER~1\AppData\Local\Temp\ccbih9yx.s:23861  .debug_str:000000000001646e .LASF4536
C:\Users\SOLDER~1\AppData\Local\Temp\ccbih9yx.s:19547  .debug_str:00000000000049ef .LASF4537
C:\Users\SOLDER~1\AppData\Local\Temp\ccbih9yx.s:22111  .debug_str:000000000000f180 .LASF4538
C:\Users\SOLDER~1\AppData\Local\Temp\ccbih9yx.s:23105  .debug_str:0000000000013208 .LASF4539
C:\Users\SOLDER~1\AppData\Local\Temp\ccbih9yx.s:25395  .debug_str:000000000001c795 .LASF4540
C:\Users\SOLDER~1\AppData\Local\Temp\ccbih9yx.s:25365  .debug_str:000000000001c58e .LASF4541
C:\Users\SOLDER~1\AppData\Local\Temp\ccbih9yx.s:23317  .debug_str:00000000000140cb .LASF4542
C:\Users\SOLDER~1\AppData\Local\Temp\ccbih9yx.s:29203  .debug_str:000000000002c0d0 .LASF4543
C:\Users\SOLDER~1\AppData\Local\Temp\ccbih9yx.s:29175  .debug_str:000000000002becc .LASF4544
C:\Users\SOLDER~1\AppData\Local\Temp\ccbih9yx.s:27397  .debug_str:0000000000024a40 .LASF4545
C:\Users\SOLDER~1\AppData\Local\Temp\ccbih9yx.s:21837  .debug_str:000000000000dffc .LASF4546
C:\Users\SOLDER~1\AppData\Local\Temp\ccbih9yx.s:19989  .debug_str:0000000000006659 .LASF4547
C:\Users\SOLDER~1\AppData\Local\Temp\ccbih9yx.s:20047  .debug_str:0000000000006a47 .LASF4548
C:\Users\SOLDER~1\AppData\Local\Temp\ccbih9yx.s:23079  .debug_str:000000000001304d .LASF4549
C:\Users\SOLDER~1\AppData\Local\Temp\ccbih9yx.s:24847  .debug_str:000000000001a40c .LASF4550
C:\Users\SOLDER~1\AppData\Local\Temp\ccbih9yx.s:25263  .debug_str:000000000001bec8 .LASF4551
C:\Users\SOLDER~1\AppData\Local\Temp\ccbih9yx.s:24373  .debug_str:0000000000018569 .LASF4552
C:\Users\SOLDER~1\AppData\Local\Temp\ccbih9yx.s:28533  .debug_str:0000000000029541 .LASF4553
C:\Users\SOLDER~1\AppData\Local\Temp\ccbih9yx.s:18419  .debug_str:000000000000010c .LASF4554
C:\Users\SOLDER~1\AppData\Local\Temp\ccbih9yx.s:26683  .debug_str:0000000000021bc6 .LASF4555
C:\Users\SOLDER~1\AppData\Local\Temp\ccbih9yx.s:26427  .debug_str:0000000000020b3d .LASF4556
C:\Users\SOLDER~1\AppData\Local\Temp\ccbih9yx.s:24351  .debug_str:0000000000018401 .LASF4557
C:\Users\SOLDER~1\AppData\Local\Temp\ccbih9yx.s:29043  .debug_str:000000000002b644 .LASF4558
C:\Users\SOLDER~1\AppData\Local\Temp\ccbih9yx.s:22329  .debug_str:000000000001002b .LASF4559
C:\Users\SOLDER~1\AppData\Local\Temp\ccbih9yx.s:22421  .debug_str:00000000000105e1 .LASF4560
C:\Users\SOLDER~1\AppData\Local\Temp\ccbih9yx.s:22521  .debug_str:0000000000010c4b .LASF4561
C:\Users\SOLDER~1\AppData\Local\Temp\ccbih9yx.s:28365  .debug_str:0000000000028a54 .LASF4562
GAS LISTING C:\Users\SOLDER~1\AppData\Local\Temp\ccbih9yx.s 			page 91


C:\Users\SOLDER~1\AppData\Local\Temp\ccbih9yx.s:22395  .debug_str:0000000000010471 .LASF4563
C:\Users\SOLDER~1\AppData\Local\Temp\ccbih9yx.s:20833  .debug_str:0000000000009d8d .LASF4564
C:\Users\SOLDER~1\AppData\Local\Temp\ccbih9yx.s:20211  .debug_str:0000000000007509 .LASF4565
C:\Users\SOLDER~1\AppData\Local\Temp\ccbih9yx.s:19503  .debug_str:000000000000472e .LASF4566
C:\Users\SOLDER~1\AppData\Local\Temp\ccbih9yx.s:22843  .debug_str:00000000000120f9 .LASF4567
C:\Users\SOLDER~1\AppData\Local\Temp\ccbih9yx.s:28029  .debug_str:0000000000027488 .LASF4568
C:\Users\SOLDER~1\AppData\Local\Temp\ccbih9yx.s:23825  .debug_str:0000000000016248 .LASF4569
C:\Users\SOLDER~1\AppData\Local\Temp\ccbih9yx.s:25517  .debug_str:000000000001cfd6 .LASF4570
C:\Users\SOLDER~1\AppData\Local\Temp\ccbih9yx.s:25707  .debug_str:000000000001dc15 .LASF4571
C:\Users\SOLDER~1\AppData\Local\Temp\ccbih9yx.s:22555  .debug_str:0000000000010e78 .LASF4572
C:\Users\SOLDER~1\AppData\Local\Temp\ccbih9yx.s:24143  .debug_str:0000000000017666 .LASF4573
C:\Users\SOLDER~1\AppData\Local\Temp\ccbih9yx.s:29047  .debug_str:000000000002b691 .LASF4574
C:\Users\SOLDER~1\AppData\Local\Temp\ccbih9yx.s:25699  .debug_str:000000000001db87 .LASF4575
C:\Users\SOLDER~1\AppData\Local\Temp\ccbih9yx.s:18967  .debug_str:0000000000002529 .LASF4576
C:\Users\SOLDER~1\AppData\Local\Temp\ccbih9yx.s:21025  .debug_str:000000000000aa79 .LASF4577
C:\Users\SOLDER~1\AppData\Local\Temp\ccbih9yx.s:20985  .debug_str:000000000000a7d2 .LASF4578
C:\Users\SOLDER~1\AppData\Local\Temp\ccbih9yx.s:25277  .debug_str:000000000001bfa3 .LASF4579
C:\Users\SOLDER~1\AppData\Local\Temp\ccbih9yx.s:22469  .debug_str:0000000000010925 .LASF4580
C:\Users\SOLDER~1\AppData\Local\Temp\ccbih9yx.s:25191  .debug_str:000000000001ba11 .LASF4581
C:\Users\SOLDER~1\AppData\Local\Temp\ccbih9yx.s:28083  .debug_str:00000000000277fd .LASF4582
C:\Users\SOLDER~1\AppData\Local\Temp\ccbih9yx.s:21343  .debug_str:000000000000bef1 .LASF4583
C:\Users\SOLDER~1\AppData\Local\Temp\ccbih9yx.s:20233  .debug_str:0000000000007665 .LASF4584
C:\Users\SOLDER~1\AppData\Local\Temp\ccbih9yx.s:24211  .debug_str:0000000000017aab .LASF4585
C:\Users\SOLDER~1\AppData\Local\Temp\ccbih9yx.s:25127  .debug_str:000000000001b611 .LASF4586
C:\Users\SOLDER~1\AppData\Local\Temp\ccbih9yx.s:19759  .debug_str:0000000000005717 .LASF4587
C:\Users\SOLDER~1\AppData\Local\Temp\ccbih9yx.s:20333  .debug_str:0000000000007cd7 .LASF4588
C:\Users\SOLDER~1\AppData\Local\Temp\ccbih9yx.s:20535  .debug_str:00000000000089e6 .LASF4589
C:\Users\SOLDER~1\AppData\Local\Temp\ccbih9yx.s:25843  .debug_str:000000000001e4e0 .LASF4590
C:\Users\SOLDER~1\AppData\Local\Temp\ccbih9yx.s:29349  .debug_str:000000000002c9e9 .LASF4591
C:\Users\SOLDER~1\AppData\Local\Temp\ccbih9yx.s:20251  .debug_str:000000000000774f .LASF4594
C:\Users\SOLDER~1\AppData\Local\Temp\ccbih9yx.s:24889  .debug_str:000000000001a6a8 .LASF4595
C:\Users\SOLDER~1\AppData\Local\Temp\ccbih9yx.s:23197  .debug_str:0000000000013870 .LASF4596
C:\Users\SOLDER~1\AppData\Local\Temp\ccbih9yx.s:24973  .debug_str:000000000001ac26 .LASF4597
C:\Users\SOLDER~1\AppData\Local\Temp\ccbih9yx.s:26635  .debug_str:00000000000218af .LASF4598
C:\Users\SOLDER~1\AppData\Local\Temp\ccbih9yx.s:23595  .debug_str:000000000001535a .LASF4599
C:\Users\SOLDER~1\AppData\Local\Temp\ccbih9yx.s:28953  .debug_str:000000000002b09c .LASF4600
C:\Users\SOLDER~1\AppData\Local\Temp\ccbih9yx.s:23937  .debug_str:000000000001690b .LASF4601
C:\Users\SOLDER~1\AppData\Local\Temp\ccbih9yx.s:21541  .debug_str:000000000000cc79 .LASF4602
C:\Users\SOLDER~1\AppData\Local\Temp\ccbih9yx.s:23319  .debug_str:0000000000014105 .LASF4603
C:\Users\SOLDER~1\AppData\Local\Temp\ccbih9yx.s:22193  .debug_str:000000000000f6cc .LASF4604
C:\Users\SOLDER~1\AppData\Local\Temp\ccbih9yx.s:28677  .debug_str:0000000000029e59 .LASF4605
C:\Users\SOLDER~1\AppData\Local\Temp\ccbih9yx.s:29779  .debug_str:000000000002e584 .LASF4606
C:\Users\SOLDER~1\AppData\Local\Temp\ccbih9yx.s:27169  .debug_str:0000000000023b1e .LASF4607
C:\Users\SOLDER~1\AppData\Local\Temp\ccbih9yx.s:20921  .debug_str:000000000000a354 .LASF4608
C:\Users\SOLDER~1\AppData\Local\Temp\ccbih9yx.s:23091  .debug_str:00000000000130f0 .LASF4609
C:\Users\SOLDER~1\AppData\Local\Temp\ccbih9yx.s:27153  .debug_str:0000000000023a04 .LASF4610
C:\Users\SOLDER~1\AppData\Local\Temp\ccbih9yx.s:20109  .debug_str:0000000000006e3f .LASF4611
C:\Users\SOLDER~1\AppData\Local\Temp\ccbih9yx.s:26085  .debug_str:000000000001f52e .LASF4612
C:\Users\SOLDER~1\AppData\Local\Temp\ccbih9yx.s:19337  .debug_str:0000000000003cd2 .LASF4613
C:\Users\SOLDER~1\AppData\Local\Temp\ccbih9yx.s:27801  .debug_str:000000000002655b .LASF4614
C:\Users\SOLDER~1\AppData\Local\Temp\ccbih9yx.s:20525  .debug_str:0000000000008938 .LASF4615
C:\Users\SOLDER~1\AppData\Local\Temp\ccbih9yx.s:27855  .debug_str:0000000000026905 .LASF4616
C:\Users\SOLDER~1\AppData\Local\Temp\ccbih9yx.s:20117  .debug_str:0000000000006eeb .LASF4617
C:\Users\SOLDER~1\AppData\Local\Temp\ccbih9yx.s:19077  .debug_str:0000000000002bfa .LASF4618
C:\Users\SOLDER~1\AppData\Local\Temp\ccbih9yx.s:21131  .debug_str:000000000000b123 .LASF4619
C:\Users\SOLDER~1\AppData\Local\Temp\ccbih9yx.s:21249  .debug_str:000000000000b8df .LASF4620
C:\Users\SOLDER~1\AppData\Local\Temp\ccbih9yx.s:27301  .debug_str:00000000000243d6 .LASF4621
GAS LISTING C:\Users\SOLDER~1\AppData\Local\Temp\ccbih9yx.s 			page 92


C:\Users\SOLDER~1\AppData\Local\Temp\ccbih9yx.s:28425  .debug_str:0000000000028e07 .LASF4622
C:\Users\SOLDER~1\AppData\Local\Temp\ccbih9yx.s:24295  .debug_str:0000000000018080 .LASF4623
C:\Users\SOLDER~1\AppData\Local\Temp\ccbih9yx.s:22325  .debug_str:000000000000fffb .LASF4624
C:\Users\SOLDER~1\AppData\Local\Temp\ccbih9yx.s:28833  .debug_str:000000000002a872 .LASF4625
C:\Users\SOLDER~1\AppData\Local\Temp\ccbih9yx.s:23973  .debug_str:0000000000016b64 .LASF4626
C:\Users\SOLDER~1\AppData\Local\Temp\ccbih9yx.s:25937  .debug_str:000000000001eb45 .LASF4627
C:\Users\SOLDER~1\AppData\Local\Temp\ccbih9yx.s:23295  .debug_str:0000000000013f67 .LASF4628
C:\Users\SOLDER~1\AppData\Local\Temp\ccbih9yx.s:20711  .debug_str:00000000000095b2 .LASF4629
C:\Users\SOLDER~1\AppData\Local\Temp\ccbih9yx.s:25829  .debug_str:000000000001e3ee .LASF4630
C:\Users\SOLDER~1\AppData\Local\Temp\ccbih9yx.s:26801  .debug_str:00000000000222df .LASF4631
C:\Users\SOLDER~1\AppData\Local\Temp\ccbih9yx.s:25641  .debug_str:000000000001d7f3 .LASF4632
C:\Users\SOLDER~1\AppData\Local\Temp\ccbih9yx.s:29465  .debug_str:000000000002d1c0 .LASF4633
C:\Users\SOLDER~1\AppData\Local\Temp\ccbih9yx.s:26767  .debug_str:00000000000220fd .LASF4634
C:\Users\SOLDER~1\AppData\Local\Temp\ccbih9yx.s:18423  .debug_str:0000000000000130 .LASF4635
C:\Users\SOLDER~1\AppData\Local\Temp\ccbih9yx.s:24079  .debug_str:0000000000017222 .LASF4636
C:\Users\SOLDER~1\AppData\Local\Temp\ccbih9yx.s:23167  .debug_str:0000000000013648 .LASF4637
C:\Users\SOLDER~1\AppData\Local\Temp\ccbih9yx.s:23143  .debug_str:0000000000013492 .LASF4638
C:\Users\SOLDER~1\AppData\Local\Temp\ccbih9yx.s:23145  .debug_str:00000000000134c3 .LASF4639
C:\Users\SOLDER~1\AppData\Local\Temp\ccbih9yx.s:28673  .debug_str:0000000000029e14 .LASF4640
C:\Users\SOLDER~1\AppData\Local\Temp\ccbih9yx.s:21449  .debug_str:000000000000c657 .LASF4641
C:\Users\SOLDER~1\AppData\Local\Temp\ccbih9yx.s:29893  .debug_str:000000000002ecdd .LASF4642
C:\Users\SOLDER~1\AppData\Local\Temp\ccbih9yx.s:26755  .debug_str:0000000000022044 .LASF4643
C:\Users\SOLDER~1\AppData\Local\Temp\ccbih9yx.s:21671  .debug_str:000000000000d51a .LASF4644
C:\Users\SOLDER~1\AppData\Local\Temp\ccbih9yx.s:25747  .debug_str:000000000001dee8 .LASF4645
C:\Users\SOLDER~1\AppData\Local\Temp\ccbih9yx.s:21703  .debug_str:000000000000d73c .LASF4646
C:\Users\SOLDER~1\AppData\Local\Temp\ccbih9yx.s:25197  .debug_str:000000000001ba6b .LASF4647
C:\Users\SOLDER~1\AppData\Local\Temp\ccbih9yx.s:22285  .debug_str:000000000000fd71 .LASF4648
C:\Users\SOLDER~1\AppData\Local\Temp\ccbih9yx.s:21545  .debug_str:000000000000cccd .LASF4649
C:\Users\SOLDER~1\AppData\Local\Temp\ccbih9yx.s:18857  .debug_str:0000000000001dcc .LASF4650
C:\Users\SOLDER~1\AppData\Local\Temp\ccbih9yx.s:21575  .debug_str:000000000000cea3 .LASF4651
C:\Users\SOLDER~1\AppData\Local\Temp\ccbih9yx.s:24833  .debug_str:000000000001a2f5 .LASF4652
C:\Users\SOLDER~1\AppData\Local\Temp\ccbih9yx.s:27037  .debug_str:00000000000232ae .LASF4653
C:\Users\SOLDER~1\AppData\Local\Temp\ccbih9yx.s:23213  .debug_str:00000000000139a2 .LASF4654
C:\Users\SOLDER~1\AppData\Local\Temp\ccbih9yx.s:20429  .debug_str:0000000000008321 .LASF4655
C:\Users\SOLDER~1\AppData\Local\Temp\ccbih9yx.s:25275  .debug_str:000000000001bf6b .LASF4656
C:\Users\SOLDER~1\AppData\Local\Temp\ccbih9yx.s:22255  .debug_str:000000000000fb4f .LASF4657
C:\Users\SOLDER~1\AppData\Local\Temp\ccbih9yx.s:20815  .debug_str:0000000000009c32 .LASF4658
C:\Users\SOLDER~1\AppData\Local\Temp\ccbih9yx.s:21929  .debug_str:000000000000e5e8 .LASF4659
C:\Users\SOLDER~1\AppData\Local\Temp\ccbih9yx.s:28633  .debug_str:0000000000029b6f .LASF4660
C:\Users\SOLDER~1\AppData\Local\Temp\ccbih9yx.s:25429  .debug_str:000000000001c9e5 .LASF4661
C:\Users\SOLDER~1\AppData\Local\Temp\ccbih9yx.s:24751  .debug_str:0000000000019dcf .LASF4662
C:\Users\SOLDER~1\AppData\Local\Temp\ccbih9yx.s:18411  .debug_str:000000000000006c .LASF4663
C:\Users\SOLDER~1\AppData\Local\Temp\ccbih9yx.s:22763  .debug_str:0000000000011bf2 .LASF4664
C:\Users\SOLDER~1\AppData\Local\Temp\ccbih9yx.s:24617  .debug_str:0000000000019589 .LASF4665
C:\Users\SOLDER~1\AppData\Local\Temp\ccbih9yx.s:29189  .debug_str:000000000002bfe7 .LASF4666
C:\Users\SOLDER~1\AppData\Local\Temp\ccbih9yx.s:18701  .debug_str:00000000000013d0 .LASF4667
C:\Users\SOLDER~1\AppData\Local\Temp\ccbih9yx.s:18495  .debug_str:00000000000005dd .LASF4668
C:\Users\SOLDER~1\AppData\Local\Temp\ccbih9yx.s:20007  .debug_str:00000000000067af .LASF4669
C:\Users\SOLDER~1\AppData\Local\Temp\ccbih9yx.s:21847  .debug_str:000000000000e0bf .LASF4670
C:\Users\SOLDER~1\AppData\Local\Temp\ccbih9yx.s:18837  .debug_str:0000000000001c6f .LASF4671
C:\Users\SOLDER~1\AppData\Local\Temp\ccbih9yx.s:18737  .debug_str:0000000000001621 .LASF4672
C:\Users\SOLDER~1\AppData\Local\Temp\ccbih9yx.s:26083  .debug_str:000000000001f4ed .LASF4673
C:\Users\SOLDER~1\AppData\Local\Temp\ccbih9yx.s:23593  .debug_str:0000000000015323 .LASF4674
C:\Users\SOLDER~1\AppData\Local\Temp\ccbih9yx.s:19505  .debug_str:0000000000004741 .LASF4675
C:\Users\SOLDER~1\AppData\Local\Temp\ccbih9yx.s:22907  .debug_str:0000000000012508 .LASF4676
C:\Users\SOLDER~1\AppData\Local\Temp\ccbih9yx.s:22231  .debug_str:000000000000f99e .LASF4677
C:\Users\SOLDER~1\AppData\Local\Temp\ccbih9yx.s:20381  .debug_str:0000000000007ffb .LASF4678
GAS LISTING C:\Users\SOLDER~1\AppData\Local\Temp\ccbih9yx.s 			page 93


C:\Users\SOLDER~1\AppData\Local\Temp\ccbih9yx.s:27345  .debug_str:00000000000246d6 .LASF4679
C:\Users\SOLDER~1\AppData\Local\Temp\ccbih9yx.s:23467  .debug_str:0000000000014b2a .LASF4680
C:\Users\SOLDER~1\AppData\Local\Temp\ccbih9yx.s:19093  .debug_str:0000000000002d16 .LASF4681
C:\Users\SOLDER~1\AppData\Local\Temp\ccbih9yx.s:20013  .debug_str:000000000000683b .LASF4682
C:\Users\SOLDER~1\AppData\Local\Temp\ccbih9yx.s:18801  .debug_str:0000000000001a1f .LASF4683
C:\Users\SOLDER~1\AppData\Local\Temp\ccbih9yx.s:21415  .debug_str:000000000000c40d .LASF4684
C:\Users\SOLDER~1\AppData\Local\Temp\ccbih9yx.s:28629  .debug_str:0000000000029b31 .LASF4685
C:\Users\SOLDER~1\AppData\Local\Temp\ccbih9yx.s:28103  .debug_str:000000000002792e .LASF4686
C:\Users\SOLDER~1\AppData\Local\Temp\ccbih9yx.s:25585  .debug_str:000000000001d499 .LASF4687
C:\Users\SOLDER~1\AppData\Local\Temp\ccbih9yx.s:28167  .debug_str:0000000000027d80 .LASF4688
C:\Users\SOLDER~1\AppData\Local\Temp\ccbih9yx.s:26171  .debug_str:000000000001fab2 .LASF4689
C:\Users\SOLDER~1\AppData\Local\Temp\ccbih9yx.s:27627  .debug_str:0000000000025944 .LASF4690
C:\Users\SOLDER~1\AppData\Local\Temp\ccbih9yx.s:18677  .debug_str:0000000000001241 .LASF4691
C:\Users\SOLDER~1\AppData\Local\Temp\ccbih9yx.s:26023  .debug_str:000000000001f0e4 .LASF4692
C:\Users\SOLDER~1\AppData\Local\Temp\ccbih9yx.s:26877  .debug_str:0000000000022807 .LASF4693
C:\Users\SOLDER~1\AppData\Local\Temp\ccbih9yx.s:28429  .debug_str:0000000000028e3c .LASF4694
C:\Users\SOLDER~1\AppData\Local\Temp\ccbih9yx.s:25625  .debug_str:000000000001d6f8 .LASF4695
C:\Users\SOLDER~1\AppData\Local\Temp\ccbih9yx.s:18777  .debug_str:0000000000001878 .LASF4696
C:\Users\SOLDER~1\AppData\Local\Temp\ccbih9yx.s:23451  .debug_str:0000000000014a26 .LASF4697
C:\Users\SOLDER~1\AppData\Local\Temp\ccbih9yx.s:20281  .debug_str:0000000000007954 .LASF4698
C:\Users\SOLDER~1\AppData\Local\Temp\ccbih9yx.s:28921  .debug_str:000000000002ae2b .LASF4699
C:\Users\SOLDER~1\AppData\Local\Temp\ccbih9yx.s:25449  .debug_str:000000000001cb6c .LASF4700
C:\Users\SOLDER~1\AppData\Local\Temp\ccbih9yx.s:20761  .debug_str:00000000000098fa .LASF4701
C:\Users\SOLDER~1\AppData\Local\Temp\ccbih9yx.s:19083  .debug_str:0000000000002c69 .LASF4702
C:\Users\SOLDER~1\AppData\Local\Temp\ccbih9yx.s:24615  .debug_str:000000000001956d .LASF4703
C:\Users\SOLDER~1\AppData\Local\Temp\ccbih9yx.s:27349  .debug_str:000000000002471c .LASF4704
C:\Users\SOLDER~1\AppData\Local\Temp\ccbih9yx.s:24259  .debug_str:0000000000017df0 .LASF4705
C:\Users\SOLDER~1\AppData\Local\Temp\ccbih9yx.s:23759  .debug_str:0000000000015df9 .LASF4706
C:\Users\SOLDER~1\AppData\Local\Temp\ccbih9yx.s:22679  .debug_str:000000000001167f .LASF4707
C:\Users\SOLDER~1\AppData\Local\Temp\ccbih9yx.s:21195  .debug_str:000000000000b572 .LASF4708
C:\Users\SOLDER~1\AppData\Local\Temp\ccbih9yx.s:24333  .debug_str:00000000000182e1 .LASF4709
C:\Users\SOLDER~1\AppData\Local\Temp\ccbih9yx.s:25337  .debug_str:000000000001c3d0 .LASF4710
C:\Users\SOLDER~1\AppData\Local\Temp\ccbih9yx.s:26297  .debug_str:00000000000202a8 .LASF4711
C:\Users\SOLDER~1\AppData\Local\Temp\ccbih9yx.s:24197  .debug_str:00000000000179d2 .LASF4712
C:\Users\SOLDER~1\AppData\Local\Temp\ccbih9yx.s:24989  .debug_str:000000000001ad5f .LASF4713
C:\Users\SOLDER~1\AppData\Local\Temp\ccbih9yx.s:22413  .debug_str:000000000001057a .LASF4714
C:\Users\SOLDER~1\AppData\Local\Temp\ccbih9yx.s:29801  .debug_str:000000000002e728 .LASF4715
C:\Users\SOLDER~1\AppData\Local\Temp\ccbih9yx.s:28889  .debug_str:000000000002ac3d .LASF4716
C:\Users\SOLDER~1\AppData\Local\Temp\ccbih9yx.s:27983  .debug_str:0000000000027189 .LASF4717
C:\Users\SOLDER~1\AppData\Local\Temp\ccbih9yx.s:28417  .debug_str:0000000000028d84 .LASF4718
C:\Users\SOLDER~1\AppData\Local\Temp\ccbih9yx.s:19143  .debug_str:0000000000003067 .LASF4719
C:\Users\SOLDER~1\AppData\Local\Temp\ccbih9yx.s:22807  .debug_str:0000000000011ec1 .LASF4720
C:\Users\SOLDER~1\AppData\Local\Temp\ccbih9yx.s:24543  .debug_str:0000000000019094 .LASF4721
C:\Users\SOLDER~1\AppData\Local\Temp\ccbih9yx.s:18593  .debug_str:0000000000000d09 .LASF4722
C:\Users\SOLDER~1\AppData\Local\Temp\ccbih9yx.s:25969  .debug_str:000000000001ed49 .LASF4723
C:\Users\SOLDER~1\AppData\Local\Temp\ccbih9yx.s:20691  .debug_str:0000000000009485 .LASF4724
C:\Users\SOLDER~1\AppData\Local\Temp\ccbih9yx.s:26015  .debug_str:000000000001f05f .LASF4725
C:\Users\SOLDER~1\AppData\Local\Temp\ccbih9yx.s:24635  .debug_str:00000000000196cc .LASF4726
C:\Users\SOLDER~1\AppData\Local\Temp\ccbih9yx.s:28233  .debug_str:00000000000281d5 .LASF4727
C:\Users\SOLDER~1\AppData\Local\Temp\ccbih9yx.s:20763  .debug_str:0000000000009915 .LASF4728
C:\Users\SOLDER~1\AppData\Local\Temp\ccbih9yx.s:27875  .debug_str:0000000000026a87 .LASF4729
C:\Users\SOLDER~1\AppData\Local\Temp\ccbih9yx.s:26857  .debug_str:00000000000226aa .LASF4730
C:\Users\SOLDER~1\AppData\Local\Temp\ccbih9yx.s:29251  .debug_str:000000000002c3d5 .LASF4731
C:\Users\SOLDER~1\AppData\Local\Temp\ccbih9yx.s:27073  .debug_str:000000000002351a .LASF4732
C:\Users\SOLDER~1\AppData\Local\Temp\ccbih9yx.s:28099  .debug_str:00000000000278ed .LASF4733
C:\Users\SOLDER~1\AppData\Local\Temp\ccbih9yx.s:28545  .debug_str:00000000000295f5 .LASF4734
C:\Users\SOLDER~1\AppData\Local\Temp\ccbih9yx.s:21169  .debug_str:000000000000b3d8 .LASF4735
GAS LISTING C:\Users\SOLDER~1\AppData\Local\Temp\ccbih9yx.s 			page 94


C:\Users\SOLDER~1\AppData\Local\Temp\ccbih9yx.s:19885  .debug_str:0000000000005f36 .LASF4736
C:\Users\SOLDER~1\AppData\Local\Temp\ccbih9yx.s:19241  .debug_str:00000000000036a3 .LASF4737
C:\Users\SOLDER~1\AppData\Local\Temp\ccbih9yx.s:28023  .debug_str:0000000000027440 .LASF4738
C:\Users\SOLDER~1\AppData\Local\Temp\ccbih9yx.s:24875  .debug_str:000000000001a5b3 .LASF4739
C:\Users\SOLDER~1\AppData\Local\Temp\ccbih9yx.s:19301  .debug_str:0000000000003a94 .LASF4740
C:\Users\SOLDER~1\AppData\Local\Temp\ccbih9yx.s:19409  .debug_str:0000000000004143 .LASF4741
C:\Users\SOLDER~1\AppData\Local\Temp\ccbih9yx.s:27093  .debug_str:0000000000023671 .LASF4742
C:\Users\SOLDER~1\AppData\Local\Temp\ccbih9yx.s:27433  .debug_str:0000000000024c9e .LASF4743
C:\Users\SOLDER~1\AppData\Local\Temp\ccbih9yx.s:23037  .debug_str:0000000000012db1 .LASF4744
C:\Users\SOLDER~1\AppData\Local\Temp\ccbih9yx.s:18835  .debug_str:0000000000001c49 .LASF4745
C:\Users\SOLDER~1\AppData\Local\Temp\ccbih9yx.s:27611  .debug_str:000000000002583e .LASF4746
C:\Users\SOLDER~1\AppData\Local\Temp\ccbih9yx.s:21695  .debug_str:000000000000d6bc .LASF4747
C:\Users\SOLDER~1\AppData\Local\Temp\ccbih9yx.s:18673  .debug_str:000000000000120b .LASF4748
C:\Users\SOLDER~1\AppData\Local\Temp\ccbih9yx.s:27067  .debug_str:00000000000234c7 .LASF4749
C:\Users\SOLDER~1\AppData\Local\Temp\ccbih9yx.s:23271  .debug_str:0000000000013dd6 .LASF4750
C:\Users\SOLDER~1\AppData\Local\Temp\ccbih9yx.s:22127  .debug_str:000000000000f28e .LASF4751
C:\Users\SOLDER~1\AppData\Local\Temp\ccbih9yx.s:21319  .debug_str:000000000000bd69 .LASF4752
C:\Users\SOLDER~1\AppData\Local\Temp\ccbih9yx.s:27501  .debug_str:00000000000250f3 .LASF4753
C:\Users\SOLDER~1\AppData\Local\Temp\ccbih9yx.s:24505  .debug_str:0000000000018e26 .LASF4754
C:\Users\SOLDER~1\AppData\Local\Temp\ccbih9yx.s:18559  .debug_str:0000000000000ab3 .LASF4755
C:\Users\SOLDER~1\AppData\Local\Temp\ccbih9yx.s:29875  .debug_str:000000000002ebbc .LASF4756
C:\Users\SOLDER~1\AppData\Local\Temp\ccbih9yx.s:26771  .debug_str:0000000000022141 .LASF4757
C:\Users\SOLDER~1\AppData\Local\Temp\ccbih9yx.s:27241  .debug_str:0000000000023fd3 .LASF4758
C:\Users\SOLDER~1\AppData\Local\Temp\ccbih9yx.s:19665  .debug_str:000000000000513b .LASF4759
C:\Users\SOLDER~1\AppData\Local\Temp\ccbih9yx.s:22147  .debug_str:000000000000f3f1 .LASF4760
C:\Users\SOLDER~1\AppData\Local\Temp\ccbih9yx.s:27497  .debug_str:00000000000250bd .LASF4761
C:\Users\SOLDER~1\AppData\Local\Temp\ccbih9yx.s:24501  .debug_str:0000000000018de6 .LASF4762
C:\Users\SOLDER~1\AppData\Local\Temp\ccbih9yx.s:21395  .debug_str:000000000000c2a4 .LASF4763
C:\Users\SOLDER~1\AppData\Local\Temp\ccbih9yx.s:20677  .debug_str:00000000000093b3 .LASF4764
C:\Users\SOLDER~1\AppData\Local\Temp\ccbih9yx.s:20605  .debug_str:0000000000008eaf .LASF4765
C:\Users\SOLDER~1\AppData\Local\Temp\ccbih9yx.s:23773  .debug_str:0000000000015ede .LASF4766
C:\Users\SOLDER~1\AppData\Local\Temp\ccbih9yx.s:26043  .debug_str:000000000001f242 .LASF4767
C:\Users\SOLDER~1\AppData\Local\Temp\ccbih9yx.s:22979  .debug_str:00000000000129b4 .LASF4768
C:\Users\SOLDER~1\AppData\Local\Temp\ccbih9yx.s:29501  .debug_str:000000000002d3ea .LASF4769
C:\Users\SOLDER~1\AppData\Local\Temp\ccbih9yx.s:26105  .debug_str:000000000001f67c .LASF4770
C:\Users\SOLDER~1\AppData\Local\Temp\ccbih9yx.s:22159  .debug_str:000000000000f4ab .LASF4771
C:\Users\SOLDER~1\AppData\Local\Temp\ccbih9yx.s:22085  .debug_str:000000000000eff4 .LASF4772
C:\Users\SOLDER~1\AppData\Local\Temp\ccbih9yx.s:19201  .debug_str:000000000000343a .LASF4773
C:\Users\SOLDER~1\AppData\Local\Temp\ccbih9yx.s:27623  .debug_str:0000000000025908 .LASF4774
C:\Users\SOLDER~1\AppData\Local\Temp\ccbih9yx.s:18721  .debug_str:000000000000152e .LASF4775
C:\Users\SOLDER~1\AppData\Local\Temp\ccbih9yx.s:19325  .debug_str:0000000000003c1d .LASF4776
C:\Users\SOLDER~1\AppData\Local\Temp\ccbih9yx.s:25817  .debug_str:000000000001e335 .LASF4777
C:\Users\SOLDER~1\AppData\Local\Temp\ccbih9yx.s:19731  .debug_str:0000000000005528 .LASF4778
C:\Users\SOLDER~1\AppData\Local\Temp\ccbih9yx.s:28897  .debug_str:000000000002acb4 .LASF4779
C:\Users\SOLDER~1\AppData\Local\Temp\ccbih9yx.s:29163  .debug_str:000000000002bdf8 .LASF4780
C:\Users\SOLDER~1\AppData\Local\Temp\ccbih9yx.s:21919  .debug_str:000000000000e54b .LASF4781
C:\Users\SOLDER~1\AppData\Local\Temp\ccbih9yx.s:26045  .debug_str:000000000001f25e .LASF4782
C:\Users\SOLDER~1\AppData\Local\Temp\ccbih9yx.s:21819  .debug_str:000000000000dea5 .LASF4783
C:\Users\SOLDER~1\AppData\Local\Temp\ccbih9yx.s:21231  .debug_str:000000000000b7b3 .LASF4784
C:\Users\SOLDER~1\AppData\Local\Temp\ccbih9yx.s:26435  .debug_str:0000000000020bc2 .LASF4785
C:\Users\SOLDER~1\AppData\Local\Temp\ccbih9yx.s:18853  .debug_str:0000000000001d98 .LASF4786
C:\Users\SOLDER~1\AppData\Local\Temp\ccbih9yx.s:24957  .debug_str:000000000001aaf1 .LASF4787
C:\Users\SOLDER~1\AppData\Local\Temp\ccbih9yx.s:29791  .debug_str:000000000002e661 .LASF4788
C:\Users\SOLDER~1\AppData\Local\Temp\ccbih9yx.s:20939  .debug_str:000000000000a498 .LASF4789
C:\Users\SOLDER~1\AppData\Local\Temp\ccbih9yx.s:29817  .debug_str:000000000002e83a .LASF4790
C:\Users\SOLDER~1\AppData\Local\Temp\ccbih9yx.s:26149  .debug_str:000000000001f957 .LASF4791
C:\Users\SOLDER~1\AppData\Local\Temp\ccbih9yx.s:27945  .debug_str:0000000000026f28 .LASF4792
GAS LISTING C:\Users\SOLDER~1\AppData\Local\Temp\ccbih9yx.s 			page 95


C:\Users\SOLDER~1\AppData\Local\Temp\ccbih9yx.s:28159  .debug_str:0000000000027d01 .LASF4793
C:\Users\SOLDER~1\AppData\Local\Temp\ccbih9yx.s:20509  .debug_str:0000000000008827 .LASF4794
C:\Users\SOLDER~1\AppData\Local\Temp\ccbih9yx.s:20949  .debug_str:000000000000a54f .LASF4795
C:\Users\SOLDER~1\AppData\Local\Temp\ccbih9yx.s:28831  .debug_str:000000000002a84b .LASF4796
C:\Users\SOLDER~1\AppData\Local\Temp\ccbih9yx.s:24007  .debug_str:0000000000016d35 .LASF4797
C:\Users\SOLDER~1\AppData\Local\Temp\ccbih9yx.s:19227  .debug_str:00000000000035b6 .LASF4798
C:\Users\SOLDER~1\AppData\Local\Temp\ccbih9yx.s:21795  .debug_str:000000000000dcf8 .LASF4799
C:\Users\SOLDER~1\AppData\Local\Temp\ccbih9yx.s:22429  .debug_str:0000000000010646 .LASF4800
C:\Users\SOLDER~1\AppData\Local\Temp\ccbih9yx.s:28505  .debug_str:000000000002933c .LASF4801
C:\Users\SOLDER~1\AppData\Local\Temp\ccbih9yx.s:20081  .debug_str:0000000000006c4e .LASF4802
C:\Users\SOLDER~1\AppData\Local\Temp\ccbih9yx.s:26813  .debug_str:00000000000223b4 .LASF4803
C:\Users\SOLDER~1\AppData\Local\Temp\ccbih9yx.s:22243  .debug_str:000000000000fa66 .LASF4804
C:\Users\SOLDER~1\AppData\Local\Temp\ccbih9yx.s:26419  .debug_str:0000000000020ac3 .LASF4805
C:\Users\SOLDER~1\AppData\Local\Temp\ccbih9yx.s:29379  .debug_str:000000000002cbd2 .LASF4806
C:\Users\SOLDER~1\AppData\Local\Temp\ccbih9yx.s:19929  .debug_str:000000000000624b .LASF4807
C:\Users\SOLDER~1\AppData\Local\Temp\ccbih9yx.s:27405  .debug_str:0000000000024ae4 .LASF4808
C:\Users\SOLDER~1\AppData\Local\Temp\ccbih9yx.s:20635  .debug_str:00000000000090be .LASF4809
C:\Users\SOLDER~1\AppData\Local\Temp\ccbih9yx.s:22259  .debug_str:000000000000fbad .LASF4810
C:\Users\SOLDER~1\AppData\Local\Temp\ccbih9yx.s:25103  .debug_str:000000000001b48a .LASF4811
C:\Users\SOLDER~1\AppData\Local\Temp\ccbih9yx.s:29633  .debug_str:000000000002dc61 .LASF4812
C:\Users\SOLDER~1\AppData\Local\Temp\ccbih9yx.s:29859  .debug_str:000000000002eacc .LASF4813
C:\Users\SOLDER~1\AppData\Local\Temp\ccbih9yx.s:20451  .debug_str:0000000000008487 .LASF4814
C:\Users\SOLDER~1\AppData\Local\Temp\ccbih9yx.s:22553  .debug_str:0000000000010e54 .LASF4815
C:\Users\SOLDER~1\AppData\Local\Temp\ccbih9yx.s:21623  .debug_str:000000000000d1ed .LASF4816
C:\Users\SOLDER~1\AppData\Local\Temp\ccbih9yx.s:20577  .debug_str:0000000000008cae .LASF4817
C:\Users\SOLDER~1\AppData\Local\Temp\ccbih9yx.s:19211  .debug_str:00000000000034d3 .LASF4818
C:\Users\SOLDER~1\AppData\Local\Temp\ccbih9yx.s:18405  .debug_str:0000000000000000 .LASF4819
C:\Users\SOLDER~1\AppData\Local\Temp\ccbih9yx.s:25913  .debug_str:000000000001e9be .LASF4820
C:\Users\SOLDER~1\AppData\Local\Temp\ccbih9yx.s:26563  .debug_str:0000000000021408 .LASF4821
C:\Users\SOLDER~1\AppData\Local\Temp\ccbih9yx.s:29575  .debug_str:000000000002d89f .LASF4822
C:\Users\SOLDER~1\AppData\Local\Temp\ccbih9yx.s:20611  .debug_str:0000000000008f0e .LASF4823
C:\Users\SOLDER~1\AppData\Local\Temp\ccbih9yx.s:19805  .debug_str:0000000000005a46 .LASF4824
C:\Users\SOLDER~1\AppData\Local\Temp\ccbih9yx.s:18569  .debug_str:0000000000000b60 .LASF4825
C:\Users\SOLDER~1\AppData\Local\Temp\ccbih9yx.s:26995  .debug_str:0000000000022fd8 .LASF4826
C:\Users\SOLDER~1\AppData\Local\Temp\ccbih9yx.s:21963  .debug_str:000000000000e856 .LASF4827
C:\Users\SOLDER~1\AppData\Local\Temp\ccbih9yx.s:24025  .debug_str:0000000000016e69 .LASF4828
C:\Users\SOLDER~1\AppData\Local\Temp\ccbih9yx.s:24145  .debug_str:0000000000017676 .LASF4829
C:\Users\SOLDER~1\AppData\Local\Temp\ccbih9yx.s:18995  .debug_str:00000000000026d3 .LASF4830
C:\Users\SOLDER~1\AppData\Local\Temp\ccbih9yx.s:23521  .debug_str:0000000000014e9e .LASF4831
C:\Users\SOLDER~1\AppData\Local\Temp\ccbih9yx.s:28131  .debug_str:0000000000027af2 .LASF4832
C:\Users\SOLDER~1\AppData\Local\Temp\ccbih9yx.s:23709  .debug_str:0000000000015ae0 .LASF4833
C:\Users\SOLDER~1\AppData\Local\Temp\ccbih9yx.s:19225  .debug_str:000000000000359e .LASF4834
C:\Users\SOLDER~1\AppData\Local\Temp\ccbih9yx.s:26051  .debug_str:000000000001f2c8 .LASF4835
C:\Users\SOLDER~1\AppData\Local\Temp\ccbih9yx.s:23371  .debug_str:00000000000144ad .LASF4836
C:\Users\SOLDER~1\AppData\Local\Temp\ccbih9yx.s:20487  .debug_str:00000000000086e8 .LASF4837
C:\Users\SOLDER~1\AppData\Local\Temp\ccbih9yx.s:21869  .debug_str:000000000000e24a .LASF4838
C:\Users\SOLDER~1\AppData\Local\Temp\ccbih9yx.s:26739  .debug_str:0000000000021f4a .LASF4839
C:\Users\SOLDER~1\AppData\Local\Temp\ccbih9yx.s:26483  .debug_str:0000000000020ec8 .LASF4840
C:\Users\SOLDER~1\AppData\Local\Temp\ccbih9yx.s:24927  .debug_str:000000000001a924 .LASF4841
C:\Users\SOLDER~1\AppData\Local\Temp\ccbih9yx.s:23967  .debug_str:0000000000016b05 .LASF4842
C:\Users\SOLDER~1\AppData\Local\Temp\ccbih9yx.s:19293  .debug_str:0000000000003a0a .LASF4843
C:\Users\SOLDER~1\AppData\Local\Temp\ccbih9yx.s:23997  .debug_str:0000000000016cb2 .LASF4844
C:\Users\SOLDER~1\AppData\Local\Temp\ccbih9yx.s:28481  .debug_str:000000000002919c .LASF4845
C:\Users\SOLDER~1\AppData\Local\Temp\ccbih9yx.s:21741  .debug_str:000000000000d97d .LASF4846
C:\Users\SOLDER~1\AppData\Local\Temp\ccbih9yx.s:28263  .debug_str:00000000000283cf .LASF4847
C:\Users\SOLDER~1\AppData\Local\Temp\ccbih9yx.s:27899  .debug_str:0000000000026c03 .LASF4848
C:\Users\SOLDER~1\AppData\Local\Temp\ccbih9yx.s:23181  .debug_str:0000000000013725 .LASF4849
GAS LISTING C:\Users\SOLDER~1\AppData\Local\Temp\ccbih9yx.s 			page 96


C:\Users\SOLDER~1\AppData\Local\Temp\ccbih9yx.s:26321  .debug_str:000000000002045d .LASF4850
C:\Users\SOLDER~1\AppData\Local\Temp\ccbih9yx.s:24901  .debug_str:000000000001a797 .LASF4852
C:\Users\SOLDER~1\AppData\Local\Temp\ccbih9yx.s:26793  .debug_str:000000000002225b .LASF4853
C:\Users\SOLDER~1\AppData\Local\Temp\ccbih9yx.s:19121  .debug_str:0000000000002f15 .LASF4854
C:\Users\SOLDER~1\AppData\Local\Temp\ccbih9yx.s:22971  .debug_str:0000000000012910 .LASF4855
C:\Users\SOLDER~1\AppData\Local\Temp\ccbih9yx.s:21877  .debug_str:000000000000e2ca .LASF4856
C:\Users\SOLDER~1\AppData\Local\Temp\ccbih9yx.s:25113  .debug_str:000000000001b514 .LASF4857
C:\Users\SOLDER~1\AppData\Local\Temp\ccbih9yx.s:20415  .debug_str:0000000000008235 .LASF4858
C:\Users\SOLDER~1\AppData\Local\Temp\ccbih9yx.s:21007  .debug_str:000000000000a94f .LASF4859
C:\Users\SOLDER~1\AppData\Local\Temp\ccbih9yx.s:28839  .debug_str:000000000002a8db .LASF4860
C:\Users\SOLDER~1\AppData\Local\Temp\ccbih9yx.s:19307  .debug_str:0000000000003aff .LASF4861
C:\Users\SOLDER~1\AppData\Local\Temp\ccbih9yx.s:27865  .debug_str:00000000000269d3 .LASF4862
C:\Users\SOLDER~1\AppData\Local\Temp\ccbih9yx.s:26579  .debug_str:0000000000021535 .LASF4863
C:\Users\SOLDER~1\AppData\Local\Temp\ccbih9yx.s:19445  .debug_str:000000000000436b .LASF4864
C:\Users\SOLDER~1\AppData\Local\Temp\ccbih9yx.s:26893  .debug_str:0000000000022922 .LASF4865
C:\Users\SOLDER~1\AppData\Local\Temp\ccbih9yx.s:19275  .debug_str:00000000000038de .LASF4866
C:\Users\SOLDER~1\AppData\Local\Temp\ccbih9yx.s:19465  .debug_str:00000000000044b1 .LASF4867
C:\Users\SOLDER~1\AppData\Local\Temp\ccbih9yx.s:21865  .debug_str:000000000000e1fd .LASF4868
C:\Users\SOLDER~1\AppData\Local\Temp\ccbih9yx.s:28135  .debug_str:0000000000027b32 .LASF4869
C:\Users\SOLDER~1\AppData\Local\Temp\ccbih9yx.s:19489  .debug_str:0000000000004643 .LASF4870
C:\Users\SOLDER~1\AppData\Local\Temp\ccbih9yx.s:18545  .debug_str:00000000000009bb .LASF4871
C:\Users\SOLDER~1\AppData\Local\Temp\ccbih9yx.s:25995  .debug_str:000000000001eef3 .LASF4872
C:\Users\SOLDER~1\AppData\Local\Temp\ccbih9yx.s:21223  .debug_str:000000000000b715 .LASF4873
C:\Users\SOLDER~1\AppData\Local\Temp\ccbih9yx.s:27547  .debug_str:00000000000253af .LASF4874
C:\Users\SOLDER~1\AppData\Local\Temp\ccbih9yx.s:29535  .debug_str:000000000002d61d .LASF4875
C:\Users\SOLDER~1\AppData\Local\Temp\ccbih9yx.s:18985  .debug_str:000000000000260b .LASF4876
C:\Users\SOLDER~1\AppData\Local\Temp\ccbih9yx.s:19485  .debug_str:00000000000045f3 .LASF4877
C:\Users\SOLDER~1\AppData\Local\Temp\ccbih9yx.s:26445  .debug_str:0000000000020c44 .LASF4878
C:\Users\SOLDER~1\AppData\Local\Temp\ccbih9yx.s:28599  .debug_str:000000000002991f .LASF4879
C:\Users\SOLDER~1\AppData\Local\Temp\ccbih9yx.s:28119  .debug_str:0000000000027a1f .LASF4880
C:\Users\SOLDER~1\AppData\Local\Temp\ccbih9yx.s:27939  .debug_str:0000000000026eb5 .LASF4881
C:\Users\SOLDER~1\AppData\Local\Temp\ccbih9yx.s:28623  .debug_str:0000000000029aba .LASF4882
C:\Users\SOLDER~1\AppData\Local\Temp\ccbih9yx.s:23365  .debug_str:0000000000014447 .LASF4883
C:\Users\SOLDER~1\AppData\Local\Temp\ccbih9yx.s:28681  .debug_str:0000000000029eae .LASF4884
C:\Users\SOLDER~1\AppData\Local\Temp\ccbih9yx.s:26243  .debug_str:000000000001ff26 .LASF4885
C:\Users\SOLDER~1\AppData\Local\Temp\ccbih9yx.s:27319  .debug_str:000000000002450a .LASF4886
C:\Users\SOLDER~1\AppData\Local\Temp\ccbih9yx.s:23001  .debug_str:0000000000012b36 .LASF4887
C:\Users\SOLDER~1\AppData\Local\Temp\ccbih9yx.s:18865  .debug_str:0000000000001e49 .LASF4888
C:\Users\SOLDER~1\AppData\Local\Temp\ccbih9yx.s:19681  .debug_str:0000000000005235 .LASF4889
C:\Users\SOLDER~1\AppData\Local\Temp\ccbih9yx.s:26605  .debug_str:00000000000216d8 .LASF4890
C:\Users\SOLDER~1\AppData\Local\Temp\ccbih9yx.s:27827  .debug_str:000000000002673d .LASF4891
C:\Users\SOLDER~1\AppData\Local\Temp\ccbih9yx.s:22559  .debug_str:0000000000010ea9 .LASF4892
C:\Users\SOLDER~1\AppData\Local\Temp\ccbih9yx.s:25741  .debug_str:000000000001de7a .LASF4893
C:\Users\SOLDER~1\AppData\Local\Temp\ccbih9yx.s:25067  .debug_str:000000000001b21e .LASF4894
C:\Users\SOLDER~1\AppData\Local\Temp\ccbih9yx.s:22437  .debug_str:00000000000106df .LASF4895
C:\Users\SOLDER~1\AppData\Local\Temp\ccbih9yx.s:29343  .debug_str:000000000002c98e .LASF4896
C:\Users\SOLDER~1\AppData\Local\Temp\ccbih9yx.s:27653  .debug_str:0000000000025b1c .LASF4897
C:\Users\SOLDER~1\AppData\Local\Temp\ccbih9yx.s:21755  .debug_str:000000000000da4b .LASF4898
C:\Users\SOLDER~1\AppData\Local\Temp\ccbih9yx.s:29597  .debug_str:000000000002da15 .LASF4899
C:\Users\SOLDER~1\AppData\Local\Temp\ccbih9yx.s:20171  .debug_str:000000000000727d .LASF4900
C:\Users\SOLDER~1\AppData\Local\Temp\ccbih9yx.s:24503  .debug_str:0000000000018e03 .LASF4901
C:\Users\SOLDER~1\AppData\Local\Temp\ccbih9yx.s:21491  .debug_str:000000000000c962 .LASF4902
C:\Users\SOLDER~1\AppData\Local\Temp\ccbih9yx.s:27641  .debug_str:0000000000025a45 .LASF4903
C:\Users\SOLDER~1\AppData\Local\Temp\ccbih9yx.s:28025  .debug_str:0000000000027460 .LASF4904
C:\Users\SOLDER~1\AppData\Local\Temp\ccbih9yx.s:25659  .debug_str:000000000001d8dd .LASF4905
C:\Users\SOLDER~1\AppData\Local\Temp\ccbih9yx.s:26115  .debug_str:000000000001f72b .LASF4906
C:\Users\SOLDER~1\AppData\Local\Temp\ccbih9yx.s:26271  .debug_str:00000000000200f6 .LASF4907
GAS LISTING C:\Users\SOLDER~1\AppData\Local\Temp\ccbih9yx.s 			page 97


C:\Users\SOLDER~1\AppData\Local\Temp\ccbih9yx.s:27427  .debug_str:0000000000024c3c .LASF4908
C:\Users\SOLDER~1\AppData\Local\Temp\ccbih9yx.s:26797  .debug_str:00000000000222a1 .LASF4909
C:\Users\SOLDER~1\AppData\Local\Temp\ccbih9yx.s:20275  .debug_str:00000000000078e2 .LASF4910
C:\Users\SOLDER~1\AppData\Local\Temp\ccbih9yx.s:21499  .debug_str:000000000000c9ef .LASF4911
C:\Users\SOLDER~1\AppData\Local\Temp\ccbih9yx.s:23743  .debug_str:0000000000015cfe .LASF4912
C:\Users\SOLDER~1\AppData\Local\Temp\ccbih9yx.s:27367  .debug_str:0000000000024850 .LASF4913
C:\Users\SOLDER~1\AppData\Local\Temp\ccbih9yx.s:28235  .debug_str:00000000000281f1 .LASF4914
C:\Users\SOLDER~1\AppData\Local\Temp\ccbih9yx.s:22643  .debug_str:0000000000011429 .LASF4915
C:\Users\SOLDER~1\AppData\Local\Temp\ccbih9yx.s:18583  .debug_str:0000000000000c52 .LASF4916
C:\Users\SOLDER~1\AppData\Local\Temp\ccbih9yx.s:24937  .debug_str:000000000001a9ad .LASF4917
C:\Users\SOLDER~1\AppData\Local\Temp\ccbih9yx.s:27185  .debug_str:0000000000023c3c .LASF4918
C:\Users\SOLDER~1\AppData\Local\Temp\ccbih9yx.s:27463  .debug_str:0000000000024e86 .LASF4919
C:\Users\SOLDER~1\AppData\Local\Temp\ccbih9yx.s:23517  .debug_str:0000000000014e56 .LASF4920
C:\Users\SOLDER~1\AppData\Local\Temp\ccbih9yx.s:27603  .debug_str:000000000002579c .LASF4921
C:\Users\SOLDER~1\AppData\Local\Temp\ccbih9yx.s:28419  .debug_str:0000000000028da0 .LASF4922
C:\Users\SOLDER~1\AppData\Local\Temp\ccbih9yx.s:21213  .debug_str:000000000000b67c .LASF4923
C:\Users\SOLDER~1\AppData\Local\Temp\ccbih9yx.s:19407  .debug_str:0000000000004120 .LASF4924
C:\Users\SOLDER~1\AppData\Local\Temp\ccbih9yx.s:25081  .debug_str:000000000001b310 .LASF4925
C:\Users\SOLDER~1\AppData\Local\Temp\ccbih9yx.s:26241  .debug_str:000000000001ff03 .LASF4926
C:\Users\SOLDER~1\AppData\Local\Temp\ccbih9yx.s:22801  .debug_str:0000000000011e59 .LASF4927
C:\Users\SOLDER~1\AppData\Local\Temp\ccbih9yx.s:29759  .debug_str:000000000002e43f .LASF4928
C:\Users\SOLDER~1\AppData\Local\Temp\ccbih9yx.s:21915  .debug_str:000000000000e50e .LASF4929
C:\Users\SOLDER~1\AppData\Local\Temp\ccbih9yx.s:28625  .debug_str:0000000000029ae9 .LASF4930
C:\Users\SOLDER~1\AppData\Local\Temp\ccbih9yx.s:29435  .debug_str:000000000002cfd0 .LASF4931
C:\Users\SOLDER~1\AppData\Local\Temp\ccbih9yx.s:25501  .debug_str:000000000001cee3 .LASF4932
C:\Users\SOLDER~1\AppData\Local\Temp\ccbih9yx.s:28913  .debug_str:000000000002ad94 .LASF4933
C:\Users\SOLDER~1\AppData\Local\Temp\ccbih9yx.s:25583  .debug_str:000000000001d474 .LASF4934
C:\Users\SOLDER~1\AppData\Local\Temp\ccbih9yx.s:26215  .debug_str:000000000001fd53 .LASF4935
C:\Users\SOLDER~1\AppData\Local\Temp\ccbih9yx.s:24515  .debug_str:0000000000018ecc .LASF4936
C:\Users\SOLDER~1\AppData\Local\Temp\ccbih9yx.s:20283  .debug_str:000000000000796f .LASF4937
C:\Users\SOLDER~1\AppData\Local\Temp\ccbih9yx.s:22941  .debug_str:0000000000012722 .LASF4938
C:\Users\SOLDER~1\AppData\Local\Temp\ccbih9yx.s:22841  .debug_str:00000000000120d4 .LASF4939
C:\Users\SOLDER~1\AppData\Local\Temp\ccbih9yx.s:23875  .debug_str:0000000000016548 .LASF4940
C:\Users\SOLDER~1\AppData\Local\Temp\ccbih9yx.s:25851  .debug_str:000000000001e576 .LASF4941
C:\Users\SOLDER~1\AppData\Local\Temp\ccbih9yx.s:27483  .debug_str:0000000000024fed .LASF4942
C:\Users\SOLDER~1\AppData\Local\Temp\ccbih9yx.s:26915  .debug_str:0000000000022ab8 .LASF4943
C:\Users\SOLDER~1\AppData\Local\Temp\ccbih9yx.s:26349  .debug_str:0000000000020625 .LASF4944
C:\Users\SOLDER~1\AppData\Local\Temp\ccbih9yx.s:26639  .debug_str:0000000000021908 .LASF4945
C:\Users\SOLDER~1\AppData\Local\Temp\ccbih9yx.s:21937  .debug_str:000000000000e687 .LASF4946
C:\Users\SOLDER~1\AppData\Local\Temp\ccbih9yx.s:22995  .debug_str:0000000000012ab3 .LASF4947
C:\Users\SOLDER~1\AppData\Local\Temp\ccbih9yx.s:22877  .debug_str:000000000001230f .LASF4948
C:\Users\SOLDER~1\AppData\Local\Temp\ccbih9yx.s:21617  .debug_str:000000000000d181 .LASF4949
C:\Users\SOLDER~1\AppData\Local\Temp\ccbih9yx.s:28333  .debug_str:000000000002885c .LASF4950
C:\Users\SOLDER~1\AppData\Local\Temp\ccbih9yx.s:18947  .debug_str:00000000000023b8 .LASF4951
C:\Users\SOLDER~1\AppData\Local\Temp\ccbih9yx.s:28205  .debug_str:0000000000028010 .LASF4952
C:\Users\SOLDER~1\AppData\Local\Temp\ccbih9yx.s:23591  .debug_str:00000000000152fe .LASF4953
C:\Users\SOLDER~1\AppData\Local\Temp\ccbih9yx.s:21227  .debug_str:000000000000b767 .LASF4954
C:\Users\SOLDER~1\AppData\Local\Temp\ccbih9yx.s:22335  .debug_str:000000000001007a .LASF4955
C:\Users\SOLDER~1\AppData\Local\Temp\ccbih9yx.s:29489  .debug_str:000000000002d34a .LASF4956
C:\Users\SOLDER~1\AppData\Local\Temp\ccbih9yx.s:23545  .debug_str:0000000000015007 .LASF4957
C:\Users\SOLDER~1\AppData\Local\Temp\ccbih9yx.s:19941  .debug_str:000000000000632b .LASF4958
C:\Users\SOLDER~1\AppData\Local\Temp\ccbih9yx.s:25643  .debug_str:000000000001d812 .LASF4959
C:\Users\SOLDER~1\AppData\Local\Temp\ccbih9yx.s:20809  .debug_str:0000000000009bd9 .LASF4960
C:\Users\SOLDER~1\AppData\Local\Temp\ccbih9yx.s:24865  .debug_str:000000000001a50f .LASF4961
C:\Users\SOLDER~1\AppData\Local\Temp\ccbih9yx.s:22371  .debug_str:00000000000102ea .LASF4962
C:\Users\SOLDER~1\AppData\Local\Temp\ccbih9yx.s:20799  .debug_str:0000000000009b33 .LASF4963
C:\Users\SOLDER~1\AppData\Local\Temp\ccbih9yx.s:23849  .debug_str:00000000000163b2 .LASF4964
GAS LISTING C:\Users\SOLDER~1\AppData\Local\Temp\ccbih9yx.s 			page 98


C:\Users\SOLDER~1\AppData\Local\Temp\ccbih9yx.s:21129  .debug_str:000000000000b104 .LASF4965
C:\Users\SOLDER~1\AppData\Local\Temp\ccbih9yx.s:18755  .debug_str:0000000000001755 .LASF4966
C:\Users\SOLDER~1\AppData\Local\Temp\ccbih9yx.s:20941  .debug_str:000000000000a4b2 .LASF4967
C:\Users\SOLDER~1\AppData\Local\Temp\ccbih9yx.s:21337  .debug_str:000000000000be96 .LASF4968
C:\Users\SOLDER~1\AppData\Local\Temp\ccbih9yx.s:27465  .debug_str:0000000000024ea9 .LASF4969
C:\Users\SOLDER~1\AppData\Local\Temp\ccbih9yx.s:24461  .debug_str:0000000000018b0d .LASF4970
C:\Users\SOLDER~1\AppData\Local\Temp\ccbih9yx.s:24913  .debug_str:000000000001a85a .LASF4971
C:\Users\SOLDER~1\AppData\Local\Temp\ccbih9yx.s:19479  .debug_str:0000000000004598 .LASF4972
C:\Users\SOLDER~1\AppData\Local\Temp\ccbih9yx.s:26077  .debug_str:000000000001f48b .LASF4973
C:\Users\SOLDER~1\AppData\Local\Temp\ccbih9yx.s:22753  .debug_str:0000000000011b57 .LASF4974
C:\Users\SOLDER~1\AppData\Local\Temp\ccbih9yx.s:18705  .debug_str:000000000000141a .LASF4975
C:\Users\SOLDER~1\AppData\Local\Temp\ccbih9yx.s:19277  .debug_str:0000000000003906 .LASF4976
C:\Users\SOLDER~1\AppData\Local\Temp\ccbih9yx.s:22573  .debug_str:0000000000010f8d .LASF4977
C:\Users\SOLDER~1\AppData\Local\Temp\ccbih9yx.s:19045  .debug_str:0000000000002a32 .LASF4978
C:\Users\SOLDER~1\AppData\Local\Temp\ccbih9yx.s:19951  .debug_str:00000000000063df .LASF4979
C:\Users\SOLDER~1\AppData\Local\Temp\ccbih9yx.s:25379  .debug_str:000000000001c696 .LASF4980
C:\Users\SOLDER~1\AppData\Local\Temp\ccbih9yx.s:29885  .debug_str:000000000002ec64 .LASF4981
C:\Users\SOLDER~1\AppData\Local\Temp\ccbih9yx.s:29835  .debug_str:000000000002e966 .LASF4982
C:\Users\SOLDER~1\AppData\Local\Temp\ccbih9yx.s:28771  .debug_str:000000000002a4bd .LASF4983
C:\Users\SOLDER~1\AppData\Local\Temp\ccbih9yx.s:26095  .debug_str:000000000001f5e3 .LASF4984
C:\Users\SOLDER~1\AppData\Local\Temp\ccbih9yx.s:26317  .debug_str:000000000002040f .LASF4985
C:\Users\SOLDER~1\AppData\Local\Temp\ccbih9yx.s:26403  .debug_str:00000000000209a8 .LASF4986
C:\Users\SOLDER~1\AppData\Local\Temp\ccbih9yx.s:26907  .debug_str:0000000000022a20 .LASF4987
C:\Users\SOLDER~1\AppData\Local\Temp\ccbih9yx.s:28527  .debug_str:00000000000294c9 .LASF4988
C:\Users\SOLDER~1\AppData\Local\Temp\ccbih9yx.s:23093  .debug_str:000000000001312f .LASF4989
C:\Users\SOLDER~1\AppData\Local\Temp\ccbih9yx.s:24203  .debug_str:0000000000017a30 .LASF4990
C:\Users\SOLDER~1\AppData\Local\Temp\ccbih9yx.s:19141  .debug_str:000000000000303a .LASF4991
C:\Users\SOLDER~1\AppData\Local\Temp\ccbih9yx.s:26933  .debug_str:0000000000022be7 .LASF4992
C:\Users\SOLDER~1\AppData\Local\Temp\ccbih9yx.s:28863  .debug_str:000000000002aa85 .LASF4993
C:\Users\SOLDER~1\AppData\Local\Temp\ccbih9yx.s:27227  .debug_str:0000000000023ee9 .LASF4994
C:\Users\SOLDER~1\AppData\Local\Temp\ccbih9yx.s:22805  .debug_str:0000000000011e93 .LASF4995
C:\Users\SOLDER~1\AppData\Local\Temp\ccbih9yx.s:27289  .debug_str:0000000000024308 .LASF4996
C:\Users\SOLDER~1\AppData\Local\Temp\ccbih9yx.s:29029  .debug_str:000000000002b56d .LASF4997
C:\Users\SOLDER~1\AppData\Local\Temp\ccbih9yx.s:23259  .debug_str:0000000000013cf8 .LASF4998
C:\Users\SOLDER~1\AppData\Local\Temp\ccbih9yx.s:20879  .debug_str:000000000000a0a0 .LASF4999
C:\Users\SOLDER~1\AppData\Local\Temp\ccbih9yx.s:28033  .debug_str:00000000000274bf .LASF5000
C:\Users\SOLDER~1\AppData\Local\Temp\ccbih9yx.s:27607  .debug_str:00000000000257f2 .LASF5001
C:\Users\SOLDER~1\AppData\Local\Temp\ccbih9yx.s:26867  .debug_str:0000000000022755 .LASF5002
C:\Users\SOLDER~1\AppData\Local\Temp\ccbih9yx.s:25305  .debug_str:000000000001c18d .LASF5003
C:\Users\SOLDER~1\AppData\Local\Temp\ccbih9yx.s:22281  .debug_str:000000000000fd1e .LASF5004
C:\Users\SOLDER~1\AppData\Local\Temp\ccbih9yx.s:27051  .debug_str:00000000000233a8 .LASF5005
C:\Users\SOLDER~1\AppData\Local\Temp\ccbih9yx.s:28137  .debug_str:0000000000027b5a .LASF5006
C:\Users\SOLDER~1\AppData\Local\Temp\ccbih9yx.s:21081  .debug_str:000000000000ae1c .LASF5007
C:\Users\SOLDER~1\AppData\Local\Temp\ccbih9yx.s:24149  .debug_str:00000000000176bd .LASF5008
C:\Users\SOLDER~1\AppData\Local\Temp\ccbih9yx.s:23755  .debug_str:0000000000015db1 .LASF5009
C:\Users\SOLDER~1\AppData\Local\Temp\ccbih9yx.s:27359  .debug_str:00000000000247ab .LASF5010
C:\Users\SOLDER~1\AppData\Local\Temp\ccbih9yx.s:28211  .debug_str:0000000000028079 .LASF5011
C:\Users\SOLDER~1\AppData\Local\Temp\ccbih9yx.s:23325  .debug_str:0000000000014178 .LASF5012
C:\Users\SOLDER~1\AppData\Local\Temp\ccbih9yx.s:21589  .debug_str:000000000000cfbd .LASF5013
C:\Users\SOLDER~1\AppData\Local\Temp\ccbih9yx.s:28587  .debug_str:0000000000029869 .LASF5014
C:\Users\SOLDER~1\AppData\Local\Temp\ccbih9yx.s:23287  .debug_str:0000000000013ed9 .LASF5015
C:\Users\SOLDER~1\AppData\Local\Temp\ccbih9yx.s:27231  .debug_str:0000000000023f3c .LASF5016
C:\Users\SOLDER~1\AppData\Local\Temp\ccbih9yx.s:23367  .debug_str:000000000001447a .LASF5017
C:\Users\SOLDER~1\AppData\Local\Temp\ccbih9yx.s:24039  .debug_str:0000000000016f5c .LASF5018
C:\Users\SOLDER~1\AppData\Local\Temp\ccbih9yx.s:23631  .debug_str:00000000000155d2 .LASF5019
C:\Users\SOLDER~1\AppData\Local\Temp\ccbih9yx.s:24699  .debug_str:0000000000019aad .LASF5020
C:\Users\SOLDER~1\AppData\Local\Temp\ccbih9yx.s:21469  .debug_str:000000000000c7b8 .LASF5021
GAS LISTING C:\Users\SOLDER~1\AppData\Local\Temp\ccbih9yx.s 			page 99


C:\Users\SOLDER~1\AppData\Local\Temp\ccbih9yx.s:27965  .debug_str:0000000000027060 .LASF5022
C:\Users\SOLDER~1\AppData\Local\Temp\ccbih9yx.s:28989  .debug_str:000000000002b2d3 .LASF5023
C:\Users\SOLDER~1\AppData\Local\Temp\ccbih9yx.s:26291  .debug_str:000000000002023f .LASF5024
C:\Users\SOLDER~1\AppData\Local\Temp\ccbih9yx.s:23085  .debug_str:0000000000013092 .LASF5025
C:\Users\SOLDER~1\AppData\Local\Temp\ccbih9yx.s:22797  .debug_str:0000000000011e0a .LASF5026
C:\Users\SOLDER~1\AppData\Local\Temp\ccbih9yx.s:26283  .debug_str:00000000000201ba .LASF5027
C:\Users\SOLDER~1\AppData\Local\Temp\ccbih9yx.s:23427  .debug_str:0000000000014867 .LASF5028
C:\Users\SOLDER~1\AppData\Local\Temp\ccbih9yx.s:24991  .debug_str:000000000001ad7b .LASF5029
C:\Users\SOLDER~1\AppData\Local\Temp\ccbih9yx.s:22315  .debug_str:000000000000ff5d .LASF5030
C:\Users\SOLDER~1\AppData\Local\Temp\ccbih9yx.s:27859  .debug_str:000000000002695e .LASF5031
C:\Users\SOLDER~1\AppData\Local\Temp\ccbih9yx.s:26087  .debug_str:000000000001f561 .LASF5032
C:\Users\SOLDER~1\AppData\Local\Temp\ccbih9yx.s:18939  .debug_str:000000000000231e .LASF5033
C:\Users\SOLDER~1\AppData\Local\Temp\ccbih9yx.s:18693  .debug_str:000000000000134b .LASF5034
C:\Users\SOLDER~1\AppData\Local\Temp\ccbih9yx.s:19785  .debug_str:00000000000058f9 .LASF5035
C:\Users\SOLDER~1\AppData\Local\Temp\ccbih9yx.s:22333  .debug_str:000000000001005c .LASF5036
C:\Users\SOLDER~1\AppData\Local\Temp\ccbih9yx.s:22857  .debug_str:00000000000121e3 .LASF5037
C:\Users\SOLDER~1\AppData\Local\Temp\ccbih9yx.s:28359  .debug_str:00000000000289fb .LASF5038
C:\Users\SOLDER~1\AppData\Local\Temp\ccbih9yx.s:25151  .debug_str:000000000001b777 .LASF5039
C:\Users\SOLDER~1\AppData\Local\Temp\ccbih9yx.s:23107  .debug_str:0000000000013241 .LASF5040
C:\Users\SOLDER~1\AppData\Local\Temp\ccbih9yx.s:26613  .debug_str:0000000000021745 .LASF5041
C:\Users\SOLDER~1\AppData\Local\Temp\ccbih9yx.s:24363  .debug_str:00000000000184a6 .LASF5042
C:\Users\SOLDER~1\AppData\Local\Temp\ccbih9yx.s:26121  .debug_str:000000000001f79d .LASF5043
C:\Users\SOLDER~1\AppData\Local\Temp\ccbih9yx.s:24413  .debug_str:00000000000187f2 .LASF5044
C:\Users\SOLDER~1\AppData\Local\Temp\ccbih9yx.s:23153  .debug_str:0000000000013563 .LASF5045
C:\Users\SOLDER~1\AppData\Local\Temp\ccbih9yx.s:20693  .debug_str:00000000000094a1 .LASF5046
C:\Users\SOLDER~1\AppData\Local\Temp\ccbih9yx.s:27173  .debug_str:0000000000023b76 .LASF5047
C:\Users\SOLDER~1\AppData\Local\Temp\ccbih9yx.s:28307  .debug_str:00000000000286b8 .LASF5048
C:\Users\SOLDER~1\AppData\Local\Temp\ccbih9yx.s:26525  .debug_str:00000000000211b3 .LASF5049
C:\Users\SOLDER~1\AppData\Local\Temp\ccbih9yx.s:26523  .debug_str:0000000000021194 .LASF5050
C:\Users\SOLDER~1\AppData\Local\Temp\ccbih9yx.s:18597  .debug_str:0000000000000d63 .LASF5051
C:\Users\SOLDER~1\AppData\Local\Temp\ccbih9yx.s:29891  .debug_str:000000000002ecbd .LASF5052
C:\Users\SOLDER~1\AppData\Local\Temp\ccbih9yx.s:25485  .debug_str:000000000001cde3 .LASF5053
C:\Users\SOLDER~1\AppData\Local\Temp\ccbih9yx.s:20827  .debug_str:0000000000009d1b .LASF5054
C:\Users\SOLDER~1\AppData\Local\Temp\ccbih9yx.s:23119  .debug_str:00000000000132ef .LASF5055
C:\Users\SOLDER~1\AppData\Local\Temp\ccbih9yx.s:29115  .debug_str:000000000002babb .LASF5056
C:\Users\SOLDER~1\AppData\Local\Temp\ccbih9yx.s:20871  .debug_str:000000000000a00a .LASF5057
C:\Users\SOLDER~1\AppData\Local\Temp\ccbih9yx.s:22771  .debug_str:0000000000011c8c .LASF5058
C:\Users\SOLDER~1\AppData\Local\Temp\ccbih9yx.s:28655  .debug_str:0000000000029d11 .LASF5059
C:\Users\SOLDER~1\AppData\Local\Temp\ccbih9yx.s:23261  .debug_str:0000000000013d26 .LASF5060
C:\Users\SOLDER~1\AppData\Local\Temp\ccbih9yx.s:18785  .debug_str:00000000000018f2 .LASF5061
C:\Users\SOLDER~1\AppData\Local\Temp\ccbih9yx.s:23927  .debug_str:0000000000016863 .LASF5062
C:\Users\SOLDER~1\AppData\Local\Temp\ccbih9yx.s:21827  .debug_str:000000000000df1d .LASF5063
C:\Users\SOLDER~1\AppData\Local\Temp\ccbih9yx.s:21123  .debug_str:000000000000b099 .LASF5064
C:\Users\SOLDER~1\AppData\Local\Temp\ccbih9yx.s:21473  .debug_str:000000000000c7fd .LASF5065
C:\Users\SOLDER~1\AppData\Local\Temp\ccbih9yx.s:18537  .debug_str:0000000000000930 .LASF5066
C:\Users\SOLDER~1\AppData\Local\Temp\ccbih9yx.s:27369  .debug_str:0000000000024873 .LASF5067
C:\Users\SOLDER~1\AppData\Local\Temp\ccbih9yx.s:19107  .debug_str:0000000000002dfd .LASF5068
C:\Users\SOLDER~1\AppData\Local\Temp\ccbih9yx.s:21009  .debug_str:000000000000a980 .LASF5069
C:\Users\SOLDER~1\AppData\Local\Temp\ccbih9yx.s:20329  .debug_str:0000000000007c81 .LASF5070
C:\Users\SOLDER~1\AppData\Local\Temp\ccbih9yx.s:22651  .debug_str:00000000000114c5 .LASF5071
C:\Users\SOLDER~1\AppData\Local\Temp\ccbih9yx.s:25223  .debug_str:000000000001bbf6 .LASF5072
C:\Users\SOLDER~1\AppData\Local\Temp\ccbih9yx.s:21273  .debug_str:000000000000ba7f .LASF5073
C:\Users\SOLDER~1\AppData\Local\Temp\ccbih9yx.s:23189  .debug_str:00000000000137bb .LASF5074
C:\Users\SOLDER~1\AppData\Local\Temp\ccbih9yx.s:20575  .debug_str:0000000000008c88 .LASF5075
C:\Users\SOLDER~1\AppData\Local\Temp\ccbih9yx.s:28199  .debug_str:0000000000027f9d .LASF5076
C:\Users\SOLDER~1\AppData\Local\Temp\ccbih9yx.s:22751  .debug_str:0000000000011b28 .LASF5077
C:\Users\SOLDER~1\AppData\Local\Temp\ccbih9yx.s:26569  .debug_str:0000000000021473 .LASF5078
GAS LISTING C:\Users\SOLDER~1\AppData\Local\Temp\ccbih9yx.s 			page 100


C:\Users\SOLDER~1\AppData\Local\Temp\ccbih9yx.s:18833  .debug_str:0000000000001c22 .LASF5079
C:\Users\SOLDER~1\AppData\Local\Temp\ccbih9yx.s:26937  .debug_str:0000000000022c22 .LASF5080
C:\Users\SOLDER~1\AppData\Local\Temp\ccbih9yx.s:22705  .debug_str:000000000001183b .LASF5081
C:\Users\SOLDER~1\AppData\Local\Temp\ccbih9yx.s:20659  .debug_str:000000000000925e .LASF5082
C:\Users\SOLDER~1\AppData\Local\Temp\ccbih9yx.s:20385  .debug_str:0000000000008033 .LASF5083
C:\Users\SOLDER~1\AppData\Local\Temp\ccbih9yx.s:25551  .debug_str:000000000001d247 .LASF5084
C:\Users\SOLDER~1\AppData\Local\Temp\ccbih9yx.s:27771  .debug_str:0000000000026383 .LASF5085
C:\Users\SOLDER~1\AppData\Local\Temp\ccbih9yx.s:29811  .debug_str:000000000002e7ca .LASF5086
C:\Users\SOLDER~1\AppData\Local\Temp\ccbih9yx.s:21173  .debug_str:000000000000b410 .LASF5087
C:\Users\SOLDER~1\AppData\Local\Temp\ccbih9yx.s:20829  .debug_str:0000000000009d42 .LASF5088
C:\Users\SOLDER~1\AppData\Local\Temp\ccbih9yx.s:20549  .debug_str:0000000000008acb .LASF5089
C:\Users\SOLDER~1\AppData\Local\Temp\ccbih9yx.s:27155  .debug_str:0000000000023a37 .LASF5090
C:\Users\SOLDER~1\AppData\Local\Temp\ccbih9yx.s:20825  .debug_str:0000000000009cee .LASF5091
C:\Users\SOLDER~1\AppData\Local\Temp\ccbih9yx.s:25049  .debug_str:000000000001b0f7 .LASF5092
C:\Users\SOLDER~1\AppData\Local\Temp\ccbih9yx.s:21277  .debug_str:000000000000bace .LASF5093
C:\Users\SOLDER~1\AppData\Local\Temp\ccbih9yx.s:20641  .debug_str:000000000000913d .LASF5094
C:\Users\SOLDER~1\AppData\Local\Temp\ccbih9yx.s:28181  .debug_str:0000000000027e60 .LASF5095
C:\Users\SOLDER~1\AppData\Local\Temp\ccbih9yx.s:23385  .debug_str:000000000001459f .LASF5096
C:\Users\SOLDER~1\AppData\Local\Temp\ccbih9yx.s:28323  .debug_str:00000000000287d4 .LASF5097
C:\Users\SOLDER~1\AppData\Local\Temp\ccbih9yx.s:25071  .debug_str:000000000001b264 .LASF5098
C:\Users\SOLDER~1\AppData\Local\Temp\ccbih9yx.s:20387  .debug_str:0000000000008061 .LASF5099
C:\Users\SOLDER~1\AppData\Local\Temp\ccbih9yx.s:22011  .debug_str:000000000000eb22 .LASF5100
C:\Users\SOLDER~1\AppData\Local\Temp\ccbih9yx.s:18591  .debug_str:0000000000000ce4 .LASF5101
C:\Users\SOLDER~1\AppData\Local\Temp\ccbih9yx.s:25167  .debug_str:000000000001b84b .LASF5102
C:\Users\SOLDER~1\AppData\Local\Temp\ccbih9yx.s:27237  .debug_str:0000000000023f8c .LASF5103
C:\Users\SOLDER~1\AppData\Local\Temp\ccbih9yx.s:18781  .debug_str:00000000000018a7 .LASF5104
C:\Users\SOLDER~1\AppData\Local\Temp\ccbih9yx.s:26147  .debug_str:000000000001f932 .LASF5105
C:\Users\SOLDER~1\AppData\Local\Temp\ccbih9yx.s:19303  .debug_str:0000000000003ab4 .LASF5106
C:\Users\SOLDER~1\AppData\Local\Temp\ccbih9yx.s:19229  .debug_str:00000000000035db .LASF5107
C:\Users\SOLDER~1\AppData\Local\Temp\ccbih9yx.s:27615  .debug_str:0000000000025892 .LASF5108
C:\Users\SOLDER~1\AppData\Local\Temp\ccbih9yx.s:25417  .debug_str:000000000001c917 .LASF5109
C:\Users\SOLDER~1\AppData\Local\Temp\ccbih9yx.s:22855  .debug_str:00000000000121c3 .LASF5110
C:\Users\SOLDER~1\AppData\Local\Temp\ccbih9yx.s:28395  .debug_str:0000000000028c22 .LASF5111
C:\Users\SOLDER~1\AppData\Local\Temp\ccbih9yx.s:22377  .debug_str:000000000001035f .LASF5112
C:\Users\SOLDER~1\AppData\Local\Temp\ccbih9yx.s:20053  .debug_str:0000000000006a9d .LASF5113
C:\Users\SOLDER~1\AppData\Local\Temp\ccbih9yx.s:24985  .debug_str:000000000001ad1c .LASF5114
C:\Users\SOLDER~1\AppData\Local\Temp\ccbih9yx.s:21239  .debug_str:000000000000b83f .LASF5115
C:\Users\SOLDER~1\AppData\Local\Temp\ccbih9yx.s:25171  .debug_str:000000000001b898 .LASF5116
C:\Users\SOLDER~1\AppData\Local\Temp\ccbih9yx.s:22137  .debug_str:000000000000f325 .LASF5117
C:\Users\SOLDER~1\AppData\Local\Temp\ccbih9yx.s:22353  .debug_str:000000000001019d .LASF5118
C:\Users\SOLDER~1\AppData\Local\Temp\ccbih9yx.s:22101  .debug_str:000000000000f0ec .LASF5119
C:\Users\SOLDER~1\AppData\Local\Temp\ccbih9yx.s:29881  .debug_str:000000000002ec1f .LASF5120
C:\Users\SOLDER~1\AppData\Local\Temp\ccbih9yx.s:21571  .debug_str:000000000000ce74 .LASF5121
C:\Users\SOLDER~1\AppData\Local\Temp\ccbih9yx.s:22247  .debug_str:000000000000fab5 .LASF5122
C:\Users\SOLDER~1\AppData\Local\Temp\ccbih9yx.s:19399  .debug_str:0000000000004082 .LASF5123
C:\Users\SOLDER~1\AppData\Local\Temp\ccbih9yx.s:27991  .debug_str:0000000000027225 .LASF5124
C:\Users\SOLDER~1\AppData\Local\Temp\ccbih9yx.s:29049  .debug_str:000000000002b6a1 .LASF5125
C:\Users\SOLDER~1\AppData\Local\Temp\ccbih9yx.s:19813  .debug_str:0000000000005ada .LASF5126
C:\Users\SOLDER~1\AppData\Local\Temp\ccbih9yx.s:24263  .debug_str:0000000000017e36 .LASF5127
C:\Users\SOLDER~1\AppData\Local\Temp\ccbih9yx.s:25015  .debug_str:000000000001af09 .LASF5128
C:\Users\SOLDER~1\AppData\Local\Temp\ccbih9yx.s:24013  .debug_str:0000000000016d93 .LASF5129
C:\Users\SOLDER~1\AppData\Local\Temp\ccbih9yx.s:24331  .debug_str:00000000000182bf .LASF5130
C:\Users\SOLDER~1\AppData\Local\Temp\ccbih9yx.s:23007  .debug_str:0000000000012bb0 .LASF5131
C:\Users\SOLDER~1\AppData\Local\Temp\ccbih9yx.s:28571  .debug_str:0000000000029787 .LASF5132
C:\Users\SOLDER~1\AppData\Local\Temp\ccbih9yx.s:26655  .debug_str:0000000000021a13 .LASF5133
C:\Users\SOLDER~1\AppData\Local\Temp\ccbih9yx.s:26689  .debug_str:0000000000021c1f .LASF5134
C:\Users\SOLDER~1\AppData\Local\Temp\ccbih9yx.s:27989  .debug_str:00000000000271f4 .LASF5135
GAS LISTING C:\Users\SOLDER~1\AppData\Local\Temp\ccbih9yx.s 			page 101


C:\Users\SOLDER~1\AppData\Local\Temp\ccbih9yx.s:29865  .debug_str:000000000002eb2e .LASF5136
C:\Users\SOLDER~1\AppData\Local\Temp\ccbih9yx.s:29797  .debug_str:000000000002e6e5 .LASF5137
C:\Users\SOLDER~1\AppData\Local\Temp\ccbih9yx.s:23975  .debug_str:0000000000016b82 .LASF5138
C:\Users\SOLDER~1\AppData\Local\Temp\ccbih9yx.s:23379  .debug_str:0000000000014538 .LASF5139
C:\Users\SOLDER~1\AppData\Local\Temp\ccbih9yx.s:23219  .debug_str:0000000000013a2d .LASF5140
C:\Users\SOLDER~1\AppData\Local\Temp\ccbih9yx.s:28041  .debug_str:0000000000027552 .LASF5141
C:\Users\SOLDER~1\AppData\Local\Temp\ccbih9yx.s:24275  .debug_str:0000000000017f17 .LASF5142
C:\Users\SOLDER~1\AppData\Local\Temp\ccbih9yx.s:18715  .debug_str:00000000000014d1 .LASF5143
C:\Users\SOLDER~1\AppData\Local\Temp\ccbih9yx.s:26367  .debug_str:0000000000020758 .LASF5144
C:\Users\SOLDER~1\AppData\Local\Temp\ccbih9yx.s:25467  .debug_str:000000000001cc8f .LASF5145
C:\Users\SOLDER~1\AppData\Local\Temp\ccbih9yx.s:21083  .debug_str:000000000000ae4a .LASF5146
C:\Users\SOLDER~1\AppData\Local\Temp\ccbih9yx.s:27925  .debug_str:0000000000026dbd .LASF5147
C:\Users\SOLDER~1\AppData\Local\Temp\ccbih9yx.s:26829  .debug_str:00000000000224c8 .LASF5148
C:\Users\SOLDER~1\AppData\Local\Temp\ccbih9yx.s:23573  .debug_str:00000000000151dd .LASF5149
C:\Users\SOLDER~1\AppData\Local\Temp\ccbih9yx.s:27679  .debug_str:0000000000025cf8 .LASF5150
C:\Users\SOLDER~1\AppData\Local\Temp\ccbih9yx.s:22607  .debug_str:00000000000111b0 .LASF5151
C:\Users\SOLDER~1\AppData\Local\Temp\ccbih9yx.s:29563  .debug_str:000000000002d7f2 .LASF5152
C:\Users\SOLDER~1\AppData\Local\Temp\ccbih9yx.s:26091  .debug_str:000000000001f5a1 .LASF5153
C:\Users\SOLDER~1\AppData\Local\Temp\ccbih9yx.s:26959  .debug_str:0000000000022d90 .LASF5154
C:\Users\SOLDER~1\AppData\Local\Temp\ccbih9yx.s:28459  .debug_str:000000000002901e .LASF5155
C:\Users\SOLDER~1\AppData\Local\Temp\ccbih9yx.s:24551  .debug_str:000000000001910f .LASF5156
C:\Users\SOLDER~1\AppData\Local\Temp\ccbih9yx.s:25297  .debug_str:000000000001c0fe .LASF5157
C:\Users\SOLDER~1\AppData\Local\Temp\ccbih9yx.s:20581  .debug_str:0000000000008cf8 .LASF5158
C:\Users\SOLDER~1\AppData\Local\Temp\ccbih9yx.s:26143  .debug_str:000000000001f8ea .LASF5159
C:\Users\SOLDER~1\AppData\Local\Temp\ccbih9yx.s:28301  .debug_str:0000000000028647 .LASF5160
C:\Users\SOLDER~1\AppData\Local\Temp\ccbih9yx.s:26505  .debug_str:0000000000021062 .LASF5161
C:\Users\SOLDER~1\AppData\Local\Temp\ccbih9yx.s:18689  .debug_str:00000000000012f2 .LASF5162
C:\Users\SOLDER~1\AppData\Local\Temp\ccbih9yx.s:18409  .debug_str:0000000000000048 .LASF5163
C:\Users\SOLDER~1\AppData\Local\Temp\ccbih9yx.s:25153  .debug_str:000000000001b795 .LASF5164
C:\Users\SOLDER~1\AppData\Local\Temp\ccbih9yx.s:29529  .debug_str:000000000002d5b4 .LASF5165
C:\Users\SOLDER~1\AppData\Local\Temp\ccbih9yx.s:18437  .debug_str:00000000000001f5 .LASF5166
C:\Users\SOLDER~1\AppData\Local\Temp\ccbih9yx.s:20801  .debug_str:0000000000009b52 .LASF5167
C:\Users\SOLDER~1\AppData\Local\Temp\ccbih9yx.s:29905  .debug_str:000000000002ed98 .LASF5168
C:\Users\SOLDER~1\AppData\Local\Temp\ccbih9yx.s:22823  .debug_str:0000000000011fb1 .LASF5169
C:\Users\SOLDER~1\AppData\Local\Temp\ccbih9yx.s:24463  .debug_str:0000000000018b2c .LASF5170
C:\Users\SOLDER~1\AppData\Local\Temp\ccbih9yx.s:20331  .debug_str:0000000000007caf .LASF5171
C:\Users\SOLDER~1\AppData\Local\Temp\ccbih9yx.s:20341  .debug_str:0000000000007d51 .LASF5172
C:\Users\SOLDER~1\AppData\Local\Temp\ccbih9yx.s:25935  .debug_str:000000000001eb20 .LASF5173
C:\Users\SOLDER~1\AppData\Local\Temp\ccbih9yx.s:29523  .debug_str:000000000002d54a .LASF5174
C:\Users\SOLDER~1\AppData\Local\Temp\ccbih9yx.s:22509  .debug_str:0000000000010b75 .LASF5175
C:\Users\SOLDER~1\AppData\Local\Temp\ccbih9yx.s:20647  .debug_str:00000000000091a9 .LASF5176
C:\Users\SOLDER~1\AppData\Local\Temp\ccbih9yx.s:23263  .debug_str:0000000000013d51 .LASF5177
C:\Users\SOLDER~1\AppData\Local\Temp\ccbih9yx.s:26339  .debug_str:000000000002056b .LASF5178
C:\Users\SOLDER~1\AppData\Local\Temp\ccbih9yx.s:23853  .debug_str:00000000000163ea .LASF5179
C:\Users\SOLDER~1\AppData\Local\Temp\ccbih9yx.s:22237  .debug_str:000000000000fa05 .LASF5180
C:\Users\SOLDER~1\AppData\Local\Temp\ccbih9yx.s:29843  .debug_str:000000000002e9d8 .LASF5181
C:\Users\SOLDER~1\AppData\Local\Temp\ccbih9yx.s:21539  .debug_str:000000000000cc55 .LASF5182
C:\Users\SOLDER~1\AppData\Local\Temp\ccbih9yx.s:25961  .debug_str:000000000001eccb .LASF5183
C:\Users\SOLDER~1\AppData\Local\Temp\ccbih9yx.s:19111  .debug_str:0000000000002e41 .LASF5184
C:\Users\SOLDER~1\AppData\Local\Temp\ccbih9yx.s:22611  .debug_str:00000000000111f5 .LASF5185
C:\Users\SOLDER~1\AppData\Local\Temp\ccbih9yx.s:25733  .debug_str:000000000001dde1 .LASF5186
C:\Users\SOLDER~1\AppData\Local\Temp\ccbih9yx.s:23491  .debug_str:0000000000014cca .LASF5187
C:\Users\SOLDER~1\AppData\Local\Temp\ccbih9yx.s:27561  .debug_str:00000000000254bf .LASF5188
C:\Users\SOLDER~1\AppData\Local\Temp\ccbih9yx.s:25251  .debug_str:000000000001bddc .LASF5189
C:\Users\SOLDER~1\AppData\Local\Temp\ccbih9yx.s:21689  .debug_str:000000000000d637 .LASF5190
C:\Users\SOLDER~1\AppData\Local\Temp\ccbih9yx.s:19901  .debug_str:0000000000006066 .LASF5191
C:\Users\SOLDER~1\AppData\Local\Temp\ccbih9yx.s:29795  .debug_str:000000000002e6ae .LASF5192
GAS LISTING C:\Users\SOLDER~1\AppData\Local\Temp\ccbih9yx.s 			page 102


C:\Users\SOLDER~1\AppData\Local\Temp\ccbih9yx.s:18691  .debug_str:0000000000001315 .LASF5193
C:\Users\SOLDER~1\AppData\Local\Temp\ccbih9yx.s:21481  .debug_str:000000000000c88c .LASF5194
C:\Users\SOLDER~1\AppData\Local\Temp\ccbih9yx.s:27979  .debug_str:0000000000027139 .LASF5195
C:\Users\SOLDER~1\AppData\Local\Temp\ccbih9yx.s:24899  .debug_str:000000000001a757 .LASF5196
C:\Users\SOLDER~1\AppData\Local\Temp\ccbih9yx.s:20953  .debug_str:000000000000a591 .LASF5197
C:\Users\SOLDER~1\AppData\Local\Temp\ccbih9yx.s:18965  .debug_str:00000000000024e3 .LASF5198
C:\Users\SOLDER~1\AppData\Local\Temp\ccbih9yx.s:24975  .debug_str:000000000001ac5d .LASF5199
C:\Users\SOLDER~1\AppData\Local\Temp\ccbih9yx.s:27655  .debug_str:0000000000025b3f .LASF5200
C:\Users\SOLDER~1\AppData\Local\Temp\ccbih9yx.s:20637  .debug_str:00000000000090e3 .LASF5201
C:\Users\SOLDER~1\AppData\Local\Temp\ccbih9yx.s:27743  .debug_str:0000000000026173 .LASF5202
C:\Users\SOLDER~1\AppData\Local\Temp\ccbih9yx.s:19663  .debug_str:0000000000005103 .LASF5203
C:\Users\SOLDER~1\AppData\Local\Temp\ccbih9yx.s:18565  .debug_str:0000000000000b14 .LASF5204
C:\Users\SOLDER~1\AppData\Local\Temp\ccbih9yx.s:21487  .debug_str:000000000000c90b .LASF5205
C:\Users\SOLDER~1\AppData\Local\Temp\ccbih9yx.s:22775  .debug_str:0000000000011cd3 .LASF5206
C:\Users\SOLDER~1\AppData\Local\Temp\ccbih9yx.s:23917  .debug_str:00000000000167c1 .LASF5207
C:\Users\SOLDER~1\AppData\Local\Temp\ccbih9yx.s:19949  .debug_str:00000000000063b3 .LASF5208
C:\Users\SOLDER~1\AppData\Local\Temp\ccbih9yx.s:28201  .debug_str:0000000000027fc4 .LASF5209
C:\Users\SOLDER~1\AppData\Local\Temp\ccbih9yx.s:26889  .debug_str:00000000000228e4 .LASF5210
C:\Users\SOLDER~1\AppData\Local\Temp\ccbih9yx.s:23185  .debug_str:000000000001375f .LASF5211
C:\Users\SOLDER~1\AppData\Local\Temp\ccbih9yx.s:26581  .debug_str:000000000002155d .LASF5212
C:\Users\SOLDER~1\AppData\Local\Temp\ccbih9yx.s:27355  .debug_str:0000000000024778 .LASF5213
C:\Users\SOLDER~1\AppData\Local\Temp\ccbih9yx.s:25421  .debug_str:000000000001c95d .LASF5214
C:\Users\SOLDER~1\AppData\Local\Temp\ccbih9yx.s:23933  .debug_str:00000000000168cd .LASF5215
C:\Users\SOLDER~1\AppData\Local\Temp\ccbih9yx.s:27205  .debug_str:0000000000023d7e .LASF5216
C:\Users\SOLDER~1\AppData\Local\Temp\ccbih9yx.s:29485  .debug_str:000000000002d308 .LASF5217
C:\Users\SOLDER~1\AppData\Local\Temp\ccbih9yx.s:24797  .debug_str:000000000001a0d6 .LASF5218
C:\Users\SOLDER~1\AppData\Local\Temp\ccbih9yx.s:25125  .debug_str:000000000001b5e9 .LASF5219
C:\Users\SOLDER~1\AppData\Local\Temp\ccbih9yx.s:26369  .debug_str:0000000000020779 .LASF5220
C:\Users\SOLDER~1\AppData\Local\Temp\ccbih9yx.s:25189  .debug_str:000000000001b9e9 .LASF5221
C:\Users\SOLDER~1\AppData\Local\Temp\ccbih9yx.s:24027  .debug_str:0000000000016e8b .LASF5222
C:\Users\SOLDER~1\AppData\Local\Temp\ccbih9yx.s:27595  .debug_str:0000000000025703 .LASF5223
C:\Users\SOLDER~1\AppData\Local\Temp\ccbih9yx.s:18759  .debug_str:0000000000001799 .LASF5224
C:\Users\SOLDER~1\AppData\Local\Temp\ccbih9yx.s:22697  .debug_str:00000000000117bb .LASF5225
C:\Users\SOLDER~1\AppData\Local\Temp\ccbih9yx.s:22707  .debug_str:0000000000011865 .LASF5226
C:\Users\SOLDER~1\AppData\Local\Temp\ccbih9yx.s:21017  .debug_str:000000000000aa07 .LASF5227
C:\Users\SOLDER~1\AppData\Local\Temp\ccbih9yx.s:21385  .debug_str:000000000000c1db .LASF5228
C:\Users\SOLDER~1\AppData\Local\Temp\ccbih9yx.s:20539  .debug_str:0000000000008a30 .LASF5229
C:\Users\SOLDER~1\AppData\Local\Temp\ccbih9yx.s:20417  .debug_str:0000000000008266 .LASF5230
C:\Users\SOLDER~1\AppData\Local\Temp\ccbih9yx.s:19433  .debug_str:00000000000042ac .LASF5231
C:\Users\SOLDER~1\AppData\Local\Temp\ccbih9yx.s:21647  .debug_str:000000000000d38e .LASF5232
C:\Users\SOLDER~1\AppData\Local\Temp\ccbih9yx.s:26407  .debug_str:00000000000209ed .LASF5233
C:\Users\SOLDER~1\AppData\Local\Temp\ccbih9yx.s:22123  .debug_str:000000000000f25c .LASF5234
C:\Users\SOLDER~1\AppData\Local\Temp\ccbih9yx.s:19185  .debug_str:0000000000003314 .LASF5235
C:\Users\SOLDER~1\AppData\Local\Temp\ccbih9yx.s:28829  .debug_str:000000000002a829 .LASF5236
C:\Users\SOLDER~1\AppData\Local\Temp\ccbih9yx.s:22433  .debug_str:0000000000010694 .LASF5237
C:\Users\SOLDER~1\AppData\Local\Temp\ccbih9yx.s:28641  .debug_str:0000000000029c08 .LASF5238
C:\Users\SOLDER~1\AppData\Local\Temp\ccbih9yx.s:22201  .debug_str:000000000000f76e .LASF5239
C:\Users\SOLDER~1\AppData\Local\Temp\ccbih9yx.s:18959  .debug_str:0000000000002480 .LASF5240
C:\Users\SOLDER~1\AppData\Local\Temp\ccbih9yx.s:24815  .debug_str:000000000001a1dd .LASF5241
C:\Users\SOLDER~1\AppData\Local\Temp\ccbih9yx.s:19233  .debug_str:000000000000361c .LASF5242
C:\Users\SOLDER~1\AppData\Local\Temp\ccbih9yx.s:19637  .debug_str:0000000000004f84 .LASF5243
C:\Users\SOLDER~1\AppData\Local\Temp\ccbih9yx.s:28731  .debug_str:000000000002a234 .LASF5244
C:\Users\SOLDER~1\AppData\Local\Temp\ccbih9yx.s:18453  .debug_str:000000000000031d .LASF5245
C:\Users\SOLDER~1\AppData\Local\Temp\ccbih9yx.s:20143  .debug_str:00000000000070bc .LASF5246
C:\Users\SOLDER~1\AppData\Local\Temp\ccbih9yx.s:28965  .debug_str:000000000002b169 .LASF5247
C:\Users\SOLDER~1\AppData\Local\Temp\ccbih9yx.s:21013  .debug_str:000000000000a9c5 .LASF5248
C:\Users\SOLDER~1\AppData\Local\Temp\ccbih9yx.s:27747  .debug_str:00000000000261c7 .LASF5249
GAS LISTING C:\Users\SOLDER~1\AppData\Local\Temp\ccbih9yx.s 			page 103


C:\Users\SOLDER~1\AppData\Local\Temp\ccbih9yx.s:29095  .debug_str:000000000002b986 .LASF5250
C:\Users\SOLDER~1\AppData\Local\Temp\ccbih9yx.s:22381  .debug_str:0000000000010399 .LASF5251
C:\Users\SOLDER~1\AppData\Local\Temp\ccbih9yx.s:21389  .debug_str:000000000000c22e .LASF5252
C:\Users\SOLDER~1\AppData\Local\Temp\ccbih9yx.s:27413  .debug_str:0000000000024b53 .LASF5253
C:\Users\SOLDER~1\AppData\Local\Temp\ccbih9yx.s:24673  .debug_str:00000000000198ea .LASF5254
C:\Users\SOLDER~1\AppData\Local\Temp\ccbih9yx.s:22617  .debug_str:000000000001125b .LASF5255
C:\Users\SOLDER~1\AppData\Local\Temp\ccbih9yx.s:29715  .debug_str:000000000002e17a .LASF5256
C:\Users\SOLDER~1\AppData\Local\Temp\ccbih9yx.s:22633  .debug_str:0000000000011353 .LASF5257
C:\Users\SOLDER~1\AppData\Local\Temp\ccbih9yx.s:25479  .debug_str:000000000001cd80 .LASF5258
C:\Users\SOLDER~1\AppData\Local\Temp\ccbih9yx.s:24215  .debug_str:0000000000017ae5 .LASF5259
C:\Users\SOLDER~1\AppData\Local\Temp\ccbih9yx.s:20317  .debug_str:0000000000007bae .LASF5260
C:\Users\SOLDER~1\AppData\Local\Temp\ccbih9yx.s:29683  .debug_str:000000000002df68 .LASF5261
C:\Users\SOLDER~1\AppData\Local\Temp\ccbih9yx.s:25819  .debug_str:000000000001e35b .LASF5262
C:\Users\SOLDER~1\AppData\Local\Temp\ccbih9yx.s:18699  .debug_str:00000000000013a9 .LASF5263
C:\Users\SOLDER~1\AppData\Local\Temp\ccbih9yx.s:23721  .debug_str:0000000000015b98 .LASF5264
C:\Users\SOLDER~1\AppData\Local\Temp\ccbih9yx.s:27915  .debug_str:0000000000026cfd .LASF5265
C:\Users\SOLDER~1\AppData\Local\Temp\ccbih9yx.s:22837  .debug_str:0000000000012085 .LASF5266
C:\Users\SOLDER~1\AppData\Local\Temp\ccbih9yx.s:28151  .debug_str:0000000000027c6c .LASF5267
C:\Users\SOLDER~1\AppData\Local\Temp\ccbih9yx.s:18789  .debug_str:000000000000194c .LASF5268
C:\Users\SOLDER~1\AppData\Local\Temp\ccbih9yx.s:26815  .debug_str:00000000000223da .LASF5269
C:\Users\SOLDER~1\AppData\Local\Temp\ccbih9yx.s:24791  .debug_str:000000000001a070 .LASF5270
C:\Users\SOLDER~1\AppData\Local\Temp\ccbih9yx.s:23741  .debug_str:0000000000015cd9 .LASF5271
C:\Users\SOLDER~1\AppData\Local\Temp\ccbih9yx.s:21027  .debug_str:000000000000aa8a .LASF5272
C:\Users\SOLDER~1\AppData\Local\Temp\ccbih9yx.s:18543  .debug_str:0000000000000995 .LASF5273
C:\Users\SOLDER~1\AppData\Local\Temp\ccbih9yx.s:25923  .debug_str:000000000001ea61 .LASF5274
C:\Users\SOLDER~1\AppData\Local\Temp\ccbih9yx.s:28689  .debug_str:0000000000029f35 .LASF5275
C:\Users\SOLDER~1\AppData\Local\Temp\ccbih9yx.s:24163  .debug_str:00000000000177a0 .LASF5276
C:\Users\SOLDER~1\AppData\Local\Temp\ccbih9yx.s:22345  .debug_str:000000000001012f .LASF5277
C:\Users\SOLDER~1\AppData\Local\Temp\ccbih9yx.s:19105  .debug_str:0000000000002ddf .LASF5278
C:\Users\SOLDER~1\AppData\Local\Temp\ccbih9yx.s:20249  .debug_str:0000000000007734 .LASF5279
C:\Users\SOLDER~1\AppData\Local\Temp\ccbih9yx.s:25705  .debug_str:000000000001dbe8 .LASF5280
C:\Users\SOLDER~1\AppData\Local\Temp\ccbih9yx.s:20351  .debug_str:0000000000007df2 .LASF5281
C:\Users\SOLDER~1\AppData\Local\Temp\ccbih9yx.s:27557  .debug_str:0000000000025477 .LASF5282
C:\Users\SOLDER~1\AppData\Local\Temp\ccbih9yx.s:19177  .debug_str:0000000000003294 .LASF5283
C:\Users\SOLDER~1\AppData\Local\Temp\ccbih9yx.s:19783  .debug_str:00000000000058d3 .LASF5284
C:\Users\SOLDER~1\AppData\Local\Temp\ccbih9yx.s:25357  .debug_str:000000000001c509 .LASF5285
C:\Users\SOLDER~1\AppData\Local\Temp\ccbih9yx.s:19195  .debug_str:00000000000033cc .LASF5286
C:\Users\SOLDER~1\AppData\Local\Temp\ccbih9yx.s:29239  .debug_str:000000000002c325 .LASF5287
C:\Users\SOLDER~1\AppData\Local\Temp\ccbih9yx.s:22073  .debug_str:000000000000ef43 .LASF5288
C:\Users\SOLDER~1\AppData\Local\Temp\ccbih9yx.s:22445  .debug_str:000000000001077f .LASF5289
C:\Users\SOLDER~1\AppData\Local\Temp\ccbih9yx.s:19383  .debug_str:0000000000003f7b .LASF5290
C:\Users\SOLDER~1\AppData\Local\Temp\ccbih9yx.s:19755  .debug_str:00000000000056c7 .LASF5291
C:\Users\SOLDER~1\AppData\Local\Temp\ccbih9yx.s:18623  .debug_str:0000000000000ee8 .LASF5292
C:\Users\SOLDER~1\AppData\Local\Temp\ccbih9yx.s:23175  .debug_str:00000000000136cf .LASF5293
C:\Users\SOLDER~1\AppData\Local\Temp\ccbih9yx.s:27023  .debug_str:00000000000231aa .LASF5294
C:\Users\SOLDER~1\AppData\Local\Temp\ccbih9yx.s:24107  .debug_str:00000000000173e4 .LASF5295
C:\Users\SOLDER~1\AppData\Local\Temp\ccbih9yx.s:24017  .debug_str:0000000000016de1 .LASF5296
C:\Users\SOLDER~1\AppData\Local\Temp\ccbih9yx.s:22005  .debug_str:000000000000eab2 .LASF5297
C:\Users\SOLDER~1\AppData\Local\Temp\ccbih9yx.s:20139  .debug_str:000000000000706f .LASF5298
C:\Users\SOLDER~1\AppData\Local\Temp\ccbih9yx.s:20395  .debug_str:000000000000810d .LASF5299
C:\Users\SOLDER~1\AppData\Local\Temp\ccbih9yx.s:28477  .debug_str:0000000000029150 .LASF5300
C:\Users\SOLDER~1\AppData\Local\Temp\ccbih9yx.s:23913  .debug_str:0000000000016770 .LASF5301
C:\Users\SOLDER~1\AppData\Local\Temp\ccbih9yx.s:21475  .debug_str:000000000000c828 .LASF5302
C:\Users\SOLDER~1\AppData\Local\Temp\ccbih9yx.s:27165  .debug_str:0000000000023ada .LASF5303
C:\Users\SOLDER~1\AppData\Local\Temp\ccbih9yx.s:25291  .debug_str:000000000001c076 .LASF5304
C:\Users\SOLDER~1\AppData\Local\Temp\ccbih9yx.s:25495  .debug_str:000000000001ce80 .LASF5305
C:\Users\SOLDER~1\AppData\Local\Temp\ccbih9yx.s:22595  .debug_str:0000000000011106 .LASF5306
GAS LISTING C:\Users\SOLDER~1\AppData\Local\Temp\ccbih9yx.s 			page 104


C:\Users\SOLDER~1\AppData\Local\Temp\ccbih9yx.s:21153  .debug_str:000000000000b299 .LASF5307
C:\Users\SOLDER~1\AppData\Local\Temp\ccbih9yx.s:25797  .debug_str:000000000001e1fb .LASF5308
C:\Users\SOLDER~1\AppData\Local\Temp\ccbih9yx.s:26153  .debug_str:000000000001f98a .LASF5309
C:\Users\SOLDER~1\AppData\Local\Temp\ccbih9yx.s:20791  .debug_str:0000000000009ac2 .LASF5310
C:\Users\SOLDER~1\AppData\Local\Temp\ccbih9yx.s:28941  .debug_str:000000000002afbd .LASF5311
C:\Users\SOLDER~1\AppData\Local\Temp\ccbih9yx.s:27739  .debug_str:0000000000026123 .LASF5312
C:\Users\SOLDER~1\AppData\Local\Temp\ccbih9yx.s:18881  .debug_str:0000000000001f60 .LASF5313
C:\Users\SOLDER~1\AppData\Local\Temp\ccbih9yx.s:23095  .debug_str:000000000001315c .LASF5314
C:\Users\SOLDER~1\AppData\Local\Temp\ccbih9yx.s:19443  .debug_str:000000000000433f .LASF5315
C:\Users\SOLDER~1\AppData\Local\Temp\ccbih9yx.s:23149  .debug_str:0000000000013512 .LASF5316
C:\Users\SOLDER~1\AppData\Local\Temp\ccbih9yx.s:20907  .debug_str:000000000000a264 .LASF5317
C:\Users\SOLDER~1\AppData\Local\Temp\ccbih9yx.s:26821  .debug_str:000000000002244c .LASF5318
C:\Users\SOLDER~1\AppData\Local\Temp\ccbih9yx.s:23781  .debug_str:0000000000015f5d .LASF5319
C:\Users\SOLDER~1\AppData\Local\Temp\ccbih9yx.s:28603  .debug_str:000000000002996f .LASF5320
C:\Users\SOLDER~1\AppData\Local\Temp\ccbih9yx.s:24469  .debug_str:0000000000018ba2 .LASF5321
C:\Users\SOLDER~1\AppData\Local\Temp\ccbih9yx.s:28053  .debug_str:0000000000027618 .LASF5322
C:\Users\SOLDER~1\AppData\Local\Temp\ccbih9yx.s:25901  .debug_str:000000000001e8e8 .LASF5323
C:\Users\SOLDER~1\AppData\Local\Temp\ccbih9yx.s:22947  .debug_str:0000000000012782 .LASF5324
C:\Users\SOLDER~1\AppData\Local\Temp\ccbih9yx.s:24101  .debug_str:0000000000017377 .LASF5325
C:\Users\SOLDER~1\AppData\Local\Temp\ccbih9yx.s:25561  .debug_str:000000000001d304 .LASF5326
C:\Users\SOLDER~1\AppData\Local\Temp\ccbih9yx.s:18787  .debug_str:0000000000001921 .LASF5327
C:\Users\SOLDER~1\AppData\Local\Temp\ccbih9yx.s:27081  .debug_str:00000000000235a3 .LASF5328
C:\Users\SOLDER~1\AppData\Local\Temp\ccbih9yx.s:23651  .debug_str:000000000001570f .LASF5329
C:\Users\SOLDER~1\AppData\Local\Temp\ccbih9yx.s:20121  .debug_str:0000000000006f47 .LASF5330
C:\Users\SOLDER~1\AppData\Local\Temp\ccbih9yx.s:19667  .debug_str:0000000000005157 .LASF5331
C:\Users\SOLDER~1\AppData\Local\Temp\ccbih9yx.s:22499  .debug_str:0000000000010ae2 .LASF5332
C:\Users\SOLDER~1\AppData\Local\Temp\ccbih9yx.s:20643  .debug_str:000000000000916d .LASF5333
C:\Users\SOLDER~1\AppData\Local\Temp\ccbih9yx.s:27447  .debug_str:0000000000024d8c .LASF5334
C:\Users\SOLDER~1\AppData\Local\Temp\ccbih9yx.s:28483  .debug_str:00000000000291be .LASF5335
C:\Users\SOLDER~1\AppData\Local\Temp\ccbih9yx.s:19789  .debug_str:000000000000592c .LASF5336
C:\Users\SOLDER~1\AppData\Local\Temp\ccbih9yx.s:23775  .debug_str:0000000000015efb .LASF5337
C:\Users\SOLDER~1\AppData\Local\Temp\ccbih9yx.s:21369  .debug_str:000000000000c0c5 .LASF5338
C:\Users\SOLDER~1\AppData\Local\Temp\ccbih9yx.s:20299  .debug_str:0000000000007a67 .LASF5339
C:\Users\SOLDER~1\AppData\Local\Temp\ccbih9yx.s:20177  .debug_str:00000000000072e2 .LASF5340
C:\Users\SOLDER~1\AppData\Local\Temp\ccbih9yx.s:26671  .debug_str:0000000000021b22 .LASF5341
C:\Users\SOLDER~1\AppData\Local\Temp\ccbih9yx.s:24711  .debug_str:0000000000019b77 .LASF5342
C:\Users\SOLDER~1\AppData\Local\Temp\ccbih9yx.s:28067  .debug_str:00000000000276fd .LASF5343
C:\Users\SOLDER~1\AppData\Local\Temp\ccbih9yx.s:29883  .debug_str:000000000002ec40 .LASF5344
C:\Users\SOLDER~1\AppData\Local\Temp\ccbih9yx.s:26883  .debug_str:000000000002286b .LASF5345
C:\Users\SOLDER~1\AppData\Local\Temp\ccbih9yx.s:29363  .debug_str:000000000002cac0 .LASF5346
C:\Users\SOLDER~1\AppData\Local\Temp\ccbih9yx.s:19257  .debug_str:00000000000037b3 .LASF5347
C:\Users\SOLDER~1\AppData\Local\Temp\ccbih9yx.s:29003  .debug_str:000000000002b3b0 .LASF5348
C:\Users\SOLDER~1\AppData\Local\Temp\ccbih9yx.s:24471  .debug_str:0000000000018bcd .LASF5349
C:\Users\SOLDER~1\AppData\Local\Temp\ccbih9yx.s:24239  .debug_str:0000000000017c8b .LASF5350
C:\Users\SOLDER~1\AppData\Local\Temp\ccbih9yx.s:19145  .debug_str:0000000000003083 .LASF5351
C:\Users\SOLDER~1\AppData\Local\Temp\ccbih9yx.s:21493  .debug_str:000000000000c985 .LASF5352
C:\Users\SOLDER~1\AppData\Local\Temp\ccbih9yx.s:29073  .debug_str:000000000002b836 .LASF5353
C:\Users\SOLDER~1\AppData\Local\Temp\ccbih9yx.s:28457  .debug_str:0000000000028ffd .LASF5354
C:\Users\SOLDER~1\AppData\Local\Temp\ccbih9yx.s:29393  .debug_str:000000000002ccbd .LASF5355
C:\Users\SOLDER~1\AppData\Local\Temp\ccbih9yx.s:26805  .debug_str:0000000000022323 .LASF5356
C:\Users\SOLDER~1\AppData\Local\Temp\ccbih9yx.s:22585  .debug_str:0000000000011058 .LASF5357
C:\Users\SOLDER~1\AppData\Local\Temp\ccbih9yx.s:19777  .debug_str:000000000000586c .LASF5358
C:\Users\SOLDER~1\AppData\Local\Temp\ccbih9yx.s:29031  .debug_str:000000000002b59b .LASF5359
C:\Users\SOLDER~1\AppData\Local\Temp\ccbih9yx.s:23683  .debug_str:0000000000015937 .LASF5360
C:\Users\SOLDER~1\AppData\Local\Temp\ccbih9yx.s:23375  .debug_str:00000000000144f5 .LASF5361
C:\Users\SOLDER~1\AppData\Local\Temp\ccbih9yx.s:28213  .debug_str:00000000000280a7 .LASF5362
C:\Users\SOLDER~1\AppData\Local\Temp\ccbih9yx.s:19207  .debug_str:000000000000349d .LASF5363
GAS LISTING C:\Users\SOLDER~1\AppData\Local\Temp\ccbih9yx.s 			page 105


C:\Users\SOLDER~1\AppData\Local\Temp\ccbih9yx.s:23299  .debug_str:0000000000013f9b .LASF5364
C:\Users\SOLDER~1\AppData\Local\Temp\ccbih9yx.s:24805  .debug_str:000000000001a13e .LASF5365
C:\Users\SOLDER~1\AppData\Local\Temp\ccbih9yx.s:19113  .debug_str:0000000000002e67 .LASF5366
C:\Users\SOLDER~1\AppData\Local\Temp\ccbih9yx.s:20361  .debug_str:0000000000007ea7 .LASF5367
C:\Users\SOLDER~1\AppData\Local\Temp\ccbih9yx.s:24785  .debug_str:000000000001a009 .LASF5368
C:\Users\SOLDER~1\AppData\Local\Temp\ccbih9yx.s:23829  .debug_str:0000000000016281 .LASF5369
C:\Users\SOLDER~1\AppData\Local\Temp\ccbih9yx.s:27361  .debug_str:00000000000247d9 .LASF5370
C:\Users\SOLDER~1\AppData\Local\Temp\ccbih9yx.s:22853  .debug_str:00000000000121a3 .LASF5371
C:\Users\SOLDER~1\AppData\Local\Temp\ccbih9yx.s:29141  .debug_str:000000000002bc6e .LASF5372
C:\Users\SOLDER~1\AppData\Local\Temp\ccbih9yx.s:23387  .debug_str:00000000000145cf .LASF5373
C:\Users\SOLDER~1\AppData\Local\Temp\ccbih9yx.s:21645  .debug_str:000000000000d36e .LASF5374
C:\Users\SOLDER~1\AppData\Local\Temp\ccbih9yx.s:29269  .debug_str:000000000002c4ff .LASF5375
C:\Users\SOLDER~1\AppData\Local\Temp\ccbih9yx.s:27605  .debug_str:00000000000257bf .LASF5376
C:\Users\SOLDER~1\AppData\Local\Temp\ccbih9yx.s:23473  .debug_str:0000000000014b94 .LASF5377
C:\Users\SOLDER~1\AppData\Local\Temp\ccbih9yx.s:19561  .debug_str:0000000000004acd .LASF5378
C:\Users\SOLDER~1\AppData\Local\Temp\ccbih9yx.s:19745  .debug_str:00000000000055ff .LASF5379
C:\Users\SOLDER~1\AppData\Local\Temp\ccbih9yx.s:24763  .debug_str:0000000000019e8a .LASF5380
C:\Users\SOLDER~1\AppData\Local\Temp\ccbih9yx.s:26885  .debug_str:000000000002288b .LASF5381
C:\Users\SOLDER~1\AppData\Local\Temp\ccbih9yx.s:18679  .debug_str:000000000000126e .LASF5382
C:\Users\SOLDER~1\AppData\Local\Temp\ccbih9yx.s:22215  .debug_str:000000000000f896 .LASF5383
C:\Users\SOLDER~1\AppData\Local\Temp\ccbih9yx.s:27103  .debug_str:0000000000023729 .LASF5384
C:\Users\SOLDER~1\AppData\Local\Temp\ccbih9yx.s:18469  .debug_str:000000000000042f .LASF5385
C:\Users\SOLDER~1\AppData\Local\Temp\ccbih9yx.s:23653  .debug_str:000000000001573c .LASF5386
C:\Users\SOLDER~1\AppData\Local\Temp\ccbih9yx.s:29907  .debug_str:000000000002edbe .LASF5387
C:\Users\SOLDER~1\AppData\Local\Temp\ccbih9yx.s:24621  .debug_str:00000000000195e7 .LASF5388
C:\Users\SOLDER~1\AppData\Local\Temp\ccbih9yx.s:29201  .debug_str:000000000002c0b0 .LASF5389
C:\Users\SOLDER~1\AppData\Local\Temp\ccbih9yx.s:24599  .debug_str:0000000000019459 .LASF5390
C:\Users\SOLDER~1\AppData\Local\Temp\ccbih9yx.s:22365  .debug_str:0000000000010273 .LASF5391
C:\Users\SOLDER~1\AppData\Local\Temp\ccbih9yx.s:23389  .debug_str:00000000000145ef .LASF5392
C:\Users\SOLDER~1\AppData\Local\Temp\ccbih9yx.s:23055  .debug_str:0000000000012ec8 .LASF5393
C:\Users\SOLDER~1\AppData\Local\Temp\ccbih9yx.s:26227  .debug_str:000000000001fe17 .LASF5394
C:\Users\SOLDER~1\AppData\Local\Temp\ccbih9yx.s:29689  .debug_str:000000000002dfda .LASF5395
C:\Users\SOLDER~1\AppData\Local\Temp\ccbih9yx.s:21251  .debug_str:000000000000b8fd .LASF5396
C:\Users\SOLDER~1\AppData\Local\Temp\ccbih9yx.s:24963  .debug_str:000000000001ab6d .LASF5397
C:\Users\SOLDER~1\AppData\Local\Temp\ccbih9yx.s:29405  .debug_str:000000000002cd92 .LASF5398
C:\Users\SOLDER~1\AppData\Local\Temp\ccbih9yx.s:27325  .debug_str:0000000000024587 .LASF5399
C:\Users\SOLDER~1\AppData\Local\Temp\ccbih9yx.s:24883  .debug_str:000000000001a638 .LASF5400
C:\Users\SOLDER~1\AppData\Local\Temp\ccbih9yx.s:25571  .debug_str:000000000001d3b3 .LASF5401
C:\Users\SOLDER~1\AppData\Local\Temp\ccbih9yx.s:21207  .debug_str:000000000000b619 .LASF5402
C:\Users\SOLDER~1\AppData\Local\Temp\ccbih9yx.s:24371  .debug_str:0000000000018544 .LASF5403
C:\Users\SOLDER~1\AppData\Local\Temp\ccbih9yx.s:28085  .debug_str:0000000000027814 .LASF5404
C:\Users\SOLDER~1\AppData\Local\Temp\ccbih9yx.s:22265  .debug_str:000000000000fc15 .LASF5405
C:\Users\SOLDER~1\AppData\Local\Temp\ccbih9yx.s:24451  .debug_str:0000000000018a7b .LASF5406
C:\Users\SOLDER~1\AppData\Local\Temp\ccbih9yx.s:23445  .debug_str:00000000000149b5 .LASF5407
C:\Users\SOLDER~1\AppData\Local\Temp\ccbih9yx.s:29021  .debug_str:000000000002b4e9 .LASF5408
C:\Users\SOLDER~1\AppData\Local\Temp\ccbih9yx.s:29479  .debug_str:000000000002d2b1 .LASF5409
C:\Users\SOLDER~1\AppData\Local\Temp\ccbih9yx.s:29329  .debug_str:000000000002c8b1 .LASF5410
C:\Users\SOLDER~1\AppData\Local\Temp\ccbih9yx.s:19889  .debug_str:0000000000005f85 .LASF5411
C:\Users\SOLDER~1\AppData\Local\Temp\ccbih9yx.s:27423  .debug_str:0000000000024bfc .LASF5412
C:\Users\SOLDER~1\AppData\Local\Temp\ccbih9yx.s:21031  .debug_str:000000000000aad4 .LASF5413
C:\Users\SOLDER~1\AppData\Local\Temp\ccbih9yx.s:20981  .debug_str:000000000000a785 .LASF5414
C:\Users\SOLDER~1\AppData\Local\Temp\ccbih9yx.s:24629  .debug_str:0000000000019678 .LASF5415
C:\Users\SOLDER~1\AppData\Local\Temp\ccbih9yx.s:28007  .debug_str:0000000000027338 .LASF5416
C:\Users\SOLDER~1\AppData\Local\Temp\ccbih9yx.s:21459  .debug_str:000000000000c70f .LASF5417
C:\Users\SOLDER~1\AppData\Local\Temp\ccbih9yx.s:22581  .debug_str:000000000001100f .LASF5418
C:\Users\SOLDER~1\AppData\Local\Temp\ccbih9yx.s:21003  .debug_str:000000000000a905 .LASF5419
C:\Users\SOLDER~1\AppData\Local\Temp\ccbih9yx.s:29359  .debug_str:000000000002ca84 .LASF5420
GAS LISTING C:\Users\SOLDER~1\AppData\Local\Temp\ccbih9yx.s 			page 106


C:\Users\SOLDER~1\AppData\Local\Temp\ccbih9yx.s:25897  .debug_str:000000000001e89b .LASF5421
C:\Users\SOLDER~1\AppData\Local\Temp\ccbih9yx.s:26929  .debug_str:0000000000022b9e .LASF5422
C:\Users\SOLDER~1\AppData\Local\Temp\ccbih9yx.s:25381  .debug_str:000000000001c6b6 .LASF5423
C:\Users\SOLDER~1\AppData\Local\Temp\ccbih9yx.s:20553  .debug_str:0000000000008b21 .LASF5424
C:\Users\SOLDER~1\AppData\Local\Temp\ccbih9yx.s:28237  .debug_str:0000000000028214 .LASF5425
C:\Users\SOLDER~1\AppData\Local\Temp\ccbih9yx.s:29613  .debug_str:000000000002db22 .LASF5426
C:\Users\SOLDER~1\AppData\Local\Temp\ccbih9yx.s:19749  .debug_str:000000000000564c .LASF5427
C:\Users\SOLDER~1\AppData\Local\Temp\ccbih9yx.s:23393  .debug_str:0000000000014642 .LASF5428
C:\Users\SOLDER~1\AppData\Local\Temp\ccbih9yx.s:29033  .debug_str:000000000002b5bc .LASF5429
C:\Users\SOLDER~1\AppData\Local\Temp\ccbih9yx.s:29425  .debug_str:000000000002cf03 .LASF5430
C:\Users\SOLDER~1\AppData\Local\Temp\ccbih9yx.s:22809  .debug_str:0000000000011edd .LASF5431
C:\Users\SOLDER~1\AppData\Local\Temp\ccbih9yx.s:19541  .debug_str:000000000000499b .LASF5432
C:\Users\SOLDER~1\AppData\Local\Temp\ccbih9yx.s:19187  .debug_str:0000000000003337 .LASF5433
C:\Users\SOLDER~1\AppData\Local\Temp\ccbih9yx.s:25121  .debug_str:000000000001b5a1 .LASF5434
C:\Users\SOLDER~1\AppData\Local\Temp\ccbih9yx.s:28373  .debug_str:0000000000028ac4 .LASF5435
C:\Users\SOLDER~1\AppData\Local\Temp\ccbih9yx.s:20977  .debug_str:000000000000a74d .LASF5436
C:\Users\SOLDER~1\AppData\Local\Temp\ccbih9yx.s:22209  .debug_str:000000000000f834 .LASF5437
C:\Users\SOLDER~1\AppData\Local\Temp\ccbih9yx.s:25539  .debug_str:000000000001d184 .LASF5438
C:\Users\SOLDER~1\AppData\Local\Temp\ccbih9yx.s:26387  .debug_str:000000000002089d .LASF5439
C:\Users\SOLDER~1\AppData\Local\Temp\ccbih9yx.s:20843  .debug_str:0000000000009e37 .LASF5440
C:\Users\SOLDER~1\AppData\Local\Temp\ccbih9yx.s:18811  .debug_str:0000000000001ad0 .LASF5441
C:\Users\SOLDER~1\AppData\Local\Temp\ccbih9yx.s:24687  .debug_str:00000000000199df .LASF5442
C:\Users\SOLDER~1\AppData\Local\Temp\ccbih9yx.s:19569  .debug_str:0000000000004b5a .LASF5443
C:\Users\SOLDER~1\AppData\Local\Temp\ccbih9yx.s:29199  .debug_str:000000000002c08d .LASF5444
C:\Users\SOLDER~1\AppData\Local\Temp\ccbih9yx.s:26269  .debug_str:00000000000200d6 .LASF5445
C:\Users\SOLDER~1\AppData\Local\Temp\ccbih9yx.s:26753  .debug_str:0000000000022021 .LASF5446
C:\Users\SOLDER~1\AppData\Local\Temp\ccbih9yx.s:23879  .debug_str:000000000001658e .LASF5447
C:\Users\SOLDER~1\AppData\Local\Temp\ccbih9yx.s:22401  .debug_str:00000000000104b7 .LASF5448
C:\Users\SOLDER~1\AppData\Local\Temp\ccbih9yx.s:23745  .debug_str:0000000000015d21 .LASF5449
C:\Users\SOLDER~1\AppData\Local\Temp\ccbih9yx.s:22731  .debug_str:00000000000119e9 .LASF5450
C:\Users\SOLDER~1\AppData\Local\Temp\ccbih9yx.s:27685  .debug_str:0000000000025d5c .LASF5451
C:\Users\SOLDER~1\AppData\Local\Temp\ccbih9yx.s:22283  .debug_str:000000000000fd4c .LASF5452
C:\Users\SOLDER~1\AppData\Local\Temp\ccbih9yx.s:21161  .debug_str:000000000000b32b .LASF5453
C:\Users\SOLDER~1\AppData\Local\Temp\ccbih9yx.s:23053  .debug_str:0000000000012ea3 .LASF5454
C:\Users\SOLDER~1\AppData\Local\Temp\ccbih9yx.s:22115  .debug_str:000000000000f1dc .LASF5455
C:\Users\SOLDER~1\AppData\Local\Temp\ccbih9yx.s:19283  .debug_str:0000000000003956 .LASF5456
C:\Users\SOLDER~1\AppData\Local\Temp\ccbih9yx.s:20959  .debug_str:000000000000a61b .LASF5457
C:\Users\SOLDER~1\AppData\Local\Temp\ccbih9yx.s:19449  .debug_str:00000000000043b7 .LASF5458
C:\Users\SOLDER~1\AppData\Local\Temp\ccbih9yx.s:20895  .debug_str:000000000000a1c6 .LASF5459
C:\Users\SOLDER~1\AppData\Local\Temp\ccbih9yx.s:20807  .debug_str:0000000000009bb8 .LASF5460
C:\Users\SOLDER~1\AppData\Local\Temp\ccbih9yx.s:29159  .debug_str:000000000002bdb1 .LASF5461
C:\Users\SOLDER~1\AppData\Local\Temp\ccbih9yx.s:24011  .debug_str:0000000000016d72 .LASF5462
C:\Users\SOLDER~1\AppData\Local\Temp\ccbih9yx.s:24799  .debug_str:000000000001a0e8 .LASF5463
C:\Users\SOLDER~1\AppData\Local\Temp\ccbih9yx.s:23625  .debug_str:0000000000015567 .LASF5464
C:\Users\SOLDER~1\AppData\Local\Temp\ccbih9yx.s:26625  .debug_str:0000000000021809 .LASF5465
C:\Users\SOLDER~1\AppData\Local\Temp\ccbih9yx.s:27737  .debug_str:00000000000260fd .LASF5466
C:\Users\SOLDER~1\AppData\Local\Temp\ccbih9yx.s:21237  .debug_str:000000000000b817 .LASF5467
C:\Users\SOLDER~1\AppData\Local\Temp\ccbih9yx.s:20113  .debug_str:0000000000006e93 .LASF5468
C:\Users\SOLDER~1\AppData\Local\Temp\ccbih9yx.s:20685  .debug_str:0000000000009449 .LASF5469
C:\Users\SOLDER~1\AppData\Local\Temp\ccbih9yx.s:21245  .debug_str:000000000000b88b .LASF5470
C:\Users\SOLDER~1\AppData\Local\Temp\ccbih9yx.s:22169  .debug_str:000000000000f54a .LASF5471
C:\Users\SOLDER~1\AppData\Local\Temp\ccbih9yx.s:24921  .debug_str:000000000001a8b9 .LASF5472
C:\Users\SOLDER~1\AppData\Local\Temp\ccbih9yx.s:25525  .debug_str:000000000001d05a .LASF5473
C:\Users\SOLDER~1\AppData\Local\Temp\ccbih9yx.s:29283  .debug_str:000000000002c5da .LASF5474
C:\Users\SOLDER~1\AppData\Local\Temp\ccbih9yx.s:21383  .debug_str:000000000000c1b0 .LASF5475
C:\Users\SOLDER~1\AppData\Local\Temp\ccbih9yx.s:25443  .debug_str:000000000001caf9 .LASF5476
C:\Users\SOLDER~1\AppData\Local\Temp\ccbih9yx.s:22207  .debug_str:000000000000f808 .LASF5477
GAS LISTING C:\Users\SOLDER~1\AppData\Local\Temp\ccbih9yx.s 			page 107


C:\Users\SOLDER~1\AppData\Local\Temp\ccbih9yx.s:24015  .debug_str:0000000000016db6 .LASF5478
C:\Users\SOLDER~1\AppData\Local\Temp\ccbih9yx.s:21559  .debug_str:000000000000cdbe .LASF5479
C:\Users\SOLDER~1\AppData\Local\Temp\ccbih9yx.s:20805  .debug_str:0000000000009b95 .LASF5480
C:\Users\SOLDER~1\AppData\Local\Temp\ccbih9yx.s:27563  .debug_str:00000000000254e2 .LASF5481
C:\Users\SOLDER~1\AppData\Local\Temp\ccbih9yx.s:22289  .debug_str:000000000000fdaf .LASF5482
C:\Users\SOLDER~1\AppData\Local\Temp\ccbih9yx.s:29591  .debug_str:000000000002d9a2 .LASF5483
C:\Users\SOLDER~1\AppData\Local\Temp\ccbih9yx.s:25893  .debug_str:000000000001e850 .LASF5484
C:\Users\SOLDER~1\AppData\Local\Temp\ccbih9yx.s:18553  .debug_str:0000000000000a4d .LASF5485
C:\Users\SOLDER~1\AppData\Local\Temp\ccbih9yx.s:23231  .debug_str:0000000000013b11 .LASF5486
C:\Users\SOLDER~1\AppData\Local\Temp\ccbih9yx.s:28407  .debug_str:0000000000028cdb .LASF5487
C:\Users\SOLDER~1\AppData\Local\Temp\ccbih9yx.s:24953  .debug_str:000000000001aa9e .LASF5488
C:\Users\SOLDER~1\AppData\Local\Temp\ccbih9yx.s:21219  .debug_str:000000000000b6d8 .LASF5489
C:\Users\SOLDER~1\AppData\Local\Temp\ccbih9yx.s:24047  .debug_str:0000000000016fdf .LASF5490
C:\Users\SOLDER~1\AppData\Local\Temp\ccbih9yx.s:28729  .debug_str:000000000002a211 .LASF5491
C:\Users\SOLDER~1\AppData\Local\Temp\ccbih9yx.s:21941  .debug_str:000000000000e6c7 .LASF5492
C:\Users\SOLDER~1\AppData\Local\Temp\ccbih9yx.s:25169  .debug_str:000000000001b870 .LASF5493
C:\Users\SOLDER~1\AppData\Local\Temp\ccbih9yx.s:21693  .debug_str:000000000000d693 .LASF5494
C:\Users\SOLDER~1\AppData\Local\Temp\ccbih9yx.s:27863  .debug_str:00000000000269ab .LASF5495
C:\Users\SOLDER~1\AppData\Local\Temp\ccbih9yx.s:27217  .debug_str:0000000000023e40 .LASF5496
C:\Users\SOLDER~1\AppData\Local\Temp\ccbih9yx.s:29131  .debug_str:000000000002bbba .LASF5497
C:\Users\SOLDER~1\AppData\Local\Temp\ccbih9yx.s:21583  .debug_str:000000000000cf3f .LASF5498
C:\Users\SOLDER~1\AppData\Local\Temp\ccbih9yx.s:27161  .debug_str:0000000000023a98 .LASF5499
C:\Users\SOLDER~1\AppData\Local\Temp\ccbih9yx.s:24381  .debug_str:00000000000185ee .LASF5500
C:\Users\SOLDER~1\AppData\Local\Temp\ccbih9yx.s:28297  .debug_str:00000000000285d9 .LASF5501
C:\Users\SOLDER~1\AppData\Local\Temp\ccbih9yx.s:24979  .debug_str:000000000001acb9 .LASF5502
C:\Users\SOLDER~1\AppData\Local\Temp\ccbih9yx.s:22369  .debug_str:00000000000102bf .LASF5503
C:\Users\SOLDER~1\AppData\Local\Temp\ccbih9yx.s:19687  .debug_str:000000000000529a .LASF5504
C:\Users\SOLDER~1\AppData\Local\Temp\ccbih9yx.s:20995  .debug_str:000000000000a875 .LASF5505
C:\Users\SOLDER~1\AppData\Local\Temp\ccbih9yx.s:23359  .debug_str:00000000000143d0 .LASF5506
C:\Users\SOLDER~1\AppData\Local\Temp\ccbih9yx.s:21621  .debug_str:000000000000d1cb .LASF5507
C:\Users\SOLDER~1\AppData\Local\Temp\ccbih9yx.s:26537  .debug_str:0000000000021274 .LASF5508
C:\Users\SOLDER~1\AppData\Local\Temp\ccbih9yx.s:26309  .debug_str:0000000000020374 .LASF5509
C:\Users\SOLDER~1\AppData\Local\Temp\ccbih9yx.s:23441  .debug_str:000000000001496d .LASF5510
C:\Users\SOLDER~1\AppData\Local\Temp\ccbih9yx.s:22681  .debug_str:000000000001169b .LASF5511
C:\Users\SOLDER~1\AppData\Local\Temp\ccbih9yx.s:26547  .debug_str:0000000000021317 .LASF5512
C:\Users\SOLDER~1\AppData\Local\Temp\ccbih9yx.s:26469  .debug_str:0000000000020dd6 .LASF5513
C:\Users\SOLDER~1\AppData\Local\Temp\ccbih9yx.s:20125  .debug_str:0000000000006f85 .LASF5514
C:\Users\SOLDER~1\AppData\Local\Temp\ccbih9yx.s:22357  .debug_str:00000000000101d5 .LASF5515
C:\Users\SOLDER~1\AppData\Local\Temp\ccbih9yx.s:28173  .debug_str:0000000000027de5 .LASF5516
C:\Users\SOLDER~1\AppData\Local\Temp\ccbih9yx.s:28727  .debug_str:000000000002a1ef .LASF5517
C:\Users\SOLDER~1\AppData\Local\Temp\ccbih9yx.s:25245  .debug_str:000000000001bd84 .LASF5518
C:\Users\SOLDER~1\AppData\Local\Temp\ccbih9yx.s:29677  .debug_str:000000000002df0f .LASF5519
C:\Users\SOLDER~1\AppData\Local\Temp\ccbih9yx.s:29167  .debug_str:000000000002be3e .LASF5520
C:\Users\SOLDER~1\AppData\Local\Temp\ccbih9yx.s:27033  .debug_str:0000000000023250 .LASF5521
C:\Users\SOLDER~1\AppData\Local\Temp\ccbih9yx.s:18771  .debug_str:0000000000001838 .LASF5522
C:\Users\SOLDER~1\AppData\Local\Temp\ccbih9yx.s:23131  .debug_str:00000000000133ce .LASF5523
C:\Users\SOLDER~1\AppData\Local\Temp\ccbih9yx.s:22849  .debug_str:000000000001215a .LASF5524
C:\Users\SOLDER~1\AppData\Local\Temp\ccbih9yx.s:22373  .debug_str:0000000000010309 .LASF5525
C:\Users\SOLDER~1\AppData\Local\Temp\ccbih9yx.s:18897  .debug_str:000000000000204c .LASF5526
C:\Users\SOLDER~1\AppData\Local\Temp\ccbih9yx.s:18625  .debug_str:0000000000000f1b .LASF5527
C:\Users\SOLDER~1\AppData\Local\Temp\ccbih9yx.s:26181  .debug_str:000000000001fb58 .LASF5528
C:\Users\SOLDER~1\AppData\Local\Temp\ccbih9yx.s:29431  .debug_str:000000000002cf88 .LASF5529
C:\Users\SOLDER~1\AppData\Local\Temp\ccbih9yx.s:25951  .debug_str:000000000001ec19 .LASF5530
C:\Users\SOLDER~1\AppData\Local\Temp\ccbih9yx.s:27293  .debug_str:0000000000024357 .LASF5531
C:\Users\SOLDER~1\AppData\Local\Temp\ccbih9yx.s:20141  .debug_str:0000000000007098 .LASF5532
C:\Users\SOLDER~1\AppData\Local\Temp\ccbih9yx.s:25295  .debug_str:000000000001c0da .LASF5533
C:\Users\SOLDER~1\AppData\Local\Temp\ccbih9yx.s:22997  .debug_str:0000000000012ad8 .LASF5534
GAS LISTING C:\Users\SOLDER~1\AppData\Local\Temp\ccbih9yx.s 			page 108


C:\Users\SOLDER~1\AppData\Local\Temp\ccbih9yx.s:29831  .debug_str:000000000002e91b .LASF5535
C:\Users\SOLDER~1\AppData\Local\Temp\ccbih9yx.s:21697  .debug_str:000000000000d6d8 .LASF5536
C:\Users\SOLDER~1\AppData\Local\Temp\ccbih9yx.s:26833  .debug_str:0000000000022518 .LASF5537
C:\Users\SOLDER~1\AppData\Local\Temp\ccbih9yx.s:21629  .debug_str:000000000000d243 .LASF5538
C:\Users\SOLDER~1\AppData\Local\Temp\ccbih9yx.s:27817  .debug_str:0000000000026674 .LASF5539
C:\Users\SOLDER~1\AppData\Local\Temp\ccbih9yx.s:21641  .debug_str:000000000000d321 .LASF5540
C:\Users\SOLDER~1\AppData\Local\Temp\ccbih9yx.s:28647  .debug_str:0000000000029c83 .LASF5541
C:\Users\SOLDER~1\AppData\Local\Temp\ccbih9yx.s:29019  .debug_str:000000000002b4b8 .LASF5542
C:\Users\SOLDER~1\AppData\Local\Temp\ccbih9yx.s:26859  .debug_str:00000000000226c6 .LASF5543
C:\Users\SOLDER~1\AppData\Local\Temp\ccbih9yx.s:28077  .debug_str:00000000000277a1 .LASF5544
C:\Users\SOLDER~1\AppData\Local\Temp\ccbih9yx.s:22203  .debug_str:000000000000f79c .LASF5545
C:\Users\SOLDER~1\AppData\Local\Temp\ccbih9yx.s:29593  .debug_str:000000000002d9c6 .LASF5546
C:\Users\SOLDER~1\AppData\Local\Temp\ccbih9yx.s:24367  .debug_str:00000000000184e9 .LASF5547
C:\Users\SOLDER~1\AppData\Local\Temp\ccbih9yx.s:23423  .debug_str:000000000001480e .LASF5548
C:\Users\SOLDER~1\AppData\Local\Temp\ccbih9yx.s:23225  .debug_str:0000000000013a91 .LASF5549
C:\Users\SOLDER~1\AppData\Local\Temp\ccbih9yx.s:20861  .debug_str:0000000000009f58 .LASF5550
C:\Users\SOLDER~1\AppData\Local\Temp\ccbih9yx.s:25557  .debug_str:000000000001d2bb .LASF5551
C:\Users\SOLDER~1\AppData\Local\Temp\ccbih9yx.s:20991  .debug_str:000000000000a81c .LASF5552
C:\Users\SOLDER~1\AppData\Local\Temp\ccbih9yx.s:27691  .debug_str:0000000000025dc0 .LASF5553
C:\Users\SOLDER~1\AppData\Local\Temp\ccbih9yx.s:19117  .debug_str:0000000000002e9d .LASF5554
C:\Users\SOLDER~1\AppData\Local\Temp\ccbih9yx.s:19555  .debug_str:0000000000004a60 .LASF5555
C:\Users\SOLDER~1\AppData\Local\Temp\ccbih9yx.s:21095  .debug_str:000000000000af07 .LASF5556
C:\Users\SOLDER~1\AppData\Local\Temp\ccbih9yx.s:24573  .debug_str:0000000000019289 .LASF5557
C:\Users\SOLDER~1\AppData\Local\Temp\ccbih9yx.s:21653  .debug_str:000000000000d3fa .LASF5558
C:\Users\SOLDER~1\AppData\Local\Temp\ccbih9yx.s:27109  .debug_str:0000000000023777 .LASF5559
C:\Users\SOLDER~1\AppData\Local\Temp\ccbih9yx.s:28241  .debug_str:0000000000028253 .LASF5560
C:\Users\SOLDER~1\AppData\Local\Temp\ccbih9yx.s:21125  .debug_str:000000000000b0c7 .LASF5561
C:\Users\SOLDER~1\AppData\Local\Temp\ccbih9yx.s:25671  .debug_str:000000000001d9b0 .LASF5562
C:\Users\SOLDER~1\AppData\Local\Temp\ccbih9yx.s:28179  .debug_str:0000000000027e3b .LASF5563
C:\Users\SOLDER~1\AppData\Local\Temp\ccbih9yx.s:25409  .debug_str:000000000001c88e .LASF5564
C:\Users\SOLDER~1\AppData\Local\Temp\ccbih9yx.s:29793  .debug_str:000000000002e688 .LASF5565
C:\Users\SOLDER~1\AppData\Local\Temp\ccbih9yx.s:28871  .debug_str:000000000002ab14 .LASF5566
C:\Users\SOLDER~1\AppData\Local\Temp\ccbih9yx.s:29143  .debug_str:000000000002bc8d .LASF5567
C:\Users\SOLDER~1\AppData\Local\Temp\ccbih9yx.s:24627  .debug_str:0000000000019659 .LASF5568
C:\Users\SOLDER~1\AppData\Local\Temp\ccbih9yx.s:20073  .debug_str:0000000000006bda .LASF5569
C:\Users\SOLDER~1\AppData\Local\Temp\ccbih9yx.s:18643  .debug_str:0000000000001018 .LASF5570
C:\Users\SOLDER~1\AppData\Local\Temp\ccbih9yx.s:26913  .debug_str:0000000000022a96 .LASF5571
C:\Users\SOLDER~1\AppData\Local\Temp\ccbih9yx.s:18549  .debug_str:0000000000000a07 .LASF5572
C:\Users\SOLDER~1\AppData\Local\Temp\ccbih9yx.s:23253  .debug_str:0000000000013c85 .LASF5573
C:\Users\SOLDER~1\AppData\Local\Temp\ccbih9yx.s:22627  .debug_str:00000000000112f6 .LASF5574
C:\Users\SOLDER~1\AppData\Local\Temp\ccbih9yx.s:27363  .debug_str:00000000000247fb .LASF5575
C:\Users\SOLDER~1\AppData\Local\Temp\ccbih9yx.s:18663  .debug_str:000000000000115b .LASF5576
C:\Users\SOLDER~1\AppData\Local\Temp\ccbih9yx.s:24075  .debug_str:00000000000171cc .LASF5577
C:\Users\SOLDER~1\AppData\Local\Temp\ccbih9yx.s:25257  .debug_str:000000000001be53 .LASF5578
C:\Users\SOLDER~1\AppData\Local\Temp\ccbih9yx.s:20229  .debug_str:000000000000760e .LASF5579
C:\Users\SOLDER~1\AppData\Local\Temp\ccbih9yx.s:21947  .debug_str:000000000000e73e .LASF5580
C:\Users\SOLDER~1\AppData\Local\Temp\ccbih9yx.s:22973  .debug_str:0000000000012936 .LASF5581
C:\Users\SOLDER~1\AppData\Local\Temp\ccbih9yx.s:24765  .debug_str:0000000000019ead .LASF5582
C:\Users\SOLDER~1\AppData\Local\Temp\ccbih9yx.s:24623  .debug_str:0000000000019607 .LASF5583
C:\Users\SOLDER~1\AppData\Local\Temp\ccbih9yx.s:24881  .debug_str:000000000001a611 .LASF5584
C:\Users\SOLDER~1\AppData\Local\Temp\ccbih9yx.s:26069  .debug_str:000000000001f40b .LASF5585
C:\Users\SOLDER~1\AppData\Local\Temp\ccbih9yx.s:22869  .debug_str:000000000001228b .LASF5586
C:\Users\SOLDER~1\AppData\Local\Temp\ccbih9yx.s:28917  .debug_str:000000000002addc .LASF5587
C:\Users\SOLDER~1\AppData\Local\Temp\ccbih9yx.s:20623  .debug_str:0000000000008fe0 .LASF5588
C:\Users\SOLDER~1\AppData\Local\Temp\ccbih9yx.s:26527  .debug_str:00000000000211d2 .LASF5589
C:\Users\SOLDER~1\AppData\Local\Temp\ccbih9yx.s:22269  .debug_str:000000000000fc5b .LASF5590
C:\Users\SOLDER~1\AppData\Local\Temp\ccbih9yx.s:20993  .debug_str:000000000000a84e .LASF5591
GAS LISTING C:\Users\SOLDER~1\AppData\Local\Temp\ccbih9yx.s 			page 109


C:\Users\SOLDER~1\AppData\Local\Temp\ccbih9yx.s:24475  .debug_str:0000000000018c0f .LASF5592
C:\Users\SOLDER~1\AppData\Local\Temp\ccbih9yx.s:19851  .debug_str:0000000000005d36 .LASF5593
C:\Users\SOLDER~1\AppData\Local\Temp\ccbih9yx.s:20259  .debug_str:00000000000077b9 .LASF5594
C:\Users\SOLDER~1\AppData\Local\Temp\ccbih9yx.s:20909  .debug_str:000000000000a28f .LASF5595
C:\Users\SOLDER~1\AppData\Local\Temp\ccbih9yx.s:26985  .debug_str:0000000000022f20 .LASF5596
C:\Users\SOLDER~1\AppData\Local\Temp\ccbih9yx.s:25661  .debug_str:000000000001d900 .LASF5597
C:\Users\SOLDER~1\AppData\Local\Temp\ccbih9yx.s:18513  .debug_str:000000000000079b .LASF5598
C:\Users\SOLDER~1\AppData\Local\Temp\ccbih9yx.s:22487  .debug_str:0000000000010a2b .LASF5599
C:\Users\SOLDER~1\AppData\Local\Temp\ccbih9yx.s:29453  .debug_str:000000000002d0fb .LASF5600
C:\Users\SOLDER~1\AppData\Local\Temp\ccbih9yx.s:19609  .debug_str:0000000000004dde .LASF5601
C:\Users\SOLDER~1\AppData\Local\Temp\ccbih9yx.s:27195  .debug_str:0000000000023cc2 .LASF5602
C:\Users\SOLDER~1\AppData\Local\Temp\ccbih9yx.s:28133  .debug_str:0000000000027b0a .LASF5603
C:\Users\SOLDER~1\AppData\Local\Temp\ccbih9yx.s:26711  .debug_str:0000000000021d7a .LASF5604
C:\Users\SOLDER~1\AppData\Local\Temp\ccbih9yx.s:26661  .debug_str:0000000000021a71 .LASF5605
C:\Users\SOLDER~1\AppData\Local\Temp\ccbih9yx.s:26265  .debug_str:0000000000020098 .LASF5606
C:\Users\SOLDER~1\AppData\Local\Temp\ccbih9yx.s:18849  .debug_str:0000000000001d55 .LASF5607
C:\Users\SOLDER~1\AppData\Local\Temp\ccbih9yx.s:28405  .debug_str:0000000000028cb2 .LASF5608
C:\Users\SOLDER~1\AppData\Local\Temp\ccbih9yx.s:25533  .debug_str:000000000001d107 .LASF5609
C:\Users\SOLDER~1\AppData\Local\Temp\ccbih9yx.s:29401  .debug_str:000000000002cd43 .LASF5610
C:\Users\SOLDER~1\AppData\Local\Temp\ccbih9yx.s:20079  .debug_str:0000000000006c27 .LASF5611
C:\Users\SOLDER~1\AppData\Local\Temp\ccbih9yx.s:21367  .debug_str:000000000000c09e .LASF5612
C:\Users\SOLDER~1\AppData\Local\Temp\ccbih9yx.s:28643  .debug_str:0000000000029c36 .LASF5613
C:\Users\SOLDER~1\AppData\Local\Temp\ccbih9yx.s:24479  .debug_str:0000000000018c4a .LASF5614
C:\Users\SOLDER~1\AppData\Local\Temp\ccbih9yx.s:27307  .debug_str:0000000000024435 .LASF5615
C:\Users\SOLDER~1\AppData\Local\Temp\ccbih9yx.s:25715  .debug_str:000000000001dc97 .LASF5616
C:\Users\SOLDER~1\AppData\Local\Temp\ccbih9yx.s:24021  .debug_str:0000000000016e20 .LASF5617
C:\Users\SOLDER~1\AppData\Local\Temp\ccbih9yx.s:19733  .debug_str:000000000000554e .LASF5618
C:\Users\SOLDER~1\AppData\Local\Temp\ccbih9yx.s:23885  .debug_str:00000000000165e2 .LASF5619
C:\Users\SOLDER~1\AppData\Local\Temp\ccbih9yx.s:27811  .debug_str:000000000002660b .LASF5620
C:\Users\SOLDER~1\AppData\Local\Temp\ccbih9yx.s:22653  .debug_str:00000000000114f4 .LASF5621
C:\Users\SOLDER~1\AppData\Local\Temp\ccbih9yx.s:25027  .debug_str:000000000001afc8 .LASF5622
C:\Users\SOLDER~1\AppData\Local\Temp\ccbih9yx.s:18505  .debug_str:0000000000000720 .LASF5623
C:\Users\SOLDER~1\AppData\Local\Temp\ccbih9yx.s:21023  .debug_str:000000000000aa57 .LASF5624
C:\Users\SOLDER~1\AppData\Local\Temp\ccbih9yx.s:25775  .debug_str:000000000001e0a2 .LASF5625
C:\Users\SOLDER~1\AppData\Local\Temp\ccbih9yx.s:22951  .debug_str:00000000000127d2 .LASF5626
C:\Users\SOLDER~1\AppData\Local\Temp\ccbih9yx.s:23205  .debug_str:00000000000138fa .LASF5627
C:\Users\SOLDER~1\AppData\Local\Temp\ccbih9yx.s:21403  .debug_str:000000000000c337 .LASF5628
C:\Users\SOLDER~1\AppData\Local\Temp\ccbih9yx.s:26471  .debug_str:0000000000020df4 .LASF5629
C:\Users\SOLDER~1\AppData\Local\Temp\ccbih9yx.s:24109  .debug_str:000000000001740e .LASF5630
C:\Users\SOLDER~1\AppData\Local\Temp\ccbih9yx.s:28319  .debug_str:0000000000028780 .LASF5631
C:\Users\SOLDER~1\AppData\Local\Temp\ccbih9yx.s:24115  .debug_str:000000000001747c .LASF5632
C:\Users\SOLDER~1\AppData\Local\Temp\ccbih9yx.s:29623  .debug_str:000000000002dbcf .LASF5633
C:\Users\SOLDER~1\AppData\Local\Temp\ccbih9yx.s:23891  .debug_str:0000000000016626 .LASF5634
C:\Users\SOLDER~1\AppData\Local\Temp\ccbih9yx.s:25473  .debug_str:000000000001cd02 .LASF5635
C:\Users\SOLDER~1\AppData\Local\Temp\ccbih9yx.s:27057  .debug_str:0000000000023420 .LASF5636
C:\Users\SOLDER~1\AppData\Local\Temp\ccbih9yx.s:22523  .debug_str:0000000000010c5a .LASF5637
C:\Users\SOLDER~1\AppData\Local\Temp\ccbih9yx.s:24377  .debug_str:000000000001859c .LASF5638
C:\Users\SOLDER~1\AppData\Local\Temp\ccbih9yx.s:20481  .debug_str:0000000000008668 .LASF5639
C:\Users\SOLDER~1\AppData\Local\Temp\ccbih9yx.s:23187  .debug_str:0000000000013781 .LASF5640
C:\Users\SOLDER~1\AppData\Local\Temp\ccbih9yx.s:26629  .debug_str:0000000000021842 .LASF5641
C:\Users\SOLDER~1\AppData\Local\Temp\ccbih9yx.s:28935  .debug_str:000000000002af39 .LASF5642
C:\Users\SOLDER~1\AppData\Local\Temp\ccbih9yx.s:20947  .debug_str:000000000000a515 .LASF5643
C:\Users\SOLDER~1\AppData\Local\Temp\ccbih9yx.s:26495  .debug_str:0000000000020f8b .LASF5644
C:\Users\SOLDER~1\AppData\Local\Temp\ccbih9yx.s:23017  .debug_str:0000000000012c4d .LASF5645
C:\Users\SOLDER~1\AppData\Local\Temp\ccbih9yx.s:27321  .debug_str:0000000000024531 .LASF5646
C:\Users\SOLDER~1\AppData\Local\Temp\ccbih9yx.s:23499  .debug_str:0000000000014d4c .LASF5647
C:\Users\SOLDER~1\AppData\Local\Temp\ccbih9yx.s:26875  .debug_str:00000000000227e0 .LASF5648
GAS LISTING C:\Users\SOLDER~1\AppData\Local\Temp\ccbih9yx.s 			page 110


C:\Users\SOLDER~1\AppData\Local\Temp\ccbih9yx.s:29833  .debug_str:000000000002e93f .LASF5649
C:\Users\SOLDER~1\AppData\Local\Temp\ccbih9yx.s:29195  .debug_str:000000000002c054 .LASF5650
C:\Users\SOLDER~1\AppData\Local\Temp\ccbih9yx.s:28499  .debug_str:00000000000292c4 .LASF5651
C:\Users\SOLDER~1\AppData\Local\Temp\ccbih9yx.s:20091  .debug_str:0000000000006d00 .LASF5652
C:\Users\SOLDER~1\AppData\Local\Temp\ccbih9yx.s:20293  .debug_str:0000000000007a02 .LASF5653
C:\Users\SOLDER~1\AppData\Local\Temp\ccbih9yx.s:20087  .debug_str:0000000000006cc3 .LASF5654
C:\Users\SOLDER~1\AppData\Local\Temp\ccbih9yx.s:27007  .debug_str:00000000000230aa .LASF5655
C:\Users\SOLDER~1\AppData\Local\Temp\ccbih9yx.s:29013  .debug_str:000000000002b459 .LASF5656
C:\Users\SOLDER~1\AppData\Local\Temp\ccbih9yx.s:19203  .debug_str:0000000000003456 .LASF5657
C:\Users\SOLDER~1\AppData\Local\Temp\ccbih9yx.s:28997  .debug_str:000000000002b34b .LASF5658
C:\Users\SOLDER~1\AppData\Local\Temp\ccbih9yx.s:25839  .debug_str:000000000001e489 .LASF5659
C:\Users\SOLDER~1\AppData\Local\Temp\ccbih9yx.s:22375  .debug_str:000000000001032e .LASF5660
C:\Users\SOLDER~1\AppData\Local\Temp\ccbih9yx.s:20051  .debug_str:0000000000006a6c .LASF5661
C:\Users\SOLDER~1\AppData\Local\Temp\ccbih9yx.s:19753  .debug_str:0000000000005692 .LASF5662
C:\Users\SOLDER~1\AppData\Local\Temp\ccbih9yx.s:18987  .debug_str:000000000000263c .LASF5663
C:\Users\SOLDER~1\AppData\Local\Temp\ccbih9yx.s:19205  .debug_str:0000000000003477 .LASF5664
C:\Users\SOLDER~1\AppData\Local\Temp\ccbih9yx.s:22515  .debug_str:0000000000010bd9 .LASF5665
C:\Users\SOLDER~1\AppData\Local\Temp\ccbih9yx.s:20663  .debug_str:0000000000009291 .LASF5666
C:\Users\SOLDER~1\AppData\Local\Temp\ccbih9yx.s:19757  .debug_str:00000000000056f3 .LASF5667
C:\Users\SOLDER~1\AppData\Local\Temp\ccbih9yx.s:27667  .debug_str:0000000000025c22 .LASF5668
C:\Users\SOLDER~1\AppData\Local\Temp\ccbih9yx.s:21543  .debug_str:000000000000cca4 .LASF5669
C:\Users\SOLDER~1\AppData\Local\Temp\ccbih9yx.s:20135  .debug_str:000000000000702a .LASF5670
C:\Users\SOLDER~1\AppData\Local\Temp\ccbih9yx.s:29915  .debug_str:000000000002ee41 .LASF5671
C:\Users\SOLDER~1\AppData\Local\Temp\ccbih9yx.s:20465  .debug_str:0000000000008564 .LASF5672
C:\Users\SOLDER~1\AppData\Local\Temp\ccbih9yx.s:20149  .debug_str:0000000000007118 .LASF5673
C:\Users\SOLDER~1\AppData\Local\Temp\ccbih9yx.s:23799  .debug_str:00000000000160a4 .LASF5674
C:\Users\SOLDER~1\AppData\Local\Temp\ccbih9yx.s:29733  .debug_str:000000000002e28d .LASF5675
C:\Users\SOLDER~1\AppData\Local\Temp\ccbih9yx.s:18847  .debug_str:0000000000001d34 .LASF5676
C:\Users\SOLDER~1\AppData\Local\Temp\ccbih9yx.s:23621  .debug_str:000000000001551e .LASF5677
C:\Users\SOLDER~1\AppData\Local\Temp\ccbih9yx.s:29525  .debug_str:000000000002d56e .LASF5678
C:\Users\SOLDER~1\AppData\Local\Temp\ccbih9yx.s:26017  .debug_str:000000000001f07b .LASF5679
C:\Users\SOLDER~1\AppData\Local\Temp\ccbih9yx.s:22549  .debug_str:0000000000010e14 .LASF5680
C:\Users\SOLDER~1\AppData\Local\Temp\ccbih9yx.s:27179  .debug_str:0000000000023bca .LASF5681
C:\Users\SOLDER~1\AppData\Local\Temp\ccbih9yx.s:26693  .debug_str:0000000000021c84 .LASF5682
C:\Users\SOLDER~1\AppData\Local\Temp\ccbih9yx.s:19219  .debug_str:000000000000354b .LASF5683
C:\Users\SOLDER~1\AppData\Local\Temp\ccbih9yx.s:28063  .debug_str:00000000000276b8 .LASF5684
C:\Users\SOLDER~1\AppData\Local\Temp\ccbih9yx.s:23547  .debug_str:000000000001502c .LASF5685
C:\Users\SOLDER~1\AppData\Local\Temp\ccbih9yx.s:25513  .debug_str:000000000001cf87 .LASF5686
C:\Users\SOLDER~1\AppData\Local\Temp\ccbih9yx.s:29155  .debug_str:000000000002bd5f .LASF5687
C:\Users\SOLDER~1\AppData\Local\Temp\ccbih9yx.s:27523  .debug_str:0000000000025249 .LASF5688
C:\Users\SOLDER~1\AppData\Local\Temp\ccbih9yx.s:24969  .debug_str:000000000001abd0 .LASF5689
C:\Users\SOLDER~1\AppData\Local\Temp\ccbih9yx.s:24961  .debug_str:000000000001ab42 .LASF5690
C:\Users\SOLDER~1\AppData\Local\Temp\ccbih9yx.s:25301  .debug_str:000000000001c140 .LASF5691
C:\Users\SOLDER~1\AppData\Local\Temp\ccbih9yx.s:23483  .debug_str:0000000000014c4d .LASF5692
C:\Users\SOLDER~1\AppData\Local\Temp\ccbih9yx.s:22923  .debug_str:0000000000012620 .LASF5693
C:\Users\SOLDER~1\AppData\Local\Temp\ccbih9yx.s:24967  .debug_str:000000000001abae .LASF5694
C:\Users\SOLDER~1\AppData\Local\Temp\ccbih9yx.s:29735  .debug_str:000000000002e2b0 .LASF5695
C:\Users\SOLDER~1\AppData\Local\Temp\ccbih9yx.s:29645  .debug_str:000000000002dd45 .LASF5696
C:\Users\SOLDER~1\AppData\Local\Temp\ccbih9yx.s:22343  .debug_str:000000000001010c .LASF5697
C:\Users\SOLDER~1\AppData\Local\Temp\ccbih9yx.s:29001  .debug_str:000000000002b38e .LASF5698
C:\Users\SOLDER~1\AppData\Local\Temp\ccbih9yx.s:25717  .debug_str:000000000001dcc6 .LASF5699
C:\Users\SOLDER~1\AppData\Local\Temp\ccbih9yx.s:22745  .debug_str:0000000000011ac9 .LASF5700
C:\Users\SOLDER~1\AppData\Local\Temp\ccbih9yx.s:20309  .debug_str:0000000000007b26 .LASF5701
C:\Users\SOLDER~1\AppData\Local\Temp\ccbih9yx.s:18667  .debug_str:00000000000011ad .LASF5702
C:\Users\SOLDER~1\AppData\Local\Temp\ccbih9yx.s:27221  .debug_str:0000000000023e8d .LASF5703
C:\Users\SOLDER~1\AppData\Local\Temp\ccbih9yx.s:22897  .debug_str:0000000000012442 .LASF5704
C:\Users\SOLDER~1\AppData\Local\Temp\ccbih9yx.s:20573  .debug_str:0000000000008c60 .LASF5705
GAS LISTING C:\Users\SOLDER~1\AppData\Local\Temp\ccbih9yx.s 			page 111


C:\Users\SOLDER~1\AppData\Local\Temp\ccbih9yx.s:19793  .debug_str:000000000000597b .LASF5706
C:\Users\SOLDER~1\AppData\Local\Temp\ccbih9yx.s:29227  .debug_str:000000000002c25b .LASF5707
C:\Users\SOLDER~1\AppData\Local\Temp\ccbih9yx.s:21333  .debug_str:000000000000be5f .LASF5708
C:\Users\SOLDER~1\AppData\Local\Temp\ccbih9yx.s:21531  .debug_str:000000000000cbdf .LASF5709
C:\Users\SOLDER~1\AppData\Local\Temp\ccbih9yx.s:25631  .debug_str:000000000001d74f .LASF5710
C:\Users\SOLDER~1\AppData\Local\Temp\ccbih9yx.s:25041  .debug_str:000000000001b06a .LASF5711
C:\Users\SOLDER~1\AppData\Local\Temp\ccbih9yx.s:24513  .debug_str:0000000000018ea6 .LASF5712
C:\Users\SOLDER~1\AppData\Local\Temp\ccbih9yx.s:19863  .debug_str:0000000000005df5 .LASF5713
C:\Users\SOLDER~1\AppData\Local\Temp\ccbih9yx.s:18739  .debug_str:000000000000165d .LASF5714
C:\Users\SOLDER~1\AppData\Local\Temp\ccbih9yx.s:29291  .debug_str:000000000002c678 .LASF5715
                           .group:0000000000000000 wm4.0.cc27e0d2094b492664a2491ca1ae43b0
                           .group:0000000000000000 wm4.ch32v20x.h.13.a030255a3e90e7179ae3b08da8e2408d
                           .group:0000000000000000 wm4._newlib_version.h.4.529115dae5e4f67702b1de0b6e841f38
                           .group:0000000000000000 wm4.features.h.33.3e67abe6fb64142d4f6fa9496796153c
                           .group:0000000000000000 wm4._default_types.h.15.247e5cd201eca3442cbf5404108c4935
                           .group:0000000000000000 wm4._intsup.h.10.48bafbb683905c4daa4565a85aeeb264
                           .group:0000000000000000 wm4._stdint.h.10.c24fa3af3bc1706662bb5593a907e841
                           .group:0000000000000000 wm4.stdint.h.23.d53047a68f4a85177f80b422d52785ed
                           .group:0000000000000000 wm4.core_riscv.h.11.151d7acb41e203dcc664023294f59bdc
                           .group:0000000000000000 wm4.ch32v20x.h.153.1d8393f26361703471ea96fe9aa4b4f9
                           .group:0000000000000000 wm4.ch32v20x_adc.h.56.f131972e7ce35efbe3b5c47a075d6d1b
                           .group:0000000000000000 wm4.ch32v20x_bkp.h.14.0a7965eb5be5000a494c3059b6f0eca5
                           .group:0000000000000000 wm4.ch32v20x_can.h.14.aa1dae2c28cbaf083875b4b61810c3c7
                           .group:0000000000000000 wm4.ch32v20x_dbgmcu.h.14.26ef95879978d9caaa154b373f3a512b
                           .group:0000000000000000 wm4.ch32v20x_dma.h.14.425a907348dd0134bf6e82c73bbd3df8
                           .group:0000000000000000 wm4.ch32v20x_exti.h.14.f67190d3fb91aa9aecce0f4d5a543221
                           .group:0000000000000000 wm4.ch32v20x_flash.h.14.91c5ecdad44f358d5032244aabf7ef4e
                           .group:0000000000000000 wm4.ch32v20x_gpio.h.14.bdb7f79cce0dffbc24dc81ea80f90bd2
                           .group:0000000000000000 wm4.ch32v20x_i2c.h.14.101eb625c9d2afac400f4e8ac2e9fb1d
                           .group:0000000000000000 wm4.ch32v20x_iwdg.h.14.26025d04ceeb3151185969ed5850fbb4
                           .group:0000000000000000 wm4.ch32v20x_pwr.h.14.8eaa3508938f71b27f140895c21602e6
                           .group:0000000000000000 wm4.ch32v20x_rcc.h.13.18c6b8696a30372de01acaf3c246ecb8
                           .group:0000000000000000 wm4.ch32v20x_rtc.h.14.eb8734f5dd75abcf831b4f12ec49aebe
                           .group:0000000000000000 wm4.ch32v20x_spi.h.14.f12b1f237c615e7304ae62cc2e2c3c1a
                           .group:0000000000000000 wm4.ch32v20x_tim.h.14.35d11fab62898d9d661122ade86d8a6c
                           .group:0000000000000000 wm4.ch32v20x_usart.h.14.9d28c7ec28f2121810b69a55079cd38f
                           .group:0000000000000000 wm4.ch32v20x_wwdg.h.14.49bada437175894a4dce7e12e4216bc9
                           .group:0000000000000000 wm4.ch32v20x_misc.h.14.f3992cf724c30ec0bea268444ffdb6e0
                           .group:0000000000000000 wm4.ch32v20x_opa.h.22.4d5f0e234c01542ef2e6bb8de6792f29

NO UNDEFINED SYMBOLS
