GAS LISTING C:\Users\SOLDER~1\AppData\Local\Temp\cc0vShlo.s 			page 1


   1              		.file	"ch32v20x_dbgmcu.c"
   2              		.option nopic
   3              		.attribute arch, "rv32i2p0_m2p0_a2p0_c2p0_xw"
   4              		.attribute unaligned_access, 0
   5              		.attribute stack_align, 16
   6              		.text
   7              	.Ltext0:
   8              		.cfi_sections	.debug_frame
   9              		.file 0 "C:\\Users\\Solderingiron\\Documents\\GitHub\\VSC-make-example\\VSC_CH32V203C8T6" "Drivers
  10              		.section	.text.DBGMCU_GetREVID,"ax",@progbits
  11              		.align	1
  12              		.globl	DBGMCU_GetREVID
  14              	DBGMCU_GetREVID:
  15              	.LFB16:
  16              		.file 1 "Drivers/src/ch32v20x_dbgmcu.c"
   1:Drivers/src/ch32v20x_dbgmcu.c **** /********************************** (C) COPYRIGHT  *******************************
   2:Drivers/src/ch32v20x_dbgmcu.c ****  * File Name          : ch32v20x_dbgmcu.c
   3:Drivers/src/ch32v20x_dbgmcu.c ****  * Author             : WCH
   4:Drivers/src/ch32v20x_dbgmcu.c ****  * Version            : V1.0.0
   5:Drivers/src/ch32v20x_dbgmcu.c ****  * Date               : 2021/06/06
   6:Drivers/src/ch32v20x_dbgmcu.c ****  * Description        : This file provides all the DBGMCU firmware functions.
   7:Drivers/src/ch32v20x_dbgmcu.c ****  *********************************************************************************
   8:Drivers/src/ch32v20x_dbgmcu.c ****  * Copyright (c) 2021 Nanjing Qinheng Microelectronics Co., Ltd.
   9:Drivers/src/ch32v20x_dbgmcu.c ****  * Attention: This software (modified or not) and binary are used for 
  10:Drivers/src/ch32v20x_dbgmcu.c ****  * microcontroller manufactured by Nanjing Qinheng Microelectronics.
  11:Drivers/src/ch32v20x_dbgmcu.c ****  *******************************************************************************/
  12:Drivers/src/ch32v20x_dbgmcu.c **** #include "ch32v20x_dbgmcu.h"
  13:Drivers/src/ch32v20x_dbgmcu.c **** 
  14:Drivers/src/ch32v20x_dbgmcu.c **** #define IDCODE_DEVID_MASK    ((uint32_t)0x0000FFFF)
  15:Drivers/src/ch32v20x_dbgmcu.c **** 
  16:Drivers/src/ch32v20x_dbgmcu.c **** /*********************************************************************
  17:Drivers/src/ch32v20x_dbgmcu.c ****  * @fn      DBGMCU_GetREVID
  18:Drivers/src/ch32v20x_dbgmcu.c ****  *
  19:Drivers/src/ch32v20x_dbgmcu.c ****  * @brief   Returns the device revision identifier.
  20:Drivers/src/ch32v20x_dbgmcu.c ****  *
  21:Drivers/src/ch32v20x_dbgmcu.c ****  * @return  Revision identifier.
  22:Drivers/src/ch32v20x_dbgmcu.c ****  */
  23:Drivers/src/ch32v20x_dbgmcu.c **** uint32_t DBGMCU_GetREVID(void)
  24:Drivers/src/ch32v20x_dbgmcu.c **** {
  17              		.loc 1 24 1
  18              		.cfi_startproc
  19 0000 4111     		addi	sp,sp,-16
  20              		.cfi_def_cfa_offset 16
  21 0002 22C6     		sw	s0,12(sp)
  22              		.cfi_offset 8, -4
  23 0004 0008     		addi	s0,sp,16
  24              		.cfi_def_cfa 8, 0
  25:Drivers/src/ch32v20x_dbgmcu.c ****     return ((*(uint32_t *)0x1FFFF704) >> 16);
  25              		.loc 1 25 14
  26 0006 B7F7FF1F 		li	a5,536866816
  27 000a 93874770 		addi	a5,a5,1796
  28 000e 9C43     		lw	a5,0(a5)
  29              		.loc 1 25 39
  30 0010 C183     		srli	a5,a5,16
  26:Drivers/src/ch32v20x_dbgmcu.c **** }
  31              		.loc 1 26 1
  32 0012 3E85     		mv	a0,a5
GAS LISTING C:\Users\SOLDER~1\AppData\Local\Temp\cc0vShlo.s 			page 2


  33 0014 3244     		lw	s0,12(sp)
  34              		.cfi_restore 8
  35              		.cfi_def_cfa 2, 16
  36 0016 4101     		addi	sp,sp,16
  37              		.cfi_def_cfa_offset 0
  38 0018 8280     		jr	ra
  39              		.cfi_endproc
  40              	.LFE16:
  42              		.section	.text.DBGMCU_GetDEVID,"ax",@progbits
  43              		.align	1
  44              		.globl	DBGMCU_GetDEVID
  46              	DBGMCU_GetDEVID:
  47              	.LFB17:
  27:Drivers/src/ch32v20x_dbgmcu.c **** 
  28:Drivers/src/ch32v20x_dbgmcu.c **** /*********************************************************************
  29:Drivers/src/ch32v20x_dbgmcu.c ****  * @fn      DBGMCU_GetDEVID
  30:Drivers/src/ch32v20x_dbgmcu.c ****  *
  31:Drivers/src/ch32v20x_dbgmcu.c ****  * @brief   Returns the device identifier.
  32:Drivers/src/ch32v20x_dbgmcu.c ****  *
  33:Drivers/src/ch32v20x_dbgmcu.c ****  * @return  Device identifier.
  34:Drivers/src/ch32v20x_dbgmcu.c ****  */
  35:Drivers/src/ch32v20x_dbgmcu.c **** uint32_t DBGMCU_GetDEVID(void)
  36:Drivers/src/ch32v20x_dbgmcu.c **** {
  48              		.loc 1 36 1
  49              		.cfi_startproc
  50 0000 4111     		addi	sp,sp,-16
  51              		.cfi_def_cfa_offset 16
  52 0002 22C6     		sw	s0,12(sp)
  53              		.cfi_offset 8, -4
  54 0004 0008     		addi	s0,sp,16
  55              		.cfi_def_cfa 8, 0
  37:Drivers/src/ch32v20x_dbgmcu.c ****     return ((*(uint32_t *)0x1FFFF704) & IDCODE_DEVID_MASK);
  56              		.loc 1 37 14
  57 0006 B7F7FF1F 		li	a5,536866816
  58 000a 93874770 		addi	a5,a5,1796
  59 000e 9843     		lw	a4,0(a5)
  60              		.loc 1 37 39
  61 0010 C167     		li	a5,65536
  62 0012 FD17     		addi	a5,a5,-1
  63 0014 F98F     		and	a5,a4,a5
  38:Drivers/src/ch32v20x_dbgmcu.c **** }
  64              		.loc 1 38 1
  65 0016 3E85     		mv	a0,a5
  66 0018 3244     		lw	s0,12(sp)
  67              		.cfi_restore 8
  68              		.cfi_def_cfa 2, 16
  69 001a 4101     		addi	sp,sp,16
  70              		.cfi_def_cfa_offset 0
  71 001c 8280     		jr	ra
  72              		.cfi_endproc
  73              	.LFE17:
  75              		.section	.text.__get_DEBUG_CR,"ax",@progbits
  76              		.align	1
  77              		.globl	__get_DEBUG_CR
  79              	__get_DEBUG_CR:
  80              	.LFB18:
  39:Drivers/src/ch32v20x_dbgmcu.c **** 
GAS LISTING C:\Users\SOLDER~1\AppData\Local\Temp\cc0vShlo.s 			page 3


  40:Drivers/src/ch32v20x_dbgmcu.c **** /*********************************************************************
  41:Drivers/src/ch32v20x_dbgmcu.c ****  * @fn      __get_DEBUG_CR
  42:Drivers/src/ch32v20x_dbgmcu.c ****  *
  43:Drivers/src/ch32v20x_dbgmcu.c ****  * @brief   Return the DEBUGE Control Register
  44:Drivers/src/ch32v20x_dbgmcu.c ****  *
  45:Drivers/src/ch32v20x_dbgmcu.c ****  * @return  DEBUGE Control value
  46:Drivers/src/ch32v20x_dbgmcu.c ****  */
  47:Drivers/src/ch32v20x_dbgmcu.c **** uint32_t __get_DEBUG_CR(void)
  48:Drivers/src/ch32v20x_dbgmcu.c **** {
  81              		.loc 1 48 1
  82              		.cfi_startproc
  83 0000 0111     		addi	sp,sp,-32
  84              		.cfi_def_cfa_offset 32
  85 0002 22CE     		sw	s0,28(sp)
  86              		.cfi_offset 8, -4
  87 0004 0010     		addi	s0,sp,32
  88              		.cfi_def_cfa 8, 0
  49:Drivers/src/ch32v20x_dbgmcu.c ****     uint32_t result;
  50:Drivers/src/ch32v20x_dbgmcu.c **** 
  51:Drivers/src/ch32v20x_dbgmcu.c ****     __asm volatile("csrr %0,""0x7C0" : "=r"(result));
  89              		.loc 1 51 5
  90              	 #APP
  91              	# 51 "Drivers/src/ch32v20x_dbgmcu.c" 1
  52              	    return (result);
  92              		csrr a5,0x7C0
  93              	# 0 "" 2
  94              	 #NO_APP
  95 000a 2326F4FE 		sw	a5,-20(s0)
  96              		.loc 1 52 12
  97 000e 8327C4FE 		lw	a5,-20(s0)
  53:Drivers/src/ch32v20x_dbgmcu.c **** }
  98              		.loc 1 53 1
  99 0012 3E85     		mv	a0,a5
 100 0014 7244     		lw	s0,28(sp)
 101              		.cfi_restore 8
 102              		.cfi_def_cfa 2, 32
 103 0016 0561     		addi	sp,sp,32
 104              		.cfi_def_cfa_offset 0
 105 0018 8280     		jr	ra
 106              		.cfi_endproc
 107              	.LFE18:
 109              		.section	.text.__set_DEBUG_CR,"ax",@progbits
 110              		.align	1
 111              		.globl	__set_DEBUG_CR
 113              	__set_DEBUG_CR:
 114              	.LFB19:
  54:Drivers/src/ch32v20x_dbgmcu.c **** 
  55:Drivers/src/ch32v20x_dbgmcu.c **** /*********************************************************************
  56:Drivers/src/ch32v20x_dbgmcu.c ****  * @fn      __set_DEBUG_CR
  57:Drivers/src/ch32v20x_dbgmcu.c ****  *
  58:Drivers/src/ch32v20x_dbgmcu.c ****  * @brief   Set the DEBUGE Control Register
  59:Drivers/src/ch32v20x_dbgmcu.c ****  *
  60:Drivers/src/ch32v20x_dbgmcu.c ****  * @param   value  - set DEBUGE Control value
  61:Drivers/src/ch32v20x_dbgmcu.c ****  *
  62:Drivers/src/ch32v20x_dbgmcu.c ****  * @return  none
  63:Drivers/src/ch32v20x_dbgmcu.c ****  */
  64:Drivers/src/ch32v20x_dbgmcu.c **** void __set_DEBUG_CR(uint32_t value)
GAS LISTING C:\Users\SOLDER~1\AppData\Local\Temp\cc0vShlo.s 			page 4


  65:Drivers/src/ch32v20x_dbgmcu.c **** {
 115              		.loc 1 65 1
 116              		.cfi_startproc
 117 0000 0111     		addi	sp,sp,-32
 118              		.cfi_def_cfa_offset 32
 119 0002 22CE     		sw	s0,28(sp)
 120              		.cfi_offset 8, -4
 121 0004 0010     		addi	s0,sp,32
 122              		.cfi_def_cfa 8, 0
 123 0006 2326A4FE 		sw	a0,-20(s0)
  66:Drivers/src/ch32v20x_dbgmcu.c ****     __asm volatile("csrw 0x7C0, %0" : : "r"(value));
 124              		.loc 1 66 5
 125 000a 8327C4FE 		lw	a5,-20(s0)
 126              	 #APP
 127              	# 66 "Drivers/src/ch32v20x_dbgmcu.c" 1
  67              	}
 128              		csrw 0x7C0, a5
 129              	# 0 "" 2
 130              		.loc 1 67 1
 131              	 #NO_APP
 132 0012 0100     		nop
 133 0014 7244     		lw	s0,28(sp)
 134              		.cfi_restore 8
 135              		.cfi_def_cfa 2, 32
 136 0016 0561     		addi	sp,sp,32
 137              		.cfi_def_cfa_offset 0
 138 0018 8280     		jr	ra
 139              		.cfi_endproc
 140              	.LFE19:
 142              		.section	.text.DBGMCU_Config,"ax",@progbits
 143              		.align	1
 144              		.globl	DBGMCU_Config
 146              	DBGMCU_Config:
 147              	.LFB20:
  68:Drivers/src/ch32v20x_dbgmcu.c **** 
  69:Drivers/src/ch32v20x_dbgmcu.c **** 
  70:Drivers/src/ch32v20x_dbgmcu.c **** /*********************************************************************
  71:Drivers/src/ch32v20x_dbgmcu.c ****  * @fn      DBGMCU_Config
  72:Drivers/src/ch32v20x_dbgmcu.c ****  *
  73:Drivers/src/ch32v20x_dbgmcu.c ****  * @brief   Configures the specified peripheral and low power mode behavior
  74:Drivers/src/ch32v20x_dbgmcu.c ****  *        when the MCU under Debug mode.
  75:Drivers/src/ch32v20x_dbgmcu.c ****  *
  76:Drivers/src/ch32v20x_dbgmcu.c ****  * @param   DBGMCU_Periph - specifies the peripheral and low power mode.
  77:Drivers/src/ch32v20x_dbgmcu.c ****  *            DBGMCU_IWDG_STOP - Debug IWDG stopped when Core is halted
  78:Drivers/src/ch32v20x_dbgmcu.c ****  *            DBGMCU_WWDG_STOP - Debug WWDG stopped when Core is halted
  79:Drivers/src/ch32v20x_dbgmcu.c ****  *            DBGMCU_TIM1_STOP - TIM1 counter stopped when Core is halted
  80:Drivers/src/ch32v20x_dbgmcu.c ****  *            DBGMCU_TIM2_STOP - TIM2 counter stopped when Core is halted
  81:Drivers/src/ch32v20x_dbgmcu.c ****  *          NewState - ENABLE or DISABLE.
  82:Drivers/src/ch32v20x_dbgmcu.c ****  *
  83:Drivers/src/ch32v20x_dbgmcu.c ****  * @return  none
  84:Drivers/src/ch32v20x_dbgmcu.c ****  */
  85:Drivers/src/ch32v20x_dbgmcu.c **** void DBGMCU_Config(uint32_t DBGMCU_Periph, FunctionalState NewState)
  86:Drivers/src/ch32v20x_dbgmcu.c **** {
 148              		.loc 1 86 1
 149              		.cfi_startproc
 150 0000 7971     		addi	sp,sp,-48
 151              		.cfi_def_cfa_offset 48
GAS LISTING C:\Users\SOLDER~1\AppData\Local\Temp\cc0vShlo.s 			page 5


 152 0002 06D6     		sw	ra,44(sp)
 153 0004 22D4     		sw	s0,40(sp)
 154              		.cfi_offset 1, -4
 155              		.cfi_offset 8, -8
 156 0006 0018     		addi	s0,sp,48
 157              		.cfi_def_cfa 8, 0
 158 0008 232EA4FC 		sw	a0,-36(s0)
 159 000c 232CB4FC 		sw	a1,-40(s0)
  87:Drivers/src/ch32v20x_dbgmcu.c ****     uint32_t val;
  88:Drivers/src/ch32v20x_dbgmcu.c **** 
  89:Drivers/src/ch32v20x_dbgmcu.c ****     if(NewState != DISABLE)
 160              		.loc 1 89 7
 161 0010 832784FD 		lw	a5,-40(s0)
 162 0014 81CB     		beq	a5,zero,.L9
  90:Drivers/src/ch32v20x_dbgmcu.c ****     {
  91:Drivers/src/ch32v20x_dbgmcu.c ****         __set_DEBUG_CR(DBGMCU_Periph);
 163              		.loc 1 91 9
 164 0016 0325C4FD 		lw	a0,-36(s0)
 165 001a 97000000 		call	__set_DEBUG_CR
 165      E7800000 
  92:Drivers/src/ch32v20x_dbgmcu.c ****     }
  93:Drivers/src/ch32v20x_dbgmcu.c ****     else
  94:Drivers/src/ch32v20x_dbgmcu.c ****     {
  95:Drivers/src/ch32v20x_dbgmcu.c ****         val = __get_DEBUG_CR();
  96:Drivers/src/ch32v20x_dbgmcu.c ****         val &= ~(uint32_t)DBGMCU_Periph;
  97:Drivers/src/ch32v20x_dbgmcu.c ****         __set_DEBUG_CR(val);
  98:Drivers/src/ch32v20x_dbgmcu.c ****     }
  99:Drivers/src/ch32v20x_dbgmcu.c **** 
 100:Drivers/src/ch32v20x_dbgmcu.c **** }
 166              		.loc 1 100 1
 167 0022 35A0     		j	.L11
 168              	.L9:
  95:Drivers/src/ch32v20x_dbgmcu.c ****         val &= ~(uint32_t)DBGMCU_Periph;
 169              		.loc 1 95 15
 170 0024 97000000 		call	__get_DEBUG_CR
 170      E7800000 
 171 002c 2326A4FE 		sw	a0,-20(s0)
  96:Drivers/src/ch32v20x_dbgmcu.c ****         __set_DEBUG_CR(val);
 172              		.loc 1 96 16
 173 0030 8327C4FD 		lw	a5,-36(s0)
 174 0034 93C7F7FF 		not	a5,a5
  96:Drivers/src/ch32v20x_dbgmcu.c ****         __set_DEBUG_CR(val);
 175              		.loc 1 96 13
 176 0038 0327C4FE 		lw	a4,-20(s0)
 177 003c F98F     		and	a5,a4,a5
 178 003e 2326F4FE 		sw	a5,-20(s0)
  97:Drivers/src/ch32v20x_dbgmcu.c ****     }
 179              		.loc 1 97 9
 180 0042 0325C4FE 		lw	a0,-20(s0)
 181 0046 97000000 		call	__set_DEBUG_CR
 181      E7800000 
 182              	.L11:
 183              		.loc 1 100 1
 184 004e 0100     		nop
 185 0050 B250     		lw	ra,44(sp)
 186              		.cfi_restore 1
 187 0052 2254     		lw	s0,40(sp)
GAS LISTING C:\Users\SOLDER~1\AppData\Local\Temp\cc0vShlo.s 			page 6


 188              		.cfi_restore 8
 189              		.cfi_def_cfa 2, 48
 190 0054 4561     		addi	sp,sp,48
 191              		.cfi_def_cfa_offset 0
 192 0056 8280     		jr	ra
 193              		.cfi_endproc
 194              	.LFE20:
 196              		.text
 197              	.Letext0:
 198              		.file 2 "c:\\dev_tools\\ch32_tools\\risc-v_embedded_gcc12\\riscv-none-elf\\include\\machine\\_defa
 199              		.file 3 "c:\\dev_tools\\ch32_tools\\risc-v_embedded_gcc12\\riscv-none-elf\\include\\sys\\_stdint.h
 200              		.file 4 "Drivers/inc/core_riscv.h"
GAS LISTING C:\Users\SOLDER~1\AppData\Local\Temp\cc0vShlo.s 			page 7


DEFINED SYMBOLS
                            *ABS*:0000000000000000 ch32v20x_dbgmcu.c
C:\Users\SOLDER~1\AppData\Local\Temp\cc0vShlo.s:14     .text.DBGMCU_GetREVID:0000000000000000 DBGMCU_GetREVID
C:\Users\SOLDER~1\AppData\Local\Temp\cc0vShlo.s:18     .text.DBGMCU_GetREVID:0000000000000000 .L0 
C:\Users\SOLDER~1\AppData\Local\Temp\cc0vShlo.s:19     .text.DBGMCU_GetREVID:0000000000000000 $x
C:\Users\SOLDER~1\AppData\Local\Temp\cc0vShlo.s:19     .text.DBGMCU_GetREVID:0000000000000000 .L0 
C:\Users\SOLDER~1\AppData\Local\Temp\cc0vShlo.s:20     .text.DBGMCU_GetREVID:0000000000000002 .L0 
C:\Users\SOLDER~1\AppData\Local\Temp\cc0vShlo.s:22     .text.DBGMCU_GetREVID:0000000000000004 .L0 
C:\Users\SOLDER~1\AppData\Local\Temp\cc0vShlo.s:24     .text.DBGMCU_GetREVID:0000000000000006 .L0 
C:\Users\SOLDER~1\AppData\Local\Temp\cc0vShlo.s:26     .text.DBGMCU_GetREVID:0000000000000006 .L0 
C:\Users\SOLDER~1\AppData\Local\Temp\cc0vShlo.s:30     .text.DBGMCU_GetREVID:0000000000000010 .L0 
C:\Users\SOLDER~1\AppData\Local\Temp\cc0vShlo.s:32     .text.DBGMCU_GetREVID:0000000000000012 .L0 
C:\Users\SOLDER~1\AppData\Local\Temp\cc0vShlo.s:34     .text.DBGMCU_GetREVID:0000000000000016 .L0 
C:\Users\SOLDER~1\AppData\Local\Temp\cc0vShlo.s:35     .text.DBGMCU_GetREVID:0000000000000016 .L0 
C:\Users\SOLDER~1\AppData\Local\Temp\cc0vShlo.s:37     .text.DBGMCU_GetREVID:0000000000000018 .L0 
C:\Users\SOLDER~1\AppData\Local\Temp\cc0vShlo.s:39     .text.DBGMCU_GetREVID:000000000000001a .L0 
C:\Users\SOLDER~1\AppData\Local\Temp\cc0vShlo.s:46     .text.DBGMCU_GetDEVID:0000000000000000 DBGMCU_GetDEVID
C:\Users\SOLDER~1\AppData\Local\Temp\cc0vShlo.s:49     .text.DBGMCU_GetDEVID:0000000000000000 .L0 
C:\Users\SOLDER~1\AppData\Local\Temp\cc0vShlo.s:50     .text.DBGMCU_GetDEVID:0000000000000000 $x
C:\Users\SOLDER~1\AppData\Local\Temp\cc0vShlo.s:50     .text.DBGMCU_GetDEVID:0000000000000000 .L0 
C:\Users\SOLDER~1\AppData\Local\Temp\cc0vShlo.s:51     .text.DBGMCU_GetDEVID:0000000000000002 .L0 
C:\Users\SOLDER~1\AppData\Local\Temp\cc0vShlo.s:53     .text.DBGMCU_GetDEVID:0000000000000004 .L0 
C:\Users\SOLDER~1\AppData\Local\Temp\cc0vShlo.s:55     .text.DBGMCU_GetDEVID:0000000000000006 .L0 
C:\Users\SOLDER~1\AppData\Local\Temp\cc0vShlo.s:57     .text.DBGMCU_GetDEVID:0000000000000006 .L0 
C:\Users\SOLDER~1\AppData\Local\Temp\cc0vShlo.s:61     .text.DBGMCU_GetDEVID:0000000000000010 .L0 
C:\Users\SOLDER~1\AppData\Local\Temp\cc0vShlo.s:65     .text.DBGMCU_GetDEVID:0000000000000016 .L0 
C:\Users\SOLDER~1\AppData\Local\Temp\cc0vShlo.s:67     .text.DBGMCU_GetDEVID:000000000000001a .L0 
C:\Users\SOLDER~1\AppData\Local\Temp\cc0vShlo.s:68     .text.DBGMCU_GetDEVID:000000000000001a .L0 
C:\Users\SOLDER~1\AppData\Local\Temp\cc0vShlo.s:70     .text.DBGMCU_GetDEVID:000000000000001c .L0 
C:\Users\SOLDER~1\AppData\Local\Temp\cc0vShlo.s:72     .text.DBGMCU_GetDEVID:000000000000001e .L0 
C:\Users\SOLDER~1\AppData\Local\Temp\cc0vShlo.s:79     .text.__get_DEBUG_CR:0000000000000000 __get_DEBUG_CR
C:\Users\SOLDER~1\AppData\Local\Temp\cc0vShlo.s:82     .text.__get_DEBUG_CR:0000000000000000 .L0 
C:\Users\SOLDER~1\AppData\Local\Temp\cc0vShlo.s:83     .text.__get_DEBUG_CR:0000000000000000 $x
C:\Users\SOLDER~1\AppData\Local\Temp\cc0vShlo.s:83     .text.__get_DEBUG_CR:0000000000000000 .L0 
C:\Users\SOLDER~1\AppData\Local\Temp\cc0vShlo.s:84     .text.__get_DEBUG_CR:0000000000000002 .L0 
C:\Users\SOLDER~1\AppData\Local\Temp\cc0vShlo.s:86     .text.__get_DEBUG_CR:0000000000000004 .L0 
C:\Users\SOLDER~1\AppData\Local\Temp\cc0vShlo.s:88     .text.__get_DEBUG_CR:0000000000000006 .L0 
Drivers/src/ch32v20x_dbgmcu.c:51     .text.__get_DEBUG_CR:0000000000000006 .L0 
C:\Users\SOLDER~1\AppData\Local\Temp\cc0vShlo.s:97     .text.__get_DEBUG_CR:000000000000000e .L0 
C:\Users\SOLDER~1\AppData\Local\Temp\cc0vShlo.s:99     .text.__get_DEBUG_CR:0000000000000012 .L0 
C:\Users\SOLDER~1\AppData\Local\Temp\cc0vShlo.s:101    .text.__get_DEBUG_CR:0000000000000016 .L0 
C:\Users\SOLDER~1\AppData\Local\Temp\cc0vShlo.s:102    .text.__get_DEBUG_CR:0000000000000016 .L0 
C:\Users\SOLDER~1\AppData\Local\Temp\cc0vShlo.s:104    .text.__get_DEBUG_CR:0000000000000018 .L0 
C:\Users\SOLDER~1\AppData\Local\Temp\cc0vShlo.s:106    .text.__get_DEBUG_CR:000000000000001a .L0 
C:\Users\SOLDER~1\AppData\Local\Temp\cc0vShlo.s:113    .text.__set_DEBUG_CR:0000000000000000 __set_DEBUG_CR
C:\Users\SOLDER~1\AppData\Local\Temp\cc0vShlo.s:116    .text.__set_DEBUG_CR:0000000000000000 .L0 
C:\Users\SOLDER~1\AppData\Local\Temp\cc0vShlo.s:117    .text.__set_DEBUG_CR:0000000000000000 $x
C:\Users\SOLDER~1\AppData\Local\Temp\cc0vShlo.s:117    .text.__set_DEBUG_CR:0000000000000000 .L0 
C:\Users\SOLDER~1\AppData\Local\Temp\cc0vShlo.s:118    .text.__set_DEBUG_CR:0000000000000002 .L0 
C:\Users\SOLDER~1\AppData\Local\Temp\cc0vShlo.s:120    .text.__set_DEBUG_CR:0000000000000004 .L0 
C:\Users\SOLDER~1\AppData\Local\Temp\cc0vShlo.s:122    .text.__set_DEBUG_CR:0000000000000006 .L0 
C:\Users\SOLDER~1\AppData\Local\Temp\cc0vShlo.s:125    .text.__set_DEBUG_CR:000000000000000a .L0 
C:\Users\SOLDER~1\AppData\Local\Temp\cc0vShlo.s:132    .text.__set_DEBUG_CR:0000000000000012 .L0 
C:\Users\SOLDER~1\AppData\Local\Temp\cc0vShlo.s:134    .text.__set_DEBUG_CR:0000000000000016 .L0 
C:\Users\SOLDER~1\AppData\Local\Temp\cc0vShlo.s:135    .text.__set_DEBUG_CR:0000000000000016 .L0 
C:\Users\SOLDER~1\AppData\Local\Temp\cc0vShlo.s:137    .text.__set_DEBUG_CR:0000000000000018 .L0 
C:\Users\SOLDER~1\AppData\Local\Temp\cc0vShlo.s:139    .text.__set_DEBUG_CR:000000000000001a .L0 
GAS LISTING C:\Users\SOLDER~1\AppData\Local\Temp\cc0vShlo.s 			page 8


C:\Users\SOLDER~1\AppData\Local\Temp\cc0vShlo.s:146    .text.DBGMCU_Config:0000000000000000 DBGMCU_Config
C:\Users\SOLDER~1\AppData\Local\Temp\cc0vShlo.s:149    .text.DBGMCU_Config:0000000000000000 .L0 
C:\Users\SOLDER~1\AppData\Local\Temp\cc0vShlo.s:150    .text.DBGMCU_Config:0000000000000000 $x
C:\Users\SOLDER~1\AppData\Local\Temp\cc0vShlo.s:150    .text.DBGMCU_Config:0000000000000000 .L0 
C:\Users\SOLDER~1\AppData\Local\Temp\cc0vShlo.s:151    .text.DBGMCU_Config:0000000000000002 .L0 
C:\Users\SOLDER~1\AppData\Local\Temp\cc0vShlo.s:154    .text.DBGMCU_Config:0000000000000006 .L0 
C:\Users\SOLDER~1\AppData\Local\Temp\cc0vShlo.s:155    .text.DBGMCU_Config:0000000000000006 .L0 
C:\Users\SOLDER~1\AppData\Local\Temp\cc0vShlo.s:157    .text.DBGMCU_Config:0000000000000008 .L0 
C:\Users\SOLDER~1\AppData\Local\Temp\cc0vShlo.s:161    .text.DBGMCU_Config:0000000000000010 .L0 
C:\Users\SOLDER~1\AppData\Local\Temp\cc0vShlo.s:164    .text.DBGMCU_Config:0000000000000016 .L0 
C:\Users\SOLDER~1\AppData\Local\Temp\cc0vShlo.s:167    .text.DBGMCU_Config:0000000000000022 .L0 
C:\Users\SOLDER~1\AppData\Local\Temp\cc0vShlo.s:170    .text.DBGMCU_Config:0000000000000024 .L0 
C:\Users\SOLDER~1\AppData\Local\Temp\cc0vShlo.s:173    .text.DBGMCU_Config:0000000000000030 .L0 
C:\Users\SOLDER~1\AppData\Local\Temp\cc0vShlo.s:176    .text.DBGMCU_Config:0000000000000038 .L0 
C:\Users\SOLDER~1\AppData\Local\Temp\cc0vShlo.s:180    .text.DBGMCU_Config:0000000000000042 .L0 
C:\Users\SOLDER~1\AppData\Local\Temp\cc0vShlo.s:184    .text.DBGMCU_Config:000000000000004e .L0 
C:\Users\SOLDER~1\AppData\Local\Temp\cc0vShlo.s:186    .text.DBGMCU_Config:0000000000000052 .L0 
C:\Users\SOLDER~1\AppData\Local\Temp\cc0vShlo.s:188    .text.DBGMCU_Config:0000000000000054 .L0 
C:\Users\SOLDER~1\AppData\Local\Temp\cc0vShlo.s:189    .text.DBGMCU_Config:0000000000000054 .L0 
C:\Users\SOLDER~1\AppData\Local\Temp\cc0vShlo.s:191    .text.DBGMCU_Config:0000000000000056 .L0 
C:\Users\SOLDER~1\AppData\Local\Temp\cc0vShlo.s:193    .text.DBGMCU_Config:0000000000000058 .L0 
C:\Users\SOLDER~1\AppData\Local\Temp\cc0vShlo.s:29676  .debug_line_str:0000000000000068 .L0 
C:\Users\SOLDER~1\AppData\Local\Temp\cc0vShlo.s:29676  .debug_line_str:00000000000000b2 .L0 
C:\Users\SOLDER~1\AppData\Local\Temp\cc0vShlo.s:29676  .debug_line_str:00000000000000be .L0 
C:\Users\SOLDER~1\AppData\Local\Temp\cc0vShlo.s:29676  .debug_line_str:000000000000010b .L0 
C:\Users\SOLDER~1\AppData\Local\Temp\cc0vShlo.s:29676  .debug_line_str:0000000000000154 .L0 
C:\Users\SOLDER~1\AppData\Local\Temp\cc0vShlo.s:29676  .debug_line_str:0000000000000160 .L0 
C:\Users\SOLDER~1\AppData\Local\Temp\cc0vShlo.s:29676  .debug_line_str:00000000000001b4 .L0 
C:\Users\SOLDER~1\AppData\Local\Temp\cc0vShlo.s:29676  .debug_line_str:00000000000001f9 .L0 
C:\Users\SOLDER~1\AppData\Local\Temp\cc0vShlo.s:29676  .debug_line_str:000000000000020b .L0 
C:\Users\SOLDER~1\AppData\Local\Temp\cc0vShlo.s:29676  .debug_line_str:000000000000021d .L0 
C:\Users\SOLDER~1\AppData\Local\Temp\cc0vShlo.s:29676  .debug_line_str:000000000000022e .L0 
C:\Users\SOLDER~1\AppData\Local\Temp\cc0vShlo.s:29676  .debug_line_str:0000000000000238 .L0 
C:\Users\SOLDER~1\AppData\Local\Temp\cc0vShlo.s:29676  .debug_line_str:0000000000000245 .L0 
C:\Users\SOLDER~1\AppData\Local\Temp\cc0vShlo.s:29676  .debug_line_str:0000000000000257 .L0 
C:\Users\SOLDER~1\AppData\Local\Temp\cc0vShlo.s:29676  .debug_line_str:0000000000000262 .L0 
C:\Users\SOLDER~1\AppData\Local\Temp\cc0vShlo.s:29676  .debug_line_str:000000000000026b .L0 
C:\Users\SOLDER~1\AppData\Local\Temp\cc0vShlo.s:29676  .debug_line_str:0000000000000274 .L0 
C:\Users\SOLDER~1\AppData\Local\Temp\cc0vShlo.s:29676  .debug_line_str:000000000000027f .L0 
C:\Users\SOLDER~1\AppData\Local\Temp\cc0vShlo.s:29676  .debug_line_str:0000000000000291 .L0 
C:\Users\SOLDER~1\AppData\Local\Temp\cc0vShlo.s:29676  .debug_line_str:000000000000029b .L0 
C:\Users\SOLDER~1\AppData\Local\Temp\cc0vShlo.s:29676  .debug_line_str:00000000000002ab .L0 
C:\Users\SOLDER~1\AppData\Local\Temp\cc0vShlo.s:29676  .debug_line_str:00000000000002ba .L0 
C:\Users\SOLDER~1\AppData\Local\Temp\cc0vShlo.s:29676  .debug_line_str:00000000000002c9 .L0 
C:\Users\SOLDER~1\AppData\Local\Temp\cc0vShlo.s:29676  .debug_line_str:00000000000002d8 .L0 
C:\Users\SOLDER~1\AppData\Local\Temp\cc0vShlo.s:29676  .debug_line_str:00000000000002e7 .L0 
C:\Users\SOLDER~1\AppData\Local\Temp\cc0vShlo.s:29676  .debug_line_str:00000000000002f6 .L0 
C:\Users\SOLDER~1\AppData\Local\Temp\cc0vShlo.s:29676  .debug_line_str:0000000000000306 .L0 
C:\Users\SOLDER~1\AppData\Local\Temp\cc0vShlo.s:29676  .debug_line_str:0000000000000317 .L0 
C:\Users\SOLDER~1\AppData\Local\Temp\cc0vShlo.s:29676  .debug_line_str:0000000000000327 .L0 
C:\Users\SOLDER~1\AppData\Local\Temp\cc0vShlo.s:29676  .debug_line_str:0000000000000336 .L0 
C:\Users\SOLDER~1\AppData\Local\Temp\cc0vShlo.s:29676  .debug_line_str:0000000000000346 .L0 
C:\Users\SOLDER~1\AppData\Local\Temp\cc0vShlo.s:29676  .debug_line_str:0000000000000355 .L0 
C:\Users\SOLDER~1\AppData\Local\Temp\cc0vShlo.s:29676  .debug_line_str:0000000000000364 .L0 
C:\Users\SOLDER~1\AppData\Local\Temp\cc0vShlo.s:29676  .debug_line_str:0000000000000373 .L0 
C:\Users\SOLDER~1\AppData\Local\Temp\cc0vShlo.s:29676  .debug_line_str:0000000000000382 .L0 
C:\Users\SOLDER~1\AppData\Local\Temp\cc0vShlo.s:29676  .debug_line_str:0000000000000391 .L0 
GAS LISTING C:\Users\SOLDER~1\AppData\Local\Temp\cc0vShlo.s 			page 9


C:\Users\SOLDER~1\AppData\Local\Temp\cc0vShlo.s:29676  .debug_line_str:00000000000003a2 .L0 
C:\Users\SOLDER~1\AppData\Local\Temp\cc0vShlo.s:29676  .debug_line_str:00000000000003b2 .L0 
C:\Users\SOLDER~1\AppData\Local\Temp\cc0vShlo.s:42     .text.DBGMCU_GetREVID:000000000000001a .L0 
C:\Users\SOLDER~1\AppData\Local\Temp\cc0vShlo.s:75     .text.DBGMCU_GetDEVID:000000000000001e .L0 
C:\Users\SOLDER~1\AppData\Local\Temp\cc0vShlo.s:109    .text.__get_DEBUG_CR:000000000000001a .L0 
C:\Users\SOLDER~1\AppData\Local\Temp\cc0vShlo.s:142    .text.__set_DEBUG_CR:000000000000001a .L0 
C:\Users\SOLDER~1\AppData\Local\Temp\cc0vShlo.s:196    .text.DBGMCU_Config:0000000000000058 .L0 
                     .debug_frame:0000000000000000 .L0 
C:\Users\SOLDER~1\AppData\Local\Temp\cc0vShlo.s:168    .text.DBGMCU_Config:0000000000000024 .L9
C:\Users\SOLDER~1\AppData\Local\Temp\cc0vShlo.s:182    .text.DBGMCU_Config:000000000000004e .L11
C:\Users\SOLDER~1\AppData\Local\Temp\cc0vShlo.s:384    .debug_abbrev:0000000000000000 .Ldebug_abbrev0
C:\Users\SOLDER~1\AppData\Local\Temp\cc0vShlo.s:18299  .debug_str:0000000000000668 .LASF5735
C:\Users\SOLDER~1\AppData\Local\Temp\cc0vShlo.s:29672  .debug_line_str:0000000000000000 .LASF0
C:\Users\SOLDER~1\AppData\Local\Temp\cc0vShlo.s:29674  .debug_line_str:000000000000001e .LASF1
C:\Users\SOLDER~1\AppData\Local\Temp\cc0vShlo.s:664    .debug_rnglists:000000000000000c .LLRL0
C:\Users\SOLDER~1\AppData\Local\Temp\cc0vShlo.s:18199  .debug_line:0000000000000000 .Ldebug_line0
C:\Users\SOLDER~1\AppData\Local\Temp\cc0vShlo.s:683    .debug_macro:0000000000000000 .Ldebug_macro0
C:\Users\SOLDER~1\AppData\Local\Temp\cc0vShlo.s:29609  .debug_str:000000000002e9eb .LASF5713
C:\Users\SOLDER~1\AppData\Local\Temp\cc0vShlo.s:24427  .debug_str:0000000000019767 .LASF5714
C:\Users\SOLDER~1\AppData\Local\Temp\cc0vShlo.s:23927  .debug_str:00000000000176e3 .LASF5715
C:\Users\SOLDER~1\AppData\Local\Temp\cc0vShlo.s:23231  .debug_str:0000000000014a1c .LASF5716
C:\Users\SOLDER~1\AppData\Local\Temp\cc0vShlo.s:27371  .debug_str:0000000000025760 .LASF5717
C:\Users\SOLDER~1\AppData\Local\Temp\cc0vShlo.s:27647  .debug_str:0000000000026a4c .LASF5718
C:\Users\SOLDER~1\AppData\Local\Temp\cc0vShlo.s:24623  .debug_str:000000000001a3b5 .LASF5722
C:\Users\SOLDER~1\AppData\Local\Temp\cc0vShlo.s:24085  .debug_str:0000000000018152 .LASF5719
C:\Users\SOLDER~1\AppData\Local\Temp\cc0vShlo.s:18221  .debug_str:000000000000014f .LASF5720
C:\Users\SOLDER~1\AppData\Local\Temp\cc0vShlo.s:27735  .debug_str:000000000002700d .LASF5721
C:\Users\SOLDER~1\AppData\Local\Temp\cc0vShlo.s:19031  .debug_str:00000000000036e6 .LASF5723
C:\Users\SOLDER~1\AppData\Local\Temp\cc0vShlo.s:20271  .debug_str:0000000000008708 .LASF5724
C:\Users\SOLDER~1\AppData\Local\Temp\cc0vShlo.s:21777  .debug_str:000000000000ea59 .LASF5725
C:\Users\SOLDER~1\AppData\Local\Temp\cc0vShlo.s:23687  .debug_str:0000000000016757 .LASF5726
C:\Users\SOLDER~1\AppData\Local\Temp\cc0vShlo.s:28773  .debug_str:000000000002b3be .LASF5729
C:\Users\SOLDER~1\AppData\Local\Temp\cc0vShlo.s:147    .text.DBGMCU_Config:0000000000000000 .LFB20
C:\Users\SOLDER~1\AppData\Local\Temp\cc0vShlo.s:194    .text.DBGMCU_Config:0000000000000058 .LFE20
C:\Users\SOLDER~1\AppData\Local\Temp\cc0vShlo.s:28891  .debug_str:000000000002bb4e .LASF5727
C:\Users\SOLDER~1\AppData\Local\Temp\cc0vShlo.s:25639  .debug_str:000000000001e640 .LASF5728
C:\Users\SOLDER~1\AppData\Local\Temp\cc0vShlo.s:24553  .debug_str:0000000000019f58 .LASF5730
C:\Users\SOLDER~1\AppData\Local\Temp\cc0vShlo.s:114    .text.__set_DEBUG_CR:0000000000000000 .LFB19
C:\Users\SOLDER~1\AppData\Local\Temp\cc0vShlo.s:140    .text.__set_DEBUG_CR:000000000000001a .LFE19
C:\Users\SOLDER~1\AppData\Local\Temp\cc0vShlo.s:24631  .debug_str:000000000001a433 .LASF5731
C:\Users\SOLDER~1\AppData\Local\Temp\cc0vShlo.s:20275  .debug_str:0000000000008735 .LASF5736
C:\Users\SOLDER~1\AppData\Local\Temp\cc0vShlo.s:80     .text.__get_DEBUG_CR:0000000000000000 .LFB18
C:\Users\SOLDER~1\AppData\Local\Temp\cc0vShlo.s:107    .text.__get_DEBUG_CR:000000000000001a .LFE18
C:\Users\SOLDER~1\AppData\Local\Temp\cc0vShlo.s:18823  .debug_str:000000000000299d .LASF5732
C:\Users\SOLDER~1\AppData\Local\Temp\cc0vShlo.s:19449  .debug_str:000000000000513e .LASF5733
C:\Users\SOLDER~1\AppData\Local\Temp\cc0vShlo.s:47     .text.DBGMCU_GetDEVID:0000000000000000 .LFB17
C:\Users\SOLDER~1\AppData\Local\Temp\cc0vShlo.s:73     .text.DBGMCU_GetDEVID:000000000000001e .LFE17
C:\Users\SOLDER~1\AppData\Local\Temp\cc0vShlo.s:21229  .debug_str:000000000000c63f .LASF5734
C:\Users\SOLDER~1\AppData\Local\Temp\cc0vShlo.s:15     .text.DBGMCU_GetREVID:0000000000000000 .LFB16
C:\Users\SOLDER~1\AppData\Local\Temp\cc0vShlo.s:40     .text.DBGMCU_GetREVID:000000000000001a .LFE16
C:\Users\SOLDER~1\AppData\Local\Temp\cc0vShlo.s:202    .debug_info:0000000000000000 .Ldebug_info0
C:\Users\SOLDER~1\AppData\Local\Temp\cc0vShlo.s:926    .debug_macro:0000000000000000 .Ldebug_macro2
C:\Users\SOLDER~1\AppData\Local\Temp\cc0vShlo.s:22937  .debug_str:000000000001359b .LASF318
C:\Users\SOLDER~1\AppData\Local\Temp\cc0vShlo.s:1879   .debug_macro:0000000000000000 .Ldebug_macro3
C:\Users\SOLDER~1\AppData\Local\Temp\cc0vShlo.s:24523  .debug_str:0000000000019d6a .LASF336
C:\Users\SOLDER~1\AppData\Local\Temp\cc0vShlo.s:19233  .debug_str:00000000000043cb .LASF337
C:\Users\SOLDER~1\AppData\Local\Temp\cc0vShlo.s:26479  .debug_str:0000000000021cda .LASF338
GAS LISTING C:\Users\SOLDER~1\AppData\Local\Temp\cc0vShlo.s 			page 10


C:\Users\SOLDER~1\AppData\Local\Temp\cc0vShlo.s:1935   .debug_macro:0000000000000000 .Ldebug_macro4
C:\Users\SOLDER~1\AppData\Local\Temp\cc0vShlo.s:1955   .debug_macro:0000000000000000 .Ldebug_macro5
C:\Users\SOLDER~1\AppData\Local\Temp\cc0vShlo.s:2020   .debug_macro:0000000000000000 .Ldebug_macro6
C:\Users\SOLDER~1\AppData\Local\Temp\cc0vShlo.s:2061   .debug_macro:0000000000000000 .Ldebug_macro7
C:\Users\SOLDER~1\AppData\Local\Temp\cc0vShlo.s:2186   .debug_macro:0000000000000000 .Ldebug_macro8
C:\Users\SOLDER~1\AppData\Local\Temp\cc0vShlo.s:2242   .debug_macro:0000000000000000 .Ldebug_macro9
C:\Users\SOLDER~1\AppData\Local\Temp\cc0vShlo.s:18569  .debug_str:0000000000001896 .LASF493
C:\Users\SOLDER~1\AppData\Local\Temp\cc0vShlo.s:2454   .debug_macro:0000000000000000 .Ldebug_macro10
C:\Users\SOLDER~1\AppData\Local\Temp\cc0vShlo.s:2492   .debug_macro:0000000000000000 .Ldebug_macro11
C:\Users\SOLDER~1\AppData\Local\Temp\cc0vShlo.s:18829  .debug_str:00000000000029e9 .LASF4592
C:\Users\SOLDER~1\AppData\Local\Temp\cc0vShlo.s:27275  .debug_str:00000000000250e5 .LASF4593
C:\Users\SOLDER~1\AppData\Local\Temp\cc0vShlo.s:14758  .debug_macro:0000000000000000 .Ldebug_macro12
C:\Users\SOLDER~1\AppData\Local\Temp\cc0vShlo.s:15039  .debug_macro:0000000000000000 .Ldebug_macro13
C:\Users\SOLDER~1\AppData\Local\Temp\cc0vShlo.s:15191  .debug_macro:0000000000000000 .Ldebug_macro14
C:\Users\SOLDER~1\AppData\Local\Temp\cc0vShlo.s:23679  .debug_str:00000000000166c9 .LASF4851
C:\Users\SOLDER~1\AppData\Local\Temp\cc0vShlo.s:15544  .debug_macro:0000000000000000 .Ldebug_macro15
C:\Users\SOLDER~1\AppData\Local\Temp\cc0vShlo.s:15813  .debug_macro:0000000000000000 .Ldebug_macro16
C:\Users\SOLDER~1\AppData\Local\Temp\cc0vShlo.s:15884  .debug_macro:0000000000000000 .Ldebug_macro17
C:\Users\SOLDER~1\AppData\Local\Temp\cc0vShlo.s:16048  .debug_macro:0000000000000000 .Ldebug_macro18
C:\Users\SOLDER~1\AppData\Local\Temp\cc0vShlo.s:16320  .debug_macro:0000000000000000 .Ldebug_macro19
C:\Users\SOLDER~1\AppData\Local\Temp\cc0vShlo.s:16571  .debug_macro:0000000000000000 .Ldebug_macro20
C:\Users\SOLDER~1\AppData\Local\Temp\cc0vShlo.s:16612  .debug_macro:0000000000000000 .Ldebug_macro21
C:\Users\SOLDER~1\AppData\Local\Temp\cc0vShlo.s:16665  .debug_macro:0000000000000000 .Ldebug_macro22
C:\Users\SOLDER~1\AppData\Local\Temp\cc0vShlo.s:17066  .debug_macro:0000000000000000 .Ldebug_macro23
C:\Users\SOLDER~1\AppData\Local\Temp\cc0vShlo.s:17098  .debug_macro:0000000000000000 .Ldebug_macro24
C:\Users\SOLDER~1\AppData\Local\Temp\cc0vShlo.s:17328  .debug_macro:0000000000000000 .Ldebug_macro25
C:\Users\SOLDER~1\AppData\Local\Temp\cc0vShlo.s:17924  .debug_macro:0000000000000000 .Ldebug_macro26
C:\Users\SOLDER~1\AppData\Local\Temp\cc0vShlo.s:18094  .debug_macro:0000000000000000 .Ldebug_macro27
C:\Users\SOLDER~1\AppData\Local\Temp\cc0vShlo.s:18114  .debug_macro:0000000000000000 .Ldebug_macro28
C:\Users\SOLDER~1\AppData\Local\Temp\cc0vShlo.s:18137  .debug_macro:0000000000000000 .Ldebug_macro29
C:\Users\SOLDER~1\AppData\Local\Temp\cc0vShlo.s:28271  .debug_str:0000000000029315 .LASF5712
C:\Users\SOLDER~1\AppData\Local\Temp\cc0vShlo.s:19611  .debug_str:0000000000005bc5 .LASF2
C:\Users\SOLDER~1\AppData\Local\Temp\cc0vShlo.s:28423  .debug_str:0000000000029ce0 .LASF3
C:\Users\SOLDER~1\AppData\Local\Temp\cc0vShlo.s:28793  .debug_str:000000000002b510 .LASF4
C:\Users\SOLDER~1\AppData\Local\Temp\cc0vShlo.s:22315  .debug_str:0000000000010d4b .LASF5
C:\Users\SOLDER~1\AppData\Local\Temp\cc0vShlo.s:23657  .debug_str:000000000001657f .LASF6
C:\Users\SOLDER~1\AppData\Local\Temp\cc0vShlo.s:29207  .debug_str:000000000002d022 .LASF7
C:\Users\SOLDER~1\AppData\Local\Temp\cc0vShlo.s:22373  .debug_str:0000000000011106 .LASF8
C:\Users\SOLDER~1\AppData\Local\Temp\cc0vShlo.s:23115  .debug_str:0000000000014242 .LASF9
C:\Users\SOLDER~1\AppData\Local\Temp\cc0vShlo.s:20343  .debug_str:0000000000008ba2 .LASF10
C:\Users\SOLDER~1\AppData\Local\Temp\cc0vShlo.s:28129  .debug_str:00000000000289dc .LASF11
C:\Users\SOLDER~1\AppData\Local\Temp\cc0vShlo.s:24711  .debug_str:000000000001a953 .LASF12
C:\Users\SOLDER~1\AppData\Local\Temp\cc0vShlo.s:24569  .debug_str:000000000001a048 .LASF13
C:\Users\SOLDER~1\AppData\Local\Temp\cc0vShlo.s:27085  .debug_str:0000000000024485 .LASF14
C:\Users\SOLDER~1\AppData\Local\Temp\cc0vShlo.s:24589  .debug_str:000000000001a184 .LASF15
C:\Users\SOLDER~1\AppData\Local\Temp\cc0vShlo.s:20821  .debug_str:000000000000ab75 .LASF16
C:\Users\SOLDER~1\AppData\Local\Temp\cc0vShlo.s:25981  .debug_str:000000000001fc8b .LASF17
C:\Users\SOLDER~1\AppData\Local\Temp\cc0vShlo.s:26699  .debug_str:0000000000022b24 .LASF18
C:\Users\SOLDER~1\AppData\Local\Temp\cc0vShlo.s:20861  .debug_str:000000000000ae20 .LASF19
C:\Users\SOLDER~1\AppData\Local\Temp\cc0vShlo.s:19765  .debug_str:00000000000065e3 .LASF20
C:\Users\SOLDER~1\AppData\Local\Temp\cc0vShlo.s:21857  .debug_str:000000000000ef72 .LASF21
C:\Users\SOLDER~1\AppData\Local\Temp\cc0vShlo.s:27545  .debug_str:0000000000026375 .LASF22
C:\Users\SOLDER~1\AppData\Local\Temp\cc0vShlo.s:24399  .debug_str:00000000000195fb .LASF23
C:\Users\SOLDER~1\AppData\Local\Temp\cc0vShlo.s:24397  .debug_str:00000000000195e1 .LASF24
C:\Users\SOLDER~1\AppData\Local\Temp\cc0vShlo.s:27009  .debug_str:0000000000023f69 .LASF25
C:\Users\SOLDER~1\AppData\Local\Temp\cc0vShlo.s:27661  .debug_str:0000000000026b2a .LASF26
C:\Users\SOLDER~1\AppData\Local\Temp\cc0vShlo.s:19125  .debug_str:0000000000003cf8 .LASF27
GAS LISTING C:\Users\SOLDER~1\AppData\Local\Temp\cc0vShlo.s 			page 11


C:\Users\SOLDER~1\AppData\Local\Temp\cc0vShlo.s:23801  .debug_str:0000000000016e78 .LASF28
C:\Users\SOLDER~1\AppData\Local\Temp\cc0vShlo.s:26905  .debug_str:0000000000023870 .LASF29
C:\Users\SOLDER~1\AppData\Local\Temp\cc0vShlo.s:26709  .debug_str:0000000000022bcc .LASF30
C:\Users\SOLDER~1\AppData\Local\Temp\cc0vShlo.s:19547  .debug_str:0000000000005756 .LASF31
C:\Users\SOLDER~1\AppData\Local\Temp\cc0vShlo.s:25759  .debug_str:000000000001edfb .LASF32
C:\Users\SOLDER~1\AppData\Local\Temp\cc0vShlo.s:18527  .debug_str:0000000000001611 .LASF33
C:\Users\SOLDER~1\AppData\Local\Temp\cc0vShlo.s:22541  .debug_str:0000000000011bdb .LASF34
C:\Users\SOLDER~1\AppData\Local\Temp\cc0vShlo.s:23471  .debug_str:00000000000159dc .LASF35
C:\Users\SOLDER~1\AppData\Local\Temp\cc0vShlo.s:21609  .debug_str:000000000000df23 .LASF36
C:\Users\SOLDER~1\AppData\Local\Temp\cc0vShlo.s:20701  .debug_str:000000000000a384 .LASF37
C:\Users\SOLDER~1\AppData\Local\Temp\cc0vShlo.s:20555  .debug_str:00000000000099d5 .LASF38
C:\Users\SOLDER~1\AppData\Local\Temp\cc0vShlo.s:21881  .debug_str:000000000000f0e5 .LASF39
C:\Users\SOLDER~1\AppData\Local\Temp\cc0vShlo.s:24815  .debug_str:000000000001b02e .LASF40
C:\Users\SOLDER~1\AppData\Local\Temp\cc0vShlo.s:20085  .debug_str:0000000000007ab1 .LASF41
C:\Users\SOLDER~1\AppData\Local\Temp\cc0vShlo.s:22253  .debug_str:0000000000010953 .LASF42
C:\Users\SOLDER~1\AppData\Local\Temp\cc0vShlo.s:27963  .debug_str:0000000000027f1d .LASF43
C:\Users\SOLDER~1\AppData\Local\Temp\cc0vShlo.s:18885  .debug_str:0000000000002d47 .LASF44
C:\Users\SOLDER~1\AppData\Local\Temp\cc0vShlo.s:21949  .debug_str:000000000000f54d .LASF45
C:\Users\SOLDER~1\AppData\Local\Temp\cc0vShlo.s:22847  .debug_str:0000000000012fa7 .LASF46
C:\Users\SOLDER~1\AppData\Local\Temp\cc0vShlo.s:27281  .debug_str:000000000002514f .LASF47
C:\Users\SOLDER~1\AppData\Local\Temp\cc0vShlo.s:24805  .debug_str:000000000001af75 .LASF48
C:\Users\SOLDER~1\AppData\Local\Temp\cc0vShlo.s:22699  .debug_str:00000000000125e1 .LASF49
C:\Users\SOLDER~1\AppData\Local\Temp\cc0vShlo.s:19379  .debug_str:0000000000004cfe .LASF50
C:\Users\SOLDER~1\AppData\Local\Temp\cc0vShlo.s:22849  .debug_str:0000000000012fc0 .LASF51
C:\Users\SOLDER~1\AppData\Local\Temp\cc0vShlo.s:27455  .debug_str:0000000000025d45 .LASF52
C:\Users\SOLDER~1\AppData\Local\Temp\cc0vShlo.s:21607  .debug_str:000000000000df03 .LASF53
C:\Users\SOLDER~1\AppData\Local\Temp\cc0vShlo.s:18731  .debug_str:0000000000002370 .LASF54
C:\Users\SOLDER~1\AppData\Local\Temp\cc0vShlo.s:18229  .debug_str:00000000000001b4 .LASF55
C:\Users\SOLDER~1\AppData\Local\Temp\cc0vShlo.s:28833  .debug_str:000000000002b79b .LASF56
C:\Users\SOLDER~1\AppData\Local\Temp\cc0vShlo.s:26881  .debug_str:0000000000023713 .LASF57
C:\Users\SOLDER~1\AppData\Local\Temp\cc0vShlo.s:18313  .debug_str:00000000000007e5 .LASF58
C:\Users\SOLDER~1\AppData\Local\Temp\cc0vShlo.s:22219  .debug_str:0000000000010700 .LASF59
C:\Users\SOLDER~1\AppData\Local\Temp\cc0vShlo.s:20169  .debug_str:000000000000805f .LASF60
C:\Users\SOLDER~1\AppData\Local\Temp\cc0vShlo.s:26535  .debug_str:0000000000022019 .LASF61
C:\Users\SOLDER~1\AppData\Local\Temp\cc0vShlo.s:18479  .debug_str:00000000000012e7 .LASF62
C:\Users\SOLDER~1\AppData\Local\Temp\cc0vShlo.s:21493  .debug_str:000000000000d7b0 .LASF63
C:\Users\SOLDER~1\AppData\Local\Temp\cc0vShlo.s:24363  .debug_str:000000000001937f .LASF64
C:\Users\SOLDER~1\AppData\Local\Temp\cc0vShlo.s:25165  .debug_str:000000000001c72e .LASF65
C:\Users\SOLDER~1\AppData\Local\Temp\cc0vShlo.s:18967  .debug_str:00000000000032b0 .LASF66
C:\Users\SOLDER~1\AppData\Local\Temp\cc0vShlo.s:21597  .debug_str:000000000000de60 .LASF67
C:\Users\SOLDER~1\AppData\Local\Temp\cc0vShlo.s:21329  .debug_str:000000000000ccf2 .LASF68
C:\Users\SOLDER~1\AppData\Local\Temp\cc0vShlo.s:24795  .debug_str:000000000001aeed .LASF69
C:\Users\SOLDER~1\AppData\Local\Temp\cc0vShlo.s:23467  .debug_str:0000000000015995 .LASF70
C:\Users\SOLDER~1\AppData\Local\Temp\cc0vShlo.s:28595  .debug_str:000000000002a813 .LASF71
C:\Users\SOLDER~1\AppData\Local\Temp\cc0vShlo.s:29057  .debug_str:000000000002c624 .LASF72
C:\Users\SOLDER~1\AppData\Local\Temp\cc0vShlo.s:22657  .debug_str:0000000000012311 .LASF73
C:\Users\SOLDER~1\AppData\Local\Temp\cc0vShlo.s:21769  .debug_str:000000000000e9f4 .LASF74
C:\Users\SOLDER~1\AppData\Local\Temp\cc0vShlo.s:19397  .debug_str:0000000000004e15 .LASF75
C:\Users\SOLDER~1\AppData\Local\Temp\cc0vShlo.s:22689  .debug_str:0000000000012547 .LASF76
C:\Users\SOLDER~1\AppData\Local\Temp\cc0vShlo.s:21243  .debug_str:000000000000c71c .LASF77
C:\Users\SOLDER~1\AppData\Local\Temp\cc0vShlo.s:22939  .debug_str:00000000000135b0 .LASF78
C:\Users\SOLDER~1\AppData\Local\Temp\cc0vShlo.s:23473  .debug_str:0000000000015a0a .LASF79
C:\Users\SOLDER~1\AppData\Local\Temp\cc0vShlo.s:22877  .debug_str:00000000000131a2 .LASF80
C:\Users\SOLDER~1\AppData\Local\Temp\cc0vShlo.s:27367  .debug_str:0000000000025725 .LASF81
C:\Users\SOLDER~1\AppData\Local\Temp\cc0vShlo.s:25291  .debug_str:000000000001cfcb .LASF82
C:\Users\SOLDER~1\AppData\Local\Temp\cc0vShlo.s:25723  .debug_str:000000000001ebc4 .LASF83
C:\Users\SOLDER~1\AppData\Local\Temp\cc0vShlo.s:28581  .debug_str:000000000002a72a .LASF84
GAS LISTING C:\Users\SOLDER~1\AppData\Local\Temp\cc0vShlo.s 			page 12


C:\Users\SOLDER~1\AppData\Local\Temp\cc0vShlo.s:20649  .debug_str:000000000000a005 .LASF85
C:\Users\SOLDER~1\AppData\Local\Temp\cc0vShlo.s:24483  .debug_str:0000000000019b07 .LASF86
C:\Users\SOLDER~1\AppData\Local\Temp\cc0vShlo.s:22691  .debug_str:000000000001256e .LASF87
C:\Users\SOLDER~1\AppData\Local\Temp\cc0vShlo.s:24821  .debug_str:000000000001b08e .LASF88
C:\Users\SOLDER~1\AppData\Local\Temp\cc0vShlo.s:19905  .debug_str:0000000000006f72 .LASF89
C:\Users\SOLDER~1\AppData\Local\Temp\cc0vShlo.s:29051  .debug_str:000000000002c5c2 .LASF90
C:\Users\SOLDER~1\AppData\Local\Temp\cc0vShlo.s:28747  .debug_str:000000000002b224 .LASF91
C:\Users\SOLDER~1\AppData\Local\Temp\cc0vShlo.s:26147  .debug_str:0000000000020750 .LASF92
C:\Users\SOLDER~1\AppData\Local\Temp\cc0vShlo.s:24891  .debug_str:000000000001b503 .LASF93
C:\Users\SOLDER~1\AppData\Local\Temp\cc0vShlo.s:26171  .debug_str:00000000000208eb .LASF94
C:\Users\SOLDER~1\AppData\Local\Temp\cc0vShlo.s:28967  .debug_str:000000000002c08d .LASF95
C:\Users\SOLDER~1\AppData\Local\Temp\cc0vShlo.s:27765  .debug_str:000000000002721d .LASF96
C:\Users\SOLDER~1\AppData\Local\Temp\cc0vShlo.s:20735  .debug_str:000000000000a5c8 .LASF97
C:\Users\SOLDER~1\AppData\Local\Temp\cc0vShlo.s:27003  .debug_str:0000000000023eee .LASF98
C:\Users\SOLDER~1\AppData\Local\Temp\cc0vShlo.s:23177  .debug_str:0000000000014677 .LASF99
C:\Users\SOLDER~1\AppData\Local\Temp\cc0vShlo.s:27163  .debug_str:00000000000249bd .LASF100
C:\Users\SOLDER~1\AppData\Local\Temp\cc0vShlo.s:29245  .debug_str:000000000002d283 .LASF101
C:\Users\SOLDER~1\AppData\Local\Temp\cc0vShlo.s:22783  .debug_str:0000000000012b7d .LASF102
C:\Users\SOLDER~1\AppData\Local\Temp\cc0vShlo.s:26721  .debug_str:0000000000022c7d .LASF103
C:\Users\SOLDER~1\AppData\Local\Temp\cc0vShlo.s:25355  .debug_str:000000000001d414 .LASF104
C:\Users\SOLDER~1\AppData\Local\Temp\cc0vShlo.s:22271  .debug_str:0000000000010a66 .LASF105
C:\Users\SOLDER~1\AppData\Local\Temp\cc0vShlo.s:20001  .debug_str:000000000000757b .LASF106
C:\Users\SOLDER~1\AppData\Local\Temp\cc0vShlo.s:22535  .debug_str:0000000000011b66 .LASF107
C:\Users\SOLDER~1\AppData\Local\Temp\cc0vShlo.s:21519  .debug_str:000000000000d93c .LASF108
C:\Users\SOLDER~1\AppData\Local\Temp\cc0vShlo.s:22707  .debug_str:0000000000012671 .LASF109
C:\Users\SOLDER~1\AppData\Local\Temp\cc0vShlo.s:19429  .debug_str:0000000000004ff3 .LASF110
C:\Users\SOLDER~1\AppData\Local\Temp\cc0vShlo.s:22529  .debug_str:0000000000011b10 .LASF111
C:\Users\SOLDER~1\AppData\Local\Temp\cc0vShlo.s:21515  .debug_str:000000000000d907 .LASF112
C:\Users\SOLDER~1\AppData\Local\Temp\cc0vShlo.s:22997  .debug_str:0000000000013a00 .LASF113
C:\Users\SOLDER~1\AppData\Local\Temp\cc0vShlo.s:21909  .debug_str:000000000000f2b6 .LASF114
C:\Users\SOLDER~1\AppData\Local\Temp\cc0vShlo.s:24451  .debug_str:00000000000198f7 .LASF115
C:\Users\SOLDER~1\AppData\Local\Temp\cc0vShlo.s:20993  .debug_str:000000000000b67a .LASF116
C:\Users\SOLDER~1\AppData\Local\Temp\cc0vShlo.s:20729  .debug_str:000000000000a541 .LASF117
C:\Users\SOLDER~1\AppData\Local\Temp\cc0vShlo.s:22077  .debug_str:000000000000fe42 .LASF118
C:\Users\SOLDER~1\AppData\Local\Temp\cc0vShlo.s:28631  .debug_str:000000000002aa8d .LASF119
C:\Users\SOLDER~1\AppData\Local\Temp\cc0vShlo.s:23991  .debug_str:0000000000017afc .LASF120
C:\Users\SOLDER~1\AppData\Local\Temp\cc0vShlo.s:20497  .debug_str:000000000000961a .LASF121
C:\Users\SOLDER~1\AppData\Local\Temp\cc0vShlo.s:25149  .debug_str:000000000001c615 .LASF122
C:\Users\SOLDER~1\AppData\Local\Temp\cc0vShlo.s:29377  .debug_str:000000000002daff .LASF123
C:\Users\SOLDER~1\AppData\Local\Temp\cc0vShlo.s:21823  .debug_str:000000000000ed3d .LASF124
C:\Users\SOLDER~1\AppData\Local\Temp\cc0vShlo.s:27353  .debug_str:000000000002560f .LASF125
C:\Users\SOLDER~1\AppData\Local\Temp\cc0vShlo.s:21299  .debug_str:000000000000cae5 .LASF126
C:\Users\SOLDER~1\AppData\Local\Temp\cc0vShlo.s:21395  .debug_str:000000000000d149 .LASF127
C:\Users\SOLDER~1\AppData\Local\Temp\cc0vShlo.s:19065  .debug_str:000000000000391e .LASF128
C:\Users\SOLDER~1\AppData\Local\Temp\cc0vShlo.s:19349  .debug_str:0000000000004b2a .LASF129
C:\Users\SOLDER~1\AppData\Local\Temp\cc0vShlo.s:28323  .debug_str:0000000000029666 .LASF130
C:\Users\SOLDER~1\AppData\Local\Temp\cc0vShlo.s:22713  .debug_str:00000000000126b4 .LASF131
C:\Users\SOLDER~1\AppData\Local\Temp\cc0vShlo.s:25551  .debug_str:000000000001e06b .LASF132
C:\Users\SOLDER~1\AppData\Local\Temp\cc0vShlo.s:20565  .debug_str:0000000000009a70 .LASF133
C:\Users\SOLDER~1\AppData\Local\Temp\cc0vShlo.s:27869  .debug_str:000000000002788d .LASF134
C:\Users\SOLDER~1\AppData\Local\Temp\cc0vShlo.s:28191  .debug_str:0000000000028da2 .LASF135
C:\Users\SOLDER~1\AppData\Local\Temp\cc0vShlo.s:27993  .debug_str:00000000000280fa .LASF136
C:\Users\SOLDER~1\AppData\Local\Temp\cc0vShlo.s:21801  .debug_str:000000000000ebc2 .LASF137
C:\Users\SOLDER~1\AppData\Local\Temp\cc0vShlo.s:27269  .debug_str:0000000000025083 .LASF138
C:\Users\SOLDER~1\AppData\Local\Temp\cc0vShlo.s:19335  .debug_str:0000000000004a1d .LASF139
C:\Users\SOLDER~1\AppData\Local\Temp\cc0vShlo.s:20213  .debug_str:0000000000008358 .LASF140
C:\Users\SOLDER~1\AppData\Local\Temp\cc0vShlo.s:29049  .debug_str:000000000002c5ae .LASF141
GAS LISTING C:\Users\SOLDER~1\AppData\Local\Temp\cc0vShlo.s 			page 13


C:\Users\SOLDER~1\AppData\Local\Temp\cc0vShlo.s:25045  .debug_str:000000000001beec .LASF142
C:\Users\SOLDER~1\AppData\Local\Temp\cc0vShlo.s:28527  .debug_str:000000000002a3f1 .LASF143
C:\Users\SOLDER~1\AppData\Local\Temp\cc0vShlo.s:27637  .debug_str:00000000000269a7 .LASF144
C:\Users\SOLDER~1\AppData\Local\Temp\cc0vShlo.s:25239  .debug_str:000000000001cc68 .LASF145
C:\Users\SOLDER~1\AppData\Local\Temp\cc0vShlo.s:20687  .debug_str:000000000000a284 .LASF146
C:\Users\SOLDER~1\AppData\Local\Temp\cc0vShlo.s:22933  .debug_str:0000000000013562 .LASF147
C:\Users\SOLDER~1\AppData\Local\Temp\cc0vShlo.s:24415  .debug_str:00000000000196c3 .LASF148
C:\Users\SOLDER~1\AppData\Local\Temp\cc0vShlo.s:23481  .debug_str:0000000000015a62 .LASF149
C:\Users\SOLDER~1\AppData\Local\Temp\cc0vShlo.s:21355  .debug_str:000000000000ce91 .LASF150
C:\Users\SOLDER~1\AppData\Local\Temp\cc0vShlo.s:19395  .debug_str:0000000000004dfe .LASF151
C:\Users\SOLDER~1\AppData\Local\Temp\cc0vShlo.s:21945  .debug_str:000000000000f50f .LASF152
C:\Users\SOLDER~1\AppData\Local\Temp\cc0vShlo.s:24403  .debug_str:000000000001962b .LASF153
C:\Users\SOLDER~1\AppData\Local\Temp\cc0vShlo.s:18303  .debug_str:0000000000000744 .LASF154
C:\Users\SOLDER~1\AppData\Local\Temp\cc0vShlo.s:26711  .debug_str:0000000000022be6 .LASF155
C:\Users\SOLDER~1\AppData\Local\Temp\cc0vShlo.s:22987  .debug_str:000000000001391b .LASF156
C:\Users\SOLDER~1\AppData\Local\Temp\cc0vShlo.s:27639  .debug_str:00000000000269bf .LASF157
C:\Users\SOLDER~1\AppData\Local\Temp\cc0vShlo.s:25445  .debug_str:000000000001d95c .LASF158
C:\Users\SOLDER~1\AppData\Local\Temp\cc0vShlo.s:27575  .debug_str:0000000000026567 .LASF159
C:\Users\SOLDER~1\AppData\Local\Temp\cc0vShlo.s:28245  .debug_str:0000000000029136 .LASF160
C:\Users\SOLDER~1\AppData\Local\Temp\cc0vShlo.s:25585  .debug_str:000000000001e27f .LASF161
C:\Users\SOLDER~1\AppData\Local\Temp\cc0vShlo.s:21223  .debug_str:000000000000c5e2 .LASF162
C:\Users\SOLDER~1\AppData\Local\Temp\cc0vShlo.s:20317  .debug_str:00000000000089e7 .LASF163
C:\Users\SOLDER~1\AppData\Local\Temp\cc0vShlo.s:23125  .debug_str:00000000000142ea .LASF164
C:\Users\SOLDER~1\AppData\Local\Temp\cc0vShlo.s:25091  .debug_str:000000000001c250 .LASF165
C:\Users\SOLDER~1\AppData\Local\Temp\cc0vShlo.s:26527  .debug_str:0000000000021fbc .LASF166
C:\Users\SOLDER~1\AppData\Local\Temp\cc0vShlo.s:28121  .debug_str:000000000002895d .LASF167
C:\Users\SOLDER~1\AppData\Local\Temp\cc0vShlo.s:27259  .debug_str:0000000000024fc9 .LASF168
C:\Users\SOLDER~1\AppData\Local\Temp\cc0vShlo.s:28949  .debug_str:000000000002bf5f .LASF169
C:\Users\SOLDER~1\AppData\Local\Temp\cc0vShlo.s:20075  .debug_str:0000000000007a01 .LASF170
C:\Users\SOLDER~1\AppData\Local\Temp\cc0vShlo.s:28623  .debug_str:000000000002aa0d .LASF171
C:\Users\SOLDER~1\AppData\Local\Temp\cc0vShlo.s:20459  .debug_str:000000000000937f .LASF172
C:\Users\SOLDER~1\AppData\Local\Temp\cc0vShlo.s:24949  .debug_str:000000000001b891 .LASF173
C:\Users\SOLDER~1\AppData\Local\Temp\cc0vShlo.s:24209  .debug_str:0000000000018913 .LASF174
C:\Users\SOLDER~1\AppData\Local\Temp\cc0vShlo.s:28053  .debug_str:00000000000284c8 .LASF175
C:\Users\SOLDER~1\AppData\Local\Temp\cc0vShlo.s:25087  .debug_str:000000000001c1e2 .LASF176
C:\Users\SOLDER~1\AppData\Local\Temp\cc0vShlo.s:25365  .debug_str:000000000001d4a8 .LASF177
C:\Users\SOLDER~1\AppData\Local\Temp\cc0vShlo.s:20681  .debug_str:000000000000a23f .LASF178
C:\Users\SOLDER~1\AppData\Local\Temp\cc0vShlo.s:22655  .debug_str:00000000000122f9 .LASF179
C:\Users\SOLDER~1\AppData\Local\Temp\cc0vShlo.s:24527  .debug_str:0000000000019d98 .LASF180
C:\Users\SOLDER~1\AppData\Local\Temp\cc0vShlo.s:19735  .debug_str:00000000000063fe .LASF181
C:\Users\SOLDER~1\AppData\Local\Temp\cc0vShlo.s:20541  .debug_str:000000000000990e .LASF182
C:\Users\SOLDER~1\AppData\Local\Temp\cc0vShlo.s:19201  .debug_str:00000000000041d3 .LASF183
C:\Users\SOLDER~1\AppData\Local\Temp\cc0vShlo.s:24583  .debug_str:000000000001a125 .LASF184
C:\Users\SOLDER~1\AppData\Local\Temp\cc0vShlo.s:23127  .debug_str:0000000000014301 .LASF185
C:\Users\SOLDER~1\AppData\Local\Temp\cc0vShlo.s:18725  .debug_str:0000000000002300 .LASF186
C:\Users\SOLDER~1\AppData\Local\Temp\cc0vShlo.s:29243  .debug_str:000000000002d270 .LASF187
C:\Users\SOLDER~1\AppData\Local\Temp\cc0vShlo.s:18511  .debug_str:000000000000151c .LASF188
C:\Users\SOLDER~1\AppData\Local\Temp\cc0vShlo.s:23107  .debug_str:00000000000141a8 .LASF189
C:\Users\SOLDER~1\AppData\Local\Temp\cc0vShlo.s:23551  .debug_str:0000000000015ed5 .LASF190
C:\Users\SOLDER~1\AppData\Local\Temp\cc0vShlo.s:28453  .debug_str:0000000000029ee8 .LASF191
C:\Users\SOLDER~1\AppData\Local\Temp\cc0vShlo.s:21551  .debug_str:000000000000db44 .LASF192
C:\Users\SOLDER~1\AppData\Local\Temp\cc0vShlo.s:28921  .debug_str:000000000002bd48 .LASF193
C:\Users\SOLDER~1\AppData\Local\Temp\cc0vShlo.s:23073  .debug_str:0000000000013f3d .LASF194
C:\Users\SOLDER~1\AppData\Local\Temp\cc0vShlo.s:21843  .debug_str:000000000000eea2 .LASF195
C:\Users\SOLDER~1\AppData\Local\Temp\cc0vShlo.s:20875  .debug_str:000000000000af19 .LASF196
C:\Users\SOLDER~1\AppData\Local\Temp\cc0vShlo.s:25641  .debug_str:000000000001e649 .LASF197
C:\Users\SOLDER~1\AppData\Local\Temp\cc0vShlo.s:28541  .debug_str:000000000002a4e4 .LASF198
GAS LISTING C:\Users\SOLDER~1\AppData\Local\Temp\cc0vShlo.s 			page 14


C:\Users\SOLDER~1\AppData\Local\Temp\cc0vShlo.s:23349  .debug_str:00000000000151d2 .LASF199
C:\Users\SOLDER~1\AppData\Local\Temp\cc0vShlo.s:25837  .debug_str:000000000001f34d .LASF200
C:\Users\SOLDER~1\AppData\Local\Temp\cc0vShlo.s:18521  .debug_str:00000000000015be .LASF201
C:\Users\SOLDER~1\AppData\Local\Temp\cc0vShlo.s:29475  .debug_str:000000000002e108 .LASF202
C:\Users\SOLDER~1\AppData\Local\Temp\cc0vShlo.s:23325  .debug_str:0000000000015024 .LASF203
C:\Users\SOLDER~1\AppData\Local\Temp\cc0vShlo.s:26025  .debug_str:000000000001ff5c .LASF204
C:\Users\SOLDER~1\AppData\Local\Temp\cc0vShlo.s:24603  .debug_str:000000000001a267 .LASF205
C:\Users\SOLDER~1\AppData\Local\Temp\cc0vShlo.s:19783  .debug_str:0000000000006721 .LASF206
C:\Users\SOLDER~1\AppData\Local\Temp\cc0vShlo.s:23337  .debug_str:00000000000150eb .LASF207
C:\Users\SOLDER~1\AppData\Local\Temp\cc0vShlo.s:25287  .debug_str:000000000001cf64 .LASF208
C:\Users\SOLDER~1\AppData\Local\Temp\cc0vShlo.s:26259  .debug_str:0000000000020e95 .LASF209
C:\Users\SOLDER~1\AppData\Local\Temp\cc0vShlo.s:22165  .debug_str:00000000000103d2 .LASF210
C:\Users\SOLDER~1\AppData\Local\Temp\cc0vShlo.s:27641  .debug_str:00000000000269fb .LASF211
C:\Users\SOLDER~1\AppData\Local\Temp\cc0vShlo.s:27441  .debug_str:0000000000025c2f .LASF212
C:\Users\SOLDER~1\AppData\Local\Temp\cc0vShlo.s:20023  .debug_str:00000000000076e6 .LASF213
C:\Users\SOLDER~1\AppData\Local\Temp\cc0vShlo.s:26969  .debug_str:0000000000023cb7 .LASF214
C:\Users\SOLDER~1\AppData\Local\Temp\cc0vShlo.s:23637  .debug_str:0000000000016474 .LASF215
C:\Users\SOLDER~1\AppData\Local\Temp\cc0vShlo.s:19989  .debug_str:00000000000074d7 .LASF216
C:\Users\SOLDER~1\AppData\Local\Temp\cc0vShlo.s:20403  .debug_str:0000000000008fbc .LASF217
C:\Users\SOLDER~1\AppData\Local\Temp\cc0vShlo.s:27515  .debug_str:000000000002618b .LASF218
C:\Users\SOLDER~1\AppData\Local\Temp\cc0vShlo.s:26457  .debug_str:0000000000021b61 .LASF219
C:\Users\SOLDER~1\AppData\Local\Temp\cc0vShlo.s:18821  .debug_str:0000000000002984 .LASF220
C:\Users\SOLDER~1\AppData\Local\Temp\cc0vShlo.s:20535  .debug_str:000000000000986b .LASF221
C:\Users\SOLDER~1\AppData\Local\Temp\cc0vShlo.s:18243  .debug_str:00000000000002a4 .LASF222
C:\Users\SOLDER~1\AppData\Local\Temp\cc0vShlo.s:26059  .debug_str:000000000002017b .LASF223
C:\Users\SOLDER~1\AppData\Local\Temp\cc0vShlo.s:20449  .debug_str:00000000000092c2 .LASF224
C:\Users\SOLDER~1\AppData\Local\Temp\cc0vShlo.s:19791  .debug_str:00000000000067d4 .LASF225
C:\Users\SOLDER~1\AppData\Local\Temp\cc0vShlo.s:25549  .debug_str:000000000001e054 .LASF226
C:\Users\SOLDER~1\AppData\Local\Temp\cc0vShlo.s:23737  .debug_str:0000000000016a8e .LASF227
C:\Users\SOLDER~1\AppData\Local\Temp\cc0vShlo.s:22085  .debug_str:000000000000feb2 .LASF228
C:\Users\SOLDER~1\AppData\Local\Temp\cc0vShlo.s:26057  .debug_str:0000000000020162 .LASF229
C:\Users\SOLDER~1\AppData\Local\Temp\cc0vShlo.s:27093  .debug_str:0000000000024506 .LASF230
C:\Users\SOLDER~1\AppData\Local\Temp\cc0vShlo.s:22109  .debug_str:0000000000010033 .LASF231
C:\Users\SOLDER~1\AppData\Local\Temp\cc0vShlo.s:27865  .debug_str:0000000000027851 .LASF232
C:\Users\SOLDER~1\AppData\Local\Temp\cc0vShlo.s:27157  .debug_str:0000000000024959 .LASF233
C:\Users\SOLDER~1\AppData\Local\Temp\cc0vShlo.s:28899  .debug_str:000000000002bbbf .LASF234
C:\Users\SOLDER~1\AppData\Local\Temp\cc0vShlo.s:20187  .debug_str:00000000000081a9 .LASF235
C:\Users\SOLDER~1\AppData\Local\Temp\cc0vShlo.s:22159  .debug_str:000000000001036a .LASF236
C:\Users\SOLDER~1\AppData\Local\Temp\cc0vShlo.s:21615  .debug_str:000000000000df93 .LASF237
C:\Users\SOLDER~1\AppData\Local\Temp\cc0vShlo.s:27319  .debug_str:00000000000253b3 .LASF238
C:\Users\SOLDER~1\AppData\Local\Temp\cc0vShlo.s:22971  .debug_str:00000000000137e1 .LASF239
C:\Users\SOLDER~1\AppData\Local\Temp\cc0vShlo.s:26073  .debug_str:000000000002026c .LASF240
C:\Users\SOLDER~1\AppData\Local\Temp\cc0vShlo.s:18905  .debug_str:0000000000002e99 .LASF241
C:\Users\SOLDER~1\AppData\Local\Temp\cc0vShlo.s:23939  .debug_str:0000000000017783 .LASF242
C:\Users\SOLDER~1\AppData\Local\Temp\cc0vShlo.s:25379  .debug_str:000000000001d573 .LASF243
C:\Users\SOLDER~1\AppData\Local\Temp\cc0vShlo.s:24761  .debug_str:000000000001ace8 .LASF244
C:\Users\SOLDER~1\AppData\Local\Temp\cc0vShlo.s:29211  .debug_str:000000000002d057 .LASF245
C:\Users\SOLDER~1\AppData\Local\Temp\cc0vShlo.s:25315  .debug_str:000000000001d182 .LASF246
C:\Users\SOLDER~1\AppData\Local\Temp\cc0vShlo.s:28347  .debug_str:00000000000297ba .LASF247
C:\Users\SOLDER~1\AppData\Local\Temp\cc0vShlo.s:21639  .debug_str:000000000000e176 .LASF248
C:\Users\SOLDER~1\AppData\Local\Temp\cc0vShlo.s:27729  .debug_str:0000000000026f9d .LASF249
C:\Users\SOLDER~1\AppData\Local\Temp\cc0vShlo.s:21491  .debug_str:000000000000d798 .LASF250
C:\Users\SOLDER~1\AppData\Local\Temp\cc0vShlo.s:24669  .debug_str:000000000001a6c2 .LASF251
C:\Users\SOLDER~1\AppData\Local\Temp\cc0vShlo.s:22195  .debug_str:0000000000010596 .LASF252
C:\Users\SOLDER~1\AppData\Local\Temp\cc0vShlo.s:18447  .debug_str:00000000000010ce .LASF253
C:\Users\SOLDER~1\AppData\Local\Temp\cc0vShlo.s:20949  .debug_str:000000000000b3ac .LASF254
C:\Users\SOLDER~1\AppData\Local\Temp\cc0vShlo.s:18389  .debug_str:0000000000000d42 .LASF255
GAS LISTING C:\Users\SOLDER~1\AppData\Local\Temp\cc0vShlo.s 			page 15


C:\Users\SOLDER~1\AppData\Local\Temp\cc0vShlo.s:21055  .debug_str:000000000000ba7a .LASF256
C:\Users\SOLDER~1\AppData\Local\Temp\cc0vShlo.s:20539  .debug_str:00000000000098c9 .LASF257
C:\Users\SOLDER~1\AppData\Local\Temp\cc0vShlo.s:29417  .debug_str:000000000002dd6c .LASF258
C:\Users\SOLDER~1\AppData\Local\Temp\cc0vShlo.s:25263  .debug_str:000000000001cdda .LASF259
C:\Users\SOLDER~1\AppData\Local\Temp\cc0vShlo.s:24091  .debug_str:00000000000181a8 .LASF260
C:\Users\SOLDER~1\AppData\Local\Temp\cc0vShlo.s:24879  .debug_str:000000000001b447 .LASF261
C:\Users\SOLDER~1\AppData\Local\Temp\cc0vShlo.s:21665  .debug_str:000000000000e33c .LASF262
C:\Users\SOLDER~1\AppData\Local\Temp\cc0vShlo.s:21001  .debug_str:000000000000b702 .LASF263
C:\Users\SOLDER~1\AppData\Local\Temp\cc0vShlo.s:28711  .debug_str:000000000002afed .LASF264
C:\Users\SOLDER~1\AppData\Local\Temp\cc0vShlo.s:21315  .debug_str:000000000000cc01 .LASF265
C:\Users\SOLDER~1\AppData\Local\Temp\cc0vShlo.s:22287  .debug_str:0000000000010b5c .LASF266
C:\Users\SOLDER~1\AppData\Local\Temp\cc0vShlo.s:24123  .debug_str:00000000000183a0 .LASF267
C:\Users\SOLDER~1\AppData\Local\Temp\cc0vShlo.s:27975  .debug_str:0000000000027ff5 .LASF268
C:\Users\SOLDER~1\AppData\Local\Temp\cc0vShlo.s:21133  .debug_str:000000000000bf89 .LASF269
C:\Users\SOLDER~1\AppData\Local\Temp\cc0vShlo.s:19879  .debug_str:0000000000006d58 .LASF270
C:\Users\SOLDER~1\AppData\Local\Temp\cc0vShlo.s:20055  .debug_str:00000000000078a2 .LASF271
C:\Users\SOLDER~1\AppData\Local\Temp\cc0vShlo.s:21367  .debug_str:000000000000cf64 .LASF272
C:\Users\SOLDER~1\AppData\Local\Temp\cc0vShlo.s:21201  .debug_str:000000000000c45a .LASF273
C:\Users\SOLDER~1\AppData\Local\Temp\cc0vShlo.s:18533  .debug_str:0000000000001684 .LASF274
C:\Users\SOLDER~1\AppData\Local\Temp\cc0vShlo.s:19871  .debug_str:0000000000006ce5 .LASF275
C:\Users\SOLDER~1\AppData\Local\Temp\cc0vShlo.s:28649  .debug_str:000000000002aba9 .LASF276
C:\Users\SOLDER~1\AppData\Local\Temp\cc0vShlo.s:26609  .debug_str:00000000000224f5 .LASF277
C:\Users\SOLDER~1\AppData\Local\Temp\cc0vShlo.s:27541  .debug_str:000000000002634f .LASF278
C:\Users\SOLDER~1\AppData\Local\Temp\cc0vShlo.s:19831  .debug_str:0000000000006a54 .LASF279
C:\Users\SOLDER~1\AppData\Local\Temp\cc0vShlo.s:19613  .debug_str:0000000000005bd0 .LASF280
C:\Users\SOLDER~1\AppData\Local\Temp\cc0vShlo.s:19491  .debug_str:00000000000053ca .LASF281
C:\Users\SOLDER~1\AppData\Local\Temp\cc0vShlo.s:24153  .debug_str:00000000000185a3 .LASF282
C:\Users\SOLDER~1\AppData\Local\Temp\cc0vShlo.s:27511  .debug_str:0000000000026146 .LASF283
C:\Users\SOLDER~1\AppData\Local\Temp\cc0vShlo.s:27773  .debug_str:0000000000027294 .LASF284
C:\Users\SOLDER~1\AppData\Local\Temp\cc0vShlo.s:28629  .debug_str:000000000002aa6f .LASF285
C:\Users\SOLDER~1\AppData\Local\Temp\cc0vShlo.s:25325  .debug_str:000000000001d226 .LASF286
C:\Users\SOLDER~1\AppData\Local\Temp\cc0vShlo.s:29407  .debug_str:000000000002dccb .LASF287
C:\Users\SOLDER~1\AppData\Local\Temp\cc0vShlo.s:19585  .debug_str:00000000000059f2 .LASF288
C:\Users\SOLDER~1\AppData\Local\Temp\cc0vShlo.s:23353  .debug_str:0000000000015207 .LASF289
C:\Users\SOLDER~1\AppData\Local\Temp\cc0vShlo.s:22241  .debug_str:000000000001089e .LASF290
C:\Users\SOLDER~1\AppData\Local\Temp\cc0vShlo.s:29647  .debug_str:000000000002ec2a .LASF291
C:\Users\SOLDER~1\AppData\Local\Temp\cc0vShlo.s:28471  .debug_str:000000000002a043 .LASF292
C:\Users\SOLDER~1\AppData\Local\Temp\cc0vShlo.s:19417  .debug_str:0000000000004f47 .LASF293
C:\Users\SOLDER~1\AppData\Local\Temp\cc0vShlo.s:18245  .debug_str:00000000000002e5 .LASF294
C:\Users\SOLDER~1\AppData\Local\Temp\cc0vShlo.s:23403  .debug_str:0000000000015562 .LASF295
C:\Users\SOLDER~1\AppData\Local\Temp\cc0vShlo.s:24227  .debug_str:0000000000018a61 .LASF296
C:\Users\SOLDER~1\AppData\Local\Temp\cc0vShlo.s:21657  .debug_str:000000000000e2b6 .LASF297
C:\Users\SOLDER~1\AppData\Local\Temp\cc0vShlo.s:22187  .debug_str:0000000000010523 .LASF298
C:\Users\SOLDER~1\AppData\Local\Temp\cc0vShlo.s:24919  .debug_str:000000000001b6a9 .LASF299
C:\Users\SOLDER~1\AppData\Local\Temp\cc0vShlo.s:23475  .debug_str:0000000000015a23 .LASF300
C:\Users\SOLDER~1\AppData\Local\Temp\cc0vShlo.s:22913  .debug_str:00000000000133fc .LASF301
C:\Users\SOLDER~1\AppData\Local\Temp\cc0vShlo.s:18761  .debug_str:000000000000257a .LASF302
C:\Users\SOLDER~1\AppData\Local\Temp\cc0vShlo.s:21319  .debug_str:000000000000cc43 .LASF303
C:\Users\SOLDER~1\AppData\Local\Temp\cc0vShlo.s:26691  .debug_str:0000000000022aa1 .LASF304
C:\Users\SOLDER~1\AppData\Local\Temp\cc0vShlo.s:22207  .debug_str:0000000000010635 .LASF305
C:\Users\SOLDER~1\AppData\Local\Temp\cc0vShlo.s:27531  .debug_str:00000000000262be .LASF306
C:\Users\SOLDER~1\AppData\Local\Temp\cc0vShlo.s:27129  .debug_str:0000000000024769 .LASF307
C:\Users\SOLDER~1\AppData\Local\Temp\cc0vShlo.s:25337  .debug_str:000000000001d2f1 .LASF308
C:\Users\SOLDER~1\AppData\Local\Temp\cc0vShlo.s:19207  .debug_str:0000000000004237 .LASF309
C:\Users\SOLDER~1\AppData\Local\Temp\cc0vShlo.s:25701  .debug_str:000000000001ea44 .LASF310
C:\Users\SOLDER~1\AppData\Local\Temp\cc0vShlo.s:21439  .debug_str:000000000000d43f .LASF311
C:\Users\SOLDER~1\AppData\Local\Temp\cc0vShlo.s:22739  .debug_str:000000000001285b .LASF312
GAS LISTING C:\Users\SOLDER~1\AppData\Local\Temp\cc0vShlo.s 			page 16


C:\Users\SOLDER~1\AppData\Local\Temp\cc0vShlo.s:20607  .debug_str:0000000000009d32 .LASF313
C:\Users\SOLDER~1\AppData\Local\Temp\cc0vShlo.s:23171  .debug_str:000000000001461f .LASF314
C:\Users\SOLDER~1\AppData\Local\Temp\cc0vShlo.s:20051  .debug_str:0000000000007863 .LASF315
C:\Users\SOLDER~1\AppData\Local\Temp\cc0vShlo.s:25411  .debug_str:000000000001d74e .LASF316
C:\Users\SOLDER~1\AppData\Local\Temp\cc0vShlo.s:27861  .debug_str:0000000000027822 .LASF317
C:\Users\SOLDER~1\AppData\Local\Temp\cc0vShlo.s:27135  .debug_str:00000000000247d6 .LASF319
C:\Users\SOLDER~1\AppData\Local\Temp\cc0vShlo.s:22049  .debug_str:000000000000fc53 .LASF320
C:\Users\SOLDER~1\AppData\Local\Temp\cc0vShlo.s:23323  .debug_str:0000000000014fff .LASF321
C:\Users\SOLDER~1\AppData\Local\Temp\cc0vShlo.s:25741  .debug_str:000000000001ecc8 .LASF322
C:\Users\SOLDER~1\AppData\Local\Temp\cc0vShlo.s:24577  .debug_str:000000000001a0c5 .LASF323
C:\Users\SOLDER~1\AppData\Local\Temp\cc0vShlo.s:21333  .debug_str:000000000000cd2e .LASF324
C:\Users\SOLDER~1\AppData\Local\Temp\cc0vShlo.s:19581  .debug_str:00000000000059b9 .LASF325
C:\Users\SOLDER~1\AppData\Local\Temp\cc0vShlo.s:18327  .debug_str:00000000000008d6 .LASF326
C:\Users\SOLDER~1\AppData\Local\Temp\cc0vShlo.s:28475  .debug_str:000000000002a088 .LASF327
C:\Users\SOLDER~1\AppData\Local\Temp\cc0vShlo.s:21409  .debug_str:000000000000d232 .LASF328
C:\Users\SOLDER~1\AppData\Local\Temp\cc0vShlo.s:29333  .debug_str:000000000002d801 .LASF329
C:\Users\SOLDER~1\AppData\Local\Temp\cc0vShlo.s:19703  .debug_str:00000000000061e1 .LASF330
C:\Users\SOLDER~1\AppData\Local\Temp\cc0vShlo.s:19253  .debug_str:00000000000044fa .LASF331
C:\Users\SOLDER~1\AppData\Local\Temp\cc0vShlo.s:18257  .debug_str:00000000000003a6 .LASF332
C:\Users\SOLDER~1\AppData\Local\Temp\cc0vShlo.s:23573  .debug_str:000000000001604a .LASF333
C:\Users\SOLDER~1\AppData\Local\Temp\cc0vShlo.s:26161  .debug_str:0000000000020846 .LASF334
C:\Users\SOLDER~1\AppData\Local\Temp\cc0vShlo.s:24459  .debug_str:0000000000019978 .LASF335
C:\Users\SOLDER~1\AppData\Local\Temp\cc0vShlo.s:24325  .debug_str:00000000000190e1 .LASF339
C:\Users\SOLDER~1\AppData\Local\Temp\cc0vShlo.s:24855  .debug_str:000000000001b2c0 .LASF340
C:\Users\SOLDER~1\AppData\Local\Temp\cc0vShlo.s:20901  .debug_str:000000000000b09d .LASF341
C:\Users\SOLDER~1\AppData\Local\Temp\cc0vShlo.s:24097  .debug_str:000000000001820e .LASF342
C:\Users\SOLDER~1\AppData\Local\Temp\cc0vShlo.s:24311  .debug_str:0000000000019007 .LASF343
C:\Users\SOLDER~1\AppData\Local\Temp\cc0vShlo.s:18805  .debug_str:0000000000002837 .LASF344
C:\Users\SOLDER~1\AppData\Local\Temp\cc0vShlo.s:20943  .debug_str:000000000000b33a .LASF345
C:\Users\SOLDER~1\AppData\Local\Temp\cc0vShlo.s:19121  .debug_str:0000000000003cb5 .LASF346
C:\Users\SOLDER~1\AppData\Local\Temp\cc0vShlo.s:28995  .debug_str:000000000002c24e .LASF347
C:\Users\SOLDER~1\AppData\Local\Temp\cc0vShlo.s:23661  .debug_str:00000000000165c9 .LASF348
C:\Users\SOLDER~1\AppData\Local\Temp\cc0vShlo.s:26093  .debug_str:00000000000203cc .LASF349
C:\Users\SOLDER~1\AppData\Local\Temp\cc0vShlo.s:20439  .debug_str:000000000000923d .LASF350
C:\Users\SOLDER~1\AppData\Local\Temp\cc0vShlo.s:24163  .debug_str:000000000001863a .LASF351
C:\Users\SOLDER~1\AppData\Local\Temp\cc0vShlo.s:29323  .debug_str:000000000002d76a .LASF352
C:\Users\SOLDER~1\AppData\Local\Temp\cc0vShlo.s:20877  .debug_str:000000000000af32 .LASF353
C:\Users\SOLDER~1\AppData\Local\Temp\cc0vShlo.s:21961  .debug_str:000000000000f623 .LASF354
C:\Users\SOLDER~1\AppData\Local\Temp\cc0vShlo.s:25351  .debug_str:000000000001d3dd .LASF355
C:\Users\SOLDER~1\AppData\Local\Temp\cc0vShlo.s:23571  .debug_str:000000000001603a .LASF356
C:\Users\SOLDER~1\AppData\Local\Temp\cc0vShlo.s:23713  .debug_str:000000000001690f .LASF357
C:\Users\SOLDER~1\AppData\Local\Temp\cc0vShlo.s:26735  .debug_str:0000000000022d55 .LASF358
C:\Users\SOLDER~1\AppData\Local\Temp\cc0vShlo.s:22795  .debug_str:0000000000012c57 .LASF359
C:\Users\SOLDER~1\AppData\Local\Temp\cc0vShlo.s:23777  .debug_str:0000000000016cd3 .LASF360
C:\Users\SOLDER~1\AppData\Local\Temp\cc0vShlo.s:26847  .debug_str:00000000000234f0 .LASF361
C:\Users\SOLDER~1\AppData\Local\Temp\cc0vShlo.s:19945  .debug_str:00000000000071ee .LASF362
C:\Users\SOLDER~1\AppData\Local\Temp\cc0vShlo.s:28603  .debug_str:000000000002a8a7 .LASF363
C:\Users\SOLDER~1\AppData\Local\Temp\cc0vShlo.s:19461  .debug_str:00000000000051f3 .LASF364
C:\Users\SOLDER~1\AppData\Local\Temp\cc0vShlo.s:24247  .debug_str:0000000000018bc1 .LASF365
C:\Users\SOLDER~1\AppData\Local\Temp\cc0vShlo.s:20041  .debug_str:00000000000077d1 .LASF366
C:\Users\SOLDER~1\AppData\Local\Temp\cc0vShlo.s:20961  .debug_str:000000000000b49c .LASF367
C:\Users\SOLDER~1\AppData\Local\Temp\cc0vShlo.s:18217  .debug_str:000000000000011b .LASF368
C:\Users\SOLDER~1\AppData\Local\Temp\cc0vShlo.s:26043  .debug_str:000000000002007e .LASF369
C:\Users\SOLDER~1\AppData\Local\Temp\cc0vShlo.s:21647  .debug_str:000000000000e209 .LASF370
C:\Users\SOLDER~1\AppData\Local\Temp\cc0vShlo.s:27039  .debug_str:0000000000024164 .LASF371
C:\Users\SOLDER~1\AppData\Local\Temp\cc0vShlo.s:25977  .debug_str:000000000001fc4d .LASF372
C:\Users\SOLDER~1\AppData\Local\Temp\cc0vShlo.s:22397  .debug_str:0000000000011277 .LASF373
GAS LISTING C:\Users\SOLDER~1\AppData\Local\Temp\cc0vShlo.s 			page 17


C:\Users\SOLDER~1\AppData\Local\Temp\cc0vShlo.s:29467  .debug_str:000000000002e08b .LASF374
C:\Users\SOLDER~1\AppData\Local\Temp\cc0vShlo.s:29405  .debug_str:000000000002dcc5 .LASF375
C:\Users\SOLDER~1\AppData\Local\Temp\cc0vShlo.s:20221  .debug_str:00000000000083d9 .LASF376
C:\Users\SOLDER~1\AppData\Local\Temp\cc0vShlo.s:28505  .debug_str:000000000002a274 .LASF377
C:\Users\SOLDER~1\AppData\Local\Temp\cc0vShlo.s:23557  .debug_str:0000000000015f5d .LASF378
C:\Users\SOLDER~1\AppData\Local\Temp\cc0vShlo.s:27299  .debug_str:0000000000025254 .LASF379
C:\Users\SOLDER~1\AppData\Local\Temp\cc0vShlo.s:28307  .debug_str:0000000000029576 .LASF380
C:\Users\SOLDER~1\AppData\Local\Temp\cc0vShlo.s:26771  .debug_str:0000000000022fb9 .LASF381
C:\Users\SOLDER~1\AppData\Local\Temp\cc0vShlo.s:23753  .debug_str:0000000000016b76 .LASF382
C:\Users\SOLDER~1\AppData\Local\Temp\cc0vShlo.s:28333  .debug_str:00000000000296f4 .LASF383
C:\Users\SOLDER~1\AppData\Local\Temp\cc0vShlo.s:25079  .debug_str:000000000001c16f .LASF384
C:\Users\SOLDER~1\AppData\Local\Temp\cc0vShlo.s:22497  .debug_str:0000000000011923 .LASF385
C:\Users\SOLDER~1\AppData\Local\Temp\cc0vShlo.s:26895  .debug_str:00000000000237e9 .LASF386
C:\Users\SOLDER~1\AppData\Local\Temp\cc0vShlo.s:25891  .debug_str:000000000001f704 .LASF387
C:\Users\SOLDER~1\AppData\Local\Temp\cc0vShlo.s:18563  .debug_str:000000000000185f .LASF388
C:\Users\SOLDER~1\AppData\Local\Temp\cc0vShlo.s:19223  .debug_str:000000000000431f .LASF389
C:\Users\SOLDER~1\AppData\Local\Temp\cc0vShlo.s:19639  .debug_str:0000000000005d77 .LASF390
C:\Users\SOLDER~1\AppData\Local\Temp\cc0vShlo.s:20803  .debug_str:000000000000aa74 .LASF391
C:\Users\SOLDER~1\AppData\Local\Temp\cc0vShlo.s:20291  .debug_str:0000000000008838 .LASF392
C:\Users\SOLDER~1\AppData\Local\Temp\cc0vShlo.s:25593  .debug_str:000000000001e2fd .LASF393
C:\Users\SOLDER~1\AppData\Local\Temp\cc0vShlo.s:26229  .debug_str:0000000000020c9f .LASF394
C:\Users\SOLDER~1\AppData\Local\Temp\cc0vShlo.s:26363  .debug_str:0000000000021560 .LASF395
C:\Users\SOLDER~1\AppData\Local\Temp\cc0vShlo.s:20445  .debug_str:0000000000009293 .LASF396
C:\Users\SOLDER~1\AppData\Local\Temp\cc0vShlo.s:20031  .debug_str:0000000000007750 .LASF397
C:\Users\SOLDER~1\AppData\Local\Temp\cc0vShlo.s:25407  .debug_str:000000000001d72a .LASF398
C:\Users\SOLDER~1\AppData\Local\Temp\cc0vShlo.s:28019  .debug_str:00000000000282b5 .LASF399
C:\Users\SOLDER~1\AppData\Local\Temp\cc0vShlo.s:22709  .debug_str:000000000001267f .LASF400
C:\Users\SOLDER~1\AppData\Local\Temp\cc0vShlo.s:23459  .debug_str:0000000000015918 .LASF401
C:\Users\SOLDER~1\AppData\Local\Temp\cc0vShlo.s:21301  .debug_str:000000000000cb10 .LASF402
C:\Users\SOLDER~1\AppData\Local\Temp\cc0vShlo.s:25107  .debug_str:000000000001c356 .LASF403
C:\Users\SOLDER~1\AppData\Local\Temp\cc0vShlo.s:23669  .debug_str:0000000000016636 .LASF404
C:\Users\SOLDER~1\AppData\Local\Temp\cc0vShlo.s:24113  .debug_str:000000000001830d .LASF405
C:\Users\SOLDER~1\AppData\Local\Temp\cc0vShlo.s:20347  .debug_str:0000000000008bd1 .LASF406
C:\Users\SOLDER~1\AppData\Local\Temp\cc0vShlo.s:28945  .debug_str:000000000002bf2b .LASF407
C:\Users\SOLDER~1\AppData\Local\Temp\cc0vShlo.s:23019  .debug_str:0000000000013b9b .LASF408
C:\Users\SOLDER~1\AppData\Local\Temp\cc0vShlo.s:25437  .debug_str:000000000001d8e7 .LASF409
C:\Users\SOLDER~1\AppData\Local\Temp\cc0vShlo.s:21875  .debug_str:000000000000f084 .LASF410
C:\Users\SOLDER~1\AppData\Local\Temp\cc0vShlo.s:26127  .debug_str:0000000000020612 .LASF411
C:\Users\SOLDER~1\AppData\Local\Temp\cc0vShlo.s:28085  .debug_str:000000000002870e .LASF412
C:\Users\SOLDER~1\AppData\Local\Temp\cc0vShlo.s:23341  .debug_str:000000000001514d .LASF413
C:\Users\SOLDER~1\AppData\Local\Temp\cc0vShlo.s:22557  .debug_str:0000000000011cd6 .LASF414
C:\Users\SOLDER~1\AppData\Local\Temp\cc0vShlo.s:24521  .debug_str:0000000000019d56 .LASF415
C:\Users\SOLDER~1\AppData\Local\Temp\cc0vShlo.s:29501  .debug_str:000000000002e2c6 .LASF416
C:\Users\SOLDER~1\AppData\Local\Temp\cc0vShlo.s:29639  .debug_str:000000000002ebb1 .LASF417
C:\Users\SOLDER~1\AppData\Local\Temp\cc0vShlo.s:20101  .debug_str:0000000000007bc3 .LASF418
C:\Users\SOLDER~1\AppData\Local\Temp\cc0vShlo.s:21155  .debug_str:000000000000c133 .LASF419
C:\Users\SOLDER~1\AppData\Local\Temp\cc0vShlo.s:21157  .debug_str:000000000000c147 .LASF420
C:\Users\SOLDER~1\AppData\Local\Temp\cc0vShlo.s:26181  .debug_str:0000000000020999 .LASF421
C:\Users\SOLDER~1\AppData\Local\Temp\cc0vShlo.s:26871  .debug_str:0000000000023670 .LASF422
C:\Users\SOLDER~1\AppData\Local\Temp\cc0vShlo.s:18677  .debug_str:0000000000001fd3 .LASF423
C:\Users\SOLDER~1\AppData\Local\Temp\cc0vShlo.s:22953  .debug_str:00000000000136a9 .LASF424
C:\Users\SOLDER~1\AppData\Local\Temp\cc0vShlo.s:26117  .debug_str:000000000002056a .LASF425
C:\Users\SOLDER~1\AppData\Local\Temp\cc0vShlo.s:22547  .debug_str:0000000000011c52 .LASF426
C:\Users\SOLDER~1\AppData\Local\Temp\cc0vShlo.s:29621  .debug_str:000000000002ea91 .LASF427
C:\Users\SOLDER~1\AppData\Local\Temp\cc0vShlo.s:25119  .debug_str:000000000001c40b .LASF428
C:\Users\SOLDER~1\AppData\Local\Temp\cc0vShlo.s:19475  .debug_str:00000000000052e2 .LASF429
C:\Users\SOLDER~1\AppData\Local\Temp\cc0vShlo.s:27243  .debug_str:0000000000024edf .LASF430
GAS LISTING C:\Users\SOLDER~1\AppData\Local\Temp\cc0vShlo.s 			page 18


C:\Users\SOLDER~1\AppData\Local\Temp\cc0vShlo.s:22885  .debug_str:000000000001322b .LASF431
C:\Users\SOLDER~1\AppData\Local\Temp\cc0vShlo.s:27159  .debug_str:0000000000024977 .LASF432
C:\Users\SOLDER~1\AppData\Local\Temp\cc0vShlo.s:19385  .debug_str:0000000000004d66 .LASF433
C:\Users\SOLDER~1\AppData\Local\Temp\cc0vShlo.s:21849  .debug_str:000000000000eef0 .LASF434
C:\Users\SOLDER~1\AppData\Local\Temp\cc0vShlo.s:26011  .debug_str:000000000001fe86 .LASF435
C:\Users\SOLDER~1\AppData\Local\Temp\cc0vShlo.s:18373  .debug_str:0000000000000c33 .LASF436
C:\Users\SOLDER~1\AppData\Local\Temp\cc0vShlo.s:21343  .debug_str:000000000000cddc .LASF437
C:\Users\SOLDER~1\AppData\Local\Temp\cc0vShlo.s:23295  .debug_str:0000000000014e40 .LASF438
C:\Users\SOLDER~1\AppData\Local\Temp\cc0vShlo.s:19463  .debug_str:0000000000005208 .LASF439
C:\Users\SOLDER~1\AppData\Local\Temp\cc0vShlo.s:22617  .debug_str:000000000001208b .LASF440
C:\Users\SOLDER~1\AppData\Local\Temp\cc0vShlo.s:28275  .debug_str:0000000000029361 .LASF441
C:\Users\SOLDER~1\AppData\Local\Temp\cc0vShlo.s:20989  .debug_str:000000000000b63b .LASF442
C:\Users\SOLDER~1\AppData\Local\Temp\cc0vShlo.s:25163  .debug_str:000000000001c712 .LASF443
C:\Users\SOLDER~1\AppData\Local\Temp\cc0vShlo.s:28819  .debug_str:000000000002b69f .LASF444
C:\Users\SOLDER~1\AppData\Local\Temp\cc0vShlo.s:22751  .debug_str:0000000000012938 .LASF445
C:\Users\SOLDER~1\AppData\Local\Temp\cc0vShlo.s:22173  .debug_str:0000000000010449 .LASF446
C:\Users\SOLDER~1\AppData\Local\Temp\cc0vShlo.s:25913  .debug_str:000000000001f85c .LASF447
C:\Users\SOLDER~1\AppData\Local\Temp\cc0vShlo.s:20345  .debug_str:0000000000008bb7 .LASF448
C:\Users\SOLDER~1\AppData\Local\Temp\cc0vShlo.s:25511  .debug_str:000000000001ddf1 .LASF449
C:\Users\SOLDER~1\AppData\Local\Temp\cc0vShlo.s:21841  .debug_str:000000000000ee77 .LASF450
C:\Users\SOLDER~1\AppData\Local\Temp\cc0vShlo.s:28243  .debug_str:0000000000029110 .LASF451
C:\Users\SOLDER~1\AppData\Local\Temp\cc0vShlo.s:22471  .debug_str:0000000000011751 .LASF452
C:\Users\SOLDER~1\AppData\Local\Temp\cc0vShlo.s:18923  .debug_str:0000000000002fcd .LASF453
C:\Users\SOLDER~1\AppData\Local\Temp\cc0vShlo.s:18517  .debug_str:000000000000157b .LASF454
C:\Users\SOLDER~1\AppData\Local\Temp\cc0vShlo.s:26617  .debug_str:0000000000022576 .LASF455
C:\Users\SOLDER~1\AppData\Local\Temp\cc0vShlo.s:27509  .debug_str:000000000002611b .LASF456
C:\Users\SOLDER~1\AppData\Local\Temp\cc0vShlo.s:21363  .debug_str:000000000000cf15 .LASF457
C:\Users\SOLDER~1\AppData\Local\Temp\cc0vShlo.s:21685  .debug_str:000000000000e46f .LASF458
C:\Users\SOLDER~1\AppData\Local\Temp\cc0vShlo.s:28143  .debug_str:0000000000028aa7 .LASF459
C:\Users\SOLDER~1\AppData\Local\Temp\cc0vShlo.s:29061  .debug_str:000000000002c65c .LASF460
C:\Users\SOLDER~1\AppData\Local\Temp\cc0vShlo.s:18503  .debug_str:0000000000001486 .LASF461
C:\Users\SOLDER~1\AppData\Local\Temp\cc0vShlo.s:20971  .debug_str:000000000000b525 .LASF462
C:\Users\SOLDER~1\AppData\Local\Temp\cc0vShlo.s:27469  .debug_str:0000000000025e31 .LASF463
C:\Users\SOLDER~1\AppData\Local\Temp\cc0vShlo.s:24853  .debug_str:000000000001b29a .LASF464
C:\Users\SOLDER~1\AppData\Local\Temp\cc0vShlo.s:27997  .debug_str:0000000000028138 .LASF465
C:\Users\SOLDER~1\AppData\Local\Temp\cc0vShlo.s:24043  .debug_str:0000000000017e86 .LASF466
C:\Users\SOLDER~1\AppData\Local\Temp\cc0vShlo.s:26413  .debug_str:000000000002189b .LASF467
C:\Users\SOLDER~1\AppData\Local\Temp\cc0vShlo.s:25069  .debug_str:000000000001c0b6 .LASF468
C:\Users\SOLDER~1\AppData\Local\Temp\cc0vShlo.s:18605  .debug_str:0000000000001b0e .LASF469
C:\Users\SOLDER~1\AppData\Local\Temp\cc0vShlo.s:21105  .debug_str:000000000000bdba .LASF470
C:\Users\SOLDER~1\AppData\Local\Temp\cc0vShlo.s:25993  .debug_str:000000000001fd4d .LASF471
C:\Users\SOLDER~1\AppData\Local\Temp\cc0vShlo.s:29313  .debug_str:000000000002d6c9 .LASF472
C:\Users\SOLDER~1\AppData\Local\Temp\cc0vShlo.s:29557  .debug_str:000000000002e6a4 .LASF473
C:\Users\SOLDER~1\AppData\Local\Temp\cc0vShlo.s:29409  .debug_str:000000000002dced .LASF474
C:\Users\SOLDER~1\AppData\Local\Temp\cc0vShlo.s:27501  .debug_str:0000000000026075 .LASF475
C:\Users\SOLDER~1\AppData\Local\Temp\cc0vShlo.s:20627  .debug_str:0000000000009e8b .LASF476
C:\Users\SOLDER~1\AppData\Local\Temp\cc0vShlo.s:24639  .debug_str:000000000001a4a0 .LASF477
C:\Users\SOLDER~1\AppData\Local\Temp\cc0vShlo.s:23729  .debug_str:0000000000016a19 .LASF478
C:\Users\SOLDER~1\AppData\Local\Temp\cc0vShlo.s:27605  .debug_str:0000000000026767 .LASF479
C:\Users\SOLDER~1\AppData\Local\Temp\cc0vShlo.s:29651  .debug_str:000000000002ec60 .LASF480
C:\Users\SOLDER~1\AppData\Local\Temp\cc0vShlo.s:26425  .debug_str:000000000002196b .LASF481
C:\Users\SOLDER~1\AppData\Local\Temp\cc0vShlo.s:27701  .debug_str:0000000000026de0 .LASF482
C:\Users\SOLDER~1\AppData\Local\Temp\cc0vShlo.s:21625  .debug_str:000000000000e07b .LASF483
C:\Users\SOLDER~1\AppData\Local\Temp\cc0vShlo.s:24793  .debug_str:000000000001aed5 .LASF484
C:\Users\SOLDER~1\AppData\Local\Temp\cc0vShlo.s:24707  .debug_str:000000000001a922 .LASF485
C:\Users\SOLDER~1\AppData\Local\Temp\cc0vShlo.s:27823  .debug_str:00000000000275ce .LASF486
C:\Users\SOLDER~1\AppData\Local\Temp\cc0vShlo.s:25261  .debug_str:000000000001cdc2 .LASF487
GAS LISTING C:\Users\SOLDER~1\AppData\Local\Temp\cc0vShlo.s 			page 19


C:\Users\SOLDER~1\AppData\Local\Temp\cc0vShlo.s:22101  .debug_str:000000000000ffbc .LASF488
C:\Users\SOLDER~1\AppData\Local\Temp\cc0vShlo.s:24203  .debug_str:00000000000188b3 .LASF489
C:\Users\SOLDER~1\AppData\Local\Temp\cc0vShlo.s:19409  .debug_str:0000000000004ec0 .LASF490
C:\Users\SOLDER~1\AppData\Local\Temp\cc0vShlo.s:22447  .debug_str:00000000000115d3 .LASF491
C:\Users\SOLDER~1\AppData\Local\Temp\cc0vShlo.s:21425  .debug_str:000000000000d34e .LASF492
C:\Users\SOLDER~1\AppData\Local\Temp\cc0vShlo.s:26731  .debug_str:0000000000022d1e .LASF494
C:\Users\SOLDER~1\AppData\Local\Temp\cc0vShlo.s:20509  .debug_str:00000000000096d1 .LASF495
C:\Users\SOLDER~1\AppData\Local\Temp\cc0vShlo.s:19503  .debug_str:0000000000005479 .LASF496
C:\Users\SOLDER~1\AppData\Local\Temp\cc0vShlo.s:25517  .debug_str:000000000001de4a .LASF497
C:\Users\SOLDER~1\AppData\Local\Temp\cc0vShlo.s:24857  .debug_str:000000000001b2d8 .LASF498
C:\Users\SOLDER~1\AppData\Local\Temp\cc0vShlo.s:24955  .debug_str:000000000001b918 .LASF499
C:\Users\SOLDER~1\AppData\Local\Temp\cc0vShlo.s:21689  .debug_str:000000000000e4b0 .LASF500
C:\Users\SOLDER~1\AppData\Local\Temp\cc0vShlo.s:19309  .debug_str:00000000000048b4 .LASF501
C:\Users\SOLDER~1\AppData\Local\Temp\cc0vShlo.s:22601  .debug_str:0000000000011f94 .LASF502
C:\Users\SOLDER~1\AppData\Local\Temp\cc0vShlo.s:27205  .debug_str:0000000000024c6b .LASF503
C:\Users\SOLDER~1\AppData\Local\Temp\cc0vShlo.s:23443  .debug_str:00000000000157f2 .LASF504
C:\Users\SOLDER~1\AppData\Local\Temp\cc0vShlo.s:18227  .debug_str:00000000000001a0 .LASF505
C:\Users\SOLDER~1\AppData\Local\Temp\cc0vShlo.s:21503  .debug_str:000000000000d859 .LASF506
C:\Users\SOLDER~1\AppData\Local\Temp\cc0vShlo.s:29373  .debug_str:000000000002daa0 .LASF507
C:\Users\SOLDER~1\AppData\Local\Temp\cc0vShlo.s:28313  .debug_str:00000000000295c2 .LASF508
C:\Users\SOLDER~1\AppData\Local\Temp\cc0vShlo.s:22979  .debug_str:0000000000013889 .LASF509
C:\Users\SOLDER~1\AppData\Local\Temp\cc0vShlo.s:23897  .debug_str:00000000000174e8 .LASF510
C:\Users\SOLDER~1\AppData\Local\Temp\cc0vShlo.s:23283  .debug_str:0000000000014d83 .LASF511
C:\Users\SOLDER~1\AppData\Local\Temp\cc0vShlo.s:24337  .debug_str:00000000000191ad .LASF512
C:\Users\SOLDER~1\AppData\Local\Temp\cc0vShlo.s:26155  .debug_str:00000000000207db .LASF513
C:\Users\SOLDER~1\AppData\Local\Temp\cc0vShlo.s:25183  .debug_str:000000000001c86d .LASF514
C:\Users\SOLDER~1\AppData\Local\Temp\cc0vShlo.s:20887  .debug_str:000000000000afca .LASF515
C:\Users\SOLDER~1\AppData\Local\Temp\cc0vShlo.s:28917  .debug_str:000000000002bd00 .LASF516
C:\Users\SOLDER~1\AppData\Local\Temp\cc0vShlo.s:25425  .debug_str:000000000001d819 .LASF517
C:\Users\SOLDER~1\AppData\Local\Temp\cc0vShlo.s:28789  .debug_str:000000000002b4ca .LASF518
C:\Users\SOLDER~1\AppData\Local\Temp\cc0vShlo.s:27397  .debug_str:0000000000025916 .LASF519
C:\Users\SOLDER~1\AppData\Local\Temp\cc0vShlo.s:24607  .debug_str:000000000001a2c8 .LASF520
C:\Users\SOLDER~1\AppData\Local\Temp\cc0vShlo.s:19727  .debug_str:0000000000006367 .LASF521
C:\Users\SOLDER~1\AppData\Local\Temp\cc0vShlo.s:26775  .debug_str:0000000000022fea .LASF522
C:\Users\SOLDER~1\AppData\Local\Temp\cc0vShlo.s:20669  .debug_str:000000000000a161 .LASF523
C:\Users\SOLDER~1\AppData\Local\Temp\cc0vShlo.s:18707  .debug_str:00000000000021d4 .LASF524
C:\Users\SOLDER~1\AppData\Local\Temp\cc0vShlo.s:25479  .debug_str:000000000001dbbf .LASF525
C:\Users\SOLDER~1\AppData\Local\Temp\cc0vShlo.s:21559  .debug_str:000000000000dbd4 .LASF526
C:\Users\SOLDER~1\AppData\Local\Temp\cc0vShlo.s:23299  .debug_str:0000000000014e7c .LASF527
C:\Users\SOLDER~1\AppData\Local\Temp\cc0vShlo.s:21599  .debug_str:000000000000de82 .LASF528
C:\Users\SOLDER~1\AppData\Local\Temp\cc0vShlo.s:20401  .debug_str:0000000000008f98 .LASF529
C:\Users\SOLDER~1\AppData\Local\Temp\cc0vShlo.s:20043  .debug_str:00000000000077e1 .LASF530
C:\Users\SOLDER~1\AppData\Local\Temp\cc0vShlo.s:21191  .debug_str:000000000000c3ae .LASF531
C:\Users\SOLDER~1\AppData\Local\Temp\cc0vShlo.s:27749  .debug_str:00000000000270f3 .LASF532
C:\Users\SOLDER~1\AppData\Local\Temp\cc0vShlo.s:29519  .debug_str:000000000002e3e5 .LASF533
C:\Users\SOLDER~1\AppData\Local\Temp\cc0vShlo.s:22623  .debug_str:00000000000120fb .LASF534
C:\Users\SOLDER~1\AppData\Local\Temp\cc0vShlo.s:28909  .debug_str:000000000002bc72 .LASF535
C:\Users\SOLDER~1\AppData\Local\Temp\cc0vShlo.s:25073  .debug_str:000000000001c108 .LASF536
C:\Users\SOLDER~1\AppData\Local\Temp\cc0vShlo.s:21511  .debug_str:000000000000d8cf .LASF537
C:\Users\SOLDER~1\AppData\Local\Temp\cc0vShlo.s:24851  .debug_str:000000000001b274 .LASF538
C:\Users\SOLDER~1\AppData\Local\Temp\cc0vShlo.s:19297  .debug_str:00000000000047e3 .LASF539
C:\Users\SOLDER~1\AppData\Local\Temp\cc0vShlo.s:26825  .debug_str:0000000000023367 .LASF540
C:\Users\SOLDER~1\AppData\Local\Temp\cc0vShlo.s:24897  .debug_str:000000000001b55a .LASF541
C:\Users\SOLDER~1\AppData\Local\Temp\cc0vShlo.s:29001  .debug_str:000000000002c297 .LASF542
C:\Users\SOLDER~1\AppData\Local\Temp\cc0vShlo.s:21013  .debug_str:000000000000b7c8 .LASF543
C:\Users\SOLDER~1\AppData\Local\Temp\cc0vShlo.s:27725  .debug_str:0000000000026f5c .LASF544
C:\Users\SOLDER~1\AppData\Local\Temp\cc0vShlo.s:26965  .debug_str:0000000000023c67 .LASF545
GAS LISTING C:\Users\SOLDER~1\AppData\Local\Temp\cc0vShlo.s 			page 20


C:\Users\SOLDER~1\AppData\Local\Temp\cc0vShlo.s:25743  .debug_str:000000000001ecea .LASF546
C:\Users\SOLDER~1\AppData\Local\Temp\cc0vShlo.s:27945  .debug_str:0000000000027dcf .LASF547
C:\Users\SOLDER~1\AppData\Local\Temp\cc0vShlo.s:25947  .debug_str:000000000001fa75 .LASF548
C:\Users\SOLDER~1\AppData\Local\Temp\cc0vShlo.s:24093  .debug_str:00000000000181c3 .LASF549
C:\Users\SOLDER~1\AppData\Local\Temp\cc0vShlo.s:22809  .debug_str:0000000000012d2e .LASF550
C:\Users\SOLDER~1\AppData\Local\Temp\cc0vShlo.s:26369  .debug_str:00000000000215aa .LASF551
C:\Users\SOLDER~1\AppData\Local\Temp\cc0vShlo.s:23045  .debug_str:0000000000013d59 .LASF552
C:\Users\SOLDER~1\AppData\Local\Temp\cc0vShlo.s:25617  .debug_str:000000000001e4b6 .LASF553
C:\Users\SOLDER~1\AppData\Local\Temp\cc0vShlo.s:23583  .debug_str:00000000000160f2 .LASF554
C:\Users\SOLDER~1\AppData\Local\Temp\cc0vShlo.s:18543  .debug_str:0000000000001721 .LASF555
C:\Users\SOLDER~1\AppData\Local\Temp\cc0vShlo.s:22343  .debug_str:0000000000010f14 .LASF556
C:\Users\SOLDER~1\AppData\Local\Temp\cc0vShlo.s:19689  .debug_str:00000000000060e3 .LASF557
C:\Users\SOLDER~1\AppData\Local\Temp\cc0vShlo.s:22243  .debug_str:00000000000108bb .LASF558
C:\Users\SOLDER~1\AppData\Local\Temp\cc0vShlo.s:22113  .debug_str:0000000000010054 .LASF559
C:\Users\SOLDER~1\AppData\Local\Temp\cc0vShlo.s:18631  .debug_str:0000000000001cf2 .LASF560
C:\Users\SOLDER~1\AppData\Local\Temp\cc0vShlo.s:27273  .debug_str:00000000000250c5 .LASF561
C:\Users\SOLDER~1\AppData\Local\Temp\cc0vShlo.s:29195  .debug_str:000000000002cf5d .LASF562
C:\Users\SOLDER~1\AppData\Local\Temp\cc0vShlo.s:29429  .debug_str:000000000002de1e .LASF563
C:\Users\SOLDER~1\AppData\Local\Temp\cc0vShlo.s:21583  .debug_str:000000000000dd69 .LASF564
C:\Users\SOLDER~1\AppData\Local\Temp\cc0vShlo.s:18451  .debug_str:000000000000112c .LASF565
C:\Users\SOLDER~1\AppData\Local\Temp\cc0vShlo.s:26877  .debug_str:00000000000236d0 .LASF566
C:\Users\SOLDER~1\AppData\Local\Temp\cc0vShlo.s:24781  .debug_str:000000000001ae33 .LASF567
C:\Users\SOLDER~1\AppData\Local\Temp\cc0vShlo.s:25011  .debug_str:000000000001bcb9 .LASF568
C:\Users\SOLDER~1\AppData\Local\Temp\cc0vShlo.s:18661  .debug_str:0000000000001ecc .LASF569
C:\Users\SOLDER~1\AppData\Local\Temp\cc0vShlo.s:23385  .debug_str:000000000001542c .LASF570
C:\Users\SOLDER~1\AppData\Local\Temp\cc0vShlo.s:27061  .debug_str:00000000000242c5 .LASF571
C:\Users\SOLDER~1\AppData\Local\Temp\cc0vShlo.s:21903  .debug_str:000000000000f260 .LASF572
C:\Users\SOLDER~1\AppData\Local\Temp\cc0vShlo.s:23823  .debug_str:0000000000016ff1 .LASF573
C:\Users\SOLDER~1\AppData\Local\Temp\cc0vShlo.s:21719  .debug_str:000000000000e689 .LASF574
C:\Users\SOLDER~1\AppData\Local\Temp\cc0vShlo.s:23717  .debug_str:0000000000016945 .LASF575
C:\Users\SOLDER~1\AppData\Local\Temp\cc0vShlo.s:22835  .debug_str:0000000000012ee6 .LASF576
C:\Users\SOLDER~1\AppData\Local\Temp\cc0vShlo.s:22797  .debug_str:0000000000012c68 .LASF577
C:\Users\SOLDER~1\AppData\Local\Temp\cc0vShlo.s:29269  .debug_str:000000000002d3f0 .LASF578
C:\Users\SOLDER~1\AppData\Local\Temp\cc0vShlo.s:24269  .debug_str:0000000000018d4e .LASF579
C:\Users\SOLDER~1\AppData\Local\Temp\cc0vShlo.s:27471  .debug_str:0000000000025e55 .LASF580
C:\Users\SOLDER~1\AppData\Local\Temp\cc0vShlo.s:19293  .debug_str:00000000000047a5 .LASF581
C:\Users\SOLDER~1\AppData\Local\Temp\cc0vShlo.s:22583  .debug_str:0000000000011e76 .LASF582
C:\Users\SOLDER~1\AppData\Local\Temp\cc0vShlo.s:25763  .debug_str:000000000001ee4b .LASF583
C:\Users\SOLDER~1\AppData\Local\Temp\cc0vShlo.s:29037  .debug_str:000000000002c4e8 .LASF584
C:\Users\SOLDER~1\AppData\Local\Temp\cc0vShlo.s:20835  .debug_str:000000000000ac48 .LASF585
C:\Users\SOLDER~1\AppData\Local\Temp\cc0vShlo.s:28577  .debug_str:000000000002a6df .LASF586
C:\Users\SOLDER~1\AppData\Local\Temp\cc0vShlo.s:27481  .debug_str:0000000000025f09 .LASF587
C:\Users\SOLDER~1\AppData\Local\Temp\cc0vShlo.s:22733  .debug_str:00000000000127ee .LASF588
C:\Users\SOLDER~1\AppData\Local\Temp\cc0vShlo.s:24637  .debug_str:000000000001a47f .LASF589
C:\Users\SOLDER~1\AppData\Local\Temp\cc0vShlo.s:26765  .debug_str:0000000000022f53 .LASF590
C:\Users\SOLDER~1\AppData\Local\Temp\cc0vShlo.s:23749  .debug_str:0000000000016b36 .LASF591
C:\Users\SOLDER~1\AppData\Local\Temp\cc0vShlo.s:28199  .debug_str:0000000000028e1d .LASF592
C:\Users\SOLDER~1\AppData\Local\Temp\cc0vShlo.s:25323  .debug_str:000000000001d206 .LASF593
C:\Users\SOLDER~1\AppData\Local\Temp\cc0vShlo.s:24041  .debug_str:0000000000017e4c .LASF594
C:\Users\SOLDER~1\AppData\Local\Temp\cc0vShlo.s:29363  .debug_str:000000000002d9e0 .LASF595
C:\Users\SOLDER~1\AppData\Local\Temp\cc0vShlo.s:20847  .debug_str:000000000000ad24 .LASF596
C:\Users\SOLDER~1\AppData\Local\Temp\cc0vShlo.s:28797  .debug_str:000000000002b535 .LASF597
C:\Users\SOLDER~1\AppData\Local\Temp\cc0vShlo.s:22773  .debug_str:0000000000012aa6 .LASF598
C:\Users\SOLDER~1\AppData\Local\Temp\cc0vShlo.s:28213  .debug_str:0000000000028f18 .LASF599
C:\Users\SOLDER~1\AppData\Local\Temp\cc0vShlo.s:22223  .debug_str:0000000000010745 .LASF600
C:\Users\SOLDER~1\AppData\Local\Temp\cc0vShlo.s:27527  .debug_str:000000000002625c .LASF601
C:\Users\SOLDER~1\AppData\Local\Temp\cc0vShlo.s:27631  .debug_str:0000000000026940 .LASF602
GAS LISTING C:\Users\SOLDER~1\AppData\Local\Temp\cc0vShlo.s 			page 21


C:\Users\SOLDER~1\AppData\Local\Temp\cc0vShlo.s:21587  .debug_str:000000000000ddae .LASF603
C:\Users\SOLDER~1\AppData\Local\Temp\cc0vShlo.s:21377  .debug_str:000000000000d023 .LASF604
C:\Users\SOLDER~1\AppData\Local\Temp\cc0vShlo.s:25403  .debug_str:000000000001d6ed .LASF605
C:\Users\SOLDER~1\AppData\Local\Temp\cc0vShlo.s:27305  .debug_str:00000000000252af .LASF606
C:\Users\SOLDER~1\AppData\Local\Temp\cc0vShlo.s:23829  .debug_str:000000000001705f .LASF607
C:\Users\SOLDER~1\AppData\Local\Temp\cc0vShlo.s:26519  .debug_str:0000000000021f3e .LASF608
C:\Users\SOLDER~1\AppData\Local\Temp\cc0vShlo.s:28881  .debug_str:000000000002ba98 .LASF609
C:\Users\SOLDER~1\AppData\Local\Temp\cc0vShlo.s:20483  .debug_str:0000000000009542 .LASF610
C:\Users\SOLDER~1\AppData\Local\Temp\cc0vShlo.s:22513  .debug_str:0000000000011a07 .LASF611
C:\Users\SOLDER~1\AppData\Local\Temp\cc0vShlo.s:22785  .debug_str:0000000000012b97 .LASF612
C:\Users\SOLDER~1\AppData\Local\Temp\cc0vShlo.s:25397  .debug_str:000000000001d698 .LASF613
C:\Users\SOLDER~1\AppData\Local\Temp\cc0vShlo.s:27591  .debug_str:000000000002668e .LASF614
C:\Users\SOLDER~1\AppData\Local\Temp\cc0vShlo.s:18673  .debug_str:0000000000001fad .LASF615
C:\Users\SOLDER~1\AppData\Local\Temp\cc0vShlo.s:23901  .debug_str:0000000000017531 .LASF616
C:\Users\SOLDER~1\AppData\Local\Temp\cc0vShlo.s:19527  .debug_str:00000000000055e3 .LASF617
C:\Users\SOLDER~1\AppData\Local\Temp\cc0vShlo.s:27841  .debug_str:00000000000276fb .LASF618
C:\Users\SOLDER~1\AppData\Local\Temp\cc0vShlo.s:18955  .debug_str:00000000000031e7 .LASF619
C:\Users\SOLDER~1\AppData\Local\Temp\cc0vShlo.s:25525  .debug_str:000000000001dec7 .LASF620
C:\Users\SOLDER~1\AppData\Local\Temp\cc0vShlo.s:19047  .debug_str:00000000000037f1 .LASF621
C:\Users\SOLDER~1\AppData\Local\Temp\cc0vShlo.s:23449  .debug_str:0000000000015863 .LASF622
C:\Users\SOLDER~1\AppData\Local\Temp\cc0vShlo.s:24509  .debug_str:0000000000019c80 .LASF623
C:\Users\SOLDER~1\AppData\Local\Temp\cc0vShlo.s:22389  .debug_str:00000000000111f9 .LASF624
C:\Users\SOLDER~1\AppData\Local\Temp\cc0vShlo.s:25083  .debug_str:000000000001c198 .LASF625
C:\Users\SOLDER~1\AppData\Local\Temp\cc0vShlo.s:19893  .debug_str:0000000000006e6f .LASF626
C:\Users\SOLDER~1\AppData\Local\Temp\cc0vShlo.s:19851  .debug_str:0000000000006b9e .LASF627
C:\Users\SOLDER~1\AppData\Local\Temp\cc0vShlo.s:24745  .debug_str:000000000001abe9 .LASF628
C:\Users\SOLDER~1\AppData\Local\Temp\cc0vShlo.s:21591  .debug_str:000000000000ddf8 .LASF629
C:\Users\SOLDER~1\AppData\Local\Temp\cc0vShlo.s:26015  .debug_str:000000000001fec5 .LASF630
C:\Users\SOLDER~1\AppData\Local\Temp\cc0vShlo.s:25005  .debug_str:000000000001bc60 .LASF631
C:\Users\SOLDER~1\AppData\Local\Temp\cc0vShlo.s:26003  .debug_str:000000000001fe00 .LASF632
C:\Users\SOLDER~1\AppData\Local\Temp\cc0vShlo.s:24475  .debug_str:0000000000019a83 .LASF633
C:\Users\SOLDER~1\AppData\Local\Temp\cc0vShlo.s:28031  .debug_str:000000000002836b .LASF634
C:\Users\SOLDER~1\AppData\Local\Temp\cc0vShlo.s:23249  .debug_str:0000000000014b55 .LASF635
C:\Users\SOLDER~1\AppData\Local\Temp\cc0vShlo.s:24969  .debug_str:000000000001b9fe .LASF636
C:\Users\SOLDER~1\AppData\Local\Temp\cc0vShlo.s:27109  .debug_str:000000000002460a .LASF637
C:\Users\SOLDER~1\AppData\Local\Temp\cc0vShlo.s:18643  .debug_str:0000000000001db3 .LASF638
C:\Users\SOLDER~1\AppData\Local\Temp\cc0vShlo.s:28889  .debug_str:000000000002bb2d .LASF639
C:\Users\SOLDER~1\AppData\Local\Temp\cc0vShlo.s:22837  .debug_str:0000000000012f04 .LASF640
C:\Users\SOLDER~1\AppData\Local\Temp\cc0vShlo.s:23851  .debug_str:00000000000171de .LASF641
C:\Users\SOLDER~1\AppData\Local\Temp\cc0vShlo.s:23761  .debug_str:0000000000016be2 .LASF642
C:\Users\SOLDER~1\AppData\Local\Temp\cc0vShlo.s:25101  .debug_str:000000000001c2ea .LASF643
C:\Users\SOLDER~1\AppData\Local\Temp\cc0vShlo.s:19757  .debug_str:0000000000006564 .LASF644
C:\Users\SOLDER~1\AppData\Local\Temp\cc0vShlo.s:27055  .debug_str:0000000000024267 .LASF645
C:\Users\SOLDER~1\AppData\Local\Temp\cc0vShlo.s:23811  .debug_str:0000000000016f1e .LASF646
C:\Users\SOLDER~1\AppData\Local\Temp\cc0vShlo.s:21727  .debug_str:000000000000e70c .LASF647
C:\Users\SOLDER~1\AppData\Local\Temp\cc0vShlo.s:23243  .debug_str:0000000000014adb .LASF648
C:\Users\SOLDER~1\AppData\Local\Temp\cc0vShlo.s:21811  .debug_str:000000000000ec82 .LASF649
C:\Users\SOLDER~1\AppData\Local\Temp\cc0vShlo.s:28381  .debug_str:0000000000029a03 .LASF650
C:\Users\SOLDER~1\AppData\Local\Temp\cc0vShlo.s:24645  .debug_str:000000000001a4f7 .LASF651
C:\Users\SOLDER~1\AppData\Local\Temp\cc0vShlo.s:20339  .debug_str:0000000000008b5e .LASF652
C:\Users\SOLDER~1\AppData\Local\Temp\cc0vShlo.s:24257  .debug_str:0000000000018c6f .LASF653
C:\Users\SOLDER~1\AppData\Local\Temp\cc0vShlo.s:23561  .debug_str:0000000000015f86 .LASF654
C:\Users\SOLDER~1\AppData\Local\Temp\cc0vShlo.s:29383  .debug_str:000000000002db44 .LASF655
C:\Users\SOLDER~1\AppData\Local\Temp\cc0vShlo.s:24303  .debug_str:0000000000018f8a .LASF656
C:\Users\SOLDER~1\AppData\Local\Temp\cc0vShlo.s:28655  .debug_str:000000000002ac00 .LASF657
C:\Users\SOLDER~1\AppData\Local\Temp\cc0vShlo.s:28029  .debug_str:000000000002834a .LASF658
C:\Users\SOLDER~1\AppData\Local\Temp\cc0vShlo.s:26827  .debug_str:000000000002338c .LASF659
GAS LISTING C:\Users\SOLDER~1\AppData\Local\Temp\cc0vShlo.s 			page 22


C:\Users\SOLDER~1\AppData\Local\Temp\cc0vShlo.s:26857  .debug_str:00000000000235a0 .LASF660
C:\Users\SOLDER~1\AppData\Local\Temp\cc0vShlo.s:29043  .debug_str:000000000002c55f .LASF661
C:\Users\SOLDER~1\AppData\Local\Temp\cc0vShlo.s:21601  .debug_str:000000000000dea6 .LASF662
C:\Users\SOLDER~1\AppData\Local\Temp\cc0vShlo.s:20919  .debug_str:000000000000b1b2 .LASF663
C:\Users\SOLDER~1\AppData\Local\Temp\cc0vShlo.s:28331  .debug_str:00000000000296d5 .LASF664
C:\Users\SOLDER~1\AppData\Local\Temp\cc0vShlo.s:25547  .debug_str:000000000001e040 .LASF665
C:\Users\SOLDER~1\AppData\Local\Temp\cc0vShlo.s:25817  .debug_str:000000000001f1f8 .LASF666
C:\Users\SOLDER~1\AppData\Local\Temp\cc0vShlo.s:25833  .debug_str:000000000001f31c .LASF667
C:\Users\SOLDER~1\AppData\Local\Temp\cc0vShlo.s:19813  .debug_str:0000000000006953 .LASF668
C:\Users\SOLDER~1\AppData\Local\Temp\cc0vShlo.s:26893  .debug_str:00000000000237d5 .LASF669
C:\Users\SOLDER~1\AppData\Local\Temp\cc0vShlo.s:27901  .debug_str:0000000000027ae1 .LASF670
C:\Users\SOLDER~1\AppData\Local\Temp\cc0vShlo.s:29351  .debug_str:000000000002d930 .LASF671
C:\Users\SOLDER~1\AppData\Local\Temp\cc0vShlo.s:28647  .debug_str:000000000002ab86 .LASF672
C:\Users\SOLDER~1\AppData\Local\Temp\cc0vShlo.s:24941  .debug_str:000000000001b810 .LASF673
C:\Users\SOLDER~1\AppData\Local\Temp\cc0vShlo.s:21111  .debug_str:000000000000be27 .LASF674
C:\Users\SOLDER~1\AppData\Local\Temp\cc0vShlo.s:19081  .debug_str:0000000000003a21 .LASF675
C:\Users\SOLDER~1\AppData\Local\Temp\cc0vShlo.s:22251  .debug_str:000000000001093c .LASF676
C:\Users\SOLDER~1\AppData\Local\Temp\cc0vShlo.s:24651  .debug_str:000000000001a567 .LASF677
C:\Users\SOLDER~1\AppData\Local\Temp\cc0vShlo.s:27705  .debug_str:0000000000026e12 .LASF678
C:\Users\SOLDER~1\AppData\Local\Temp\cc0vShlo.s:28969  .debug_str:000000000002c0a5 .LASF679
C:\Users\SOLDER~1\AppData\Local\Temp\cc0vShlo.s:23977  .debug_str:0000000000017a12 .LASF680
C:\Users\SOLDER~1\AppData\Local\Temp\cc0vShlo.s:25469  .debug_str:000000000001db01 .LASF681
C:\Users\SOLDER~1\AppData\Local\Temp\cc0vShlo.s:22787  .debug_str:0000000000012baf .LASF682
C:\Users\SOLDER~1\AppData\Local\Temp\cc0vShlo.s:23697  .debug_str:00000000000167fd .LASF683
C:\Users\SOLDER~1\AppData\Local\Temp\cc0vShlo.s:20289  .debug_str:0000000000008815 .LASF684
C:\Users\SOLDER~1\AppData\Local\Temp\cc0vShlo.s:25245  .debug_str:000000000001ccbd .LASF685
C:\Users\SOLDER~1\AppData\Local\Temp\cc0vShlo.s:25779  .debug_str:000000000001ef62 .LASF686
C:\Users\SOLDER~1\AppData\Local\Temp\cc0vShlo.s:18607  .debug_str:0000000000001b32 .LASF687
C:\Users\SOLDER~1\AppData\Local\Temp\cc0vShlo.s:25559  .debug_str:000000000001e0f2 .LASF688
C:\Users\SOLDER~1\AppData\Local\Temp\cc0vShlo.s:28855  .debug_str:000000000002b8e7 .LASF689
C:\Users\SOLDER~1\AppData\Local\Temp\cc0vShlo.s:18231  .debug_str:00000000000001d2 .LASF690
C:\Users\SOLDER~1\AppData\Local\Temp\cc0vShlo.s:26037  .debug_str:0000000000020020 .LASF691
C:\Users\SOLDER~1\AppData\Local\Temp\cc0vShlo.s:25989  .debug_str:000000000001fd07 .LASF692
C:\Users\SOLDER~1\AppData\Local\Temp\cc0vShlo.s:20387  .debug_str:0000000000008ea5 .LASF693
C:\Users\SOLDER~1\AppData\Local\Temp\cc0vShlo.s:25745  .debug_str:000000000001ed17 .LASF694
C:\Users\SOLDER~1\AppData\Local\Temp\cc0vShlo.s:20371  .debug_str:0000000000008d84 .LASF695
C:\Users\SOLDER~1\AppData\Local\Temp\cc0vShlo.s:25255  .debug_str:000000000001cd6b .LASF696
C:\Users\SOLDER~1\AppData\Local\Temp\cc0vShlo.s:27891  .debug_str:0000000000027a1e .LASF697
C:\Users\SOLDER~1\AppData\Local\Temp\cc0vShlo.s:28667  .debug_str:000000000002aca4 .LASF698
C:\Users\SOLDER~1\AppData\Local\Temp\cc0vShlo.s:21745  .debug_str:000000000000e86c .LASF699
C:\Users\SOLDER~1\AppData\Local\Temp\cc0vShlo.s:29353  .debug_str:000000000002d946 .LASF700
C:\Users\SOLDER~1\AppData\Local\Temp\cc0vShlo.s:24507  .debug_str:0000000000019c6d .LASF701
C:\Users\SOLDER~1\AppData\Local\Temp\cc0vShlo.s:19017  .debug_str:00000000000035f3 .LASF702
C:\Users\SOLDER~1\AppData\Local\Temp\cc0vShlo.s:26967  .debug_str:0000000000023c94 .LASF703
C:\Users\SOLDER~1\AppData\Local\Temp\cc0vShlo.s:24973  .debug_str:000000000001ba29 .LASF704
C:\Users\SOLDER~1\AppData\Local\Temp\cc0vShlo.s:27943  .debug_str:0000000000027dac .LASF705
C:\Users\SOLDER~1\AppData\Local\Temp\cc0vShlo.s:23733  .debug_str:0000000000016a5d .LASF706
C:\Users\SOLDER~1\AppData\Local\Temp\cc0vShlo.s:21065  .debug_str:000000000000bb5f .LASF707
C:\Users\SOLDER~1\AppData\Local\Temp\cc0vShlo.s:26565  .debug_str:00000000000221f0 .LASF708
C:\Users\SOLDER~1\AppData\Local\Temp\cc0vShlo.s:26031  .debug_str:000000000001ffb7 .LASF709
C:\Users\SOLDER~1\AppData\Local\Temp\cc0vShlo.s:19033  .debug_str:00000000000036ef .LASF710
C:\Users\SOLDER~1\AppData\Local\Temp\cc0vShlo.s:27435  .debug_str:0000000000025bd1 .LASF711
C:\Users\SOLDER~1\AppData\Local\Temp\cc0vShlo.s:26757  .debug_str:0000000000022ec8 .LASF712
C:\Users\SOLDER~1\AppData\Local\Temp\cc0vShlo.s:20149  .debug_str:0000000000007f03 .LASF713
C:\Users\SOLDER~1\AppData\Local\Temp\cc0vShlo.s:27783  .debug_str:0000000000027332 .LASF714
C:\Users\SOLDER~1\AppData\Local\Temp\cc0vShlo.s:25761  .debug_str:000000000001ee28 .LASF715
C:\Users\SOLDER~1\AppData\Local\Temp\cc0vShlo.s:18845  .debug_str:0000000000002adb .LASF716
GAS LISTING C:\Users\SOLDER~1\AppData\Local\Temp\cc0vShlo.s 			page 23


C:\Users\SOLDER~1\AppData\Local\Temp\cc0vShlo.s:22275  .debug_str:0000000000010a9d .LASF717
C:\Users\SOLDER~1\AppData\Local\Temp\cc0vShlo.s:29393  .debug_str:000000000002dbf1 .LASF718
C:\Users\SOLDER~1\AppData\Local\Temp\cc0vShlo.s:24679  .debug_str:000000000001a770 .LASF719
C:\Users\SOLDER~1\AppData\Local\Temp\cc0vShlo.s:22701  .debug_str:00000000000125fe .LASF720
C:\Users\SOLDER~1\AppData\Local\Temp\cc0vShlo.s:26307  .debug_str:00000000000211d1 .LASF721
C:\Users\SOLDER~1\AppData\Local\Temp\cc0vShlo.s:24477  .debug_str:0000000000019aa5 .LASF722
C:\Users\SOLDER~1\AppData\Local\Temp\cc0vShlo.s:26351  .debug_str:0000000000021499 .LASF723
C:\Users\SOLDER~1\AppData\Local\Temp\cc0vShlo.s:23625  .debug_str:0000000000016390 .LASF724
C:\Users\SOLDER~1\AppData\Local\Temp\cc0vShlo.s:22873  .debug_str:0000000000013156 .LASF725
C:\Users\SOLDER~1\AppData\Local\Temp\cc0vShlo.s:28547  .debug_str:000000000002a540 .LASF726
C:\Users\SOLDER~1\AppData\Local\Temp\cc0vShlo.s:23055  .debug_str:0000000000013e0e .LASF727
C:\Users\SOLDER~1\AppData\Local\Temp\cc0vShlo.s:18367  .debug_str:0000000000000bc4 .LASF728
C:\Users\SOLDER~1\AppData\Local\Temp\cc0vShlo.s:21499  .debug_str:000000000000d811 .LASF729
C:\Users\SOLDER~1\AppData\Local\Temp\cc0vShlo.s:24333  .debug_str:0000000000019165 .LASF730
C:\Users\SOLDER~1\AppData\Local\Temp\cc0vShlo.s:24923  .debug_str:000000000001b6e2 .LASF731
C:\Users\SOLDER~1\AppData\Local\Temp\cc0vShlo.s:19979  .debug_str:0000000000007426 .LASF732
C:\Users\SOLDER~1\AppData\Local\Temp\cc0vShlo.s:20589  .debug_str:0000000000009bee .LASF733
C:\Users\SOLDER~1\AppData\Local\Temp\cc0vShlo.s:26549  .debug_str:00000000000220de .LASF734
C:\Users\SOLDER~1\AppData\Local\Temp\cc0vShlo.s:26481  .debug_str:0000000000021ceb .LASF735
C:\Users\SOLDER~1\AppData\Local\Temp\cc0vShlo.s:24171  .debug_str:00000000000186b5 .LASF736
C:\Users\SOLDER~1\AppData\Local\Temp\cc0vShlo.s:21059  .debug_str:000000000000baea .LASF737
C:\Users\SOLDER~1\AppData\Local\Temp\cc0vShlo.s:29523  .debug_str:000000000002e427 .LASF738
C:\Users\SOLDER~1\AppData\Local\Temp\cc0vShlo.s:21287  .debug_str:000000000000ca1a .LASF739
C:\Users\SOLDER~1\AppData\Local\Temp\cc0vShlo.s:18709  .debug_str:00000000000021fa .LASF740
C:\Users\SOLDER~1\AppData\Local\Temp\cc0vShlo.s:23357  .debug_str:000000000001524b .LASF741
C:\Users\SOLDER~1\AppData\Local\Temp\cc0vShlo.s:21047  .debug_str:000000000000ba0e .LASF742
C:\Users\SOLDER~1\AppData\Local\Temp\cc0vShlo.s:27817  .debug_str:0000000000027571 .LASF743
C:\Users\SOLDER~1\AppData\Local\Temp\cc0vShlo.s:24495  .debug_str:0000000000019bc4 .LASF744
C:\Users\SOLDER~1\AppData\Local\Temp\cc0vShlo.s:22643  .debug_str:0000000000012231 .LASF745
C:\Users\SOLDER~1\AppData\Local\Temp\cc0vShlo.s:25909  .debug_str:000000000001f81f .LASF746
C:\Users\SOLDER~1\AppData\Local\Temp\cc0vShlo.s:26475  .debug_str:0000000000021c85 .LASF747
C:\Users\SOLDER~1\AppData\Local\Temp\cc0vShlo.s:27403  .debug_str:0000000000025984 .LASF748
C:\Users\SOLDER~1\AppData\Local\Temp\cc0vShlo.s:26845  .debug_str:00000000000234ce .LASF749
C:\Users\SOLDER~1\AppData\Local\Temp\cc0vShlo.s:19877  .debug_str:0000000000006d36 .LASF750
C:\Users\SOLDER~1\AppData\Local\Temp\cc0vShlo.s:19371  .debug_str:0000000000004c9d .LASF751
C:\Users\SOLDER~1\AppData\Local\Temp\cc0vShlo.s:20757  .debug_str:000000000000a76b .LASF752
C:\Users\SOLDER~1\AppData\Local\Temp\cc0vShlo.s:20965  .debug_str:000000000000b4c7 .LASF753
C:\Users\SOLDER~1\AppData\Local\Temp\cc0vShlo.s:28633  .debug_str:000000000002aaa6 .LASF754
C:\Users\SOLDER~1\AppData\Local\Temp\cc0vShlo.s:26561  .debug_str:00000000000221b5 .LASF755
C:\Users\SOLDER~1\AppData\Local\Temp\cc0vShlo.s:18855  .debug_str:0000000000002b4e .LASF756
C:\Users\SOLDER~1\AppData\Local\Temp\cc0vShlo.s:27847  .debug_str:000000000002774c .LASF757
C:\Users\SOLDER~1\AppData\Local\Temp\cc0vShlo.s:18741  .debug_str:0000000000002421 .LASF758
C:\Users\SOLDER~1\AppData\Local\Temp\cc0vShlo.s:24425  .debug_str:0000000000019745 .LASF759
C:\Users\SOLDER~1\AppData\Local\Temp\cc0vShlo.s:23563  .debug_str:0000000000015fab .LASF760
C:\Users\SOLDER~1\AppData\Local\Temp\cc0vShlo.s:18267  .debug_str:0000000000000450 .LASF761
C:\Users\SOLDER~1\AppData\Local\Temp\cc0vShlo.s:18449  .debug_str:000000000000110c .LASF762
C:\Users\SOLDER~1\AppData\Local\Temp\cc0vShlo.s:26945  .debug_str:0000000000023b1e .LASF763
C:\Users\SOLDER~1\AppData\Local\Temp\cc0vShlo.s:27247  .debug_str:0000000000024f1d .LASF764
C:\Users\SOLDER~1\AppData\Local\Temp\cc0vShlo.s:19643  .debug_str:0000000000005da7 .LASF765
C:\Users\SOLDER~1\AppData\Local\Temp\cc0vShlo.s:20455  .debug_str:0000000000009347 .LASF766
C:\Users\SOLDER~1\AppData\Local\Temp\cc0vShlo.s:28385  .debug_str:0000000000029a44 .LASF767
C:\Users\SOLDER~1\AppData\Local\Temp\cc0vShlo.s:18395  .debug_str:0000000000000dc4 .LASF768
C:\Users\SOLDER~1\AppData\Local\Temp\cc0vShlo.s:23153  .debug_str:00000000000144ce .LASF769
C:\Users\SOLDER~1\AppData\Local\Temp\cc0vShlo.s:25123  .debug_str:000000000001c448 .LASF770
C:\Users\SOLDER~1\AppData\Local\Temp\cc0vShlo.s:19933  .debug_str:0000000000007138 .LASF771
C:\Users\SOLDER~1\AppData\Local\Temp\cc0vShlo.s:19617  .debug_str:0000000000005bff .LASF772
C:\Users\SOLDER~1\AppData\Local\Temp\cc0vShlo.s:21163  .debug_str:000000000000c1a1 .LASF773
GAS LISTING C:\Users\SOLDER~1\AppData\Local\Temp\cc0vShlo.s 			page 24


C:\Users\SOLDER~1\AppData\Local\Temp\cc0vShlo.s:18759  .debug_str:0000000000002558 .LASF774
C:\Users\SOLDER~1\AppData\Local\Temp\cc0vShlo.s:19411  .debug_str:0000000000004eda .LASF775
C:\Users\SOLDER~1\AppData\Local\Temp\cc0vShlo.s:19393  .debug_str:0000000000004deb .LASF776
C:\Users\SOLDER~1\AppData\Local\Temp\cc0vShlo.s:19665  .debug_str:0000000000005f08 .LASF777
C:\Users\SOLDER~1\AppData\Local\Temp\cc0vShlo.s:28537  .debug_str:000000000002a4a0 .LASF778
C:\Users\SOLDER~1\AppData\Local\Temp\cc0vShlo.s:25347  .debug_str:000000000001d396 .LASF779
C:\Users\SOLDER~1\AppData\Local\Temp\cc0vShlo.s:24487  .debug_str:0000000000019b3e .LASF780
C:\Users\SOLDER~1\AppData\Local\Temp\cc0vShlo.s:26317  .debug_str:0000000000021267 .LASF781
C:\Users\SOLDER~1\AppData\Local\Temp\cc0vShlo.s:20241  .debug_str:000000000000850d .LASF782
C:\Users\SOLDER~1\AppData\Local\Temp\cc0vShlo.s:29663  .debug_str:000000000002ed35 .LASF783
C:\Users\SOLDER~1\AppData\Local\Temp\cc0vShlo.s:18603  .debug_str:0000000000001aee .LASF784
C:\Users\SOLDER~1\AppData\Local\Temp\cc0vShlo.s:21461  .debug_str:000000000000d58b .LASF785
C:\Users\SOLDER~1\AppData\Local\Temp\cc0vShlo.s:19929  .debug_str:00000000000070f9 .LASF786
C:\Users\SOLDER~1\AppData\Local\Temp\cc0vShlo.s:24783  .debug_str:000000000001ae54 .LASF787
C:\Users\SOLDER~1\AppData\Local\Temp\cc0vShlo.s:26753  .debug_str:0000000000022e87 .LASF788
C:\Users\SOLDER~1\AppData\Local\Temp\cc0vShlo.s:23979  .debug_str:0000000000017a36 .LASF789
C:\Users\SOLDER~1\AppData\Local\Temp\cc0vShlo.s:29325  .debug_str:000000000002d779 .LASF790
C:\Users\SOLDER~1\AppData\Local\Temp\cc0vShlo.s:24309  .debug_str:0000000000018ff7 .LASF791
C:\Users\SOLDER~1\AppData\Local\Temp\cc0vShlo.s:26515  .debug_str:0000000000021f02 .LASF792
C:\Users\SOLDER~1\AppData\Local\Temp\cc0vShlo.s:22449  .debug_str:00000000000115ed .LASF793
C:\Users\SOLDER~1\AppData\Local\Temp\cc0vShlo.s:27475  .debug_str:0000000000025e9b .LASF794
C:\Users\SOLDER~1\AppData\Local\Temp\cc0vShlo.s:27905  .debug_str:0000000000027b2b .LASF795
C:\Users\SOLDER~1\AppData\Local\Temp\cc0vShlo.s:21137  .debug_str:000000000000bfea .LASF796
C:\Users\SOLDER~1\AppData\Local\Temp\cc0vShlo.s:27937  .debug_str:0000000000027d53 .LASF797
C:\Users\SOLDER~1\AppData\Local\Temp\cc0vShlo.s:23345  .debug_str:000000000001518a .LASF798
C:\Users\SOLDER~1\AppData\Local\Temp\cc0vShlo.s:23311  .debug_str:0000000000014f1e .LASF799
C:\Users\SOLDER~1\AppData\Local\Temp\cc0vShlo.s:22765  .debug_str:0000000000012a26 .LASF800
C:\Users\SOLDER~1\AppData\Local\Temp\cc0vShlo.s:21197  .debug_str:000000000000c414 .LASF801
C:\Users\SOLDER~1\AppData\Local\Temp\cc0vShlo.s:25813  .debug_str:000000000001f1b4 .LASF802
C:\Users\SOLDER~1\AppData\Local\Temp\cc0vShlo.s:29613  .debug_str:000000000002ea1d .LASF803
C:\Users\SOLDER~1\AppData\Local\Temp\cc0vShlo.s:29359  .debug_str:000000000002d99c .LASF804
C:\Users\SOLDER~1\AppData\Local\Temp\cc0vShlo.s:27583  .debug_str:0000000000026607 .LASF805
C:\Users\SOLDER~1\AppData\Local\Temp\cc0vShlo.s:18809  .debug_str:00000000000028ad .LASF806
C:\Users\SOLDER~1\AppData\Local\Temp\cc0vShlo.s:27645  .debug_str:0000000000026a39 .LASF807
C:\Users\SOLDER~1\AppData\Local\Temp\cc0vShlo.s:27867  .debug_str:000000000002786d .LASF808
C:\Users\SOLDER~1\AppData\Local\Temp\cc0vShlo.s:19809  .debug_str:0000000000006911 .LASF809
C:\Users\SOLDER~1\AppData\Local\Temp\cc0vShlo.s:24549  .debug_str:0000000000019f0d .LASF810
C:\Users\SOLDER~1\AppData\Local\Temp\cc0vShlo.s:23613  .debug_str:00000000000162e6 .LASF811
C:\Users\SOLDER~1\AppData\Local\Temp\cc0vShlo.s:19781  .debug_str:00000000000066ff .LASF812
C:\Users\SOLDER~1\AppData\Local\Temp\cc0vShlo.s:29213  .debug_str:000000000002d071 .LASF813
C:\Users\SOLDER~1\AppData\Local\Temp\cc0vShlo.s:28247  .debug_str:0000000000029174 .LASF814
C:\Users\SOLDER~1\AppData\Local\Temp\cc0vShlo.s:19589  .debug_str:0000000000005a3c .LASF815
C:\Users\SOLDER~1\AppData\Local\Temp\cc0vShlo.s:28885  .debug_str:000000000002bae6 .LASF816
C:\Users\SOLDER~1\AppData\Local\Temp\cc0vShlo.s:27767  .debug_str:0000000000027231 .LASF817
C:\Users\SOLDER~1\AppData\Local\Temp\cc0vShlo.s:25823  .debug_str:000000000001f267 .LASF818
C:\Users\SOLDER~1\AppData\Local\Temp\cc0vShlo.s:27517  .debug_str:00000000000261a2 .LASF819
C:\Users\SOLDER~1\AppData\Local\Temp\cc0vShlo.s:24611  .debug_str:000000000001a30e .LASF820
C:\Users\SOLDER~1\AppData\Local\Temp\cc0vShlo.s:21331  .debug_str:000000000000cd1e .LASF821
C:\Users\SOLDER~1\AppData\Local\Temp\cc0vShlo.s:26625  .debug_str:0000000000022608 .LASF822
C:\Users\SOLDER~1\AppData\Local\Temp\cc0vShlo.s:20531  .debug_str:000000000000983a .LASF823
C:\Users\SOLDER~1\AppData\Local\Temp\cc0vShlo.s:25429  .debug_str:000000000001d861 .LASF824
C:\Users\SOLDER~1\AppData\Local\Temp\cc0vShlo.s:21799  .debug_str:000000000000eba3 .LASF825
C:\Users\SOLDER~1\AppData\Local\Temp\cc0vShlo.s:25197  .debug_str:000000000001c971 .LASF826
C:\Users\SOLDER~1\AppData\Local\Temp\cc0vShlo.s:27813  .debug_str:000000000002753d .LASF827
C:\Users\SOLDER~1\AppData\Local\Temp\cc0vShlo.s:24047  .debug_str:0000000000017ecd .LASF828
C:\Users\SOLDER~1\AppData\Local\Temp\cc0vShlo.s:21361  .debug_str:000000000000cef4 .LASF829
C:\Users\SOLDER~1\AppData\Local\Temp\cc0vShlo.s:27333  .debug_str:000000000002549e .LASF830
GAS LISTING C:\Users\SOLDER~1\AppData\Local\Temp\cc0vShlo.s 			page 25


C:\Users\SOLDER~1\AppData\Local\Temp\cc0vShlo.s:21981  .debug_str:000000000000f76c .LASF831
C:\Users\SOLDER~1\AppData\Local\Temp\cc0vShlo.s:28239  .debug_str:00000000000290d6 .LASF832
C:\Users\SOLDER~1\AppData\Local\Temp\cc0vShlo.s:20451  .debug_str:0000000000009301 .LASF833
C:\Users\SOLDER~1\AppData\Local\Temp\cc0vShlo.s:28133  .debug_str:0000000000028a0a .LASF834
C:\Users\SOLDER~1\AppData\Local\Temp\cc0vShlo.s:29091  .debug_str:000000000002c844 .LASF835
C:\Users\SOLDER~1\AppData\Local\Temp\cc0vShlo.s:19149  .debug_str:0000000000003e86 .LASF836
C:\Users\SOLDER~1\AppData\Local\Temp\cc0vShlo.s:26135  .debug_str:0000000000020684 .LASF837
C:\Users\SOLDER~1\AppData\Local\Temp\cc0vShlo.s:18825  .debug_str:00000000000029a4 .LASF838
C:\Users\SOLDER~1\AppData\Local\Temp\cc0vShlo.s:21049  .debug_str:000000000000ba2e .LASF839
C:\Users\SOLDER~1\AppData\Local\Temp\cc0vShlo.s:19513  .debug_str:00000000000054fe .LASF840
C:\Users\SOLDER~1\AppData\Local\Temp\cc0vShlo.s:22393  .debug_str:000000000001123e .LASF841
C:\Users\SOLDER~1\AppData\Local\Temp\cc0vShlo.s:22377  .debug_str:000000000001112a .LASF842
C:\Users\SOLDER~1\AppData\Local\Temp\cc0vShlo.s:24981  .debug_str:000000000001baac .LASF843
C:\Users\SOLDER~1\AppData\Local\Temp\cc0vShlo.s:29451  .debug_str:000000000002df8c .LASF844
C:\Users\SOLDER~1\AppData\Local\Temp\cc0vShlo.s:28487  .debug_str:000000000002a154 .LASF845
C:\Users\SOLDER~1\AppData\Local\Temp\cc0vShlo.s:24615  .debug_str:000000000001a33e .LASF846
C:\Users\SOLDER~1\AppData\Local\Temp\cc0vShlo.s:22563  .debug_str:0000000000011d24 .LASF847
C:\Users\SOLDER~1\AppData\Local\Temp\cc0vShlo.s:18565  .debug_str:0000000000001868 .LASF848
C:\Users\SOLDER~1\AppData\Local\Temp\cc0vShlo.s:25611  .debug_str:000000000001e441 .LASF849
C:\Users\SOLDER~1\AppData\Local\Temp\cc0vShlo.s:28571  .debug_str:000000000002a690 .LASF850
C:\Users\SOLDER~1\AppData\Local\Temp\cc0vShlo.s:19485  .debug_str:0000000000005362 .LASF851
C:\Users\SOLDER~1\AppData\Local\Temp\cc0vShlo.s:21891  .debug_str:000000000000f171 .LASF852
C:\Users\SOLDER~1\AppData\Local\Temp\cc0vShlo.s:23559  .debug_str:0000000000015f64 .LASF853
C:\Users\SOLDER~1\AppData\Local\Temp\cc0vShlo.s:20741  .debug_str:000000000000a64e .LASF854
C:\Users\SOLDER~1\AppData\Local\Temp\cc0vShlo.s:21779  .debug_str:000000000000ea60 .LASF855
C:\Users\SOLDER~1\AppData\Local\Temp\cc0vShlo.s:25717  .debug_str:000000000001eb55 .LASF856
C:\Users\SOLDER~1\AppData\Local\Temp\cc0vShlo.s:21813  .debug_str:000000000000ec98 .LASF857
C:\Users\SOLDER~1\AppData\Local\Temp\cc0vShlo.s:26603  .debug_str:00000000000224a4 .LASF858
C:\Users\SOLDER~1\AppData\Local\Temp\cc0vShlo.s:19115  .debug_str:0000000000003c52 .LASF859
C:\Users\SOLDER~1\AppData\Local\Temp\cc0vShlo.s:21107  .debug_str:000000000000bde0 .LASF860
C:\Users\SOLDER~1\AppData\Local\Temp\cc0vShlo.s:26471  .debug_str:0000000000021c4a .LASF861
C:\Users\SOLDER~1\AppData\Local\Temp\cc0vShlo.s:22375  .debug_str:0000000000011117 .LASF862
C:\Users\SOLDER~1\AppData\Local\Temp\cc0vShlo.s:24687  .debug_str:000000000001a7e4 .LASF863
C:\Users\SOLDER~1\AppData\Local\Temp\cc0vShlo.s:25889  .debug_str:000000000001f6e2 .LASF864
C:\Users\SOLDER~1\AppData\Local\Temp\cc0vShlo.s:26517  .debug_str:0000000000021f1c .LASF865
C:\Users\SOLDER~1\AppData\Local\Temp\cc0vShlo.s:22183  .debug_str:00000000000104db .LASF866
C:\Users\SOLDER~1\AppData\Local\Temp\cc0vShlo.s:18999  .debug_str:00000000000034da .LASF867
C:\Users\SOLDER~1\AppData\Local\Temp\cc0vShlo.s:29489  .debug_str:000000000002e1e3 .LASF868
C:\Users\SOLDER~1\AppData\Local\Temp\cc0vShlo.s:19421  .debug_str:0000000000004f8f .LASF869
C:\Users\SOLDER~1\AppData\Local\Temp\cc0vShlo.s:23051  .debug_str:0000000000013dc2 .LASF870
C:\Users\SOLDER~1\AppData\Local\Temp\cc0vShlo.s:28997  .debug_str:000000000002c260 .LASF871
C:\Users\SOLDER~1\AppData\Local\Temp\cc0vShlo.s:23539  .debug_str:0000000000015e0a .LASF872
C:\Users\SOLDER~1\AppData\Local\Temp\cc0vShlo.s:29607  .debug_str:000000000002e9ca .LASF873
C:\Users\SOLDER~1\AppData\Local\Temp\cc0vShlo.s:25049  .debug_str:000000000001bf31 .LASF874
C:\Users\SOLDER~1\AppData\Local\Temp\cc0vShlo.s:24315  .debug_str:000000000001903b .LASF875
C:\Users\SOLDER~1\AppData\Local\Temp\cc0vShlo.s:19741  .debug_str:000000000000645a .LASF876
C:\Users\SOLDER~1\AppData\Local\Temp\cc0vShlo.s:28189  .debug_str:0000000000028d83 .LASF877
C:\Users\SOLDER~1\AppData\Local\Temp\cc0vShlo.s:26755  .debug_str:0000000000022ea7 .LASF878
C:\Users\SOLDER~1\AppData\Local\Temp\cc0vShlo.s:22335  .debug_str:0000000000010e77 .LASF879
C:\Users\SOLDER~1\AppData\Local\Temp\cc0vShlo.s:18883  .debug_str:0000000000002d26 .LASF880
C:\Users\SOLDER~1\AppData\Local\Temp\cc0vShlo.s:28675  .debug_str:000000000002ad31 .LASF881
C:\Users\SOLDER~1\AppData\Local\Temp\cc0vShlo.s:19881  .debug_str:0000000000006d9c .LASF882
C:\Users\SOLDER~1\AppData\Local\Temp\cc0vShlo.s:19455  .debug_str:000000000000519f .LASF883
C:\Users\SOLDER~1\AppData\Local\Temp\cc0vShlo.s:23429  .debug_str:0000000000015710 .LASF884
C:\Users\SOLDER~1\AppData\Local\Temp\cc0vShlo.s:21117  .debug_str:000000000000be95 .LASF885
C:\Users\SOLDER~1\AppData\Local\Temp\cc0vShlo.s:25487  .debug_str:000000000001dc4e .LASF886
C:\Users\SOLDER~1\AppData\Local\Temp\cc0vShlo.s:24585  .debug_str:000000000001a141 .LASF887
GAS LISTING C:\Users\SOLDER~1\AppData\Local\Temp\cc0vShlo.s 			page 26


C:\Users\SOLDER~1\AppData\Local\Temp\cc0vShlo.s:20751  .debug_str:000000000000a707 .LASF888
C:\Users\SOLDER~1\AppData\Local\Temp\cc0vShlo.s:22273  .debug_str:0000000000010a7c .LASF889
C:\Users\SOLDER~1\AppData\Local\Temp\cc0vShlo.s:28345  .debug_str:00000000000297a8 .LASF890
C:\Users\SOLDER~1\AppData\Local\Temp\cc0vShlo.s:18277  .debug_str:00000000000004ee .LASF891
C:\Users\SOLDER~1\AppData\Local\Temp\cc0vShlo.s:28853  .debug_str:000000000002b8c6 .LASF892
C:\Users\SOLDER~1\AppData\Local\Temp\cc0vShlo.s:28771  .debug_str:000000000002b39d .LASF893
C:\Users\SOLDER~1\AppData\Local\Temp\cc0vShlo.s:26769  .debug_str:0000000000022f98 .LASF894
C:\Users\SOLDER~1\AppData\Local\Temp\cc0vShlo.s:28361  .debug_str:00000000000298b7 .LASF895
C:\Users\SOLDER~1\AppData\Local\Temp\cc0vShlo.s:29147  .debug_str:000000000002cbe0 .LASF896
C:\Users\SOLDER~1\AppData\Local\Temp\cc0vShlo.s:27939  .debug_str:0000000000027d75 .LASF897
C:\Users\SOLDER~1\AppData\Local\Temp\cc0vShlo.s:19805  .debug_str:00000000000068c9 .LASF898
C:\Users\SOLDER~1\AppData\Local\Temp\cc0vShlo.s:18295  .debug_str:000000000000062b .LASF899
C:\Users\SOLDER~1\AppData\Local\Temp\cc0vShlo.s:19737  .debug_str:0000000000006414 .LASF900
C:\Users\SOLDER~1\AppData\Local\Temp\cc0vShlo.s:24075  .debug_str:00000000000180bb .LASF901
C:\Users\SOLDER~1\AppData\Local\Temp\cc0vShlo.s:25931  .debug_str:000000000001f985 .LASF902
C:\Users\SOLDER~1\AppData\Local\Temp\cc0vShlo.s:19959  .debug_str:00000000000072df .LASF903
C:\Users\SOLDER~1\AppData\Local\Temp\cc0vShlo.s:22895  .debug_str:00000000000132c2 .LASF904
C:\Users\SOLDER~1\AppData\Local\Temp\cc0vShlo.s:21073  .debug_str:000000000000bbdb .LASF905
C:\Users\SOLDER~1\AppData\Local\Temp\cc0vShlo.s:19237  .debug_str:000000000000440b .LASF906
C:\Users\SOLDER~1\AppData\Local\Temp\cc0vShlo.s:20009  .debug_str:00000000000075f9 .LASF907
C:\Users\SOLDER~1\AppData\Local\Temp\cc0vShlo.s:26947  .debug_str:0000000000023b40 .LASF908
C:\Users\SOLDER~1\AppData\Local\Temp\cc0vShlo.s:23857  .debug_str:0000000000017240 .LASF909
C:\Users\SOLDER~1\AppData\Local\Temp\cc0vShlo.s:25383  .debug_str:000000000001d5a8 .LASF910
C:\Users\SOLDER~1\AppData\Local\Temp\cc0vShlo.s:25521  .debug_str:000000000001de8f .LASF911
C:\Users\SOLDER~1\AppData\Local\Temp\cc0vShlo.s:19497  .debug_str:0000000000005417 .LASF912
C:\Users\SOLDER~1\AppData\Local\Temp\cc0vShlo.s:28539  .debug_str:000000000002a4c2 .LASF913
C:\Users\SOLDER~1\AppData\Local\Temp\cc0vShlo.s:18799  .debug_str:00000000000027d6 .LASF914
C:\Users\SOLDER~1\AppData\Local\Temp\cc0vShlo.s:25595  .debug_str:000000000001e30d .LASF915
C:\Users\SOLDER~1\AppData\Local\Temp\cc0vShlo.s:23995  .debug_str:0000000000017b3a .LASF916
C:\Users\SOLDER~1\AppData\Local\Temp\cc0vShlo.s:19301  .debug_str:000000000000482e .LASF917
C:\Users\SOLDER~1\AppData\Local\Temp\cc0vShlo.s:25847  .debug_str:000000000001f431 .LASF918
C:\Users\SOLDER~1\AppData\Local\Temp\cc0vShlo.s:24697  .debug_str:000000000001a86d .LASF919
C:\Users\SOLDER~1\AppData\Local\Temp\cc0vShlo.s:26393  .debug_str:0000000000021747 .LASF920
C:\Users\SOLDER~1\AppData\Local\Temp\cc0vShlo.s:21957  .debug_str:000000000000f5df .LASF921
C:\Users\SOLDER~1\AppData\Local\Temp\cc0vShlo.s:18589  .debug_str:0000000000001a00 .LASF922
C:\Users\SOLDER~1\AppData\Local\Temp\cc0vShlo.s:28215  .debug_str:0000000000028f52 .LASF923
C:\Users\SOLDER~1\AppData\Local\Temp\cc0vShlo.s:28525  .debug_str:000000000002a3cf .LASF924
C:\Users\SOLDER~1\AppData\Local\Temp\cc0vShlo.s:19375  .debug_str:0000000000004cd6 .LASF925
C:\Users\SOLDER~1\AppData\Local\Temp\cc0vShlo.s:19803  .debug_str:00000000000068a9 .LASF926
C:\Users\SOLDER~1\AppData\Local\Temp\cc0vShlo.s:20663  .debug_str:000000000000a0f9 .LASF927
C:\Users\SOLDER~1\AppData\Local\Temp\cc0vShlo.s:25127  .debug_str:000000000001c4a4 .LASF928
C:\Users\SOLDER~1\AppData\Local\Temp\cc0vShlo.s:24237  .debug_str:0000000000018b0b .LASF929
C:\Users\SOLDER~1\AppData\Local\Temp\cc0vShlo.s:25633  .debug_str:000000000001e5d9 .LASF930
C:\Users\SOLDER~1\AppData\Local\Temp\cc0vShlo.s:18529  .debug_str:0000000000001626 .LASF931
C:\Users\SOLDER~1\AppData\Local\Temp\cc0vShlo.s:19875  .debug_str:0000000000006d23 .LASF932
C:\Users\SOLDER~1\AppData\Local\Temp\cc0vShlo.s:18445  .debug_str:00000000000010ae .LASF933
C:\Users\SOLDER~1\AppData\Local\Temp\cc0vShlo.s:21635  .debug_str:000000000000e12b .LASF934
C:\Users\SOLDER~1\AppData\Local\Temp\cc0vShlo.s:28407  .debug_str:0000000000029be4 .LASF935
C:\Users\SOLDER~1\AppData\Local\Temp\cc0vShlo.s:26407  .debug_str:000000000002182d .LASF936
C:\Users\SOLDER~1\AppData\Local\Temp\cc0vShlo.s:27973  .debug_str:0000000000027fd3 .LASF937
C:\Users\SOLDER~1\AppData\Local\Temp\cc0vShlo.s:25275  .debug_str:000000000001ce85 .LASF938
C:\Users\SOLDER~1\AppData\Local\Temp\cc0vShlo.s:28249  .debug_str:0000000000029187 .LASF939
C:\Users\SOLDER~1\AppData\Local\Temp\cc0vShlo.s:20489  .debug_str:00000000000095aa .LASF940
C:\Users\SOLDER~1\AppData\Local\Temp\cc0vShlo.s:28391  .debug_str:0000000000029ac1 .LASF941
C:\Users\SOLDER~1\AppData\Local\Temp\cc0vShlo.s:21837  .debug_str:000000000000ee32 .LASF942
C:\Users\SOLDER~1\AppData\Local\Temp\cc0vShlo.s:27313  .debug_str:0000000000025352 .LASF943
C:\Users\SOLDER~1\AppData\Local\Temp\cc0vShlo.s:19021  .debug_str:0000000000003638 .LASF944
GAS LISTING C:\Users\SOLDER~1\AppData\Local\Temp\cc0vShlo.s 			page 27


C:\Users\SOLDER~1\AppData\Local\Temp\cc0vShlo.s:21681  .debug_str:000000000000e430 .LASF945
C:\Users\SOLDER~1\AppData\Local\Temp\cc0vShlo.s:28559  .debug_str:000000000002a5dd .LASF946
C:\Users\SOLDER~1\AppData\Local\Temp\cc0vShlo.s:27389  .debug_str:000000000002589d .LASF947
C:\Users\SOLDER~1\AppData\Local\Temp\cc0vShlo.s:24877  .debug_str:000000000001b422 .LASF948
C:\Users\SOLDER~1\AppData\Local\Temp\cc0vShlo.s:20559  .debug_str:0000000000009a12 .LASF949
C:\Users\SOLDER~1\AppData\Local\Temp\cc0vShlo.s:21651  .debug_str:000000000000e246 .LASF950
C:\Users\SOLDER~1\AppData\Local\Temp\cc0vShlo.s:22003  .debug_str:000000000000f904 .LASF951
C:\Users\SOLDER~1\AppData\Local\Temp\cc0vShlo.s:29227  .debug_str:000000000002d168 .LASF952
C:\Users\SOLDER~1\AppData\Local\Temp\cc0vShlo.s:21507  .debug_str:000000000000d891 .LASF953
C:\Users\SOLDER~1\AppData\Local\Temp\cc0vShlo.s:23893  .debug_str:0000000000017498 .LASF954
C:\Users\SOLDER~1\AppData\Local\Temp\cc0vShlo.s:24413  .debug_str:00000000000196ad .LASF955
C:\Users\SOLDER~1\AppData\Local\Temp\cc0vShlo.s:24265  .debug_str:0000000000018d07 .LASF956
C:\Users\SOLDER~1\AppData\Local\Temp\cc0vShlo.s:23747  .debug_str:0000000000016b20 .LASF957
C:\Users\SOLDER~1\AppData\Local\Temp\cc0vShlo.s:21863  .debug_str:000000000000efc1 .LASF958
C:\Users\SOLDER~1\AppData\Local\Temp\cc0vShlo.s:19339  .debug_str:0000000000004a79 .LASF959
C:\Users\SOLDER~1\AppData\Local\Temp\cc0vShlo.s:19571  .debug_str:0000000000005901 .LASF960
C:\Users\SOLDER~1\AppData\Local\Temp\cc0vShlo.s:26345  .debug_str:000000000002144a .LASF961
C:\Users\SOLDER~1\AppData\Local\Temp\cc0vShlo.s:28679  .debug_str:000000000002ad7b .LASF962
C:\Users\SOLDER~1\AppData\Local\Temp\cc0vShlo.s:21935  .debug_str:000000000000f46d .LASF963
C:\Users\SOLDER~1\AppData\Local\Temp\cc0vShlo.s:26287  .debug_str:000000000002108b .LASF964
C:\Users\SOLDER~1\AppData\Local\Temp\cc0vShlo.s:28961  .debug_str:000000000002c042 .LASF965
C:\Users\SOLDER~1\AppData\Local\Temp\cc0vShlo.s:23997  .debug_str:0000000000017b5c .LASF966
C:\Users\SOLDER~1\AppData\Local\Temp\cc0vShlo.s:23787  .debug_str:0000000000016d82 .LASF967
C:\Users\SOLDER~1\AppData\Local\Temp\cc0vShlo.s:21571  .debug_str:000000000000dc9c .LASF968
C:\Users\SOLDER~1\AppData\Local\Temp\cc0vShlo.s:20159  .debug_str:0000000000007fbe .LASF969
C:\Users\SOLDER~1\AppData\Local\Temp\cc0vShlo.s:19193  .debug_str:0000000000004157 .LASF970
C:\Users\SOLDER~1\AppData\Local\Temp\cc0vShlo.s:27141  .debug_str:000000000002481a .LASF971
C:\Users\SOLDER~1\AppData\Local\Temp\cc0vShlo.s:28317  .debug_str:0000000000029600 .LASF972
C:\Users\SOLDER~1\AppData\Local\Temp\cc0vShlo.s:21351  .debug_str:000000000000ce59 .LASF973
C:\Users\SOLDER~1\AppData\Local\Temp\cc0vShlo.s:22415  .debug_str:00000000000113c9 .LASF974
C:\Users\SOLDER~1\AppData\Local\Temp\cc0vShlo.s:21967  .debug_str:000000000000f677 .LASF975
C:\Users\SOLDER~1\AppData\Local\Temp\cc0vShlo.s:22833  .debug_str:0000000000012ec5 .LASF976
C:\Users\SOLDER~1\AppData\Local\Temp\cc0vShlo.s:29083  .debug_str:000000000002c7db .LASF977
C:\Users\SOLDER~1\AppData\Local\Temp\cc0vShlo.s:29143  .debug_str:000000000002cb9e .LASF978
C:\Users\SOLDER~1\AppData\Local\Temp\cc0vShlo.s:24643  .debug_str:000000000001a4e0 .LASF979
C:\Users\SOLDER~1\AppData\Local\Temp\cc0vShlo.s:26737  .debug_str:0000000000022d6b .LASF980
C:\Users\SOLDER~1\AppData\Local\Temp\cc0vShlo.s:20191  .debug_str:00000000000081e9 .LASF981
C:\Users\SOLDER~1\AppData\Local\Temp\cc0vShlo.s:24421  .debug_str:00000000000196fe .LASF982
C:\Users\SOLDER~1\AppData\Local\Temp\cc0vShlo.s:27165  .debug_str:00000000000249cf .LASF983
C:\Users\SOLDER~1\AppData\Local\Temp\cc0vShlo.s:22149  .debug_str:00000000000102b4 .LASF984
C:\Users\SOLDER~1\AppData\Local\Temp\cc0vShlo.s:22761  .debug_str:00000000000129eb .LASF985
C:\Users\SOLDER~1\AppData\Local\Temp\cc0vShlo.s:19751  .debug_str:00000000000064fc .LASF986
C:\Users\SOLDER~1\AppData\Local\Temp\cc0vShlo.s:18429  .debug_str:0000000000000fcf .LASF987
C:\Users\SOLDER~1\AppData\Local\Temp\cc0vShlo.s:28861  .debug_str:000000000002b94f .LASF988
C:\Users\SOLDER~1\AppData\Local\Temp\cc0vShlo.s:25409  .debug_str:000000000001d737 .LASF989
C:\Users\SOLDER~1\AppData\Local\Temp\cc0vShlo.s:19631  .debug_str:0000000000005cf5 .LASF990
C:\Users\SOLDER~1\AppData\Local\Temp\cc0vShlo.s:20969  .debug_str:000000000000b50e .LASF991
C:\Users\SOLDER~1\AppData\Local\Temp\cc0vShlo.s:24165  .debug_str:0000000000018652 .LASF992
C:\Users\SOLDER~1\AppData\Local\Temp\cc0vShlo.s:27981  .debug_str:000000000002804e .LASF993
C:\Users\SOLDER~1\AppData\Local\Temp\cc0vShlo.s:25219  .debug_str:000000000001caef .LASF994
C:\Users\SOLDER~1\AppData\Local\Temp\cc0vShlo.s:23577  .debug_str:000000000001609d .LASF995
C:\Users\SOLDER~1\AppData\Local\Temp\cc0vShlo.s:22227  .debug_str:000000000001079e .LASF996
C:\Users\SOLDER~1\AppData\Local\Temp\cc0vShlo.s:19103  .debug_str:0000000000003b97 .LASF997
C:\Users\SOLDER~1\AppData\Local\Temp\cc0vShlo.s:20499  .debug_str:0000000000009629 .LASF998
C:\Users\SOLDER~1\AppData\Local\Temp\cc0vShlo.s:26195  .debug_str:0000000000020a6a .LASF999
C:\Users\SOLDER~1\AppData\Local\Temp\cc0vShlo.s:29603  .debug_str:000000000002e982 .LASF1000
C:\Users\SOLDER~1\AppData\Local\Temp\cc0vShlo.s:21771  .debug_str:000000000000ea0b .LASF1001
GAS LISTING C:\Users\SOLDER~1\AppData\Local\Temp\cc0vShlo.s 			page 28


C:\Users\SOLDER~1\AppData\Local\Temp\cc0vShlo.s:27191  .debug_str:0000000000024b6f .LASF1002
C:\Users\SOLDER~1\AppData\Local\Temp\cc0vShlo.s:28811  .debug_str:000000000002b632 .LASF1003
C:\Users\SOLDER~1\AppData\Local\Temp\cc0vShlo.s:24957  .debug_str:000000000001b939 .LASF1004
C:\Users\SOLDER~1\AppData\Local\Temp\cc0vShlo.s:24377  .debug_str:0000000000019474 .LASF1005
C:\Users\SOLDER~1\AppData\Local\Temp\cc0vShlo.s:22585  .debug_str:0000000000011e99 .LASF1006
C:\Users\SOLDER~1\AppData\Local\Temp\cc0vShlo.s:19911  .debug_str:0000000000006fc8 .LASF1007
C:\Users\SOLDER~1\AppData\Local\Temp\cc0vShlo.s:20215  .debug_str:0000000000008372 .LASF1008
C:\Users\SOLDER~1\AppData\Local\Temp\cc0vShlo.s:26991  .debug_str:0000000000023e29 .LASF1009
C:\Users\SOLDER~1\AppData\Local\Temp\cc0vShlo.s:29319  .debug_str:000000000002d726 .LASF1010
C:\Users\SOLDER~1\AppData\Local\Temp\cc0vShlo.s:22577  .debug_str:0000000000011e15 .LASF1011
C:\Users\SOLDER~1\AppData\Local\Temp\cc0vShlo.s:27561  .debug_str:0000000000026473 .LASF1012
C:\Users\SOLDER~1\AppData\Local\Temp\cc0vShlo.s:29597  .debug_str:000000000002e929 .LASF1013
C:\Users\SOLDER~1\AppData\Local\Temp\cc0vShlo.s:28039  .debug_str:00000000000283df .LASF1014
C:\Users\SOLDER~1\AppData\Local\Temp\cc0vShlo.s:25137  .debug_str:000000000001c55b .LASF1015
C:\Users\SOLDER~1\AppData\Local\Temp\cc0vShlo.s:25679  .debug_str:000000000001e8e6 .LASF1016
C:\Users\SOLDER~1\AppData\Local\Temp\cc0vShlo.s:20685  .debug_str:000000000000a26d .LASF1017
C:\Users\SOLDER~1\AppData\Local\Temp\cc0vShlo.s:23329  .debug_str:0000000000015062 .LASF1018
C:\Users\SOLDER~1\AppData\Local\Temp\cc0vShlo.s:27697  .debug_str:0000000000026dac .LASF1019
C:\Users\SOLDER~1\AppData\Local\Temp\cc0vShlo.s:20941  .debug_str:000000000000b319 .LASF1020
C:\Users\SOLDER~1\AppData\Local\Temp\cc0vShlo.s:22551  .debug_str:0000000000011c7f .LASF1021
C:\Users\SOLDER~1\AppData\Local\Temp\cc0vShlo.s:24609  .debug_str:000000000001a2ed .LASF1022
C:\Users\SOLDER~1\AppData\Local\Temp\cc0vShlo.s:18919  .debug_str:0000000000002fa2 .LASF1023
C:\Users\SOLDER~1\AppData\Local\Temp\cc0vShlo.s:27747  .debug_str:00000000000270d2 .LASF1024
C:\Users\SOLDER~1\AppData\Local\Temp\cc0vShlo.s:26725  .debug_str:0000000000022cc7 .LASF1025
C:\Users\SOLDER~1\AppData\Local\Temp\cc0vShlo.s:25387  .debug_str:000000000001d5e4 .LASF1026
C:\Users\SOLDER~1\AppData\Local\Temp\cc0vShlo.s:21487  .debug_str:000000000000d760 .LASF1027
C:\Users\SOLDER~1\AppData\Local\Temp\cc0vShlo.s:23059  .debug_str:0000000000013e54 .LASF1028
C:\Users\SOLDER~1\AppData\Local\Temp\cc0vShlo.s:28519  .debug_str:000000000002a356 .LASF1029
C:\Users\SOLDER~1\AppData\Local\Temp\cc0vShlo.s:20659  .debug_str:000000000000a0b5 .LASF1030
C:\Users\SOLDER~1\AppData\Local\Temp\cc0vShlo.s:20257  .debug_str:000000000000860b .LASF1031
C:\Users\SOLDER~1\AppData\Local\Temp\cc0vShlo.s:18323  .debug_str:0000000000000894 .LASF1032
C:\Users\SOLDER~1\AppData\Local\Temp\cc0vShlo.s:19619  .debug_str:0000000000005c1f .LASF1033
C:\Users\SOLDER~1\AppData\Local\Temp\cc0vShlo.s:19401  .debug_str:0000000000004e57 .LASF1034
C:\Users\SOLDER~1\AppData\Local\Temp\cc0vShlo.s:26607  .debug_str:00000000000224de .LASF1035
C:\Users\SOLDER~1\AppData\Local\Temp\cc0vShlo.s:28503  .debug_str:000000000002a253 .LASF1036
C:\Users\SOLDER~1\AppData\Local\Temp\cc0vShlo.s:22311  .debug_str:0000000000010d0f .LASF1037
C:\Users\SOLDER~1\AppData\Local\Temp\cc0vShlo.s:26115  .debug_str:0000000000020549 .LASF1038
C:\Users\SOLDER~1\AppData\Local\Temp\cc0vShlo.s:27113  .debug_str:000000000002464e .LASF1039
C:\Users\SOLDER~1\AppData\Local\Temp\cc0vShlo.s:20553  .debug_str:00000000000099ba .LASF1040
C:\Users\SOLDER~1\AppData\Local\Temp\cc0vShlo.s:19325  .debug_str:000000000000499d .LASF1041
C:\Users\SOLDER~1\AppData\Local\Temp\cc0vShlo.s:22169  .debug_str:0000000000010413 .LASF1042
C:\Users\SOLDER~1\AppData\Local\Temp\cc0vShlo.s:28167  .debug_str:0000000000028c46 .LASF1043
C:\Users\SOLDER~1\AppData\Local\Temp\cc0vShlo.s:25919  .debug_str:000000000001f8b6 .LASF1044
C:\Users\SOLDER~1\AppData\Local\Temp\cc0vShlo.s:23493  .debug_str:0000000000015b2f .LASF1045
C:\Users\SOLDER~1\AppData\Local\Temp\cc0vShlo.s:19113  .debug_str:0000000000003c36 .LASF1046
C:\Users\SOLDER~1\AppData\Local\Temp\cc0vShlo.s:27593  .debug_str:00000000000266a6 .LASF1047
C:\Users\SOLDER~1\AppData\Local\Temp\cc0vShlo.s:19707  .debug_str:000000000000621f .LASF1048
C:\Users\SOLDER~1\AppData\Local\Temp\cc0vShlo.s:23861  .debug_str:0000000000017286 .LASF1049
C:\Users\SOLDER~1\AppData\Local\Temp\cc0vShlo.s:22561  .debug_str:0000000000011d0b .LASF1050
C:\Users\SOLDER~1\AppData\Local\Temp\cc0vShlo.s:25211  .debug_str:000000000001ca70 .LASF1051
C:\Users\SOLDER~1\AppData\Local\Temp\cc0vShlo.s:27581  .debug_str:00000000000265ec .LASF1052
C:\Users\SOLDER~1\AppData\Local\Temp\cc0vShlo.s:21757  .debug_str:000000000000e939 .LASF1053
C:\Users\SOLDER~1\AppData\Local\Temp\cc0vShlo.s:25039  .debug_str:000000000001be94 .LASF1054
C:\Users\SOLDER~1\AppData\Local\Temp\cc0vShlo.s:19407  .debug_str:0000000000004eae .LASF1055
C:\Users\SOLDER~1\AppData\Local\Temp\cc0vShlo.s:26299  .debug_str:0000000000021147 .LASF1056
C:\Users\SOLDER~1\AppData\Local\Temp\cc0vShlo.s:26389  .debug_str:00000000000216ff .LASF1057
C:\Users\SOLDER~1\AppData\Local\Temp\cc0vShlo.s:25367  .debug_str:000000000001d4bd .LASF1058
GAS LISTING C:\Users\SOLDER~1\AppData\Local\Temp\cc0vShlo.s 			page 29


C:\Users\SOLDER~1\AppData\Local\Temp\cc0vShlo.s:28369  .debug_str:000000000002993c .LASF1059
C:\Users\SOLDER~1\AppData\Local\Temp\cc0vShlo.s:26309  .debug_str:00000000000211e5 .LASF1060
C:\Users\SOLDER~1\AppData\Local\Temp\cc0vShlo.s:26075  .debug_str:00000000000202ad .LASF1061
C:\Users\SOLDER~1\AppData\Local\Temp\cc0vShlo.s:29265  .debug_str:000000000002d3b3 .LASF1062
C:\Users\SOLDER~1\AppData\Local\Temp\cc0vShlo.s:19773  .debug_str:0000000000006692 .LASF1063
C:\Users\SOLDER~1\AppData\Local\Temp\cc0vShlo.s:22079  .debug_str:000000000000fe57 .LASF1064
C:\Users\SOLDER~1\AppData\Local\Temp\cc0vShlo.s:26717  .debug_str:0000000000022c44 .LASF1065
C:\Users\SOLDER~1\AppData\Local\Temp\cc0vShlo.s:26739  .debug_str:0000000000022d8c .LASF1066
C:\Users\SOLDER~1\AppData\Local\Temp\cc0vShlo.s:21489  .debug_str:000000000000d777 .LASF1067
C:\Users\SOLDER~1\AppData\Local\Temp\cc0vShlo.s:19311  .debug_str:00000000000048d5 .LASF1068
C:\Users\SOLDER~1\AppData\Local\Temp\cc0vShlo.s:22305  .debug_str:0000000000010ca4 .LASF1069
C:\Users\SOLDER~1\AppData\Local\Temp\cc0vShlo.s:26591  .debug_str:00000000000223c7 .LASF1070
C:\Users\SOLDER~1\AppData\Local\Temp\cc0vShlo.s:25283  .debug_str:000000000001cf1d .LASF1071
C:\Users\SOLDER~1\AppData\Local\Temp\cc0vShlo.s:22285  .debug_str:0000000000010b3a .LASF1072
C:\Users\SOLDER~1\AppData\Local\Temp\cc0vShlo.s:26835  .debug_str:0000000000023414 .LASF1073
C:\Users\SOLDER~1\AppData\Local\Temp\cc0vShlo.s:18341  .debug_str:0000000000000a01 .LASF1074
C:\Users\SOLDER~1\AppData\Local\Temp\cc0vShlo.s:24563  .debug_str:0000000000019ff5 .LASF1075
C:\Users\SOLDER~1\AppData\Local\Temp\cc0vShlo.s:23079  .debug_str:0000000000013f91 .LASF1076
C:\Users\SOLDER~1\AppData\Local\Temp\cc0vShlo.s:21291  .debug_str:000000000000ca53 .LASF1077
C:\Users\SOLDER~1\AppData\Local\Temp\cc0vShlo.s:18785  .debug_str:00000000000026f4 .LASF1078
C:\Users\SOLDER~1\AppData\Local\Temp\cc0vShlo.s:27287  .debug_str:000000000002519f .LASF1079
C:\Users\SOLDER~1\AppData\Local\Temp\cc0vShlo.s:20377  .debug_str:0000000000008df4 .LASF1080
C:\Users\SOLDER~1\AppData\Local\Temp\cc0vShlo.s:22735  .debug_str:000000000001280f .LASF1081
C:\Users\SOLDER~1\AppData\Local\Temp\cc0vShlo.s:26151  .debug_str:000000000002078f .LASF1082
C:\Users\SOLDER~1\AppData\Local\Temp\cc0vShlo.s:25613  .debug_str:000000000001e461 .LASF1083
C:\Users\SOLDER~1\AppData\Local\Temp\cc0vShlo.s:23569  .debug_str:0000000000016012 .LASF1084
C:\Users\SOLDER~1\AppData\Local\Temp\cc0vShlo.s:19623  .debug_str:0000000000005c5b .LASF1085
C:\Users\SOLDER~1\AppData\Local\Temp\cc0vShlo.s:26701  .debug_str:0000000000022b35 .LASF1086
C:\Users\SOLDER~1\AppData\Local\Temp\cc0vShlo.s:28447  .debug_str:0000000000029e7b .LASF1087
C:\Users\SOLDER~1\AppData\Local\Temp\cc0vShlo.s:26291  .debug_str:00000000000210c1 .LASF1088
C:\Users\SOLDER~1\AppData\Local\Temp\cc0vShlo.s:19593  .debug_str:0000000000005a7f .LASF1089
C:\Users\SOLDER~1\AppData\Local\Temp\cc0vShlo.s:27603  .debug_str:000000000002673f .LASF1090
C:\Users\SOLDER~1\AppData\Local\Temp\cc0vShlo.s:25457  .debug_str:000000000001da29 .LASF1091
C:\Users\SOLDER~1\AppData\Local\Temp\cc0vShlo.s:19953  .debug_str:0000000000007273 .LASF1092
C:\Users\SOLDER~1\AppData\Local\Temp\cc0vShlo.s:24013  .debug_str:0000000000017c5e .LASF1093
C:\Users\SOLDER~1\AppData\Local\Temp\cc0vShlo.s:21457  .debug_str:000000000000d54c .LASF1094
C:\Users\SOLDER~1\AppData\Local\Temp\cc0vShlo.s:18545  .debug_str:0000000000001744 .LASF1095
C:\Users\SOLDER~1\AppData\Local\Temp\cc0vShlo.s:19681  .debug_str:000000000000602e .LASF1096
C:\Users\SOLDER~1\AppData\Local\Temp\cc0vShlo.s:26723  .debug_str:0000000000022ca0 .LASF1097
C:\Users\SOLDER~1\AppData\Local\Temp\cc0vShlo.s:26019  .debug_str:000000000001fefd .LASF1098
C:\Users\SOLDER~1\AppData\Local\Temp\cc0vShlo.s:19913  .debug_str:0000000000006fdf .LASF1099
C:\Users\SOLDER~1\AppData\Local\Temp\cc0vShlo.s:23339  .debug_str:0000000000015126 .LASF1100
C:\Users\SOLDER~1\AppData\Local\Temp\cc0vShlo.s:26971  .debug_str:0000000000023ccd .LASF1101
C:\Users\SOLDER~1\AppData\Local\Temp\cc0vShlo.s:28641  .debug_str:000000000002ab26 .LASF1102
C:\Users\SOLDER~1\AppData\Local\Temp\cc0vShlo.s:18405  .debug_str:0000000000000e58 .LASF1103
C:\Users\SOLDER~1\AppData\Local\Temp\cc0vShlo.s:18513  .debug_str:0000000000001534 .LASF1104
C:\Users\SOLDER~1\AppData\Local\Temp\cc0vShlo.s:25951  .debug_str:000000000001fab9 .LASF1105
C:\Users\SOLDER~1\AppData\Local\Temp\cc0vShlo.s:19563  .debug_str:0000000000005882 .LASF1106
C:\Users\SOLDER~1\AppData\Local\Temp\cc0vShlo.s:21091  .debug_str:000000000000bce8 .LASF1107
C:\Users\SOLDER~1\AppData\Local\Temp\cc0vShlo.s:18583  .debug_str:000000000000199d .LASF1108
C:\Users\SOLDER~1\AppData\Local\Temp\cc0vShlo.s:26033  .debug_str:000000000001ffda .LASF1109
C:\Users\SOLDER~1\AppData\Local\Temp\cc0vShlo.s:19655  .debug_str:0000000000005e64 .LASF1110
C:\Users\SOLDER~1\AppData\Local\Temp\cc0vShlo.s:20157  .debug_str:0000000000007f96 .LASF1111
C:\Users\SOLDER~1\AppData\Local\Temp\cc0vShlo.s:20639  .debug_str:0000000000009f57 .LASF1112
C:\Users\SOLDER~1\AppData\Local\Temp\cc0vShlo.s:21063  .debug_str:000000000000bb37 .LASF1113
C:\Users\SOLDER~1\AppData\Local\Temp\cc0vShlo.s:27951  .debug_str:0000000000027e3a .LASF1114
C:\Users\SOLDER~1\AppData\Local\Temp\cc0vShlo.s:20301  .debug_str:00000000000088b5 .LASF1115
GAS LISTING C:\Users\SOLDER~1\AppData\Local\Temp\cc0vShlo.s 			page 30


C:\Users\SOLDER~1\AppData\Local\Temp\cc0vShlo.s:27667  .debug_str:0000000000026b70 .LASF1116
C:\Users\SOLDER~1\AppData\Local\Temp\cc0vShlo.s:29115  .debug_str:000000000002c9c4 .LASF1117
C:\Users\SOLDER~1\AppData\Local\Temp\cc0vShlo.s:28607  .debug_str:000000000002a8e2 .LASF1118
C:\Users\SOLDER~1\AppData\Local\Temp\cc0vShlo.s:22999  .debug_str:0000000000013a19 .LASF1119
C:\Users\SOLDER~1\AppData\Local\Temp\cc0vShlo.s:19327  .debug_str:00000000000049ae .LASF1120
C:\Users\SOLDER~1\AppData\Local\Temp\cc0vShlo.s:25501  .debug_str:000000000001dd4e .LASF1121
C:\Users\SOLDER~1\AppData\Local\Temp\cc0vShlo.s:20417  .debug_str:00000000000090af .LASF1122
C:\Users\SOLDER~1\AppData\Local\Temp\cc0vShlo.s:28777  .debug_str:000000000002b3f4 .LASF1123
C:\Users\SOLDER~1\AppData\Local\Temp\cc0vShlo.s:23239  .debug_str:0000000000014a94 .LASF1124
C:\Users\SOLDER~1\AppData\Local\Temp\cc0vShlo.s:20955  .debug_str:000000000000b426 .LASF1125
C:\Users\SOLDER~1\AppData\Local\Temp\cc0vShlo.s:29295  .debug_str:000000000002d5b8 .LASF1126
C:\Users\SOLDER~1\AppData\Local\Temp\cc0vShlo.s:27417  .debug_str:0000000000025a85 .LASF1127
C:\Users\SOLDER~1\AppData\Local\Temp\cc0vShlo.s:26483  .debug_str:0000000000021d0d .LASF1128
C:\Users\SOLDER~1\AppData\Local\Temp\cc0vShlo.s:24191  .debug_str:00000000000187fb .LASF1129
C:\Users\SOLDER~1\AppData\Local\Temp\cc0vShlo.s:24787  .debug_str:000000000001ae81 .LASF1130
C:\Users\SOLDER~1\AppData\Local\Temp\cc0vShlo.s:20313  .debug_str:00000000000089a8 .LASF1131
C:\Users\SOLDER~1\AppData\Local\Temp\cc0vShlo.s:25797  .debug_str:000000000001f09a .LASF1132
C:\Users\SOLDER~1\AppData\Local\Temp\cc0vShlo.s:20873  .debug_str:000000000000aef4 .LASF1133
C:\Users\SOLDER~1\AppData\Local\Temp\cc0vShlo.s:23849  .debug_str:00000000000171b9 .LASF1134
C:\Users\SOLDER~1\AppData\Local\Temp\cc0vShlo.s:23237  .debug_str:0000000000014a6f .LASF1135
C:\Users\SOLDER~1\AppData\Local\Temp\cc0vShlo.s:23859  .debug_str:0000000000017261 .LASF1136
C:\Users\SOLDER~1\AppData\Local\Temp\cc0vShlo.s:27853  .debug_str:000000000002779f .LASF1137
C:\Users\SOLDER~1\AppData\Local\Temp\cc0vShlo.s:25735  .debug_str:000000000001ec68 .LASF1138
C:\Users\SOLDER~1\AppData\Local\Temp\cc0vShlo.s:27029  .debug_str:00000000000240bb .LASF1139
C:\Users\SOLDER~1\AppData\Local\Temp\cc0vShlo.s:18729  .debug_str:0000000000002349 .LASF1140
C:\Users\SOLDER~1\AppData\Local\Temp\cc0vShlo.s:27463  .debug_str:0000000000025dd5 .LASF1141
C:\Users\SOLDER~1\AppData\Local\Temp\cc0vShlo.s:26601  .debug_str:000000000002247e .LASF1142
C:\Users\SOLDER~1\AppData\Local\Temp\cc0vShlo.s:25143  .debug_str:000000000001c5b4 .LASF1143
C:\Users\SOLDER~1\AppData\Local\Temp\cc0vShlo.s:28869  .debug_str:000000000002b9dc .LASF1144
C:\Users\SOLDER~1\AppData\Local\Temp\cc0vShlo.s:25631  .debug_str:000000000001e5b2 .LASF1145
C:\Users\SOLDER~1\AppData\Local\Temp\cc0vShlo.s:25393  .debug_str:000000000001d650 .LASF1146
C:\Users\SOLDER~1\AppData\Local\Temp\cc0vShlo.s:23739  .debug_str:0000000000016aa7 .LASF1147
C:\Users\SOLDER~1\AppData\Local\Temp\cc0vShlo.s:28985  .debug_str:000000000002c19e .LASF1148
C:\Users\SOLDER~1\AppData\Local\Temp\cc0vShlo.s:26301  .debug_str:0000000000021163 .LASF1149
C:\Users\SOLDER~1\AppData\Local\Temp\cc0vShlo.s:23469  .debug_str:00000000000159b3 .LASF1150
C:\Users\SOLDER~1\AppData\Local\Temp\cc0vShlo.s:25193  .debug_str:000000000001c926 .LASF1151
C:\Users\SOLDER~1\AppData\Local\Temp\cc0vShlo.s:22299  .debug_str:0000000000010c34 .LASF1152
C:\Users\SOLDER~1\AppData\Local\Temp\cc0vShlo.s:27757  .debug_str:0000000000027184 .LASF1153
C:\Users\SOLDER~1\AppData\Local\Temp\cc0vShlo.s:24099  .debug_str:0000000000018221 .LASF1154
C:\Users\SOLDER~1\AppData\Local\Temp\cc0vShlo.s:18627  .debug_str:0000000000001ca4 .LASF1155
C:\Users\SOLDER~1\AppData\Local\Temp\cc0vShlo.s:23009  .debug_str:0000000000013aeb .LASF1156
C:\Users\SOLDER~1\AppData\Local\Temp\cc0vShlo.s:26063  .debug_str:00000000000201ce .LASF1157
C:\Users\SOLDER~1\AppData\Local\Temp\cc0vShlo.s:29403  .debug_str:000000000002dc9f .LASF1158
C:\Users\SOLDER~1\AppData\Local\Temp\cc0vShlo.s:29411  .debug_str:000000000002dd05 .LASF1159
C:\Users\SOLDER~1\AppData\Local\Temp\cc0vShlo.s:28003  .debug_str:0000000000028199 .LASF1160
C:\Users\SOLDER~1\AppData\Local\Temp\cc0vShlo.s:24343  .debug_str:0000000000019210 .LASF1161
C:\Users\SOLDER~1\AppData\Local\Temp\cc0vShlo.s:24125  .debug_str:00000000000183bb .LASF1162
C:\Users\SOLDER~1\AppData\Local\Temp\cc0vShlo.s:27839  .debug_str:00000000000276d3 .LASF1163
C:\Users\SOLDER~1\AppData\Local\Temp\cc0vShlo.s:22353  .debug_str:0000000000010fa7 .LASF1164
C:\Users\SOLDER~1\AppData\Local\Temp\cc0vShlo.s:27775  .debug_str:00000000000272b2 .LASF1165
C:\Users\SOLDER~1\AppData\Local\Temp\cc0vShlo.s:29463  .debug_str:000000000002e03d .LASF1166
C:\Users\SOLDER~1\AppData\Local\Temp\cc0vShlo.s:25857  .debug_str:000000000001f4c7 .LASF1167
C:\Users\SOLDER~1\AppData\Local\Temp\cc0vShlo.s:22875  .debug_str:0000000000013179 .LASF1168
C:\Users\SOLDER~1\AppData\Local\Temp\cc0vShlo.s:28321  .debug_str:000000000002963d .LASF1169
C:\Users\SOLDER~1\AppData\Local\Temp\cc0vShlo.s:20355  .debug_str:0000000000008c50 .LASF1170
C:\Users\SOLDER~1\AppData\Local\Temp\cc0vShlo.s:26343  .debug_str:0000000000021421 .LASF1171
C:\Users\SOLDER~1\AppData\Local\Temp\cc0vShlo.s:27189  .debug_str:0000000000024b48 .LASF1172
GAS LISTING C:\Users\SOLDER~1\AppData\Local\Temp\cc0vShlo.s 			page 31


C:\Users\SOLDER~1\AppData\Local\Temp\cc0vShlo.s:25685  .debug_str:000000000001e946 .LASF1173
C:\Users\SOLDER~1\AppData\Local\Temp\cc0vShlo.s:24111  .debug_str:00000000000182e7 .LASF1174
C:\Users\SOLDER~1\AppData\Local\Temp\cc0vShlo.s:22103  .debug_str:000000000000ffd6 .LASF1175
C:\Users\SOLDER~1\AppData\Local\Temp\cc0vShlo.s:25885  .debug_str:000000000001f6a9 .LASF1176
C:\Users\SOLDER~1\AppData\Local\Temp\cc0vShlo.s:23013  .debug_str:0000000000013b37 .LASF1177
C:\Users\SOLDER~1\AppData\Local\Temp\cc0vShlo.s:22755  .debug_str:000000000001297a .LASF1178
C:\Users\SOLDER~1\AppData\Local\Temp\cc0vShlo.s:20631  .debug_str:0000000000009ed0 .LASF1179
C:\Users\SOLDER~1\AppData\Local\Temp\cc0vShlo.s:21983  .debug_str:000000000000f78d .LASF1180
C:\Users\SOLDER~1\AppData\Local\Temp\cc0vShlo.s:24039  .debug_str:0000000000017e23 .LASF1181
C:\Users\SOLDER~1\AppData\Local\Temp\cc0vShlo.s:27457  .debug_str:0000000000025d6c .LASF1182
C:\Users\SOLDER~1\AppData\Local\Temp\cc0vShlo.s:22163  .debug_str:00000000000103a9 .LASF1183
C:\Users\SOLDER~1\AppData\Local\Temp\cc0vShlo.s:27675  .debug_str:0000000000026c05 .LASF1184
C:\Users\SOLDER~1\AppData\Local\Temp\cc0vShlo.s:24617  .debug_str:000000000001a35f .LASF1185
C:\Users\SOLDER~1\AppData\Local\Temp\cc0vShlo.s:28089  .debug_str:0000000000028747 .LASF1186
C:\Users\SOLDER~1\AppData\Local\Temp\cc0vShlo.s:22665  .debug_str:0000000000012373 .LASF1187
C:\Users\SOLDER~1\AppData\Local\Temp\cc0vShlo.s:20719  .debug_str:000000000000a4ae .LASF1188
C:\Users\SOLDER~1\AppData\Local\Temp\cc0vShlo.s:20059  .debug_str:0000000000007904 .LASF1189
C:\Users\SOLDER~1\AppData\Local\Temp\cc0vShlo.s:18663  .debug_str:0000000000001ef2 .LASF1190
C:\Users\SOLDER~1\AppData\Local\Temp\cc0vShlo.s:22395  .debug_str:0000000000011250 .LASF1191
C:\Users\SOLDER~1\AppData\Local\Temp\cc0vShlo.s:19145  .debug_str:0000000000003e48 .LASF1192
C:\Users\SOLDER~1\AppData\Local\Temp\cc0vShlo.s:29605  .debug_str:000000000002e9a3 .LASF1193
C:\Users\SOLDER~1\AppData\Local\Temp\cc0vShlo.s:24653  .debug_str:000000000001a58b .LASF1194
C:\Users\SOLDER~1\AppData\Local\Temp\cc0vShlo.s:19901  .debug_str:0000000000006f1d .LASF1195
C:\Users\SOLDER~1\AppData\Local\Temp\cc0vShlo.s:25335  .debug_str:000000000001d2c8 .LASF1196
C:\Users\SOLDER~1\AppData\Local\Temp\cc0vShlo.s:28859  .debug_str:000000000002b926 .LASF1197
C:\Users\SOLDER~1\AppData\Local\Temp\cc0vShlo.s:23435  .debug_str:0000000000015772 .LASF1198
C:\Users\SOLDER~1\AppData\Local\Temp\cc0vShlo.s:20517  .debug_str:0000000000009754 .LASF1199
C:\Users\SOLDER~1\AppData\Local\Temp\cc0vShlo.s:25877  .debug_str:000000000001f616 .LASF1200
C:\Users\SOLDER~1\AppData\Local\Temp\cc0vShlo.s:29395  .debug_str:000000000002dc14 .LASF1201
C:\Users\SOLDER~1\AppData\Local\Temp\cc0vShlo.s:24069  .debug_str:0000000000018049 .LASF1202
C:\Users\SOLDER~1\AppData\Local\Temp\cc0vShlo.s:19469  .debug_str:000000000000526b .LASF1203
C:\Users\SOLDER~1\AppData\Local\Temp\cc0vShlo.s:18715  .debug_str:0000000000002254 .LASF1204
C:\Users\SOLDER~1\AppData\Local\Temp\cc0vShlo.s:22831  .debug_str:0000000000012e9e .LASF1205
C:\Users\SOLDER~1\AppData\Local\Temp\cc0vShlo.s:26589  .debug_str:00000000000223a0 .LASF1206
C:\Users\SOLDER~1\AppData\Local\Temp\cc0vShlo.s:29307  .debug_str:000000000002d66e .LASF1207
C:\Users\SOLDER~1\AppData\Local\Temp\cc0vShlo.s:28267  .debug_str:00000000000292c9 .LASF1208
C:\Users\SOLDER~1\AppData\Local\Temp\cc0vShlo.s:28809  .debug_str:000000000002b60a .LASF1209
C:\Users\SOLDER~1\AppData\Local\Temp\cc0vShlo.s:27625  .debug_str:00000000000268da .LASF1210
C:\Users\SOLDER~1\AppData\Local\Temp\cc0vShlo.s:21637  .debug_str:000000000000e14d .LASF1211
C:\Users\SOLDER~1\AppData\Local\Temp\cc0vShlo.s:25047  .debug_str:000000000001bf08 .LASF1212
C:\Users\SOLDER~1\AppData\Local\Temp\cc0vShlo.s:19701  .debug_str:00000000000061b8 .LASF1213
C:\Users\SOLDER~1\AppData\Local\Temp\cc0vShlo.s:28677  .debug_str:000000000002ad52 .LASF1214
C:\Users\SOLDER~1\AppData\Local\Temp\cc0vShlo.s:19557  .debug_str:000000000000581d .LASF1215
C:\Users\SOLDER~1\AppData\Local\Temp\cc0vShlo.s:25657  .debug_str:000000000001e765 .LASF1216
C:\Users\SOLDER~1\AppData\Local\Temp\cc0vShlo.s:20327  .debug_str:0000000000008a82 .LASF1217
C:\Users\SOLDER~1\AppData\Local\Temp\cc0vShlo.s:18933  .debug_str:000000000000306f .LASF1218
C:\Users\SOLDER~1\AppData\Local\Temp\cc0vShlo.s:26879  .debug_str:00000000000236f1 .LASF1219
C:\Users\SOLDER~1\AppData\Local\Temp\cc0vShlo.s:26595  .debug_str:0000000000022400 .LASF1220
C:\Users\SOLDER~1\AppData\Local\Temp\cc0vShlo.s:26053  .debug_str:0000000000020123 .LASF1221
C:\Users\SOLDER~1\AppData\Local\Temp\cc0vShlo.s:22727  .debug_str:000000000001279b .LASF1222
C:\Users\SOLDER~1\AppData\Local\Temp\cc0vShlo.s:19555  .debug_str:00000000000057fa .LASF1223
C:\Users\SOLDER~1\AppData\Local\Temp\cc0vShlo.s:20987  .debug_str:000000000000b618 .LASF1224
C:\Users\SOLDER~1\AppData\Local\Temp\cc0vShlo.s:24353  .debug_str:00000000000192ca .LASF1225
C:\Users\SOLDER~1\AppData\Local\Temp\cc0vShlo.s:21897  .debug_str:000000000000f201 .LASF1226
C:\Users\SOLDER~1\AppData\Local\Temp\cc0vShlo.s:27015  .debug_str:0000000000023fc6 .LASF1227
C:\Users\SOLDER~1\AppData\Local\Temp\cc0vShlo.s:20859  .debug_str:000000000000adfd .LASF1228
C:\Users\SOLDER~1\AppData\Local\Temp\cc0vShlo.s:21939  .debug_str:000000000000f4ad .LASF1229
GAS LISTING C:\Users\SOLDER~1\AppData\Local\Temp\cc0vShlo.s 			page 32


C:\Users\SOLDER~1\AppData\Local\Temp\cc0vShlo.s:25213  .debug_str:000000000001ca81 .LASF1230
C:\Users\SOLDER~1\AppData\Local\Temp\cc0vShlo.s:22915  .debug_str:0000000000013411 .LASF1231
C:\Users\SOLDER~1\AppData\Local\Temp\cc0vShlo.s:24049  .debug_str:0000000000017eec .LASF1232
C:\Users\SOLDER~1\AppData\Local\Temp\cc0vShlo.s:22257  .debug_str:0000000000010997 .LASF1233
C:\Users\SOLDER~1\AppData\Local\Temp\cc0vShlo.s:19849  .debug_str:0000000000006b7c .LASF1234
C:\Users\SOLDER~1\AppData\Local\Temp\cc0vShlo.s:22967  .debug_str:000000000001379a .LASF1235
C:\Users\SOLDER~1\AppData\Local\Temp\cc0vShlo.s:19487  .debug_str:0000000000005384 .LASF1236
C:\Users\SOLDER~1\AppData\Local\Temp\cc0vShlo.s:27597  .debug_str:00000000000266dc .LASF1237
C:\Users\SOLDER~1\AppData\Local\Temp\cc0vShlo.s:24493  .debug_str:0000000000019ba1 .LASF1238
C:\Users\SOLDER~1\AppData\Local\Temp\cc0vShlo.s:21671  .debug_str:000000000000e392 .LASF1239
C:\Users\SOLDER~1\AppData\Local\Temp\cc0vShlo.s:29229  .debug_str:000000000002d18f .LASF1240
C:\Users\SOLDER~1\AppData\Local\Temp\cc0vShlo.s:26759  .debug_str:0000000000022ee9 .LASF1241
C:\Users\SOLDER~1\AppData\Local\Temp\cc0vShlo.s:25449  .debug_str:000000000001d9b4 .LASF1242
C:\Users\SOLDER~1\AppData\Local\Temp\cc0vShlo.s:25673  .debug_str:000000000001e886 .LASF1243
C:\Users\SOLDER~1\AppData\Local\Temp\cc0vShlo.s:18917  .debug_str:0000000000002f7f .LASF1244
C:\Users\SOLDER~1\AppData\Local\Temp\cc0vShlo.s:21623  .debug_str:000000000000e057 .LASF1245
C:\Users\SOLDER~1\AppData\Local\Temp\cc0vShlo.s:28113  .debug_str:00000000000288d7 .LASF1246
C:\Users\SOLDER~1\AppData\Local\Temp\cc0vShlo.s:27655  .debug_str:0000000000026ab6 .LASF1247
C:\Users\SOLDER~1\AppData\Local\Temp\cc0vShlo.s:27433  .debug_str:0000000000025bad .LASF1248
C:\Users\SOLDER~1\AppData\Local\Temp\cc0vShlo.s:27473  .debug_str:0000000000025e78 .LASF1249
C:\Users\SOLDER~1\AppData\Local\Temp\cc0vShlo.s:21205  .debug_str:000000000000c4bd .LASF1250
C:\Users\SOLDER~1\AppData\Local\Temp\cc0vShlo.s:29251  .debug_str:000000000002d2c7 .LASF1251
C:\Users\SOLDER~1\AppData\Local\Temp\cc0vShlo.s:25895  .debug_str:000000000001f726 .LASF1252
C:\Users\SOLDER~1\AppData\Local\Temp\cc0vShlo.s:22743  .debug_str:0000000000012893 .LASF1253
C:\Users\SOLDER~1\AppData\Local\Temp\cc0vShlo.s:24757  .debug_str:000000000001aca8 .LASF1254
C:\Users\SOLDER~1\AppData\Local\Temp\cc0vShlo.s:25431  .debug_str:000000000001d880 .LASF1255
C:\Users\SOLDER~1\AppData\Local\Temp\cc0vShlo.s:25063  .debug_str:000000000001c045 .LASF1256
C:\Users\SOLDER~1\AppData\Local\Temp\cc0vShlo.s:23773  .debug_str:0000000000016c89 .LASF1257
C:\Users\SOLDER~1\AppData\Local\Temp\cc0vShlo.s:24081  .debug_str:000000000001811a .LASF1258
C:\Users\SOLDER~1\AppData\Local\Temp\cc0vShlo.s:28659  .debug_str:000000000002ac2a .LASF1259
C:\Users\SOLDER~1\AppData\Local\Temp\cc0vShlo.s:21009  .debug_str:000000000000b77e .LASF1260
C:\Users\SOLDER~1\AppData\Local\Temp\cc0vShlo.s:27483  .debug_str:0000000000025f29 .LASF1261
C:\Users\SOLDER~1\AppData\Local\Temp\cc0vShlo.s:28613  .debug_str:000000000002a953 .LASF1262
C:\Users\SOLDER~1\AppData\Local\Temp\cc0vShlo.s:26733  .debug_str:0000000000022d30 .LASF1263
C:\Users\SOLDER~1\AppData\Local\Temp\cc0vShlo.s:24561  .debug_str:0000000000019fd5 .LASF1264
C:\Users\SOLDER~1\AppData\Local\Temp\cc0vShlo.s:26697  .debug_str:0000000000022b03 .LASF1265
C:\Users\SOLDER~1\AppData\Local\Temp\cc0vShlo.s:23305  .debug_str:0000000000014ed1 .LASF1266
C:\Users\SOLDER~1\AppData\Local\Temp\cc0vShlo.s:19957  .debug_str:00000000000072be .LASF1267
C:\Users\SOLDER~1\AppData\Local\Temp\cc0vShlo.s:28255  .debug_str:00000000000291ef .LASF1268
C:\Users\SOLDER~1\AppData\Local\Temp\cc0vShlo.s:18787  .debug_str:0000000000002714 .LASF1269
C:\Users\SOLDER~1\AppData\Local\Temp\cc0vShlo.s:21535  .debug_str:000000000000da26 .LASF1270
C:\Users\SOLDER~1\AppData\Local\Temp\cc0vShlo.s:19107  .debug_str:0000000000003bd2 .LASF1271
C:\Users\SOLDER~1\AppData\Local\Temp\cc0vShlo.s:27047  .debug_str:00000000000241ea .LASF1272
C:\Users\SOLDER~1\AppData\Local\Temp\cc0vShlo.s:29571  .debug_str:000000000002e77d .LASF1273
C:\Users\SOLDER~1\AppData\Local\Temp\cc0vShlo.s:22803  .debug_str:0000000000012cd6 .LASF1274
C:\Users\SOLDER~1\AppData\Local\Temp\cc0vShlo.s:24633  .debug_str:000000000001a439 .LASF1275
C:\Users\SOLDER~1\AppData\Local\Temp\cc0vShlo.s:19721  .debug_str:0000000000006308 .LASF1276
C:\Users\SOLDER~1\AppData\Local\Temp\cc0vShlo.s:20825  .debug_str:000000000000aba9 .LASF1277
C:\Users\SOLDER~1\AppData\Local\Temp\cc0vShlo.s:19059  .debug_str:00000000000038b4 .LASF1278
C:\Users\SOLDER~1\AppData\Local\Temp\cc0vShlo.s:18593  .debug_str:0000000000001a40 .LASF1279
C:\Users\SOLDER~1\AppData\Local\Temp\cc0vShlo.s:19981  .debug_str:0000000000007446 .LASF1280
C:\Users\SOLDER~1\AppData\Local\Temp\cc0vShlo.s:19177  .debug_str:000000000000402e .LASF1281
C:\Users\SOLDER~1\AppData\Local\Temp\cc0vShlo.s:22489  .debug_str:000000000001188f .LASF1282
C:\Users\SOLDER~1\AppData\Local\Temp\cc0vShlo.s:28513  .debug_str:000000000002a2f3 .LASF1283
C:\Users\SOLDER~1\AppData\Local\Temp\cc0vShlo.s:23719  .debug_str:0000000000016963 .LASF1284
C:\Users\SOLDER~1\AppData\Local\Temp\cc0vShlo.s:21569  .debug_str:000000000000dc78 .LASF1285
C:\Users\SOLDER~1\AppData\Local\Temp\cc0vShlo.s:18235  .debug_str:0000000000000218 .LASF1286
GAS LISTING C:\Users\SOLDER~1\AppData\Local\Temp\cc0vShlo.s 			page 33


C:\Users\SOLDER~1\AppData\Local\Temp\cc0vShlo.s:22969  .debug_str:00000000000137bd .LASF1287
C:\Users\SOLDER~1\AppData\Local\Temp\cc0vShlo.s:23047  .debug_str:0000000000013d86 .LASF1288
C:\Users\SOLDER~1\AppData\Local\Temp\cc0vShlo.s:28887  .debug_str:000000000002bb08 .LASF1289
C:\Users\SOLDER~1\AppData\Local\Temp\cc0vShlo.s:21879  .debug_str:000000000000f0c0 .LASF1290
C:\Users\SOLDER~1\AppData\Local\Temp\cc0vShlo.s:20933  .debug_str:000000000000b286 .LASF1291
C:\Users\SOLDER~1\AppData\Local\Temp\cc0vShlo.s:28507  .debug_str:000000000002a290 .LASF1292
C:\Users\SOLDER~1\AppData\Local\Temp\cc0vShlo.s:26437  .debug_str:0000000000021a02 .LASF1293
C:\Users\SOLDER~1\AppData\Local\Temp\cc0vShlo.s:27941  .debug_str:0000000000027d87 .LASF1294
C:\Users\SOLDER~1\AppData\Local\Temp\cc0vShlo.s:23355  .debug_str:0000000000015226 .LASF1295
C:\Users\SOLDER~1\AppData\Local\Temp\cc0vShlo.s:21277  .debug_str:000000000000c971 .LASF1296
C:\Users\SOLDER~1\AppData\Local\Temp\cc0vShlo.s:29369  .debug_str:000000000002da60 .LASF1297
C:\Users\SOLDER~1\AppData\Local\Temp\cc0vShlo.s:20151  .debug_str:0000000000007f26 .LASF1298
C:\Users\SOLDER~1\AppData\Local\Temp\cc0vShlo.s:21545  .debug_str:000000000000dad1 .LASF1299
C:\Users\SOLDER~1\AppData\Local\Temp\cc0vShlo.s:28765  .debug_str:000000000002b33a .LASF1300
C:\Users\SOLDER~1\AppData\Local\Temp\cc0vShlo.s:23291  .debug_str:0000000000014df9 .LASF1301
C:\Users\SOLDER~1\AppData\Local\Temp\cc0vShlo.s:21383  .debug_str:000000000000d06f .LASF1302
C:\Users\SOLDER~1\AppData\Local\Temp\cc0vShlo.s:26743  .debug_str:0000000000022dd9 .LASF1303
C:\Users\SOLDER~1\AppData\Local\Temp\cc0vShlo.s:24385  .debug_str:0000000000019505 .LASF1304
C:\Users\SOLDER~1\AppData\Local\Temp\cc0vShlo.s:25103  .debug_str:000000000001c30d .LASF1305
C:\Users\SOLDER~1\AppData\Local\Temp\cc0vShlo.s:20621  .debug_str:0000000000009e1b .LASF1306
C:\Users\SOLDER~1\AppData\Local\Temp\cc0vShlo.s:28931  .debug_str:000000000002be12 .LASF1307
C:\Users\SOLDER~1\AppData\Local\Temp\cc0vShlo.s:28015  .debug_str:0000000000028270 .LASF1308
C:\Users\SOLDER~1\AppData\Local\Temp\cc0vShlo.s:23033  .debug_str:0000000000013c83 .LASF1309
C:\Users\SOLDER~1\AppData\Local\Temp\cc0vShlo.s:24663  .debug_str:000000000001a63d .LASF1310
C:\Users\SOLDER~1\AppData\Local\Temp\cc0vShlo.s:22845  .debug_str:0000000000012f83 .LASF1311
C:\Users\SOLDER~1\AppData\Local\Temp\cc0vShlo.s:28829  .debug_str:000000000002b75a .LASF1312
C:\Users\SOLDER~1\AppData\Local\Temp\cc0vShlo.s:23463  .debug_str:0000000000015947 .LASF1313
C:\Users\SOLDER~1\AppData\Local\Temp\cc0vShlo.s:23721  .debug_str:0000000000016987 .LASF1314
C:\Users\SOLDER~1\AppData\Local\Temp\cc0vShlo.s:29593  .debug_str:000000000002e8e0 .LASF1315
C:\Users\SOLDER~1\AppData\Local\Temp\cc0vShlo.s:18827  .debug_str:00000000000029c5 .LASF1316
C:\Users\SOLDER~1\AppData\Local\Temp\cc0vShlo.s:25825  .debug_str:000000000001f289 .LASF1317
C:\Users\SOLDER~1\AppData\Local\Temp\cc0vShlo.s:22459  .debug_str:000000000001167a .LASF1318
C:\Users\SOLDER~1\AppData\Local\Temp\cc0vShlo.s:20709  .debug_str:000000000000a401 .LASF1319
C:\Users\SOLDER~1\AppData\Local\Temp\cc0vShlo.s:23401  .debug_str:000000000001553e .LASF1320
C:\Users\SOLDER~1\AppData\Local\Temp\cc0vShlo.s:25159  .debug_str:000000000001c6cd .LASF1321
C:\Users\SOLDER~1\AppData\Local\Temp\cc0vShlo.s:29655  .debug_str:000000000002ec9f .LASF1322
C:\Users\SOLDER~1\AppData\Local\Temp\cc0vShlo.s:28599  .debug_str:000000000002a861 .LASF1323
C:\Users\SOLDER~1\AppData\Local\Temp\cc0vShlo.s:24807  .debug_str:000000000001af92 .LASF1324
C:\Users\SOLDER~1\AppData\Local\Temp\cc0vShlo.s:22759  .debug_str:00000000000129c6 .LASF1325
C:\Users\SOLDER~1\AppData\Local\Temp\cc0vShlo.s:24287  .debug_str:0000000000018e7c .LASF1326
C:\Users\SOLDER~1\AppData\Local\Temp\cc0vShlo.s:19625  .debug_str:0000000000005c83 .LASF1327
C:\Users\SOLDER~1\AppData\Local\Temp\cc0vShlo.s:29045  .debug_str:000000000002c571 .LASF1328
C:\Users\SOLDER~1\AppData\Local\Temp\cc0vShlo.s:19119  .debug_str:0000000000003c90 .LASF1329
C:\Users\SOLDER~1\AppData\Local\Temp\cc0vShlo.s:27877  .debug_str:0000000000027922 .LASF1330
C:\Users\SOLDER~1\AppData\Local\Temp\cc0vShlo.s:18393  .debug_str:0000000000000d9f .LASF1331
C:\Users\SOLDER~1\AppData\Local\Temp\cc0vShlo.s:28689  .debug_str:000000000002ae5e .LASF1332
C:\Users\SOLDER~1\AppData\Local\Temp\cc0vShlo.s:27201  .debug_str:0000000000024c23 .LASF1333
C:\Users\SOLDER~1\AppData\Local\Temp\cc0vShlo.s:29151  .debug_str:000000000002cc20 .LASF1334
C:\Users\SOLDER~1\AppData\Local\Temp\cc0vShlo.s:23083  .debug_str:0000000000013fd2 .LASF1335
C:\Users\SOLDER~1\AppData\Local\Temp\cc0vShlo.s:20645  .debug_str:0000000000009fae .LASF1336
C:\Users\SOLDER~1\AppData\Local\Temp\cc0vShlo.s:21393  .debug_str:000000000000d124 .LASF1337
C:\Users\SOLDER~1\AppData\Local\Temp\cc0vShlo.s:28389  .debug_str:0000000000029a9c .LASF1338
C:\Users\SOLDER~1\AppData\Local\Temp\cc0vShlo.s:25205  .debug_str:000000000001ca08 .LASF1339
C:\Users\SOLDER~1\AppData\Local\Temp\cc0vShlo.s:24347  .debug_str:0000000000019251 .LASF1340
C:\Users\SOLDER~1\AppData\Local\Temp\cc0vShlo.s:19281  .debug_str:00000000000046cc .LASF1341
C:\Users\SOLDER~1\AppData\Local\Temp\cc0vShlo.s:20929  .debug_str:000000000000b24e .LASF1342
C:\Users\SOLDER~1\AppData\Local\Temp\cc0vShlo.s:27043  .debug_str:0000000000024198 .LASF1343
GAS LISTING C:\Users\SOLDER~1\AppData\Local\Temp\cc0vShlo.s 			page 34


C:\Users\SOLDER~1\AppData\Local\Temp\cc0vShlo.s:21505  .debug_str:000000000000d86d .LASF1344
C:\Users\SOLDER~1\AppData\Local\Temp\cc0vShlo.s:27565  .debug_str:00000000000264b4 .LASF1345
C:\Users\SOLDER~1\AppData\Local\Temp\cc0vShlo.s:22411  .debug_str:000000000001137a .LASF1346
C:\Users\SOLDER~1\AppData\Local\Temp\cc0vShlo.s:26255  .debug_str:0000000000020e51 .LASF1347
C:\Users\SOLDER~1\AppData\Local\Temp\cc0vShlo.s:23099  .debug_str:000000000001410c .LASF1348
C:\Users\SOLDER~1\AppData\Local\Temp\cc0vShlo.s:18609  .debug_str:0000000000001b48 .LASF1349
C:\Users\SOLDER~1\AppData\Local\Temp\cc0vShlo.s:26665  .debug_str:00000000000228d7 .LASF1350
C:\Users\SOLDER~1\AppData\Local\Temp\cc0vShlo.s:24883  .debug_str:000000000001b485 .LASF1351
C:\Users\SOLDER~1\AppData\Local\Temp\cc0vShlo.s:20783  .debug_str:000000000000a914 .LASF1352
C:\Users\SOLDER~1\AppData\Local\Temp\cc0vShlo.s:21449  .debug_str:000000000000d4d7 .LASF1353
C:\Users\SOLDER~1\AppData\Local\Temp\cc0vShlo.s:25829  .debug_str:000000000001f2d4 .LASF1354
C:\Users\SOLDER~1\AppData\Local\Temp\cc0vShlo.s:24905  .debug_str:000000000001b5d5 .LASF1355
C:\Users\SOLDER~1\AppData\Local\Temp\cc0vShlo.s:21081  .debug_str:000000000000bc5b .LASF1356
C:\Users\SOLDER~1\AppData\Local\Temp\cc0vShlo.s:19041  .debug_str:0000000000003786 .LASF1357
C:\Users\SOLDER~1\AppData\Local\Temp\cc0vShlo.s:20281  .debug_str:000000000000878d .LASF1358
C:\Users\SOLDER~1\AppData\Local\Temp\cc0vShlo.s:27265  .debug_str:0000000000025041 .LASF1359
C:\Users\SOLDER~1\AppData\Local\Temp\cc0vShlo.s:25311  .debug_str:000000000001d12b .LASF1360
C:\Users\SOLDER~1\AppData\Local\Temp\cc0vShlo.s:26843  .debug_str:00000000000234a9 .LASF1361
C:\Users\SOLDER~1\AppData\Local\Temp\cc0vShlo.s:24225  .debug_str:0000000000018a3c .LASF1362
C:\Users\SOLDER~1\AppData\Local\Temp\cc0vShlo.s:26099  .debug_str:0000000000020429 .LASF1363
C:\Users\SOLDER~1\AppData\Local\Temp\cc0vShlo.s:19565  .debug_str:00000000000058a3 .LASF1364
C:\Users\SOLDER~1\AppData\Local\Temp\cc0vShlo.s:23455  .debug_str:00000000000158c9 .LASF1365
C:\Users\SOLDER~1\AppData\Local\Temp\cc0vShlo.s:25415  .debug_str:000000000001d76e .LASF1366
C:\Users\SOLDER~1\AppData\Local\Temp\cc0vShlo.s:23665  .debug_str:00000000000165f0 .LASF1367
C:\Users\SOLDER~1\AppData\Local\Temp\cc0vShlo.s:28411  .debug_str:0000000000029c34 .LASF1368
C:\Users\SOLDER~1\AppData\Local\Temp\cc0vShlo.s:29161  .debug_str:000000000002ccd5 .LASF1369
C:\Users\SOLDER~1\AppData\Local\Temp\cc0vShlo.s:29175  .debug_str:000000000002cddf .LASF1370
C:\Users\SOLDER~1\AppData\Local\Temp\cc0vShlo.s:21495  .debug_str:000000000000d7c8 .LASF1371
C:\Users\SOLDER~1\AppData\Local\Temp\cc0vShlo.s:20599  .debug_str:0000000000009c88 .LASF1372
C:\Users\SOLDER~1\AppData\Local\Temp\cc0vShlo.s:27021  .debug_str:000000000002403a .LASF1373
C:\Users\SOLDER~1\AppData\Local\Temp\cc0vShlo.s:28691  .debug_str:000000000002ae83 .LASF1374
C:\Users\SOLDER~1\AppData\Local\Temp\cc0vShlo.s:19769  .debug_str:0000000000006634 .LASF1375
C:\Users\SOLDER~1\AppData\Local\Temp\cc0vShlo.s:22807  .debug_str:0000000000012d0a .LASF1376
C:\Users\SOLDER~1\AppData\Local\Temp\cc0vShlo.s:20383  .debug_str:0000000000008e5c .LASF1377
C:\Users\SOLDER~1\AppData\Local\Temp\cc0vShlo.s:25301  .debug_str:000000000001d084 .LASF1378
C:\Users\SOLDER~1\AppData\Local\Temp\cc0vShlo.s:26573  .debug_str:0000000000022287 .LASF1379
C:\Users\SOLDER~1\AppData\Local\Temp\cc0vShlo.s:27289  .debug_str:00000000000251c7 .LASF1380
C:\Users\SOLDER~1\AppData\Local\Temp\cc0vShlo.s:22763  .debug_str:0000000000012a02 .LASF1381
C:\Users\SOLDER~1\AppData\Local\Temp\cc0vShlo.s:19381  .debug_str:0000000000004d21 .LASF1382
C:\Users\SOLDER~1\AppData\Local\Temp\cc0vShlo.s:29133  .debug_str:000000000002caed .LASF1383
C:\Users\SOLDER~1\AppData\Local\Temp\cc0vShlo.s:20331  .debug_str:0000000000008ac0 .LASF1384
C:\Users\SOLDER~1\AppData\Local\Temp\cc0vShlo.s:29221  .debug_str:000000000002d0fe .LASF1385
C:\Users\SOLDER~1\AppData\Local\Temp\cc0vShlo.s:22141  .debug_str:0000000000010209 .LASF1386
C:\Users\SOLDER~1\AppData\Local\Temp\cc0vShlo.s:28605  .debug_str:000000000002a8bd .LASF1387
C:\Users\SOLDER~1\AppData\Local\Temp\cc0vShlo.s:28843  .debug_str:000000000002b827 .LASF1388
C:\Users\SOLDER~1\AppData\Local\Temp\cc0vShlo.s:26767  .debug_str:0000000000022f73 .LASF1389
C:\Users\SOLDER~1\AppData\Local\Temp\cc0vShlo.s:28289  .debug_str:000000000002944c .LASF1390
C:\Users\SOLDER~1\AppData\Local\Temp\cc0vShlo.s:23605  .debug_str:0000000000016261 .LASF1391
C:\Users\SOLDER~1\AppData\Local\Temp\cc0vShlo.s:23931  .debug_str:0000000000017716 .LASF1392
C:\Users\SOLDER~1\AppData\Local\Temp\cc0vShlo.s:23197  .debug_str:00000000000147a1 .LASF1393
C:\Users\SOLDER~1\AppData\Local\Temp\cc0vShlo.s:22235  .debug_str:0000000000010829 .LASF1394
C:\Users\SOLDER~1\AppData\Local\Temp\cc0vShlo.s:22423  .debug_str:0000000000011461 .LASF1395
C:\Users\SOLDER~1\AppData\Local\Temp\cc0vShlo.s:27303  .debug_str:000000000002528a .LASF1396
C:\Users\SOLDER~1\AppData\Local\Temp\cc0vShlo.s:19715  .debug_str:0000000000006292 .LASF1397
C:\Users\SOLDER~1\AppData\Local\Temp\cc0vShlo.s:21711  .debug_str:000000000000e5f9 .LASF1398
C:\Users\SOLDER~1\AppData\Local\Temp\cc0vShlo.s:27067  .debug_str:0000000000024339 .LASF1399
C:\Users\SOLDER~1\AppData\Local\Temp\cc0vShlo.s:24703  .debug_str:000000000001a8d8 .LASF1400
GAS LISTING C:\Users\SOLDER~1\AppData\Local\Temp\cc0vShlo.s 			page 35


C:\Users\SOLDER~1\AppData\Local\Temp\cc0vShlo.s:25331  .debug_str:000000000001d28b .LASF1401
C:\Users\SOLDER~1\AppData\Local\Temp\cc0vShlo.s:20951  .debug_str:000000000000b3ef .LASF1402
C:\Users\SOLDER~1\AppData\Local\Temp\cc0vShlo.s:27183  .debug_str:0000000000024ae6 .LASF1403
C:\Users\SOLDER~1\AppData\Local\Temp\cc0vShlo.s:28365  .debug_str:00000000000298f1 .LASF1404
C:\Users\SOLDER~1\AppData\Local\Temp\cc0vShlo.s:23351  .debug_str:00000000000151e2 .LASF1405
C:\Users\SOLDER~1\AppData\Local\Temp\cc0vShlo.s:24985  .debug_str:000000000001bae2 .LASF1406
C:\Users\SOLDER~1\AppData\Local\Temp\cc0vShlo.s:24063  .debug_str:0000000000017fef .LASF1407
C:\Users\SOLDER~1\AppData\Local\Temp\cc0vShlo.s:18549  .debug_str:0000000000001789 .LASF1408
C:\Users\SOLDER~1\AppData\Local\Temp\cc0vShlo.s:24635  .debug_str:000000000001a45b .LASF1409
C:\Users\SOLDER~1\AppData\Local\Temp\cc0vShlo.s:19413  .debug_str:0000000000004efc .LASF1410
C:\Users\SOLDER~1\AppData\Local\Temp\cc0vShlo.s:19283  .debug_str:00000000000046f1 .LASF1411
C:\Users\SOLDER~1\AppData\Local\Temp\cc0vShlo.s:20019  .debug_str:00000000000076a4 .LASF1412
C:\Users\SOLDER~1\AppData\Local\Temp\cc0vShlo.s:26975  .debug_str:0000000000023d1d .LASF1413
C:\Users\SOLDER~1\AppData\Local\Temp\cc0vShlo.s:23673  .debug_str:000000000001665f .LASF1414
C:\Users\SOLDER~1\AppData\Local\Temp\cc0vShlo.s:21905  .debug_str:000000000000f280 .LASF1415
C:\Users\SOLDER~1\AppData\Local\Temp\cc0vShlo.s:24597  .debug_str:000000000001a1f5 .LASF1416
C:\Users\SOLDER~1\AppData\Local\Temp\cc0vShlo.s:25391  .debug_str:000000000001d62b .LASF1417
C:\Users\SOLDER~1\AppData\Local\Temp\cc0vShlo.s:21267  .debug_str:000000000000c8c8 .LASF1418
C:\Users\SOLDER~1\AppData\Local\Temp\cc0vShlo.s:28935  .debug_str:000000000002be59 .LASF1419
C:\Users\SOLDER~1\AppData\Local\Temp\cc0vShlo.s:25121  .debug_str:000000000001c423 .LASF1420
C:\Users\SOLDER~1\AppData\Local\Temp\cc0vShlo.s:18379  .debug_str:0000000000000c92 .LASF1421
C:\Users\SOLDER~1\AppData\Local\Temp\cc0vShlo.s:24601  .debug_str:000000000001a242 .LASF1422
C:\Users\SOLDER~1\AppData\Local\Temp\cc0vShlo.s:19865  .debug_str:0000000000006c7a .LASF1423
C:\Users\SOLDER~1\AppData\Local\Temp\cc0vShlo.s:29387  .debug_str:000000000002db7d .LASF1424
C:\Users\SOLDER~1\AppData\Local\Temp\cc0vShlo.s:19441  .debug_str:00000000000050ad .LASF1425
C:\Users\SOLDER~1\AppData\Local\Temp\cc0vShlo.s:28219  .debug_str:0000000000028f89 .LASF1426
C:\Users\SOLDER~1\AppData\Local\Temp\cc0vShlo.s:18691  .debug_str:00000000000020b3 .LASF1427
C:\Users\SOLDER~1\AppData\Local\Temp\cc0vShlo.s:23555  .debug_str:0000000000015f38 .LASF1428
C:\Users\SOLDER~1\AppData\Local\Temp\cc0vShlo.s:27439  .debug_str:0000000000025c0a .LASF1429
C:\Users\SOLDER~1\AppData\Local\Temp\cc0vShlo.s:29491  .debug_str:000000000002e205 .LASF1430
C:\Users\SOLDER~1\AppData\Local\Temp\cc0vShlo.s:18975  .debug_str:000000000000333d .LASF1431
C:\Users\SOLDER~1\AppData\Local\Temp\cc0vShlo.s:20967  .debug_str:000000000000b4e9 .LASF1432
C:\Users\SOLDER~1\AppData\Local\Temp\cc0vShlo.s:21633  .debug_str:000000000000e106 .LASF1433
C:\Users\SOLDER~1\AppData\Local\Temp\cc0vShlo.s:28709  .debug_str:000000000002afc8 .LASF1434
C:\Users\SOLDER~1\AppData\Local\Temp\cc0vShlo.s:25539  .debug_str:000000000001dfab .LASF1435
C:\Users\SOLDER~1\AppData\Local\Temp\cc0vShlo.s:20273  .debug_str:0000000000008710 .LASF1436
C:\Users\SOLDER~1\AppData\Local\Temp\cc0vShlo.s:19347  .debug_str:0000000000004b05 .LASF1437
C:\Users\SOLDER~1\AppData\Local\Temp\cc0vShlo.s:21253  .debug_str:000000000000c7ba .LASF1438
C:\Users\SOLDER~1\AppData\Local\Temp\cc0vShlo.s:28263  .debug_str:0000000000029280 .LASF1439
C:\Users\SOLDER~1\AppData\Local\Temp\cc0vShlo.s:22789  .debug_str:0000000000012bd3 .LASF1440
C:\Users\SOLDER~1\AppData\Local\Temp\cc0vShlo.s:28871  .debug_str:000000000002ba03 .LASF1441
C:\Users\SOLDER~1\AppData\Local\Temp\cc0vShlo.s:23607  .debug_str:0000000000016286 .LASF1442
C:\Users\SOLDER~1\AppData\Local\Temp\cc0vShlo.s:23565  .debug_str:0000000000015fcd .LASF1443
C:\Users\SOLDER~1\AppData\Local\Temp\cc0vShlo.s:26071  .debug_str:0000000000020248 .LASF1444
C:\Users\SOLDER~1\AppData\Local\Temp\cc0vShlo.s:19787  .debug_str:000000000000678a .LASF1445
C:\Users\SOLDER~1\AppData\Local\Temp\cc0vShlo.s:21705  .debug_str:000000000000e593 .LASF1446
C:\Users\SOLDER~1\AppData\Local\Temp\cc0vShlo.s:26121  .debug_str:00000000000205a5 .LASF1447
C:\Users\SOLDER~1\AppData\Local\Temp\cc0vShlo.s:28823  .debug_str:000000000002b6f0 .LASF1448
C:\Users\SOLDER~1\AppData\Local\Temp\cc0vShlo.s:20287  .debug_str:00000000000087f0 .LASF1449
C:\Users\SOLDER~1\AppData\Local\Temp\cc0vShlo.s:26131  .debug_str:0000000000020647 .LASF1450
C:\Users\SOLDER~1\AppData\Local\Temp\cc0vShlo.s:23097  .debug_str:00000000000140e7 .LASF1451
C:\Users\SOLDER~1\AppData\Local\Temp\cc0vShlo.s:21407  .debug_str:000000000000d20d .LASF1452
C:\Users\SOLDER~1\AppData\Local\Temp\cc0vShlo.s:19363  .debug_str:0000000000004c13 .LASF1453
C:\Users\SOLDER~1\AppData\Local\Temp\cc0vShlo.s:20857  .debug_str:000000000000add8 .LASF1454
C:\Users\SOLDER~1\AppData\Local\Temp\cc0vShlo.s:27595  .debug_str:00000000000266b7 .LASF1455
C:\Users\SOLDER~1\AppData\Local\Temp\cc0vShlo.s:25647  .debug_str:000000000001e6b3 .LASF1456
C:\Users\SOLDER~1\AppData\Local\Temp\cc0vShlo.s:27175  .debug_str:0000000000024a6a .LASF1457
GAS LISTING C:\Users\SOLDER~1\AppData\Local\Temp\cc0vShlo.s 			page 36


C:\Users\SOLDER~1\AppData\Local\Temp\cc0vShlo.s:24447  .debug_str:00000000000198ac .LASF1458
C:\Users\SOLDER~1\AppData\Local\Temp\cc0vShlo.s:26421  .debug_str:0000000000021920 .LASF1459
C:\Users\SOLDER~1\AppData\Local\Temp\cc0vShlo.s:19749  .debug_str:00000000000064d7 .LASF1460
C:\Users\SOLDER~1\AppData\Local\Temp\cc0vShlo.s:23799  .debug_str:0000000000016e53 .LASF1461
C:\Users\SOLDER~1\AppData\Local\Temp\cc0vShlo.s:23731  .debug_str:0000000000016a38 .LASF1462
C:\Users\SOLDER~1\AppData\Local\Temp\cc0vShlo.s:19679  .debug_str:0000000000006009 .LASF1463
C:\Users\SOLDER~1\AppData\Local\Temp\cc0vShlo.s:28733  .debug_str:000000000002b13b .LASF1464
C:\Users\SOLDER~1\AppData\Local\Temp\cc0vShlo.s:29413  .debug_str:000000000002dd2c .LASF1465
C:\Users\SOLDER~1\AppData\Local\Temp\cc0vShlo.s:25001  .debug_str:000000000001bc11 .LASF1466
C:\Users\SOLDER~1\AppData\Local\Temp\cc0vShlo.s:19825  .debug_str:0000000000006a09 .LASF1467
C:\Users\SOLDER~1\AppData\Local\Temp\cc0vShlo.s:20841  .debug_str:000000000000acb5 .LASF1468
C:\Users\SOLDER~1\AppData\Local\Temp\cc0vShlo.s:25373  .debug_str:000000000001d51c .LASF1469
C:\Users\SOLDER~1\AppData\Local\Temp\cc0vShlo.s:24007  .debug_str:0000000000017c01 .LASF1470
C:\Users\SOLDER~1\AppData\Local\Temp\cc0vShlo.s:21039  .debug_str:000000000000b98b .LASF1471
C:\Users\SOLDER~1\AppData\Local\Temp\cc0vShlo.s:26903  .debug_str:000000000002384c .LASF1472
C:\Users\SOLDER~1\AppData\Local\Temp\cc0vShlo.s:21547  .debug_str:000000000000daf6 .LASF1473
C:\Users\SOLDER~1\AppData\Local\Temp\cc0vShlo.s:27803  .debug_str:000000000002748a .LASF1474
C:\Users\SOLDER~1\AppData\Local\Temp\cc0vShlo.s:27769  .debug_str:0000000000027253 .LASF1475
C:\Users\SOLDER~1\AppData\Local\Temp\cc0vShlo.s:28495  .debug_str:000000000002a1cf .LASF1476
C:\Users\SOLDER~1\AppData\Local\Temp\cc0vShlo.s:24073  .debug_str:0000000000018097 .LASF1477
C:\Users\SOLDER~1\AppData\Local\Temp\cc0vShlo.s:20653  .debug_str:000000000000a039 .LASF1478
C:\Users\SOLDER~1\AppData\Local\Temp\cc0vShlo.s:18835  .debug_str:0000000000002a36 .LASF1479
C:\Users\SOLDER~1\AppData\Local\Temp\cc0vShlo.s:21497  .debug_str:000000000000d7ed .LASF1480
C:\Users\SOLDER~1\AppData\Local\Temp\cc0vShlo.s:29469  .debug_str:000000000002e0a6 .LASF1481
C:\Users\SOLDER~1\AppData\Local\Temp\cc0vShlo.s:22451  .debug_str:00000000000115ff .LASF1482
C:\Users\SOLDER~1\AppData\Local\Temp\cc0vShlo.s:21501  .debug_str:000000000000d834 .LASF1483
C:\Users\SOLDER~1\AppData\Local\Temp\cc0vShlo.s:29171  .debug_str:000000000002cd91 .LASF1484
C:\Users\SOLDER~1\AppData\Local\Temp\cc0vShlo.s:27095  .debug_str:000000000002451e .LASF1485
C:\Users\SOLDER~1\AppData\Local\Temp\cc0vShlo.s:28531  .debug_str:000000000002a430 .LASF1486
C:\Users\SOLDER~1\AppData\Local\Temp\cc0vShlo.s:23959  .debug_str:00000000000178ee .LASF1487
C:\Users\SOLDER~1\AppData\Local\Temp\cc0vShlo.s:21297  .debug_str:000000000000cac0 .LASF1488
C:\Users\SOLDER~1\AppData\Local\Temp\cc0vShlo.s:23521  .debug_str:0000000000015cd9 .LASF1489
C:\Users\SOLDER~1\AppData\Local\Temp\cc0vShlo.s:20697  .debug_str:000000000000a339 .LASF1490
C:\Users\SOLDER~1\AppData\Local\Temp\cc0vShlo.s:22651  .debug_str:00000000000122b2 .LASF1491
C:\Users\SOLDER~1\AppData\Local\Temp\cc0vShlo.s:27539  .debug_str:000000000002632a .LASF1492
C:\Users\SOLDER~1\AppData\Local\Temp\cc0vShlo.s:24673  .debug_str:000000000001a701 .LASF1493
C:\Users\SOLDER~1\AppData\Local\Temp\cc0vShlo.s:22059  .debug_str:000000000000fcfe .LASF1494
C:\Users\SOLDER~1\AppData\Local\Temp\cc0vShlo.s:27399  .debug_str:000000000002593b .LASF1495
C:\Users\SOLDER~1\AppData\Local\Temp\cc0vShlo.s:25021  .debug_str:000000000001bd7f .LASF1496
C:\Users\SOLDER~1\AppData\Local\Temp\cc0vShlo.s:25677  .debug_str:000000000001e8c1 .LASF1497
C:\Users\SOLDER~1\AppData\Local\Temp\cc0vShlo.s:21279  .debug_str:000000000000c996 .LASF1498
C:\Users\SOLDER~1\AppData\Local\Temp\cc0vShlo.s:29517  .debug_str:000000000002e3c0 .LASF1499
C:\Users\SOLDER~1\AppData\Local\Temp\cc0vShlo.s:28591  .debug_str:000000000002a7c9 .LASF1500
C:\Users\SOLDER~1\AppData\Local\Temp\cc0vShlo.s:23699  .debug_str:0000000000016813 .LASF1501
C:\Users\SOLDER~1\AppData\Local\Temp\cc0vShlo.s:25297  .debug_str:000000000001d03e .LASF1502
C:\Users\SOLDER~1\AppData\Local\Temp\cc0vShlo.s:25191  .debug_str:000000000001c902 .LASF1503
C:\Users\SOLDER~1\AppData\Local\Temp\cc0vShlo.s:19713  .debug_str:000000000000626e .LASF1504
C:\Users\SOLDER~1\AppData\Local\Temp\cc0vShlo.s:25807  .debug_str:000000000001f146 .LASF1505
C:\Users\SOLDER~1\AppData\Local\Temp\cc0vShlo.s:20603  .debug_str:0000000000009cf0 .LASF1506
C:\Users\SOLDER~1\AppData\Local\Temp\cc0vShlo.s:20567  .debug_str:0000000000009a88 .LASF1507
C:\Users\SOLDER~1\AppData\Local\Temp\cc0vShlo.s:21271  .debug_str:000000000000c90a .LASF1508
C:\Users\SOLDER~1\AppData\Local\Temp\cc0vShlo.s:28173  .debug_str:0000000000028c97 .LASF1509
C:\Users\SOLDER~1\AppData\Local\Temp\cc0vShlo.s:25589  .debug_str:000000000001e2b3 .LASF1510
C:\Users\SOLDER~1\AppData\Local\Temp\cc0vShlo.s:23105  .debug_str:0000000000014184 .LASF1511
C:\Users\SOLDER~1\AppData\Local\Temp\cc0vShlo.s:25751  .debug_str:000000000001ed79 .LASF1512
C:\Users\SOLDER~1\AppData\Local\Temp\cc0vShlo.s:25737  .debug_str:000000000001ec8e .LASF1513
C:\Users\SOLDER~1\AppData\Local\Temp\cc0vShlo.s:18697  .debug_str:0000000000002128 .LASF1514
GAS LISTING C:\Users\SOLDER~1\AppData\Local\Temp\cc0vShlo.s 			page 37


C:\Users\SOLDER~1\AppData\Local\Temp\cc0vShlo.s:29273  .debug_str:000000000002d426 .LASF1515
C:\Users\SOLDER~1\AppData\Local\Temp\cc0vShlo.s:25441  .debug_str:000000000001d91f .LASF1516
C:\Users\SOLDER~1\AppData\Local\Temp\cc0vShlo.s:26325  .debug_str:00000000000212e8 .LASF1517
C:\Users\SOLDER~1\AppData\Local\Temp\cc0vShlo.s:24823  .debug_str:000000000001b0a1 .LASF1518
C:\Users\SOLDER~1\AppData\Local\Temp\cc0vShlo.s:20201  .debug_str:0000000000008287 .LASF1519
C:\Users\SOLDER~1\AppData\Local\Temp\cc0vShlo.s:29625  .debug_str:000000000002eac3 .LASF1520
C:\Users\SOLDER~1\AppData\Local\Temp\cc0vShlo.s:27143  .debug_str:0000000000024830 .LASF1521
C:\Users\SOLDER~1\AppData\Local\Temp\cc0vShlo.s:28459  .debug_str:0000000000029f64 .LASF1522
C:\Users\SOLDER~1\AppData\Local\Temp\cc0vShlo.s:18937  .debug_str:00000000000030b0 .LASF1523
C:\Users\SOLDER~1\AppData\Local\Temp\cc0vShlo.s:23907  .debug_str:0000000000017592 .LASF1524
C:\Users\SOLDER~1\AppData\Local\Temp\cc0vShlo.s:27789  .debug_str:00000000000273a3 .LASF1525
C:\Users\SOLDER~1\AppData\Local\Temp\cc0vShlo.s:18271  .debug_str:000000000000048d .LASF1526
C:\Users\SOLDER~1\AppData\Local\Temp\cc0vShlo.s:23755  .debug_str:0000000000016b7e .LASF1527
C:\Users\SOLDER~1\AppData\Local\Temp\cc0vShlo.s:21209  .debug_str:000000000000c4f9 .LASF1528
C:\Users\SOLDER~1\AppData\Local\Temp\cc0vShlo.s:21979  .debug_str:000000000000f747 .LASF1529
C:\Users\SOLDER~1\AppData\Local\Temp\cc0vShlo.s:20173  .debug_str:00000000000080c1 .LASF1530
C:\Users\SOLDER~1\AppData\Local\Temp\cc0vShlo.s:26687  .debug_str:0000000000022a4f .LASF1531
C:\Users\SOLDER~1\AppData\Local\Temp\cc0vShlo.s:24893  .debug_str:000000000001b519 .LASF1532
C:\Users\SOLDER~1\AppData\Local\Temp\cc0vShlo.s:19745  .debug_str:000000000000648f .LASF1533
C:\Users\SOLDER~1\AppData\Local\Temp\cc0vShlo.s:21585  .debug_str:000000000000dd89 .LASF1534
C:\Users\SOLDER~1\AppData\Local\Temp\cc0vShlo.s:29461  .debug_str:000000000002e019 .LASF1535
C:\Users\SOLDER~1\AppData\Local\Temp\cc0vShlo.s:24017  .debug_str:0000000000017ca0 .LASF1536
C:\Users\SOLDER~1\AppData\Local\Temp\cc0vShlo.s:18587  .debug_str:00000000000019dc .LASF1537
C:\Users\SOLDER~1\AppData\Local\Temp\cc0vShlo.s:24861  .debug_str:000000000001b326 .LASF1538
C:\Users\SOLDER~1\AppData\Local\Temp\cc0vShlo.s:24733  .debug_str:000000000001aae2 .LASF1539
C:\Users\SOLDER~1\AppData\Local\Temp\cc0vShlo.s:25419  .debug_str:000000000001d7b6 .LASF1540
C:\Users\SOLDER~1\AppData\Local\Temp\cc0vShlo.s:20959  .debug_str:000000000000b478 .LASF1541
C:\Users\SOLDER~1\AppData\Local\Temp\cc0vShlo.s:29075  .debug_str:000000000002c747 .LASF1542
C:\Users\SOLDER~1\AppData\Local\Temp\cc0vShlo.s:27225  .debug_str:0000000000024dac .LASF1543
C:\Users\SOLDER~1\AppData\Local\Temp\cc0vShlo.s:18541  .debug_str:00000000000016fd .LASF1544
C:\Users\SOLDER~1\AppData\Local\Temp\cc0vShlo.s:22039  .debug_str:000000000000fba2 .LASF1545
C:\Users\SOLDER~1\AppData\Local\Temp\cc0vShlo.s:26455  .debug_str:0000000000021b3c .LASF1546
C:\Users\SOLDER~1\AppData\Local\Temp\cc0vShlo.s:25543  .debug_str:000000000001dff6 .LASF1547
C:\Users\SOLDER~1\AppData\Local\Temp\cc0vShlo.s:21737  .debug_str:000000000000e7e1 .LASF1548
C:\Users\SOLDER~1\AppData\Local\Temp\cc0vShlo.s:29329  .debug_str:000000000002d7b6 .LASF1549
C:\Users\SOLDER~1\AppData\Local\Temp\cc0vShlo.s:20103  .debug_str:0000000000007bd7 .LASF1550
C:\Users\SOLDER~1\AppData\Local\Temp\cc0vShlo.s:27931  .debug_str:0000000000027cdc .LASF1551
C:\Users\SOLDER~1\AppData\Local\Temp\cc0vShlo.s:26311  .debug_str:0000000000021200 .LASF1552
C:\Users\SOLDER~1\AppData\Local\Temp\cc0vShlo.s:27503  .debug_str:00000000000260a1 .LASF1553
C:\Users\SOLDER~1\AppData\Local\Temp\cc0vShlo.s:24763  .debug_str:000000000001ad03 .LASF1554
C:\Users\SOLDER~1\AppData\Local\Temp\cc0vShlo.s:26655  .debug_str:000000000002280f .LASF1555
C:\Users\SOLDER~1\AppData\Local\Temp\cc0vShlo.s:20155  .debug_str:0000000000007f71 .LASF1556
C:\Users\SOLDER~1\AppData\Local\Temp\cc0vShlo.s:24135  .debug_str:000000000001844f .LASF1557
C:\Users\SOLDER~1\AppData\Local\Temp\cc0vShlo.s:25991  .debug_str:000000000001fd28 .LASF1558
C:\Users\SOLDER~1\AppData\Local\Temp\cc0vShlo.s:20015  .debug_str:0000000000007668 .LASF1559
C:\Users\SOLDER~1\AppData\Local\Temp\cc0vShlo.s:28983  .debug_str:000000000002c179 .LASF1560
C:\Users\SOLDER~1\AppData\Local\Temp\cc0vShlo.s:18279  .debug_str:000000000000050d .LASF1561
C:\Users\SOLDER~1\AppData\Local\Temp\cc0vShlo.s:25225  .debug_str:000000000001cb50 .LASF1562
C:\Users\SOLDER~1\AppData\Local\Temp\cc0vShlo.s:22091  .debug_str:000000000000ff14 .LASF1563
C:\Users\SOLDER~1\AppData\Local\Temp\cc0vShlo.s:21161  .debug_str:000000000000c17c .LASF1564
C:\Users\SOLDER~1\AppData\Local\Temp\cc0vShlo.s:27681  .debug_str:0000000000026c80 .LASF1565
C:\Users\SOLDER~1\AppData\Local\Temp\cc0vShlo.s:23915  .debug_str:0000000000017610 .LASF1566
C:\Users\SOLDER~1\AppData\Local\Temp\cc0vShlo.s:22245  .debug_str:00000000000108e1 .LASF1567
C:\Users\SOLDER~1\AppData\Local\Temp\cc0vShlo.s:28203  .debug_str:0000000000028e6c .LASF1568
C:\Users\SOLDER~1\AppData\Local\Temp\cc0vShlo.s:22737  .debug_str:0000000000012837 .LASF1569
C:\Users\SOLDER~1\AppData\Local\Temp\cc0vShlo.s:29013  .debug_str:000000000002c363 .LASF1570
C:\Users\SOLDER~1\AppData\Local\Temp\cc0vShlo.s:28981  .debug_str:000000000002c155 .LASF1571
GAS LISTING C:\Users\SOLDER~1\AppData\Local\Temp\cc0vShlo.s 			page 38


C:\Users\SOLDER~1\AppData\Local\Temp\cc0vShlo.s:18241  .debug_str:0000000000000280 .LASF1572
C:\Users\SOLDER~1\AppData\Local\Temp\cc0vShlo.s:25203  .debug_str:000000000001c9e4 .LASF1573
C:\Users\SOLDER~1\AppData\Local\Temp\cc0vShlo.s:21845  .debug_str:000000000000eeba .LASF1574
C:\Users\SOLDER~1\AppData\Local\Temp\cc0vShlo.s:20115  .debug_str:0000000000007ccd .LASF1575
C:\Users\SOLDER~1\AppData\Local\Temp\cc0vShlo.s:22687  .debug_str:0000000000012523 .LASF1576
C:\Users\SOLDER~1\AppData\Local\Temp\cc0vShlo.s:18333  .debug_str:0000000000000974 .LASF1577
C:\Users\SOLDER~1\AppData\Local\Temp\cc0vShlo.s:22779  .debug_str:0000000000012b35 .LASF1578
C:\Users\SOLDER~1\AppData\Local\Temp\cc0vShlo.s:21835  .debug_str:000000000000ee0d .LASF1579
C:\Users\SOLDER~1\AppData\Local\Temp\cc0vShlo.s:29423  .debug_str:000000000002ddbf .LASF1580
C:\Users\SOLDER~1\AppData\Local\Temp\cc0vShlo.s:27345  .debug_str:000000000002556f .LASF1581
C:\Users\SOLDER~1\AppData\Local\Temp\cc0vShlo.s:28863  .debug_str:000000000002b970 .LASF1582
C:\Users\SOLDER~1\AppData\Local\Temp\cc0vShlo.s:24277  .debug_str:0000000000018dcd .LASF1583
C:\Users\SOLDER~1\AppData\Local\Temp\cc0vShlo.s:22203  .debug_str:00000000000105f0 .LASF1584
C:\Users\SOLDER~1\AppData\Local\Temp\cc0vShlo.s:23771  .debug_str:0000000000016c64 .LASF1585
C:\Users\SOLDER~1\AppData\Local\Temp\cc0vShlo.s:21037  .debug_str:000000000000b966 .LASF1586
C:\Users\SOLDER~1\AppData\Local\Temp\cc0vShlo.s:23011  .debug_str:0000000000013b12 .LASF1587
C:\Users\SOLDER~1\AppData\Local\Temp\cc0vShlo.s:27881  .debug_str:0000000000027963 .LASF1588
C:\Users\SOLDER~1\AppData\Local\Temp\cc0vShlo.s:20385  .debug_str:0000000000008e80 .LASF1589
C:\Users\SOLDER~1\AppData\Local\Temp\cc0vShlo.s:22307  .debug_str:0000000000010cc6 .LASF1590
C:\Users\SOLDER~1\AppData\Local\Temp\cc0vShlo.s:27643  .debug_str:0000000000026a14 .LASF1591
C:\Users\SOLDER~1\AppData\Local\Temp\cc0vShlo.s:25249  .debug_str:000000000001ccf6 .LASF1592
C:\Users\SOLDER~1\AppData\Local\Temp\cc0vShlo.s:27895  .debug_str:0000000000027a64 .LASF1593
C:\Users\SOLDER~1\AppData\Local\Temp\cc0vShlo.s:21521  .debug_str:000000000000d954 .LASF1594
C:\Users\SOLDER~1\AppData\Local\Temp\cc0vShlo.s:18383  .debug_str:0000000000000cdc .LASF1595
C:\Users\SOLDER~1\AppData\Local\Temp\cc0vShlo.s:28929  .debug_str:000000000002bded .LASF1596
C:\Users\SOLDER~1\AppData\Local\Temp\cc0vShlo.s:23955  .debug_str:00000000000178a5 .LASF1597
C:\Users\SOLDER~1\AppData\Local\Temp\cc0vShlo.s:26799  .debug_str:00000000000231a7 .LASF1598
C:\Users\SOLDER~1\AppData\Local\Temp\cc0vShlo.s:29059  .debug_str:000000000002c637 .LASF1599
C:\Users\SOLDER~1\AppData\Local\Temp\cc0vShlo.s:23595  .debug_str:00000000000161a7 .LASF1600
C:\Users\SOLDER~1\AppData\Local\Temp\cc0vShlo.s:18213  .debug_str:00000000000000e7 .LASF1601
C:\Users\SOLDER~1\AppData\Local\Temp\cc0vShlo.s:24391  .debug_str:0000000000019577 .LASF1602
C:\Users\SOLDER~1\AppData\Local\Temp\cc0vShlo.s:24359  .debug_str:0000000000019337 .LASF1603
C:\Users\SOLDER~1\AppData\Local\Temp\cc0vShlo.s:25041  .debug_str:000000000001beaf .LASF1604
C:\Users\SOLDER~1\AppData\Local\Temp\cc0vShlo.s:20575  .debug_str:0000000000009b18 .LASF1605
C:\Users\SOLDER~1\AppData\Local\Temp\cc0vShlo.s:28671  .debug_str:000000000002acf1 .LASF1606
C:\Users\SOLDER~1\AppData\Local\Temp\cc0vShlo.s:26899  .debug_str:000000000002380f .LASF1607
C:\Users\SOLDER~1\AppData\Local\Temp\cc0vShlo.s:29533  .debug_str:000000000002e4e0 .LASF1608
C:\Users\SOLDER~1\AppData\Local\Temp\cc0vShlo.s:23087  .debug_str:0000000000014018 .LASF1609
C:\Users\SOLDER~1\AppData\Local\Temp\cc0vShlo.s:21619  .debug_str:000000000000dff7 .LASF1610
C:\Users\SOLDER~1\AppData\Local\Temp\cc0vShlo.s:25867  .debug_str:000000000001f563 .LASF1611
C:\Users\SOLDER~1\AppData\Local\Temp\cc0vShlo.s:18877  .debug_str:0000000000002cba .LASF1612
C:\Users\SOLDER~1\AppData\Local\Temp\cc0vShlo.s:26203  .debug_str:0000000000020ae2 .LASF1613
C:\Users\SOLDER~1\AppData\Local\Temp\cc0vShlo.s:27689  .debug_str:0000000000026d06 .LASF1614
C:\Users\SOLDER~1\AppData\Local\Temp\cc0vShlo.s:23117  .debug_str:0000000000014258 .LASF1615
C:\Users\SOLDER~1\AppData\Local\Temp\cc0vShlo.s:20237  .debug_str:00000000000084d4 .LASF1616
C:\Users\SOLDER~1\AppData\Local\Temp\cc0vShlo.s:22597  .debug_str:0000000000011f57 .LASF1617
C:\Users\SOLDER~1\AppData\Local\Temp\cc0vShlo.s:19897  .debug_str:0000000000006ec4 .LASF1618
C:\Users\SOLDER~1\AppData\Local\Temp\cc0vShlo.s:21831  .debug_str:000000000000edc2 .LASF1619
C:\Users\SOLDER~1\AppData\Local\Temp\cc0vShlo.s:26729  .debug_str:0000000000022cf8 .LASF1620
C:\Users\SOLDER~1\AppData\Local\Temp\cc0vShlo.s:19217  .debug_str:00000000000042ba .LASF1621
C:\Users\SOLDER~1\AppData\Local\Temp\cc0vShlo.s:21129  .debug_str:000000000000bf4b .LASF1622
C:\Users\SOLDER~1\AppData\Local\Temp\cc0vShlo.s:26489  .debug_str:0000000000021d6a .LASF1623
C:\Users\SOLDER~1\AppData\Local\Temp\cc0vShlo.s:24161  .debug_str:0000000000018614 .LASF1624
C:\Users\SOLDER~1\AppData\Local\Temp\cc0vShlo.s:24875  .debug_str:000000000001b3fc .LASF1625
C:\Users\SOLDER~1\AppData\Local\Temp\cc0vShlo.s:20391  .debug_str:0000000000008ee5 .LASF1626
C:\Users\SOLDER~1\AppData\Local\Temp\cc0vShlo.s:28681  .debug_str:000000000002ad9b .LASF1627
C:\Users\SOLDER~1\AppData\Local\Temp\cc0vShlo.s:27763  .debug_str:00000000000271f7 .LASF1628
GAS LISTING C:\Users\SOLDER~1\AppData\Local\Temp\cc0vShlo.s 			page 39


C:\Users\SOLDER~1\AppData\Local\Temp\cc0vShlo.s:20353  .debug_str:0000000000008c2a .LASF1629
C:\Users\SOLDER~1\AppData\Local\Temp\cc0vShlo.s:24423  .debug_str:000000000001971f .LASF1630
C:\Users\SOLDER~1\AppData\Local\Temp\cc0vShlo.s:21827  .debug_str:000000000000ed7c .LASF1631
C:\Users\SOLDER~1\AppData\Local\Temp\cc0vShlo.s:27707  .debug_str:0000000000026e27 .LASF1632
C:\Users\SOLDER~1\AppData\Local\Temp\cc0vShlo.s:22363  .debug_str:000000000001105a .LASF1633
C:\Users\SOLDER~1\AppData\Local\Temp\cc0vShlo.s:28609  .debug_str:000000000002a90a .LASF1634
C:\Users\SOLDER~1\AppData\Local\Temp\cc0vShlo.s:26985  .debug_str:0000000000023dcb .LASF1635
C:\Users\SOLDER~1\AppData\Local\Temp\cc0vShlo.s:29299  .debug_str:000000000002d5f9 .LASF1636
C:\Users\SOLDER~1\AppData\Local\Temp\cc0vShlo.s:24829  .debug_str:000000000001b0ff .LASF1637
C:\Users\SOLDER~1\AppData\Local\Temp\cc0vShlo.s:21441  .debug_str:000000000000d451 .LASF1638
C:\Users\SOLDER~1\AppData\Local\Temp\cc0vShlo.s:19621  .debug_str:0000000000005c36 .LASF1639
C:\Users\SOLDER~1\AppData\Local\Temp\cc0vShlo.s:22313  .debug_str:0000000000010d26 .LASF1640
C:\Users\SOLDER~1\AppData\Local\Temp\cc0vShlo.s:24939  .debug_str:000000000001b7ea .LASF1641
C:\Users\SOLDER~1\AppData\Local\Temp\cc0vShlo.s:29401  .debug_str:000000000002dc79 .LASF1642
C:\Users\SOLDER~1\AppData\Local\Temp\cc0vShlo.s:28367  .debug_str:0000000000029916 .LASF1643
C:\Users\SOLDER~1\AppData\Local\Temp\cc0vShlo.s:24575  .debug_str:000000000001a09f .LASF1644
C:\Users\SOLDER~1\AppData\Local\Temp\cc0vShlo.s:22507  .debug_str:0000000000011994 .LASF1645
C:\Users\SOLDER~1\AppData\Local\Temp\cc0vShlo.s:24051  .debug_str:0000000000017f10 .LASF1646
C:\Users\SOLDER~1\AppData\Local\Temp\cc0vShlo.s:19369  .debug_str:0000000000004c77 .LASF1647
C:\Users\SOLDER~1\AppData\Local\Temp\cc0vShlo.s:23219  .debug_str:0000000000014943 .LASF1648
C:\Users\SOLDER~1\AppData\Local\Temp\cc0vShlo.s:18873  .debug_str:0000000000002c79 .LASF1649
C:\Users\SOLDER~1\AppData\Local\Temp\cc0vShlo.s:27623  .debug_str:00000000000268b4 .LASF1650
C:\Users\SOLDER~1\AppData\Local\Temp\cc0vShlo.s:29599  .debug_str:000000000002e940 .LASF1651
C:\Users\SOLDER~1\AppData\Local\Temp\cc0vShlo.s:18985  .debug_str:00000000000033f9 .LASF1652
C:\Users\SOLDER~1\AppData\Local\Temp\cc0vShlo.s:26955  .debug_str:0000000000023bc2 .LASF1653
C:\Users\SOLDER~1\AppData\Local\Temp\cc0vShlo.s:28901  .debug_str:000000000002bbd8 .LASF1654
C:\Users\SOLDER~1\AppData\Local\Temp\cc0vShlo.s:22823  .debug_str:0000000000012e05 .LASF1655
C:\Users\SOLDER~1\AppData\Local\Temp\cc0vShlo.s:20413  .debug_str:0000000000009067 .LASF1656
C:\Users\SOLDER~1\AppData\Local\Temp\cc0vShlo.s:23129  .debug_str:0000000000014318 .LASF1657
C:\Users\SOLDER~1\AppData\Local\Temp\cc0vShlo.s:28119  .debug_str:0000000000028937 .LASF1658
C:\Users\SOLDER~1\AppData\Local\Temp\cc0vShlo.s:24979  .debug_str:000000000001ba86 .LASF1659
C:\Users\SOLDER~1\AppData\Local\Temp\cc0vShlo.s:24107  .debug_str:00000000000182a2 .LASF1660
C:\Users\SOLDER~1\AppData\Local\Temp\cc0vShlo.s:19045  .debug_str:00000000000037cb .LASF1661
C:\Users\SOLDER~1\AppData\Local\Temp\cc0vShlo.s:20675  .debug_str:000000000000a1cf .LASF1662
C:\Users\SOLDER~1\AppData\Local\Temp\cc0vShlo.s:25975  .debug_str:000000000001fc28 .LASF1663
C:\Users\SOLDER~1\AppData\Local\Temp\cc0vShlo.s:20513  .debug_str:000000000000970a .LASF1664
C:\Users\SOLDER~1\AppData\Local\Temp\cc0vShlo.s:26557  .debug_str:000000000002215d .LASF1665
C:\Users\SOLDER~1\AppData\Local\Temp\cc0vShlo.s:21387  .debug_str:000000000000d0b9 .LASF1666
C:\Users\SOLDER~1\AppData\Local\Temp\cc0vShlo.s:21347  .debug_str:000000000000ce1c .LASF1667
C:\Users\SOLDER~1\AppData\Local\Temp\cc0vShlo.s:22087  .debug_str:000000000000fecc .LASF1668
C:\Users\SOLDER~1\AppData\Local\Temp\cc0vShlo.s:28987  .debug_str:000000000002c1c7 .LASF1669
C:\Users\SOLDER~1\AppData\Local\Temp\cc0vShlo.s:25599  .debug_str:000000000001e361 .LASF1670
C:\Users\SOLDER~1\AppData\Local\Temp\cc0vShlo.s:21543  .debug_str:000000000000daac .LASF1671
C:\Users\SOLDER~1\AppData\Local\Temp\cc0vShlo.s:26503  .debug_str:0000000000021e3b .LASF1672
C:\Users\SOLDER~1\AppData\Local\Temp\cc0vShlo.s:21199  .debug_str:000000000000c434 .LASF1673
C:\Users\SOLDER~1\AppData\Local\Temp\cc0vShlo.s:28803  .debug_str:000000000002b59f .LASF1674
C:\Users\SOLDER~1\AppData\Local\Temp\cc0vShlo.s:24659  .debug_str:000000000001a5fb .LASF1675
C:\Users\SOLDER~1\AppData\Local\Temp\cc0vShlo.s:20837  .debug_str:000000000000ac6b .LASF1676
C:\Users\SOLDER~1\AppData\Local\Temp\cc0vShlo.s:18795  .debug_str:0000000000002794 .LASF1677
C:\Users\SOLDER~1\AppData\Local\Temp\cc0vShlo.s:20303  .debug_str:00000000000088de .LASF1678
C:\Users\SOLDER~1\AppData\Local\Temp\cc0vShlo.s:27019  .debug_str:0000000000024014 .LASF1679
C:\Users\SOLDER~1\AppData\Local\Temp\cc0vShlo.s:25075  .debug_str:000000000001c12e .LASF1680
C:\Users\SOLDER~1\AppData\Local\Temp\cc0vShlo.s:29089  .debug_str:000000000002c81e .LASF1681
C:\Users\SOLDER~1\AppData\Local\Temp\cc0vShlo.s:23987  .debug_str:0000000000017aaf .LASF1682
C:\Users\SOLDER~1\AppData\Local\Temp\cc0vShlo.s:25875  .debug_str:000000000001f5f0 .LASF1683
C:\Users\SOLDER~1\AppData\Local\Temp\cc0vShlo.s:19319  .debug_str:0000000000004939 .LASF1684
C:\Users\SOLDER~1\AppData\Local\Temp\cc0vShlo.s:23209  .debug_str:00000000000148a6 .LASF1685
GAS LISTING C:\Users\SOLDER~1\AppData\Local\Temp\cc0vShlo.s 			page 40


C:\Users\SOLDER~1\AppData\Local\Temp\cc0vShlo.s:25177  .debug_str:000000000001c7f8 .LASF1686
C:\Users\SOLDER~1\AppData\Local\Temp\cc0vShlo.s:19101  .debug_str:0000000000003b71 .LASF1687
C:\Users\SOLDER~1\AppData\Local\Temp\cc0vShlo.s:28141  .debug_str:0000000000028a81 .LASF1688
C:\Users\SOLDER~1\AppData\Local\Temp\cc0vShlo.s:28913  .debug_str:000000000002bcb9 .LASF1689
C:\Users\SOLDER~1\AppData\Local\Temp\cc0vShlo.s:24449  .debug_str:00000000000198d1 .LASF1690
C:\Users\SOLDER~1\AppData\Local\Temp\cc0vShlo.s:21245  .debug_str:000000000000c735 .LASF1691
C:\Users\SOLDER~1\AppData\Local\Temp\cc0vShlo.s:20363  .debug_str:0000000000008ceb .LASF1692
C:\Users\SOLDER~1\AppData\Local\Temp\cc0vShlo.s:21743  .debug_str:000000000000e846 .LASF1693
C:\Users\SOLDER~1\AppData\Local\Temp\cc0vShlo.s:28443  .debug_str:0000000000029e38 .LASF1694
C:\Users\SOLDER~1\AppData\Local\Temp\cc0vShlo.s:25029  .debug_str:000000000001bde6 .LASF1695
C:\Users\SOLDER~1\AppData\Local\Temp\cc0vShlo.s:24765  .debug_str:000000000001ad28 .LASF1696
C:\Users\SOLDER~1\AppData\Local\Temp\cc0vShlo.s:18979  .debug_str:000000000000338c .LASF1697
C:\Users\SOLDER~1\AppData\Local\Temp\cc0vShlo.s:25629  .debug_str:000000000001e58d .LASF1698
C:\Users\SOLDER~1\AppData\Local\Temp\cc0vShlo.s:25503  .debug_str:000000000001dd76 .LASF1699
C:\Users\SOLDER~1\AppData\Local\Temp\cc0vShlo.s:26205  .debug_str:0000000000020b08 .LASF1700
C:\Users\SOLDER~1\AppData\Local\Temp\cc0vShlo.s:21753  .debug_str:000000000000e8ef .LASF1701
C:\Users\SOLDER~1\AppData\Local\Temp\cc0vShlo.s:18411  .debug_str:0000000000000eae .LASF1702
C:\Users\SOLDER~1\AppData\Local\Temp\cc0vShlo.s:28099  .debug_str:00000000000287f8 .LASF1703
C:\Users\SOLDER~1\AppData\Local\Temp\cc0vShlo.s:19303  .debug_str:0000000000004850 .LASF1704
C:\Users\SOLDER~1\AppData\Local\Temp\cc0vShlo.s:28975  .debug_str:000000000002c105 .LASF1705
C:\Users\SOLDER~1\AppData\Local\Temp\cc0vShlo.s:21873  .debug_str:000000000000f05e .LASF1706
C:\Users\SOLDER~1\AppData\Local\Temp\cc0vShlo.s:20925  .debug_str:000000000000b20d .LASF1707
C:\Users\SOLDER~1\AppData\Local\Temp\cc0vShlo.s:28589  .debug_str:000000000002a7a3 .LASF1708
C:\Users\SOLDER~1\AppData\Local\Temp\cc0vShlo.s:26513  .debug_str:0000000000021edc .LASF1709
C:\Users\SOLDER~1\AppData\Local\Temp\cc0vShlo.s:22905  .debug_str:0000000000013364 .LASF1710
C:\Users\SOLDER~1\AppData\Local\Temp\cc0vShlo.s:23347  .debug_str:00000000000151ac .LASF1711
C:\Users\SOLDER~1\AppData\Local\Temp\cc0vShlo.s:29499  .debug_str:000000000002e2a0 .LASF1712
C:\Users\SOLDER~1\AppData\Local\Temp\cc0vShlo.s:22947  .debug_str:0000000000013641 .LASF1713
C:\Users\SOLDER~1\AppData\Local\Temp\cc0vShlo.s:20231  .debug_str:0000000000008460 .LASF1714
C:\Users\SOLDER~1\AppData\Local\Temp\cc0vShlo.s:22185  .debug_str:00000000000104fd .LASF1715
C:\Users\SOLDER~1\AppData\Local\Temp\cc0vShlo.s:19987  .debug_str:00000000000074b1 .LASF1716
C:\Users\SOLDER~1\AppData\Local\Temp\cc0vShlo.s:18705  .debug_str:00000000000021ae .LASF1717
C:\Users\SOLDER~1\AppData\Local\Temp\cc0vShlo.s:21463  .debug_str:000000000000d5a1 .LASF1718
C:\Users\SOLDER~1\AppData\Local\Temp\cc0vShlo.s:26819  .debug_str:0000000000023301 .LASF1719
C:\Users\SOLDER~1\AppData\Local\Temp\cc0vShlo.s:24469  .debug_str:0000000000019a1e .LASF1720
C:\Users\SOLDER~1\AppData\Local\Temp\cc0vShlo.s:25189  .debug_str:000000000001c8dc .LASF1721
C:\Users\SOLDER~1\AppData\Local\Temp\cc0vShlo.s:20699  .debug_str:000000000000a35e .LASF1722
C:\Users\SOLDER~1\AppData\Local\Temp\cc0vShlo.s:29019  .debug_str:000000000002c3c0 .LASF1723
C:\Users\SOLDER~1\AppData\Local\Temp\cc0vShlo.s:28097  .debug_str:00000000000287d2 .LASF1724
C:\Users\SOLDER~1\AppData\Local\Temp\cc0vShlo.s:23111  .debug_str:00000000000141f9 .LASF1725
C:\Users\SOLDER~1\AppData\Local\Temp\cc0vShlo.s:24743  .debug_str:000000000001abc3 .LASF1726
C:\Users\SOLDER~1\AppData\Local\Temp\cc0vShlo.s:21443  .debug_str:000000000000d476 .LASF1727
C:\Users\SOLDER~1\AppData\Local\Temp\cc0vShlo.s:27405  .debug_str:00000000000259a6 .LASF1728
C:\Users\SOLDER~1\AppData\Local\Temp\cc0vShlo.s:23413  .debug_str:00000000000155fa .LASF1729
C:\Users\SOLDER~1\AppData\Local\Temp\cc0vShlo.s:19105  .debug_str:0000000000003bae .LASF1730
C:\Users\SOLDER~1\AppData\Local\Temp\cc0vShlo.s:28291  .debug_str:0000000000029471 .LASF1731
C:\Users\SOLDER~1\AppData\Local\Temp\cc0vShlo.s:29007  .debug_str:000000000002c2f5 .LASF1732
C:\Users\SOLDER~1\AppData\Local\Temp\cc0vShlo.s:24555  .debug_str:0000000000019f67 .LASF1733
C:\Users\SOLDER~1\AppData\Local\Temp\cc0vShlo.s:21071  .debug_str:000000000000bbb7 .LASF1734
C:\Users\SOLDER~1\AppData\Local\Temp\cc0vShlo.s:19799  .debug_str:000000000000686d .LASF1735
C:\Users\SOLDER~1\AppData\Local\Temp\cc0vShlo.s:22017  .debug_str:000000000000f9fb .LASF1736
C:\Users\SOLDER~1\AppData\Local\Temp\cc0vShlo.s:23591  .debug_str:000000000001616e .LASF1737
C:\Users\SOLDER~1\AppData\Local\Temp\cc0vShlo.s:19057  .debug_str:000000000000388f .LASF1738
C:\Users\SOLDER~1\AppData\Local\Temp\cc0vShlo.s:19607  .debug_str:0000000000005b81 .LASF1739
C:\Users\SOLDER~1\AppData\Local\Temp\cc0vShlo.s:27245  .debug_str:0000000000024ef8 .LASF1740
C:\Users\SOLDER~1\AppData\Local\Temp\cc0vShlo.s:25135  .debug_str:000000000001c536 .LASF1741
C:\Users\SOLDER~1\AppData\Local\Temp\cc0vShlo.s:28957  .debug_str:000000000002bff1 .LASF1742
GAS LISTING C:\Users\SOLDER~1\AppData\Local\Temp\cc0vShlo.s 			page 41


C:\Users\SOLDER~1\AppData\Local\Temp\cc0vShlo.s:22023  .debug_str:000000000000fa5b .LASF1743
C:\Users\SOLDER~1\AppData\Local\Temp\cc0vShlo.s:19971  .debug_str:00000000000073ac .LASF1744
C:\Users\SOLDER~1\AppData\Local\Temp\cc0vShlo.s:21593  .debug_str:000000000000de19 .LASF1745
C:\Users\SOLDER~1\AppData\Local\Temp\cc0vShlo.s:26889  .debug_str:000000000002379b .LASF1746
C:\Users\SOLDER~1\AppData\Local\Temp\cc0vShlo.s:20749  .debug_str:000000000000a6e2 .LASF1747
C:\Users\SOLDER~1\AppData\Local\Temp\cc0vShlo.s:25669  .debug_str:000000000001e83f .LASF1748
C:\Users\SOLDER~1\AppData\Local\Temp\cc0vShlo.s:29641  .debug_str:000000000002ebc4 .LASF1749
C:\Users\SOLDER~1\AppData\Local\Temp\cc0vShlo.s:20073  .debug_str:00000000000079dc .LASF1750
C:\Users\SOLDER~1\AppData\Local\Temp\cc0vShlo.s:25529  .debug_str:000000000001defd .LASF1751
C:\Users\SOLDER~1\AppData\Local\Temp\cc0vShlo.s:23057  .debug_str:0000000000013e2f .LASF1752
C:\Users\SOLDER~1\AppData\Local\Temp\cc0vShlo.s:23821  .debug_str:0000000000016fcc .LASF1753
C:\Users\SOLDER~1\AppData\Local\Temp\cc0vShlo.s:19289  .debug_str:0000000000004761 .LASF1754
C:\Users\SOLDER~1\AppData\Local\Temp\cc0vShlo.s:27571  .debug_str:000000000002652e .LASF1755
C:\Users\SOLDER~1\AppData\Local\Temp\cc0vShlo.s:26663  .debug_str:00000000000228b2 .LASF1756
C:\Users\SOLDER~1\AppData\Local\Temp\cc0vShlo.s:21767  .debug_str:000000000000e9cf .LASF1757
C:\Users\SOLDER~1\AppData\Local\Temp\cc0vShlo.s:23427  .debug_str:00000000000156eb .LASF1758
C:\Users\SOLDER~1\AppData\Local\Temp\cc0vShlo.s:25699  .debug_str:000000000001ea20 .LASF1759
C:\Users\SOLDER~1\AppData\Local\Temp\cc0vShlo.s:20225  .debug_str:0000000000008406 .LASF1760
C:\Users\SOLDER~1\AppData\Local\Temp\cc0vShlo.s:26277  .debug_str:0000000000020fe5 .LASF1761
C:\Users\SOLDER~1\AppData\Local\Temp\cc0vShlo.s:21093  .debug_str:000000000000bd08 .LASF1762
C:\Users\SOLDER~1\AppData\Local\Temp\cc0vShlo.s:18733  .debug_str:000000000000238f .LASF1763
C:\Users\SOLDER~1\AppData\Local\Temp\cc0vShlo.s:21683  .debug_str:000000000000e44b .LASF1764
C:\Users\SOLDER~1\AppData\Local\Temp\cc0vShlo.s:22543  .debug_str:0000000000011c01 .LASF1765
C:\Users\SOLDER~1\AppData\Local\Temp\cc0vShlo.s:25309  .debug_str:000000000001d107 .LASF1766
C:\Users\SOLDER~1\AppData\Local\Temp\cc0vShlo.s:23611  .debug_str:00000000000162c2 .LASF1767
C:\Users\SOLDER~1\AppData\Local\Temp\cc0vShlo.s:26235  .debug_str:0000000000020cf9 .LASF1768
C:\Users\SOLDER~1\AppData\Local\Temp\cc0vShlo.s:23887  .debug_str:0000000000017442 .LASF1769
C:\Users\SOLDER~1\AppData\Local\Temp\cc0vShlo.s:28309  .debug_str:000000000002957b .LASF1770
C:\Users\SOLDER~1\AppData\Local\Temp\cc0vShlo.s:27343  .debug_str:000000000002554a .LASF1771
C:\Users\SOLDER~1\AppData\Local\Temp\cc0vShlo.s:26219  .debug_str:0000000000020be5 .LASF1772
C:\Users\SOLDER~1\AppData\Local\Temp\cc0vShlo.s:21419  .debug_str:000000000000d2d6 .LASF1773
C:\Users\SOLDER~1\AppData\Local\Temp\cc0vShlo.s:22941  .debug_str:00000000000135d3 .LASF1774
C:\Users\SOLDER~1\AppData\Local\Temp\cc0vShlo.s:18321  .debug_str:000000000000086f .LASF1775
C:\Users\SOLDER~1\AppData\Local\Temp\cc0vShlo.s:27687  .debug_str:0000000000026ce1 .LASF1776
C:\Users\SOLDER~1\AppData\Local\Temp\cc0vShlo.s:29367  .debug_str:000000000002da3b .LASF1777
C:\Users\SOLDER~1\AppData\Local\Temp\cc0vShlo.s:26531  .debug_str:0000000000021fe0 .LASF1778
C:\Users\SOLDER~1\AppData\Local\Temp\cc0vShlo.s:25961  .debug_str:000000000001fb51 .LASF1779
C:\Users\SOLDER~1\AppData\Local\Temp\cc0vShlo.s:21969  .debug_str:000000000000f68e .LASF1780
C:\Users\SOLDER~1\AppData\Local\Temp\cc0vShlo.s:25903  .debug_str:000000000001f7af .LASF1781
C:\Users\SOLDER~1\AppData\Local\Temp\cc0vShlo.s:27795  .debug_str:000000000002740b .LASF1782
C:\Users\SOLDER~1\AppData\Local\Temp\cc0vShlo.s:21821  .debug_str:000000000000ed18 .LASF1783
C:\Users\SOLDER~1\AppData\Local\Temp\cc0vShlo.s:19307  .debug_str:000000000000488f .LASF1784
C:\Users\SOLDER~1\AppData\Local\Temp\cc0vShlo.s:20081  .debug_str:0000000000007a6a .LASF1785
C:\Users\SOLDER~1\AppData\Local\Temp\cc0vShlo.s:27025  .debug_str:000000000002407b .LASF1786
C:\Users\SOLDER~1\AppData\Local\Temp\cc0vShlo.s:23945  .debug_str:00000000000177e3 .LASF1787
C:\Users\SOLDER~1\AppData\Local\Temp\cc0vShlo.s:23017  .debug_str:0000000000013b76 .LASF1788
C:\Users\SOLDER~1\AppData\Local\Temp\cc0vShlo.s:29541  .debug_str:000000000002e565 .LASF1789
C:\Users\SOLDER~1\AppData\Local\Temp\cc0vShlo.s:19603  .debug_str:0000000000005b38 .LASF1790
C:\Users\SOLDER~1\AppData\Local\Temp\cc0vShlo.s:18497  .debug_str:000000000000141d .LASF1791
C:\Users\SOLDER~1\AppData\Local\Temp\cc0vShlo.s:24491  .debug_str:0000000000019b7d .LASF1792
C:\Users\SOLDER~1\AppData\Local\Temp\cc0vShlo.s:19083  .debug_str:0000000000003a46 .LASF1793
C:\Users\SOLDER~1\AppData\Local\Temp\cc0vShlo.s:25253  .debug_str:000000000001cd47 .LASF1794
C:\Users\SOLDER~1\AppData\Local\Temp\cc0vShlo.s:25217  .debug_str:000000000001cacb .LASF1795
C:\Users\SOLDER~1\AppData\Local\Temp\cc0vShlo.s:25927  .debug_str:000000000001f935 .LASF1796
C:\Users\SOLDER~1\AppData\Local\Temp\cc0vShlo.s:22293  .debug_str:0000000000010bc7 .LASF1797
C:\Users\SOLDER~1\AppData\Local\Temp\cc0vShlo.s:29581  .debug_str:000000000002e823 .LASF1798
C:\Users\SOLDER~1\AppData\Local\Temp\cc0vShlo.s:27807  .debug_str:00000000000274da .LASF1799
GAS LISTING C:\Users\SOLDER~1\AppData\Local\Temp\cc0vShlo.s 			page 42


C:\Users\SOLDER~1\AppData\Local\Temp\cc0vShlo.s:19029  .debug_str:00000000000036c2 .LASF1800
C:\Users\SOLDER~1\AppData\Local\Temp\cc0vShlo.s:20139  .debug_str:0000000000007e5b .LASF1801
C:\Users\SOLDER~1\AppData\Local\Temp\cc0vShlo.s:25799  .debug_str:000000000001f0bf .LASF1802
C:\Users\SOLDER~1\AppData\Local\Temp\cc0vShlo.s:23689  .debug_str:0000000000016767 .LASF1803
C:\Users\SOLDER~1\AppData\Local\Temp\cc0vShlo.s:19753  .debug_str:000000000000651d .LASF1804
C:\Users\SOLDER~1\AppData\Local\Temp\cc0vShlo.s:29189  .debug_str:000000000002cef6 .LASF1805
C:\Users\SOLDER~1\AppData\Local\Temp\cc0vShlo.s:19187  .debug_str:00000000000040e6 .LASF1806
C:\Users\SOLDER~1\AppData\Local\Temp\cc0vShlo.s:26039  .debug_str:0000000000020033 .LASF1807
C:\Users\SOLDER~1\AppData\Local\Temp\cc0vShlo.s:23895  .debug_str:00000000000174c3 .LASF1808
C:\Users\SOLDER~1\AppData\Local\Temp\cc0vShlo.s:25545  .debug_str:000000000001e01b .LASF1809
C:\Users\SOLDER~1\AppData\Local\Temp\cc0vShlo.s:22871  .debug_str:0000000000013131 .LASF1810
C:\Users\SOLDER~1\AppData\Local\Temp\cc0vShlo.s:24803  .debug_str:000000000001af50 .LASF1811
C:\Users\SOLDER~1\AppData\Local\Temp\cc0vShlo.s:18273  .debug_str:00000000000004b2 .LASF1812
C:\Users\SOLDER~1\AppData\Local\Temp\cc0vShlo.s:22215  .debug_str:00000000000106ba .LASF1813
C:\Users\SOLDER~1\AppData\Local\Temp\cc0vShlo.s:24145  .debug_str:0000000000018502 .LASF1814
C:\Users\SOLDER~1\AppData\Local\Temp\cc0vShlo.s:29505  .debug_str:000000000002e302 .LASF1815
C:\Users\SOLDER~1\AppData\Local\Temp\cc0vShlo.s:25495  .debug_str:000000000001dce3 .LASF1816
C:\Users\SOLDER~1\AppData\Local\Temp\cc0vShlo.s:28265  .debug_str:00000000000292a4 .LASF1817
C:\Users\SOLDER~1\AppData\Local\Temp\cc0vShlo.s:23359  .debug_str:000000000001525d .LASF1818
C:\Users\SOLDER~1\AppData\Local\Temp\cc0vShlo.s:20183  .debug_str:000000000000815e .LASF1819
C:\Users\SOLDER~1\AppData\Local\Temp\cc0vShlo.s:19259  .debug_str:0000000000004562 .LASF1820
C:\Users\SOLDER~1\AppData\Local\Temp\cc0vShlo.s:25713  .debug_str:000000000001eb08 .LASF1821
C:\Users\SOLDER~1\AppData\Local\Temp\cc0vShlo.s:27339  .debug_str:0000000000025503 .LASF1822
C:\Users\SOLDER~1\AppData\Local\Temp\cc0vShlo.s:22723  .debug_str:0000000000012755 .LASF1823
C:\Users\SOLDER~1\AppData\Local\Temp\cc0vShlo.s:28619  .debug_str:000000000002a9c3 .LASF1824
C:\Users\SOLDER~1\AppData\Local\Temp\cc0vShlo.s:23263  .debug_str:0000000000014c38 .LASF1825
C:\Users\SOLDER~1\AppData\Local\Temp\cc0vShlo.s:29527  .debug_str:000000000002e464 .LASF1826
C:\Users\SOLDER~1\AppData\Local\Temp\cc0vShlo.s:27949  .debug_str:0000000000027e16 .LASF1827
C:\Users\SOLDER~1\AppData\Local\Temp\cc0vShlo.s:18711  .debug_str:000000000000221c .LASF1828
C:\Users\SOLDER~1\AppData\Local\Temp\cc0vShlo.s:25705  .debug_str:000000000001ea80 .LASF1829
C:\Users\SOLDER~1\AppData\Local\Temp\cc0vShlo.s:20571  .debug_str:0000000000009ac3 .LASF1830
C:\Users\SOLDER~1\AppData\Local\Temp\cc0vShlo.s:20525  .debug_str:00000000000097d5 .LASF1831
C:\Users\SOLDER~1\AppData\Local\Temp\cc0vShlo.s:23211  .debug_str:00000000000148cc .LASF1832
C:\Users\SOLDER~1\AppData\Local\Temp\cc0vShlo.s:27863  .debug_str:000000000002782c .LASF1833
C:\Users\SOLDER~1\AppData\Local\Temp\cc0vShlo.s:20869  .debug_str:000000000000aead .LASF1834
C:\Users\SOLDER~1\AppData\Local\Temp\cc0vShlo.s:19847  .debug_str:0000000000006b57 .LASF1835
C:\Users\SOLDER~1\AppData\Local\Temp\cc0vShlo.s:27479  .debug_str:0000000000025ee4 .LASF1836
C:\Users\SOLDER~1\AppData\Local\Temp\cc0vShlo.s:25459  .debug_str:000000000001da51 .LASF1837
C:\Users\SOLDER~1\AppData\Local\Temp\cc0vShlo.s:26347  .debug_str:0000000000021460 .LASF1838
C:\Users\SOLDER~1\AppData\Local\Temp\cc0vShlo.s:22357  .debug_str:0000000000010ff4 .LASF1839
C:\Users\SOLDER~1\AppData\Local\Temp\cc0vShlo.s:21143  .debug_str:000000000000c04c .LASF1840
C:\Users\SOLDER~1\AppData\Local\Temp\cc0vShlo.s:21839  .debug_str:000000000000ee52 .LASF1841
C:\Users\SOLDER~1\AppData\Local\Temp\cc0vShlo.s:19129  .debug_str:0000000000003d34 .LASF1842
C:\Users\SOLDER~1\AppData\Local\Temp\cc0vShlo.s:21077  .debug_str:000000000000bc1e .LASF1843
C:\Users\SOLDER~1\AppData\Local\Temp\cc0vShlo.s:25995  .debug_str:000000000001fd69 .LASF1844
C:\Users\SOLDER~1\AppData\Local\Temp\cc0vShlo.s:18501  .debug_str:0000000000001461 .LASF1845
C:\Users\SOLDER~1\AppData\Local\Temp\cc0vShlo.s:20399  .debug_str:0000000000008f73 .LASF1846
C:\Users\SOLDER~1\AppData\Local\Temp\cc0vShlo.s:25777  .debug_str:000000000001ef3d .LASF1847
C:\Users\SOLDER~1\AppData\Local\Temp\cc0vShlo.s:23373  .debug_str:000000000001535d .LASF1848
C:\Users\SOLDER~1\AppData\Local\Temp\cc0vShlo.s:24157  .debug_str:00000000000185cf .LASF1849
C:\Users\SOLDER~1\AppData\Local\Temp\cc0vShlo.s:19629  .debug_str:0000000000005cd0 .LASF1850
C:\Users\SOLDER~1\AppData\Local\Temp\cc0vShlo.s:27907  .debug_str:0000000000027b4d .LASF1851
C:\Users\SOLDER~1\AppData\Local\Temp\cc0vShlo.s:27001  .debug_str:0000000000023ec9 .LASF1852
C:\Users\SOLDER~1\AppData\Local\Temp\cc0vShlo.s:28197  .debug_str:0000000000028df8 .LASF1853
C:\Users\SOLDER~1\AppData\Local\Temp\cc0vShlo.s:23683  .debug_str:0000000000016707 .LASF1854
C:\Users\SOLDER~1\AppData\Local\Temp\cc0vShlo.s:26841  .debug_str:0000000000023485 .LASF1855
C:\Users\SOLDER~1\AppData\Local\Temp\cc0vShlo.s:24517  .debug_str:0000000000019cfa .LASF1856
GAS LISTING C:\Users\SOLDER~1\AppData\Local\Temp\cc0vShlo.s 			page 43


C:\Users\SOLDER~1\AppData\Local\Temp\cc0vShlo.s:27453  .debug_str:0000000000025d21 .LASF1857
C:\Users\SOLDER~1\AppData\Local\Temp\cc0vShlo.s:22309  .debug_str:0000000000010ceb .LASF1858
C:\Users\SOLDER~1\AppData\Local\Temp\cc0vShlo.s:22277  .debug_str:0000000000010abe .LASF1859
C:\Users\SOLDER~1\AppData\Local\Temp\cc0vShlo.s:29101  .debug_str:000000000002c8d9 .LASF1860
C:\Users\SOLDER~1\AppData\Local\Temp\cc0vShlo.s:20855  .debug_str:000000000000adb4 .LASF1861
C:\Users\SOLDER~1\AppData\Local\Temp\cc0vShlo.s:26469  .debug_str:0000000000021c26 .LASF1862
C:\Users\SOLDER~1\AppData\Local\Temp\cc0vShlo.s:24779  .debug_str:000000000001ae0f .LASF1863
C:\Users\SOLDER~1\AppData\Local\Temp\cc0vShlo.s:27401  .debug_str:0000000000025960 .LASF1864
C:\Users\SOLDER~1\AppData\Local\Temp\cc0vShlo.s:24213  .debug_str:000000000001897a .LASF1865
C:\Users\SOLDER~1\AppData\Local\Temp\cc0vShlo.s:28627  .debug_str:000000000002aa4a .LASF1866
C:\Users\SOLDER~1\AppData\Local\Temp\cc0vShlo.s:27577  .debug_str:00000000000265a1 .LASF1867
C:\Users\SOLDER~1\AppData\Local\Temp\cc0vShlo.s:23833  .debug_str:000000000001709c .LASF1868
C:\Users\SOLDER~1\AppData\Local\Temp\cc0vShlo.s:21755  .debug_str:000000000000e914 .LASF1869
C:\Users\SOLDER~1\AppData\Local\Temp\cc0vShlo.s:23267  .debug_str:0000000000014c81 .LASF1870
C:\Users\SOLDER~1\AppData\Local\Temp\cc0vShlo.s:19007  .debug_str:000000000000354d .LASF1871
C:\Users\SOLDER~1\AppData\Local\Temp\cc0vShlo.s:28027  .debug_str:0000000000028325 .LASF1872
C:\Users\SOLDER~1\AppData\Local\Temp\cc0vShlo.s:27005  .debug_str:0000000000023f1b .LASF1873
C:\Users\SOLDER~1\AppData\Local\Temp\cc0vShlo.s:26855  .debug_str:000000000002357b .LASF1874
C:\Users\SOLDER~1\AppData\Local\Temp\cc0vShlo.s:28841  .debug_str:000000000002b802 .LASF1875
C:\Users\SOLDER~1\AppData\Local\Temp\cc0vShlo.s:26405  .debug_str:0000000000021808 .LASF1876
C:\Users\SOLDER~1\AppData\Local\Temp\cc0vShlo.s:25157  .debug_str:000000000001c6a8 .LASF1877
C:\Users\SOLDER~1\AppData\Local\Temp\cc0vShlo.s:28127  .debug_str:00000000000289b7 .LASF1878
C:\Users\SOLDER~1\AppData\Local\Temp\cc0vShlo.s:26809  .debug_str:000000000002325a .LASF1879
C:\Users\SOLDER~1\AppData\Local\Temp\cc0vShlo.s:19647  .debug_str:0000000000005de7 .LASF1880
C:\Users\SOLDER~1\AppData\Local\Temp\cc0vShlo.s:20409  .debug_str:0000000000009020 .LASF1881
C:\Users\SOLDER~1\AppData\Local\Temp\cc0vShlo.s:27355  .debug_str:0000000000025625 .LASF1882
C:\Users\SOLDER~1\AppData\Local\Temp\cc0vShlo.s:24255  .debug_str:0000000000018c4a .LASF1883
C:\Users\SOLDER~1\AppData\Local\Temp\cc0vShlo.s:18465  .debug_str:000000000000120d .LASF1884
C:\Users\SOLDER~1\AppData\Local\Temp\cc0vShlo.s:18317  .debug_str:0000000000000824 .LASF1885
C:\Users\SOLDER~1\AppData\Local\Temp\cc0vShlo.s:19947  .debug_str:00000000000071fe .LASF1886
C:\Users\SOLDER~1\AppData\Local\Temp\cc0vShlo.s:19659  .debug_str:0000000000005eab .LASF1887
C:\Users\SOLDER~1\AppData\Local\Temp\cc0vShlo.s:25637  .debug_str:000000000001e61c .LASF1888
C:\Users\SOLDER~1\AppData\Local\Temp\cc0vShlo.s:20277  .debug_str:0000000000008744 .LASF1889
C:\Users\SOLDER~1\AppData\Local\Temp\cc0vShlo.s:26497  .debug_str:0000000000021ddc .LASF1890
C:\Users\SOLDER~1\AppData\Local\Temp\cc0vShlo.s:26463  .debug_str:0000000000021bb5 .LASF1891
C:\Users\SOLDER~1\AppData\Local\Temp\cc0vShlo.s:27087  .debug_str:0000000000024498 .LASF1892
C:\Users\SOLDER~1\AppData\Local\Temp\cc0vShlo.s:18965  .debug_str:000000000000328c .LASF1893
C:\Users\SOLDER~1\AppData\Local\Temp\cc0vShlo.s:19269  .debug_str:000000000000460e .LASF1894
C:\Users\SOLDER~1\AppData\Local\Temp\cc0vShlo.s:29017  .debug_str:000000000002c39c .LASF1895
C:\Users\SOLDER~1\AppData\Local\Temp\cc0vShlo.s:20217  .debug_str:0000000000008393 .LASF1896
C:\Users\SOLDER~1\AppData\Local\Temp\cc0vShlo.s:20463  .debug_str:00000000000093de .LASF1897
C:\Users\SOLDER~1\AppData\Local\Temp\cc0vShlo.s:24839  .debug_str:000000000001b1ab .LASF1898
C:\Users\SOLDER~1\AppData\Local\Temp\cc0vShlo.s:23947  .debug_str:0000000000017808 .LASF1899
C:\Users\SOLDER~1\AppData\Local\Temp\cc0vShlo.s:20093  .debug_str:0000000000007b40 .LASF1900
C:\Users\SOLDER~1\AppData\Local\Temp\cc0vShlo.s:29529  .debug_str:000000000002e488 .LASF1901
C:\Users\SOLDER~1\AppData\Local\Temp\cc0vShlo.s:19525  .debug_str:00000000000055be .LASF1902
C:\Users\SOLDER~1\AppData\Local\Temp\cc0vShlo.s:29123  .debug_str:000000000002ca46 .LASF1903
C:\Users\SOLDER~1\AppData\Local\Temp\cc0vShlo.s:24357  .debug_str:0000000000019312 .LASF1904
C:\Users\SOLDER~1\AppData\Local\Temp\cc0vShlo.s:25881  .debug_str:000000000001f65d .LASF1905
C:\Users\SOLDER~1\AppData\Local\Temp\cc0vShlo.s:23205  .debug_str:000000000001484a .LASF1906
C:\Users\SOLDER~1\AppData\Local\Temp\cc0vShlo.s:25115  .debug_str:000000000001c3c0 .LASF1907
C:\Users\SOLDER~1\AppData\Local\Temp\cc0vShlo.s:18581  .debug_str:0000000000001978 .LASF1908
C:\Users\SOLDER~1\AppData\Local\Temp\cc0vShlo.s:28117  .debug_str:0000000000028912 .LASF1909
C:\Users\SOLDER~1\AppData\Local\Temp\cc0vShlo.s:24457  .debug_str:0000000000019953 .LASF1910
C:\Users\SOLDER~1\AppData\Local\Temp\cc0vShlo.s:18369  .debug_str:0000000000000be7 .LASF1911
C:\Users\SOLDER~1\AppData\Local\Temp\cc0vShlo.s:27375  .debug_str:0000000000025791 .LASF1912
C:\Users\SOLDER~1\AppData\Local\Temp\cc0vShlo.s:28139  .debug_str:0000000000028a5c .LASF1913
GAS LISTING C:\Users\SOLDER~1\AppData\Local\Temp\cc0vShlo.s 			page 44


C:\Users\SOLDER~1\AppData\Local\Temp\cc0vShlo.s:23707  .debug_str:00000000000168a1 .LASF1914
C:\Users\SOLDER~1\AppData\Local\Temp\cc0vShlo.s:28893  .debug_str:000000000002bb5c .LASF1915
C:\Users\SOLDER~1\AppData\Local\Temp\cc0vShlo.s:19597  .debug_str:0000000000005acb .LASF1916
C:\Users\SOLDER~1\AppData\Local\Temp\cc0vShlo.s:26035  .debug_str:000000000001fffb .LASF1917
C:\Users\SOLDER~1\AppData\Local\Temp\cc0vShlo.s:24629  .debug_str:000000000001a40e .LASF1918
C:\Users\SOLDER~1\AppData\Local\Temp\cc0vShlo.s:23957  .debug_str:00000000000178ca .LASF1919
C:\Users\SOLDER~1\AppData\Local\Temp\cc0vShlo.s:18453  .debug_str:000000000000114a .LASF1920
C:\Users\SOLDER~1\AppData\Local\Temp\cc0vShlo.s:24537  .debug_str:0000000000019e3d .LASF1921
C:\Users\SOLDER~1\AppData\Local\Temp\cc0vShlo.s:19205  .debug_str:0000000000004213 .LASF1922
C:\Users\SOLDER~1\AppData\Local\Temp\cc0vShlo.s:19171  .debug_str:0000000000003fd5 .LASF1923
C:\Users\SOLDER~1\AppData\Local\Temp\cc0vShlo.s:26821  .debug_str:0000000000023327 .LASF1924
C:\Users\SOLDER~1\AppData\Local\Temp\cc0vShlo.s:26853  .debug_str:0000000000023557 .LASF1925
C:\Users\SOLDER~1\AppData\Local\Temp\cc0vShlo.s:23553  .debug_str:0000000000015f14 .LASF1926
C:\Users\SOLDER~1\AppData\Local\Temp\cc0vShlo.s:21791  .debug_str:000000000000eb15 .LASF1927
C:\Users\SOLDER~1\AppData\Local\Temp\cc0vShlo.s:27917  .debug_str:0000000000027c03 .LASF1928
C:\Users\SOLDER~1\AppData\Local\Temp\cc0vShlo.s:28105  .debug_str:000000000002885e .LASF1929
C:\Users\SOLDER~1\AppData\Local\Temp\cc0vShlo.s:21103  .debug_str:000000000000bd95 .LASF1930
C:\Users\SOLDER~1\AppData\Local\Temp\cc0vShlo.s:20189  .debug_str:00000000000081c4 .LASF1931
C:\Users\SOLDER~1\AppData\Local\Temp\cc0vShlo.s:28701  .debug_str:000000000002af35 .LASF1932
C:\Users\SOLDER~1\AppData\Local\Temp\cc0vShlo.s:21553  .debug_str:000000000000db80 .LASF1933
C:\Users\SOLDER~1\AppData\Local\Temp\cc0vShlo.s:27261  .debug_str:0000000000024fe3 .LASF1934
C:\Users\SOLDER~1\AppData\Local\Temp\cc0vShlo.s:18203  .debug_str:0000000000000023 .LASF1935
C:\Users\SOLDER~1\AppData\Local\Temp\cc0vShlo.s:20609  .debug_str:0000000000009d44 .LASF1936
C:\Users\SOLDER~1\AppData\Local\Temp\cc0vShlo.s:22191  .debug_str:0000000000010555 .LASF1937
C:\Users\SOLDER~1\AppData\Local\Temp\cc0vShlo.s:19453  .debug_str:000000000000517a .LASF1938
C:\Users\SOLDER~1\AppData\Local\Temp\cc0vShlo.s:21401  .debug_str:000000000000d1a2 .LASF1939
C:\Users\SOLDER~1\AppData\Local\Temp\cc0vShlo.s:26223  .debug_str:0000000000020c26 .LASF1940
C:\Users\SOLDER~1\AppData\Local\Temp\cc0vShlo.s:18717  .debug_str:000000000000227a .LASF1941
C:\Users\SOLDER~1\AppData\Local\Temp\cc0vShlo.s:23993  .debug_str:0000000000017b15 .LASF1942
C:\Users\SOLDER~1\AppData\Local\Temp\cc0vShlo.s:26081  .debug_str:000000000002030d .LASF1943
C:\Users\SOLDER~1\AppData\Local\Temp\cc0vShlo.s:28093  .debug_str:0000000000028791 .LASF1944
C:\Users\SOLDER~1\AppData\Local\Temp\cc0vShlo.s:24379  .debug_str:000000000001948b .LASF1945
C:\Users\SOLDER~1\AppData\Local\Temp\cc0vShlo.s:19973  .debug_str:00000000000073d1 .LASF1946
C:\Users\SOLDER~1\AppData\Local\Temp\cc0vShlo.s:28259  .debug_str:0000000000029235 .LASF1947
C:\Users\SOLDER~1\AppData\Local\Temp\cc0vShlo.s:27239  .debug_str:0000000000024ea7 .LASF1948
C:\Users\SOLDER~1\AppData\Local\Temp\cc0vShlo.s:25623  .debug_str:000000000001e524 .LASF1949
C:\Users\SOLDER~1\AppData\Local\Temp\cc0vShlo.s:24027  .debug_str:0000000000017d5e .LASF1950
C:\Users\SOLDER~1\AppData\Local\Temp\cc0vShlo.s:21589  .debug_str:000000000000ddd4 .LASF1951
C:\Users\SOLDER~1\AppData\Local\Temp\cc0vShlo.s:22589  .debug_str:0000000000011edc .LASF1952
C:\Users\SOLDER~1\AppData\Local\Temp\cc0vShlo.s:28665  .debug_str:000000000002ac80 .LASF1953
C:\Users\SOLDER~1\AppData\Local\Temp\cc0vShlo.s:23495  .debug_str:0000000000015b41 .LASF1954
C:\Users\SOLDER~1\AppData\Local\Temp\cc0vShlo.s:23453  .debug_str:00000000000158a5 .LASF1955
C:\Users\SOLDER~1\AppData\Local\Temp\cc0vShlo.s:24187  .debug_str:00000000000187ae .LASF1956
C:\Users\SOLDER~1\AppData\Local\Temp\cc0vShlo.s:27011  .debug_str:0000000000023f7d .LASF1957
C:\Users\SOLDER~1\AppData\Local\Temp\cc0vShlo.s:27751  .debug_str:0000000000027119 .LASF1958
C:\Users\SOLDER~1\AppData\Local\Temp\cc0vShlo.s:25935  .debug_str:000000000001f9b9 .LASF1959
C:\Users\SOLDER~1\AppData\Local\Temp\cc0vShlo.s:28611  .debug_str:000000000002a92f .LASF1960
C:\Users\SOLDER~1\AppData\Local\Temp\cc0vShlo.s:24433  .debug_str:00000000000197c8 .LASF1961
C:\Users\SOLDER~1\AppData\Local\Temp\cc0vShlo.s:28877  .debug_str:000000000002ba5d .LASF1962
C:\Users\SOLDER~1\AppData\Local\Temp\cc0vShlo.s:27911  .debug_str:0000000000027ba2 .LASF1963
C:\Users\SOLDER~1\AppData\Local\Temp\cc0vShlo.s:24173  .debug_str:00000000000186c7 .LASF1964
C:\Users\SOLDER~1\AppData\Local\Temp\cc0vShlo.s:24557  .debug_str:0000000000019f8b .LASF1965
C:\Users\SOLDER~1\AppData\Local\Temp\cc0vShlo.s:23601  .debug_str:0000000000016221 .LASF1966
C:\Users\SOLDER~1\AppData\Local\Temp\cc0vShlo.s:18861  .debug_str:0000000000002b9f .LASF1967
C:\Users\SOLDER~1\AppData\Local\Temp\cc0vShlo.s:28375  .debug_str:000000000002998a .LASF1968
C:\Users\SOLDER~1\AppData\Local\Temp\cc0vShlo.s:24485  .debug_str:0000000000019b19 .LASF1969
C:\Users\SOLDER~1\AppData\Local\Temp\cc0vShlo.s:27193  .debug_str:0000000000024b90 .LASF1970
GAS LISTING C:\Users\SOLDER~1\AppData\Local\Temp\cc0vShlo.s 			page 45


C:\Users\SOLDER~1\AppData\Local\Temp\cc0vShlo.s:29167  .debug_str:000000000002cd41 .LASF1971
C:\Users\SOLDER~1\AppData\Local\Temp\cc0vShlo.s:22531  .debug_str:0000000000011b2b .LASF1972
C:\Users\SOLDER~1\AppData\Local\Temp\cc0vShlo.s:26443  .debug_str:0000000000021a5b .LASF1973
C:\Users\SOLDER~1\AppData\Local\Temp\cc0vShlo.s:28465  .debug_str:0000000000029fc8 .LASF1974
C:\Users\SOLDER~1\AppData\Local\Temp\cc0vShlo.s:22401  .debug_str:00000000000112b1 .LASF1975
C:\Users\SOLDER~1\AppData\Local\Temp\cc0vShlo.s:19991  .debug_str:00000000000074f1 .LASF1976
C:\Users\SOLDER~1\AppData\Local\Temp\cc0vShlo.s:20633  .debug_str:0000000000009ef8 .LASF1977
C:\Users\SOLDER~1\AppData\Local\Temp\cc0vShlo.s:18365  .debug_str:0000000000000b9f .LASF1978
C:\Users\SOLDER~1\AppData\Local\Temp\cc0vShlo.s:24481  .debug_str:0000000000019ae2 .LASF1979
C:\Users\SOLDER~1\AppData\Local\Temp\cc0vShlo.s:23581  .debug_str:00000000000160cd .LASF1980
C:\Users\SOLDER~1\AppData\Local\Temp\cc0vShlo.s:18629  .debug_str:0000000000001ccd .LASF1981
C:\Users\SOLDER~1\AppData\Local\Temp\cc0vShlo.s:20279  .debug_str:0000000000008768 .LASF1982
C:\Users\SOLDER~1\AppData\Local\Temp\cc0vShlo.s:20839  .debug_str:000000000000ac91 .LASF1983
C:\Users\SOLDER~1\AppData\Local\Temp\cc0vShlo.s:26797  .debug_str:0000000000023183 .LASF1984
C:\Users\SOLDER~1\AppData\Local\Temp\cc0vShlo.s:22517  .debug_str:0000000000011a3e .LASF1985
C:\Users\SOLDER~1\AppData\Local\Temp\cc0vShlo.s:27691  .debug_str:0000000000026d2c .LASF1986
C:\Users\SOLDER~1\AppData\Local\Temp\cc0vShlo.s:27649  .debug_str:0000000000026a55 .LASF1987
C:\Users\SOLDER~1\AppData\Local\Temp\cc0vShlo.s:28399  .debug_str:0000000000029b54 .LASF1988
C:\Users\SOLDER~1\AppData\Local\Temp\cc0vShlo.s:19743  .debug_str:000000000000646b .LASF1989
C:\Users\SOLDER~1\AppData\Local\Temp\cc0vShlo.s:21153  .debug_str:000000000000c10f .LASF1990
C:\Users\SOLDER~1\AppData\Local\Temp\cc0vShlo.s:18723  .debug_str:00000000000022dc .LASF1991
C:\Users\SOLDER~1\AppData\Local\Temp\cc0vShlo.s:21389  .debug_str:000000000000d0de .LASF1992
C:\Users\SOLDER~1\AppData\Local\Temp\cc0vShlo.s:26419  .debug_str:00000000000218fb .LASF1993
C:\Users\SOLDER~1\AppData\Local\Temp\cc0vShlo.s:25151  .debug_str:000000000001c631 .LASF1994
C:\Users\SOLDER~1\AppData\Local\Temp\cc0vShlo.s:24261  .debug_str:0000000000018cb9 .LASF1995
C:\Users\SOLDER~1\AppData\Local\Temp\cc0vShlo.s:20423  .debug_str:0000000000009131 .LASF1996
C:\Users\SOLDER~1\AppData\Local\Temp\cc0vShlo.s:18397  .debug_str:0000000000000de6 .LASF1997
C:\Users\SOLDER~1\AppData\Local\Temp\cc0vShlo.s:19775  .debug_str:00000000000066b3 .LASF1998
C:\Users\SOLDER~1\AppData\Local\Temp\cc0vShlo.s:26585  .debug_str:0000000000022358 .LASF1999
C:\Users\SOLDER~1\AppData\Local\Temp\cc0vShlo.s:24671  .debug_str:000000000001a6dc .LASF2000
C:\Users\SOLDER~1\AppData\Local\Temp\cc0vShlo.s:26185  .debug_str:00000000000209c2 .LASF2001
C:\Users\SOLDER~1\AppData\Local\Temp\cc0vShlo.s:23445  .debug_str:0000000000015818 .LASF2002
C:\Users\SOLDER~1\AppData\Local\Temp\cc0vShlo.s:25343  .debug_str:000000000001d359 .LASF2003
C:\Users\SOLDER~1\AppData\Local\Temp\cc0vShlo.s:18813  .debug_str:00000000000028f5 .LASF2004
C:\Users\SOLDER~1\AppData\Local\Temp\cc0vShlo.s:22767  .debug_str:0000000000012a38 .LASF2005
C:\Users\SOLDER~1\AppData\Local\Temp\cc0vShlo.s:18431  .debug_str:0000000000000fe6 .LASF2006
C:\Users\SOLDER~1\AppData\Local\Temp\cc0vShlo.s:18671  .debug_str:0000000000001f88 .LASF2007
C:\Users\SOLDER~1\AppData\Local\Temp\cc0vShlo.s:27715  .debug_str:0000000000026eb2 .LASF2008
C:\Users\SOLDER~1\AppData\Local\Temp\cc0vShlo.s:28405  .debug_str:0000000000029bbf .LASF2009
C:\Users\SOLDER~1\AppData\Local\Temp\cc0vShlo.s:21305  .debug_str:000000000000cb57 .LASF2010
C:\Users\SOLDER~1\AppData\Local\Temp\cc0vShlo.s:20739  .debug_str:000000000000a629 .LASF2011
C:\Users\SOLDER~1\AppData\Local\Temp\cc0vShlo.s:19839  .debug_str:0000000000006add .LASF2012
C:\Users\SOLDER~1\AppData\Local\Temp\cc0vShlo.s:20105  .debug_str:0000000000007bfc .LASF2013
C:\Users\SOLDER~1\AppData\Local\Temp\cc0vShlo.s:28005  .debug_str:00000000000281c0 .LASF2014
C:\Users\SOLDER~1\AppData\Local\Temp\cc0vShlo.s:25081  .debug_str:000000000001c174 .LASF2015
C:\Users\SOLDER~1\AppData\Local\Temp\cc0vShlo.s:19605  .debug_str:0000000000005b5d .LASF2016
C:\Users\SOLDER~1\AppData\Local\Temp\cc0vShlo.s:25689  .debug_str:000000000001e986 .LASF2017
C:\Users\SOLDER~1\AppData\Local\Temp\cc0vShlo.s:20501  .debug_str:000000000000964a .LASF2018
C:\Users\SOLDER~1\AppData\Local\Temp\cc0vShlo.s:20375  .debug_str:0000000000008dd0 .LASF2019
C:\Users\SOLDER~1\AppData\Local\Temp\cc0vShlo.s:21075  .debug_str:000000000000bbfa .LASF2020
C:\Users\SOLDER~1\AppData\Local\Temp\cc0vShlo.s:28067  .debug_str:00000000000285dc .LASF2021
C:\Users\SOLDER~1\AppData\Local\Temp\cc0vShlo.s:24717  .debug_str:000000000001a9ad .LASF2022
C:\Users\SOLDER~1\AppData\Local\Temp\cc0vShlo.s:23003  .debug_str:0000000000013a73 .LASF2023
C:\Users\SOLDER~1\AppData\Local\Temp\cc0vShlo.s:29033  .debug_str:000000000002c49d .LASF2024
C:\Users\SOLDER~1\AppData\Local\Temp\cc0vShlo.s:29435  .debug_str:000000000002de7b .LASF2025
C:\Users\SOLDER~1\AppData\Local\Temp\cc0vShlo.s:21917  .debug_str:000000000000f327 .LASF2026
C:\Users\SOLDER~1\AppData\Local\Temp\cc0vShlo.s:20515  .debug_str:000000000000972f .LASF2027
GAS LISTING C:\Users\SOLDER~1\AppData\Local\Temp\cc0vShlo.s 			page 46


C:\Users\SOLDER~1\AppData\Local\Temp\cc0vShlo.s:28155  .debug_str:0000000000028b61 .LASF2028
C:\Users\SOLDER~1\AppData\Local\Temp\cc0vShlo.s:26103  .debug_str:0000000000020471 .LASF2029
C:\Users\SOLDER~1\AppData\Local\Temp\cc0vShlo.s:27493  .debug_str:0000000000025fd7 .LASF2030
C:\Users\SOLDER~1\AppData\Local\Temp\cc0vShlo.s:22931  .debug_str:000000000001353d .LASF2031
C:\Users\SOLDER~1\AppData\Local\Temp\cc0vShlo.s:20849  .debug_str:000000000000ad5e .LASF2032
C:\Users\SOLDER~1\AppData\Local\Temp\cc0vShlo.s:22503  .debug_str:000000000001195d .LASF2033
C:\Users\SOLDER~1\AppData\Local\Temp\cc0vShlo.s:19705  .debug_str:00000000000061fa .LASF2034
C:\Users\SOLDER~1\AppData\Local\Temp\cc0vShlo.s:21643  .debug_str:000000000000e1bb .LASF2035
C:\Users\SOLDER~1\AppData\Local\Temp\cc0vShlo.s:29073  .debug_str:000000000002c722 .LASF2036
C:\Users\SOLDER~1\AppData\Local\Temp\cc0vShlo.s:28533  .debug_str:000000000002a455 .LASF2037
C:\Users\SOLDER~1\AppData\Local\Temp\cc0vShlo.s:20481  .debug_str:000000000000951d .LASF2038
C:\Users\SOLDER~1\AppData\Local\Temp\cc0vShlo.s:26403  .debug_str:00000000000217e3 .LASF2039
C:\Users\SOLDER~1\AppData\Local\Temp\cc0vShlo.s:23983  .debug_str:0000000000017a5b .LASF2040
C:\Users\SOLDER~1\AppData\Local\Temp\cc0vShlo.s:24695  .debug_str:000000000001a848 .LASF2041
C:\Users\SOLDER~1\AppData\Local\Temp\cc0vShlo.s:26523  .debug_str:0000000000021f7b .LASF2042
C:\Users\SOLDER~1\AppData\Local\Temp\cc0vShlo.s:28491  .debug_str:000000000002a197 .LASF2043
C:\Users\SOLDER~1\AppData\Local\Temp\cc0vShlo.s:27567  .debug_str:00000000000264d8 .LASF2044
C:\Users\SOLDER~1\AppData\Local\Temp\cc0vShlo.s:22667  .debug_str:000000000001239c .LASF2045
C:\Users\SOLDER~1\AppData\Local\Temp\cc0vShlo.s:24335  .debug_str:0000000000019188 .LASF2046
C:\Users\SOLDER~1\AppData\Local\Temp\cc0vShlo.s:20453  .debug_str:0000000000009322 .LASF2047
C:\Users\SOLDER~1\AppData\Local\Temp\cc0vShlo.s:26409  .debug_str:000000000002184f .LASF2048
C:\Users\SOLDER~1\AppData\Local\Temp\cc0vShlo.s:21045  .debug_str:000000000000b9e9 .LASF2049
C:\Users\SOLDER~1\AppData\Local\Temp\cc0vShlo.s:27293  .debug_str:00000000000251ff .LASF2050
C:\Users\SOLDER~1\AppData\Local\Temp\cc0vShlo.s:27257  .debug_str:0000000000024fa4 .LASF2051
C:\Users\SOLDER~1\AppData\Local\Temp\cc0vShlo.s:27893  .debug_str:0000000000027a3f .LASF2052
C:\Users\SOLDER~1\AppData\Local\Temp\cc0vShlo.s:23461  .debug_str:0000000000015922 .LASF2053
C:\Users\SOLDER~1\AppData\Local\Temp\cc0vShlo.s:29163  .debug_str:000000000002ccfa .LASF2054
C:\Users\SOLDER~1\AppData\Local\Temp\cc0vShlo.s:18351  .debug_str:0000000000000aab .LASF2055
C:\Users\SOLDER~1\AppData\Local\Temp\cc0vShlo.s:20995  .debug_str:000000000000b693 .LASF2056
C:\Users\SOLDER~1\AppData\Local\Temp\cc0vShlo.s:27279  .debug_str:0000000000025129 .LASF2057
C:\Users\SOLDER~1\AppData\Local\Temp\cc0vShlo.s:28337  .debug_str:0000000000029719 .LASF2058
C:\Users\SOLDER~1\AppData\Local\Temp\cc0vShlo.s:19353  .debug_str:0000000000004b65 .LASF2059
C:\Users\SOLDER~1\AppData\Local\Temp\cc0vShlo.s:26999  .debug_str:0000000000023ea3 .LASF2060
C:\Users\SOLDER~1\AppData\Local\Temp\cc0vShlo.s:29279  .debug_str:000000000002d48f .LASF2061
C:\Users\SOLDER~1\AppData\Local\Temp\cc0vShlo.s:26355  .debug_str:00000000000214d7 .LASF2062
C:\Users\SOLDER~1\AppData\Local\Temp\cc0vShlo.s:21765  .debug_str:000000000000e9a9 .LASF2063
C:\Users\SOLDER~1\AppData\Local\Temp\cc0vShlo.s:28993  .debug_str:000000000002c228 .LASF2064
C:\Users\SOLDER~1\AppData\Local\Temp\cc0vShlo.s:21345  .debug_str:000000000000cdf6 .LASF2065
C:\Users\SOLDER~1\AppData\Local\Temp\cc0vShlo.s:18573  .debug_str:00000000000018cf .LASF2066
C:\Users\SOLDER~1\AppData\Local\Temp\cc0vShlo.s:20511  .debug_str:00000000000096e4 .LASF2067
C:\Users\SOLDER~1\AppData\Local\Temp\cc0vShlo.s:19823  .debug_str:00000000000069e3 .LASF2068
C:\Users\SOLDER~1\AppData\Local\Temp\cc0vShlo.s:29391  .debug_str:000000000002dbcb .LASF2069
C:\Users\SOLDER~1\AppData\Local\Temp\cc0vShlo.s:19909  .debug_str:0000000000006fa2 .LASF2070
C:\Users\SOLDER~1\AppData\Local\Temp\cc0vShlo.s:25271  .debug_str:000000000001ce4b .LASF2071
C:\Users\SOLDER~1\AppData\Local\Temp\cc0vShlo.s:22793  .debug_str:0000000000012c31 .LASF2072
C:\Users\SOLDER~1\AppData\Local\Temp\cc0vShlo.s:27557  .debug_str:0000000000026432 .LASF2073
C:\Users\SOLDER~1\AppData\Local\Temp\cc0vShlo.s:19053  .debug_str:000000000000384e .LASF2074
C:\Users\SOLDER~1\AppData\Local\Temp\cc0vShlo.s:27331  .debug_str:0000000000025478 .LASF2075
C:\Users\SOLDER~1\AppData\Local\Temp\cc0vShlo.s:26423  .debug_str:0000000000021945 .LASF2076
C:\Users\SOLDER~1\AppData\Local\Temp\cc0vShlo.s:21517  .debug_str:000000000000d916 .LASF2077
C:\Users\SOLDER~1\AppData\Local\Temp\cc0vShlo.s:23193  .debug_str:0000000000014754 .LASF2078
C:\Users\SOLDER~1\AppData\Local\Temp\cc0vShlo.s:24705  .debug_str:000000000001a8fd .LASF2079
C:\Users\SOLDER~1\AppData\Local\Temp\cc0vShlo.s:19197  .debug_str:0000000000004193 .LASF2080
C:\Users\SOLDER~1\AppData\Local\Temp\cc0vShlo.s:25285  .debug_str:000000000001cf3f .LASF2081
C:\Users\SOLDER~1\AppData\Local\Temp\cc0vShlo.s:24169  .debug_str:0000000000018690 .LASF2082
C:\Users\SOLDER~1\AppData\Local\Temp\cc0vShlo.s:19985  .debug_str:000000000000748c .LASF2083
C:\Users\SOLDER~1\AppData\Local\Temp\cc0vShlo.s:20671  .debug_str:000000000000a188 .LASF2084
GAS LISTING C:\Users\SOLDER~1\AppData\Local\Temp\cc0vShlo.s 			page 47


C:\Users\SOLDER~1\AppData\Local\Temp\cc0vShlo.s:23395  .debug_str:00000000000154d4 .LASF2085
C:\Users\SOLDER~1\AppData\Local\Temp\cc0vShlo.s:22757  .debug_str:00000000000129a1 .LASF2086
C:\Users\SOLDER~1\AppData\Local\Temp\cc0vShlo.s:25467  .debug_str:000000000001dadc .LASF2087
C:\Users\SOLDER~1\AppData\Local\Temp\cc0vShlo.s:25231  .debug_str:000000000001cbd5 .LASF2088
C:\Users\SOLDER~1\AppData\Local\Temp\cc0vShlo.s:23627  .debug_str:00000000000163b3 .LASF2089
C:\Users\SOLDER~1\AppData\Local\Temp\cc0vShlo.s:28047  .debug_str:0000000000028453 .LASF2090
C:\Users\SOLDER~1\AppData\Local\Temp\cc0vShlo.s:25095  .debug_str:000000000001c286 .LASF2091
C:\Users\SOLDER~1\AppData\Local\Temp\cc0vShlo.s:23327  .debug_str:000000000001503c .LASF2092
C:\Users\SOLDER~1\AppData\Local\Temp\cc0vShlo.s:21171  .debug_str:000000000000c23b .LASF2093
C:\Users\SOLDER~1\AppData\Local\Temp\cc0vShlo.s:22673  .debug_str:0000000000012415 .LASF2094
C:\Users\SOLDER~1\AppData\Local\Temp\cc0vShlo.s:29539  .debug_str:000000000002e53f .LASF2095
C:\Users\SOLDER~1\AppData\Local\Temp\cc0vShlo.s:27429  .debug_str:0000000000025b5b .LASF2096
C:\Users\SOLDER~1\AppData\Local\Temp\cc0vShlo.s:24331  .debug_str:000000000001913f .LASF2097
C:\Users\SOLDER~1\AppData\Local\Temp\cc0vShlo.s:26295  .debug_str:000000000002110b .LASF2098
C:\Users\SOLDER~1\AppData\Local\Temp\cc0vShlo.s:28261  .debug_str:000000000002925a .LASF2099
C:\Users\SOLDER~1\AppData\Local\Temp\cc0vShlo.s:22801  .debug_str:0000000000012cb0 .LASF2100
C:\Users\SOLDER~1\AppData\Local\Temp\cc0vShlo.s:25653  .debug_str:000000000001e71b .LASF2101
C:\Users\SOLDER~1\AppData\Local\Temp\cc0vShlo.s:27537  .debug_str:0000000000026304 .LASF2102
C:\Users\SOLDER~1\AppData\Local\Temp\cc0vShlo.s:21565  .debug_str:000000000000dc33 .LASF2103
C:\Users\SOLDER~1\AppData\Local\Temp\cc0vShlo.s:19073  .debug_str:0000000000003995 .LASF2104
C:\Users\SOLDER~1\AppData\Local\Temp\cc0vShlo.s:19821  .debug_str:00000000000069bd .LASF2105
C:\Users\SOLDER~1\AppData\Local\Temp\cc0vShlo.s:26781  .debug_str:0000000000023058 .LASF2106
C:\Users\SOLDER~1\AppData\Local\Temp\cc0vShlo.s:23677  .debug_str:00000000000166a3 .LASF2107
C:\Users\SOLDER~1\AppData\Local\Temp\cc0vShlo.s:22741  .debug_str:000000000001286d .LASF2108
C:\Users\SOLDER~1\AppData\Local\Temp\cc0vShlo.s:29285  .debug_str:000000000002d4f8 .LASF2109
C:\Users\SOLDER~1\AppData\Local\Temp\cc0vShlo.s:28101  .debug_str:000000000002881d .LASF2110
C:\Users\SOLDER~1\AppData\Local\Temp\cc0vShlo.s:28943  .debug_str:000000000002bf06 .LASF2111
C:\Users\SOLDER~1\AppData\Local\Temp\cc0vShlo.s:23383  .debug_str:0000000000015407 .LASF2112
C:\Users\SOLDER~1\AppData\Local\Temp\cc0vShlo.s:29473  .debug_str:000000000002e0e3 .LASF2113
C:\Users\SOLDER~1\AppData\Local\Temp\cc0vShlo.s:24301  .debug_str:0000000000018f65 .LASF2114
C:\Users\SOLDER~1\AppData\Local\Temp\cc0vShlo.s:24259  .debug_str:0000000000018c94 .LASF2115
C:\Users\SOLDER~1\AppData\Local\Temp\cc0vShlo.s:24945  .debug_str:000000000001b84a .LASF2116
C:\Users\SOLDER~1\AppData\Local\Temp\cc0vShlo.s:20467  .debug_str:0000000000009432 .LASF2117
C:\Users\SOLDER~1\AppData\Local\Temp\cc0vShlo.s:28569  .debug_str:000000000002a66b .LASF2118
C:\Users\SOLDER~1\AppData\Local\Temp\cc0vShlo.s:26705  .debug_str:0000000000022b80 .LASF2119
C:\Users\SOLDER~1\AppData\Local\Temp\cc0vShlo.s:29419  .debug_str:000000000002dd84 .LASF2120
C:\Users\SOLDER~1\AppData\Local\Temp\cc0vShlo.s:19883  .debug_str:0000000000006dbd .LASF2121
C:\Users\SOLDER~1\AppData\Local\Temp\cc0vShlo.s:24371  .debug_str:0000000000019411 .LASF2122
C:\Users\SOLDER~1\AppData\Local\Temp\cc0vShlo.s:23423  .debug_str:00000000000156ab .LASF2123
C:\Users\SOLDER~1\AppData\Local\Temp\cc0vShlo.s:22121  .debug_str:00000000000100df .LASF2124
C:\Users\SOLDER~1\AppData\Local\Temp\cc0vShlo.s:28939  .debug_str:000000000002bea8 .LASF2125
C:\Users\SOLDER~1\AppData\Local\Temp\cc0vShlo.s:18961  .debug_str:0000000000003240 .LASF2126
C:\Users\SOLDER~1\AppData\Local\Temp\cc0vShlo.s:25811  .debug_str:000000000001f18e .LASF2127
C:\Users\SOLDER~1\AppData\Local\Temp\cc0vShlo.s:23791  .debug_str:0000000000016dbb .LASF2128
C:\Users\SOLDER~1\AppData\Local\Temp\cc0vShlo.s:26327  .debug_str:000000000002130d .LASF2129
C:\Users\SOLDER~1\AppData\Local\Temp\cc0vShlo.s:22611  .debug_str:000000000001202c .LASF2130
C:\Users\SOLDER~1\AppData\Local\Temp\cc0vShlo.s:20899  .debug_str:000000000000b077 .LASF2131
C:\Users\SOLDER~1\AppData\Local\Temp\cc0vShlo.s:29487  .debug_str:000000000002e1bd .LASF2132
C:\Users\SOLDER~1\AppData\Local\Temp\cc0vShlo.s:21955  .debug_str:000000000000f5b9 .LASF2133
C:\Users\SOLDER~1\AppData\Local\Temp\cc0vShlo.s:23905  .debug_str:000000000001756c .LASF2134
C:\Users\SOLDER~1\AppData\Local\Temp\cc0vShlo.s:29339  .debug_str:000000000002d85a .LASF2135
C:\Users\SOLDER~1\AppData\Local\Temp\cc0vShlo.s:23245  .debug_str:0000000000014b00 .LASF2136
C:\Users\SOLDER~1\AppData\Local\Temp\cc0vShlo.s:27549  .debug_str:00000000000263a4 .LASF2137
C:\Users\SOLDER~1\AppData\Local\Temp\cc0vShlo.s:23119  .debug_str:000000000001427e .LASF2138
C:\Users\SOLDER~1\AppData\Local\Temp\cc0vShlo.s:19939  .debug_str:0000000000007193 .LASF2139
C:\Users\SOLDER~1\AppData\Local\Temp\cc0vShlo.s:19023  .debug_str:000000000000365d .LASF2140
C:\Users\SOLDER~1\AppData\Local\Temp\cc0vShlo.s:25755  .debug_str:000000000001edaf .LASF2141
GAS LISTING C:\Users\SOLDER~1\AppData\Local\Temp\cc0vShlo.s 			page 48


C:\Users\SOLDER~1\AppData\Local\Temp\cc0vShlo.s:27083  .debug_str:000000000002445f .LASF2142
C:\Users\SOLDER~1\AppData\Local\Temp\cc0vShlo.s:21617  .debug_str:000000000000dfd2 .LASF2143
C:\Users\SOLDER~1\AppData\Local\Temp\cc0vShlo.s:20285  .debug_str:00000000000087cb .LASF2144
C:\Users\SOLDER~1\AppData\Local\Temp\cc0vShlo.s:22259  .debug_str:00000000000109bb .LASF2145
C:\Users\SOLDER~1\AppData\Local\Temp\cc0vShlo.s:28499  .debug_str:000000000002a219 .LASF2146
C:\Users\SOLDER~1\AppData\Local\Temp\cc0vShlo.s:28461  .debug_str:0000000000029f89 .LASF2147
C:\Users\SOLDER~1\AppData\Local\Temp\cc0vShlo.s:29185  .debug_str:000000000002ceac .LASF2148
C:\Users\SOLDER~1\AppData\Local\Temp\cc0vShlo.s:25665  .debug_str:000000000001e7f6 .LASF2149
C:\Users\SOLDER~1\AppData\Local\Temp\cc0vShlo.s:21235  .debug_str:000000000000c690 .LASF2150
C:\Users\SOLDER~1\AppData\Local\Temp\cc0vShlo.s:19501  .debug_str:0000000000005454 .LASF2151
C:\Users\SOLDER~1\AppData\Local\Temp\cc0vShlo.s:23335  .debug_str:00000000000150c6 .LASF2152
C:\Users\SOLDER~1\AppData\Local\Temp\cc0vShlo.s:27609  .debug_str:00000000000267b4 .LASF2153
C:\Users\SOLDER~1\AppData\Local\Temp\cc0vShlo.s:20623  .debug_str:0000000000009e40 .LASF2154
C:\Users\SOLDER~1\AppData\Local\Temp\cc0vShlo.s:19691  .debug_str:0000000000006106 .LASF2155
C:\Users\SOLDER~1\AppData\Local\Temp\cc0vShlo.s:27235  .debug_str:0000000000024e5c .LASF2156
C:\Users\SOLDER~1\AppData\Local\Temp\cc0vShlo.s:25215  .debug_str:000000000001caa5 .LASF2157
C:\Users\SOLDER~1\AppData\Local\Temp\cc0vShlo.s:26681  .debug_str:00000000000229dd .LASF2158
C:\Users\SOLDER~1\AppData\Local\Temp\cc0vShlo.s:22119  .debug_str:00000000000100b9 .LASF2159
C:\Users\SOLDER~1\AppData\Local\Temp\cc0vShlo.s:20053  .debug_str:000000000000787c .LASF2160
C:\Users\SOLDER~1\AppData\Local\Temp\cc0vShlo.s:29331  .debug_str:000000000002d7db .LASF2161
C:\Users\SOLDER~1\AppData\Local\Temp\cc0vShlo.s:18889  .debug_str:0000000000002d83 .LASF2162
C:\Users\SOLDER~1\AppData\Local\Temp\cc0vShlo.s:20833  .debug_str:000000000000ac22 .LASF2163
C:\Users\SOLDER~1\AppData\Local\Temp\cc0vShlo.s:25757  .debug_str:000000000001edd5 .LASF2164
C:\Users\SOLDER~1\AppData\Local\Temp\cc0vShlo.s:18259  .debug_str:00000000000003cd .LASF2165
C:\Users\SOLDER~1\AppData\Local\Temp\cc0vShlo.s:20153  .debug_str:0000000000007f4b .LASF2166
C:\Users\SOLDER~1\AppData\Local\Temp\cc0vShlo.s:25523  .debug_str:000000000001dea1 .LASF2167
C:\Users\SOLDER~1\AppData\Local\Temp\cc0vShlo.s:23139  .debug_str:00000000000143d9 .LASF2168
C:\Users\SOLDER~1\AppData\Local\Temp\cc0vShlo.s:23919  .debug_str:0000000000017663 .LASF2169
C:\Users\SOLDER~1\AppData\Local\Temp\cc0vShlo.s:19373  .debug_str:0000000000004cb0 .LASF2170
C:\Users\SOLDER~1\AppData\Local\Temp\cc0vShlo.s:27657  .debug_str:0000000000026ada .LASF2171
C:\Users\SOLDER~1\AppData\Local\Temp\cc0vShlo.s:26749  .debug_str:0000000000022e3f .LASF2172
C:\Users\SOLDER~1\AppData\Local\Temp\cc0vShlo.s:21759  .debug_str:000000000000e94a .LASF2173
C:\Users\SOLDER~1\AppData\Local\Temp\cc0vShlo.s:23417  .debug_str:0000000000015636 .LASF2174
C:\Users\SOLDER~1\AppData\Local\Temp\cc0vShlo.s:24791  .debug_str:000000000001aebf .LASF2175
C:\Users\SOLDER~1\AppData\Local\Temp\cc0vShlo.s:24061  .debug_str:0000000000017fcb .LASF2176
C:\Users\SOLDER~1\AppData\Local\Temp\cc0vShlo.s:23415  .debug_str:000000000001561e .LASF2177
C:\Users\SOLDER~1\AppData\Local\Temp\cc0vShlo.s:25067  .debug_str:000000000001c097 .LASF2178
C:\Users\SOLDER~1\AppData\Local\Temp\cc0vShlo.s:22105  .debug_str:000000000000fffd .LASF2179
C:\Users\SOLDER~1\AppData\Local\Temp\cc0vShlo.s:24179  .debug_str:0000000000018723 .LASF2180
C:\Users\SOLDER~1\AppData\Local\Temp\cc0vShlo.s:20533  .debug_str:0000000000009859 .LASF2181
C:\Users\SOLDER~1\AppData\Local\Temp\cc0vShlo.s:22349  .debug_str:0000000000010f6e .LASF2182
C:\Users\SOLDER~1\AppData\Local\Temp\cc0vShlo.s:18767  .debug_str:00000000000025c6 .LASF2183
C:\Users\SOLDER~1\AppData\Local\Temp\cc0vShlo.s:27525  .debug_str:000000000002623b .LASF2184
C:\Users\SOLDER~1\AppData\Local\Temp\cc0vShlo.s:23041  .debug_str:0000000000013d28 .LASF2185
C:\Users\SOLDER~1\AppData\Local\Temp\cc0vShlo.s:21159  .debug_str:000000000000c15b .LASF2186
C:\Users\SOLDER~1\AppData\Local\Temp\cc0vShlo.s:20479  .debug_str:000000000000950a .LASF2187
C:\Users\SOLDER~1\AppData\Local\Temp\cc0vShlo.s:26245  .debug_str:0000000000020d98 .LASF2188
C:\Users\SOLDER~1\AppData\Local\Temp\cc0vShlo.s:26021  .debug_str:000000000001ff24 .LASF2189
C:\Users\SOLDER~1\AppData\Local\Temp\cc0vShlo.s:22977  .debug_str:0000000000013869 .LASF2190
C:\Users\SOLDER~1\AppData\Local\Temp\cc0vShlo.s:21773  .debug_str:000000000000ea22 .LASF2191
C:\Users\SOLDER~1\AppData\Local\Temp\cc0vShlo.s:22923  .debug_str:00000000000134ad .LASF2192
C:\Users\SOLDER~1\AppData\Local\Temp\cc0vShlo.s:27295  .debug_str:0000000000025224 .LASF2193
C:\Users\SOLDER~1\AppData\Local\Temp\cc0vShlo.s:28601  .debug_str:000000000002a886 .LASF2194
C:\Users\SOLDER~1\AppData\Local\Temp\cc0vShlo.s:25959  .debug_str:000000000001fb3e .LASF2195
C:\Users\SOLDER~1\AppData\Local\Temp\cc0vShlo.s:24817  .debug_str:000000000001b04c .LASF2196
C:\Users\SOLDER~1\AppData\Local\Temp\cc0vShlo.s:21695  .debug_str:000000000000e4f9 .LASF2197
C:\Users\SOLDER~1\AppData\Local\Temp\cc0vShlo.s:25161  .debug_str:000000000001c6f2 .LASF2198
GAS LISTING C:\Users\SOLDER~1\AppData\Local\Temp\cc0vShlo.s 			page 49


C:\Users\SOLDER~1\AppData\Local\Temp\cc0vShlo.s:27249  .debug_str:0000000000024f3f .LASF2199
C:\Users\SOLDER~1\AppData\Local\Temp\cc0vShlo.s:21231  .debug_str:000000000000c64f .LASF2200
C:\Users\SOLDER~1\AppData\Local\Temp\cc0vShlo.s:19003  .debug_str:000000000000351c .LASF2201
C:\Users\SOLDER~1\AppData\Local\Temp\cc0vShlo.s:19387  .debug_str:0000000000004d82 .LASF2202
C:\Users\SOLDER~1\AppData\Local\Temp\cc0vShlo.s:28195  .debug_str:0000000000028de4 .LASF2203
C:\Users\SOLDER~1\AppData\Local\Temp\cc0vShlo.s:29283  .debug_str:000000000002d4d7 .LASF2204
C:\Users\SOLDER~1\AppData\Local\Temp\cc0vShlo.s:23519  .debug_str:0000000000015cc6 .LASF2205
C:\Users\SOLDER~1\AppData\Local\Temp\cc0vShlo.s:18751  .debug_str:00000000000024c2 .LASF2206
C:\Users\SOLDER~1\AppData\Local\Temp\cc0vShlo.s:18713  .debug_str:0000000000002240 .LASF2207
C:\Users\SOLDER~1\AppData\Local\Temp\cc0vShlo.s:25645  .debug_str:000000000001e692 .LASF2208
C:\Users\SOLDER~1\AppData\Local\Temp\cc0vShlo.s:24773  .debug_str:000000000001adbd .LASF2209
C:\Users\SOLDER~1\AppData\Local\Temp\cc0vShlo.s:22255  .debug_str:0000000000010976 .LASF2210
C:\Users\SOLDER~1\AppData\Local\Temp\cc0vShlo.s:22501  .debug_str:0000000000011949 .LASF2211
C:\Users\SOLDER~1\AppData\Local\Temp\cc0vShlo.s:23837  .debug_str:00000000000170df .LASF2212
C:\Users\SOLDER~1\AppData\Local\Temp\cc0vShlo.s:28923  .debug_str:000000000002bd89 .LASF2213
C:\Users\SOLDER~1\AppData\Local\Temp\cc0vShlo.s:26375  .debug_str:0000000000021619 .LASF2214
C:\Users\SOLDER~1\AppData\Local\Temp\cc0vShlo.s:24501  .debug_str:0000000000019c25 .LASF2215
C:\Users\SOLDER~1\AppData\Local\Temp\cc0vShlo.s:23715  .debug_str:0000000000016924 .LASF2216
C:\Users\SOLDER~1\AppData\Local\Temp\cc0vShlo.s:19927  .debug_str:00000000000070e5 .LASF2217
C:\Users\SOLDER~1\AppData\Local\Temp\cc0vShlo.s:23645  .debug_str:00000000000164d8 .LASF2218
C:\Users\SOLDER~1\AppData\Local\Temp\cc0vShlo.s:28151  .debug_str:0000000000028b37 .LASF2219
C:\Users\SOLDER~1\AppData\Local\Temp\cc0vShlo.s:20805  .debug_str:000000000000aa7b .LASF2220
C:\Users\SOLDER~1\AppData\Local\Temp\cc0vShlo.s:25933  .debug_str:000000000001f9a6 .LASF2221
C:\Users\SOLDER~1\AppData\Local\Temp\cc0vShlo.s:27791  .debug_str:00000000000273c8 .LASF2222
C:\Users\SOLDER~1\AppData\Local\Temp\cc0vShlo.s:19777  .debug_str:00000000000066d8 .LASF2223
C:\Users\SOLDER~1\AppData\Local\Temp\cc0vShlo.s:20505  .debug_str:0000000000009686 .LASF2224
C:\Users\SOLDER~1\AppData\Local\Temp\cc0vShlo.s:22659  .debug_str:0000000000012325 .LASF2225
C:\Users\SOLDER~1\AppData\Local\Temp\cc0vShlo.s:23085  .debug_str:0000000000013ff7 .LASF2226
C:\Users\SOLDER~1\AppData\Local\Temp\cc0vShlo.s:25185  .debug_str:000000000001c892 .LASF2227
C:\Users\SOLDER~1\AppData\Local\Temp\cc0vShlo.s:29071  .debug_str:000000000002c701 .LASF2228
C:\Users\SOLDER~1\AppData\Local\Temp\cc0vShlo.s:20239  .debug_str:00000000000084fa .LASF2229
C:\Users\SOLDER~1\AppData\Local\Temp\cc0vShlo.s:26257  .debug_str:0000000000020e75 .LASF2230
C:\Users\SOLDER~1\AppData\Local\Temp\cc0vShlo.s:27137  .debug_str:00000000000247e4 .LASF2231
C:\Users\SOLDER~1\AppData\Local\Temp\cc0vShlo.s:23131  .debug_str:000000000001433e .LASF2232
C:\Users\SOLDER~1\AppData\Local\Temp\cc0vShlo.s:19843  .debug_str:0000000000006b1a .LASF2233
C:\Users\SOLDER~1\AppData\Local\Temp\cc0vShlo.s:22569  .debug_str:0000000000011d82 .LASF2234
C:\Users\SOLDER~1\AppData\Local\Temp\cc0vShlo.s:19467  .debug_str:0000000000005257 .LASF2235
C:\Users\SOLDER~1\AppData\Local\Temp\cc0vShlo.s:29127  .debug_str:000000000002ca95 .LASF2236
C:\Users\SOLDER~1\AppData\Local\Temp\cc0vShlo.s:25985  .debug_str:000000000001fcce .LASF2237
C:\Users\SOLDER~1\AppData\Local\Temp\cc0vShlo.s:28551  .debug_str:000000000002a568 .LASF2238
C:\Users\SOLDER~1\AppData\Local\Temp\cc0vShlo.s:21455  .debug_str:000000000000d538 .LASF2239
C:\Users\SOLDER~1\AppData\Local\Temp\cc0vShlo.s:22887  .debug_str:0000000000013244 .LASF2240
C:\Users\SOLDER~1\AppData\Local\Temp\cc0vShlo.s:18675  .debug_str:0000000000001fbf .LASF2241
C:\Users\SOLDER~1\AppData\Local\Temp\cc0vShlo.s:27629  .debug_str:000000000002691f .LASF2242
C:\Users\SOLDER~1\AppData\Local\Temp\cc0vShlo.s:27573  .debug_str:0000000000026553 .LASF2243
C:\Users\SOLDER~1\AppData\Local\Temp\cc0vShlo.s:22043  .debug_str:000000000000fbeb .LASF2244
C:\Users\SOLDER~1\AppData\Local\Temp\cc0vShlo.s:18285  .debug_str:000000000000057c .LASF2245
C:\Users\SOLDER~1\AppData\Local\Temp\cc0vShlo.s:18237  .debug_str:000000000000023c .LASF2246
C:\Users\SOLDER~1\AppData\Local\Temp\cc0vShlo.s:23965  .debug_str:000000000001794c .LASF2247
C:\Users\SOLDER~1\AppData\Local\Temp\cc0vShlo.s:20125  .debug_str:0000000000007d69 .LASF2248
C:\Users\SOLDER~1\AppData\Local\Temp\cc0vShlo.s:23157  .debug_str:0000000000014514 .LASF2249
C:\Users\SOLDER~1\AppData\Local\Temp\cc0vShlo.s:21391  .debug_str:000000000000d102 .LASF2250
C:\Users\SOLDER~1\AppData\Local\Temp\cc0vShlo.s:20871  .debug_str:000000000000aed2 .LASF2251
C:\Users\SOLDER~1\AppData\Local\Temp\cc0vShlo.s:29257  .debug_str:000000000002d32a .LASF2252
C:\Users\SOLDER~1\AppData\Local\Temp\cc0vShlo.s:22555  .debug_str:0000000000011cb5 .LASF2253
C:\Users\SOLDER~1\AppData\Local\Temp\cc0vShlo.s:24305  .debug_str:0000000000018fac .LASF2254
C:\Users\SOLDER~1\AppData\Local\Temp\cc0vShlo.s:23841  .debug_str:0000000000017122 .LASF2255
GAS LISTING C:\Users\SOLDER~1\AppData\Local\Temp\cc0vShlo.s 			page 50


C:\Users\SOLDER~1\AppData\Local\Temp\cc0vShlo.s:26269  .debug_str:0000000000020f5e .LASF2256
C:\Users\SOLDER~1\AppData\Local\Temp\cc0vShlo.s:28327  .debug_str:00000000000296ae .LASF2257
C:\Users\SOLDER~1\AppData\Local\Temp\cc0vShlo.s:21295  .debug_str:000000000000ca9f .LASF2258
C:\Users\SOLDER~1\AppData\Local\Temp\cc0vShlo.s:18847  .debug_str:0000000000002aef .LASF2259
C:\Users\SOLDER~1\AppData\Local\Temp\cc0vShlo.s:26837  .debug_str:0000000000023436 .LASF2260
C:\Users\SOLDER~1\AppData\Local\Temp\cc0vShlo.s:24417  .debug_str:00000000000196d3 .LASF2261
C:\Users\SOLDER~1\AppData\Local\Temp\cc0vShlo.s:20203  .debug_str:00000000000082ac .LASF2262
C:\Users\SOLDER~1\AppData\Local\Temp\cc0vShlo.s:19427  .debug_str:0000000000004fdf .LASF2263
C:\Users\SOLDER~1\AppData\Local\Temp\cc0vShlo.s:25937  .debug_str:000000000001f9dd .LASF2264
C:\Users\SOLDER~1\AppData\Local\Temp\cc0vShlo.s:22371  .debug_str:00000000000110f3 .LASF2265
C:\Users\SOLDER~1\AppData\Local\Temp\cc0vShlo.s:21919  .debug_str:000000000000f34c .LASF2266
C:\Users\SOLDER~1\AppData\Local\Temp\cc0vShlo.s:24375  .debug_str:0000000000019460 .LASF2267
C:\Users\SOLDER~1\AppData\Local\Temp\cc0vShlo.s:21717  .debug_str:000000000000e667 .LASF2268
C:\Users\SOLDER~1\AppData\Local\Temp\cc0vShlo.s:18455  .debug_str:000000000000116e .LASF2269
C:\Users\SOLDER~1\AppData\Local\Temp\cc0vShlo.s:27811  .debug_str:000000000002751b .LASF2270
C:\Users\SOLDER~1\AppData\Local\Temp\cc0vShlo.s:28549  .debug_str:000000000002a554 .LASF2271
C:\Users\SOLDER~1\AppData\Local\Temp\cc0vShlo.s:28739  .debug_str:000000000002b19c .LASF2272
C:\Users\SOLDER~1\AppData\Local\Temp\cc0vShlo.s:27831  .debug_str:0000000000027668 .LASF2273
C:\Users\SOLDER~1\AppData\Local\Temp\cc0vShlo.s:18325  .debug_str:00000000000008b5 .LASF2274
C:\Users\SOLDER~1\AppData\Local\Temp\cc0vShlo.s:18403  .debug_str:0000000000000e44 .LASF2275
C:\Users\SOLDER~1\AppData\Local\Temp\cc0vShlo.s:20561  .debug_str:0000000000009a2d .LASF2276
C:\Users\SOLDER~1\AppData\Local\Temp\cc0vShlo.s:25749  .debug_str:000000000001ed64 .LASF2277
C:\Users\SOLDER~1\AppData\Local\Temp\cc0vShlo.s:20095  .debug_str:0000000000007b65 .LASF2278
C:\Users\SOLDER~1\AppData\Local\Temp\cc0vShlo.s:29591  .debug_str:000000000002e8cb .LASF2279
C:\Users\SOLDER~1\AppData\Local\Temp\cc0vShlo.s:22653  .debug_str:00000000000122d7 .LASF2280
C:\Users\SOLDER~1\AppData\Local\Temp\cc0vShlo.s:25819  .debug_str:000000000001f21a .LASF2281
C:\Users\SOLDER~1\AppData\Local\Temp\cc0vShlo.s:29197  .debug_str:000000000002cf7d .LASF2282
C:\Users\SOLDER~1\AppData\Local\Temp\cc0vShlo.s:20037  .debug_str:00000000000077a3 .LASF2283
C:\Users\SOLDER~1\AppData\Local\Temp\cc0vShlo.s:18807  .debug_str:000000000000288b .LASF2284
C:\Users\SOLDER~1\AppData\Local\Temp\cc0vShlo.s:26109  .debug_str:00000000000204de .LASF2285
C:\Users\SOLDER~1\AppData\Local\Temp\cc0vShlo.s:19997  .debug_str:0000000000007544 .LASF2286
C:\Users\SOLDER~1\AppData\Local\Temp\cc0vShlo.s:23925  .debug_str:00000000000176ce .LASF2287
C:\Users\SOLDER~1\AppData\Local\Temp\cc0vShlo.s:22605  .debug_str:0000000000011fc8 .LASF2288
C:\Users\SOLDER~1\AppData\Local\Temp\cc0vShlo.s:20119  .debug_str:0000000000007d16 .LASF2289
C:\Users\SOLDER~1\AppData\Local\Temp\cc0vShlo.s:25357  .debug_str:000000000001d427 .LASF2290
C:\Users\SOLDER~1\AppData\Local\Temp\cc0vShlo.s:25855  .debug_str:000000000001f4b2 .LASF2291
C:\Users\SOLDER~1\AppData\Local\Temp\cc0vShlo.s:23023  .debug_str:0000000000013bcd .LASF2292
C:\Users\SOLDER~1\AppData\Local\Temp\cc0vShlo.s:19209  .debug_str:000000000000424b .LASF2293
C:\Users\SOLDER~1\AppData\Local\Temp\cc0vShlo.s:23273  .debug_str:0000000000014ce0 .LASF2294
C:\Users\SOLDER~1\AppData\Local\Temp\cc0vShlo.s:29559  .debug_str:000000000002e6c2 .LASF2295
C:\Users\SOLDER~1\AppData\Local\Temp\cc0vShlo.s:20049  .debug_str:0000000000007841 .LASF2296
C:\Users\SOLDER~1\AppData\Local\Temp\cc0vShlo.s:28511  .debug_str:000000000002a2df .LASF2297
C:\Users\SOLDER~1\AppData\Local\Temp\cc0vShlo.s:26745  .debug_str:0000000000022dfe .LASF2298
C:\Users\SOLDER~1\AppData\Local\Temp\cc0vShlo.s:22891  .debug_str:0000000000013284 .LASF2299
C:\Users\SOLDER~1\AppData\Local\Temp\cc0vShlo.s:26051  .debug_str:0000000000020101 .LASF2300
C:\Users\SOLDER~1\AppData\Local\Temp\cc0vShlo.s:28835  .debug_str:000000000002b7be .LASF2301
C:\Users\SOLDER~1\AppData\Local\Temp\cc0vShlo.s:22391  .debug_str:000000000001121c .LASF2302
C:\Users\SOLDER~1\AppData\Local\Temp\cc0vShlo.s:26529  .debug_str:0000000000021fcb .LASF2303
C:\Users\SOLDER~1\AppData\Local\Temp\cc0vShlo.s:23903  .debug_str:000000000001754a .LASF2304
C:\Users\SOLDER~1\AppData\Local\Temp\cc0vShlo.s:22815  .debug_str:0000000000012d94 .LASF2305
C:\Users\SOLDER~1\AppData\Local\Temp\cc0vShlo.s:25233  .debug_str:000000000001cbfa .LASF2306
C:\Users\SOLDER~1\AppData\Local\Temp\cc0vShlo.s:28553  .debug_str:000000000002a588 .LASF2307
C:\Users\SOLDER~1\AppData\Local\Temp\cc0vShlo.s:22433  .debug_str:0000000000011504 .LASF2308
C:\Users\SOLDER~1\AppData\Local\Temp\cc0vShlo.s:23145  .debug_str:0000000000014450 .LASF2309
C:\Users\SOLDER~1\AppData\Local\Temp\cc0vShlo.s:21793  .debug_str:000000000000eb39 .LASF2310
C:\Users\SOLDER~1\AppData\Local\Temp\cc0vShlo.s:20853  .debug_str:000000000000ad9f .LASF2311
C:\Users\SOLDER~1\AppData\Local\Temp\cc0vShlo.s:28431  .debug_str:0000000000029d71 .LASF2312
GAS LISTING C:\Users\SOLDER~1\AppData\Local\Temp\cc0vShlo.s 			page 51


C:\Users\SOLDER~1\AppData\Local\Temp\cc0vShlo.s:28573  .debug_str:000000000002a6b2 .LASF2313
C:\Users\SOLDER~1\AppData\Local\Temp\cc0vShlo.s:21177  .debug_str:000000000000c2a9 .LASF2314
C:\Users\SOLDER~1\AppData\Local\Temp\cc0vShlo.s:22851  .debug_str:0000000000012fe2 .LASF2315
C:\Users\SOLDER~1\AppData\Local\Temp\cc0vShlo.s:22559  .debug_str:0000000000011ce9 .LASF2316
C:\Users\SOLDER~1\AppData\Local\Temp\cc0vShlo.s:20069  .debug_str:00000000000079ad .LASF2317
C:\Users\SOLDER~1\AppData\Local\Temp\cc0vShlo.s:22365  .debug_str:000000000001107f .LASF2318
C:\Users\SOLDER~1\AppData\Local\Temp\cc0vShlo.s:29271  .debug_str:000000000002d411 .LASF2319
C:\Users\SOLDER~1\AppData\Local\Temp\cc0vShlo.s:23491  .debug_str:0000000000015b0d .LASF2320
C:\Users\SOLDER~1\AppData\Local\Temp\cc0vShlo.s:26543  .debug_str:0000000000022088 .LASF2321
C:\Users\SOLDER~1\AppData\Local\Temp\cc0vShlo.s:23943  .debug_str:00000000000177c3 .LASF2322
C:\Users\SOLDER~1\AppData\Local\Temp\cc0vShlo.s:26923  .debug_str:00000000000239a4 .LASF2323
C:\Users\SOLDER~1\AppData\Local\Temp\cc0vShlo.s:26385  .debug_str:00000000000216c3 .LASF2324
C:\Users\SOLDER~1\AppData\Local\Temp\cc0vShlo.s:25333  .debug_str:000000000001d2b0 .LASF2325
C:\Users\SOLDER~1\AppData\Local\Temp\cc0vShlo.s:20007  .debug_str:00000000000075d7 .LASF2326
C:\Users\SOLDER~1\AppData\Local\Temp\cc0vShlo.s:25043  .debug_str:000000000001bed4 .LASF2327
C:\Users\SOLDER~1\AppData\Local\Temp\cc0vShlo.s:20785  .debug_str:000000000000a938 .LASF2328
C:\Users\SOLDER~1\AppData\Local\Temp\cc0vShlo.s:20689  .debug_str:000000000000a2a5 .LASF2329
C:\Users\SOLDER~1\AppData\Local\Temp\cc0vShlo.s:19507  .debug_str:000000000000549d .LASF2330
C:\Users\SOLDER~1\AppData\Local\Temp\cc0vShlo.s:18555  .debug_str:00000000000017e8 .LASF2331
C:\Users\SOLDER~1\AppData\Local\Temp\cc0vShlo.s:28761  .debug_str:000000000002b2ef .LASF2332
C:\Users\SOLDER~1\AppData\Local\Temp\cc0vShlo.s:19457  .debug_str:00000000000051b1 .LASF2333
C:\Users\SOLDER~1\AppData\Local\Temp\cc0vShlo.s:28065  .debug_str:00000000000285ba .LASF2334
C:\Users\SOLDER~1\AppData\Local\Temp\cc0vShlo.s:21069  .debug_str:000000000000bb9f .LASF2335
C:\Users\SOLDER~1\AppData\Local\Temp\cc0vShlo.s:25815  .debug_str:000000000001f1d6 .LASF2336
C:\Users\SOLDER~1\AppData\Local\Temp\cc0vShlo.s:21527  .debug_str:000000000000d9bb .LASF2337
C:\Users\SOLDER~1\AppData\Local\Temp\cc0vShlo.s:29255  .debug_str:000000000002d307 .LASF2338
C:\Users\SOLDER~1\AppData\Local\Temp\cc0vShlo.s:21307  .debug_str:000000000000cb7c .LASF2339
C:\Users\SOLDER~1\AppData\Local\Temp\cc0vShlo.s:26017  .debug_str:000000000001fed8 .LASF2340
C:\Users\SOLDER~1\AppData\Local\Temp\cc0vShlo.s:25893  .debug_str:000000000001f70c .LASF2341
C:\Users\SOLDER~1\AppData\Local\Temp\cc0vShlo.s:28849  .debug_str:000000000002b889 .LASF2342
C:\Users\SOLDER~1\AppData\Local\Temp\cc0vShlo.s:21167  .debug_str:000000000000c1f1 .LASF2343
C:\Users\SOLDER~1\AppData\Local\Temp\cc0vShlo.s:27651  .debug_str:0000000000026a79 .LASF2344
C:\Users\SOLDER~1\AppData\Local\Temp\cc0vShlo.s:18427  .debug_str:0000000000000fb8 .LASF2345
C:\Users\SOLDER~1\AppData\Local\Temp\cc0vShlo.s:21677  .debug_str:000000000000e3e9 .LASF2346
C:\Users\SOLDER~1\AppData\Local\Temp\cc0vShlo.s:27961  .debug_str:0000000000027efb .LASF2347
C:\Users\SOLDER~1\AppData\Local\Temp\cc0vShlo.s:26189  .debug_str:0000000000020a11 .LASF2348
C:\Users\SOLDER~1\AppData\Local\Temp\cc0vShlo.s:20137  .debug_str:0000000000007e3f .LASF2349
C:\Users\SOLDER~1\AppData\Local\Temp\cc0vShlo.s:25017  .debug_str:000000000001bd2b .LASF2350
C:\Users\SOLDER~1\AppData\Local\Temp\cc0vShlo.s:28153  .debug_str:0000000000028b4b .LASF2351
C:\Users\SOLDER~1\AppData\Local\Temp\cc0vShlo.s:26677  .debug_str:000000000002299b .LASF2352
C:\Users\SOLDER~1\AppData\Local\Temp\cc0vShlo.s:20763  .debug_str:000000000000a7c2 .LASF2353
C:\Users\SOLDER~1\AppData\Local\Temp\cc0vShlo.s:29165  .debug_str:000000000002cd1f .LASF2354
C:\Users\SOLDER~1\AppData\Local\Temp\cc0vShlo.s:21533  .debug_str:000000000000da0e .LASF2355
C:\Users\SOLDER~1\AppData\Local\Temp\cc0vShlo.s:24243  .debug_str:0000000000018b78 .LASF2356
C:\Users\SOLDER~1\AppData\Local\Temp\cc0vShlo.s:21131  .debug_str:000000000000bf71 .LASF2357
C:\Users\SOLDER~1\AppData\Local\Temp\cc0vShlo.s:24995  .debug_str:000000000001bb9b .LASF2358
C:\Users\SOLDER~1\AppData\Local\Temp\cc0vShlo.s:21999  .debug_str:000000000000f8d0 .LASF2359
C:\Users\SOLDER~1\AppData\Local\Temp\cc0vShlo.s:25395  .debug_str:000000000001d677 .LASF2360
C:\Users\SOLDER~1\AppData\Local\Temp\cc0vShlo.s:26085  .debug_str:0000000000020350 .LASF2361
C:\Users\SOLDER~1\AppData\Local\Temp\cc0vShlo.s:21573  .debug_str:000000000000dcbc .LASF2362
C:\Users\SOLDER~1\AppData\Local\Temp\cc0vShlo.s:22821  .debug_str:0000000000012ded .LASF2363
C:\Users\SOLDER~1\AppData\Local\Temp\cc0vShlo.s:20895  .debug_str:000000000000b040 .LASF2364
C:\Users\SOLDER~1\AppData\Local\Temp\cc0vShlo.s:28723  .debug_str:000000000002b0b4 .LASF2365
C:\Users\SOLDER~1\AppData\Local\Temp\cc0vShlo.s:26007  .debug_str:000000000001fe3b .LASF2366
C:\Users\SOLDER~1\AppData\Local\Temp\cc0vShlo.s:24709  .debug_str:000000000001a93a .LASF2367
C:\Users\SOLDER~1\AppData\Local\Temp\cc0vShlo.s:26101  .debug_str:000000000002044e .LASF2368
C:\Users\SOLDER~1\AppData\Local\Temp\cc0vShlo.s:24217  .debug_str:00000000000189be .LASF2369
GAS LISTING C:\Users\SOLDER~1\AppData\Local\Temp\cc0vShlo.s 			page 52


C:\Users\SOLDER~1\AppData\Local\Temp\cc0vShlo.s:18803  .debug_str:0000000000002812 .LASF2370
C:\Users\SOLDER~1\AppData\Local\Temp\cc0vShlo.s:19251  .debug_str:00000000000044e0 .LASF2371
C:\Users\SOLDER~1\AppData\Local\Temp\cc0vShlo.s:25621  .debug_str:000000000001e501 .LASF2372
C:\Users\SOLDER~1\AppData\Local\Temp\cc0vShlo.s:19235  .debug_str:00000000000043e6 .LASF2373
C:\Users\SOLDER~1\AppData\Local\Temp\cc0vShlo.s:19075  .debug_str:00000000000039bb .LASF2374
C:\Users\SOLDER~1\AppData\Local\Temp\cc0vShlo.s:23215  .debug_str:000000000001490a .LASF2375
C:\Users\SOLDER~1\AppData\Local\Temp\cc0vShlo.s:24539  .debug_str:0000000000019e61 .LASF2376
C:\Users\SOLDER~1\AppData\Local\Temp\cc0vShlo.s:20707  .debug_str:000000000000a3df .LASF2377
C:\Users\SOLDER~1\AppData\Local\Temp\cc0vShlo.s:18953  .debug_str:00000000000031c5 .LASF2378
C:\Users\SOLDER~1\AppData\Local\Temp\cc0vShlo.s:28449  .debug_str:0000000000029ea3 .LASF2379
C:\Users\SOLDER~1\AppData\Local\Temp\cc0vShlo.s:27859  .debug_str:00000000000277fd .LASF2380
C:\Users\SOLDER~1\AppData\Local\Temp\cc0vShlo.s:18315  .debug_str:000000000000080e .LASF2381
C:\Users\SOLDER~1\AppData\Local\Temp\cc0vShlo.s:29551  .debug_str:000000000002e631 .LASF2382
C:\Users\SOLDER~1\AppData\Local\Temp\cc0vShlo.s:25031  .debug_str:000000000001be0b .LASF2383
C:\Users\SOLDER~1\AppData\Local\Temp\cc0vShlo.s:21181  .debug_str:000000000000c2fd .LASF2384
C:\Users\SOLDER~1\AppData\Local\Temp\cc0vShlo.s:29111  .debug_str:000000000002c98c .LASF2385
C:\Users\SOLDER~1\AppData\Local\Temp\cc0vShlo.s:28489  .debug_str:000000000002a175 .LASF2386
C:\Users\SOLDER~1\AppData\Local\Temp\cc0vShlo.s:28813  .debug_str:000000000002b649 .LASF2387
C:\Users\SOLDER~1\AppData\Local\Temp\cc0vShlo.s:29293  .debug_str:000000000002d596 .LASF2388
C:\Users\SOLDER~1\AppData\Local\Temp\cc0vShlo.s:23303  .debug_str:0000000000014eba .LASF2389
C:\Users\SOLDER~1\AppData\Local\Temp\cc0vShlo.s:19837  .debug_str:0000000000006abc .LASF2390
C:\Users\SOLDER~1\AppData\Local\Temp\cc0vShlo.s:22317  .debug_str:0000000000010d5d .LASF2391
C:\Users\SOLDER~1\AppData\Local\Temp\cc0vShlo.s:25791  .debug_str:000000000001f036 .LASF2392
C:\Users\SOLDER~1\AppData\Local\Temp\cc0vShlo.s:19801  .debug_str:0000000000006891 .LASF2393
C:\Users\SOLDER~1\AppData\Local\Temp\cc0vShlo.s:25099  .debug_str:000000000001c2c8 .LASF2394
C:\Users\SOLDER~1\AppData\Local\Temp\cc0vShlo.s:24833  .debug_str:000000000001b155 .LASF2395
C:\Users\SOLDER~1\AppData\Local\Temp\cc0vShlo.s:18839  .debug_str:0000000000002a7e .LASF2396
C:\Users\SOLDER~1\AppData\Local\Temp\cc0vShlo.s:21605  .debug_str:000000000000deea .LASF2397
C:\Users\SOLDER~1\AppData\Local\Temp\cc0vShlo.s:22935  .debug_str:0000000000013578 .LASF2398
C:\Users\SOLDER~1\AppData\Local\Temp\cc0vShlo.s:27013  .debug_str:0000000000023fa1 .LASF2399
C:\Users\SOLDER~1\AppData\Local\Temp\cc0vShlo.s:20295  .debug_str:000000000000885e .LASF2400
C:\Users\SOLDER~1\AppData\Local\Temp\cc0vShlo.s:21819  .debug_str:000000000000ecfe .LASF2401
C:\Users\SOLDER~1\AppData\Local\Temp\cc0vShlo.s:22509  .debug_str:00000000000119ba .LASF2402
C:\Users\SOLDER~1\AppData\Local\Temp\cc0vShlo.s:26869  .debug_str:000000000002364b .LASF2403
C:\Users\SOLDER~1\AppData\Local\Temp\cc0vShlo.s:21947  .debug_str:000000000000f528 .LASF2404
C:\Users\SOLDER~1\AppData\Local\Temp\cc0vShlo.s:20981  .debug_str:000000000000b5ca .LASF2405
C:\Users\SOLDER~1\AppData\Local\Temp\cc0vShlo.s:27309  .debug_str:0000000000025305 .LASF2406
C:\Users\SOLDER~1\AppData\Local\Temp\cc0vShlo.s:24935  .debug_str:000000000001b7a8 .LASF2407
C:\Users\SOLDER~1\AppData\Local\Temp\cc0vShlo.s:23183  .debug_str:00000000000146c4 .LASF2408
C:\Users\SOLDER~1\AppData\Local\Temp\cc0vShlo.s:25303  .debug_str:000000000001d0a8 .LASF2409
C:\Users\SOLDER~1\AppData\Local\Temp\cc0vShlo.s:19355  .debug_str:0000000000004b8b .LASF2410
C:\Users\SOLDER~1\AppData\Local\Temp\cc0vShlo.s:19797  .debug_str:0000000000006857 .LASF2411
C:\Users\SOLDER~1\AppData\Local\Temp\cc0vShlo.s:20883  .debug_str:000000000000af85 .LASF2412
C:\Users\SOLDER~1\AppData\Local\Temp\cc0vShlo.s:21207  .debug_str:000000000000c4e1 .LASF2413
C:\Users\SOLDER~1\AppData\Local\Temp\cc0vShlo.s:26169  .debug_str:00000000000208c9 .LASF2414
C:\Users\SOLDER~1\AppData\Local\Temp\cc0vShlo.s:19943  .debug_str:00000000000071d6 .LASF2415
C:\Users\SOLDER~1\AppData\Local\Temp\cc0vShlo.s:19219  .debug_str:00000000000042e0 .LASF2416
C:\Users\SOLDER~1\AppData\Local\Temp\cc0vShlo.s:24909  .debug_str:000000000001b61f .LASF2417
C:\Users\SOLDER~1\AppData\Local\Temp\cc0vShlo.s:22035  .debug_str:000000000000fb47 .LASF2418
C:\Users\SOLDER~1\AppData\Local\Temp\cc0vShlo.s:24685  .debug_str:000000000001a7cd .LASF2419
C:\Users\SOLDER~1\AppData\Local\Temp\cc0vShlo.s:25635  .debug_str:000000000001e5fb .LASF2420
C:\Users\SOLDER~1\AppData\Local\Temp\cc0vShlo.s:18421  .debug_str:0000000000000f66 .LASF2421
C:\Users\SOLDER~1\AppData\Local\Temp\cc0vShlo.s:18535  .debug_str:000000000000169c .LASF2422
C:\Users\SOLDER~1\AppData\Local\Temp\cc0vShlo.s:19403  .debug_str:0000000000004e78 .LASF2423
C:\Users\SOLDER~1\AppData\Local\Temp\cc0vShlo.s:29317  .debug_str:000000000002d704 .LASF2424
C:\Users\SOLDER~1\AppData\Local\Temp\cc0vShlo.s:21005  .debug_str:000000000000b739 .LASF2425
C:\Users\SOLDER~1\AppData\Local\Temp\cc0vShlo.s:23067  .debug_str:0000000000013eea .LASF2426
GAS LISTING C:\Users\SOLDER~1\AppData\Local\Temp\cc0vShlo.s 			page 53


C:\Users\SOLDER~1\AppData\Local\Temp\cc0vShlo.s:23881  .debug_str:00000000000173db .LASF2427
C:\Users\SOLDER~1\AppData\Local\Temp\cc0vShlo.s:19793  .debug_str:0000000000006817 .LASF2428
C:\Users\SOLDER~1\AppData\Local\Temp\cc0vShlo.s:18537  .debug_str:00000000000016be .LASF2429
C:\Users\SOLDER~1\AppData\Local\Temp\cc0vShlo.s:23261  .debug_str:0000000000014c13 .LASF2430
C:\Users\SOLDER~1\AppData\Local\Temp\cc0vShlo.s:25319  .debug_str:000000000001d1c4 .LASF2431
C:\Users\SOLDER~1\AppData\Local\Temp\cc0vShlo.s:18239  .debug_str:000000000000025d .LASF2432
C:\Users\SOLDER~1\AppData\Local\Temp\cc0vShlo.s:18423  .debug_str:0000000000000f7e .LASF2433
C:\Users\SOLDER~1\AppData\Local\Temp\cc0vShlo.s:24907  .debug_str:000000000001b5fa .LASF2434
C:\Users\SOLDER~1\AppData\Local\Temp\cc0vShlo.s:28925  .debug_str:000000000002bd9c .LASF2435
C:\Users\SOLDER~1\AppData\Local\Temp\cc0vShlo.s:18687  .debug_str:000000000000206c .LASF2436
C:\Users\SOLDER~1\AppData\Local\Temp\cc0vShlo.s:29225  .debug_str:000000000002d146 .LASF2437
C:\Users\SOLDER~1\AppData\Local\Temp\cc0vShlo.s:27413  .debug_str:0000000000025a47 .LASF2438
C:\Users\SOLDER~1\AppData\Local\Temp\cc0vShlo.s:28557  .debug_str:000000000002a5c1 .LASF2439
C:\Users\SOLDER~1\AppData\Local\Temp\cc0vShlo.s:24077  .debug_str:00000000000180dc .LASF2440
C:\Users\SOLDER~1\AppData\Local\Temp\cc0vShlo.s:21379  .debug_str:000000000000d041 .LASF2441
C:\Users\SOLDER~1\AppData\Local\Temp\cc0vShlo.s:23751  .debug_str:0000000000016b56 .LASF2442
C:\Users\SOLDER~1\AppData\Local\Temp\cc0vShlo.s:29301  .debug_str:000000000002d61e .LASF2443
C:\Users\SOLDER~1\AppData\Local\Temp\cc0vShlo.s:18931  .debug_str:000000000000304d .LASF2444
C:\Users\SOLDER~1\AppData\Local\Temp\cc0vShlo.s:21381  .debug_str:000000000000d057 .LASF2445
C:\Users\SOLDER~1\AppData\Local\Temp\cc0vShlo.s:25421  .debug_str:000000000001d7da .LASF2446
C:\Users\SOLDER~1\AppData\Local\Temp\cc0vShlo.s:21079  .debug_str:000000000000bc43 .LASF2447
C:\Users\SOLDER~1\AppData\Local\Temp\cc0vShlo.s:26207  .debug_str:0000000000020b2d .LASF2448
C:\Users\SOLDER~1\AppData\Local\Temp\cc0vShlo.s:25949  .debug_str:000000000001faa2 .LASF2449
C:\Users\SOLDER~1\AppData\Local\Temp\cc0vShlo.s:23255  .debug_str:0000000000014bbe .LASF2450
C:\Users\SOLDER~1\AppData\Local\Temp\cc0vShlo.s:23609  .debug_str:00000000000162aa .LASF2451
C:\Users\SOLDER~1\AppData\Local\Temp\cc0vShlo.s:22825  .debug_str:0000000000012e2b .LASF2452
C:\Users\SOLDER~1\AppData\Local\Temp\cc0vShlo.s:27033  .debug_str:00000000000240f5 .LASF2453
C:\Users\SOLDER~1\AppData\Local\Temp\cc0vShlo.s:21465  .debug_str:000000000000d5c7 .LASF2454
C:\Users\SOLDER~1\AppData\Local\Temp\cc0vShlo.s:28661  .debug_str:000000000002ac4e .LASF2455
C:\Users\SOLDER~1\AppData\Local\Temp\cc0vShlo.s:27215  .debug_str:0000000000024cf9 .LASF2456
C:\Users\SOLDER~1\AppData\Local\Temp\cc0vShlo.s:21687  .debug_str:000000000000e497 .LASF2457
C:\Users\SOLDER~1\AppData\Local\Temp\cc0vShlo.s:28035  .debug_str:0000000000028397 .LASF2458
C:\Users\SOLDER~1\AppData\Local\Temp\cc0vShlo.s:21385  .debug_str:000000000000d094 .LASF2459
C:\Users\SOLDER~1\AppData\Local\Temp\cc0vShlo.s:26079  .debug_str:00000000000202e8 .LASF2460
C:\Users\SOLDER~1\AppData\Local\Temp\cc0vShlo.s:18639  .debug_str:0000000000001d79 .LASF2461
C:\Users\SOLDER~1\AppData\Local\Temp\cc0vShlo.s:27521  .debug_str:00000000000261e9 .LASF2462
C:\Users\SOLDER~1\AppData\Local\Temp\cc0vShlo.s:21247  .debug_str:000000000000c75b .LASF2463
C:\Users\SOLDER~1\AppData\Local\Temp\cc0vShlo.s:27739  .debug_str:0000000000027040 .LASF2464
C:\Users\SOLDER~1\AppData\Local\Temp\cc0vShlo.s:20325  .debug_str:0000000000008a6b .LASF2465
C:\Users\SOLDER~1\AppData\Local\Temp\cc0vShlo.s:21509  .debug_str:000000000000d8af .LASF2466
C:\Users\SOLDER~1\AppData\Local\Temp\cc0vShlo.s:21959  .debug_str:000000000000f601 .LASF2467
C:\Users\SOLDER~1\AppData\Local\Temp\cc0vShlo.s:20195  .debug_str:0000000000008212 .LASF2468
C:\Users\SOLDER~1\AppData\Local\Temp\cc0vShlo.s:19117  .debug_str:0000000000003c74 .LASF2469
C:\Users\SOLDER~1\AppData\Local\Temp\cc0vShlo.s:25089  .debug_str:000000000001c22b .LASF2470
C:\Users\SOLDER~1\AppData\Local\Temp\cc0vShlo.s:27461  .debug_str:0000000000025dbf .LASF2471
C:\Users\SOLDER~1\AppData\Local\Temp\cc0vShlo.s:26501  .debug_str:0000000000021e1b .LASF2472
C:\Users\SOLDER~1\AppData\Local\Temp\cc0vShlo.s:24975  .debug_str:000000000001ba4c .LASF2473
C:\Users\SOLDER~1\AppData\Local\Temp\cc0vShlo.s:23159  .debug_str:0000000000014535 .LASF2474
C:\Users\SOLDER~1\AppData\Local\Temp\cc0vShlo.s:29047  .debug_str:000000000002c596 .LASF2475
C:\Users\SOLDER~1\AppData\Local\Temp\cc0vShlo.s:29665  .debug_str:000000000002ed4b .LASF2476
C:\Users\SOLDER~1\AppData\Local\Temp\cc0vShlo.s:28737  .debug_str:000000000002b184 .LASF2477
C:\Users\SOLDER~1\AppData\Local\Temp\cc0vShlo.s:19051  .debug_str:000000000000382c .LASF2478
C:\Users\SOLDER~1\AppData\Local\Temp\cc0vShlo.s:29309  .debug_str:000000000002d695 .LASF2479
C:\Users\SOLDER~1\AppData\Local\Temp\cc0vShlo.s:25957  .debug_str:000000000001fb1d .LASF2480
C:\Users\SOLDER~1\AppData\Local\Temp\cc0vShlo.s:21459  .debug_str:000000000000d573 .LASF2481
C:\Users\SOLDER~1\AppData\Local\Temp\cc0vShlo.s:26995  .debug_str:0000000000023e65 .LASF2482
C:\Users\SOLDER~1\AppData\Local\Temp\cc0vShlo.s:23191  .debug_str:000000000001473c .LASF2483
GAS LISTING C:\Users\SOLDER~1\AppData\Local\Temp\cc0vShlo.s 			page 54


C:\Users\SOLDER~1\AppData\Local\Temp\cc0vShlo.s:26313  .debug_str:0000000000021225 .LASF2484
C:\Users\SOLDER~1\AppData\Local\Temp\cc0vShlo.s:24775  .debug_str:000000000001add1 .LASF2485
C:\Users\SOLDER~1\AppData\Local\Temp\cc0vShlo.s:20083  .debug_str:0000000000007a8f .LASF2486
C:\Users\SOLDER~1\AppData\Local\Temp\cc0vShlo.s:27487  .debug_str:0000000000025f6d .LASF2487
C:\Users\SOLDER~1\AppData\Local\Temp\cc0vShlo.s:24847  .debug_str:000000000001b22e .LASF2488
C:\Users\SOLDER~1\AppData\Local\Temp\cc0vShlo.s:24297  .debug_str:0000000000018f29 .LASF2489
C:\Users\SOLDER~1\AppData\Local\Temp\cc0vShlo.s:28973  .debug_str:000000000002c0e0 .LASF2490
C:\Users\SOLDER~1\AppData\Local\Temp\cc0vShlo.s:28965  .debug_str:000000000002c073 .LASF2491
C:\Users\SOLDER~1\AppData\Local\Temp\cc0vShlo.s:24461  .debug_str:000000000001998d .LASF2492
C:\Users\SOLDER~1\AppData\Local\Temp\cc0vShlo.s:29589  .debug_str:000000000002e8a6 .LASF2493
C:\Users\SOLDER~1\AppData\Local\Temp\cc0vShlo.s:19141  .debug_str:0000000000003dfb .LASF2494
C:\Users\SOLDER~1\AppData\Local\Temp\cc0vShlo.s:24971  .debug_str:000000000001ba12 .LASF2495
C:\Users\SOLDER~1\AppData\Local\Temp\cc0vShlo.s:24365  .debug_str:00000000000193a1 .LASF2496
C:\Users\SOLDER~1\AppData\Local\Temp\cc0vShlo.s:26129  .debug_str:0000000000020625 .LASF2497
C:\Users\SOLDER~1\AppData\Local\Temp\cc0vShlo.s:24409  .debug_str:000000000001966c .LASF2498
C:\Users\SOLDER~1\AppData\Local\Temp\cc0vShlo.s:27415  .debug_str:0000000000025a69 .LASF2499
C:\Users\SOLDER~1\AppData\Local\Temp\cc0vShlo.s:28037  .debug_str:00000000000283ba .LASF2500
C:\Users\SOLDER~1\AppData\Local\Temp\cc0vShlo.s:24505  .debug_str:0000000000019c57 .LASF2501
C:\Users\SOLDER~1\AppData\Local\Temp\cc0vShlo.s:28989  .debug_str:000000000002c1ec .LASF2502
C:\Users\SOLDER~1\AppData\Local\Temp\cc0vShlo.s:21139  .debug_str:000000000000c00c .LASF2503
C:\Users\SOLDER~1\AppData\Local\Temp\cc0vShlo.s:24055  .debug_str:0000000000017f5b .LASF2504
C:\Users\SOLDER~1\AppData\Local\Temp\cc0vShlo.s:25221  .debug_str:000000000001cb10 .LASF2505
C:\Users\SOLDER~1\AppData\Local\Temp\cc0vShlo.s:22475  .debug_str:00000000000117a1 .LASF2506
C:\Users\SOLDER~1\AppData\Local\Temp\cc0vShlo.s:24843  .debug_str:000000000001b1f3 .LASF2507
C:\Users\SOLDER~1\AppData\Local\Temp\cc0vShlo.s:23277  .debug_str:0000000000014d1e .LASF2508
C:\Users\SOLDER~1\AppData\Local\Temp\cc0vShlo.s:20683  .debug_str:000000000000a256 .LASF2509
C:\Users\SOLDER~1\AppData\Local\Temp\cc0vShlo.s:20405  .debug_str:0000000000008fd8 .LASF2510
C:\Users\SOLDER~1\AppData\Local\Temp\cc0vShlo.s:18349  .debug_str:0000000000000a93 .LASF2511
C:\Users\SOLDER~1\AppData\Local\Temp\cc0vShlo.s:19755  .debug_str:0000000000006542 .LASF2512
C:\Users\SOLDER~1\AppData\Local\Temp\cc0vShlo.s:19333  .debug_str:0000000000004a05 .LASF2513
C:\Users\SOLDER~1\AppData\Local\Temp\cc0vShlo.s:19077  .debug_str:00000000000039e0 .LASF2514
C:\Users\SOLDER~1\AppData\Local\Temp\cc0vShlo.s:20939  .debug_str:000000000000b301 .LASF2515
C:\Users\SOLDER~1\AppData\Local\Temp\cc0vShlo.s:24323  .debug_str:00000000000190bf .LASF2516
C:\Users\SOLDER~1\AppData\Local\Temp\cc0vShlo.s:19509  .debug_str:00000000000054be .LASF2517
C:\Users\SOLDER~1\AppData\Local\Temp\cc0vShlo.s:21709  .debug_str:000000000000e5d6 .LASF2518
C:\Users\SOLDER~1\AppData\Local\Temp\cc0vShlo.s:27173  .debug_str:0000000000024a45 .LASF2519
C:\Users\SOLDER~1\AppData\Local\Temp\cc0vShlo.s:20457  .debug_str:000000000000935a .LASF2520
C:\Users\SOLDER~1\AppData\Local\Temp\cc0vShlo.s:28663  .debug_str:000000000002ac66 .LASF2521
C:\Users\SOLDER~1\AppData\Local\Temp\cc0vShlo.s:21213  .debug_str:000000000000c534 .LASF2522
C:\Users\SOLDER~1\AppData\Local\Temp\cc0vShlo.s:26953  .debug_str:0000000000023b9d .LASF2523
C:\Users\SOLDER~1\AppData\Local\Temp\cc0vShlo.s:22033  .debug_str:000000000000fb22 .LASF2524
C:\Users\SOLDER~1\AppData\Local\Temp\cc0vShlo.s:27589  .debug_str:0000000000026677 .LASF2525
C:\Users\SOLDER~1\AppData\Local\Temp\cc0vShlo.s:19357  .debug_str:0000000000004bb0 .LASF2526
C:\Users\SOLDER~1\AppData\Local\Temp\cc0vShlo.s:18983  .debug_str:00000000000033d7 .LASF2527
C:\Users\SOLDER~1\AppData\Local\Temp\cc0vShlo.s:26357  .debug_str:00000000000214fd .LASF2528
C:\Users\SOLDER~1\AppData\Local\Temp\cc0vShlo.s:24339  .debug_str:00000000000191d5 .LASF2529
C:\Users\SOLDER~1\AppData\Local\Temp\cc0vShlo.s:19431  .debug_str:000000000000500a .LASF2530
C:\Users\SOLDER~1\AppData\Local\Temp\cc0vShlo.s:28115  .debug_str:00000000000288fb .LASF2531
C:\Users\SOLDER~1\AppData\Local\Temp\cc0vShlo.s:19383  .debug_str:0000000000004d45 .LASF2532
C:\Users\SOLDER~1\AppData\Local\Temp\cc0vShlo.s:29447  .debug_str:000000000002df54 .LASF2533
C:\Users\SOLDER~1\AppData\Local\Temp\cc0vShlo.s:18595  .debug_str:0000000000001a64 .LASF2534
C:\Users\SOLDER~1\AppData\Local\Temp\cc0vShlo.s:19241  .debug_str:0000000000004444 .LASF2535
C:\Users\SOLDER~1\AppData\Local\Temp\cc0vShlo.s:24511  .debug_str:0000000000019ca3 .LASF2536
C:\Users\SOLDER~1\AppData\Local\Temp\cc0vShlo.s:26061  .debug_str:00000000000201b7 .LASF2537
C:\Users\SOLDER~1\AppData\Local\Temp\cc0vShlo.s:18909  .debug_str:0000000000002f02 .LASF2538
C:\Users\SOLDER~1\AppData\Local\Temp\cc0vShlo.s:21933  .debug_str:000000000000f456 .LASF2539
C:\Users\SOLDER~1\AppData\Local\Temp\cc0vShlo.s:24819  .debug_str:000000000001b06d .LASF2540
GAS LISTING C:\Users\SOLDER~1\AppData\Local\Temp\cc0vShlo.s 			page 55


C:\Users\SOLDER~1\AppData\Local\Temp\cc0vShlo.s:28707  .debug_str:000000000002afb1 .LASF2541
C:\Users\SOLDER~1\AppData\Local\Temp\cc0vShlo.s:19135  .debug_str:0000000000003d97 .LASF2542
C:\Users\SOLDER~1\AppData\Local\Temp\cc0vShlo.s:24547  .debug_str:0000000000019ef6 .LASF2543
C:\Users\SOLDER~1\AppData\Local\Temp\cc0vShlo.s:22661  .debug_str:0000000000012339 .LASF2544
C:\Users\SOLDER~1\AppData\Local\Temp\cc0vShlo.s:20711  .debug_str:000000000000a425 .LASF2545
C:\Users\SOLDER~1\AppData\Local\Temp\cc0vShlo.s:28827  .debug_str:000000000002b735 .LASF2546
C:\Users\SOLDER~1\AppData\Local\Temp\cc0vShlo.s:20003  .debug_str:0000000000007597 .LASF2547
C:\Users\SOLDER~1\AppData\Local\Temp\cc0vShlo.s:28023  .debug_str:00000000000282e3 .LASF2548
C:\Users\SOLDER~1\AppData\Local\Temp\cc0vShlo.s:21577  .debug_str:000000000000dd02 .LASF2549
C:\Users\SOLDER~1\AppData\Local\Temp\cc0vShlo.s:27387  .debug_str:0000000000025878 .LASF2550
C:\Users\SOLDER~1\AppData\Local\Temp\cc0vShlo.s:23109  .debug_str:00000000000141e2 .LASF2551
C:\Users\SOLDER~1\AppData\Local\Temp\cc0vShlo.s:20885  .debug_str:000000000000afa5 .LASF2552
C:\Users\SOLDER~1\AppData\Local\Temp\cc0vShlo.s:24693  .debug_str:000000000001a831 .LASF2553
C:\Users\SOLDER~1\AppData\Local\Temp\cc0vShlo.s:20755  .debug_str:000000000000a746 .LASF2554
C:\Users\SOLDER~1\AppData\Local\Temp\cc0vShlo.s:26157  .debug_str:0000000000020802 .LASF2555
C:\Users\SOLDER~1\AppData\Local\Temp\cc0vShlo.s:19473  .debug_str:00000000000052bd .LASF2556
C:\Users\SOLDER~1\AppData\Local\Temp\cc0vShlo.s:24419  .debug_str:00000000000196e7 .LASF2557
C:\Users\SOLDER~1\AppData\Local\Temp\cc0vShlo.s:24463  .debug_str:00000000000199b0 .LASF2558
C:\Users\SOLDER~1\AppData\Local\Temp\cc0vShlo.s:24789  .debug_str:000000000001aea8 .LASF2559
C:\Users\SOLDER~1\AppData\Local\Temp\cc0vShlo.s:20813  .debug_str:000000000000aaf4 .LASF2560
C:\Users\SOLDER~1\AppData\Local\Temp\cc0vShlo.s:26253  .debug_str:0000000000020e3a .LASF2561
C:\Users\SOLDER~1\AppData\Local\Temp\cc0vShlo.s:24059  .debug_str:0000000000017fa6 .LASF2562
C:\Users\SOLDER~1\AppData\Local\Temp\cc0vShlo.s:27849  .debug_str:000000000002776c .LASF2563
C:\Users\SOLDER~1\AppData\Local\Temp\cc0vShlo.s:29053  .debug_str:000000000002c5d7 .LASF2564
C:\Users\SOLDER~1\AppData\Local\Temp\cc0vShlo.s:29481  .debug_str:000000000002e162 .LASF2565
C:\Users\SOLDER~1\AppData\Local\Temp\cc0vShlo.s:22521  .debug_str:0000000000011a83 .LASF2566
C:\Users\SOLDER~1\AppData\Local\Temp\cc0vShlo.s:19479  .debug_str:0000000000005316 .LASF2567
C:\Users\SOLDER~1\AppData\Local\Temp\cc0vShlo.s:27519  .debug_str:00000000000261c4 .LASF2568
C:\Users\SOLDER~1\AppData\Local\Temp\cc0vShlo.s:21083  .debug_str:000000000000bc80 .LASF2569
C:\Users\SOLDER~1\AppData\Local\Temp\cc0vShlo.s:21109  .debug_str:000000000000be02 .LASF2570
C:\Users\SOLDER~1\AppData\Local\Temp\cc0vShlo.s:22681  .debug_str:00000000000124c6 .LASF2571
C:\Users\SOLDER~1\AppData\Local\Temp\cc0vShlo.s:26047  .debug_str:00000000000200b8 .LASF2572
C:\Users\SOLDER~1\AppData\Local\Temp\cc0vShlo.s:25507  .debug_str:000000000001ddbd .LASF2573
C:\Users\SOLDER~1\AppData\Local\Temp\cc0vShlo.s:18865  .debug_str:0000000000002bef .LASF2574
C:\Users\SOLDER~1\AppData\Local\Temp\cc0vShlo.s:23663  .debug_str:00000000000165d7 .LASF2575
C:\Users\SOLDER~1\AppData\Local\Temp\cc0vShlo.s:24869  .debug_str:000000000001b39b .LASF2576
C:\Users\SOLDER~1\AppData\Local\Temp\cc0vShlo.s:21739  .debug_str:000000000000e806 .LASF2577
C:\Users\SOLDER~1\AppData\Local\Temp\cc0vShlo.s:25513  .debug_str:000000000001de0d .LASF2578
C:\Users\SOLDER~1\AppData\Local\Temp\cc0vShlo.s:19857  .debug_str:0000000000006bf8 .LASF2579
C:\Users\SOLDER~1\AppData\Local\Temp\cc0vShlo.s:21219  .debug_str:000000000000c58c .LASF2580
C:\Users\SOLDER~1\AppData\Local\Temp\cc0vShlo.s:29457  .debug_str:000000000002dfe2 .LASF2581
C:\Users\SOLDER~1\AppData\Local\Temp\cc0vShlo.s:27231  .debug_str:0000000000024e18 .LASF2582
C:\Users\SOLDER~1\AppData\Local\Temp\cc0vShlo.s:22523  .debug_str:0000000000011aa8 .LASF2583
C:\Users\SOLDER~1\AppData\Local\Temp\cc0vShlo.s:26305  .debug_str:00000000000211aa .LASF2584
C:\Users\SOLDER~1\AppData\Local\Temp\cc0vShlo.s:25663  .debug_str:000000000001e7dd .LASF2585
C:\Users\SOLDER~1\AppData\Local\Temp\cc0vShlo.s:21865  .debug_str:000000000000efe1 .LASF2586
C:\Users\SOLDER~1\AppData\Local\Temp\cc0vShlo.s:23819  .debug_str:0000000000016fb3 .LASF2587
C:\Users\SOLDER~1\AppData\Local\Temp\cc0vShlo.s:18507  .debug_str:00000000000014d1 .LASF2588
C:\Users\SOLDER~1\AppData\Local\Temp\cc0vShlo.s:21901  .debug_str:000000000000f247 .LASF2589
C:\Users\SOLDER~1\AppData\Local\Temp\cc0vShlo.s:21679  .debug_str:000000000000e409 .LASF2590
C:\Users\SOLDER~1\AppData\Local\Temp\cc0vShlo.s:24657  .debug_str:000000000001a5e2 .LASF2591
C:\Users\SOLDER~1\AppData\Local\Temp\cc0vShlo.s:19415  .debug_str:0000000000004f20 .LASF2592
C:\Users\SOLDER~1\AppData\Local\Temp\cc0vShlo.s:25899  .debug_str:000000000001f771 .LASF2593
C:\Users\SOLDER~1\AppData\Local\Temp\cc0vShlo.s:25603  .debug_str:000000000001e3a1 .LASF2594
C:\Users\SOLDER~1\AppData\Local\Temp\cc0vShlo.s:24229  .debug_str:0000000000018a7d .LASF2595
C:\Users\SOLDER~1\AppData\Local\Temp\cc0vShlo.s:18613  .debug_str:0000000000001ba3 .LASF2596
C:\Users\SOLDER~1\AppData\Local\Temp\cc0vShlo.s:22565  .debug_str:0000000000011d45 .LASF2597
GAS LISTING C:\Users\SOLDER~1\AppData\Local\Temp\cc0vShlo.s 			page 56


C:\Users\SOLDER~1\AppData\Local\Temp\cc0vShlo.s:29055  .debug_str:000000000002c5fc .LASF2598
C:\Users\SOLDER~1\AppData\Local\Temp\cc0vShlo.s:20927  .debug_str:000000000000b233 .LASF2599
C:\Users\SOLDER~1\AppData\Local\Temp\cc0vShlo.s:25227  .debug_str:000000000001cb75 .LASF2600
C:\Users\SOLDER~1\AppData\Local\Temp\cc0vShlo.s:19199  .debug_str:00000000000041b8 .LASF2601
C:\Users\SOLDER~1\AppData\Local\Temp\cc0vShlo.s:21417  .debug_str:000000000000d2ae .LASF2602
C:\Users\SOLDER~1\AppData\Local\Temp\cc0vShlo.s:29069  .debug_str:000000000002c6e6 .LASF2603
C:\Users\SOLDER~1\AppData\Local\Temp\cc0vShlo.s:24701  .debug_str:000000000001a8b0 .LASF2604
C:\Users\SOLDER~1\AppData\Local\Temp\cc0vShlo.s:23953  .debug_str:000000000001788a .LASF2605
C:\Users\SOLDER~1\AppData\Local\Temp\cc0vShlo.s:20077  .debug_str:0000000000007a18 .LASF2606
C:\Users\SOLDER~1\AppData\Local\Temp\cc0vShlo.s:25707  .debug_str:000000000001eaa4 .LASF2607
C:\Users\SOLDER~1\AppData\Local\Temp\cc0vShlo.s:29503  .debug_str:000000000002e2da .LASF2608
C:\Users\SOLDER~1\AppData\Local\Temp\cc0vShlo.s:24131  .debug_str:0000000000018416 .LASF2609
C:\Users\SOLDER~1\AppData\Local\Temp\cc0vShlo.s:23167  .debug_str:00000000000145d2 .LASF2610
C:\Users\SOLDER~1\AppData\Local\Temp\cc0vShlo.s:22467  .debug_str:000000000001170d .LASF2611
C:\Users\SOLDER~1\AppData\Local\Temp\cc0vShlo.s:28349  .debug_str:00000000000297cc .LASF2612
C:\Users\SOLDER~1\AppData\Local\Temp\cc0vShlo.s:21995  .debug_str:000000000000f895 .LASF2613
C:\Users\SOLDER~1\AppData\Local\Temp\cc0vShlo.s:19203  .debug_str:00000000000041ed .LASF2614
C:\Users\SOLDER~1\AppData\Local\Temp\cc0vShlo.s:18289  .debug_str:00000000000005c5 .LASF2615
C:\Users\SOLDER~1\AppData\Local\Temp\cc0vShlo.s:25111  .debug_str:000000000001c37a .LASF2616
C:\Users\SOLDER~1\AppData\Local\Temp\cc0vShlo.s:27827  .debug_str:000000000002761f .LASF2617
C:\Users\SOLDER~1\AppData\Local\Temp\cc0vShlo.s:19729  .debug_str:000000000000638c .LASF2618
C:\Users\SOLDER~1\AppData\Local\Temp\cc0vShlo.s:25945  .debug_str:000000000001fa5d .LASF2619
C:\Users\SOLDER~1\AppData\Local\Temp\cc0vShlo.s:26001  .debug_str:000000000001fdda .LASF2620
C:\Users\SOLDER~1\AppData\Local\Temp\cc0vShlo.s:24155  .debug_str:00000000000185b7 .LASF2621
C:\Users\SOLDER~1\AppData\Local\Temp\cc0vShlo.s:25955  .debug_str:000000000001faf7 .LASF2622
C:\Users\SOLDER~1\AppData\Local\Temp\cc0vShlo.s:21349  .debug_str:000000000000ce41 .LASF2623
C:\Users\SOLDER~1\AppData\Local\Temp\cc0vShlo.s:26649  .debug_str:00000000000227af .LASF2624
C:\Users\SOLDER~1\AppData\Local\Temp\cc0vShlo.s:20315  .debug_str:00000000000089cf .LASF2625
C:\Users\SOLDER~1\AppData\Local\Temp\cc0vShlo.s:22233  .debug_str:0000000000010803 .LASF2626
C:\Users\SOLDER~1\AppData\Local\Temp\cc0vShlo.s:18443  .debug_str:0000000000001096 .LASF2627
C:\Users\SOLDER~1\AppData\Local\Temp\cc0vShlo.s:18841  .debug_str:0000000000002aa0 .LASF2628
C:\Users\SOLDER~1\AppData\Local\Temp\cc0vShlo.s:27983  .debug_str:0000000000028065 .LASF2629
C:\Users\SOLDER~1\AppData\Local\Temp\cc0vShlo.s:28473  .debug_str:000000000002a062 .LASF2630
C:\Users\SOLDER~1\AppData\Local\Temp\cc0vShlo.s:26179  .debug_str:0000000000020981 .LASF2631
C:\Users\SOLDER~1\AppData\Local\Temp\cc0vShlo.s:19687  .debug_str:00000000000060bd .LASF2632
C:\Users\SOLDER~1\AppData\Local\Temp\cc0vShlo.s:29629  .debug_str:000000000002eb04 .LASF2633
C:\Users\SOLDER~1\AppData\Local\Temp\cc0vShlo.s:22383  .debug_str:000000000001118f .LASF2634
C:\Users\SOLDER~1\AppData\Local\Temp\cc0vShlo.s:21781  .debug_str:000000000000ea73 .LASF2635
C:\Users\SOLDER~1\AppData\Local\Temp\cc0vShlo.s:26795  .debug_str:000000000002315c .LASF2636
C:\Users\SOLDER~1\AppData\Local\Temp\cc0vShlo.s:27915  .debug_str:0000000000027be9 .LASF2637
C:\Users\SOLDER~1\AppData\Local\Temp\cc0vShlo.s:25883  .debug_str:000000000001f682 .LASF2638
C:\Users\SOLDER~1\AppData\Local\Temp\cc0vShlo.s:18539  .debug_str:00000000000016e3 .LASF2639
C:\Users\SOLDER~1\AppData\Local\Temp\cc0vShlo.s:23909  .debug_str:00000000000175b7 .LASF2640
C:\Users\SOLDER~1\AppData\Local\Temp\cc0vShlo.s:28373  .debug_str:0000000000029970 .LASF2641
C:\Users\SOLDER~1\AppData\Local\Temp\cc0vShlo.s:19963  .debug_str:0000000000007320 .LASF2642
C:\Users\SOLDER~1\AppData\Local\Temp\cc0vShlo.s:26615  .debug_str:000000000002255c .LASF2643
C:\Users\SOLDER~1\AppData\Local\Temp\cc0vShlo.s:21431  .debug_str:000000000000d3ad .LASF2644
C:\Users\SOLDER~1\AppData\Local\Temp\cc0vShlo.s:25025  .debug_str:000000000001bdb4 .LASF2645
C:\Users\SOLDER~1\AppData\Local\Temp\cc0vShlo.s:23375  .debug_str:0000000000015382 .LASF2646
C:\Users\SOLDER~1\AppData\Local\Temp\cc0vShlo.s:23411  .debug_str:00000000000155e0 .LASF2647
C:\Users\SOLDER~1\AppData\Local\Temp\cc0vShlo.s:26215  .debug_str:0000000000020ba9 .LASF2648
C:\Users\SOLDER~1\AppData\Local\Temp\cc0vShlo.s:21669  .debug_str:000000000000e378 .LASF2649
C:\Users\SOLDER~1\AppData\Local\Temp\cc0vShlo.s:27857  .debug_str:00000000000277d6 .LASF2650
C:\Users\SOLDER~1\AppData\Local\Temp\cc0vShlo.s:20067  .debug_str:0000000000007993 .LASF2651
C:\Users\SOLDER~1\AppData\Local\Temp\cc0vShlo.s:25085  .debug_str:000000000001c1bb .LASF2652
C:\Users\SOLDER~1\AppData\Local\Temp\cc0vShlo.s:20667  .debug_str:000000000000a149 .LASF2653
C:\Users\SOLDER~1\AppData\Local\Temp\cc0vShlo.s:18811  .debug_str:00000000000028cf .LASF2654
GAS LISTING C:\Users\SOLDER~1\AppData\Local\Temp\cc0vShlo.s 			page 57


C:\Users\SOLDER~1\AppData\Local\Temp\cc0vShlo.s:18791  .debug_str:000000000000275e .LASF2655
C:\Users\SOLDER~1\AppData\Local\Temp\cc0vShlo.s:24813  .debug_str:000000000001b008 .LASF2656
C:\Users\SOLDER~1\AppData\Local\Temp\cc0vShlo.s:26719  .debug_str:0000000000022c65 .LASF2657
C:\Users\SOLDER~1\AppData\Local\Temp\cc0vShlo.s:19523  .debug_str:0000000000005598 .LASF2658
C:\Users\SOLDER~1\AppData\Local\Temp\cc0vShlo.s:24011  .debug_str:0000000000017c46 .LASF2659
C:\Users\SOLDER~1\AppData\Local\Temp\cc0vShlo.s:25591  .debug_str:000000000001e2d7 .LASF2660
C:\Users\SOLDER~1\AppData\Local\Temp\cc0vShlo.s:24621  .debug_str:000000000001a39d .LASF2661
C:\Users\SOLDER~1\AppData\Local\Temp\cc0vShlo.s:25557  .debug_str:000000000001e0cc .LASF2662
C:\Users\SOLDER~1\AppData\Local\Temp\cc0vShlo.s:22717  .debug_str:00000000000126ee .LASF2663
C:\Users\SOLDER~1\AppData\Local\Temp\cc0vShlo.s:26249  .debug_str:0000000000020dda .LASF2664
C:\Users\SOLDER~1\AppData\Local\Temp\cc0vShlo.s:20831  .debug_str:000000000000ac0a .LASF2665
C:\Users\SOLDER~1\AppData\Local\Temp\cc0vShlo.s:21807  .debug_str:000000000000ec36 .LASF2666
C:\Users\SOLDER~1\AppData\Local\Temp\cc0vShlo.s:18949  .debug_str:000000000000319a .LASF2667
C:\Users\SOLDER~1\AppData\Local\Temp\cc0vShlo.s:18463  .debug_str:00000000000011e7 .LASF2668
C:\Users\SOLDER~1\AppData\Local\Temp\cc0vShlo.s:19263  .debug_str:00000000000045a7 .LASF2669
C:\Users\SOLDER~1\AppData\Local\Temp\cc0vShlo.s:27133  .debug_str:00000000000247b0 .LASF2670
C:\Users\SOLDER~1\AppData\Local\Temp\cc0vShlo.s:26605  .debug_str:00000000000224c6 .LASF2671
C:\Users\SOLDER~1\AppData\Local\Temp\cc0vShlo.s:19359  .debug_str:0000000000004bd0 .LASF2672
C:\Users\SOLDER~1\AppData\Local\Temp\cc0vShlo.s:27285  .debug_str:0000000000025185 .LASF2673
C:\Users\SOLDER~1\AppData\Local\Temp\cc0vShlo.s:26331  .debug_str:0000000000021355 .LASF2674
C:\Users\SOLDER~1\AppData\Local\Temp\cc0vShlo.s:25687  .debug_str:000000000001e96c .LASF2675
C:\Users\SOLDER~1\AppData\Local\Temp\cc0vShlo.s:24465  .debug_str:00000000000199d5 .LASF2676
C:\Users\SOLDER~1\AppData\Local\Temp\cc0vShlo.s:24105  .debug_str:0000000000018288 .LASF2677
C:\Users\SOLDER~1\AppData\Local\Temp\cc0vShlo.s:23529  .debug_str:0000000000015d62 .LASF2678
C:\Users\SOLDER~1\AppData\Local\Temp\cc0vShlo.s:22445  .debug_str:00000000000115b9 .LASF2679
C:\Users\SOLDER~1\AppData\Local\Temp\cc0vShlo.s:19695  .debug_str:000000000000614f .LASF2680
C:\Users\SOLDER~1\AppData\Local\Temp\cc0vShlo.s:26387  .debug_str:00000000000216e5 .LASF2681
C:\Users\SOLDER~1\AppData\Local\Temp\cc0vShlo.s:29135  .debug_str:000000000002cb11 .LASF2682
C:\Users\SOLDER~1\AppData\Local\Temp\cc0vShlo.s:19095  .debug_str:0000000000003b1a .LASF2683
C:\Users\SOLDER~1\AppData\Local\Temp\cc0vShlo.s:19133  .debug_str:0000000000003d70 .LASF2684
C:\Users\SOLDER~1\AppData\Local\Temp\cc0vShlo.s:25627  .debug_str:000000000001e573 .LASF2685
C:\Users\SOLDER~1\AppData\Local\Temp\cc0vShlo.s:25897  .debug_str:000000000001f74a .LASF2686
C:\Users\SOLDER~1\AppData\Local\Temp\cc0vShlo.s:27181  .debug_str:0000000000024acc .LASF2687
C:\Users\SOLDER~1\AppData\Local\Temp\cc0vShlo.s:23989  .debug_str:0000000000017ad5 .LASF2688
C:\Users\SOLDER~1\AppData\Local\Temp\cc0vShlo.s:25581  .debug_str:000000000001e24e .LASF2689
C:\Users\SOLDER~1\AppData\Local\Temp\cc0vShlo.s:25483  .debug_str:000000000001dc05 .LASF2690
C:\Users\SOLDER~1\AppData\Local\Temp\cc0vShlo.s:24015  .debug_str:0000000000017c86 .LASF2691
C:\Users\SOLDER~1\AppData\Local\Temp\cc0vShlo.s:26707  .debug_str:0000000000022ba5 .LASF2692
C:\Users\SOLDER~1\AppData\Local\Temp\cc0vShlo.s:19493  .debug_str:00000000000053da .LASF2693
C:\Users\SOLDER~1\AppData\Local\Temp\cc0vShlo.s:18703  .debug_str:0000000000002188 .LASF2694
C:\Users\SOLDER~1\AppData\Local\Temp\cc0vShlo.s:29097  .debug_str:000000000002c8a6 .LASF2695
C:\Users\SOLDER~1\AppData\Local\Temp\cc0vShlo.s:22927  .debug_str:00000000000134f9 .LASF2696
C:\Users\SOLDER~1\AppData\Local\Temp\cc0vShlo.s:22843  .debug_str:0000000000012f6b .LASF2697
C:\Users\SOLDER~1\AppData\Local\Temp\cc0vShlo.s:19299  .debug_str:0000000000004808 .LASF2698
C:\Users\SOLDER~1\AppData\Local\Temp\cc0vShlo.s:25305  .debug_str:000000000001d0c4 .LASF2699
C:\Users\SOLDER~1\AppData\Local\Temp\cc0vShlo.s:25579  .debug_str:000000000001e228 .LASF2700
C:\Users\SOLDER~1\AppData\Local\Temp\cc0vShlo.s:29649  .debug_str:000000000002ec48 .LASF2701
C:\Users\SOLDER~1\AppData\Local\Temp\cc0vShlo.s:25541  .debug_str:000000000001dfd0 .LASF2702
C:\Users\SOLDER~1\AppData\Local\Temp\cc0vShlo.s:21539  .debug_str:000000000000da6a .LASF2703
C:\Users\SOLDER~1\AppData\Local\Temp\cc0vShlo.s:26145  .debug_str:000000000002072a .LASF2704
C:\Users\SOLDER~1\AppData\Local\Temp\cc0vShlo.s:19661  .debug_str:0000000000005ecf .LASF2705
C:\Users\SOLDER~1\AppData\Local\Temp\cc0vShlo.s:21691  .debug_str:000000000000e4ba .LASF2706
C:\Users\SOLDER~1\AppData\Local\Temp\cc0vShlo.s:29249  .debug_str:000000000002d2af .LASF2707
C:\Users\SOLDER~1\AppData\Local\Temp\cc0vShlo.s:23187  .debug_str:00000000000146f8 .LASF2708
C:\Users\SOLDER~1\AppData\Local\Temp\cc0vShlo.s:27411  .debug_str:0000000000025a2f .LASF2709
C:\Users\SOLDER~1\AppData\Local\Temp\cc0vShlo.s:28049  .debug_str:0000000000028479 .LASF2710
C:\Users\SOLDER~1\AppData\Local\Temp\cc0vShlo.s:25553  .debug_str:000000000001e089 .LASF2711
GAS LISTING C:\Users\SOLDER~1\AppData\Local\Temp\cc0vShlo.s 			page 58


C:\Users\SOLDER~1\AppData\Local\Temp\cc0vShlo.s:25943  .debug_str:000000000001fa37 .LASF2712
C:\Users\SOLDER~1\AppData\Local\Temp\cc0vShlo.s:23975  .debug_str:00000000000179f8 .LASF2713
C:\Users\SOLDER~1\AppData\Local\Temp\cc0vShlo.s:26271  .debug_str:0000000000020f80 .LASF2714
C:\Users\SOLDER~1\AppData\Local\Temp\cc0vShlo.s:20379  .debug_str:0000000000008e1c .LASF2715
C:\Users\SOLDER~1\AppData\Local\Temp\cc0vShlo.s:19169  .debug_str:0000000000003fae .LASF2716
C:\Users\SOLDER~1\AppData\Local\Temp\cc0vShlo.s:20581  .debug_str:0000000000009b81 .LASF2717
C:\Users\SOLDER~1\AppData\Local\Temp\cc0vShlo.s:18371  .debug_str:0000000000000c0c .LASF2718
C:\Users\SOLDER~1\AppData\Local\Temp\cc0vShlo.s:18209  .debug_str:00000000000000a4 .LASF2719
C:\Users\SOLDER~1\AppData\Local\Temp\cc0vShlo.s:26005  .debug_str:000000000001fe14 .LASF2720
C:\Users\SOLDER~1\AppData\Local\Temp\cc0vShlo.s:21249  .debug_str:000000000000c780 .LASF2721
C:\Users\SOLDER~1\AppData\Local\Temp\cc0vShlo.s:26801  .debug_str:00000000000231cc .LASF2722
C:\Users\SOLDER~1\AppData\Local\Temp\cc0vShlo.s:27041  .debug_str:000000000002417e .LASF2723
C:\Users\SOLDER~1\AppData\Local\Temp\cc0vShlo.s:25353  .debug_str:000000000001d3ed .LASF2724
C:\Users\SOLDER~1\AppData\Local\Temp\cc0vShlo.s:25435  .debug_str:000000000001d8cd .LASF2725
C:\Users\SOLDER~1\AppData\Local\Temp\cc0vShlo.s:20745  .debug_str:000000000000a695 .LASF2726
C:\Users\SOLDER~1\AppData\Local\Temp\cc0vShlo.s:23865  .debug_str:00000000000172ab .LASF2727
C:\Users\SOLDER~1\AppData\Local\Temp\cc0vShlo.s:18689  .debug_str:000000000000208c .LASF2728
C:\Users\SOLDER~1\AppData\Local\Temp\cc0vShlo.s:22131  .debug_str:0000000000010185 .LASF2729
C:\Users\SOLDER~1\AppData\Local\Temp\cc0vShlo.s:20351  .debug_str:0000000000008c03 .LASF2730
C:\Users\SOLDER~1\AppData\Local\Temp\cc0vShlo.s:20491  .debug_str:00000000000095c8 .LASF2731
C:\Users\SOLDER~1\AppData\Local\Temp\cc0vShlo.s:29025  .debug_str:000000000002c417 .LASF2732
C:\Users\SOLDER~1\AppData\Local\Temp\cc0vShlo.s:29159  .debug_str:000000000002ccb8 .LASF2733
C:\Users\SOLDER~1\AppData\Local\Temp\cc0vShlo.s:27391  .debug_str:00000000000258b8 .LASF2734
C:\Users\SOLDER~1\AppData\Local\Temp\cc0vShlo.s:27233  .debug_str:0000000000024e3f .LASF2735
C:\Users\SOLDER~1\AppData\Local\Temp\cc0vShlo.s:21951  .debug_str:000000000000f567 .LASF2736
C:\Users\SOLDER~1\AppData\Local\Temp\cc0vShlo.s:25363  .debug_str:000000000001d48b .LASF2737
C:\Users\SOLDER~1\AppData\Local\Temp\cc0vShlo.s:28013  .debug_str:0000000000028245 .LASF2738
C:\Users\SOLDER~1\AppData\Local\Temp\cc0vShlo.s:23515  .debug_str:0000000000015c92 .LASF2739
C:\Users\SOLDER~1\AppData\Local\Temp\cc0vShlo.s:22839  .debug_str:0000000000012f19 .LASF2740
C:\Users\SOLDER~1\AppData\Local\Temp\cc0vShlo.s:20245  .debug_str:0000000000008546 .LASF2741
C:\Users\SOLDER~1\AppData\Local\Temp\cc0vShlo.s:19091  .debug_str:0000000000003acc .LASF2742
C:\Users\SOLDER~1\AppData\Local\Temp\cc0vShlo.s:24349  .debug_str:0000000000019276 .LASF2743
C:\Users\SOLDER~1\AppData\Local\Temp\cc0vShlo.s:23433  .debug_str:0000000000015747 .LASF2744
C:\Users\SOLDER~1\AppData\Local\Temp\cc0vShlo.s:29311  .debug_str:000000000002d6ac .LASF2745
C:\Users\SOLDER~1\AppData\Local\Temp\cc0vShlo.s:18947  .debug_str:000000000000316f .LASF2746
C:\Users\SOLDER~1\AppData\Local\Temp\cc0vShlo.s:27385  .debug_str:000000000002585b .LASF2747
C:\Users\SOLDER~1\AppData\Local\Temp\cc0vShlo.s:27017  .debug_str:0000000000023fe9 .LASF2748
C:\Users\SOLDER~1\AppData\Local\Temp\cc0vShlo.s:25527  .debug_str:000000000001dee0 .LASF2749
C:\Users\SOLDER~1\AppData\Local\Temp\cc0vShlo.s:24987  .debug_str:000000000001bb07 .LASF2750
C:\Users\SOLDER~1\AppData\Local\Temp\cc0vShlo.s:23767  .debug_str:0000000000016c35 .LASF2751
C:\Users\SOLDER~1\AppData\Local\Temp\cc0vShlo.s:27957  .debug_str:0000000000027eab .LASF2752
C:\Users\SOLDER~1\AppData\Local\Temp\cc0vShlo.s:19291  .debug_str:0000000000004786 .LASF2753
C:\Users\SOLDER~1\AppData\Local\Temp\cc0vShlo.s:22339  .debug_str:0000000000010ebf .LASF2754
C:\Users\SOLDER~1\AppData\Local\Temp\cc0vShlo.s:29149  .debug_str:000000000002cc01 .LASF2755
C:\Users\SOLDER~1\AppData\Local\Temp\cc0vShlo.s:26267  .debug_str:0000000000020f32 .LASF2756
C:\Users\SOLDER~1\AppData\Local\Temp\cc0vShlo.s:27485  .debug_str:0000000000025f4e .LASF2757
C:\Users\SOLDER~1\AppData\Local\Temp\cc0vShlo.s:28517  .debug_str:000000000002a32a .LASF2758
C:\Users\SOLDER~1\AppData\Local\Temp\cc0vShlo.s:25805  .debug_str:000000000001f127 .LASF2759
C:\Users\SOLDER~1\AppData\Local\Temp\cc0vShlo.s:24721  .debug_str:000000000001a9f6 .LASF2760
C:\Users\SOLDER~1\AppData\Local\Temp\cc0vShlo.s:24215  .debug_str:000000000001899f .LASF2761
C:\Users\SOLDER~1\AppData\Local\Temp\cc0vShlo.s:22671  .debug_str:00000000000123e9 .LASF2762
C:\Users\SOLDER~1\AppData\Local\Temp\cc0vShlo.s:22553  .debug_str:0000000000011c96 .LASF2763
C:\Users\SOLDER~1\AppData\Local\Temp\cc0vShlo.s:24201  .debug_str:0000000000018887 .LASF2764
C:\Users\SOLDER~1\AppData\Local\Temp\cc0vShlo.s:20827  .debug_str:000000000000abcb .LASF2765
C:\Users\SOLDER~1\AppData\Local\Temp\cc0vShlo.s:19437  .debug_str:0000000000005064 .LASF2766
C:\Users\SOLDER~1\AppData\Local\Temp\cc0vShlo.s:21567  .debug_str:000000000000dc59 .LASF2767
C:\Users\SOLDER~1\AppData\Local\Temp\cc0vShlo.s:28959  .debug_str:000000000002c016 .LASF2768
GAS LISTING C:\Users\SOLDER~1\AppData\Local\Temp\cc0vShlo.s 			page 59


C:\Users\SOLDER~1\AppData\Local\Temp\cc0vShlo.s:25731  .debug_str:000000000001ec30 .LASF2769
C:\Users\SOLDER~1\AppData\Local\Temp\cc0vShlo.s:19035  .debug_str:0000000000003712 .LASF2770
C:\Users\SOLDER~1\AppData\Local\Temp\cc0vShlo.s:19609  .debug_str:0000000000005ba6 .LASF2771
C:\Users\SOLDER~1\AppData\Local\Temp\cc0vShlo.s:29139  .debug_str:000000000002cb56 .LASF2772
C:\Users\SOLDER~1\AppData\Local\Temp\cc0vShlo.s:26091  .debug_str:00000000000203b3 .LASF2773
C:\Users\SOLDER~1\AppData\Local\Temp\cc0vShlo.s:23229  .debug_str:00000000000149f5 .LASF2774
C:\Users\SOLDER~1\AppData\Local\Temp\cc0vShlo.s:19433  .debug_str:000000000000502f .LASF2775
C:\Users\SOLDER~1\AppData\Local\Temp\cc0vShlo.s:29117  .debug_str:000000000002c9ed .LASF2776
C:\Users\SOLDER~1\AppData\Local\Temp\cc0vShlo.s:22441  .debug_str:0000000000011591 .LASF2777
C:\Users\SOLDER~1\AppData\Local\Temp\cc0vShlo.s:23759  .debug_str:0000000000016bbb .LASF2778
C:\Users\SOLDER~1\AppData\Local\Temp\cc0vShlo.s:20549  .debug_str:000000000000997b .LASF2779
C:\Users\SOLDER~1\AppData\Local\Temp\cc0vShlo.s:20973  .debug_str:000000000000b54e .LASF2780
C:\Users\SOLDER~1\AppData\Local\Temp\cc0vShlo.s:18659  .debug_str:0000000000001eb3 .LASF2781
C:\Users\SOLDER~1\AppData\Local\Temp\cc0vShlo.s:18505  .debug_str:00000000000014aa .LASF2782
C:\Users\SOLDER~1\AppData\Local\Temp\cc0vShlo.s:28241  .debug_str:00000000000290f7 .LASF2783
C:\Users\SOLDER~1\AppData\Local\Temp\cc0vShlo.s:19185  .debug_str:00000000000040bf .LASF2784
C:\Users\SOLDER~1\AppData\Local\Temp\cc0vShlo.s:19213  .debug_str:000000000000427e .LASF2785
C:\Users\SOLDER~1\AppData\Local\Temp\cc0vShlo.s:26177  .debug_str:000000000002095a .LASF2786
C:\Users\SOLDER~1\AppData\Local\Temp\cc0vShlo.s:24497  .debug_str:0000000000019be6 .LASF2787
C:\Users\SOLDER~1\AppData\Local\Temp\cc0vShlo.s:22841  .debug_str:0000000000012f44 .LASF2788
C:\Users\SOLDER~1\AppData\Local\Temp\cc0vShlo.s:22591  .debug_str:0000000000011f00 .LASF2789
C:\Users\SOLDER~1\AppData\Local\Temp\cc0vShlo.s:20999  .debug_str:000000000000b6db .LASF2790
C:\Users\SOLDER~1\AppData\Local\Temp\cc0vShlo.s:23725  .debug_str:00000000000169de .LASF2791
C:\Users\SOLDER~1\AppData\Local\Temp\cc0vShlo.s:23711  .debug_str:00000000000168e8 .LASF2792
C:\Users\SOLDER~1\AppData\Local\Temp\cc0vShlo.s:20123  .debug_str:0000000000007d4e .LASF2793
C:\Users\SOLDER~1\AppData\Local\Temp\cc0vShlo.s:26273  .debug_str:0000000000020fa7 .LASF2794
C:\Users\SOLDER~1\AppData\Local\Temp\cc0vShlo.s:25561  .debug_str:000000000001e115 .LASF2795
C:\Users\SOLDER~1\AppData\Local\Temp\cc0vShlo.s:22985  .debug_str:00000000000138f3 .LASF2796
C:\Users\SOLDER~1\AppData\Local\Temp\cc0vShlo.s:28335  .debug_str:00000000000296fe .LASF2797
C:\Users\SOLDER~1\AppData\Local\Temp\cc0vShlo.s:18293  .debug_str:0000000000000603 .LASF2798
C:\Users\SOLDER~1\AppData\Local\Temp\cc0vShlo.s:26577  .debug_str:00000000000222d6 .LASF2799
C:\Users\SOLDER~1\AppData\Local\Temp\cc0vShlo.s:25921  .debug_str:000000000001f8d2 .LASF2800
C:\Users\SOLDER~1\AppData\Local\Temp\cc0vShlo.s:24991  .debug_str:000000000001bb5e .LASF2801
C:\Users\SOLDER~1\AppData\Local\Temp\cc0vShlo.s:23941  .debug_str:000000000001779b .LASF2802
C:\Users\SOLDER~1\AppData\Local\Temp\cc0vShlo.s:23367  .debug_str:00000000000152f8 .LASF2803
C:\Users\SOLDER~1\AppData\Local\Temp\cc0vShlo.s:25359  .debug_str:000000000001d448 .LASF2804
C:\Users\SOLDER~1\AppData\Local\Temp\cc0vShlo.s:21723  .debug_str:000000000000e6ce .LASF2805
C:\Users\SOLDER~1\AppData\Local\Temp\cc0vShlo.s:20655  .debug_str:000000000000a05d .LASF2806
C:\Users\SOLDER~1\AppData\Local\Temp\cc0vShlo.s:20025  .debug_str:00000000000076ff .LASF2807
C:\Users\SOLDER~1\AppData\Local\Temp\cc0vShlo.s:18695  .debug_str:0000000000002100 .LASF2808
C:\Users\SOLDER~1\AppData\Local\Temp\cc0vShlo.s:18413  .debug_str:0000000000000ed3 .LASF2809
C:\Users\SOLDER~1\AppData\Local\Temp\cc0vShlo.s:20265  .debug_str:00000000000086a1 .LASF2810
C:\Users\SOLDER~1\AppData\Local\Temp\cc0vShlo.s:28223  .debug_str:0000000000028fcb .LASF2811
C:\Users\SOLDER~1\AppData\Local\Temp\cc0vShlo.s:29029  .debug_str:000000000002c463 .LASF2812
C:\Users\SOLDER~1\AppData\Local\Temp\cc0vShlo.s:18665  .debug_str:0000000000001f19 .LASF2813
C:\Users\SOLDER~1\AppData\Local\Temp\cc0vShlo.s:25223  .debug_str:000000000001cb28 .LASF2814
C:\Users\SOLDER~1\AppData\Local\Temp\cc0vShlo.s:26113  .debug_str:000000000002052c .LASF2815
C:\Users\SOLDER~1\AppData\Local\Temp\cc0vShlo.s:18597  .debug_str:0000000000001a85 .LASF2816
C:\Users\SOLDER~1\AppData\Local\Temp\cc0vShlo.s:25787  .debug_str:000000000001efee .LASF2817
C:\Users\SOLDER~1\AppData\Local\Temp\cc0vShlo.s:23839  .debug_str:0000000000017100 .LASF2818
C:\Users\SOLDER~1\AppData\Local\Temp\cc0vShlo.s:26045  .debug_str:0000000000020093 .LASF2819
C:\Users\SOLDER~1\AppData\Local\Temp\cc0vShlo.s:19935  .debug_str:000000000000714b .LASF2820
C:\Users\SOLDER~1\AppData\Local\Temp\cc0vShlo.s:26435  .debug_str:00000000000219eb .LASF2821
C:\Users\SOLDER~1\AppData\Local\Temp\cc0vShlo.s:20135  .debug_str:0000000000007e1a .LASF2822
C:\Users\SOLDER~1\AppData\Local\Temp\cc0vShlo.s:19025  .debug_str:0000000000003683 .LASF2823
C:\Users\SOLDER~1\AppData\Local\Temp\cc0vShlo.s:24295  .debug_str:0000000000018f03 .LASF2824
C:\Users\SOLDER~1\AppData\Local\Temp\cc0vShlo.s:27053  .debug_str:000000000002424f .LASF2825
GAS LISTING C:\Users\SOLDER~1\AppData\Local\Temp\cc0vShlo.s 			page 60


C:\Users\SOLDER~1\AppData\Local\Temp\cc0vShlo.s:22515  .debug_str:0000000000011a18 .LASF2826
C:\Users\SOLDER~1\AppData\Local\Temp\cc0vShlo.s:19315  .debug_str:000000000000490f .LASF2827
C:\Users\SOLDER~1\AppData\Local\Temp\cc0vShlo.s:26619  .debug_str:0000000000022592 .LASF2828
C:\Users\SOLDER~1\AppData\Local\Temp\cc0vShlo.s:23425  .debug_str:00000000000156d1 .LASF2829
C:\Users\SOLDER~1\AppData\Local\Temp\cc0vShlo.s:28145  .debug_str:0000000000028ace .LASF2830
C:\Users\SOLDER~1\AppData\Local\Temp\cc0vShlo.s:25573  .debug_str:000000000001e1c2 .LASF2831
C:\Users\SOLDER~1\AppData\Local\Temp\cc0vShlo.s:29669  .debug_str:000000000002ed8c .LASF2832
C:\Users\SOLDER~1\AppData\Local\Temp\cc0vShlo.s:24473  .debug_str:0000000000019a6a .LASF2833
C:\Users\SOLDER~1\AppData\Local\Temp\cc0vShlo.s:22437  .debug_str:000000000001154a .LASF2834
C:\Users\SOLDER~1\AppData\Local\Temp\cc0vShlo.s:23703  .debug_str:000000000001685b .LASF2835
C:\Users\SOLDER~1\AppData\Local\Temp\cc0vShlo.s:19683  .debug_str:0000000000006055 .LASF2836
C:\Users\SOLDER~1\AppData\Local\Temp\cc0vShlo.s:28749  .debug_str:000000000002b236 .LASF2837
C:\Users\SOLDER~1\AppData\Local\Temp\cc0vShlo.s:22379  .debug_str:0000000000011149 .LASF2838
C:\Users\SOLDER~1\AppData\Local\Temp\cc0vShlo.s:19275  .debug_str:0000000000004674 .LASF2839
C:\Users\SOLDER~1\AppData\Local\Temp\cc0vShlo.s:28359  .debug_str:000000000002988f .LASF2840
C:\Users\SOLDER~1\AppData\Local\Temp\cc0vShlo.s:27821  .debug_str:00000000000275af .LASF2841
C:\Users\SOLDER~1\AppData\Local\Temp\cc0vShlo.s:25181  .debug_str:000000000001c841 .LASF2842
C:\Users\SOLDER~1\AppData\Local\Temp\cc0vShlo.s:25963  .debug_str:000000000001fb76 .LASF2843
C:\Users\SOLDER~1\AppData\Local\Temp\cc0vShlo.s:27741  .debug_str:0000000000027065 .LASF2844
C:\Users\SOLDER~1\AppData\Local\Temp\cc0vShlo.s:28071  .debug_str:0000000000028629 .LASF2845
C:\Users\SOLDER~1\AppData\Local\Temp\cc0vShlo.s:21613  .debug_str:000000000000df69 .LASF2846
C:\Users\SOLDER~1\AppData\Local\Temp\cc0vShlo.s:25059  .debug_str:000000000001bffc .LASF2847
C:\Users\SOLDER~1\AppData\Local\Temp\cc0vShlo.s:29631  .debug_str:000000000002eb1e .LASF2848
C:\Users\SOLDER~1\AppData\Local\Temp\cc0vShlo.s:25113  .debug_str:000000000001c3a0 .LASF2849
C:\Users\SOLDER~1\AppData\Local\Temp\cc0vShlo.s:23031  .debug_str:0000000000013c56 .LASF2850
C:\Users\SOLDER~1\AppData\Local\Temp\cc0vShlo.s:29193  .debug_str:000000000002cf40 .LASF2851
C:\Users\SOLDER~1\AppData\Local\Temp\cc0vShlo.s:21437  .debug_str:000000000000d415 .LASF2852
C:\Users\SOLDER~1\AppData\Local\Temp\cc0vShlo.s:21051  .debug_str:000000000000ba4f .LASF2853
C:\Users\SOLDER~1\AppData\Local\Temp\cc0vShlo.s:28497  .debug_str:000000000002a1f3 .LASF2854
C:\Users\SOLDER~1\AppData\Local\Temp\cc0vShlo.s:24755  .debug_str:000000000001ac84 .LASF2855
C:\Users\SOLDER~1\AppData\Local\Temp\cc0vShlo.s:28875  .debug_str:000000000002ba3a .LASF2856
C:\Users\SOLDER~1\AppData\Local\Temp\cc0vShlo.s:21261  .debug_str:000000000000c84c .LASF2857
C:\Users\SOLDER~1\AppData\Local\Temp\cc0vShlo.s:25667  .debug_str:000000000001e81b .LASF2858
C:\Users\SOLDER~1\AppData\Local\Temp\cc0vShlo.s:19511  .debug_str:00000000000054d7 .LASF2859
C:\Users\SOLDER~1\AppData\Local\Temp\cc0vShlo.s:19049  .debug_str:0000000000003804 .LASF2860
C:\Users\SOLDER~1\AppData\Local\Temp\cc0vShlo.s:27723  .debug_str:0000000000026f3a .LASF2861
C:\Users\SOLDER~1\AppData\Local\Temp\cc0vShlo.s:20117  .debug_str:0000000000007cf1 .LASF2862
C:\Users\SOLDER~1\AppData\Local\Temp\cc0vShlo.s:26265  .debug_str:0000000000020f0b .LASF2863
C:\Users\SOLDER~1\AppData\Local\Temp\cc0vShlo.s:25789  .debug_str:000000000001f00e .LASF2864
C:\Users\SOLDER~1\AppData\Local\Temp\cc0vShlo.s:22619  .debug_str:00000000000120b1 .LASF2865
C:\Users\SOLDER~1\AppData\Local\Temp\cc0vShlo.s:21141  .debug_str:000000000000c024 .LASF2866
C:\Users\SOLDER~1\AppData\Local\Temp\cc0vShlo.s:22321  .debug_str:0000000000010d9c .LASF2867
C:\Users\SOLDER~1\AppData\Local\Temp\cc0vShlo.s:22897  .debug_str:00000000000132d4 .LASF2868
C:\Users\SOLDER~1\AppData\Local\Temp\cc0vShlo.s:29537  .debug_str:000000000002e516 .LASF2869
C:\Users\SOLDER~1\AppData\Local\Temp\cc0vShlo.s:22909  .debug_str:00000000000133ac .LASF2870
C:\Users\SOLDER~1\AppData\Local\Temp\cc0vShlo.s:29011  .debug_str:000000000002c33a .LASF2871
C:\Users\SOLDER~1\AppData\Local\Temp\cc0vShlo.s:29125  .debug_str:000000000002ca6b .LASF2872
C:\Users\SOLDER~1\AppData\Local\Temp\cc0vShlo.s:24767  .debug_str:000000000001ad4d .LASF2873
C:\Users\SOLDER~1\AppData\Local\Temp\cc0vShlo.s:29041  .debug_str:000000000002c535 .LASF2874
C:\Users\SOLDER~1\AppData\Local\Temp\cc0vShlo.s:26243  .debug_str:0000000000020d6f .LASF2875
C:\Users\SOLDER~1\AppData\Local\Temp\cc0vShlo.s:21925  .debug_str:000000000000f3b7 .LASF2876
C:\Users\SOLDER~1\AppData\Local\Temp\cc0vShlo.s:22027  .debug_str:000000000000faa6 .LASF2877
C:\Users\SOLDER~1\AppData\Local\Temp\cc0vShlo.s:21937  .debug_str:000000000000f483 .LASF2878
C:\Users\SOLDER~1\AppData\Local\Temp\cc0vShlo.s:23935  .debug_str:0000000000017759 .LASF2879
C:\Users\SOLDER~1\AppData\Local\Temp\cc0vShlo.s:29495  .debug_str:000000000002e255 .LASF2880
C:\Users\SOLDER~1\AppData\Local\Temp\cc0vShlo.s:21451  .debug_str:000000000000d4fc .LASF2881
C:\Users\SOLDER~1\AppData\Local\Temp\cc0vShlo.s:29577  .debug_str:000000000002e7d4 .LASF2882
GAS LISTING C:\Users\SOLDER~1\AppData\Local\Temp\cc0vShlo.s 			page 61


C:\Users\SOLDER~1\AppData\Local\Temp\cc0vShlo.s:28713  .debug_str:000000000002b009 .LASF2883
C:\Users\SOLDER~1\AppData\Local\Temp\cc0vShlo.s:19951  .debug_str:0000000000007249 .LASF2884
C:\Users\SOLDER~1\AppData\Local\Temp\cc0vShlo.s:26919  .debug_str:000000000002395e .LASF2885
C:\Users\SOLDER~1\AppData\Local\Temp\cc0vShlo.s:19627  .debug_str:0000000000005ca8 .LASF2886
C:\Users\SOLDER~1\AppData\Local\Temp\cc0vShlo.s:20235  .debug_str:00000000000084aa .LASF2887
C:\Users\SOLDER~1\AppData\Local\Temp\cc0vShlo.s:20935  .debug_str:000000000000b2ab .LASF2888
C:\Users\SOLDER~1\AppData\Local\Temp\cc0vShlo.s:20985  .debug_str:000000000000b5fe .LASF2889
C:\Users\SOLDER~1\AppData\Local\Temp\cc0vShlo.s:19937  .debug_str:000000000000716b .LASF2890
C:\Users\SOLDER~1\AppData\Local\Temp\cc0vShlo.s:18977  .debug_str:0000000000003362 .LASF2891
C:\Users\SOLDER~1\AppData\Local\Temp\cc0vShlo.s:21641  .debug_str:000000000000e191 .LASF2892
C:\Users\SOLDER~1\AppData\Local\Temp\cc0vShlo.s:23671  .debug_str:0000000000016644 .LASF2893
C:\Users\SOLDER~1\AppData\Local\Temp\cc0vShlo.s:29337  .debug_str:000000000002d832 .LASF2894
C:\Users\SOLDER~1\AppData\Local\Temp\cc0vShlo.s:20843  .debug_str:000000000000acda .LASF2895
C:\Users\SOLDER~1\AppData\Local\Temp\cc0vShlo.s:28417  .debug_str:0000000000029c84 .LASF2896
C:\Users\SOLDER~1\AppData\Local\Temp\cc0vShlo.s:29415  .debug_str:000000000002dd51 .LASF2897
C:\Users\SOLDER~1\AppData\Local\Temp\cc0vShlo.s:29201  .debug_str:000000000002cfbf .LASF2898
C:\Users\SOLDER~1\AppData\Local\Temp\cc0vShlo.s:19459  .debug_str:00000000000051c9 .LASF2899
C:\Users\SOLDER~1\AppData\Local\Temp\cc0vShlo.s:20435  .debug_str:0000000000009201 .LASF2900
C:\Users\SOLDER~1\AppData\Local\Temp\cc0vShlo.s:25361  .debug_str:000000000001d470 .LASF2901
C:\Users\SOLDER~1\AppData\Local\Temp\cc0vShlo.s:21335  .debug_str:000000000000cd51 .LASF2902
C:\Users\SOLDER~1\AppData\Local\Temp\cc0vShlo.s:23175  .debug_str:000000000001464d .LASF2903
C:\Users\SOLDER~1\AppData\Local\Temp\cc0vShlo.s:28057  .debug_str:0000000000028530 .LASF2904
C:\Users\SOLDER~1\AppData\Local\Temp\cc0vShlo.s:20617  .debug_str:0000000000009ded .LASF2905
C:\Users\SOLDER~1\AppData\Local\Temp\cc0vShlo.s:28163  .debug_str:0000000000028bfb .LASF2906
C:\Users\SOLDER~1\AppData\Local\Temp\cc0vShlo.s:24205  .debug_str:00000000000188cb .LASF2907
C:\Users\SOLDER~1\AppData\Local\Temp\cc0vShlo.s:21655  .debug_str:000000000000e28c .LASF2908
C:\Users\SOLDER~1\AppData\Local\Temp\cc0vShlo.s:26353  .debug_str:00000000000214bc .LASF2909
C:\Users\SOLDER~1\AppData\Local\Temp\cc0vShlo.s:27103  .debug_str:00000000000245a8 .LASF2910
C:\Users\SOLDER~1\AppData\Local\Temp\cc0vShlo.s:22465  .debug_str:00000000000116e3 .LASF2911
C:\Users\SOLDER~1\AppData\Local\Temp\cc0vShlo.s:21549  .debug_str:000000000000db1a .LASF2912
C:\Users\SOLDER~1\AppData\Local\Temp\cc0vShlo.s:21889  .debug_str:000000000000f159 .LASF2913
C:\Users\SOLDER~1\AppData\Local\Temp\cc0vShlo.s:18857  .debug_str:0000000000002b61 .LASF2914
C:\Users\SOLDER~1\AppData\Local\Temp\cc0vShlo.s:24195  .debug_str:000000000001883c .LASF2915
C:\Users\SOLDER~1\AppData\Local\Temp\cc0vShlo.s:18283  .debug_str:0000000000000555 .LASF2916
C:\Users\SOLDER~1\AppData\Local\Temp\cc0vShlo.s:26833  .debug_str:00000000000233eb .LASF2917
C:\Users\SOLDER~1\AppData\Local\Temp\cc0vShlo.s:21663  .debug_str:000000000000e313 .LASF2918
C:\Users\SOLDER~1\AppData\Local\Temp\cc0vShlo.s:25783  .debug_str:000000000001efb4 .LASF2919
C:\Users\SOLDER~1\AppData\Local\Temp\cc0vShlo.s:27071  .debug_str:0000000000024374 .LASF2920
C:\Users\SOLDER~1\AppData\Local\Temp\cc0vShlo.s:25477  .debug_str:000000000001db96 .LASF2921
C:\Users\SOLDER~1\AppData\Local\Temp\cc0vShlo.s:22143  .debug_str:000000000001022e .LASF2922
C:\Users\SOLDER~1\AppData\Local\Temp\cc0vShlo.s:27127  .debug_str:000000000002474f .LASF2923
C:\Users\SOLDER~1\AppData\Local\Temp\cc0vShlo.s:24267  .debug_str:0000000000018d27 .LASF2924
C:\Users\SOLDER~1\AppData\Local\Temp\cc0vShlo.s:23827  .debug_str:0000000000017036 .LASF2925
C:\Users\SOLDER~1\AppData\Local\Temp\cc0vShlo.s:23121  .debug_str:00000000000142a4 .LASF2926
C:\Users\SOLDER~1\AppData\Local\Temp\cc0vShlo.s:21445  .debug_str:000000000000d49a .LASF2927
C:\Users\SOLDER~1\AppData\Local\Temp\cc0vShlo.s:21741  .debug_str:000000000000e81f .LASF2928
C:\Users\SOLDER~1\AppData\Local\Temp\cc0vShlo.s:24057  .debug_str:0000000000017f7d .LASF2929
C:\Users\SOLDER~1\AppData\Local\Temp\cc0vShlo.s:25491  .debug_str:000000000001dc93 .LASF2930
C:\Users\SOLDER~1\AppData\Local\Temp\cc0vShlo.s:27177  .debug_str:0000000000024a8f .LASF2931
C:\Users\SOLDER~1\AppData\Local\Temp\cc0vShlo.s:27683  .debug_str:0000000000026ca5 .LASF2932
C:\Users\SOLDER~1\AppData\Local\Temp\cc0vShlo.s:28069  .debug_str:0000000000028600 .LASF2933
C:\Users\SOLDER~1\AppData\Local\Temp\cc0vShlo.s:25369  .debug_str:000000000001d4d8 .LASF2934
C:\Users\SOLDER~1\AppData\Local\Temp\cc0vShlo.s:24193  .debug_str:0000000000018822 .LASF2935
C:\Users\SOLDER~1\AppData\Local\Temp\cc0vShlo.s:27229  .debug_str:0000000000024df1 .LASF2936
C:\Users\SOLDER~1\AppData\Local\Temp\cc0vShlo.s:18211  .debug_str:00000000000000be .LASF2937
C:\Users\SOLDER~1\AppData\Local\Temp\cc0vShlo.s:27477  .debug_str:0000000000025ebb .LASF2938
C:\Users\SOLDER~1\AppData\Local\Temp\cc0vShlo.s:18469  .debug_str:000000000000124e .LASF2939
GAS LISTING C:\Users\SOLDER~1\AppData\Local\Temp\cc0vShlo.s 			page 62


C:\Users\SOLDER~1\AppData\Local\Temp\cc0vShlo.s:19345  .debug_str:0000000000004ade .LASF2940
C:\Users\SOLDER~1\AppData\Local\Temp\cc0vShlo.s:20061  .debug_str:000000000000792a .LASF2941
C:\Users\SOLDER~1\AppData\Local\Temp\cc0vShlo.s:27007  .debug_str:0000000000023f40 .LASF2942
C:\Users\SOLDER~1\AppData\Local\Temp\cc0vShlo.s:26897  .debug_str:00000000000237f5 .LASF2943
C:\Users\SOLDER~1\AppData\Local\Temp\cc0vShlo.s:20259  .debug_str:0000000000008622 .LASF2944
C:\Users\SOLDER~1\AppData\Local\Temp\cc0vShlo.s:22993  .debug_str:00000000000139b4 .LASF2945
C:\Users\SOLDER~1\AppData\Local\Temp\cc0vShlo.s:24545  .debug_str:0000000000019ecd .LASF2946
C:\Users\SOLDER~1\AppData\Local\Temp\cc0vShlo.s:23635  .debug_str:000000000001645b .LASF2947
C:\Users\SOLDER~1\AppData\Local\Temp\cc0vShlo.s:24089  .debug_str:0000000000018181 .LASF2948
C:\Users\SOLDER~1\AppData\Local\Temp\cc0vShlo.s:24345  .debug_str:0000000000019237 .LASF2949
C:\Users\SOLDER~1\AppData\Local\Temp\cc0vShlo.s:22777  .debug_str:0000000000012b0d .LASF2950
C:\Users\SOLDER~1\AppData\Local\Temp\cc0vShlo.s:24445  .debug_str:0000000000019882 .LASF2951
C:\Users\SOLDER~1\AppData\Local\Temp\cc0vShlo.s:18945  .debug_str:0000000000003145 .LASF2952
C:\Users\SOLDER~1\AppData\Local\Temp\cc0vShlo.s:18409  .debug_str:0000000000000e94 .LASF2953
C:\Users\SOLDER~1\AppData\Local\Temp\cc0vShlo.s:24253  .debug_str:0000000000018c22 .LASF2954
C:\Users\SOLDER~1\AppData\Local\Temp\cc0vShlo.s:27459  .debug_str:0000000000025d95 .LASF2955
C:\Users\SOLDER~1\AppData\Local\Temp\cc0vShlo.s:28193  .debug_str:0000000000028dba .LASF2956
C:\Users\SOLDER~1\AppData\Local\Temp\cc0vShlo.s:18763  .debug_str:000000000000258b .LASF2957
C:\Users\SOLDER~1\AppData\Local\Temp\cc0vShlo.s:21877  .debug_str:000000000000f097 .LASF2958
C:\Users\SOLDER~1\AppData\Local\Temp\cc0vShlo.s:29169  .debug_str:000000000002cd66 .LASF2959
C:\Users\SOLDER~1\AppData\Local\Temp\cc0vShlo.s:22413  .debug_str:000000000001139e .LASF2960
C:\Users\SOLDER~1\AppData\Local\Temp\cc0vShlo.s:23873  .debug_str:0000000000017340 .LASF2961
C:\Users\SOLDER~1\AppData\Local\Temp\cc0vShlo.s:19807  .debug_str:00000000000068e8 .LASF2962
C:\Users\SOLDER~1\AppData\Local\Temp\cc0vShlo.s:19553  .debug_str:00000000000057cf .LASF2963
C:\Users\SOLDER~1\AppData\Local\Temp\cc0vShlo.s:27195  .debug_str:0000000000024bb5 .LASF2964
C:\Users\SOLDER~1\AppData\Local\Temp\cc0vShlo.s:29601  .debug_str:000000000002e966 .LASF2965
C:\Users\SOLDER~1\AppData\Local\Temp\cc0vShlo.s:19675  .debug_str:0000000000005fc3 .LASF2966
C:\Users\SOLDER~1\AppData\Local\Temp\cc0vShlo.s:18225  .debug_str:0000000000000175 .LASF2967
C:\Users\SOLDER~1\AppData\Local\Temp\cc0vShlo.s:27585  .debug_str:0000000000026629 .LASF2968
C:\Users\SOLDER~1\AppData\Local\Temp\cc0vShlo.s:26487  .debug_str:0000000000021d4e .LASF2969
C:\Users\SOLDER~1\AppData\Local\Temp\cc0vShlo.s:23391  .debug_str:000000000001548b .LASF2970
C:\Users\SOLDER~1\AppData\Local\Temp\cc0vShlo.s:21971  .debug_str:000000000000f6b3 .LASF2971
C:\Users\SOLDER~1\AppData\Local\Temp\cc0vShlo.s:22711  .debug_str:0000000000012689 .LASF2972
C:\Users\SOLDER~1\AppData\Local\Temp\cc0vShlo.s:20815  .debug_str:000000000000ab19 .LASF2973
C:\Users\SOLDER~1\AppData\Local\Temp\cc0vShlo.s:18655  .debug_str:0000000000001e6d .LASF2974
C:\Users\SOLDER~1\AppData\Local\Temp\cc0vShlo.s:22903  .debug_str:0000000000013339 .LASF2975
C:\Users\SOLDER~1\AppData\Local\Temp\cc0vShlo.s:20485  .debug_str:000000000000955d .LASF2976
C:\Users\SOLDER~1\AppData\Local\Temp\cc0vShlo.s:26545  .debug_str:000000000002209e .LASF2977
C:\Users\SOLDER~1\AppData\Local\Temp\cc0vShlo.s:29173  .debug_str:000000000002cdb6 .LASF2978
C:\Users\SOLDER~1\AppData\Local\Temp\cc0vShlo.s:21173  .debug_str:000000000000c261 .LASF2979
C:\Users\SOLDER~1\AppData\Local\Temp\cc0vShlo.s:26773  .debug_str:0000000000022fbf .LASF2980
C:\Users\SOLDER~1\AppData\Local\Temp\cc0vShlo.s:20771  .debug_str:000000000000a838 .LASF2981
C:\Users\SOLDER~1\AppData\Local\Temp\cc0vShlo.s:29155  .debug_str:000000000002cc6e .LASF2982
C:\Users\SOLDER~1\AppData\Local\Temp\cc0vShlo.s:23579  .debug_str:00000000000160b4 .LASF2983
C:\Users\SOLDER~1\AppData\Local\Temp\cc0vShlo.s:25493  .debug_str:000000000001dcbc .LASF2984
C:\Users\SOLDER~1\AppData\Local\Temp\cc0vShlo.s:24373  .debug_str:0000000000019437 .LASF2985
C:\Users\SOLDER~1\AppData\Local\Temp\cc0vShlo.s:19139  .debug_str:0000000000003dd2 .LASF2986
C:\Users\SOLDER~1\AppData\Local\Temp\cc0vShlo.s:29065  .debug_str:000000000002c6a3 .LASF2987
C:\Users\SOLDER~1\AppData\Local\Temp\cc0vShlo.s:22799  .debug_str:0000000000012c89 .LASF2988
C:\Users\SOLDER~1\AppData\Local\Temp\cc0vShlo.s:22991  .debug_str:000000000001398b .LASF2989
C:\Users\SOLDER~1\AppData\Local\Temp\cc0vShlo.s:19587  .debug_str:0000000000005a13 .LASF2990
C:\Users\SOLDER~1\AppData\Local\Temp\cc0vShlo.s:29567  .debug_str:000000000002e748 .LASF2991
C:\Users\SOLDER~1\AppData\Local\Temp\cc0vShlo.s:18693  .debug_str:00000000000020d8 .LASF2992
C:\Users\SOLDER~1\AppData\Local\Temp\cc0vShlo.s:27713  .debug_str:0000000000026e88 .LASF2993
C:\Users\SOLDER~1\AppData\Local\Temp\cc0vShlo.s:20717  .debug_str:000000000000a484 .LASF2994
C:\Users\SOLDER~1\AppData\Local\Temp\cc0vShlo.s:18875  .debug_str:0000000000002c9f .LASF2995
C:\Users\SOLDER~1\AppData\Local\Temp\cc0vShlo.s:27529  .debug_str:0000000000026296 .LASF2996
GAS LISTING C:\Users\SOLDER~1\AppData\Local\Temp\cc0vShlo.s 			page 63


C:\Users\SOLDER~1\AppData\Local\Temp\cc0vShlo.s:21541  .debug_str:000000000000da82 .LASF2997
C:\Users\SOLDER~1\AppData\Local\Temp\cc0vShlo.s:23065  .debug_str:0000000000013ec0 .LASF2998
C:\Users\SOLDER~1\AppData\Local\Temp\cc0vShlo.s:29615  .debug_str:000000000002ea3f .LASF2999
C:\Users\SOLDER~1\AppData\Local\Temp\cc0vShlo.s:22073  .debug_str:000000000000fded .LASF3000
C:\Users\SOLDER~1\AppData\Local\Temp\cc0vShlo.s:25703  .debug_str:000000000001ea56 .LASF3001
C:\Users\SOLDER~1\AppData\Local\Temp\cc0vShlo.s:22945  .debug_str:0000000000013617 .LASF3002
C:\Users\SOLDER~1\AppData\Local\Temp\cc0vShlo.s:26499  .debug_str:0000000000021e00 .LASF3003
C:\Users\SOLDER~1\AppData\Local\Temp\cc0vShlo.s:23485  .debug_str:0000000000015aa0 .LASF3004
C:\Users\SOLDER~1\AppData\Local\Temp\cc0vShlo.s:27155  .debug_str:000000000002492f .LASF3005
C:\Users\SOLDER~1\AppData\Local\Temp\cc0vShlo.s:24997  .debug_str:000000000001bbbd .LASF3006
C:\Users\SOLDER~1\AppData\Local\Temp\cc0vShlo.s:26553  .debug_str:0000000000022123 .LASF3007
C:\Users\SOLDER~1\AppData\Local\Temp\cc0vShlo.s:25619  .debug_str:000000000001e4d9 .LASF3008
C:\Users\SOLDER~1\AppData\Local\Temp\cc0vShlo.s:29067  .debug_str:000000000002c6bc .LASF3009
C:\Users\SOLDER~1\AppData\Local\Temp\cc0vShlo.s:24675  .debug_str:000000000001a726 .LASF3010
C:\Users\SOLDER~1\AppData\Local\Temp\cc0vShlo.s:29297  .debug_str:000000000002d5de .LASF3011
C:\Users\SOLDER~1\AppData\Local\Temp\cc0vShlo.s:25969  .debug_str:000000000001fbbd .LASF3012
C:\Users\SOLDER~1\AppData\Local\Temp\cc0vShlo.s:20507  .debug_str:00000000000096a7 .LASF3013
C:\Users\SOLDER~1\AppData\Local\Temp\cc0vShlo.s:22167  .debug_str:00000000000103e9 .LASF3014
C:\Users\SOLDER~1\AppData\Local\Temp\cc0vShlo.s:23049  .debug_str:0000000000013daa .LASF3015
C:\Users\SOLDER~1\AppData\Local\Temp\cc0vShlo.s:24019  .debug_str:0000000000017cc4 .LASF3016
C:\Users\SOLDER~1\AppData\Local\Temp\cc0vShlo.s:21123  .debug_str:000000000000bef9 .LASF3017
C:\Users\SOLDER~1\AppData\Local\Temp\cc0vShlo.s:20537  .debug_str:00000000000098a7 .LASF3018
C:\Users\SOLDER~1\AppData\Local\Temp\cc0vShlo.s:19239  .debug_str:000000000000442c .LASF3019
C:\Users\SOLDER~1\AppData\Local\Temp\cc0vShlo.s:29513  .debug_str:000000000002e38d .LASF3020
C:\Users\SOLDER~1\AppData\Local\Temp\cc0vShlo.s:28837  .debug_str:000000000002b7d3 .LASF3021
C:\Users\SOLDER~1\AppData\Local\Temp\cc0vShlo.s:25485  .debug_str:000000000001dc2c .LASF3022
C:\Users\SOLDER~1\AppData\Local\Temp\cc0vShlo.s:26907  .debug_str:000000000002388a .LASF3023
C:\Users\SOLDER~1\AppData\Local\Temp\cc0vShlo.s:27467  .debug_str:0000000000025e0f .LASF3024
C:\Users\SOLDER~1\AppData\Local\Temp\cc0vShlo.s:25147  .debug_str:000000000001c5fd .LASF3025
C:\Users\SOLDER~1\AppData\Local\Temp\cc0vShlo.s:18779  .debug_str:0000000000002687 .LASF3026
C:\Users\SOLDER~1\AppData\Local\Temp\cc0vShlo.s:23285  .debug_str:0000000000014da1 .LASF3027
C:\Users\SOLDER~1\AppData\Local\Temp\cc0vShlo.s:27799  .debug_str:0000000000027443 .LASF3028
C:\Users\SOLDER~1\AppData\Local\Temp\cc0vShlo.s:21375  .debug_str:000000000000d00b .LASF3029
C:\Users\SOLDER~1\AppData\Local\Temp\cc0vShlo.s:26459  .debug_str:0000000000021b7a .LASF3030
C:\Users\SOLDER~1\AppData\Local\Temp\cc0vShlo.s:18743  .debug_str:0000000000002443 .LASF3031
C:\Users\SOLDER~1\AppData\Local\Temp\cc0vShlo.s:26761  .debug_str:0000000000022f0c .LASF3032
C:\Users\SOLDER~1\AppData\Local\Temp\cc0vShlo.s:29087  .debug_str:000000000002c806 .LASF3033
C:\Users\SOLDER~1\AppData\Local\Temp\cc0vShlo.s:22677  .debug_str:0000000000012465 .LASF3034
C:\Users\SOLDER~1\AppData\Local\Temp\cc0vShlo.s:28463  .debug_str:0000000000029fae .LASF3035
C:\Users\SOLDER~1\AppData\Local\Temp\cc0vShlo.s:23587  .debug_str:0000000000016130 .LASF3036
C:\Users\SOLDER~1\AppData\Local\Temp\cc0vShlo.s:26727  .debug_str:0000000000022cde .LASF3037
C:\Users\SOLDER~1\AppData\Local\Temp\cc0vShlo.s:18599  .debug_str:0000000000001ab0 .LASF3038
C:\Users\SOLDER~1\AppData\Local\Temp\cc0vShlo.s:18651  .debug_str:0000000000001e2a .LASF3039
C:\Users\SOLDER~1\AppData\Local\Temp\cc0vShlo.s:19693  .debug_str:000000000000612c .LASF3040
C:\Users\SOLDER~1\AppData\Local\Temp\cc0vShlo.s:23525  .debug_str:0000000000015d2c .LASF3041
C:\Users\SOLDER~1\AppData\Local\Temp\cc0vShlo.s:22239  .debug_str:000000000001087b .LASF3042
C:\Users\SOLDER~1\AppData\Local\Temp\cc0vShlo.s:21785  .debug_str:000000000000eab0 .LASF3043
C:\Users\SOLDER~1\AppData\Local\Temp\cc0vShlo.s:23923  .debug_str:00000000000176ab .LASF3044
C:\Users\SOLDER~1\AppData\Local\Temp\cc0vShlo.s:20163  .debug_str:0000000000007ff2 .LASF3045
C:\Users\SOLDER~1\AppData\Local\Temp\cc0vShlo.s:21447  .debug_str:000000000000d4b4 .LASF3046
C:\Users\SOLDER~1\AppData\Local\Temp\cc0vShlo.s:24079  .debug_str:0000000000018101 .LASF3047
C:\Users\SOLDER~1\AppData\Local\Temp\cc0vShlo.s:26703  .debug_str:0000000000022b5d .LASF3048
C:\Users\SOLDER~1\AppData\Local\Temp\cc0vShlo.s:22607  .debug_str:0000000000011fea .LASF3049
C:\Users\SOLDER~1\AppData\Local\Temp\cc0vShlo.s:25871  .debug_str:000000000001f5aa .LASF3050
C:\Users\SOLDER~1\AppData\Local\Temp\cc0vShlo.s:20283  .debug_str:00000000000087b2 .LASF3051
C:\Users\SOLDER~1\AppData\Local\Temp\cc0vShlo.s:21113  .debug_str:000000000000be4c .LASF3052
C:\Users\SOLDER~1\AppData\Local\Temp\cc0vShlo.s:18491  .debug_str:00000000000013b7 .LASF3053
GAS LISTING C:\Users\SOLDER~1\AppData\Local\Temp\cc0vShlo.s 			page 64


C:\Users\SOLDER~1\AppData\Local\Temp\cc0vShlo.s:29453  .debug_str:000000000002dfad .LASF3054
C:\Users\SOLDER~1\AppData\Local\Temp\cc0vShlo.s:28041  .debug_str:0000000000028400 .LASF3055
C:\Users\SOLDER~1\AppData\Local\Temp\cc0vShlo.s:23409  .debug_str:00000000000155bd .LASF3056
C:\Users\SOLDER~1\AppData\Local\Temp\cc0vShlo.s:26141  .debug_str:00000000000206f5 .LASF3057
C:\Users\SOLDER~1\AppData\Local\Temp\cc0vShlo.s:22719  .debug_str:0000000000012706 .LASF3058
C:\Users\SOLDER~1\AppData\Local\Temp\cc0vShlo.s:23301  .debug_str:0000000000014ea1 .LASF3059
C:\Users\SOLDER~1\AppData\Local\Temp\cc0vShlo.s:20305  .debug_str:0000000000008904 .LASF3060
C:\Users\SOLDER~1\AppData\Local\Temp\cc0vShlo.s:22405  .debug_str:00000000000112fb .LASF3061
C:\Users\SOLDER~1\AppData\Local\Temp\cc0vShlo.s:24515  .debug_str:0000000000019cd7 .LASF3062
C:\Users\SOLDER~1\AppData\Local\Temp\cc0vShlo.s:18619  .debug_str:0000000000001c04 .LASF3063
C:\Users\SOLDER~1\AppData\Local\Temp\cc0vShlo.s:19127  .debug_str:0000000000003d11 .LASF3064
C:\Users\SOLDER~1\AppData\Local\Temp\cc0vShlo.s:27721  .debug_str:0000000000026f21 .LASF3065
C:\Users\SOLDER~1\AppData\Local\Temp\cc0vShlo.s:24023  .debug_str:0000000000017d12 .LASF3066
C:\Users\SOLDER~1\AppData\Local\Temp\cc0vShlo.s:24889  .debug_str:000000000001b4e8 .LASF3067
C:\Users\SOLDER~1\AppData\Local\Temp\cc0vShlo.s:22261  .debug_str:00000000000109e0 .LASF3068
C:\Users\SOLDER~1\AppData\Local\Temp\cc0vShlo.s:24129  .debug_str:00000000000183fb .LASF3069
C:\Users\SOLDER~1\AppData\Local\Temp\cc0vShlo.s:28735  .debug_str:000000000002b160 .LASF3070
C:\Users\SOLDER~1\AppData\Local\Temp\cc0vShlo.s:24903  .debug_str:000000000001b5ba .LASF3071
C:\Users\SOLDER~1\AppData\Local\Temp\cc0vShlo.s:20529  .debug_str:0000000000009816 .LASF3072
C:\Users\SOLDER~1\AppData\Local\Temp\cc0vShlo.s:28563  .debug_str:000000000002a61f .LASF3073
C:\Users\SOLDER~1\AppData\Local\Temp\cc0vShlo.s:28059  .debug_str:000000000002855a .LASF3074
C:\Users\SOLDER~1\AppData\Local\Temp\cc0vShlo.s:29077  .debug_str:000000000002c76b .LASF3075
C:\Users\SOLDER~1\AppData\Local\Temp\cc0vShlo.s:25565  .debug_str:000000000001e149 .LASF3076
C:\Users\SOLDER~1\AppData\Local\Temp\cc0vShlo.s:28963  .debug_str:000000000002c058 .LASF3077
C:\Users\SOLDER~1\AppData\Local\Temp\cc0vShlo.s:20143  .debug_str:0000000000007e9d .LASF3078
C:\Users\SOLDER~1\AppData\Local\Temp\cc0vShlo.s:25377  .debug_str:000000000001d55c .LASF3079
C:\Users\SOLDER~1\AppData\Local\Temp\cc0vShlo.s:28021  .debug_str:00000000000282be .LASF3080
C:\Users\SOLDER~1\AppData\Local\Temp\cc0vShlo.s:21027  .debug_str:000000000000b8b0 .LASF3081
C:\Users\SOLDER~1\AppData\Local\Temp\cc0vShlo.s:28305  .debug_str:0000000000029551 .LASF3082
C:\Users\SOLDER~1\AppData\Local\Temp\cc0vShlo.s:19131  .debug_str:0000000000003d59 .LASF3083
C:\Users\SOLDER~1\AppData\Local\Temp\cc0vShlo.s:19699  .debug_str:0000000000006193 .LASF3084
C:\Users\SOLDER~1\AppData\Local\Temp\cc0vShlo.s:28721  .debug_str:000000000002b09d .LASF3085
C:\Users\SOLDER~1\AppData\Local\Temp\cc0vShlo.s:23365  .debug_str:00000000000152d3 .LASF3086
C:\Users\SOLDER~1\AppData\Local\Temp\cc0vShlo.s:26805  .debug_str:0000000000023215 .LASF3087
C:\Users\SOLDER~1\AppData\Local\Temp\cc0vShlo.s:23331  .debug_str:0000000000015083 .LASF3088
C:\Users\SOLDER~1\AppData\Local\Temp\cc0vShlo.s:24967  .debug_str:000000000001b9e7 .LASF3089
C:\Users\SOLDER~1\AppData\Local\Temp\cc0vShlo.s:24071  .debug_str:0000000000018072 .LASF3090
C:\Users\SOLDER~1\AppData\Local\Temp\cc0vShlo.s:28227  .debug_str:000000000002900d .LASF3091
C:\Users\SOLDER~1\AppData\Local\Temp\cc0vShlo.s:19545  .debug_str:0000000000005731 .LASF3092
C:\Users\SOLDER~1\AppData\Local\Temp\cc0vShlo.s:21259  .debug_str:000000000000c835 .LASF3093
C:\Users\SOLDER~1\AppData\Local\Temp\cc0vShlo.s:27423  .debug_str:0000000000025af4 .LASF3094
C:\Users\SOLDER~1\AppData\Local\Temp\cc0vShlo.s:23585  .debug_str:0000000000016119 .LASF3095
C:\Users\SOLDER~1\AppData\Local\Temp\cc0vShlo.s:25915  .debug_str:000000000001f87b .LASF3096
C:\Users\SOLDER~1\AppData\Local\Temp\cc0vShlo.s:28977  .debug_str:000000000002c12b .LASF3097
C:\Users\SOLDER~1\AppData\Local\Temp\cc0vShlo.s:21851  .debug_str:000000000000ef0e .LASF3098
C:\Users\SOLDER~1\AppData\Local\Temp\cc0vShlo.s:23619  .debug_str:000000000001633c .LASF3099
C:\Users\SOLDER~1\AppData\Local\Temp\cc0vShlo.s:28821  .debug_str:000000000002b6ca .LASF3100
C:\Users\SOLDER~1\AppData\Local\Temp\cc0vShlo.s:22483  .debug_str:0000000000011826 .LASF3101
C:\Users\SOLDER~1\AppData\Local\Temp\cc0vShlo.s:21809  .debug_str:000000000000ec5c .LASF3102
C:\Users\SOLDER~1\AppData\Local\Temp\cc0vShlo.s:23387  .debug_str:0000000000015452 .LASF3103
C:\Users\SOLDER~1\AppData\Local\Temp\cc0vShlo.s:20863  .debug_str:000000000000ae32 .LASF3104
C:\Users\SOLDER~1\AppData\Local\Temp\cc0vShlo.s:21693  .debug_str:000000000000e4e0 .LASF3105
C:\Users\SOLDER~1\AppData\Local\Temp\cc0vShlo.s:28535  .debug_str:000000000002a47a .LASF3106
C:\Users\SOLDER~1\AppData\Local\Temp\cc0vShlo.s:20047  .debug_str:0000000000007828 .LASF3107
C:\Users\SOLDER~1\AppData\Local\Temp\cc0vShlo.s:26371  .debug_str:00000000000215d7 .LASF3108
C:\Users\SOLDER~1\AppData\Local\Temp\cc0vShlo.s:18433  .debug_str:000000000000100b .LASF3109
C:\Users\SOLDER~1\AppData\Local\Temp\cc0vShlo.s:23447  .debug_str:000000000001583d .LASF3110
GAS LISTING C:\Users\SOLDER~1\AppData\Local\Temp\cc0vShlo.s 			page 65


C:\Users\SOLDER~1\AppData\Local\Temp\cc0vShlo.s:19151  .debug_str:0000000000003ea7 .LASF3111
C:\Users\SOLDER~1\AppData\Local\Temp\cc0vShlo.s:27223  .debug_str:0000000000024d87 .LASF3112
C:\Users\SOLDER~1\AppData\Local\Temp\cc0vShlo.s:26901  .debug_str:0000000000023834 .LASF3113
C:\Users\SOLDER~1\AppData\Local\Temp\cc0vShlo.s:25277  .debug_str:000000000001cea7 .LASF3114
C:\Users\SOLDER~1\AppData\Local\Temp\cc0vShlo.s:21217  .debug_str:000000000000c574 .LASF3115
C:\Users\SOLDER~1\AppData\Local\Temp\cc0vShlo.s:26811  .debug_str:000000000002327f .LASF3116
C:\Users\SOLDER~1\AppData\Local\Temp\cc0vShlo.s:22095  .debug_str:000000000000ff5f .LASF3117
C:\Users\SOLDER~1\AppData\Local\Temp\cc0vShlo.s:25499  .debug_str:000000000001dd29 .LASF3118
C:\Users\SOLDER~1\AppData\Local\Temp\cc0vShlo.s:24713  .debug_str:000000000001a966 .LASF3119
C:\Users\SOLDER~1\AppData\Local\Temp\cc0vShlo.s:25439  .debug_str:000000000001d8fa .LASF3120
C:\Users\SOLDER~1\AppData\Local\Temp\cc0vShlo.s:23015  .debug_str:0000000000013b5e .LASF3121
C:\Users\SOLDER~1\AppData\Local\Temp\cc0vShlo.s:28477  .debug_str:000000000002a0af .LASF3122
C:\Users\SOLDER~1\AppData\Local\Temp\cc0vShlo.s:19827  .debug_str:0000000000006a2e .LASF3123
C:\Users\SOLDER~1\AppData\Local\Temp\cc0vShlo.s:20625  .debug_str:0000000000009e66 .LASF3124
C:\Users\SOLDER~1\AppData\Local\Temp\cc0vShlo.s:19725  .debug_str:000000000000634f .LASF3125
C:\Users\SOLDER~1\AppData\Local\Temp\cc0vShlo.s:22633  .debug_str:0000000000012195 .LASF3126
C:\Users\SOLDER~1\AppData\Local\Temp\cc0vShlo.s:18925  .debug_str:0000000000002fec .LASF3127
C:\Users\SOLDER~1\AppData\Local\Temp\cc0vShlo.s:27999  .debug_str:0000000000028161 .LASF3128
C:\Users\SOLDER~1\AppData\Local\Temp\cc0vShlo.s:27833  .debug_str:000000000002767b .LASF3129
C:\Users\SOLDER~1\AppData\Local\Temp\cc0vShlo.s:22031  .debug_str:000000000000fafd .LASF3130
C:\Users\SOLDER~1\AppData\Local\Temp\cc0vShlo.s:28301  .debug_str:000000000002950e .LASF3131
C:\Users\SOLDER~1\AppData\Local\Temp\cc0vShlo.s:23103  .debug_str:000000000001415e .LASF3132
C:\Users\SOLDER~1\AppData\Local\Temp\cc0vShlo.s:20473  .debug_str:00000000000094b6 .LASF3133
C:\Users\SOLDER~1\AppData\Local\Temp\cc0vShlo.s:18679  .debug_str:0000000000001fe8 .LASF3134
C:\Users\SOLDER~1\AppData\Local\Temp\cc0vShlo.s:21869  .debug_str:000000000000f024 .LASF3135
C:\Users\SOLDER~1\AppData\Local\Temp\cc0vShlo.s:23899  .debug_str:000000000001750b .LASF3136
C:\Users\SOLDER~1\AppData\Local\Temp\cc0vShlo.s:20243  .debug_str:000000000000852d .LASF3137
C:\Users\SOLDER~1\AppData\Local\Temp\cc0vShlo.s:25987  .debug_str:000000000001fce1 .LASF3138
C:\Users\SOLDER~1\AppData\Local\Temp\cc0vShlo.s:26863  .debug_str:00000000000235fe .LASF3139
C:\Users\SOLDER~1\AppData\Local\Temp\cc0vShlo.s:18319  .debug_str:0000000000000849 .LASF3140
C:\Users\SOLDER~1\AppData\Local\Temp\cc0vShlo.s:28575  .debug_str:000000000002a6c6 .LASF3141
C:\Users\SOLDER~1\AppData\Local\Temp\cc0vShlo.s:19949  .debug_str:0000000000007223 .LASF3142
C:\Users\SOLDER~1\AppData\Local\Temp\cc0vShlo.s:19519  .debug_str:0000000000005565 .LASF3143
C:\Users\SOLDER~1\AppData\Local\Temp\cc0vShlo.s:24003  .debug_str:0000000000017bb9 .LASF3144
C:\Users\SOLDER~1\AppData\Local\Temp\cc0vShlo.s:28657  .debug_str:000000000002ac14 .LASF3145
C:\Users\SOLDER~1\AppData\Local\Temp\cc0vShlo.s:20519  .debug_str:000000000000977d .LASF3146
C:\Users\SOLDER~1\AppData\Local\Temp\cc0vShlo.s:26297  .debug_str:0000000000021131 .LASF3147
C:\Users\SOLDER~1\AppData\Local\Temp\cc0vShlo.s:19601  .debug_str:0000000000005b18 .LASF3148
C:\Users\SOLDER~1\AppData\Local\Temp\cc0vShlo.s:24035  .debug_str:0000000000017def .LASF3149
C:\Users\SOLDER~1\AppData\Local\Temp\cc0vShlo.s:28109  .debug_str:0000000000028899 .LASF3150
C:\Users\SOLDER~1\AppData\Local\Temp\cc0vShlo.s:26275  .debug_str:0000000000020fcf .LASF3151
C:\Users\SOLDER~1\AppData\Local\Temp\cc0vShlo.s:27447  .debug_str:0000000000025ca4 .LASF3152
C:\Users\SOLDER~1\AppData\Local\Temp\cc0vShlo.s:24439  .debug_str:0000000000019823 .LASF3153
C:\Users\SOLDER~1\AppData\Local\Temp\cc0vShlo.s:18765  .debug_str:00000000000025a6 .LASF3154
C:\Users\SOLDER~1\AppData\Local\Temp\cc0vShlo.s:22533  .debug_str:0000000000011b50 .LASF3155
C:\Users\SOLDER~1\AppData\Local\Temp\cc0vShlo.s:27787  .debug_str:0000000000027383 .LASF3156
C:\Users\SOLDER~1\AppData\Local\Temp\cc0vShlo.s:20637  .debug_str:0000000000009f41 .LASF3157
C:\Users\SOLDER~1\AppData\Local\Temp\cc0vShlo.s:26441  .debug_str:0000000000021a3b .LASF3158
C:\Users\SOLDER~1\AppData\Local\Temp\cc0vShlo.s:18849  .debug_str:0000000000002b03 .LASF3159
C:\Users\SOLDER~1\AppData\Local\Temp\cc0vShlo.s:26747  .debug_str:0000000000022e1f .LASF3160
C:\Users\SOLDER~1\AppData\Local\Temp\cc0vShlo.s:28427  .debug_str:0000000000029d28 .LASF3161
C:\Users\SOLDER~1\AppData\Local\Temp\cc0vShlo.s:29095  .debug_str:000000000002c886 .LASF3162
C:\Users\SOLDER~1\AppData\Local\Temp\cc0vShlo.s:28725  .debug_str:000000000002b0cc .LASF3163
C:\Users\SOLDER~1\AppData\Local\Temp\cc0vShlo.s:26119  .debug_str:0000000000020584 .LASF3164
C:\Users\SOLDER~1\AppData\Local\Temp\cc0vShlo.s:21701  .debug_str:000000000000e554 .LASF3165
C:\Users\SOLDER~1\AppData\Local\Temp\cc0vShlo.s:26713  .debug_str:0000000000022bfc .LASF3166
C:\Users\SOLDER~1\AppData\Local\Temp\cc0vShlo.s:22539  .debug_str:0000000000011bc3 .LASF3167
GAS LISTING C:\Users\SOLDER~1\AppData\Local\Temp\cc0vShlo.s 			page 66


C:\Users\SOLDER~1\AppData\Local\Temp\cc0vShlo.s:29239  .debug_str:000000000002d22a .LASF3168
C:\Users\SOLDER~1\AppData\Local\Temp\cc0vShlo.s:20903  .debug_str:000000000000b0aa .LASF3169
C:\Users\SOLDER~1\AppData\Local\Temp\cc0vShlo.s:27427  .debug_str:0000000000025b3a .LASF3170
C:\Users\SOLDER~1\AppData\Local\Temp\cc0vShlo.s:19175  .debug_str:0000000000004016 .LASF3171
C:\Users\SOLDER~1\AppData\Local\Temp\cc0vShlo.s:27425  .debug_str:0000000000025b19 .LASF3172
C:\Users\SOLDER~1\AppData\Local\Temp\cc0vShlo.s:19249  .debug_str:00000000000044c8 .LASF3173
C:\Users\SOLDER~1\AppData\Local\Temp\cc0vShlo.s:23531  .debug_str:0000000000015d89 .LASF3174
C:\Users\SOLDER~1\AppData\Local\Temp\cc0vShlo.s:24513  .debug_str:0000000000019cc4 .LASF3175
C:\Users\SOLDER~1\AppData\Local\Temp\cc0vShlo.s:25299  .debug_str:000000000001d063 .LASF3176
C:\Users\SOLDER~1\AppData\Local\Temp\cc0vShlo.s:22603  .debug_str:0000000000011fb5 .LASF3177
C:\Users\SOLDER~1\AppData\Local\Temp\cc0vShlo.s:24811  .debug_str:000000000001afe7 .LASF3178
C:\Users\SOLDER~1\AppData\Local\Temp\cc0vShlo.s:20703  .debug_str:000000000000a399 .LASF3179
C:\Users\SOLDER~1\AppData\Local\Temp\cc0vShlo.s:27227  .debug_str:0000000000024dd0 .LASF3180
C:\Users\SOLDER~1\AppData\Local\Temp\cc0vShlo.s:21053  .debug_str:000000000000ba67 .LASF3181
C:\Users\SOLDER~1\AppData\Local\Temp\cc0vShlo.s:25683  .debug_str:000000000001e925 .LASF3182
C:\Users\SOLDER~1\AppData\Local\Temp\cc0vShlo.s:28493  .debug_str:000000000002a1bc .LASF3183
C:\Users\SOLDER~1\AppData\Local\Temp\cc0vShlo.s:28091  .debug_str:0000000000028770 .LASF3184
C:\Users\SOLDER~1\AppData\Local\Temp\cc0vShlo.s:26579  .debug_str:00000000000222f1 .LASF3185
C:\Users\SOLDER~1\AppData\Local\Temp\cc0vShlo.s:26247  .debug_str:0000000000020db9 .LASF3186
C:\Users\SOLDER~1\AppData\Local\Temp\cc0vShlo.s:24739  .debug_str:000000000001ab86 .LASF3187
C:\Users\SOLDER~1\AppData\Local\Temp\cc0vShlo.s:21805  .debug_str:000000000000ec15 .LASF3188
C:\Users\SOLDER~1\AppData\Local\Temp\cc0vShlo.s:22855  .debug_str:0000000000013005 .LASF3189
C:\Users\SOLDER~1\AppData\Local\Temp\cc0vShlo.s:18459  .debug_str:00000000000011b3 .LASF3190
C:\Users\SOLDER~1\AppData\Local\Temp\cc0vShlo.s:20713  .debug_str:000000000000a43c .LASF3191
C:\Users\SOLDER~1\AppData\Local\Temp\cc0vShlo.s:28149  .debug_str:0000000000028b16 .LASF3192
C:\Users\SOLDER~1\AppData\Local\Temp\cc0vShlo.s:19067  .debug_str:000000000000393b .LASF3193
C:\Users\SOLDER~1\AppData\Local\Temp\cc0vShlo.s:23535  .debug_str:0000000000015dcd .LASF3194
C:\Users\SOLDER~1\AppData\Local\Temp\cc0vShlo.s:28565  .debug_str:000000000002a63a .LASF3195
C:\Users\SOLDER~1\AppData\Local\Temp\cc0vShlo.s:20673  .debug_str:000000000000a1ad .LASF3196
C:\Users\SOLDER~1\AppData\Local\Temp\cc0vShlo.s:26891  .debug_str:00000000000237c0 .LASF3197
C:\Users\SOLDER~1\AppData\Local\Temp\cc0vShlo.s:25145  .debug_str:000000000001c5db .LASF3198
C:\Users\SOLDER~1\AppData\Local\Temp\cc0vShlo.s:18843  .debug_str:0000000000002ac6 .LASF3199
C:\Users\SOLDER~1\AppData\Local\Temp\cc0vShlo.s:24251  .debug_str:0000000000018c00 .LASF3200
C:\Users\SOLDER~1\AppData\Local\Temp\cc0vShlo.s:23615  .debug_str:0000000000016308 .LASF3201
C:\Users\SOLDER~1\AppData\Local\Temp\cc0vShlo.s:20415  .debug_str:000000000000908d .LASF3202
C:\Users\SOLDER~1\AppData\Local\Temp\cc0vShlo.s:26949  .debug_str:0000000000023b61 .LASF3203
C:\Users\SOLDER~1\AppData\Local\Temp\cc0vShlo.s:21735  .debug_str:000000000000e7bf .LASF3204
C:\Users\SOLDER~1\AppData\Local\Temp\cc0vShlo.s:20249  .debug_str:0000000000008583 .LASF3205
C:\Users\SOLDER~1\AppData\Local\Temp\cc0vShlo.s:19761  .debug_str:00000000000065a4 .LASF3206
C:\Users\SOLDER~1\AppData\Local\Temp\cc0vShlo.s:27465  .debug_str:0000000000025dfb .LASF3207
C:\Users\SOLDER~1\AppData\Local\Temp\cc0vShlo.s:20597  .debug_str:0000000000009c67 .LASF3208
C:\Users\SOLDER~1\AppData\Local\Temp\cc0vShlo.s:22639  .debug_str:00000000000121f3 .LASF3209
C:\Users\SOLDER~1\AppData\Local\Temp\cc0vShlo.s:22635  .debug_str:00000000000121ba .LASF3210
C:\Users\SOLDER~1\AppData\Local\Temp\cc0vShlo.s:23693  .debug_str:00000000000167af .LASF3211
C:\Users\SOLDER~1\AppData\Local\Temp\cc0vShlo.s:27971  .debug_str:0000000000027fb4 .LASF3212
C:\Users\SOLDER~1\AppData\Local\Temp\cc0vShlo.s:27599  .debug_str:00000000000266ff .LASF3213
C:\Users\SOLDER~1\AppData\Local\Temp\cc0vShlo.s:25329  .debug_str:000000000001d26c .LASF3214
C:\Users\SOLDER~1\AppData\Local\Temp\cc0vShlo.s:19633  .debug_str:0000000000005d16 .LASF3215
C:\Users\SOLDER~1\AppData\Local\Temp\cc0vShlo.s:27051  .debug_str:000000000002422e .LASF3216
C:\Users\SOLDER~1\AppData\Local\Temp\cc0vShlo.s:28297  .debug_str:00000000000294d1 .LASF3217
C:\Users\SOLDER~1\AppData\Local\Temp\cc0vShlo.s:21885  .debug_str:000000000000f120 .LASF3218
C:\Users\SOLDER~1\AppData\Local\Temp\cc0vShlo.s:25475  .debug_str:000000000001db75 .LASF3219
C:\Users\SOLDER~1\AppData\Local\Temp\cc0vShlo.s:23667  .debug_str:0000000000016615 .LASF3220
C:\Users\SOLDER~1\AppData\Local\Temp\cc0vShlo.s:25481  .debug_str:000000000001dbe4 .LASF3221
C:\Users\SOLDER~1\AppData\Local\Temp\cc0vShlo.s:20823  .debug_str:000000000000ab88 .LASF3222
C:\Users\SOLDER~1\AppData\Local\Temp\cc0vShlo.s:20297  .debug_str:0000000000008883 .LASF3223
C:\Users\SOLDER~1\AppData\Local\Temp\cc0vShlo.s:29107  .debug_str:000000000002c947 .LASF3224
GAS LISTING C:\Users\SOLDER~1\AppData\Local\Temp\cc0vShlo.s 			page 67


C:\Users\SOLDER~1\AppData\Local\Temp\cc0vShlo.s:19983  .debug_str:000000000000746a .LASF3225
C:\Users\SOLDER~1\AppData\Local\Temp\cc0vShlo.s:28187  .debug_str:0000000000028d61 .LASF3226
C:\Users\SOLDER~1\AppData\Local\Temp\cc0vShlo.s:26211  .debug_str:0000000000020b6c .LASF3227
C:\Users\SOLDER~1\AppData\Local\Temp\cc0vShlo.s:23709  .debug_str:00000000000168c6 .LASF3228
C:\Users\SOLDER~1\AppData\Local\Temp\cc0vShlo.s:21019  .debug_str:000000000000b831 .LASF3229
C:\Users\SOLDER~1\AppData\Local\Temp\cc0vShlo.s:18399  .debug_str:0000000000000e0b .LASF3230
C:\Users\SOLDER~1\AppData\Local\Temp\cc0vShlo.s:27323  .debug_str:0000000000025409 .LASF3231
C:\Users\SOLDER~1\AppData\Local\Temp\cc0vShlo.s:28457  .debug_str:0000000000029f46 .LASF3232
C:\Users\SOLDER~1\AppData\Local\Temp\cc0vShlo.s:18647  .debug_str:0000000000001df0 .LASF3233
C:\Users\SOLDER~1\AppData\Local\Temp\cc0vShlo.s:22697  .debug_str:00000000000125c1 .LASF3234
C:\Users\SOLDER~1\AppData\Local\Temp\cc0vShlo.s:29357  .debug_str:000000000002d97c .LASF3235
C:\Users\SOLDER~1\AppData\Local\Temp\cc0vShlo.s:18311  .debug_str:00000000000007c4 .LASF3236
C:\Users\SOLDER~1\AppData\Local\Temp\cc0vShlo.s:21829  .debug_str:000000000000eda1 .LASF3237
C:\Users\SOLDER~1\AppData\Local\Temp\cc0vShlo.s:25447  .debug_str:000000000001d993 .LASF3238
C:\Users\SOLDER~1\AppData\Local\Temp\cc0vShlo.s:29009  .debug_str:000000000002c319 .LASF3239
C:\Users\SOLDER~1\AppData\Local\Temp\cc0vShlo.s:29335  .debug_str:000000000002d811 .LASF3240
C:\Users\SOLDER~1\AppData\Local\Temp\cc0vShlo.s:27207  .debug_str:0000000000024c8c .LASF3241
C:\Users\SOLDER~1\AppData\Local\Temp\cc0vShlo.s:28907  .debug_str:000000000002bc54 .LASF3242
C:\Users\SOLDER~1\AppData\Local\Temp\cc0vShlo.s:22889  .debug_str:0000000000013265 .LASF3243
C:\Users\SOLDER~1\AppData\Local\Temp\cc0vShlo.s:22075  .debug_str:000000000000fe15 .LASF3244
C:\Users\SOLDER~1\AppData\Local\Temp\cc0vShlo.s:27919  .debug_str:0000000000027c27 .LASF3245
C:\Users\SOLDER~1\AppData\Local\Temp\cc0vShlo.s:25615  .debug_str:000000000001e489 .LASF3246
C:\Users\SOLDER~1\AppData\Local\Temp\cc0vShlo.s:28079  .debug_str:00000000000286c7 .LASF3247
C:\Users\SOLDER~1\AppData\Local\Temp\cc0vShlo.s:21927  .debug_str:000000000000f3e1 .LASF3248
C:\Users\SOLDER~1\AppData\Local\Temp\cc0vShlo.s:28807  .debug_str:000000000002b5e9 .LASF3249
C:\Users\SOLDER~1\AppData\Local\Temp\cc0vShlo.s:23313  .debug_str:0000000000014f40 .LASF3250
C:\Users\SOLDER~1\AppData\Local\Temp\cc0vShlo.s:29449  .debug_str:000000000002df6b .LASF3251
C:\Users\SOLDER~1\AppData\Local\Temp\cc0vShlo.s:28529  .debug_str:000000000002a401 .LASF3252
C:\Users\SOLDER~1\AppData\Local\Temp\cc0vShlo.s:27505  .debug_str:00000000000260c6 .LASF3253
C:\Users\SOLDER~1\AppData\Local\Temp\cc0vShlo.s:28253  .debug_str:00000000000291be .LASF3254
C:\Users\SOLDER~1\AppData\Local\Temp\cc0vShlo.s:25129  .debug_str:000000000001c4c6 .LASF3255
C:\Users\SOLDER~1\AppData\Local\Temp\cc0vShlo.s:22421  .debug_str:0000000000011425 .LASF3256
C:\Users\SOLDER~1\AppData\Local\Temp\cc0vShlo.s:20107  .debug_str:0000000000007c21 .LASF3257
C:\Users\SOLDER~1\AppData\Local\Temp\cc0vShlo.s:21067  .debug_str:000000000000bb80 .LASF3258
C:\Users\SOLDER~1\AppData\Local\Temp\cc0vShlo.s:24961  .debug_str:000000000001b982 .LASF3259
C:\Users\SOLDER~1\AppData\Local\Temp\cc0vShlo.s:22231  .debug_str:00000000000107d4 .LASF3260
C:\Users\SOLDER~1\AppData\Local\Temp\cc0vShlo.s:24859  .debug_str:000000000001b2f7 .LASF3261
C:\Users\SOLDER~1\AppData\Local\Temp\cc0vShlo.s:26477  .debug_str:0000000000021ca5 .LASF3262
C:\Users\SOLDER~1\AppData\Local\Temp\cc0vShlo.s:27037  .debug_str:000000000002412a .LASF3263
C:\Users\SOLDER~1\AppData\Local\Temp\cc0vShlo.s:20253  .debug_str:00000000000085b6 .LASF3264
C:\Users\SOLDER~1\AppData\Local\Temp\cc0vShlo.s:27977  .debug_str:000000000002800f .LASF3265
C:\Users\SOLDER~1\AppData\Local\Temp\cc0vShlo.s:24429  .debug_str:0000000000019773 .LASF3266
C:\Users\SOLDER~1\AppData\Local\Temp\cc0vShlo.s:21221  .debug_str:000000000000c5b3 .LASF3267
C:\Users\SOLDER~1\AppData\Local\Temp\cc0vShlo.s:20465  .debug_str:0000000000009403 .LASF3268
C:\Users\SOLDER~1\AppData\Local\Temp\cc0vShlo.s:20171  .debug_str:000000000000808c .LASF3269
C:\Users\SOLDER~1\AppData\Local\Temp\cc0vShlo.s:21987  .debug_str:000000000000f7e4 .LASF3270
C:\Users\SOLDER~1\AppData\Local\Temp\cc0vShlo.s:24181  .debug_str:0000000000018742 .LASF3271
C:\Users\SOLDER~1\AppData\Local\Temp\cc0vShlo.s:23207  .debug_str:000000000001486f .LASF3272
C:\Users\SOLDER~1\AppData\Local\Temp\cc0vShlo.s:25451  .debug_str:000000000001d9d7 .LASF3273
C:\Users\SOLDER~1\AppData\Local\Temp\cc0vShlo.s:18737  .debug_str:00000000000023d8 .LASF3274
C:\Users\SOLDER~1\AppData\Local\Temp\cc0vShlo.s:21729  .debug_str:000000000000e731 .LASF3275
C:\Users\SOLDER~1\AppData\Local\Temp\cc0vShlo.s:23381  .debug_str:00000000000153d8 .LASF3276
C:\Users\SOLDER~1\AppData\Local\Temp\cc0vShlo.s:25769  .debug_str:000000000001eeb1 .LASF3277
C:\Users\SOLDER~1\AppData\Local\Temp\cc0vShlo.s:26659  .debug_str:000000000002284b .LASF3278
C:\Users\SOLDER~1\AppData\Local\Temp\cc0vShlo.s:29555  .debug_str:000000000002e66d .LASF3279
C:\Users\SOLDER~1\AppData\Local\Temp\cc0vShlo.s:28437  .debug_str:0000000000029dd8 .LASF3280
C:\Users\SOLDER~1\AppData\Local\Temp\cc0vShlo.s:28703  .debug_str:000000000002af5a .LASF3281
GAS LISTING C:\Users\SOLDER~1\AppData\Local\Temp\cc0vShlo.s 			page 68


C:\Users\SOLDER~1\AppData\Local\Temp\cc0vShlo.s:20341  .debug_str:0000000000008b83 .LASF3282
C:\Users\SOLDER~1\AppData\Local\Temp\cc0vShlo.s:24021  .debug_str:0000000000017ce6 .LASF3283
C:\Users\SOLDER~1\AppData\Local\Temp\cc0vShlo.s:29215  .debug_str:000000000002d093 .LASF3284
C:\Users\SOLDER~1\AppData\Local\Temp\cc0vShlo.s:27131  .debug_str:0000000000024782 .LASF3285
C:\Users\SOLDER~1\AppData\Local\Temp\cc0vShlo.s:21733  .debug_str:000000000000e78c .LASF3286
C:\Users\SOLDER~1\AppData\Local\Temp\cc0vShlo.s:23251  .debug_str:0000000000014b75 .LASF3287
C:\Users\SOLDER~1\AppData\Local\Temp\cc0vShlo.s:21179  .debug_str:000000000000c2ca .LASF3288
C:\Users\SOLDER~1\AppData\Local\Temp\cc0vShlo.s:22439  .debug_str:0000000000011571 .LASF3289
C:\Users\SOLDER~1\AppData\Local\Temp\cc0vShlo.s:23053  .debug_str:0000000000013de1 .LASF3290
C:\Users\SOLDER~1\AppData\Local\Temp\cc0vShlo.s:22435  .debug_str:0000000000011526 .LASF3291
C:\Users\SOLDER~1\AppData\Local\Temp\cc0vShlo.s:25643  .debug_str:000000000001e661 .LASF3292
C:\Users\SOLDER~1\AppData\Local\Temp\cc0vShlo.s:22819  .debug_str:0000000000012dc5 .LASF3293
C:\Users\SOLDER~1\AppData\Local\Temp\cc0vShlo.s:27899  .debug_str:0000000000027aac .LASF3294
C:\Users\SOLDER~1\AppData\Local\Temp\cc0vShlo.s:25321  .debug_str:000000000001d1de .LASF3295
C:\Users\SOLDER~1\AppData\Local\Temp\cc0vShlo.s:26447  .debug_str:0000000000021ab0 .LASF3296
C:\Users\SOLDER~1\AppData\Local\Temp\cc0vShlo.s:24005  .debug_str:0000000000017bd9 .LASF3297
C:\Users\SOLDER~1\AppData\Local\Temp\cc0vShlo.s:19549  .debug_str:000000000000577d .LASF3298
C:\Users\SOLDER~1\AppData\Local\Temp\cc0vShlo.s:22005  .debug_str:000000000000f91d .LASF3299
C:\Users\SOLDER~1\AppData\Local\Temp\cc0vShlo.s:23575  .debug_str:0000000000016068 .LASF3300
C:\Users\SOLDER~1\AppData\Local\Temp\cc0vShlo.s:25423  .debug_str:000000000001d7fc .LASF3301
C:\Users\SOLDER~1\AppData\Local\Temp\cc0vShlo.s:24999  .debug_str:000000000001bbe7 .LASF3302
C:\Users\SOLDER~1\AppData\Local\Temp\cc0vShlo.s:21359  .debug_str:000000000000cec8 .LASF3303
C:\Users\SOLDER~1\AppData\Local\Temp\cc0vShlo.s:18957  .debug_str:00000000000031f9 .LASF3304
C:\Users\SOLDER~1\AppData\Local\Temp\cc0vShlo.s:24989  .debug_str:000000000001bb32 .LASF3305
C:\Users\SOLDER~1\AppData\Local\Temp\cc0vShlo.s:20367  .debug_str:0000000000008d32 .LASF3306
C:\Users\SOLDER~1\AppData\Local\Temp\cc0vShlo.s:21803  .debug_str:000000000000ebe2 .LASF3307
C:\Users\SOLDER~1\AppData\Local\Temp\cc0vShlo.s:19257  .debug_str:000000000000452c .LASF3308
C:\Users\SOLDER~1\AppData\Local\Temp\cc0vShlo.s:22145  .debug_str:0000000000010257 .LASF3309
C:\Users\SOLDER~1\AppData\Local\Temp\cc0vShlo.s:19435  .debug_str:0000000000005048 .LASF3310
C:\Users\SOLDER~1\AppData\Local\Temp\cc0vShlo.s:18253  .debug_str:000000000000035e .LASF3311
C:\Users\SOLDER~1\AppData\Local\Temp\cc0vShlo.s:20641  .debug_str:0000000000009f80 .LASF3312
C:\Users\SOLDER~1\AppData\Local\Temp\cc0vShlo.s:25711  .debug_str:000000000001eae2 .LASF3313
C:\Users\SOLDER~1\AppData\Local\Temp\cc0vShlo.s:29521  .debug_str:000000000002e40b .LASF3314
C:\Users\SOLDER~1\AppData\Local\Temp\cc0vShlo.s:18439  .debug_str:000000000000105e .LASF3315
C:\Users\SOLDER~1\AppData\Local\Temp\cc0vShlo.s:19109  .debug_str:0000000000003bf3 .LASF3316
C:\Users\SOLDER~1\AppData\Local\Temp\cc0vShlo.s:23631  .debug_str:0000000000016414 .LASF3317
C:\Users\SOLDER~1\AppData\Local\Temp\cc0vShlo.s:24627  .debug_str:000000000001a3e5 .LASF3318
C:\Users\SOLDER~1\AppData\Local\Temp\cc0vShlo.s:24189  .debug_str:00000000000187d2 .LASF3319
C:\Users\SOLDER~1\AppData\Local\Temp\cc0vShlo.s:29209  .debug_str:000000000002d02e .LASF3320
C:\Users\SOLDER~1\AppData\Local\Temp\cc0vShlo.s:25767  .debug_str:000000000001ee88 .LASF3321
C:\Users\SOLDER~1\AppData\Local\Temp\cc0vShlo.s:22341  .debug_str:0000000000010eeb .LASF3322
C:\Users\SOLDER~1\AppData\Local\Temp\cc0vShlo.s:18881  .debug_str:0000000000002cfd .LASF3323
C:\Users\SOLDER~1\AppData\Local\Temp\cc0vShlo.s:26875  .debug_str:00000000000236a7 .LASF3324
C:\Users\SOLDER~1\AppData\Local\Temp\cc0vShlo.s:23027  .debug_str:0000000000013c0c .LASF3325
C:\Users\SOLDER~1\AppData\Local\Temp\cc0vShlo.s:22469  .debug_str:0000000000011728 .LASF3326
C:\Users\SOLDER~1\AppData\Local\Temp\cc0vShlo.s:21929  .debug_str:000000000000f410 .LASF3327
C:\Users\SOLDER~1\AppData\Local\Temp\cc0vShlo.s:24263  .debug_str:0000000000018cde .LASF3328
C:\Users\SOLDER~1\AppData\Local\Temp\cc0vShlo.s:26939  .debug_str:0000000000023ab1 .LASF3329
C:\Users\SOLDER~1\AppData\Local\Temp\cc0vShlo.s:18287  .debug_str:000000000000059c .LASF3330
C:\Users\SOLDER~1\AppData\Local\Temp\cc0vShlo.s:19785  .debug_str:0000000000006761 .LASF3331
C:\Users\SOLDER~1\AppData\Local\Temp\cc0vShlo.s:18789  .debug_str:0000000000002735 .LASF3332
C:\Users\SOLDER~1\AppData\Local\Temp\cc0vShlo.s:25865  .debug_str:000000000001f53a .LASF3333
C:\Users\SOLDER~1\AppData\Local\Temp\cc0vShlo.s:28201  .debug_str:0000000000028e43 .LASF3334
C:\Users\SOLDER~1\AppData\Local\Temp\cc0vShlo.s:21145  .debug_str:000000000000c071 .LASF3335
C:\Users\SOLDER~1\AppData\Local\Temp\cc0vShlo.s:26137  .debug_str:00000000000206a5 .LASF3336
C:\Users\SOLDER~1\AppData\Local\Temp\cc0vShlo.s:19399  .debug_str:0000000000004e2e .LASF3337
C:\Users\SOLDER~1\AppData\Local\Temp\cc0vShlo.s:20335  .debug_str:0000000000008b11 .LASF3338
GAS LISTING C:\Users\SOLDER~1\AppData\Local\Temp\cc0vShlo.s 			page 69


C:\Users\SOLDER~1\AppData\Local\Temp\cc0vShlo.s:21923  .debug_str:000000000000f38e .LASF3339
C:\Users\SOLDER~1\AppData\Local\Temp\cc0vShlo.s:19845  .debug_str:0000000000006b2e .LASF3340
C:\Users\SOLDER~1\AppData\Local\Temp\cc0vShlo.s:29565  .debug_str:000000000002e71f .LASF3341
C:\Users\SOLDER~1\AppData\Local\Temp\cc0vShlo.s:25169  .debug_str:000000000001c775 .LASF3342
C:\Users\SOLDER~1\AppData\Local\Temp\cc0vShlo.s:26009  .debug_str:000000000001fe5d .LASF3343
C:\Users\SOLDER~1\AppData\Local\Temp\cc0vShlo.s:24289  .debug_str:0000000000018ea1 .LASF3344
C:\Users\SOLDER~1\AppData\Local\Temp\cc0vShlo.s:22487  .debug_str:0000000000011866 .LASF3345
C:\Users\SOLDER~1\AppData\Local\Temp\cc0vShlo.s:20011  .debug_str:000000000000761a .LASF3346
C:\Users\SOLDER~1\AppData\Local\Temp\cc0vShlo.s:28621  .debug_str:000000000002a9e7 .LASF3347
C:\Users\SOLDER~1\AppData\Local\Temp\cc0vShlo.s:21017  .debug_str:000000000000b815 .LASF3348
C:\Users\SOLDER~1\AppData\Local\Temp\cc0vShlo.s:23369  .debug_str:0000000000015313 .LASF3349
C:\Users\SOLDER~1\AppData\Local\Temp\cc0vShlo.s:26485  .debug_str:0000000000021d32 .LASF3350
C:\Users\SOLDER~1\AppData\Local\Temp\cc0vShlo.s:25795  .debug_str:000000000001f074 .LASF3351
C:\Users\SOLDER~1\AppData\Local\Temp\cc0vShlo.s:23123  .debug_str:00000000000142cd .LASF3352
C:\Users\SOLDER~1\AppData\Local\Temp\cc0vShlo.s:23397  .debug_str:00000000000154f9 .LASF3353
C:\Users\SOLDER~1\AppData\Local\Temp\cc0vShlo.s:23133  .debug_str:000000000001435f .LASF3354
C:\Users\SOLDER~1\AppData\Local\Temp\cc0vShlo.s:19671  .debug_str:0000000000005f74 .LASF3355
C:\Users\SOLDER~1\AppData\Local\Temp\cc0vShlo.s:27673  .debug_str:0000000000026bdc .LASF3356
C:\Users\SOLDER~1\AppData\Local\Temp\cc0vShlo.s:24307  .debug_str:0000000000018fce .LASF3357
C:\Users\SOLDER~1\AppData\Local\Temp\cc0vShlo.s:24139  .debug_str:00000000000184a6 .LASF3358
C:\Users\SOLDER~1\AppData\Local\Temp\cc0vShlo.s:28857  .debug_str:000000000002b8fd .LASF3359
C:\Users\SOLDER~1\AppData\Local\Temp\cc0vShlo.s:21185  .debug_str:000000000000c341 .LASF3360
C:\Users\SOLDER~1\AppData\Local\Temp\cc0vShlo.s:25925  .debug_str:000000000001f90c .LASF3361
C:\Users\SOLDER~1\AppData\Local\Temp\cc0vShlo.s:28685  .debug_str:000000000002adfb .LASF3362
C:\Users\SOLDER~1\AppData\Local\Temp\cc0vShlo.s:28205  .debug_str:0000000000028e90 .LASF3363
C:\Users\SOLDER~1\AppData\Local\Temp\cc0vShlo.s:26097  .debug_str:0000000000020400 .LASF3364
C:\Users\SOLDER~1\AppData\Local\Temp\cc0vShlo.s:25465  .debug_str:000000000001dab3 .LASF3365
C:\Users\SOLDER~1\AppData\Local\Temp\cc0vShlo.s:26571  .debug_str:000000000002225e .LASF3366
C:\Users\SOLDER~1\AppData\Local\Temp\cc0vShlo.s:27695  .debug_str:0000000000026d83 .LASF3367
C:\Users\SOLDER~1\AppData\Local\Temp\cc0vShlo.s:28763  .debug_str:000000000002b311 .LASF3368
C:\Users\SOLDER~1\AppData\Local\Temp\cc0vShlo.s:22007  .debug_str:000000000000f945 .LASF3369
C:\Users\SOLDER~1\AppData\Local\Temp\cc0vShlo.s:26675  .debug_str:0000000000022972 .LASF3370
C:\Users\SOLDER~1\AppData\Local\Temp\cc0vShlo.s:27613  .debug_str:00000000000267fe .LASF3371
C:\Users\SOLDER~1\AppData\Local\Temp\cc0vShlo.s:19653  .debug_str:0000000000005e3b .LASF3372
C:\Users\SOLDER~1\AppData\Local\Temp\cc0vShlo.s:29389  .debug_str:000000000002dba2 .LASF3373
C:\Users\SOLDER~1\AppData\Local\Temp\cc0vShlo.s:26581  .debug_str:0000000000022304 .LASF3374
C:\Users\SOLDER~1\AppData\Local\Temp\cc0vShlo.s:28043  .debug_str:0000000000028419 .LASF3375
C:\Users\SOLDER~1\AppData\Local\Temp\cc0vShlo.s:20917  .debug_str:000000000000b189 .LASF3376
C:\Users\SOLDER~1\AppData\Local\Temp\cc0vShlo.s:22685  .debug_str:00000000000124fa .LASF3377
C:\Users\SOLDER~1\AppData\Local\Temp\cc0vShlo.s:20005  .debug_str:00000000000075ae .LASF3378
C:\Users\SOLDER~1\AppData\Local\Temp\cc0vShlo.s:24543  .debug_str:0000000000019ea4 .LASF3379
C:\Users\SOLDER~1\AppData\Local\Temp\cc0vShlo.s:22749  .debug_str:000000000001290f .LASF3380
C:\Users\SOLDER~1\AppData\Local\Temp\cc0vShlo.s:25839  .debug_str:000000000001f366 .LASF3381
C:\Users\SOLDER~1\AppData\Local\Temp\cc0vShlo.s:23963  .debug_str:0000000000017930 .LASF3382
C:\Users\SOLDER~1\AppData\Local\Temp\cc0vShlo.s:29437  .debug_str:000000000002dea0 .LASF3383
C:\Users\SOLDER~1\AppData\Local\Temp\cc0vShlo.s:24895  .debug_str:000000000001b53e .LASF3384
C:\Users\SOLDER~1\AppData\Local\Temp\cc0vShlo.s:24499  .debug_str:0000000000019bff .LASF3385
C:\Users\SOLDER~1\AppData\Local\Temp\cc0vShlo.s:28355  .debug_str:0000000000029847 .LASF3386
C:\Users\SOLDER~1\AppData\Local\Temp\cc0vShlo.s:23195  .debug_str:000000000001477a .LASF3387
C:\Users\SOLDER~1\AppData\Local\Temp\cc0vShlo.s:29121  .debug_str:000000000002ca28 .LASF3388
C:\Users\SOLDER~1\AppData\Local\Temp\cc0vShlo.s:23279  .debug_str:0000000000014d40 .LASF3389
C:\Users\SOLDER~1\AppData\Local\Temp\cc0vShlo.s:25607  .debug_str:000000000001e3f3 .LASF3390
C:\Users\SOLDER~1\AppData\Local\Temp\cc0vShlo.s:29661  .debug_str:000000000002ed0c .LASF3391
C:\Users\SOLDER~1\AppData\Local\Temp\cc0vShlo.s:21817  .debug_str:000000000000ecd5 .LASF3392
C:\Users\SOLDER~1\AppData\Local\Temp\cc0vShlo.s:20373  .debug_str:0000000000008da7 .LASF3393
C:\Users\SOLDER~1\AppData\Local\Temp\cc0vShlo.s:18519  .debug_str:0000000000001595 .LASF3394
C:\Users\SOLDER~1\AppData\Local\Temp\cc0vShlo.s:27327  .debug_str:0000000000025434 .LASF3395
GAS LISTING C:\Users\SOLDER~1\AppData\Local\Temp\cc0vShlo.s 			page 70


C:\Users\SOLDER~1\AppData\Local\Temp\cc0vShlo.s:27445  .debug_str:0000000000025c7b .LASF3396
C:\Users\SOLDER~1\AppData\Local\Temp\cc0vShlo.s:24551  .debug_str:0000000000019f2f .LASF3397
C:\Users\SOLDER~1\AppData\Local\Temp\cc0vShlo.s:21645  .debug_str:000000000000e1e0 .LASF3398
C:\Users\SOLDER~1\AppData\Local\Temp\cc0vShlo.s:20677  .debug_str:000000000000a1f5 .LASF3399
C:\Users\SOLDER~1\AppData\Local\Temp\cc0vShlo.s:23809  .debug_str:0000000000016ef5 .LASF3400
C:\Users\SOLDER~1\AppData\Local\Temp\cc0vShlo.s:24025  .debug_str:0000000000017d35 .LASF3401
C:\Users\SOLDER~1\AppData\Local\Temp\cc0vShlo.s:28451  .debug_str:0000000000029ebf .LASF3402
C:\Users\SOLDER~1\AppData\Local\Temp\cc0vShlo.s:23803  .debug_str:0000000000016e95 .LASF3403
C:\Users\SOLDER~1\AppData\Local\Temp\cc0vShlo.s:27659  .debug_str:0000000000026b00 .LASF3404
C:\Users\SOLDER~1\AppData\Local\Temp\cc0vShlo.s:20921  .debug_str:000000000000b1c3 .LASF3405
C:\Users\SOLDER~1\AppData\Local\Temp\cc0vShlo.s:25625  .debug_str:000000000001e549 .LASF3406
C:\Users\SOLDER~1\AppData\Local\Temp\cc0vShlo.s:18871  .debug_str:0000000000002c4f .LASF3407
C:\Users\SOLDER~1\AppData\Local\Temp\cc0vShlo.s:20557  .debug_str:00000000000099e8 .LASF3408
C:\Users\SOLDER~1\AppData\Local\Temp\cc0vShlo.s:28303  .debug_str:0000000000029527 .LASF3409
C:\Users\SOLDER~1\AppData\Local\Temp\cc0vShlo.s:29039  .debug_str:000000000002c50b .LASF3410
C:\Users\SOLDER~1\AppData\Local\Temp\cc0vShlo.s:19037  .debug_str:000000000000373e .LASF3411
C:\Users\SOLDER~1\AppData\Local\Temp\cc0vShlo.s:28745  .debug_str:000000000002b1fa .LASF3412
C:\Users\SOLDER~1\AppData\Local\Temp\cc0vShlo.s:26937  .debug_str:0000000000023a87 .LASF3413
C:\Users\SOLDER~1\AppData\Local\Temp\cc0vShlo.s:25199  .debug_str:000000000001c990 .LASF3414
C:\Users\SOLDER~1\AppData\Local\Temp\cc0vShlo.s:23465  .debug_str:000000000001596b .LASF3415
C:\Users\SOLDER~1\AppData\Local\Temp\cc0vShlo.s:28509  .debug_str:000000000002a2b5 .LASF3416
C:\Users\SOLDER~1\AppData\Local\Temp\cc0vShlo.s:19915  .debug_str:0000000000007005 .LASF3417
C:\Users\SOLDER~1\AppData\Local\Temp\cc0vShlo.s:23287  .debug_str:0000000000014db9 .LASF3418
C:\Users\SOLDER~1\AppData\Local\Temp\cc0vShlo.s:22319  .debug_str:0000000000010d75 .LASF3419
C:\Users\SOLDER~1\AppData\Local\Temp\cc0vShlo.s:21825  .debug_str:000000000000ed5f .LASF3420
C:\Users\SOLDER~1\AppData\Local\Temp\cc0vShlo.s:27089  .debug_str:00000000000244bc .LASF3421
C:\Users\SOLDER~1\AppData\Local\Temp\cc0vShlo.s:27297  .debug_str:0000000000025237 .LASF3422
C:\Users\SOLDER~1\AppData\Local\Temp\cc0vShlo.s:22485  .debug_str:000000000001183f .LASF3423
C:\Users\SOLDER~1\AppData\Local\Temp\cc0vShlo.s:28161  .debug_str:0000000000028bdd .LASF3424
C:\Users\SOLDER~1\AppData\Local\Temp\cc0vShlo.s:25535  .debug_str:000000000001df6a .LASF3425
C:\Users\SOLDER~1\AppData\Local\Temp\cc0vShlo.s:26087  .debug_str:0000000000020368 .LASF3426
C:\Users\SOLDER~1\AppData\Local\Temp\cc0vShlo.s:22675  .debug_str:000000000001243b .LASF3427
C:\Users\SOLDER~1\AppData\Local\Temp\cc0vShlo.s:24529  .debug_str:0000000000019daf .LASF3428
C:\Users\SOLDER~1\AppData\Local\Temp\cc0vShlo.s:19099  .debug_str:0000000000003b47 .LASF3429
C:\Users\SOLDER~1\AppData\Local\Temp\cc0vShlo.s:23867  .debug_str:00000000000172c5 .LASF3430
C:\Users\SOLDER~1\AppData\Local\Temp\cc0vShlo.s:20397  .debug_str:0000000000008f49 .LASF3431
C:\Users\SOLDER~1\AppData\Local\Temp\cc0vShlo.s:26187  .debug_str:00000000000209e7 .LASF3432
C:\Users\SOLDER~1\AppData\Local\Temp\cc0vShlo.s:28937  .debug_str:000000000002be7e .LASF3433
C:\Users\SOLDER~1\AppData\Local\Temp\cc0vShlo.s:22325  .debug_str:0000000000010de2 .LASF3434
C:\Users\SOLDER~1\AppData\Local\Temp\cc0vShlo.s:23005  .debug_str:0000000000013a97 .LASF3435
C:\Users\SOLDER~1\AppData\Local\Temp\cc0vShlo.s:25721  .debug_str:000000000001eb9a .LASF3436
C:\Users\SOLDER~1\AppData\Local\Temp\cc0vShlo.s:28469  .debug_str:000000000002a019 .LASF3437
C:\Users\SOLDER~1\AppData\Local\Temp\cc0vShlo.s:19759  .debug_str:000000000000657a .LASF3438
C:\Users\SOLDER~1\AppData\Local\Temp\cc0vShlo.s:22511  .debug_str:00000000000119dd .LASF3439
C:\Users\SOLDER~1\AppData\Local\Temp\cc0vShlo.s:20307  .debug_str:0000000000008927 .LASF3440
C:\Users\SOLDER~1\AppData\Local\Temp\cc0vShlo.s:25003  .debug_str:000000000001bc36 .LASF3441
C:\Users\SOLDER~1\AppData\Local\Temp\cc0vShlo.s:18269  .debug_str:0000000000000463 .LASF3442
C:\Users\SOLDER~1\AppData\Local\Temp\cc0vShlo.s:21189  .debug_str:000000000000c384 .LASF3443
C:\Users\SOLDER~1\AppData\Local\Temp\cc0vShlo.s:27635  .debug_str:000000000002697d .LASF3444
C:\Users\SOLDER~1\AppData\Local\Temp\cc0vShlo.s:19717  .debug_str:00000000000062b7 .LASF3445
C:\Users\SOLDER~1\AppData\Local\Temp\cc0vShlo.s:25605  .debug_str:000000000001e3c9 .LASF3446
C:\Users\SOLDER~1\AppData\Local\Temp\cc0vShlo.s:23137  .debug_str:00000000000143af .LASF3447
C:\Users\SOLDER~1\AppData\Local\Temp\cc0vShlo.s:21339  .debug_str:000000000000cd90 .LASF3448
C:\Users\SOLDER~1\AppData\Local\Temp\cc0vShlo.s:27677  .debug_str:0000000000026c2e .LASF3449
C:\Users\SOLDER~1\AppData\Local\Temp\cc0vShlo.s:29291  .debug_str:000000000002d56c .LASF3450
C:\Users\SOLDER~1\AppData\Local\Temp\cc0vShlo.s:23457  .debug_str:00000000000158ee .LASF3451
C:\Users\SOLDER~1\AppData\Local\Temp\cc0vShlo.s:25747  .debug_str:000000000001ed3a .LASF3452
GAS LISTING C:\Users\SOLDER~1\AppData\Local\Temp\cc0vShlo.s 			page 71


C:\Users\SOLDER~1\AppData\Local\Temp\cc0vShlo.s:24031  .debug_str:0000000000017d9f .LASF3453
C:\Users\SOLDER~1\AppData\Local\Temp\cc0vShlo.s:19279  .debug_str:00000000000046b0 .LASF3454
C:\Users\SOLDER~1\AppData\Local\Temp\cc0vShlo.s:24293  .debug_str:0000000000018eeb .LASF3455
C:\Users\SOLDER~1\AppData\Local\Temp\cc0vShlo.s:18833  .debug_str:0000000000002a1c .LASF3456
C:\Users\SOLDER~1\AppData\Local\Temp\cc0vShlo.s:28731  .debug_str:000000000002b121 .LASF3457
C:\Users\SOLDER~1\AppData\Local\Temp\cc0vShlo.s:27947  .debug_str:0000000000027dfc .LASF3458
C:\Users\SOLDER~1\AppData\Local\Temp\cc0vShlo.s:29525  .debug_str:000000000002e449 .LASF3459
C:\Users\SOLDER~1\AppData\Local\Temp\cc0vShlo.s:22495  .debug_str:000000000001190a .LASF3460
C:\Users\SOLDER~1\AppData\Local\Temp\cc0vShlo.s:27171  .debug_str:0000000000024a2c .LASF3461
C:\Users\SOLDER~1\AppData\Local\Temp\cc0vShlo.s:22593  .debug_str:0000000000011f19 .LASF3462
C:\Users\SOLDER~1\AppData\Local\Temp\cc0vShlo.s:27979  .debug_str:000000000002802e .LASF3463
C:\Users\SOLDER~1\AppData\Local\Temp\cc0vShlo.s:26491  .debug_str:0000000000021d90 .LASF3464
C:\Users\SOLDER~1\AppData\Local\Temp\cc0vShlo.s:19531  .debug_str:0000000000005620 .LASF3465
C:\Users\SOLDER~1\AppData\Local\Temp\cc0vShlo.s:21963  .debug_str:000000000000f636 .LASF3466
C:\Users\SOLDER~1\AppData\Local\Temp\cc0vShlo.s:23825  .debug_str:0000000000017011 .LASF3467
C:\Users\SOLDER~1\AppData\Local\Temp\cc0vShlo.s:24001  .debug_str:0000000000017ba0 .LASF3468
C:\Users\SOLDER~1\AppData\Local\Temp\cc0vShlo.s:18819  .debug_str:0000000000002961 .LASF3469
C:\Users\SOLDER~1\AppData\Local\Temp\cc0vShlo.s:24127  .debug_str:00000000000183e2 .LASF3470
C:\Users\SOLDER~1\AppData\Local\Temp\cc0vShlo.s:28817  .debug_str:000000000002b67c .LASF3471
C:\Users\SOLDER~1\AppData\Local\Temp\cc0vShlo.s:25675  .debug_str:000000000001e8a9 .LASF3472
C:\Users\SOLDER~1\AppData\Local\Temp\cc0vShlo.s:19085  .debug_str:0000000000003a6a .LASF3473
C:\Users\SOLDER~1\AppData\Local\Temp\cc0vShlo.s:19763  .debug_str:00000000000065c6 .LASF3474
C:\Users\SOLDER~1\AppData\Local\Temp\cc0vShlo.s:22983  .debug_str:00000000000138cc .LASF3475
C:\Users\SOLDER~1\AppData\Local\Temp\cc0vShlo.s:21309  .debug_str:000000000000cba1 .LASF3476
C:\Users\SOLDER~1\AppData\Local\Temp\cc0vShlo.s:23089  .debug_str:000000000001403e .LASF3477
C:\Users\SOLDER~1\AppData\Local\Temp\cc0vShlo.s:20029  .debug_str:0000000000007738 .LASF3478
C:\Users\SOLDER~1\AppData\Local\Temp\cc0vShlo.s:20369  .debug_str:0000000000008d62 .LASF3479
C:\Users\SOLDER~1\AppData\Local\Temp\cc0vShlo.s:19977  .debug_str:000000000000740e .LASF3480
C:\Users\SOLDER~1\AppData\Local\Temp\cc0vShlo.s:25729  .debug_str:000000000001ec0f .LASF3481
C:\Users\SOLDER~1\AppData\Local\Temp\cc0vShlo.s:28727  .debug_str:000000000002b0e4 .LASF3482
C:\Users\SOLDER~1\AppData\Local\Temp\cc0vShlo.s:18935  .debug_str:000000000000308f .LASF3483
C:\Users\SOLDER~1\AppData\Local\Temp\cc0vShlo.s:26511  .debug_str:0000000000021ec4 .LASF3484
C:\Users\SOLDER~1\AppData\Local\Temp\cc0vShlo.s:19535  .debug_str:0000000000005668 .LASF3485
C:\Users\SOLDER~1\AppData\Local\Temp\cc0vShlo.s:20147  .debug_str:0000000000007ee9 .LASF3486
C:\Users\SOLDER~1\AppData\Local\Temp\cc0vShlo.s:18915  .debug_str:0000000000002f5c .LASF3487
C:\Users\SOLDER~1\AppData\Local\Temp\cc0vShlo.s:28033  .debug_str:000000000002837d .LASF3488
C:\Users\SOLDER~1\AppData\Local\Temp\cc0vShlo.s:24219  .debug_str:00000000000189e3 .LASF3489
C:\Users\SOLDER~1\AppData\Local\Temp\cc0vShlo.s:25569  .debug_str:000000000001e190 .LASF3490
C:\Users\SOLDER~1\AppData\Local\Temp\cc0vShlo.s:22883  .debug_str:0000000000013209 .LASF3491
C:\Users\SOLDER~1\AppData\Local\Temp\cc0vShlo.s:25105  .debug_str:000000000001c332 .LASF3492
C:\Users\SOLDER~1\AppData\Local\Temp\cc0vShlo.s:21667  .debug_str:000000000000e354 .LASF3493
C:\Users\SOLDER~1\AppData\Local\Temp\cc0vShlo.s:21121  .debug_str:000000000000bed5 .LASF3494
C:\Users\SOLDER~1\AppData\Local\Temp\cc0vShlo.s:26153  .debug_str:00000000000207b7 .LASF3495
C:\Users\SOLDER~1\AppData\Local\Temp\cc0vShlo.s:28639  .debug_str:000000000002ab02 .LASF3496
C:\Users\SOLDER~1\AppData\Local\Temp\cc0vShlo.s:27717  .debug_str:0000000000026ed7 .LASF3497
C:\Users\SOLDER~1\AppData\Local\Temp\cc0vShlo.s:19889  .debug_str:0000000000006e23 .LASF3498
C:\Users\SOLDER~1\AppData\Local\Temp\cc0vShlo.s:24211  .debug_str:0000000000018955 .LASF3499
C:\Users\SOLDER~1\AppData\Local\Temp\cc0vShlo.s:23589  .debug_str:0000000000016153 .LASF3500
C:\Users\SOLDER~1\AppData\Local\Temp\cc0vShlo.s:19495  .debug_str:00000000000053f2 .LASF3501
C:\Users\SOLDER~1\AppData\Local\Temp\cc0vShlo.s:18853  .debug_str:0000000000002b32 .LASF3502
C:\Users\SOLDER~1\AppData\Local\Temp\cc0vShlo.s:20819  .debug_str:000000000000ab50 .LASF3503
C:\Users\SOLDER~1\AppData\Local\Temp\cc0vShlo.s:26913  .debug_str:0000000000023905 .LASF3504
C:\Users\SOLDER~1\AppData\Local\Temp\cc0vShlo.s:29573  .debug_str:000000000002e79e .LASF3505
C:\Users\SOLDER~1\AppData\Local\Temp\cc0vShlo.s:27197  .debug_str:0000000000024be0 .LASF3506
C:\Users\SOLDER~1\AppData\Local\Temp\cc0vShlo.s:22567  .debug_str:0000000000011d60 .LASF3507
C:\Users\SOLDER~1\AppData\Local\Temp\cc0vShlo.s:28011  .debug_str:0000000000028220 .LASF3508
C:\Users\SOLDER~1\AppData\Local\Temp\cc0vShlo.s:20209  .debug_str:00000000000082fb .LASF3509
GAS LISTING C:\Users\SOLDER~1\AppData\Local\Temp\cc0vShlo.s 			page 72


C:\Users\SOLDER~1\AppData\Local\Temp\cc0vShlo.s:25171  .debug_str:000000000001c79e .LASF3510
C:\Users\SOLDER~1\AppData\Local\Temp\cc0vShlo.s:27753  .debug_str:000000000002713d .LASF3511
C:\Users\SOLDER~1\AppData\Local\Temp\cc0vShlo.s:28971  .debug_str:000000000002c0c7 .LASF3512
C:\Users\SOLDER~1\AppData\Local\Temp\cc0vShlo.s:21797  .debug_str:000000000000eb80 .LASF3513
C:\Users\SOLDER~1\AppData\Local\Temp\cc0vShlo.s:29379  .debug_str:000000000002db0f .LASF3514
C:\Users\SOLDER~1\AppData\Local\Temp\cc0vShlo.s:25661  .debug_str:000000000001e7ba .LASF3515
C:\Users\SOLDER~1\AppData\Local\Temp\cc0vShlo.s:27535  .debug_str:00000000000262eb .LASF3516
C:\Users\SOLDER~1\AppData\Local\Temp\cc0vShlo.s:19641  .debug_str:0000000000005d84 .LASF3517
C:\Users\SOLDER~1\AppData\Local\Temp\cc0vShlo.s:28183  .debug_str:0000000000028d2b .LASF3518
C:\Users\SOLDER~1\AppData\Local\Temp\cc0vShlo.s:24541  .debug_str:0000000000019e81 .LASF3519
C:\Users\SOLDER~1\AppData\Local\Temp\cc0vShlo.s:23831  .debug_str:0000000000017083 .LASF3520
C:\Users\SOLDER~1\AppData\Local\Temp\cc0vShlo.s:28545  .debug_str:000000000002a51d .LASF3521
C:\Users\SOLDER~1\AppData\Local\Temp\cc0vShlo.s:21913  .debug_str:000000000000f2f2 .LASF3522
C:\Users\SOLDER~1\AppData\Local\Temp\cc0vShlo.s:24845  .debug_str:000000000001b20b .LASF3523
C:\Users\SOLDER~1\AppData\Local\Temp\cc0vShlo.s:20039  .debug_str:00000000000077b8 .LASF3524
C:\Users\SOLDER~1\AppData\Local\Temp\cc0vShlo.s:23533  .debug_str:0000000000015daa .LASF3525
C:\Users\SOLDER~1\AppData\Local\Temp\cc0vShlo.s:18851  .debug_str:0000000000002b19 .LASF3526
C:\Users\SOLDER~1\AppData\Local\Temp\cc0vShlo.s:23845  .debug_str:0000000000017177 .LASF3527
C:\Users\SOLDER~1\AppData\Local\Temp\cc0vShlo.s:28237  .debug_str:00000000000290bd .LASF3528
C:\Users\SOLDER~1\AppData\Local\Temp\cc0vShlo.s:18557  .debug_str:0000000000001800 .LASF3529
C:\Users\SOLDER~1\AppData\Local\Temp\cc0vShlo.s:29005  .debug_str:000000000002c2d8 .LASF3530
C:\Users\SOLDER~1\AppData\Local\Temp\cc0vShlo.s:23871  .debug_str:000000000001731a .LASF3531
C:\Users\SOLDER~1\AppData\Local\Temp\cc0vShlo.s:25509  .debug_str:000000000001ddd6 .LASF3532
C:\Users\SOLDER~1\AppData\Local\Temp\cc0vShlo.s:21581  .debug_str:000000000000dd47 .LASF3533
C:\Users\SOLDER~1\AppData\Local\Temp\cc0vShlo.s:28759  .debug_str:000000000002b2d6 .LASF3534
C:\Users\SOLDER~1\AppData\Local\Temp\cc0vShlo.s:22009  .debug_str:000000000000f96e .LASF3535
C:\Users\SOLDER~1\AppData\Local\Temp\cc0vShlo.s:26289  .debug_str:00000000000210ab .LASF3536
C:\Users\SOLDER~1\AppData\Local\Temp\cc0vShlo.s:19243  .debug_str:000000000000445b .LASF3537
C:\Users\SOLDER~1\AppData\Local\Temp\cc0vShlo.s:22269  .debug_str:0000000000010a50 .LASF3538
C:\Users\SOLDER~1\AppData\Local\Temp\cc0vShlo.s:26315  .debug_str:0000000000021247 .LASF3539
C:\Users\SOLDER~1\AppData\Local\Temp\cc0vShlo.s:23497  .debug_str:0000000000015b65 .LASF3540
C:\Users\SOLDER~1\AppData\Local\Temp\cc0vShlo.s:25093  .debug_str:000000000001c264 .LASF3541
C:\Users\SOLDER~1\AppData\Local\Temp\cc0vShlo.s:18247  .debug_str:0000000000000306 .LASF3542
C:\Users\SOLDER~1\AppData\Local\Temp\cc0vShlo.s:21871  .debug_str:000000000000f03d .LASF3543
C:\Users\SOLDER~1\AppData\Local\Temp\cc0vShlo.s:26563  .debug_str:00000000000221d7 .LASF3544
C:\Users\SOLDER~1\AppData\Local\Temp\cc0vShlo.s:29321  .debug_str:000000000002d747 .LASF3545
C:\Users\SOLDER~1\AppData\Local\Temp\cc0vShlo.s:26361  .debug_str:0000000000021547 .LASF3546
C:\Users\SOLDER~1\AppData\Local\Temp\cc0vShlo.s:19747  .debug_str:00000000000064b4 .LASF3547
C:\Users\SOLDER~1\AppData\Local\Temp\cc0vShlo.s:19615  .debug_str:0000000000005be7 .LASF3548
C:\Users\SOLDER~1\AppData\Local\Temp\cc0vShlo.s:21283  .debug_str:000000000000c9de .LASF3549
C:\Users\SOLDER~1\AppData\Local\Temp\cc0vShlo.s:20433  .debug_str:00000000000091ea .LASF3550
C:\Users\SOLDER~1\AppData\Local\Temp\cc0vShlo.s:22099  .debug_str:000000000000ff9b .LASF3551
C:\Users\SOLDER~1\AppData\Local\Temp\cc0vShlo.s:19841  .debug_str:0000000000006b02 .LASF3552
C:\Users\SOLDER~1\AppData\Local\Temp\cc0vShlo.s:19423  .debug_str:0000000000004fa0 .LASF3553
C:\Users\SOLDER~1\AppData\Local\Temp\cc0vShlo.s:18615  .debug_str:0000000000001bcb .LASF3554
C:\Users\SOLDER~1\AppData\Local\Temp\cc0vShlo.s:27271  .debug_str:00000000000250a3 .LASF3555
C:\Users\SOLDER~1\AppData\Local\Temp\cc0vShlo.s:18401  .debug_str:0000000000000e2d .LASF3556
C:\Users\SOLDER~1\AppData\Local\Temp\cc0vShlo.s:24667  .debug_str:000000000001a6a2 .LASF3557
C:\Users\SOLDER~1\AppData\Local\Temp\cc0vShlo.s:21887  .debug_str:000000000000f141 .LASF3558
C:\Users\SOLDER~1\AppData\Local\Temp\cc0vShlo.s:18719  .debug_str:000000000000229f .LASF3559
C:\Users\SOLDER~1\AppData\Local\Temp\cc0vShlo.s:19477  .debug_str:00000000000052fb .LASF3560
C:\Users\SOLDER~1\AppData\Local\Temp\cc0vShlo.s:21775  .debug_str:000000000000ea35 .LASF3561
C:\Users\SOLDER~1\AppData\Local\Temp\cc0vShlo.s:22637  .debug_str:00000000000121d7 .LASF3562
C:\Users\SOLDER~1\AppData\Local\Temp\cc0vShlo.s:29103  .debug_str:000000000002c8fd .LASF3563
C:\Users\SOLDER~1\AppData\Local\Temp\cc0vShlo.s:23545  .debug_str:0000000000015e72 .LASF3564
C:\Users\SOLDER~1\AppData\Local\Temp\cc0vShlo.s:24965  .debug_str:000000000001b9c1 .LASF3565
C:\Users\SOLDER~1\AppData\Local\Temp\cc0vShlo.s:25697  .debug_str:000000000001ea09 .LASF3566
GAS LISTING C:\Users\SOLDER~1\AppData\Local\Temp\cc0vShlo.s 			page 73


C:\Users\SOLDER~1\AppData\Local\Temp\cc0vShlo.s:18815  .debug_str:000000000000291a .LASF3567
C:\Users\SOLDER~1\AppData\Local\Temp\cc0vShlo.s:23757  .debug_str:0000000000016ba3 .LASF3568
C:\Users\SOLDER~1\AppData\Local\Temp\cc0vShlo.s:22587  .debug_str:0000000000011eba .LASF3569
C:\Users\SOLDER~1\AppData\Local\Temp\cc0vShlo.s:28779  .debug_str:000000000002b41c .LASF3570
C:\Users\SOLDER~1\AppData\Local\Temp\cc0vShlo.s:26089  .debug_str:0000000000020392 .LASF3571
C:\Users\SOLDER~1\AppData\Local\Temp\cc0vShlo.s:18771  .debug_str:00000000000025ef .LASF3572
C:\Users\SOLDER~1\AppData\Local\Temp\cc0vShlo.s:24279  .debug_str:0000000000018df2 .LASF3573
C:\Users\SOLDER~1\AppData\Local\Temp\cc0vShlo.s:22189  .debug_str:0000000000010537 .LASF3574
C:\Users\SOLDER~1\AppData\Local\Temp\cc0vShlo.s:21467  .debug_str:000000000000d5e9 .LASF3575
C:\Users\SOLDER~1\AppData\Local\Temp\cc0vShlo.s:27559  .debug_str:0000000000026458 .LASF3576
C:\Users\SOLDER~1\AppData\Local\Temp\cc0vShlo.s:29027  .debug_str:000000000002c43e .LASF3577
C:\Users\SOLDER~1\AppData\Local\Temp\cc0vShlo.s:21859  .debug_str:000000000000ef85 .LASF3578
C:\Users\SOLDER~1\AppData\Local\Temp\cc0vShlo.s:26873  .debug_str:0000000000023684 .LASF3579
C:\Users\SOLDER~1\AppData\Local\Temp\cc0vShlo.s:29425  .debug_str:000000000002dde4 .LASF3580
C:\Users\SOLDER~1\AppData\Local\Temp\cc0vShlo.s:19277  .debug_str:000000000000468f .LASF3581
C:\Users\SOLDER~1\AppData\Local\Temp\cc0vShlo.s:23623  .debug_str:0000000000016378 .LASF3582
C:\Users\SOLDER~1\AppData\Local\Temp\cc0vShlo.s:23971  .debug_str:00000000000179a9 .LASF3583
C:\Users\SOLDER~1\AppData\Local\Temp\cc0vShlo.s:25765  .debug_str:000000000001ee6e .LASF3584
C:\Users\SOLDER~1\AppData\Local\Temp\cc0vShlo.s:20129  .debug_str:0000000000007da8 .LASF3585
C:\Users\SOLDER~1\AppData\Local\Temp\cc0vShlo.s:18275  .debug_str:00000000000004d7 .LASF3586
C:\Users\SOLDER~1\AppData\Local\Temp\cc0vShlo.s:26541  .debug_str:0000000000022067 .LASF3587
C:\Users\SOLDER~1\AppData\Local\Temp\cc0vShlo.s:22021  .debug_str:000000000000fa44 .LASF3588
C:\Users\SOLDER~1\AppData\Local\Temp\cc0vShlo.s:27363  .debug_str:00000000000256ce .LASF3589
C:\Users\SOLDER~1\AppData\Local\Temp\cc0vShlo.s:26933  .debug_str:0000000000023a47 .LASF3590
C:\Users\SOLDER~1\AppData\Local\Temp\cc0vShlo.s:29479  .debug_str:000000000002e141 .LASF3591
C:\Users\SOLDER~1\AppData\Local\Temp\cc0vShlo.s:20773  .debug_str:000000000000a850 .LASF3592
C:\Users\SOLDER~1\AppData\Local\Temp\cc0vShlo.s:21787  .debug_str:000000000000eaca .LASF3593
C:\Users\SOLDER~1\AppData\Local\Temp\cc0vShlo.s:22461  .debug_str:000000000001169e .LASF3594
C:\Users\SOLDER~1\AppData\Local\Temp\cc0vShlo.s:19001  .debug_str:00000000000034fc .LASF3595
C:\Users\SOLDER~1\AppData\Local\Temp\cc0vShlo.s:27341  .debug_str:0000000000025528 .LASF3596
C:\Users\SOLDER~1\AppData\Local\Temp\cc0vShlo.s:24947  .debug_str:000000000001b86f .LASF3597
C:\Users\SOLDER~1\AppData\Local\Temp\cc0vShlo.s:28753  .debug_str:000000000002b272 .LASF3598
C:\Users\SOLDER~1\AppData\Local\Temp\cc0vShlo.s:21317  .debug_str:000000000000cc1f .LASF3599
C:\Users\SOLDER~1\AppData\Local\Temp\cc0vShlo.s:18307  .debug_str:0000000000000777 .LASF3600
C:\Users\SOLDER~1\AppData\Local\Temp\cc0vShlo.s:28455  .debug_str:0000000000029f22 .LASF3601
C:\Users\SOLDER~1\AppData\Local\Temp\cc0vShlo.s:24901  .debug_str:000000000001b596 .LASF3602
C:\Users\SOLDER~1\AppData\Local\Temp\cc0vShlo.s:22463  .debug_str:00000000000116bf .LASF3603
C:\Users\SOLDER~1\AppData\Local\Temp\cc0vShlo.s:25851  .debug_str:000000000001f461 .LASF3604
C:\Users\SOLDER~1\AppData\Local\Temp\cc0vShlo.s:27151  .debug_str:00000000000248d0 .LASF3605
C:\Users\SOLDER~1\AppData\Local\Temp\cc0vShlo.s:24771  .debug_str:000000000001ad99 .LASF3606
C:\Users\SOLDER~1\AppData\Local\Temp\cc0vShlo.s:21233  .debug_str:000000000000c670 .LASF3607
C:\Users\SOLDER~1\AppData\Local\Temp\cc0vShlo.s:24917  .debug_str:000000000001b68a .LASF3608
C:\Users\SOLDER~1\AppData\Local\Temp\cc0vShlo.s:29023  .debug_str:000000000002c3f8 .LASF3609
C:\Users\SOLDER~1\AppData\Local\Temp\cc0vShlo.s:22053  .debug_str:000000000000fc9c .LASF3610
C:\Users\SOLDER~1\AppData\Local\Temp\cc0vShlo.s:28351  .debug_str:00000000000297f4 .LASF3611
C:\Users\SOLDER~1\AppData\Local\Temp\cc0vShlo.s:18553  .debug_str:00000000000017d5 .LASF3612
C:\Users\SOLDER~1\AppData\Local\Temp\cc0vShlo.s:20321  .debug_str:0000000000008a28 .LASF3613
C:\Users\SOLDER~1\AppData\Local\Temp\cc0vShlo.s:26963  .debug_str:0000000000023c53 .LASF3614
C:\Users\SOLDER~1\AppData\Local\Temp\cc0vShlo.s:26341  .debug_str:00000000000213ff .LASF3615
C:\Users\SOLDER~1\AppData\Local\Temp\cc0vShlo.s:26865  .debug_str:0000000000023617 .LASF3616
C:\Users\SOLDER~1\AppData\Local\Temp\cc0vShlo.s:28123  .debug_str:0000000000028975 .LASF3617
C:\Users\SOLDER~1\AppData\Local\Temp\cc0vShlo.s:27187  .debug_str:0000000000024b34 .LASF3618
C:\Users\SOLDER~1\AppData\Local\Temp\cc0vShlo.s:21421  .debug_str:000000000000d2fb .LASF3619
C:\Users\SOLDER~1\AppData\Local\Temp\cc0vShlo.s:23813  .debug_str:0000000000016f43 .LASF3620
C:\Users\SOLDER~1\AppData\Local\Temp\cc0vShlo.s:28231  .debug_str:000000000002904f .LASF3621
C:\Users\SOLDER~1\AppData\Local\Temp\cc0vShlo.s:24943  .debug_str:000000000001b835 .LASF3622
C:\Users\SOLDER~1\AppData\Local\Temp\cc0vShlo.s:24837  .debug_str:000000000001b189 .LASF3623
GAS LISTING C:\Users\SOLDER~1\AppData\Local\Temp\cc0vShlo.s 			page 74


C:\Users\SOLDER~1\AppData\Local\Temp\cc0vShlo.s:19157  .debug_str:0000000000003ef0 .LASF3624
C:\Users\SOLDER~1\AppData\Local\Temp\cc0vShlo.s:26979  .debug_str:0000000000023d69 .LASF3625
C:\Users\SOLDER~1\AppData\Local\Temp\cc0vShlo.s:26349  .debug_str:0000000000021485 .LASF3626
C:\Users\SOLDER~1\AppData\Local\Temp\cc0vShlo.s:28697  .debug_str:000000000002aef0 .LASF3627
C:\Users\SOLDER~1\AppData\Local\Temp\cc0vShlo.s:24727  .debug_str:000000000001aa7a .LASF3628
C:\Users\SOLDER~1\AppData\Local\Temp\cc0vShlo.s:28007  .debug_str:00000000000281e5 .LASF3629
C:\Users\SOLDER~1\AppData\Local\Temp\cc0vShlo.s:22731  .debug_str:00000000000127d9 .LASF3630
C:\Users\SOLDER~1\AppData\Local\Temp\cc0vShlo.s:28311  .debug_str:00000000000295a0 .LASF3631
C:\Users\SOLDER~1\AppData\Local\Temp\cc0vShlo.s:26399  .debug_str:00000000000217b1 .LASF3632
C:\Users\SOLDER~1\AppData\Local\Temp\cc0vShlo.s:23835  .debug_str:00000000000170c1 .LASF3633
C:\Users\SOLDER~1\AppData\Local\Temp\cc0vShlo.s:26627  .debug_str:0000000000022625 .LASF3634
C:\Users\SOLDER~1\AppData\Local\Temp\cc0vShlo.s:23969  .debug_str:0000000000017989 .LASF3635
C:\Users\SOLDER~1\AppData\Local\Temp\cc0vShlo.s:26679  .debug_str:00000000000229bb .LASF3636
C:\Users\SOLDER~1\AppData\Local\Temp\cc0vShlo.s:21975  .debug_str:000000000000f6f2 .LASF3637
C:\Users\SOLDER~1\AppData\Local\Temp\cc0vShlo.s:26013  .debug_str:000000000001fea3 .LASF3638
C:\Users\SOLDER~1\AppData\Local\Temp\cc0vShlo.s:22477  .debug_str:00000000000117c3 .LASF3639
C:\Users\SOLDER~1\AppData\Local\Temp\cc0vShlo.s:28339  .debug_str:000000000002973f .LASF3640
C:\Users\SOLDER~1\AppData\Local\Temp\cc0vShlo.s:26695  .debug_str:0000000000022ae2 .LASF3641
C:\Users\SOLDER~1\AppData\Local\Temp\cc0vShlo.s:21525  .debug_str:000000000000d99a .LASF3642
C:\Users\SOLDER~1\AppData\Local\Temp\cc0vShlo.s:28371  .debug_str:000000000002994d .LASF3643
C:\Users\SOLDER~1\AppData\Local\Temp\cc0vShlo.s:27203  .debug_str:0000000000024c48 .LASF3644
C:\Users\SOLDER~1\AppData\Local\Temp\cc0vShlo.s:28543  .debug_str:000000000002a4fa .LASF3645
C:\Users\SOLDER~1\AppData\Local\Temp\cc0vShlo.s:29031  .debug_str:000000000002c48b .LASF3646
C:\Users\SOLDER~1\AppData\Local\Temp\cc0vShlo.s:19811  .debug_str:0000000000006933 .LASF3647
C:\Users\SOLDER~1\AppData\Local\Temp\cc0vShlo.s:18255  .debug_str:0000000000000384 .LASF3648
C:\Users\SOLDER~1\AppData\Local\Temp\cc0vShlo.s:24977  .debug_str:000000000001ba64 .LASF3649
C:\Users\SOLDER~1\AppData\Local\Temp\cc0vShlo.s:20487  .debug_str:0000000000009588 .LASF3650
C:\Users\SOLDER~1\AppData\Local\Temp\cc0vShlo.s:23505  .debug_str:0000000000015bdc .LASF3651
C:\Users\SOLDER~1\AppData\Local\Temp\cc0vShlo.s:18381  .debug_str:0000000000000cb7 .LASF3652
C:\Users\SOLDER~1\AppData\Local\Temp\cc0vShlo.s:29191  .debug_str:000000000002cf1b .LASF3653
C:\Users\SOLDER~1\AppData\Local\Temp\cc0vShlo.s:24355  .debug_str:00000000000192ed .LASF3654
C:\Users\SOLDER~1\AppData\Local\Temp\cc0vShlo.s:23929  .debug_str:00000000000176f1 .LASF3655
C:\Users\SOLDER~1\AppData\Local\Temp\cc0vShlo.s:27759  .debug_str:00000000000271ad .LASF3656
C:\Users\SOLDER~1\AppData\Local\Temp\cc0vShlo.s:20543  .debug_str:000000000000991e .LASF3657
C:\Users\SOLDER~1\AppData\Local\Temp\cc0vShlo.s:26957  .debug_str:0000000000023be8 .LASF3658
C:\Users\SOLDER~1\AppData\Local\Temp\cc0vShlo.s:29081  .debug_str:000000000002c7b4 .LASF3659
C:\Users\SOLDER~1\AppData\Local\Temp\cc0vShlo.s:19719  .debug_str:00000000000062e1 .LASF3660
C:\Users\SOLDER~1\AppData\Local\Temp\cc0vShlo.s:18361  .debug_str:0000000000000b6a .LASF3661
C:\Users\SOLDER~1\AppData\Local\Temp\cc0vShlo.s:19663  .debug_str:0000000000005ee7 .LASF3662
C:\Users\SOLDER~1\AppData\Local\Temp\cc0vShlo.s:28273  .debug_str:000000000002933e .LASF3663
C:\Users\SOLDER~1\AppData\Local\Temp\cc0vShlo.s:19365  .debug_str:0000000000004c38 .LASF3664
C:\Users\SOLDER~1\AppData\Local\Temp\cc0vShlo.s:18913  .debug_str:0000000000002f39 .LASF3665
C:\Users\SOLDER~1\AppData\Local\Temp\cc0vShlo.s:27621  .debug_str:000000000002688e .LASF3666
C:\Users\SOLDER~1\AppData\Local\Temp\cc0vShlo.s:22911  .debug_str:00000000000133d6 .LASF3667
C:\Users\SOLDER~1\AppData\Local\Temp\cc0vShlo.s:24115  .debug_str:000000000001831b .LASF3668
C:\Users\SOLDER~1\AppData\Local\Temp\cc0vShlo.s:21749  .debug_str:000000000000e8b1 .LASF3669
C:\Users\SOLDER~1\AppData\Local\Temp\cc0vShlo.s:22011  .debug_str:000000000000f98e .LASF3670
C:\Users\SOLDER~1\AppData\Local\Temp\cc0vShlo.s:26533  .debug_str:0000000000022005 .LASF3671
C:\Users\SOLDER~1\AppData\Local\Temp\cc0vShlo.s:27601  .debug_str:000000000002671e .LASF3672
C:\Users\SOLDER~1\AppData\Local\Temp\cc0vShlo.s:24571  .debug_str:000000000001a05b .LASF3673
C:\Users\SOLDER~1\AppData\Local\Temp\cc0vShlo.s:24591  .debug_str:000000000001a197 .LASF3674
C:\Users\SOLDER~1\AppData\Local\Temp\cc0vShlo.s:20661  .debug_str:000000000000a0d6 .LASF3675
C:\Users\SOLDER~1\AppData\Local\Temp\cc0vShlo.s:22367  .debug_str:00000000000110a1 .LASF3676
C:\Users\SOLDER~1\AppData\Local\Temp\cc0vShlo.s:26651  .debug_str:00000000000227d5 .LASF3677
C:\Users\SOLDER~1\AppData\Local\Temp\cc0vShlo.s:24605  .debug_str:000000000001a2a2 .LASF3678
C:\Users\SOLDER~1\AppData\Local\Temp\cc0vShlo.s:26883  .debug_str:0000000000023736 .LASF3679
C:\Users\SOLDER~1\AppData\Local\Temp\cc0vShlo.s:28225  .debug_str:0000000000028fe6 .LASF3680
GAS LISTING C:\Users\SOLDER~1\AppData\Local\Temp\cc0vShlo.s 			page 75


C:\Users\SOLDER~1\AppData\Local\Temp\cc0vShlo.s:29015  .debug_str:000000000002c387 .LASF3681
C:\Users\SOLDER~1\AppData\Local\Temp\cc0vShlo.s:23727  .debug_str:00000000000169f7 .LASF3682
C:\Users\SOLDER~1\AppData\Local\Temp\cc0vShlo.s:28699  .debug_str:000000000002af11 .LASF3683
C:\Users\SOLDER~1\AppData\Local\Temp\cc0vShlo.s:22491  .debug_str:00000000000118b3 .LASF3684
C:\Users\SOLDER~1\AppData\Local\Temp\cc0vShlo.s:26323  .debug_str:00000000000212c1 .LASF3685
C:\Users\SOLDER~1\AppData\Local\Temp\cc0vShlo.s:22297  .debug_str:0000000000010c0d .LASF3686
C:\Users\SOLDER~1\AppData\Local\Temp\cc0vShlo.s:29579  .debug_str:000000000002e7fc .LASF3687
C:\Users\SOLDER~1\AppData\Local\Temp\cc0vShlo.s:26339  .debug_str:00000000000213d8 .LASF3688
C:\Users\SOLDER~1\AppData\Local\Temp\cc0vShlo.s:20329  .debug_str:0000000000008aab .LASF3689
C:\Users\SOLDER~1\AppData\Local\Temp\cc0vShlo.s:26329  .debug_str:0000000000021333 .LASF3690
C:\Users\SOLDER~1\AppData\Local\Temp\cc0vShlo.s:23321  .debug_str:0000000000014fe8 .LASF3691
C:\Users\SOLDER~1\AppData\Local\Temp\cc0vShlo.s:19595  .debug_str:0000000000005aa7 .LASF3692
C:\Users\SOLDER~1\AppData\Local\Temp\cc0vShlo.s:21211  .debug_str:000000000000c51e .LASF3693
C:\Users\SOLDER~1\AppData\Local\Temp\cc0vShlo.s:28165  .debug_str:0000000000028c23 .LASF3694
C:\Users\SOLDER~1\AppData\Local\Temp\cc0vShlo.s:23233  .debug_str:0000000000014a26 .LASF3695
C:\Users\SOLDER~1\AppData\Local\Temp\cc0vShlo.s:20521  .debug_str:000000000000979d .LASF3696
C:\Users\SOLDER~1\AppData\Local\Temp\cc0vShlo.s:21095  .debug_str:000000000000bd2c .LASF3697
C:\Users\SOLDER~1\AppData\Local\Temp\cc0vShlo.s:24625  .debug_str:000000000001a3c0 .LASF3698
C:\Users\SOLDER~1\AppData\Local\Temp\cc0vShlo.s:21993  .debug_str:000000000000f86a .LASF3699
C:\Users\SOLDER~1\AppData\Local\Temp\cc0vShlo.s:25531  .debug_str:000000000001df22 .LASF3700
C:\Users\SOLDER~1\AppData\Local\Temp\cc0vShlo.s:18667  .debug_str:0000000000001f33 .LASF3701
C:\Users\SOLDER~1\AppData\Local\Temp\cc0vShlo.s:22237  .debug_str:000000000001084e .LASF3702
C:\Users\SOLDER~1\AppData\Local\Temp\cc0vShlo.s:21697  .debug_str:000000000000e50b .LASF3703
C:\Users\SOLDER~1\AppData\Local\Temp\cc0vShlo.s:19009  .debug_str:0000000000003572 .LASF3704
C:\Users\SOLDER~1\AppData\Local\Temp\cc0vShlo.s:27755  .debug_str:0000000000027160 .LASF3705
C:\Users\SOLDER~1\AppData\Local\Temp\cc0vShlo.s:27097  .debug_str:0000000000024543 .LASF3706
C:\Users\SOLDER~1\AppData\Local\Temp\cc0vShlo.s:21373  .debug_str:000000000000cfe7 .LASF3707
C:\Users\SOLDER~1\AppData\Local\Temp\cc0vShlo.s:18745  .debug_str:000000000000245b .LASF3708
C:\Users\SOLDER~1\AppData\Local\Temp\cc0vShlo.s:27337  .debug_str:00000000000254df .LASF3709
C:\Users\SOLDER~1\AppData\Local\Temp\cc0vShlo.s:18939  .debug_str:00000000000030d5 .LASF3710
C:\Users\SOLDER~1\AppData\Local\Temp\cc0vShlo.s:18681  .debug_str:000000000000200e .LASF3711
C:\Users\SOLDER~1\AppData\Local\Temp\cc0vShlo.s:27421  .debug_str:0000000000025acf .LASF3712
C:\Users\SOLDER~1\AppData\Local\Temp\cc0vShlo.s:27801  .debug_str:0000000000027465 .LASF3713
C:\Users\SOLDER~1\AppData\Local\Temp\cc0vShlo.s:28269  .debug_str:00000000000292f0 .LASF3714
C:\Users\SOLDER~1\AppData\Local\Temp\cc0vShlo.s:19341  .debug_str:0000000000004a8f .LASF3715
C:\Users\SOLDER~1\AppData\Local\Temp\cc0vShlo.s:28283  .debug_str:00000000000293f3 .LASF3716
C:\Users\SOLDER~1\AppData\Local\Temp\cc0vShlo.s:24369  .debug_str:00000000000193ec .LASF3717
C:\Users\SOLDER~1\AppData\Local\Temp\cc0vShlo.s:21127  .debug_str:000000000000bf26 .LASF3718
C:\Users\SOLDER~1\AppData\Local\Temp\cc0vShlo.s:27685  .debug_str:0000000000026ccc .LASF3719
C:\Users\SOLDER~1\AppData\Local\Temp\cc0vShlo.s:21433  .debug_str:000000000000d3d4 .LASF3720
C:\Users\SOLDER~1\AppData\Local\Temp\cc0vShlo.s:29471  .debug_str:000000000002e0cb .LASF3721
C:\Users\SOLDER~1\AppData\Local\Temp\cc0vShlo.s:28729  .debug_str:000000000002b0fc .LASF3722
C:\Users\SOLDER~1\AppData\Local\Temp\cc0vShlo.s:27169  .debug_str:0000000000024a0b .LASF3723
C:\Users\SOLDER~1\AppData\Local\Temp\cc0vShlo.s:29199  .debug_str:000000000002cf9e .LASF3724
C:\Users\SOLDER~1\AppData\Local\Temp\cc0vShlo.s:19577  .debug_str:0000000000005970 .LASF3725
C:\Users\SOLDER~1\AppData\Local\Temp\cc0vShlo.s:23149  .debug_str:0000000000014486 .LASF3726
C:\Users\SOLDER~1\AppData\Local\Temp\cc0vShlo.s:28467  .debug_str:0000000000029fed .LASF3727
C:\Users\SOLDER~1\AppData\Local\Temp\cc0vShlo.s:25071  .debug_str:000000000001c0df .LASF3728
C:\Users\SOLDER~1\AppData\Local\Temp\cc0vShlo.s:23439  .debug_str:00000000000157b7 .LASF3729
C:\Users\SOLDER~1\AppData\Local\Temp\cc0vShlo.s:24235  .debug_str:0000000000018ae2 .LASF3730
C:\Users\SOLDER~1\AppData\Local\Temp\cc0vShlo.s:20099  .debug_str:0000000000007bae .LASF3731
C:\Users\SOLDER~1\AppData\Local\Temp\cc0vShlo.s:24749  .debug_str:000000000001ac1c .LASF3732
C:\Users\SOLDER~1\AppData\Local\Temp\cc0vShlo.s:21097  .debug_str:000000000000bd51 .LASF3733
C:\Users\SOLDER~1\AppData\Local\Temp\cc0vShlo.s:24525  .debug_str:0000000000019d75 .LASF3734
C:\Users\SOLDER~1\AppData\Local\Temp\cc0vShlo.s:21025  .debug_str:000000000000b89b .LASF3735
C:\Users\SOLDER~1\AppData\Local\Temp\cc0vShlo.s:19583  .debug_str:00000000000059cf .LASF3736
C:\Users\SOLDER~1\AppData\Local\Temp\cc0vShlo.s:22061  .debug_str:000000000000fd23 .LASF3737
GAS LISTING C:\Users\SOLDER~1\AppData\Local\Temp\cc0vShlo.s 			page 76


C:\Users\SOLDER~1\AppData\Local\Temp\cc0vShlo.s:19885  .debug_str:0000000000006de3 .LASF3738
C:\Users\SOLDER~1\AppData\Local\Temp\cc0vShlo.s:18995  .debug_str:00000000000034a3 .LASF3739
C:\Users\SOLDER~1\AppData\Local\Temp\cc0vShlo.s:25831  .debug_str:000000000001f2f9 .LASF3740
C:\Users\SOLDER~1\AppData\Local\Temp\cc0vShlo.s:25923  .debug_str:000000000001f8fa .LASF3741
C:\Users\SOLDER~1\AppData\Local\Temp\cc0vShlo.s:21529  .debug_str:000000000000d9d4 .LASF3742
C:\Users\SOLDER~1\AppData\Local\Temp\cc0vShlo.s:29421  .debug_str:000000000002dda9 .LASF3743
C:\Users\SOLDER~1\AppData\Local\Temp\cc0vShlo.s:19575  .debug_str:000000000000594c .LASF3744
C:\Users\SOLDER~1\AppData\Local\Temp\cc0vShlo.s:28403  .debug_str:0000000000029ba9 .LASF3745
C:\Users\SOLDER~1\AppData\Local\Temp\cc0vShlo.s:21575  .debug_str:000000000000dcde .LASF3746
C:\Users\SOLDER~1\AppData\Local\Temp\cc0vShlo.s:26657  .debug_str:0000000000022834 .LASF3747
C:\Users\SOLDER~1\AppData\Local\Temp\cc0vShlo.s:22857  .debug_str:0000000000013018 .LASF3748
C:\Users\SOLDER~1\AppData\Local\Temp\cc0vShlo.s:21337  .debug_str:000000000000cd79 .LASF3749
C:\Users\SOLDER~1\AppData\Local\Temp\cc0vShlo.s:28555  .debug_str:000000000002a59d .LASF3750
C:\Users\SOLDER~1\AppData\Local\Temp\cc0vShlo.s:24925  .debug_str:000000000001b6f4 .LASF3751
C:\Users\SOLDER~1\AppData\Local\Temp\cc0vShlo.s:22081  .debug_str:000000000000fe78 .LASF3752
C:\Users\SOLDER~1\AppData\Local\Temp\cc0vShlo.s:25515  .debug_str:000000000001de34 .LASF3753
C:\Users\SOLDER~1\AppData\Local\Temp\cc0vShlo.s:22045  .debug_str:000000000000fc0c .LASF3754
C:\Users\SOLDER~1\AppData\Local\Temp\cc0vShlo.s:24535  .debug_str:0000000000019e27 .LASF3755
C:\Users\SOLDER~1\AppData\Local\Temp\cc0vShlo.s:24769  .debug_str:000000000001ad76 .LASF3756
C:\Users\SOLDER~1\AppData\Local\Temp\cc0vShlo.s:22631  .debug_str:000000000001217f .LASF3757
C:\Users\SOLDER~1\AppData\Local\Temp\cc0vShlo.s:24119  .debug_str:0000000000018369 .LASF3758
C:\Users\SOLDER~1\AppData\Local\Temp\cc0vShlo.s:18769  .debug_str:00000000000025d9 .LASF3759
C:\Users\SOLDER~1\AppData\Local\Temp\cc0vShlo.s:19483  .debug_str:000000000000533f .LASF3760
C:\Users\SOLDER~1\AppData\Local\Temp\cc0vShlo.s:28999  .debug_str:000000000002c281 .LASF3761
C:\Users\SOLDER~1\AppData\Local\Temp\cc0vShlo.s:29223  .debug_str:000000000002d123 .LASF3762
C:\Users\SOLDER~1\AppData\Local\Temp\cc0vShlo.s:18475  .debug_str:00000000000012b9 .LASF3763
C:\Users\SOLDER~1\AppData\Local\Temp\cc0vShlo.s:24177  .debug_str:0000000000018703 .LASF3764
C:\Users\SOLDER~1\AppData\Local\Temp\cc0vShlo.s:22345  .debug_str:0000000000010f39 .LASF3765
C:\Users\SOLDER~1\AppData\Local\Temp\cc0vShlo.s:27099  .debug_str:0000000000024567 .LASF3766
C:\Users\SOLDER~1\AppData\Local\Temp\cc0vShlo.s:20897  .debug_str:000000000000b062 .LASF3767
C:\Users\SOLDER~1\AppData\Local\Temp\cc0vShlo.s:26397  .debug_str:000000000002178e .LASF3768
C:\Users\SOLDER~1\AppData\Local\Temp\cc0vShlo.s:18749  .debug_str:00000000000024ad .LASF3769
C:\Users\SOLDER~1\AppData\Local\Temp\cc0vShlo.s:27873  .debug_str:00000000000278ec .LASF3770
C:\Users\SOLDER~1\AppData\Local\Temp\cc0vShlo.s:18425  .debug_str:0000000000000fa3 .LASF3771
C:\Users\SOLDER~1\AppData\Local\Temp\cc0vShlo.s:26959  .debug_str:0000000000023c0f .LASF3772
C:\Users\SOLDER~1\AppData\Local\Temp\cc0vShlo.s:22975  .debug_str:0000000000013854 .LASF3773
C:\Users\SOLDER~1\AppData\Local\Temp\cc0vShlo.s:28279  .debug_str:00000000000293a3 .LASF3774
C:\Users\SOLDER~1\AppData\Local\Temp\cc0vShlo.s:25739  .debug_str:000000000001ecb3 .LASF3775
C:\Users\SOLDER~1\AppData\Local\Temp\cc0vShlo.s:21413  .debug_str:000000000000d26f .LASF3776
C:\Users\SOLDER~1\AppData\Local\Temp\cc0vShlo.s:19999  .debug_str:0000000000007566 .LASF3777
C:\Users\SOLDER~1\AppData\Local\Temp\cc0vShlo.s:27587  .debug_str:0000000000026654 .LASF3778
C:\Users\SOLDER~1\AppData\Local\Temp\cc0vShlo.s:25917  .debug_str:000000000001f8a0 .LASF3779
C:\Users\SOLDER~1\AppData\Local\Temp\cc0vShlo.s:26173  .debug_str:0000000000020911 .LASF3780
C:\Users\SOLDER~1\AppData\Local\Temp\cc0vShlo.s:27069  .debug_str:000000000002435e .LASF3781
C:\Users\SOLDER~1\AppData\Local\Temp\cc0vShlo.s:19183  .debug_str:000000000000409c .LASF3782
C:\Users\SOLDER~1\AppData\Local\Temp\cc0vShlo.s:23253  .debug_str:0000000000014ba8 .LASF3783
C:\Users\SOLDER~1\AppData\Local\Temp\cc0vShlo.s:21861  .debug_str:000000000000ef9e .LASF3784
C:\Users\SOLDER~1\AppData\Local\Temp\cc0vShlo.s:19853  .debug_str:0000000000006bc1 .LASF3785
C:\Users\SOLDER~1\AppData\Local\Temp\cc0vShlo.s:24053  .debug_str:0000000000017f36 .LASF3786
C:\Users\SOLDER~1\AppData\Local\Temp\cc0vShlo.s:29203  .debug_str:000000000002cfe7 .LASF3787
C:\Users\SOLDER~1\AppData\Local\Temp\cc0vShlo.s:27073  .debug_str:000000000002439b .LASF3788
C:\Users\SOLDER~1\AppData\Local\Temp\cc0vShlo.s:19635  .debug_str:0000000000005d37 .LASF3789
C:\Users\SOLDER~1\AppData\Local\Temp\cc0vShlo.s:20767  .debug_str:000000000000a804 .LASF3790
C:\Users\SOLDER~1\AppData\Local\Temp\cc0vShlo.s:28107  .debug_str:0000000000028883 .LASF3791
C:\Users\SOLDER~1\AppData\Local\Temp\cc0vShlo.s:27709  .debug_str:0000000000026e4c .LASF3792
C:\Users\SOLDER~1\AppData\Local\Temp\cc0vShlo.s:25345  .debug_str:000000000001d37e .LASF3793
C:\Users\SOLDER~1\AppData\Local\Temp\cc0vShlo.s:29105  .debug_str:000000000002c922 .LASF3794
GAS LISTING C:\Users\SOLDER~1\AppData\Local\Temp\cc0vShlo.s 			page 77


C:\Users\SOLDER~1\AppData\Local\Temp\cc0vShlo.s:22177  .debug_str:0000000000010484 .LASF3795
C:\Users\SOLDER~1\AppData\Local\Temp\cc0vShlo.s:20651  .debug_str:000000000000a016 .LASF3796
C:\Users\SOLDER~1\AppData\Local\Temp\cc0vShlo.s:22083  .debug_str:000000000000fe9c .LASF3797
C:\Users\SOLDER~1\AppData\Local\Temp\cc0vShlo.s:27897  .debug_str:0000000000027a89 .LASF3798
C:\Users\SOLDER~1\AppData\Local\Temp\cc0vShlo.s:28501  .debug_str:000000000002a23e .LASF3799
C:\Users\SOLDER~1\AppData\Local\Temp\cc0vShlo.s:24993  .debug_str:000000000001bb79 .LASF3800
C:\Users\SOLDER~1\AppData\Local\Temp\cc0vShlo.s:26217  .debug_str:0000000000020bd0 .LASF3801
C:\Users\SOLDER~1\AppData\Local\Temp\cc0vShlo.s:23921  .debug_str:0000000000017689 .LASF3802
C:\Users\SOLDER~1\AppData\Local\Temp\cc0vShlo.s:28217  .debug_str:0000000000028f74 .LASF3803
C:\Users\SOLDER~1\AppData\Local\Temp\cc0vShlo.s:25979  .debug_str:000000000001fc68 .LASF3804
C:\Users\SOLDER~1\AppData\Local\Temp\cc0vShlo.s:25109  .debug_str:000000000001c364 .LASF3805
C:\Users\SOLDER~1\AppData\Local\Temp\cc0vShlo.s:18281  .debug_str:0000000000000532 .LASF3806
C:\Users\SOLDER~1\AppData\Local\Temp\cc0vShlo.s:28845  .debug_str:000000000002b84c .LASF3807
C:\Users\SOLDER~1\AppData\Local\Temp\cc0vShlo.s:18345  .debug_str:0000000000000a45 .LASF3808
C:\Users\SOLDER~1\AppData\Local\Temp\cc0vShlo.s:23379  .debug_str:00000000000153c2 .LASF3809
C:\Users\SOLDER~1\AppData\Local\Temp\cc0vShlo.s:23691  .debug_str:000000000001678c .LASF3810
C:\Users\SOLDER~1\AppData\Local\Temp\cc0vShlo.s:25941  .debug_str:000000000001fa22 .LASF3811
C:\Users\SOLDER~1\AppData\Local\Temp\cc0vShlo.s:23501  .debug_str:0000000000015b9b .LASF3812
C:\Users\SOLDER~1\AppData\Local\Temp\cc0vShlo.s:20255  .debug_str:00000000000085ed .LASF3813
C:\Users\SOLDER~1\AppData\Local\Temp\cc0vShlo.s:19211  .debug_str:0000000000004260 .LASF3814
C:\Users\SOLDER~1\AppData\Local\Temp\cc0vShlo.s:20441  .debug_str:000000000000924d .LASF3815
C:\Users\SOLDER~1\AppData\Local\Temp\cc0vShlo.s:23479  .debug_str:0000000000015a45 .LASF3816
C:\Users\SOLDER~1\AppData\Local\Temp\cc0vShlo.s:19941  .debug_str:00000000000071b9 .LASF3817
C:\Users\SOLDER~1\AppData\Local\Temp\cc0vShlo.s:21469  .debug_str:000000000000d611 .LASF3818
C:\Users\SOLDER~1\AppData\Local\Temp\cc0vShlo.s:19389  .debug_str:0000000000004da3 .LASF3819
C:\Users\SOLDER~1\AppData\Local\Temp\cc0vShlo.s:27139  .debug_str:00000000000247f8 .LASF3820
C:\Users\SOLDER~1\AppData\Local\Temp\cc0vShlo.s:22715  .debug_str:00000000000126cc .LASF3821
C:\Users\SOLDER~1\AppData\Local\Temp\cc0vShlo.s:22057  .debug_str:000000000000fcdc .LASF3822
C:\Users\SOLDER~1\AppData\Local\Temp\cc0vShlo.s:25247  .debug_str:000000000001ccd4 .LASF3823
C:\Users\SOLDER~1\AppData\Local\Temp\cc0vShlo.s:28439  .debug_str:0000000000029df8 .LASF3824
C:\Users\SOLDER~1\AppData\Local\Temp\cc0vShlo.s:20411  .debug_str:0000000000009045 .LASF3825
C:\Users\SOLDER~1\AppData\Local\Temp\cc0vShlo.s:26401  .debug_str:00000000000217c1 .LASF3826
C:\Users\SOLDER~1\AppData\Local\Temp\cc0vShlo.s:20635  .debug_str:0000000000009f1d .LASF3827
C:\Users\SOLDER~1\AppData\Local\Temp\cc0vShlo.s:20045  .debug_str:0000000000007806 .LASF3828
C:\Users\SOLDER~1\AppData\Local\Temp\cc0vShlo.s:21237  .debug_str:000000000000c6b5 .LASF3829
C:\Users\SOLDER~1\AppData\Local\Temp\cc0vShlo.s:21225  .debug_str:000000000000c5f9 .LASF3830
C:\Users\SOLDER~1\AppData\Local\Temp\cc0vShlo.s:18901  .debug_str:0000000000002e43 .LASF3831
C:\Users\SOLDER~1\AppData\Local\Temp\cc0vShlo.s:21031  .debug_str:000000000000b8f9 .LASF3832
C:\Users\SOLDER~1\AppData\Local\Temp\cc0vShlo.s:26887  .debug_str:000000000002377a .LASF3833
C:\Users\SOLDER~1\AppData\Local\Temp\cc0vShlo.s:18415  .debug_str:0000000000000eee .LASF3834
C:\Users\SOLDER~1\AppData\Local\Temp\cc0vShlo.s:21561  .debug_str:000000000000dbf9 .LASF3835
C:\Users\SOLDER~1\AppData\Local\Temp\cc0vShlo.s:28715  .debug_str:000000000002b033 .LASF3836
C:\Users\SOLDER~1\AppData\Local\Temp\cc0vShlo.s:26803  .debug_str:00000000000231f3 .LASF3837
C:\Users\SOLDER~1\AppData\Local\Temp\cc0vShlo.s:19273  .debug_str:0000000000004652 .LASF3838
C:\Users\SOLDER~1\AppData\Local\Temp\cc0vShlo.s:27065  .debug_str:0000000000024317 .LASF3839
C:\Users\SOLDER~1\AppData\Local\Temp\cc0vShlo.s:26597  .debug_str:0000000000022423 .LASF3840
C:\Users\SOLDER~1\AppData\Local\Temp\cc0vShlo.s:19229  .debug_str:000000000000437e .LASF3841
C:\Users\SOLDER~1\AppData\Local\Temp\cc0vShlo.s:21293  .debug_str:000000000000ca75 .LASF3842
C:\Users\SOLDER~1\AppData\Local\Temp\cc0vShlo.s:28285  .debug_str:0000000000029418 .LASF3843
C:\Users\SOLDER~1\AppData\Local\Temp\cc0vShlo.s:20747  .debug_str:000000000000a6bc .LASF3844
C:\Users\SOLDER~1\AppData\Local\Temp\cc0vShlo.s:26633  .debug_str:0000000000022687 .LASF3845
C:\Users\SOLDER~1\AppData\Local\Temp\cc0vShlo.s:25237  .debug_str:000000000001cc47 .LASF3846
C:\Users\SOLDER~1\AppData\Local\Temp\cc0vShlo.s:26943  .debug_str:0000000000023afd .LASF3847
C:\Users\SOLDER~1\AppData\Local\Temp\cc0vShlo.s:22263  .debug_str:0000000000010a04 .LASF3848
C:\Users\SOLDER~1\AppData\Local\Temp\cc0vShlo.s:23633  .debug_str:000000000001643a .LASF3849
C:\Users\SOLDER~1\AppData\Local\Temp\cc0vShlo.s:19651  .debug_str:0000000000005e27 .LASF3850
C:\Users\SOLDER~1\AppData\Local\Temp\cc0vShlo.s:21135  .debug_str:000000000000bfc8 .LASF3851
GAS LISTING C:\Users\SOLDER~1\AppData\Local\Temp\cc0vShlo.s 			page 78


C:\Users\SOLDER~1\AppData\Local\Temp\cc0vShlo.s:20893  .debug_str:000000000000b02d .LASF3852
C:\Users\SOLDER~1\AppData\Local\Temp\cc0vShlo.s:20923  .debug_str:000000000000b1ed .LASF3853
C:\Users\SOLDER~1\AppData\Local\Temp\cc0vShlo.s:18911  .debug_str:0000000000002f23 .LASF3854
C:\Users\SOLDER~1\AppData\Local\Temp\cc0vShlo.s:24361  .debug_str:000000000001935c .LASF3855
C:\Users\SOLDER~1\AppData\Local\Temp\cc0vShlo.s:21557  .debug_str:000000000000dbbe .LASF3856
C:\Users\SOLDER~1\AppData\Local\Temp\cc0vShlo.s:29179  .debug_str:000000000002ce31 .LASF3857
C:\Users\SOLDER~1\AppData\Local\Temp\cc0vShlo.s:28879  .debug_str:000000000002ba82 .LASF3858
C:\Users\SOLDER~1\AppData\Local\Temp\cc0vShlo.s:27307  .debug_str:00000000000252e2 .LASF3859
C:\Users\SOLDER~1\AppData\Local\Temp\cc0vShlo.s:25583  .debug_str:000000000001e268 .LASF3860
C:\Users\SOLDER~1\AppData\Local\Temp\cc0vShlo.s:18375  .debug_str:0000000000000c4b .LASF3861
C:\Users\SOLDER~1\AppData\Local\Temp\cc0vShlo.s:28343  .debug_str:0000000000029791 .LASF3862
C:\Users\SOLDER~1\AppData\Local\Temp\cc0vShlo.s:19071  .debug_str:0000000000003971 .LASF3863
C:\Users\SOLDER~1\AppData\Local\Temp\cc0vShlo.s:29247  .debug_str:000000000002d298 .LASF3864
C:\Users\SOLDER~1\AppData\Local\Temp\cc0vShlo.s:21715  .debug_str:000000000000e643 .LASF3865
C:\Users\SOLDER~1\AppData\Local\Temp\cc0vShlo.s:20891  .debug_str:000000000000b00d .LASF3866
C:\Users\SOLDER~1\AppData\Local\Temp\cc0vShlo.s:22055  .debug_str:000000000000fcbc .LASF3867
C:\Users\SOLDER~1\AppData\Local\Temp\cc0vShlo.s:24109  .debug_str:00000000000182c8 .LASF3868
C:\Users\SOLDER~1\AppData\Local\Temp\cc0vShlo.s:25131  .debug_str:000000000001c4fd .LASF3869
C:\Users\SOLDER~1\AppData\Local\Temp\cc0vShlo.s:21707  .debug_str:000000000000e5b7 .LASF3870
C:\Users\SOLDER~1\AppData\Local\Temp\cc0vShlo.s:20911  .debug_str:000000000000b122 .LASF3871
C:\Users\SOLDER~1\AppData\Local\Temp\cc0vShlo.s:29347  .debug_str:000000000002d8ef .LASF3872
C:\Users\SOLDER~1\AppData\Local\Temp\cc0vShlo.s:24207  .debug_str:00000000000188f5 .LASF3873
C:\Users\SOLDER~1\AppData\Local\Temp\cc0vShlo.s:19163  .debug_str:0000000000003f46 .LASF3874
C:\Users\SOLDER~1\AppData\Local\Temp\cc0vShlo.s:28175  .debug_str:0000000000028cbb .LASF3875
C:\Users\SOLDER~1\AppData\Local\Temp\cc0vShlo.s:20091  .debug_str:0000000000007b20 .LASF3876
C:\Users\SOLDER~1\AppData\Local\Temp\cc0vShlo.s:19161  .debug_str:0000000000003f22 .LASF3877
C:\Users\SOLDER~1\AppData\Local\Temp\cc0vShlo.s:24329  .debug_str:000000000001911b .LASF3878
C:\Users\SOLDER~1\AppData\Local\Temp\cc0vShlo.s:21147  .debug_str:000000000000c09a .LASF3879
C:\Users\SOLDER~1\AppData\Local\Temp\cc0vShlo.s:21227  .debug_str:000000000000c61b .LASF3880
C:\Users\SOLDER~1\AppData\Local\Temp\cc0vShlo.s:27147  .debug_str:0000000000024872 .LASF3881
C:\Users\SOLDER~1\AppData\Local\Temp\cc0vShlo.s:21965  .debug_str:000000000000f651 .LASF3882
C:\Users\SOLDER~1\AppData\Local\Temp\cc0vShlo.s:18223  .debug_str:000000000000015d .LASF3883
C:\Users\SOLDER~1\AppData\Local\Temp\cc0vShlo.s:28791  .debug_str:000000000002b4ee .LASF3884
C:\Users\SOLDER~1\AppData\Local\Temp\cc0vShlo.s:28207  .debug_str:0000000000028eb9 .LASF3885
C:\Users\SOLDER~1\AppData\Local\Temp\cc0vShlo.s:21595  .debug_str:000000000000de3e .LASF3886
C:\Users\SOLDER~1\AppData\Local\Temp\cc0vShlo.s:26133  .debug_str:000000000002066c .LASF3887
C:\Users\SOLDER~1\AppData\Local\Temp\cc0vShlo.s:18355  .debug_str:0000000000000aec .LASF3888
C:\Users\SOLDER~1\AppData\Local\Temp\cc0vShlo.s:29431  .debug_str:000000000002de3e .LASF3889
C:\Users\SOLDER~1\AppData\Local\Temp\cc0vShlo.s:20881  .debug_str:000000000000af65 .LASF3890
C:\Users\SOLDER~1\AppData\Local\Temp\cc0vShlo.s:22129  .debug_str:0000000000010163 .LASF3891
C:\Users\SOLDER~1\AppData\Local\Temp\cc0vShlo.s:28933  .debug_str:000000000002be37 .LASF3892
C:\Users\SOLDER~1\AppData\Local\Temp\cc0vShlo.s:20219  .debug_str:00000000000083b7 .LASF3893
C:\Users\SOLDER~1\AppData\Local\Temp\cc0vShlo.s:25265  .debug_str:000000000001cdf4 .LASF3894
C:\Users\SOLDER~1\AppData\Local\Temp\cc0vShlo.s:24291  .debug_str:0000000000018eca .LASF3895
C:\Users\SOLDER~1\AppData\Local\Temp\cc0vShlo.s:26221  .debug_str:0000000000020c0a .LASF3896
C:\Users\SOLDER~1\AppData\Local\Temp\cc0vShlo.s:20551  .debug_str:0000000000009994 .LASF3897
C:\Users\SOLDER~1\AppData\Local\Temp\cc0vShlo.s:27923  .debug_str:0000000000027c70 .LASF3898
C:\Users\SOLDER~1\AppData\Local\Temp\cc0vShlo.s:18617  .debug_str:0000000000001be3 .LASF3899
C:\Users\SOLDER~1\AppData\Local\Temp\cc0vShlo.s:23891  .debug_str:0000000000017481 .LASF3900
C:\Users\SOLDER~1\AppData\Local\Temp\cc0vShlo.s:28635  .debug_str:000000000002aac8 .LASF3901
C:\Users\SOLDER~1\AppData\Local\Temp\cc0vShlo.s:29445  .debug_str:000000000002df39 .LASF3902
C:\Users\SOLDER~1\AppData\Local\Temp\cc0vShlo.s:21853  .debug_str:000000000000ef33 .LASF3903
C:\Users\SOLDER~1\AppData\Local\Temp\cc0vShlo.s:23173  .debug_str:0000000000014635 .LASF3904
C:\Users\SOLDER~1\AppData\Local\Temp\cc0vShlo.s:25173  .debug_str:000000000001c7b7 .LASF3905
C:\Users\SOLDER~1\AppData\Local\Temp\cc0vShlo.s:27079  .debug_str:000000000002441f .LASF3906
C:\Users\SOLDER~1\AppData\Local\Temp\cc0vShlo.s:28135  .debug_str:0000000000028a1b .LASF3907
C:\Users\SOLDER~1\AppData\Local\Temp\cc0vShlo.s:25537  .debug_str:000000000001df91 .LASF3908
GAS LISTING C:\Users\SOLDER~1\AppData\Local\Temp\cc0vShlo.s 			page 79


C:\Users\SOLDER~1\AppData\Local\Temp\cc0vShlo.s:29443  .debug_str:000000000002df16 .LASF3909
C:\Users\SOLDER~1\AppData\Local\Temp\cc0vShlo.s:23547  .debug_str:0000000000015e8f .LASF3910
C:\Users\SOLDER~1\AppData\Local\Temp\cc0vShlo.s:29305  .debug_str:000000000002d64a .LASF3911
C:\Users\SOLDER~1\AppData\Local\Temp\cc0vShlo.s:24087  .debug_str:0000000000018164 .LASF3912
C:\Users\SOLDER~1\AppData\Local\Temp\cc0vShlo.s:27969  .debug_str:0000000000027f8e .LASF3913
C:\Users\SOLDER~1\AppData\Local\Temp\cc0vShlo.s:19295  .debug_str:00000000000047c8 .LASF3914
C:\Users\SOLDER~1\AppData\Local\Temp\cc0vShlo.s:24587  .debug_str:000000000001a162 .LASF3915
C:\Users\SOLDER~1\AppData\Local\Temp\cc0vShlo.s:25771  .debug_str:000000000001eee6 .LASF3916
C:\Users\SOLDER~1\AppData\Local\Temp\cc0vShlo.s:26233  .debug_str:0000000000020cd7 .LASF3917
C:\Users\SOLDER~1\AppData\Local\Temp\cc0vShlo.s:23431  .debug_str:000000000001572f .LASF3918
C:\Users\SOLDER~1\AppData\Local\Temp\cc0vShlo.s:27497  .debug_str:0000000000026031 .LASF3919
C:\Users\SOLDER~1\AppData\Local\Temp\cc0vShlo.s:28415  .debug_str:0000000000029c6b .LASF3920
C:\Users\SOLDER~1\AppData\Local\Temp\cc0vShlo.s:27379  .debug_str:00000000000257d2 .LASF3921
C:\Users\SOLDER~1\AppData\Local\Temp\cc0vShlo.s:19967  .debug_str:0000000000007364 .LASF3922
C:\Users\SOLDER~1\AppData\Local\Temp\cc0vShlo.s:26321  .debug_str:00000000000212a0 .LASF3923
C:\Users\SOLDER~1\AppData\Local\Temp\cc0vShlo.s:22351  .debug_str:0000000000010f8e .LASF3924
C:\Users\SOLDER~1\AppData\Local\Temp\cc0vShlo.s:26165  .debug_str:0000000000020883 .LASF3925
C:\Users\SOLDER~1\AppData\Local\Temp\cc0vShlo.s:19443  .debug_str:00000000000050d2 .LASF3926
C:\Users\SOLDER~1\AppData\Local\Temp\cc0vShlo.s:22899  .debug_str:00000000000132fe .LASF3927
C:\Users\SOLDER~1\AppData\Local\Temp\cc0vShlo.s:20569  .debug_str:0000000000009aac .LASF3928
C:\Users\SOLDER~1\AppData\Local\Temp\cc0vShlo.s:19039  .debug_str:0000000000003768 .LASF3929
C:\Users\SOLDER~1\AppData\Local\Temp\cc0vShlo.s:20071  .debug_str:00000000000079c2 .LASF3930
C:\Users\SOLDER~1\AppData\Local\Temp\cc0vShlo.s:25785  .debug_str:000000000001efcd .LASF3931
C:\Users\SOLDER~1\AppData\Local\Temp\cc0vShlo.s:25267  .debug_str:000000000001ce0b .LASF3932
C:\Users\SOLDER~1\AppData\Local\Temp\cc0vShlo.s:27985  .debug_str:000000000002807d .LASF3933
C:\Users\SOLDER~1\AppData\Local\Temp\cc0vShlo.s:27551  .debug_str:00000000000263ca .LASF3934
C:\Users\SOLDER~1\AppData\Local\Temp\cc0vShlo.s:20563  .debug_str:0000000000009a4f .LASF3935
C:\Users\SOLDER~1\AppData\Local\Temp\cc0vShlo.s:21751  .debug_str:000000000000e8d7 .LASF3936
C:\Users\SOLDER~1\AppData\Local\Temp\cc0vShlo.s:23503  .debug_str:0000000000015bbd .LASF3937
C:\Users\SOLDER~1\AppData\Local\Temp\cc0vShlo.s:19505  .debug_str:0000000000005486 .LASF3938
C:\Users\SOLDER~1\AppData\Local\Temp\cc0vShlo.s:20251  .debug_str:0000000000008598 .LASF3939
C:\Users\SOLDER~1\AppData\Local\Temp\cc0vShlo.s:28485  .debug_str:000000000002a13d .LASF3940
C:\Users\SOLDER~1\AppData\Local\Temp\cc0vShlo.s:24037  .debug_str:0000000000017e05 .LASF3941
C:\Users\SOLDER~1\AppData\Local\Temp\cc0vShlo.s:21675  .debug_str:000000000000e3d3 .LASF3942
C:\Users\SOLDER~1\AppData\Local\Temp\cc0vShlo.s:26237  .debug_str:0000000000020d1d .LASF3943
C:\Users\SOLDER~1\AppData\Local\Temp\cc0vShlo.s:18801  .debug_str:00000000000027f8 .LASF3944
C:\Users\SOLDER~1\AppData\Local\Temp\cc0vShlo.s:25033  .debug_str:000000000001be23 .LASF3945
C:\Users\SOLDER~1\AppData\Local\Temp\cc0vShlo.s:20207  .debug_str:00000000000082e2 .LASF3946
C:\Users\SOLDER~1\AppData\Local\Temp\cc0vShlo.s:26107  .debug_str:00000000000204bb .LASF3947
C:\Users\SOLDER~1\AppData\Local\Temp\cc0vShlo.s:27253  .debug_str:0000000000024f6f .LASF3948
C:\Users\SOLDER~1\AppData\Local\Temp\cc0vShlo.s:23405  .debug_str:000000000001557e .LASF3949
C:\Users\SOLDER~1\AppData\Local\Temp\cc0vShlo.s:18477  .debug_str:00000000000012cc .LASF3950
C:\Users\SOLDER~1\AppData\Local\Temp\cc0vShlo.s:26849  .debug_str:0000000000023501 .LASF3951
C:\Users\SOLDER~1\AppData\Local\Temp\cc0vShlo.s:19167  .debug_str:0000000000003f92 .LASF3952
C:\Users\SOLDER~1\AppData\Local\Temp\cc0vShlo.s:22093  .debug_str:000000000000ff39 .LASF3953
C:\Users\SOLDER~1\AppData\Local\Temp\cc0vShlo.s:23507  .debug_str:0000000000015bfe .LASF3954
C:\Users\SOLDER~1\AppData\Local\Temp\cc0vShlo.s:20145  .debug_str:0000000000007ec1 .LASF3955
C:\Users\SOLDER~1\AppData\Local\Temp\cc0vShlo.s:18523  .debug_str:00000000000015d9 .LASF3956
C:\Users\SOLDER~1\AppData\Local\Temp\cc0vShlo.s:29653  .debug_str:000000000002ec7a .LASF3957
C:\Users\SOLDER~1\AppData\Local\Temp\cc0vShlo.s:22647  .debug_str:0000000000012271 .LASF3958
C:\Users\SOLDER~1\AppData\Local\Temp\cc0vShlo.s:23853  .debug_str:0000000000017200 .LASF3959
C:\Users\SOLDER~1\AppData\Local\Temp\cc0vShlo.s:21629  .debug_str:000000000000e0b8 .LASF3960
C:\Users\SOLDER~1\AppData\Local\Temp\cc0vShlo.s:24117  .debug_str:0000000000018341 .LASF3961
C:\Users\SOLDER~1\AppData\Local\Temp\cc0vShlo.s:27267  .debug_str:0000000000025066 .LASF3962
C:\Users\SOLDER~1\AppData\Local\Temp\cc0vShlo.s:21627  .debug_str:000000000000e091 .LASF3963
C:\Users\SOLDER~1\AppData\Local\Temp\cc0vShlo.s:21763  .debug_str:000000000000e98d .LASF3964
C:\Users\SOLDER~1\AppData\Local\Temp\cc0vShlo.s:26167  .debug_str:00000000000208a3 .LASF3965
GAS LISTING C:\Users\SOLDER~1\AppData\Local\Temp\cc0vShlo.s 			page 80


C:\Users\SOLDER~1\AppData\Local\Temp\cc0vShlo.s:26231  .debug_str:0000000000020caf .LASF3966
C:\Users\SOLDER~1\AppData\Local\Temp\cc0vShlo.s:25209  .debug_str:000000000001ca48 .LASF3967
C:\Users\SOLDER~1\AppData\Local\Temp\cc0vShlo.s:26989  .debug_str:0000000000023e0e .LASF3968
C:\Users\SOLDER~1\AppData\Local\Temp\cc0vShlo.s:23999  .debug_str:0000000000017b7c .LASF3969
C:\Users\SOLDER~1\AppData\Local\Temp\cc0vShlo.s:21215  .debug_str:000000000000c557 .LASF3970
C:\Users\SOLDER~1\AppData\Local\Temp\cc0vShlo.s:20789  .debug_str:000000000000a97e .LASF3971
C:\Users\SOLDER~1\AppData\Local\Temp\cc0vShlo.s:19305  .debug_str:0000000000004875 .LASF3972
C:\Users\SOLDER~1\AppData\Local\Temp\cc0vShlo.s:27507  .debug_str:00000000000260f7 .LASF3973
C:\Users\SOLDER~1\AppData\Local\Temp\cc0vShlo.s:22015  .debug_str:000000000000f9e4 .LASF3974
C:\Users\SOLDER~1\AppData\Local\Temp\cc0vShlo.s:22211  .debug_str:0000000000010673 .LASF3975
C:\Users\SOLDER~1\AppData\Local\Temp\cc0vShlo.s:18335  .debug_str:0000000000000999 .LASF3976
C:\Users\SOLDER~1\AppData\Local\Temp\cc0vShlo.s:19867  .debug_str:0000000000006c9f .LASF3977
C:\Users\SOLDER~1\AppData\Local\Temp\cc0vShlo.s:29535  .debug_str:000000000002e505 .LASF3978
C:\Users\SOLDER~1\AppData\Local\Temp\cc0vShlo.s:20727  .debug_str:000000000000a526 .LASF3979
C:\Users\SOLDER~1\AppData\Local\Temp\cc0vShlo.s:23769  .debug_str:0000000000016c52 .LASF3980
C:\Users\SOLDER~1\AppData\Local\Temp\cc0vShlo.s:27671  .debug_str:0000000000026bc0 .LASF3981
C:\Users\SOLDER~1\AppData\Local\Temp\cc0vShlo.s:24799  .debug_str:000000000001af19 .LASF3982
C:\Users\SOLDER~1\AppData\Local\Temp\cc0vShlo.s:28103  .debug_str:0000000000028843 .LASF3983
C:\Users\SOLDER~1\AppData\Local\Temp\cc0vShlo.s:23937  .debug_str:0000000000017772 .LASF3984
C:\Users\SOLDER~1\AppData\Local\Temp\cc0vShlo.s:27665  .debug_str:0000000000026b55 .LASF3985
C:\Users\SOLDER~1\AppData\Local\Temp\cc0vShlo.s:20299  .debug_str:00000000000088a4 .LASF3986
C:\Users\SOLDER~1\AppData\Local\Temp\cc0vShlo.s:19817  .debug_str:0000000000006986 .LASF3987
C:\Users\SOLDER~1\AppData\Local\Temp\cc0vShlo.s:25405  .debug_str:000000000001d719 .LASF3988
C:\Users\SOLDER~1\AppData\Local\Temp\cc0vShlo.s:19993  .debug_str:0000000000007516 .LASF3989
C:\Users\SOLDER~1\AppData\Local\Temp\cc0vShlo.s:27533  .debug_str:00000000000262ce .LASF3990
C:\Users\SOLDER~1\AppData\Local\Temp\cc0vShlo.s:19159  .debug_str:0000000000003f05 .LASF3991
C:\Users\SOLDER~1\AppData\Local\Temp\cc0vShlo.s:26981  .debug_str:0000000000023d8b .LASF3992
C:\Users\SOLDER~1\AppData\Local\Temp\cc0vShlo.s:20393  .debug_str:0000000000008f0b .LASF3993
C:\Users\SOLDER~1\AppData\Local\Temp\cc0vShlo.s:20963  .debug_str:000000000000b4b0 .LASF3994
C:\Users\SOLDER~1\AppData\Local\Temp\cc0vShlo.s:21241  .debug_str:000000000000c6fb .LASF3995
C:\Users\SOLDER~1\AppData\Local\Temp\cc0vShlo.s:27059  .debug_str:00000000000242a8 .LASF3996
C:\Users\SOLDER~1\AppData\Local\Temp\cc0vShlo.s:28645  .debug_str:000000000002ab69 .LASF3997
C:\Users\SOLDER~1\AppData\Local\Temp\cc0vShlo.s:20437  .debug_str:000000000000922b .LASF3998
C:\Users\SOLDER~1\AppData\Local\Temp\cc0vShlo.s:22703  .debug_str:0000000000012621 .LASF3999
C:\Users\SOLDER~1\AppData\Local\Temp\cc0vShlo.s:23185  .debug_str:00000000000146e6 .LASF4000
C:\Users\SOLDER~1\AppData\Local\Temp\cc0vShlo.s:27879  .debug_str:0000000000027947 .LASF4001
C:\Users\SOLDER~1\AppData\Local\Temp\cc0vShlo.s:29455  .debug_str:000000000002dfd0 .LASF4002
C:\Users\SOLDER~1\AppData\Local\Temp\cc0vShlo.s:18739  .debug_str:0000000000002405 .LASF4003
C:\Users\SOLDER~1\AppData\Local\Temp\cc0vShlo.s:23639  .debug_str:0000000000016485 .LASF4004
C:\Users\SOLDER~1\AppData\Local\Temp\cc0vShlo.s:25385  .debug_str:000000000001d5c9 .LASF4005
C:\Users\SOLDER~1\AppData\Local\Temp\cc0vShlo.s:28221  .debug_str:0000000000028fae .LASF4006
C:\Users\SOLDER~1\AppData\Local\Temp\cc0vShlo.s:19499  .debug_str:0000000000005437 .LASF4007
C:\Users\SOLDER~1\AppData\Local\Temp\cc0vShlo.s:20181  .debug_str:0000000000008141 .LASF4008
C:\Users\SOLDER~1\AppData\Local\Temp\cc0vShlo.s:18441  .debug_str:0000000000001084 .LASF4009
C:\Users\SOLDER~1\AppData\Local\Temp\cc0vShlo.s:28075  .debug_str:000000000002867e .LASF4010
C:\Users\SOLDER~1\AppData\Local\Temp\cc0vShlo.s:18407  .debug_str:0000000000000e78 .LASF4011
C:\Users\SOLDER~1\AppData\Local\Temp\cc0vShlo.s:28561  .debug_str:000000000002a602 .LASF4012
C:\Users\SOLDER~1\AppData\Local\Temp\cc0vShlo.s:28095  .debug_str:00000000000287b6 .LASF4013
C:\Users\SOLDER~1\AppData\Local\Temp\cc0vShlo.s:24579  .debug_str:000000000001a0e4 .LASF4014
C:\Users\SOLDER~1\AppData\Local\Temp\cc0vShlo.s:27663  .debug_str:0000000000026b39 .LASF4015
C:\Users\SOLDER~1\AppData\Local\Temp\cc0vShlo.s:18657  .debug_str:0000000000001e96 .LASF4016
C:\Users\SOLDER~1\AppData\Local\Temp\cc0vShlo.s:29141  .debug_str:000000000002cb82 .LASF4017
C:\Users\SOLDER~1\AppData\Local\Temp\cc0vShlo.s:26415  .debug_str:00000000000218c1 .LASF4018
C:\Users\SOLDER~1\AppData\Local\Temp\cc0vShlo.s:18263  .debug_str:0000000000000414 .LASF4019
C:\Users\SOLDER~1\AppData\Local\Temp\cc0vShlo.s:21203  .debug_str:000000000000c4a0 .LASF4020
C:\Users\SOLDER~1\AppData\Local\Temp\cc0vShlo.s:21041  .debug_str:000000000000b9af .LASF4021
C:\Users\SOLDER~1\AppData\Local\Temp\cc0vShlo.s:27035  .debug_str:000000000002410d .LASF4022
GAS LISTING C:\Users\SOLDER~1\AppData\Local\Temp\cc0vShlo.s 			page 81


C:\Users\SOLDER~1\AppData\Local\Temp\cc0vShlo.s:27393  .debug_str:00000000000258e3 .LASF4023
C:\Users\SOLDER~1\AppData\Local\Temp\cc0vShlo.s:28009  .debug_str:0000000000028206 .LASF4024
C:\Users\SOLDER~1\AppData\Local\Temp\cc0vShlo.s:19195  .debug_str:0000000000004177 .LASF4025
C:\Users\SOLDER~1\AppData\Local\Temp\cc0vShlo.s:25691  .debug_str:000000000001e9aa .LASF4026
C:\Users\SOLDER~1\AppData\Local\Temp\cc0vShlo.s:23281  .debug_str:0000000000014d67 .LASF4027
C:\Users\SOLDER~1\AppData\Local\Temp\cc0vShlo.s:29515  .debug_str:000000000002e3af .LASF4028
C:\Users\SOLDER~1\AppData\Local\Temp\cc0vShlo.s:19055  .debug_str:0000000000003874 .LASF4029
C:\Users\SOLDER~1\AppData\Local\Temp\cc0vShlo.s:24915  .debug_str:000000000001b679 .LASF4030
C:\Users\SOLDER~1\AppData\Local\Temp\cc0vShlo.s:27555  .debug_str:0000000000026417 .LASF4031
C:\Users\SOLDER~1\AppData\Local\Temp\cc0vShlo.s:22123  .debug_str:0000000000010105 .LASF4032
C:\Users\SOLDER~1\AppData\Local\Temp\cc0vShlo.s:26777  .debug_str:0000000000023011 .LASF4033
C:\Users\SOLDER~1\AppData\Local\Temp\cc0vShlo.s:21043  .debug_str:000000000000b9cc .LASF4034
C:\Users\SOLDER~1\AppData\Local\Temp\cc0vShlo.s:28419  .debug_str:0000000000029cae .LASF4035
C:\Users\SOLDER~1\AppData\Local\Temp\cc0vShlo.s:20523  .debug_str:00000000000097c2 .LASF4036
C:\Users\SOLDER~1\AppData\Local\Temp\cc0vShlo.s:19367  .debug_str:0000000000004c5b .LASF4037
C:\Users\SOLDER~1\AppData\Local\Temp\cc0vShlo.s:24095  .debug_str:00000000000181f0 .LASF4038
C:\Users\SOLDER~1\AppData\Local\Temp\cc0vShlo.s:20267  .debug_str:00000000000086c9 .LASF4039
C:\Users\SOLDER~1\AppData\Local\Temp\cc0vShlo.s:26197  .debug_str:0000000000020a81 .LASF4040
C:\Users\SOLDER~1\AppData\Local\Temp\cc0vShlo.s:29267  .debug_str:000000000002d3d5 .LASF4041
C:\Users\SOLDER~1\AppData\Local\Temp\cc0vShlo.s:21847  .debug_str:000000000000eede .LASF4042
C:\Users\SOLDER~1\AppData\Local\Temp\cc0vShlo.s:29371  .debug_str:000000000002da85 .LASF4043
C:\Users\SOLDER~1\AppData\Local\Temp\cc0vShlo.s:25965  .debug_str:000000000001fb93 .LASF4044
C:\Users\SOLDER~1\AppData\Local\Temp\cc0vShlo.s:19559  .debug_str:0000000000005846 .LASF4045
C:\Users\SOLDER~1\AppData\Local\Temp\cc0vShlo.s:25413  .debug_str:000000000001d75b .LASF4046
C:\Users\SOLDER~1\AppData\Local\Temp\cc0vShlo.s:19551  .debug_str:00000000000057b2 .LASF4047
C:\Users\SOLDER~1\AppData\Local\Temp\cc0vShlo.s:27241  .debug_str:0000000000024ecc .LASF4048
C:\Users\SOLDER~1\AppData\Local\Temp\cc0vShlo.s:22387  .debug_str:00000000000111dc .LASF4049
C:\Users\SOLDER~1\AppData\Local\Temp\cc0vShlo.s:22955  .debug_str:00000000000136c2 .LASF4050
C:\Users\SOLDER~1\AppData\Local\Temp\cc0vShlo.s:18867  .debug_str:0000000000002c16 .LASF4051
C:\Users\SOLDER~1\AppData\Local\Temp\cc0vShlo.s:23069  .debug_str:0000000000013f0c .LASF4052
C:\Users\SOLDER~1\AppData\Local\Temp\cc0vShlo.s:22179  .debug_str:000000000001049a .LASF4053
C:\Users\SOLDER~1\AppData\Local\Temp\cc0vShlo.s:22361  .debug_str:0000000000011047 .LASF4054
C:\Users\SOLDER~1\AppData\Local\Temp\cc0vShlo.s:26645  .debug_str:000000000002276a .LASF4055
C:\Users\SOLDER~1\AppData\Local\Temp\cc0vShlo.s:22283  .debug_str:0000000000010b29 .LASF4056
C:\Users\SOLDER~1\AppData\Local\Temp\cc0vShlo.s:18959  .debug_str:0000000000003225 .LASF4057
C:\Users\SOLDER~1\AppData\Local\Temp\cc0vShlo.s:22813  .debug_str:0000000000012d83 .LASF4058
C:\Users\SOLDER~1\AppData\Local\Temp\cc0vShlo.s:22729  .debug_str:00000000000127be .LASF4059
C:\Users\SOLDER~1\AppData\Local\Temp\cc0vShlo.s:20429  .debug_str:00000000000091b1 .LASF4060
C:\Users\SOLDER~1\AppData\Local\Temp\cc0vShlo.s:19649  .debug_str:0000000000005e0c .LASF4061
C:\Users\SOLDER~1\AppData\Local\Temp\cc0vShlo.s:26193  .debug_str:0000000000020a57 .LASF4062
C:\Users\SOLDER~1\AppData\Local\Temp\cc0vShlo.s:23879  .debug_str:00000000000173be .LASF4063
C:\Users\SOLDER~1\AppData\Local\Temp\cc0vShlo.s:26069  .debug_str:0000000000020234 .LASF4064
C:\Users\SOLDER~1\AppData\Local\Temp\cc0vShlo.s:26451  .debug_str:0000000000021b04 .LASF4065
C:\Users\SOLDER~1\AppData\Local\Temp\cc0vShlo.s:26653  .debug_str:00000000000227fb .LASF4066
C:\Users\SOLDER~1\AppData\Local\Temp\cc0vShlo.s:22683  .debug_str:00000000000124dd .LASF4067
C:\Users\SOLDER~1\AppData\Local\Temp\cc0vShlo.s:26787  .debug_str:00000000000230c0 .LASF4068
C:\Users\SOLDER~1\AppData\Local\Temp\cc0vShlo.s:19697  .debug_str:0000000000006176 .LASF4069
C:\Users\SOLDER~1\AppData\Local\Temp\cc0vShlo.s:26931  .debug_str:0000000000023a33 .LASF4070
C:\Users\SOLDER~1\AppData\Local\Temp\cc0vShlo.s:24167  .debug_str:0000000000018673 .LASF4071
C:\Users\SOLDER~1\AppData\Local\Temp\cc0vShlo.s:26431  .debug_str:00000000000219be .LASF4072
C:\Users\SOLDER~1\AppData\Local\Temp\cc0vShlo.s:18699  .debug_str:000000000000214d .LASF4073
C:\Users\SOLDER~1\AppData\Local\Temp\cc0vShlo.s:27543  .debug_str:0000000000026364 .LASF4074
C:\Users\SOLDER~1\AppData\Local\Temp\cc0vShlo.s:26537  .debug_str:0000000000022030 .LASF4075
C:\Users\SOLDER~1\AppData\Local\Temp\cc0vShlo.s:22805  .debug_str:0000000000012cf7 .LASF4076
C:\Users\SOLDER~1\AppData\Local\Temp\cc0vShlo.s:27347  .debug_str:0000000000025594 .LASF4077
C:\Users\SOLDER~1\AppData\Local\Temp\cc0vShlo.s:19097  .debug_str:0000000000003b34 .LASF4078
C:\Users\SOLDER~1\AppData\Local\Temp\cc0vShlo.s:22001  .debug_str:000000000000f8e7 .LASF4079
GAS LISTING C:\Users\SOLDER~1\AppData\Local\Temp\cc0vShlo.s 			page 82


C:\Users\SOLDER~1\AppData\Local\Temp\cc0vShlo.s:20931  .debug_str:000000000000b273 .LASF4080
C:\Users\SOLDER~1\AppData\Local\Temp\cc0vShlo.s:19361  .debug_str:0000000000004bf6 .LASF4081
C:\Users\SOLDER~1\AppData\Local\Temp\cc0vShlo.s:27875  .debug_str:000000000002790f .LASF4082
C:\Users\SOLDER~1\AppData\Local\Temp\cc0vShlo.s:20527  .debug_str:00000000000097f9 .LASF4083
C:\Users\SOLDER~1\AppData\Local\Temp\cc0vShlo.s:28873  .debug_str:000000000002ba27 .LASF4084
C:\Users\SOLDER~1\AppData\Local\Temp\cc0vShlo.s:26785  .debug_str:00000000000230a3 .LASF4085
C:\Users\SOLDER~1\AppData\Local\Temp\cc0vShlo.s:28045  .debug_str:0000000000028442 .LASF4086
C:\Users\SOLDER~1\AppData\Local\Temp\cc0vShlo.s:25077  .debug_str:000000000001c154 .LASF4087
C:\Users\SOLDER~1\AppData\Local\Temp\cc0vShlo.s:23223  .debug_str:0000000000014992 .LASF4088
C:\Users\SOLDER~1\AppData\Local\Temp\cc0vShlo.s:19179  .debug_str:0000000000004052 .LASF4089
C:\Users\SOLDER~1\AppData\Local\Temp\cc0vShlo.s:24867  .debug_str:000000000001b388 .LASF4090
C:\Users\SOLDER~1\AppData\Local\Temp\cc0vShlo.s:28781  .debug_str:000000000002b433 .LASF4091
C:\Users\SOLDER~1\AppData\Local\Temp\cc0vShlo.s:29619  .debug_str:000000000002ea7d .LASF4092
C:\Users\SOLDER~1\AppData\Local\Temp\cc0vShlo.s:19965  .debug_str:0000000000007347 .LASF4093
C:\Users\SOLDER~1\AppData\Local\Temp\cc0vShlo.s:29085  .debug_str:000000000002c7f2 .LASF4094
C:\Users\SOLDER~1\AppData\Local\Temp\cc0vShlo.s:21269  .debug_str:000000000000c8ed .LASF4095
C:\Users\SOLDER~1\AppData\Local\Temp\cc0vShlo.s:24083  .debug_str:000000000001813e .LASF4096
C:\Users\SOLDER~1\AppData\Local\Temp\cc0vShlo.s:18525  .debug_str:00000000000015f4 .LASF4097
C:\Users\SOLDER~1\AppData\Local\Temp\cc0vShlo.s:19317  .debug_str:0000000000004929 .LASF4098
C:\Users\SOLDER~1\AppData\Local\Temp\cc0vShlo.s:19147  .debug_str:0000000000003e6f .LASF4099
C:\Users\SOLDER~1\AppData\Local\Temp\cc0vShlo.s:24871  .debug_str:000000000001b3c2 .LASF4100
C:\Users\SOLDER~1\AppData\Local\Temp\cc0vShlo.s:28637  .debug_str:000000000002aae9 .LASF4101
C:\Users\SOLDER~1\AppData\Local\Temp\cc0vShlo.s:23259  .debug_str:0000000000014c01 .LASF4102
C:\Users\SOLDER~1\AppData\Local\Temp\cc0vShlo.s:19313  .debug_str:00000000000048f6 .LASF4103
C:\Users\SOLDER~1\AppData\Local\Temp\cc0vShlo.s:21513  .debug_str:000000000000d8f5 .LASF4104
C:\Users\SOLDER~1\AppData\Local\Temp\cc0vShlo.s:20721  .debug_str:000000000000a4d4 .LASF4105
C:\Users\SOLDER~1\AppData\Local\Temp\cc0vShlo.s:20643  .debug_str:0000000000009f9c .LASF4106
C:\Users\SOLDER~1\AppData\Local\Temp\cc0vShlo.s:29261  .debug_str:000000000002d362 .LASF4107
C:\Users\SOLDER~1\AppData\Local\Temp\cc0vShlo.s:24223  .debug_str:0000000000018a2a .LASF4108
C:\Users\SOLDER~1\AppData\Local\Temp\cc0vShlo.s:29509  .debug_str:000000000002e34f .LASF4109
C:\Users\SOLDER~1\AppData\Local\Temp\cc0vShlo.s:19155  .debug_str:0000000000003ee0 .LASF4110
C:\Users\SOLDER~1\AppData\Local\Temp\cc0vShlo.s:26593  .debug_str:00000000000223e9 .LASF4111
C:\Users\SOLDER~1\AppData\Local\Temp\cc0vShlo.s:22197  .debug_str:00000000000105b0 .LASF4112
C:\Users\SOLDER~1\AppData\Local\Temp\cc0vShlo.s:24175  .debug_str:00000000000186ec .LASF4113
C:\Users\SOLDER~1\AppData\Local\Temp\cc0vShlo.s:26337  .debug_str:00000000000213c6 .LASF4114
C:\Users\SOLDER~1\AppData\Local\Temp\cc0vShlo.s:24407  .debug_str:0000000000019650 .LASF4115
C:\Users\SOLDER~1\AppData\Local\Temp\cc0vShlo.s:21673  .debug_str:000000000000e3b5 .LASF4116
C:\Users\SOLDER~1\AppData\Local\Temp\cc0vShlo.s:29289  .debug_str:000000000002d54e .LASF4117
C:\Users\SOLDER~1\AppData\Local\Temp\cc0vShlo.s:20583  .debug_str:0000000000009b9b .LASF4118
C:\Users\SOLDER~1\AppData\Local\Temp\cc0vShlo.s:19887  .debug_str:0000000000006e06 .LASF4119
C:\Users\SOLDER~1\AppData\Local\Temp\cc0vShlo.s:27797  .debug_str:0000000000027430 .LASF4120
C:\Users\SOLDER~1\AppData\Local\Temp\cc0vShlo.s:22329  .debug_str:0000000000010e26 .LASF4121
C:\Users\SOLDER~1\AppData\Local\Temp\cc0vShlo.s:19481  .debug_str:000000000000532d .LASF4122
C:\Users\SOLDER~1\AppData\Local\Temp\cc0vShlo.s:19819  .debug_str:00000000000069a1 .LASF4123
C:\Users\SOLDER~1\AppData\Local\Temp\cc0vShlo.s:23499  .debug_str:0000000000015b7d .LASF4124
C:\Users\SOLDER~1\AppData\Local\Temp\cc0vShlo.s:20947  .debug_str:000000000000b38e .LASF4125
C:\Users\SOLDER~1\AppData\Local\Temp\cc0vShlo.s:18633  .debug_str:0000000000001d11 .LASF4126
C:\Users\SOLDER~1\AppData\Local\Temp\cc0vShlo.s:23297  .debug_str:0000000000014e69 .LASF4127
C:\Users\SOLDER~1\AppData\Local\Temp\cc0vShlo.s:21089  .debug_str:000000000000bccb .LASF4128
C:\Users\SOLDER~1\AppData\Local\Temp\cc0vShlo.s:28413  .debug_str:0000000000029c59 .LASF4129
C:\Users\SOLDER~1\AppData\Local\Temp\cc0vShlo.s:18797  .debug_str:00000000000027ba .LASF4130
C:\Users\SOLDER~1\AppData\Local\Temp\cc0vShlo.s:20753  .debug_str:000000000000a728 .LASF4131
C:\Users\SOLDER~1\AppData\Local\Temp\cc0vShlo.s:25453  .debug_str:000000000001d9f7 .LASF4132
C:\Users\SOLDER~1\AppData\Local\Temp\cc0vShlo.s:21369  .debug_str:000000000000cfa5 .LASF4133
C:\Users\SOLDER~1\AppData\Local\Temp\cc0vShlo.s:19521  .debug_str:000000000000557b .LASF4134
C:\Users\SOLDER~1\AppData\Local\Temp\cc0vShlo.s:22133  .debug_str:000000000001019f .LASF4135
C:\Users\SOLDER~1\AppData\Local\Temp\cc0vShlo.s:27771  .debug_str:0000000000027277 .LASF4136
GAS LISTING C:\Users\SOLDER~1\AppData\Local\Temp\cc0vShlo.s 			page 83


C:\Users\SOLDER~1\AppData\Local\Temp\cc0vShlo.s:26815  .debug_str:00000000000232dc .LASF4137
C:\Users\SOLDER~1\AppData\Local\Temp\cc0vShlo.s:29561  .debug_str:000000000002e6d7 .LASF4138
C:\Users\SOLDER~1\AppData\Local\Temp\cc0vShlo.s:23189  .debug_str:000000000001471e .LASF4139
C:\Users\SOLDER~1\AppData\Local\Temp\cc0vShlo.s:20021  .debug_str:00000000000076c8 .LASF4140
C:\Users\SOLDER~1\AppData\Local\Temp\cc0vShlo.s:26885  .debug_str:000000000002375c .LASF4141
C:\Users\SOLDER~1\AppData\Local\Temp\cc0vShlo.s:20177  .debug_str:0000000000008110 .LASF4142
C:\Users\SOLDER~1\AppData\Local\Temp\cc0vShlo.s:28445  .debug_str:0000000000029e5e .LASF4143
C:\Users\SOLDER~1\AppData\Local\Temp\cc0vShlo.s:27031  .debug_str:00000000000240e1 .LASF4144
C:\Users\SOLDER~1\AppData\Local\Temp\cc0vShlo.s:23333  .debug_str:00000000000150a8 .LASF4145
C:\Users\SOLDER~1\AppData\Local\Temp\cc0vShlo.s:21659  .debug_str:000000000000e2cb .LASF4146
C:\Users\SOLDER~1\AppData\Local\Temp\cc0vShlo.s:26623  .debug_str:00000000000225e8 .LASF4147
C:\Users\SOLDER~1\AppData\Local\Temp\cc0vShlo.s:26817  .debug_str:00000000000232ef .LASF4148
C:\Users\SOLDER~1\AppData\Local\Temp\cc0vShlo.s:18895  .debug_str:0000000000002def .LASF4149
C:\Users\SOLDER~1\AppData\Local\Temp\cc0vShlo.s:26083  .debug_str:0000000000020332 .LASF4150
C:\Users\SOLDER~1\AppData\Local\Temp\cc0vShlo.s:28865  .debug_str:000000000002b995 .LASF4151
C:\Users\SOLDER~1\AppData\Local\Temp\cc0vShlo.s:25971  .debug_str:000000000001fbe5 .LASF4152
C:\Users\SOLDER~1\AppData\Local\Temp\cc0vShlo.s:25015  .debug_str:000000000001bd0d .LASF4153
C:\Users\SOLDER~1\AppData\Local\Temp\cc0vShlo.s:19331  .debug_str:00000000000049f0 .LASF4154
C:\Users\SOLDER~1\AppData\Local\Temp\cc0vShlo.s:18757  .debug_str:000000000000253a .LASF4155
C:\Users\SOLDER~1\AppData\Local\Temp\cc0vShlo.s:20829  .debug_str:000000000000abea .LASF4156
C:\Users\SOLDER~1\AppData\Local\Temp\cc0vShlo.s:24159  .debug_str:00000000000185f4 .LASF4157
C:\Users\SOLDER~1\AppData\Local\Temp\cc0vShlo.s:28515  .debug_str:000000000002a317 .LASF4158
C:\Users\SOLDER~1\AppData\Local\Temp\cc0vShlo.s:26539  .debug_str:000000000002204b .LASF4159
C:\Users\SOLDER~1\AppData\Local\Temp\cc0vShlo.s:24435  .debug_str:00000000000197ed .LASF4160
C:\Users\SOLDER~1\AppData\Local\Temp\cc0vShlo.s:18793  .debug_str:0000000000002776 .LASF4161
C:\Users\SOLDER~1\AppData\Local\Temp\cc0vShlo.s:22645  .debug_str:0000000000012253 .LASF4162
C:\Users\SOLDER~1\AppData\Local\Temp\cc0vShlo.s:26065  .debug_str:00000000000201f4 .LASF4163
C:\Users\SOLDER~1\AppData\Local\Temp\cc0vShlo.s:23655  .debug_str:000000000001656d .LASF4164
C:\Users\SOLDER~1\AppData\Local\Temp\cc0vShlo.s:20781  .debug_str:000000000000a8f8 .LASF4165
C:\Users\SOLDER~1\AppData\Local\Temp\cc0vShlo.s:26859  .debug_str:00000000000235c0 .LASF4166
C:\Users\SOLDER~1\AppData\Local\Temp\cc0vShlo.s:27373  .debug_str:0000000000025773 .LASF4167
C:\Users\SOLDER~1\AppData\Local\Temp\cc0vShlo.s:27929  .debug_str:0000000000027cc9 .LASF4168
C:\Users\SOLDER~1\AppData\Local\Temp\cc0vShlo.s:25725  .debug_str:000000000001ebd6 .LASF4169
C:\Users\SOLDER~1\AppData\Local\Temp\cc0vShlo.s:28831  .debug_str:000000000002b77e .LASF4170
C:\Users\SOLDER~1\AppData\Local\Temp\cc0vShlo.s:24963  .debug_str:000000000001b9af .LASF4171
C:\Users\SOLDER~1\AppData\Local\Temp\cc0vShlo.s:28137  .debug_str:0000000000028a40 .LASF4172
C:\Users\SOLDER~1\AppData\Local\Temp\cc0vShlo.s:29219  .debug_str:000000000002d0e0 .LASF4173
C:\Users\SOLDER~1\AppData\Local\Temp\cc0vShlo.s:19405  .debug_str:0000000000004e90 .LASF4174
C:\Users\SOLDER~1\AppData\Local\Temp\cc0vShlo.s:29459  .debug_str:000000000002dffb .LASF4175
C:\Users\SOLDER~1\AppData\Local\Temp\cc0vShlo.s:25861  .debug_str:000000000001f50b .LASF4176
C:\Users\SOLDER~1\AppData\Local\Temp\cc0vShlo.s:27809  .debug_str:00000000000274fe .LASF4177
C:\Users\SOLDER~1\AppData\Local\Temp\cc0vShlo.s:27321  .debug_str:00000000000253f7 .LASF4178
C:\Users\SOLDER~1\AppData\Local\Temp\cc0vShlo.s:21915  .debug_str:000000000000f30b .LASF4179
C:\Users\SOLDER~1\AppData\Local\Temp\cc0vShlo.s:24503  .debug_str:0000000000019c39 .LASF4180
C:\Users\SOLDER~1\AppData\Local\Temp\cc0vShlo.s:19645  .debug_str:0000000000005dc9 .LASF4181
C:\Users\SOLDER~1\AppData\Local\Temp\cc0vShlo.s:19255  .debug_str:0000000000004518 .LASF4182
C:\Users\SOLDER~1\AppData\Local\Temp\cc0vShlo.s:19919  .debug_str:0000000000007057 .LASF4183
C:\Users\SOLDER~1\AppData\Local\Temp\cc0vShlo.s:27213  .debug_str:0000000000024ce5 .LASF4184
C:\Users\SOLDER~1\AppData\Local\Temp\cc0vShlo.s:23077  .debug_str:0000000000013f74 .LASF4185
C:\Users\SOLDER~1\AppData\Local\Temp\cc0vShlo.s:29355  .debug_str:000000000002d969 .LASF4186
C:\Users\SOLDER~1\AppData\Local\Temp\cc0vShlo.s:26429  .debug_str:00000000000219a2 .LASF4187
C:\Users\SOLDER~1\AppData\Local\Temp\cc0vShlo.s:20127  .debug_str:0000000000007d8a .LASF4188
C:\Users\SOLDER~1\AppData\Local\Temp\cc0vShlo.s:25649  .debug_str:000000000001e6d8 .LASF4189
C:\Users\SOLDER~1\AppData\Local\Temp\cc0vShlo.s:20027  .debug_str:000000000000771a .LASF4190
C:\Users\SOLDER~1\AppData\Local\Temp\cc0vShlo.s:19815  .debug_str:0000000000006972 .LASF4191
C:\Users\SOLDER~1\AppData\Local\Temp\cc0vShlo.s:28185  .debug_str:0000000000028d44 .LASF4192
C:\Users\SOLDER~1\AppData\Local\Temp\cc0vShlo.s:18683  .debug_str:0000000000002033 .LASF4193
GAS LISTING C:\Users\SOLDER~1\AppData\Local\Temp\cc0vShlo.s 			page 84


C:\Users\SOLDER~1\AppData\Local\Temp\cc0vShlo.s:27283  .debug_str:0000000000025167 .LASF4194
C:\Users\SOLDER~1\AppData\Local\Temp\cc0vShlo.s:21265  .debug_str:000000000000c8a8 .LASF4195
C:\Users\SOLDER~1\AppData\Local\Temp\cc0vShlo.s:24937  .debug_str:000000000001b7ca .LASF4196
C:\Users\SOLDER~1\AppData\Local\Temp\cc0vShlo.s:18329  .debug_str:000000000000093b .LASF4197
C:\Users\SOLDER~1\AppData\Local\Temp\cc0vShlo.s:23061  .debug_str:0000000000013e75 .LASF4198
C:\Users\SOLDER~1\AppData\Local\Temp\cc0vShlo.s:23043  .debug_str:0000000000013d3b .LASF4199
C:\Users\SOLDER~1\AppData\Local\Temp\cc0vShlo.s:20795  .debug_str:000000000000a9ec .LASF4200
C:\Users\SOLDER~1\AppData\Local\Temp\cc0vShlo.s:20605  .debug_str:0000000000009d14 .LASF4201
C:\Users\SOLDER~1\AppData\Local\Temp\cc0vShlo.s:20889  .debug_str:000000000000afef .LASF4202
C:\Users\SOLDER~1\AppData\Local\Temp\cc0vShlo.s:22229  .debug_str:00000000000107bf .LASF4203
C:\Users\SOLDER~1\AppData\Local\Temp\cc0vShlo.s:20799  .debug_str:000000000000aa2e .LASF4204
C:\Users\SOLDER~1\AppData\Local\Temp\cc0vShlo.s:23021  .debug_str:0000000000013bad .LASF4205
C:\Users\SOLDER~1\AppData\Local\Temp\cc0vShlo.s:24319  .debug_str:000000000001907a .LASF4206
C:\Users\SOLDER~1\AppData\Local\Temp\cc0vShlo.s:19709  .debug_str:0000000000006237 .LASF4207
C:\Users\SOLDER~1\AppData\Local\Temp\cc0vShlo.s:22901  .debug_str:000000000001331d .LASF4208
C:\Users\SOLDER~1\AppData\Local\Temp\cc0vShlo.s:20261  .debug_str:0000000000008649 .LASF4209
C:\Users\SOLDER~1\AppData\Local\Temp\cc0vShlo.s:28295  .debug_str:00000000000294b3 .LASF4210
C:\Users\SOLDER~1\AppData\Local\Temp\cc0vShlo.s:28293  .debug_str:0000000000029495 .LASF4211
C:\Users\SOLDER~1\AppData\Local\Temp\cc0vShlo.s:18585  .debug_str:00000000000019be .LASF4212
C:\Users\SOLDER~1\AppData\Local\Temp\cc0vShlo.s:26263  .debug_str:0000000000020ef9 .LASF4213
C:\Users\SOLDER~1\AppData\Local\Temp\cc0vShlo.s:27845  .debug_str:0000000000027730 .LASF4214
C:\Users\SOLDER~1\AppData\Local\Temp\cc0vShlo.s:20227  .debug_str:000000000000842a .LASF4215
C:\Users\SOLDER~1\AppData\Local\Temp\cc0vShlo.s:23437  .debug_str:000000000001579b .LASF4216
C:\Users\SOLDER~1\AppData\Local\Temp\cc0vShlo.s:23863  .debug_str:0000000000017298 .LASF4217
C:\Users\SOLDER~1\AppData\Local\Temp\cc0vShlo.s:18251  .debug_str:0000000000000341 .LASF4218
C:\Users\SOLDER~1\AppData\Local\Temp\cc0vShlo.s:23179  .debug_str:000000000001468f .LASF4219
C:\Users\SOLDER~1\AppData\Local\Temp\cc0vShlo.s:28063  .debug_str:000000000002859d .LASF4220
C:\Users\SOLDER~1\AppData\Local\Temp\cc0vShlo.s:29131  .debug_str:000000000002cadb .LASF4221
C:\Users\SOLDER~1\AppData\Local\Temp\cc0vShlo.s:28393  .debug_str:0000000000029ae1 .LASF4222
C:\Users\SOLDER~1\AppData\Local\Temp\cc0vShlo.s:25887  .debug_str:000000000001f6d0 .LASF4223
C:\Users\SOLDER~1\AppData\Local\Temp\cc0vShlo.s:28315  .debug_str:00000000000295e4 .LASF4224
C:\Users\SOLDER~1\AppData\Local\Temp\cc0vShlo.s:24185  .debug_str:000000000001879b .LASF4225
C:\Users\SOLDER~1\AppData\Local\Temp\cc0vShlo.s:22221  .debug_str:0000000000010728 .LASF4226
C:\Users\SOLDER~1\AppData\Local\Temp\cc0vShlo.s:20905  .debug_str:000000000000b0c2 .LASF4227
C:\Users\SOLDER~1\AppData\Local\Temp\cc0vShlo.s:20977  .debug_str:000000000000b591 .LASF4228
C:\Users\SOLDER~1\AppData\Local\Temp\cc0vShlo.s:23307  .debug_str:0000000000014ef2 .LASF4229
C:\Users\SOLDER~1\AppData\Local\Temp\cc0vShlo.s:20851  .debug_str:000000000000ad83 .LASF4230
C:\Users\SOLDER~1\AppData\Local\Temp\cc0vShlo.s:20193  .debug_str:0000000000008200 .LASF4231
C:\Users\SOLDER~1\AppData\Local\Temp\cc0vShlo.s:24661  .debug_str:000000000001a621 .LASF4232
C:\Users\SOLDER~1\AppData\Local\Temp\cc0vShlo.s:22265  .debug_str:0000000000010a17 .LASF4233
C:\Users\SOLDER~1\AppData\Local\Temp\cc0vShlo.s:28695  .debug_str:000000000002aed3 .LASF4234
C:\Users\SOLDER~1\AppData\Local\Temp\cc0vShlo.s:20205  .debug_str:00000000000082ce .LASF4235
C:\Users\SOLDER~1\AppData\Local\Temp\cc0vShlo.s:22817  .debug_str:0000000000012da8 .LASF4236
C:\Users\SOLDER~1\AppData\Local\Temp\cc0vShlo.s:19779  .debug_str:00000000000066ec .LASF4237
C:\Users\SOLDER~1\AppData\Local\Temp\cc0vShlo.s:18297  .debug_str:000000000000064c .LASF4238
C:\Users\SOLDER~1\AppData\Local\Temp\cc0vShlo.s:18951  .debug_str:00000000000031b2 .LASF4239
C:\Users\SOLDER~1\AppData\Local\Temp\cc0vShlo.s:27023  .debug_str:000000000002405f .LASF4240
C:\Users\SOLDER~1\AppData\Local\Temp\cc0vShlo.s:18921  .debug_str:0000000000002fb9 .LASF4241
C:\Users\SOLDER~1\AppData\Local\Temp\cc0vShlo.s:25953  .debug_str:000000000001fada .LASF4242
C:\Users\SOLDER~1\AppData\Local\Temp\cc0vShlo.s:21815  .debug_str:000000000000ecba .LASF4243
C:\Users\SOLDER~1\AppData\Local\Temp\cc0vShlo.s:20817  .debug_str:000000000000ab35 .LASF4244
C:\Users\SOLDER~1\AppData\Local\Temp\cc0vShlo.s:26213  .debug_str:0000000000020b8e .LASF4245
C:\Users\SOLDER~1\AppData\Local\Temp\cc0vShlo.s:18859  .debug_str:0000000000002b87 .LASF4246
C:\Users\SOLDER~1\AppData\Local\Temp\cc0vShlo.s:25793  .debug_str:000000000001f058 .LASF4247
C:\Users\SOLDER~1\AppData\Local\Temp\cc0vShlo.s:22281  .debug_str:0000000000010b0d .LASF4248
C:\Users\SOLDER~1\AppData\Local\Temp\cc0vShlo.s:18721  .debug_str:00000000000022c0 .LASF4249
C:\Users\SOLDER~1\AppData\Local\Temp\cc0vShlo.s:23407  .debug_str:00000000000155a1 .LASF4250
GAS LISTING C:\Users\SOLDER~1\AppData\Local\Temp\cc0vShlo.s 			page 85


C:\Users\SOLDER~1\AppData\Local\Temp\cc0vShlo.s:26149  .debug_str:0000000000020774 .LASF4251
C:\Users\SOLDER~1\AppData\Local\Temp\cc0vShlo.s:28615  .debug_str:000000000002a978 .LASF4252
C:\Users\SOLDER~1\AppData\Local\Temp\cc0vShlo.s:23961  .debug_str:0000000000017913 .LASF4253
C:\Users\SOLDER~1\AppData\Local\Temp\cc0vShlo.s:23487  .debug_str:0000000000015ac8 .LASF4254
C:\Users\SOLDER~1\AppData\Local\Temp\cc0vShlo.s:21761  .debug_str:000000000000e970 .LASF4255
C:\Users\SOLDER~1\AppData\Local\Temp\cc0vShlo.s:28319  .debug_str:0000000000029620 .LASF4256
C:\Users\SOLDER~1\AppData\Local\Temp\cc0vShlo.s:19173  .debug_str:0000000000003ff9 .LASF4257
C:\Users\SOLDER~1\AppData\Local\Temp\cc0vShlo.s:26209  .debug_str:0000000000020b4f .LASF4258
C:\Users\SOLDER~1\AppData\Local\Temp\cc0vShlo.s:19677  .debug_str:0000000000005fec .LASF4259
C:\Users\SOLDER~1\AppData\Local\Temp\cc0vShlo.s:22499  .debug_str:000000000001192d .LASF4260
C:\Users\SOLDER~1\AppData\Local\Temp\cc0vShlo.s:24317  .debug_str:000000000001905c .LASF4261
C:\Users\SOLDER~1\AppData\Local\Temp\cc0vShlo.s:27107  .debug_str:00000000000245ec .LASF4262
C:\Users\SOLDER~1\AppData\Local\Temp\cc0vShlo.s:26373  .debug_str:00000000000215fd .LASF4263
C:\Users\SOLDER~1\AppData\Local\Temp\cc0vShlo.s:27547  .debug_str:0000000000026388 .LASF4264
C:\Users\SOLDER~1\AppData\Local\Temp\cc0vShlo.s:27843  .debug_str:0000000000027715 .LASF4265
C:\Users\SOLDER~1\AppData\Local\Temp\cc0vShlo.s:28653  .debug_str:000000000002abe5 .LASF4266
C:\Users\SOLDER~1\AppData\Local\Temp\cc0vShlo.s:28131  .debug_str:00000000000289ef .LASF4267
C:\Users\SOLDER~1\AppData\Local\Temp\cc0vShlo.s:25375  .debug_str:000000000001d541 .LASF4268
C:\Users\SOLDER~1\AppData\Local\Temp\cc0vShlo.s:18435  .debug_str:0000000000001024 .LASF4269
C:\Users\SOLDER~1\AppData\Local\Temp\cc0vShlo.s:26285  .debug_str:000000000002106e .LASF4270
C:\Users\SOLDER~1\AppData\Local\Temp\cc0vShlo.s:20179  .debug_str:0000000000008124 .LASF4271
C:\Users\SOLDER~1\AppData\Local\Temp\cc0vShlo.s:19425  .debug_str:0000000000004fc2 .LASF4272
C:\Users\SOLDER~1\AppData\Local\Temp\cc0vShlo.s:27727  .debug_str:0000000000026f80 .LASF4273
C:\Users\SOLDER~1\AppData\Local\Temp\cc0vShlo.s:18305  .debug_str:000000000000075a .LASF4274
C:\Users\SOLDER~1\AppData\Local\Temp\cc0vShlo.s:27329  .debug_str:000000000002545d .LASF4275
C:\Users\SOLDER~1\AppData\Local\Temp\cc0vShlo.s:19221  .debug_str:0000000000004302 .LASF4276
C:\Users\SOLDER~1\AppData\Local\Temp\cc0vShlo.s:21481  .debug_str:000000000000d6f8 .LASF4277
C:\Users\SOLDER~1\AppData\Local\Temp\cc0vShlo.s:20223  .debug_str:00000000000083e9 .LASF4278
C:\Users\SOLDER~1\AppData\Local\Temp\cc0vShlo.s:28905  .debug_str:000000000002bc37 .LASF4279
C:\Users\SOLDER~1\AppData\Local\Temp\cc0vShlo.s:22323  .debug_str:0000000000010dc5 .LASF4280
C:\Users\SOLDER~1\AppData\Local\Temp\cc0vShlo.s:18261  .debug_str:00000000000003f3 .LASF4281
C:\Users\SOLDER~1\AppData\Local\Temp\cc0vShlo.s:20503  .debug_str:000000000000966e .LASF4282
C:\Users\SOLDER~1\AppData\Local\Temp\cc0vShlo.s:23181  .debug_str:00000000000146a2 .LASF4283
C:\Users\SOLDER~1\AppData\Local\Temp\cc0vShlo.s:19975  .debug_str:00000000000073f6 .LASF4284
C:\Users\SOLDER~1\AppData\Local\Temp\cc0vShlo.s:21193  .debug_str:000000000000c3d3 .LASF4285
C:\Users\SOLDER~1\AppData\Local\Temp\cc0vShlo.s:24149  .debug_str:0000000000018561 .LASF4286
C:\Users\SOLDER~1\AppData\Local\Temp\cc0vShlo.s:23091  .debug_str:0000000000014061 .LASF4287
C:\Users\SOLDER~1\AppData\Local\Temp\cc0vShlo.s:26473  .debug_str:0000000000021c6c .LASF4288
C:\Users\SOLDER~1\AppData\Local\Temp\cc0vShlo.s:25567  .debug_str:000000000001e16d .LASF4289
C:\Users\SOLDER~1\AppData\Local\Temp\cc0vShlo.s:22327  .debug_str:0000000000010e0c .LASF4290
C:\Users\SOLDER~1\AppData\Local\Temp\cc0vShlo.s:23371  .debug_str:0000000000015339 .LASF4291
C:\Users\SOLDER~1\AppData\Local\Temp\cc0vShlo.s:18489  .debug_str:000000000000139d .LASF4292
C:\Users\SOLDER~1\AppData\Local\Temp\cc0vShlo.s:24443  .debug_str:000000000001985e .LASF4293
C:\Users\SOLDER~1\AppData\Local\Temp\cc0vShlo.s:25027  .debug_str:000000000001bdce .LASF4294
C:\Users\SOLDER~1\AppData\Local\Temp\cc0vShlo.s:26199  .debug_str:0000000000020a93 .LASF4295
C:\Users\SOLDER~1\AppData\Local\Temp\cc0vShlo.s:27711  .debug_str:0000000000026e6f .LASF4296
C:\Users\SOLDER~1\AppData\Local\Temp\cc0vShlo.s:21783  .debug_str:000000000000ea8d .LASF4297
C:\Users\SOLDER~1\AppData\Local\Temp\cc0vShlo.s:22917  .debug_str:0000000000013435 .LASF4298
C:\Users\SOLDER~1\AppData\Local\Temp\cc0vShlo.s:19489  .debug_str:00000000000053a7 .LASF4299
C:\Users\SOLDER~1\AppData\Local\Temp\cc0vShlo.s:21555  .debug_str:000000000000dba5 .LASF4300
C:\Users\SOLDER~1\AppData\Local\Temp\cc0vShlo.s:20311  .debug_str:0000000000008985 .LASF4301
C:\Users\SOLDER~1\AppData\Local\Temp\cc0vShlo.s:24067  .debug_str:0000000000018031 .LASF4302
C:\Users\SOLDER~1\AppData\Local\Temp\cc0vShlo.s:29361  .debug_str:000000000002d9be .LASF4303
C:\Users\SOLDER~1\AppData\Local\Temp\cc0vShlo.s:18701  .debug_str:0000000000002168 .LASF4304
C:\Users\SOLDER~1\AppData\Local\Temp\cc0vShlo.s:23483  .debug_str:0000000000015a76 .LASF4305
C:\Users\SOLDER~1\AppData\Local\Temp\cc0vShlo.s:27513  .debug_str:000000000002616b .LASF4306
C:\Users\SOLDER~1\AppData\Local\Temp\cc0vShlo.s:27221  .debug_str:0000000000024d5d .LASF4307
GAS LISTING C:\Users\SOLDER~1\AppData\Local\Temp\cc0vShlo.s 			page 86


C:\Users\SOLDER~1\AppData\Local\Temp\cc0vShlo.s:25733  .debug_str:000000000001ec4f .LASF4308
C:\Users\SOLDER~1\AppData\Local\Temp\cc0vShlo.s:29477  .debug_str:000000000002e11e .LASF4309
C:\Users\SOLDER~1\AppData\Local\Temp\cc0vShlo.s:21085  .debug_str:000000000000bc97 .LASF4310
C:\Users\SOLDER~1\AppData\Local\Temp\cc0vShlo.s:22089  .debug_str:000000000000fef1 .LASF4311
C:\Users\SOLDER~1\AppData\Local\Temp\cc0vShlo.s:24825  .debug_str:000000000001b0c6 .LASF4312
C:\Users\SOLDER~1\AppData\Local\Temp\cc0vShlo.s:24921  .debug_str:000000000001b6c0 .LASF4313
C:\Users\SOLDER~1\AppData\Local\Temp\cc0vShlo.s:18559  .debug_str:0000000000001823 .LASF4314
C:\Users\SOLDER~1\AppData\Local\Temp\cc0vShlo.s:23649  .debug_str:000000000001651a .LASF4315
C:\Users\SOLDER~1\AppData\Local\Temp\cc0vShlo.s:23275  .debug_str:0000000000014d02 .LASF4316
C:\Users\SOLDER~1\AppData\Local\Temp\cc0vShlo.s:20087  .debug_str:0000000000007ad9 .LASF4317
C:\Users\SOLDER~1\AppData\Local\Temp\cc0vShlo.s:23537  .debug_str:0000000000015dee .LASF4318
C:\Users\SOLDER~1\AppData\Local\Temp\cc0vShlo.s:19667  .debug_str:0000000000005f28 .LASF4319
C:\Users\SOLDER~1\AppData\Local\Temp\cc0vShlo.s:28851  .debug_str:000000000002b8ac .LASF4320
C:\Users\SOLDER~1\AppData\Local\Temp\cc0vShlo.s:27925  .debug_str:0000000000027c87 .LASF4321
C:\Users\SOLDER~1\AppData\Local\Temp\cc0vShlo.s:26433  .debug_str:00000000000219d0 .LASF4322
C:\Users\SOLDER~1\AppData\Local\Temp\cc0vShlo.s:29063  .debug_str:000000000002c67e .LASF4323
C:\Users\SOLDER~1\AppData\Local\Temp\cc0vShlo.s:18649  .debug_str:0000000000001e10 .LASF4324
C:\Users\SOLDER~1\AppData\Local\Temp\cc0vShlo.s:29441  .debug_str:000000000002def2 .LASF4325
C:\Users\SOLDER~1\AppData\Local\Temp\cc0vShlo.s:22419  .debug_str:000000000001140d .LASF4326
C:\Users\SOLDER~1\AppData\Local\Temp\cc0vShlo.s:20133  .debug_str:0000000000007df8 .LASF4327
C:\Users\SOLDER~1\AppData\Local\Temp\cc0vShlo.s:29341  .debug_str:000000000002d880 .LASF4328
C:\Users\SOLDER~1\AppData\Local\Temp\cc0vShlo.s:26635  .debug_str:00000000000226ad .LASF4329
C:\Users\SOLDER~1\AppData\Local\Temp\cc0vShlo.s:25859  .debug_str:000000000001f4f0 .LASF4330
C:\Users\SOLDER~1\AppData\Local\Temp\cc0vShlo.s:18837  .debug_str:0000000000002a5a .LASF4331
C:\Users\SOLDER~1\AppData\Local\Temp\cc0vShlo.s:22863  .debug_str:0000000000013082 .LASF4332
C:\Users\SOLDER~1\AppData\Local\Temp\cc0vShlo.s:25869  .debug_str:000000000001f589 .LASF4333
C:\Users\SOLDER~1\AppData\Local\Temp\cc0vShlo.s:22663  .debug_str:000000000001235a .LASF4334
C:\Users\SOLDER~1\AppData\Local\Temp\cc0vShlo.s:25195  .debug_str:000000000001c94f .LASF4335
C:\Users\SOLDER~1\AppData\Local\Temp\cc0vShlo.s:24759  .debug_str:000000000001accc .LASF4336
C:\Users\SOLDER~1\AppData\Local\Temp\cc0vShlo.s:19739  .debug_str:0000000000006435 .LASF4337
C:\Users\SOLDER~1\AppData\Local\Temp\cc0vShlo.s:25563  .debug_str:000000000001e130 .LASF4338
C:\Users\SOLDER~1\AppData\Local\Temp\cc0vShlo.s:24453  .debug_str:000000000001990b .LASF4339
C:\Users\SOLDER~1\AppData\Local\Temp\cc0vShlo.s:25133  .debug_str:000000000001c51c .LASF4340
C:\Users\SOLDER~1\AppData\Local\Temp\cc0vShlo.s:23951  .debug_str:0000000000017866 .LASF4341
C:\Users\SOLDER~1\AppData\Local\Temp\cc0vShlo.s:25371  .debug_str:000000000001d501 .LASF4342
C:\Users\SOLDER~1\AppData\Local\Temp\cc0vShlo.s:23763  .debug_str:0000000000016bf8 .LASF4343
C:\Users\SOLDER~1\AppData\Local\Temp\cc0vShlo.s:23855  .debug_str:0000000000017226 .LASF4344
C:\Users\SOLDER~1\AppData\Local\Temp\cc0vShlo.s:27121  .debug_str:00000000000246e0 .LASF4345
C:\Users\SOLDER~1\AppData\Local\Temp\cc0vShlo.s:22693  .debug_str:0000000000012585 .LASF4346
C:\Users\SOLDER~1\AppData\Local\Temp\cc0vShlo.s:18941  .debug_str:00000000000030f9 .LASF4347
C:\Users\SOLDER~1\AppData\Local\Temp\cc0vShlo.s:27027  .debug_str:00000000000240a0 .LASF4348
C:\Users\SOLDER~1\AppData\Local\Temp\cc0vShlo.s:28805  .debug_str:000000000002b5c5 .LASF4349
C:\Users\SOLDER~1\AppData\Local\Temp\cc0vShlo.s:26673  .debug_str:0000000000022956 .LASF4350
C:\Users\SOLDER~1\AppData\Local\Temp\cc0vShlo.s:21833  .debug_str:000000000000ede8 .LASF4351
C:\Users\SOLDER~1\AppData\Local\Temp\cc0vShlo.s:23603  .debug_str:0000000000016246 .LASF4352
C:\Users\SOLDER~1\AppData\Local\Temp\cc0vShlo.s:18887  .debug_str:0000000000002d5f .LASF4353
C:\Users\SOLDER~1\AppData\Local\Temp\cc0vShlo.s:24471  .debug_str:0000000000019a44 .LASF4354
C:\Users\SOLDER~1\AppData\Local\Temp\cc0vShlo.s:22861  .debug_str:000000000001305c .LASF4355
C:\Users\SOLDER~1\AppData\Local\Temp\cc0vShlo.s:24835  .debug_str:000000000001b16d .LASF4356
C:\Users\SOLDER~1\AppData\Local\Temp\cc0vShlo.s:26783  .debug_str:000000000002307e .LASF4357
C:\Users\SOLDER~1\AppData\Local\Temp\cc0vShlo.s:21563  .debug_str:000000000000dc1a .LASF4358
C:\Users\SOLDER~1\AppData\Local\Temp\cc0vShlo.s:21941  .debug_str:000000000000f4d0 .LASF4359
C:\Users\SOLDER~1\AppData\Local\Temp\cc0vShlo.s:28769  .debug_str:000000000002b383 .LASF4360
C:\Users\SOLDER~1\AppData\Local\Temp\cc0vShlo.s:18969  .debug_str:00000000000032d2 .LASF4361
C:\Users\SOLDER~1\AppData\Local\Temp\cc0vShlo.s:20493  .debug_str:00000000000095e2 .LASF4362
C:\Users\SOLDER~1\AppData\Local\Temp\cc0vShlo.s:19245  .debug_str:0000000000004478 .LASF4363
C:\Users\SOLDER~1\AppData\Local\Temp\cc0vShlo.s:21087  .debug_str:000000000000bcb0 .LASF4364
GAS LISTING C:\Users\SOLDER~1\AppData\Local\Temp\cc0vShlo.s 			page 87


C:\Users\SOLDER~1\AppData\Local\Temp\cc0vShlo.s:28719  .debug_str:000000000002b078 .LASF4365
C:\Users\SOLDER~1\AppData\Local\Temp\cc0vShlo.s:23889  .debug_str:0000000000017467 .LASF4366
C:\Users\SOLDER~1\AppData\Local\Temp\cc0vShlo.s:29497  .debug_str:000000000002e27c .LASF4367
C:\Users\SOLDER~1\AppData\Local\Temp\cc0vShlo.s:21187  .debug_str:000000000000c36a .LASF4368
C:\Users\SOLDER~1\AppData\Local\Temp\cc0vShlo.s:26467  .debug_str:0000000000021c02 .LASF4369
C:\Users\SOLDER~1\AppData\Local\Temp\cc0vShlo.s:27703  .debug_str:0000000000026df8 .LASF4370
C:\Users\SOLDER~1\AppData\Local\Temp\cc0vShlo.s:20229  .debug_str:000000000000843c .LASF4371
C:\Users\SOLDER~1\AppData\Local\Temp\cc0vShlo.s:29235  .debug_str:000000000002d1ef .LASF4372
C:\Users\SOLDER~1\AppData\Local\Temp\cc0vShlo.s:23235  .debug_str:0000000000014a4b .LASF4373
C:\Users\SOLDER~1\AppData\Local\Temp\cc0vShlo.s:21531  .debug_str:000000000000d9f4 .LASF4374
C:\Users\SOLDER~1\AppData\Local\Temp\cc0vShlo.s:24327  .debug_str:00000000000190f7 .LASF4375
C:\Users\SOLDER~1\AppData\Local\Temp\cc0vShlo.s:23213  .debug_str:00000000000148f0 .LASF4376
C:\Users\SOLDER~1\AppData\Local\Temp\cc0vShlo.s:24595  .debug_str:000000000001a1d1 .LASF4377
C:\Users\SOLDER~1\AppData\Local\Temp\cc0vShlo.s:21415  .debug_str:000000000000d292 .LASF4378
C:\Users\SOLDER~1\AppData\Local\Temp\cc0vShlo.s:25349  .debug_str:000000000001d3b8 .LASF4379
C:\Users\SOLDER~1\AppData\Local\Temp\cc0vShlo.s:27145  .debug_str:0000000000024855 .LASF4380
C:\Users\SOLDER~1\AppData\Local\Temp\cc0vShlo.s:20381  .debug_str:0000000000008e36 .LASF4381
C:\Users\SOLDER~1\AppData\Local\Temp\cc0vShlo.s:20759  .debug_str:000000000000a78b .LASF4382
C:\Users\SOLDER~1\AppData\Local\Temp\cc0vShlo.s:21311  .debug_str:000000000000cbba .LASF4383
C:\Users\SOLDER~1\AppData\Local\Temp\cc0vShlo.s:28277  .debug_str:0000000000029380 .LASF4384
C:\Users\SOLDER~1\AppData\Local\Temp\cc0vShlo.s:24849  .debug_str:000000000001b251 .LASF4385
C:\Users\SOLDER~1\AppData\Local\Temp\cc0vShlo.s:21483  .debug_str:000000000000d715 .LASF4386
C:\Users\SOLDER~1\AppData\Local\Temp\cc0vShlo.s:18357  .debug_str:0000000000000b0e .LASF4387
C:\Users\SOLDER~1\AppData\Local\Temp\cc0vShlo.s:20349  .debug_str:0000000000008be0 .LASF4388
C:\Users\SOLDER~1\AppData\Local\Temp\cc0vShlo.s:23113  .debug_str:000000000001421f .LASF4389
C:\Users\SOLDER~1\AppData\Local\Temp\cc0vShlo.s:19265  .debug_str:00000000000045bf .LASF4390
C:\Users\SOLDER~1\AppData\Local\Temp\cc0vShlo.s:19321  .debug_str:000000000000495f .LASF4391
C:\Users\SOLDER~1\AppData\Local\Temp\cc0vShlo.s:29259  .debug_str:000000000002d34c .LASF4392
C:\Users\SOLDER~1\AppData\Local\Temp\cc0vShlo.s:24197  .debug_str:0000000000018855 .LASF4393
C:\Users\SOLDER~1\AppData\Local\Temp\cc0vShlo.s:29381  .debug_str:000000000002db28 .LASF4394
C:\Users\SOLDER~1\AppData\Local\Temp\cc0vShlo.s:23641  .debug_str:0000000000016496 .LASF4395
C:\Users\SOLDER~1\AppData\Local\Temp\cc0vShlo.s:21397  .debug_str:000000000000d160 .LASF4396
C:\Users\SOLDER~1\AppData\Local\Temp\cc0vShlo.s:20983  .debug_str:000000000000b5e1 .LASF4397
C:\Users\SOLDER~1\AppData\Local\Temp\cc0vShlo.s:28025  .debug_str:0000000000028308 .LASF4398
C:\Users\SOLDER~1\AppData\Local\Temp\cc0vShlo.s:19439  .debug_str:0000000000005090 .LASF4399
C:\Users\SOLDER~1\AppData\Local\Temp\cc0vShlo.s:23025  .debug_str:0000000000013bef .LASF4400
C:\Users\SOLDER~1\AppData\Local\Temp\cc0vShlo.s:24489  .debug_str:0000000000019b60 .LASF4401
C:\Users\SOLDER~1\AppData\Local\Temp\cc0vShlo.s:24411  .debug_str:000000000001968e .LASF4402
C:\Users\SOLDER~1\AppData\Local\Temp\cc0vShlo.s:25259  .debug_str:000000000001cda3 .LASF4403
C:\Users\SOLDER~1\AppData\Local\Temp\cc0vShlo.s:23081  .debug_str:0000000000013fb2 .LASF4404
C:\Users\SOLDER~1\AppData\Local\Temp\cc0vShlo.s:26505  .debug_str:0000000000021e60 .LASF4405
C:\Users\SOLDER~1\AppData\Local\Temp\cc0vShlo.s:27335  .debug_str:00000000000254bf .LASF4406
C:\Users\SOLDER~1\AppData\Local\Temp\cc0vShlo.s:22205  .debug_str:0000000000010615 .LASF4407
C:\Users\SOLDER~1\AppData\Local\Temp\cc0vShlo.s:23675  .debug_str:0000000000016683 .LASF4408
C:\Users\SOLDER~1\AppData\Local\Temp\cc0vShlo.s:26365  .debug_str:000000000002156c .LASF4409
C:\Users\SOLDER~1\AppData\Local\Temp\cc0vShlo.s:20845  .debug_str:000000000000ad04 .LASF4410
C:\Users\SOLDER~1\AppData\Local\Temp\cc0vShlo.s:27091  .debug_str:00000000000244e3 .LASF4411
C:\Users\SOLDER~1\AppData\Local\Temp\cc0vShlo.s:26927  .debug_str:00000000000239f0 .LASF4412
C:\Users\SOLDER~1\AppData\Local\Temp\cc0vShlo.s:27451  .debug_str:0000000000025cfd .LASF4413
C:\Users\SOLDER~1\AppData\Local\Temp\cc0vShlo.s:22199  .debug_str:00000000000105c0 .LASF4414
C:\Users\SOLDER~1\AppData\Local\Temp\cc0vShlo.s:22247  .debug_str:0000000000010905 .LASF4415
C:\Users\SOLDER~1\AppData\Local\Temp\cc0vShlo.s:18777  .debug_str:0000000000002662 .LASF4416
C:\Users\SOLDER~1\AppData\Local\Temp\cc0vShlo.s:23797  .debug_str:0000000000016e2b .LASF4417
C:\Users\SOLDER~1\AppData\Local\Temp\cc0vShlo.s:19143  .debug_str:0000000000003e20 .LASF4418
C:\Users\SOLDER~1\AppData\Local\Temp\cc0vShlo.s:18781  .debug_str:00000000000026a9 .LASF4419
C:\Users\SOLDER~1\AppData\Local\Temp\cc0vShlo.s:20695  .debug_str:000000000000a312 .LASF4420
C:\Users\SOLDER~1\AppData\Local\Temp\cc0vShlo.s:25279  .debug_str:000000000001cecc .LASF4421
GAS LISTING C:\Users\SOLDER~1\AppData\Local\Temp\cc0vShlo.s 			page 88


C:\Users\SOLDER~1\AppData\Local\Temp\cc0vShlo.s:24431  .debug_str:00000000000197a0 .LASF4422
C:\Users\SOLDER~1\AppData\Local\Temp\cc0vShlo.s:22573  .debug_str:0000000000011dc9 .LASF4423
C:\Users\SOLDER~1\AppData\Local\Temp\cc0vShlo.s:25433  .debug_str:000000000001d8a4 .LASF4424
C:\Users\SOLDER~1\AppData\Local\Temp\cc0vShlo.s:19657  .debug_str:0000000000005e85 .LASF4425
C:\Users\SOLDER~1\AppData\Local\Temp\cc0vShlo.s:23201  .debug_str:00000000000147f8 .LASF4426
C:\Users\SOLDER~1\AppData\Local\Temp\cc0vShlo.s:26139  .debug_str:00000000000206ce .LASF4427
C:\Users\SOLDER~1\AppData\Local\Temp\cc0vShlo.s:29575  .debug_str:000000000002e7c1 .LASF4428
C:\Users\SOLDER~1\AppData\Local\Temp\cc0vShlo.s:24681  .debug_str:000000000001a793 .LASF4429
C:\Users\SOLDER~1\AppData\Local\Temp\cc0vShlo.s:29303  .debug_str:000000000002d636 .LASF4430
C:\Users\SOLDER~1\AppData\Local\Temp\cc0vShlo.s:28329  .debug_str:00000000000296c1 .LASF4431
C:\Users\SOLDER~1\AppData\Local\Temp\cc0vShlo.s:24437  .debug_str:000000000001980b .LASF4432
C:\Users\SOLDER~1\AppData\Local\Temp\cc0vShlo.s:24691  .debug_str:000000000001a81e .LASF4433
C:\Users\SOLDER~1\AppData\Local\Temp\cc0vShlo.s:22431  .debug_str:00000000000114f0 .LASF4434
C:\Users\SOLDER~1\AppData\Local\Temp\cc0vShlo.s:29119  .debug_str:000000000002ca14 .LASF4435
C:\Users\SOLDER~1\AppData\Local\Temp\cc0vShlo.s:24405  .debug_str:000000000001963f .LASF4436
C:\Users\SOLDER~1\AppData\Local\Temp\cc0vShlo.s:28001  .debug_str:0000000000028186 .LASF4437
C:\Users\SOLDER~1\AppData\Local\Temp\cc0vShlo.s:26671  .debug_str:0000000000022942 .LASF4438
C:\Users\SOLDER~1\AppData\Local\Temp\cc0vShlo.s:21973  .debug_str:000000000000f6de .LASF4439
C:\Users\SOLDER~1\AppData\Local\Temp\cc0vShlo.s:27291  .debug_str:00000000000251eb .LASF4440
C:\Users\SOLDER~1\AppData\Local\Temp\cc0vShlo.s:23745  .debug_str:0000000000016b11 .LASF4441
C:\Users\SOLDER~1\AppData\Local\Temp\cc0vShlo.s:28081  .debug_str:00000000000286e8 .LASF4442
C:\Users\SOLDER~1\AppData\Local\Temp\cc0vShlo.s:23651  .debug_str:000000000001653c .LASF4443
C:\Users\SOLDER~1\AppData\Local\Temp\cc0vShlo.s:21099  .debug_str:000000000000bd66 .LASF4444
C:\Users\SOLDER~1\AppData\Local\Temp\cc0vShlo.s:23441  .debug_str:00000000000157e0 .LASF4445
C:\Users\SOLDER~1\AppData\Local\Temp\cc0vShlo.s:24199  .debug_str:0000000000018875 .LASF4446
C:\Users\SOLDER~1\AppData\Local\Temp\cc0vShlo.s:21289  .debug_str:000000000000ca3c .LASF4447
C:\Users\SOLDER~1\AppData\Local\Temp\cc0vShlo.s:25009  .debug_str:000000000001bca1 .LASF4448
C:\Users\SOLDER~1\AppData\Local\Temp\cc0vShlo.s:26495  .debug_str:0000000000021dc4 .LASF4449
C:\Users\SOLDER~1\AppData\Local\Temp\cc0vShlo.s:28179  .debug_str:0000000000028cf9 .LASF4450
C:\Users\SOLDER~1\AppData\Local\Temp\cc0vShlo.s:26241  .debug_str:0000000000020d58 .LASF4451
C:\Users\SOLDER~1\AppData\Local\Temp\cc0vShlo.s:24785  .debug_str:000000000001ae6a .LASF4452
C:\Users\SOLDER~1\AppData\Local\Temp\cc0vShlo.s:22959  .debug_str:00000000000136f7 .LASF4453
C:\Users\SOLDER~1\AppData\Local\Temp\cc0vShlo.s:25243  .debug_str:000000000001cca5 .LASF4454
C:\Users\SOLDER~1\AppData\Local\Temp\cc0vShlo.s:22599  .debug_str:0000000000011f7d .LASF4455
C:\Users\SOLDER~1\AppData\Local\Temp\cc0vShlo.s:27619  .debug_str:0000000000026877 .LASF4456
C:\Users\SOLDER~1\AppData\Local\Temp\cc0vShlo.s:22069  .debug_str:000000000000fdb4 .LASF4457
C:\Users\SOLDER~1\AppData\Local\Temp\cc0vShlo.s:28435  .debug_str:0000000000029dc2 .LASF4458
C:\Users\SOLDER~1\AppData\Local\Temp\cc0vShlo.s:27325  .debug_str:0000000000025420 .LASF4459
C:\Users\SOLDER~1\AppData\Local\Temp\cc0vShlo.s:28363  .debug_str:00000000000298d8 .LASF4460
C:\Users\SOLDER~1\AppData\Local\Temp\cc0vShlo.s:22493  .debug_str:00000000000118d7 .LASF4461
C:\Users\SOLDER~1\AppData\Local\Temp\cc0vShlo.s:23805  .debug_str:0000000000016ebe .LASF4462
C:\Users\SOLDER~1\AppData\Local\Temp\cc0vShlo.s:24619  .debug_str:000000000001a388 .LASF4463
C:\Users\SOLDER~1\AppData\Local\Temp\cc0vShlo.s:26915  .debug_str:000000000002391f .LASF4464
C:\Users\SOLDER~1\AppData\Local\Temp\cc0vShlo.s:24983  .debug_str:000000000001bacd .LASF4465
C:\Users\SOLDER~1\AppData\Local\Temp\cc0vShlo.s:24593  .debug_str:000000000001a1ba .LASF4466
C:\Users\SOLDER~1\AppData\Local\Temp\cc0vShlo.s:24299  .debug_str:0000000000018f4e .LASF4467
C:\Users\SOLDER~1\AppData\Local\Temp\cc0vShlo.s:25155  .debug_str:000000000001c691 .LASF4468
C:\Users\SOLDER~1\AppData\Local\Temp\cc0vShlo.s:23723  .debug_str:00000000000169ab .LASF4469
C:\Users\SOLDER~1\AppData\Local\Temp\cc0vShlo.s:28083  .debug_str:00000000000286f9 .LASF4470
C:\Users\SOLDER~1\AppData\Local\Temp\cc0vShlo.s:28839  .debug_str:000000000002b7eb .LASF4471
C:\Users\SOLDER~1\AppData\Local\Temp\cc0vShlo.s:19377  .debug_str:0000000000004ce9 .LASF4472
C:\Users\SOLDER~1\AppData\Local\Temp\cc0vShlo.s:29233  .debug_str:000000000002d1d8 .LASF4473
C:\Users\SOLDER~1\AppData\Local\Temp\cc0vShlo.s:22137  .debug_str:00000000000101d4 .LASF4474
C:\Users\SOLDER~1\AppData\Local\Temp\cc0vShlo.s:28521  .debug_str:000000000002a36d .LASF4475
C:\Users\SOLDER~1\AppData\Local\Temp\cc0vShlo.s:23885  .debug_str:000000000001742c .LASF4476
C:\Users\SOLDER~1\AppData\Local\Temp\cc0vShlo.s:25443  .debug_str:000000000001d944 .LASF4477
C:\Users\SOLDER~1\AppData\Local\Temp\cc0vShlo.s:27731  .debug_str:0000000000026fba .LASF4478
GAS LISTING C:\Users\SOLDER~1\AppData\Local\Temp\cc0vShlo.s 			page 89


C:\Users\SOLDER~1\AppData\Local\Temp\cc0vShlo.s:26453  .debug_str:0000000000021b21 .LASF4479
C:\Users\SOLDER~1\AppData\Local\Temp\cc0vShlo.s:26381  .debug_str:0000000000021670 .LASF4480
C:\Users\SOLDER~1\AppData\Local\Temp\cc0vShlo.s:22453  .debug_str:0000000000011624 .LASF4481
C:\Users\SOLDER~1\AppData\Local\Temp\cc0vShlo.s:29399  .debug_str:000000000002dc60 .LASF4482
C:\Users\SOLDER~1\AppData\Local\Temp\cc0vShlo.s:20715  .debug_str:000000000000a44f .LASF4483
C:\Users\SOLDER~1\AppData\Local\Temp\cc0vShlo.s:28421  .debug_str:0000000000029ccb .LASF4484
C:\Users\SOLDER~1\AppData\Local\Temp\cc0vShlo.s:19859  .debug_str:0000000000006c11 .LASF4485
C:\Users\SOLDER~1\AppData\Local\Temp\cc0vShlo.s:24899  .debug_str:000000000001b57f .LASF4486
C:\Users\SOLDER~1\AppData\Local\Temp\cc0vShlo.s:29181  .debug_str:000000000002ce54 .LASF4487
C:\Users\SOLDER~1\AppData\Local\Temp\cc0vShlo.s:28743  .debug_str:000000000002b1e2 .LASF4488
C:\Users\SOLDER~1\AppData\Local\Temp\cc0vShlo.s:24797  .debug_str:000000000001af01 .LASF4489
C:\Users\SOLDER~1\AppData\Local\Temp\cc0vShlo.s:22949  .debug_str:0000000000013667 .LASF4490
C:\Users\SOLDER~1\AppData\Local\Temp\cc0vShlo.s:23517  .debug_str:0000000000015caf .LASF4491
C:\Users\SOLDER~1\AppData\Local\Temp\cc0vShlo.s:22705  .debug_str:000000000001263d .LASF4492
C:\Users\SOLDER~1\AppData\Local\Temp\cc0vShlo.s:28597  .debug_str:000000000002a82a .LASF4493
C:\Users\SOLDER~1\AppData\Local\Temp\cc0vShlo.s:23817  .debug_str:0000000000016f7a .LASF4494
C:\Users\SOLDER~1\AppData\Local\Temp\cc0vShlo.s:27351  .debug_str:00000000000255d9 .LASF4495
C:\Users\SOLDER~1\AppData\Local\Temp\cc0vShlo.s:23949  .debug_str:000000000001782d .LASF4496
C:\Users\SOLDER~1\AppData\Local\Temp\cc0vShlo.s:26111  .debug_str:00000000000204f3 .LASF4497
C:\Users\SOLDER~1\AppData\Local\Temp\cc0vShlo.s:29263  .debug_str:000000000002d37b .LASF4498
C:\Users\SOLDER~1\AppData\Local\Temp\cc0vShlo.s:23225  .debug_str:00000000000149a3 .LASF4499
C:\Users\SOLDER~1\AppData\Local\Temp\cc0vShlo.s:24351  .debug_str:0000000000019293 .LASF4500
C:\Users\SOLDER~1\AppData\Local\Temp\cc0vShlo.s:25519  .debug_str:000000000001de58 .LASF4501
C:\Users\SOLDER~1\AppData\Local\Temp\cc0vShlo.s:26599  .debug_str:0000000000022447 .LASF4502
C:\Users\SOLDER~1\AppData\Local\Temp\cc0vShlo.s:25053  .debug_str:000000000001bf7e .LASF4503
C:\Users\SOLDER~1\AppData\Local\Temp\cc0vShlo.s:27825  .debug_str:00000000000275e8 .LASF4504
C:\Users\SOLDER~1\AppData\Local\Temp\cc0vShlo.s:26641  .debug_str:0000000000022712 .LASF4505
C:\Users\SOLDER~1\AppData\Local\Temp\cc0vShlo.s:18611  .debug_str:0000000000001b6c .LASF4506
C:\Users\SOLDER~1\AppData\Local\Temp\cc0vShlo.s:27383  .debug_str:0000000000025824 .LASF4507
C:\Users\SOLDER~1\AppData\Local\Temp\cc0vShlo.s:19767  .debug_str:00000000000065fa .LASF4508
C:\Users\SOLDER~1\AppData\Local\Temp\cc0vShlo.s:22409  .debug_str:0000000000011340 .LASF4509
C:\Users\SOLDER~1\AppData\Local\Temp\cc0vShlo.s:24865  .debug_str:000000000001b36f .LASF4510
C:\Users\SOLDER~1\AppData\Local\Temp\cc0vShlo.s:19137  .debug_str:0000000000003db8 .LASF4511
C:\Users\SOLDER~1\AppData\Local\Temp\cc0vShlo.s:26377  .debug_str:0000000000021639 .LASF4512
C:\Users\SOLDER~1\AppData\Local\Temp\cc0vShlo.s:26461  .debug_str:0000000000021b9c .LASF4513
C:\Users\SOLDER~1\AppData\Local\Temp\cc0vShlo.s:25967  .debug_str:000000000001fba4 .LASF4514
C:\Users\SOLDER~1\AppData\Local\Temp\cc0vShlo.s:20579  .debug_str:0000000000009b68 .LASF4515
C:\Users\SOLDER~1\AppData\Local\Temp\cc0vShlo.s:23377  .debug_str:00000000000153a9 .LASF4516
C:\Users\SOLDER~1\AppData\Local\Temp\cc0vShlo.s:25821  .debug_str:000000000001f22e .LASF4517
C:\Users\SOLDER~1\AppData\Local\Temp\cc0vShlo.s:29623  .debug_str:000000000002eaab .LASF4518
C:\Users\SOLDER~1\AppData\Local\Temp\cc0vShlo.s:25571  .debug_str:000000000001e1a8 .LASF4519
C:\Users\SOLDER~1\AppData\Local\Temp\cc0vShlo.s:18481  .debug_str:00000000000012ff .LASF4520
C:\Users\SOLDER~1\AppData\Local\Temp\cc0vShlo.s:22171  .debug_str:000000000001042e .LASF4521
C:\Users\SOLDER~1\AppData\Local\Temp\cc0vShlo.s:21285  .debug_str:000000000000ca00 .LASF4522
C:\Users\SOLDER~1\AppData\Local\Temp\cc0vShlo.s:27263  .debug_str:0000000000025008 .LASF4523
C:\Users\SOLDER~1\AppData\Local\Temp\cc0vShlo.s:21473  .debug_str:000000000000d675 .LASF4524
C:\Users\SOLDER~1\AppData\Local\Temp\cc0vShlo.s:28815  .debug_str:000000000002b661 .LASF4525
C:\Users\SOLDER~1\AppData\Local\Temp\cc0vShlo.s:24281  .debug_str:0000000000018e17 .LASF4526
C:\Users\SOLDER~1\AppData\Local\Temp\cc0vShlo.s:23309  .debug_str:0000000000014f04 .LASF4527
C:\Users\SOLDER~1\AppData\Local\Temp\cc0vShlo.s:27211  .debug_str:0000000000024ccb .LASF4528
C:\Users\SOLDER~1\AppData\Local\Temp\cc0vShlo.s:28683  .debug_str:000000000002adc1 .LASF4529
C:\Users\SOLDER~1\AppData\Local\Temp\cc0vShlo.s:20975  .debug_str:000000000000b575 .LASF4530
C:\Users\SOLDER~1\AppData\Local\Temp\cc0vShlo.s:27149  .debug_str:0000000000024898 .LASF4531
C:\Users\SOLDER~1\AppData\Local\Temp\cc0vShlo.s:26791  .debug_str:00000000000230f8 .LASF4532
C:\Users\SOLDER~1\AppData\Local\Temp\cc0vShlo.s:25293  .debug_str:000000000001cfe4 .LASF4533
C:\Users\SOLDER~1\AppData\Local\Temp\cc0vShlo.s:27449  .debug_str:0000000000025cc4 .LASF4534
C:\Users\SOLDER~1\AppData\Local\Temp\cc0vShlo.s:28903  .debug_str:000000000002bbfe .LASF4535
GAS LISTING C:\Users\SOLDER~1\AppData\Local\Temp\cc0vShlo.s 			page 90


C:\Users\SOLDER~1\AppData\Local\Temp\cc0vShlo.s:23629  .debug_str:00000000000163d9 .LASF4536
C:\Users\SOLDER~1\AppData\Local\Temp\cc0vShlo.s:19329  .debug_str:00000000000049d6 .LASF4537
C:\Users\SOLDER~1\AppData\Local\Temp\cc0vShlo.s:21895  .debug_str:000000000000f1c8 .LASF4538
C:\Users\SOLDER~1\AppData\Local\Temp\cc0vShlo.s:22879  .debug_str:00000000000131b2 .LASF4539
C:\Users\SOLDER~1\AppData\Local\Temp\cc0vShlo.s:25153  .debug_str:000000000001c656 .LASF4540
C:\Users\SOLDER~1\AppData\Local\Temp\cc0vShlo.s:25125  .debug_str:000000000001c46a .LASF4541
C:\Users\SOLDER~1\AppData\Local\Temp\cc0vShlo.s:23093  .debug_str:0000000000014083 .LASF4542
C:\Users\SOLDER~1\AppData\Local\Temp\cc0vShlo.s:28955  .debug_str:000000000002bfb7 .LASF4543
C:\Users\SOLDER~1\AppData\Local\Temp\cc0vShlo.s:28927  .debug_str:000000000002bdb3 .LASF4544
C:\Users\SOLDER~1\AppData\Local\Temp\cc0vShlo.s:27153  .debug_str:00000000000248f4 .LASF4545
C:\Users\SOLDER~1\AppData\Local\Temp\cc0vShlo.s:21621  .debug_str:000000000000e01d .LASF4546
C:\Users\SOLDER~1\AppData\Local\Temp\cc0vShlo.s:19771  .debug_str:0000000000006658 .LASF4547
C:\Users\SOLDER~1\AppData\Local\Temp\cc0vShlo.s:19829  .debug_str:0000000000006a46 .LASF4548
C:\Users\SOLDER~1\AppData\Local\Temp\cc0vShlo.s:22853  .debug_str:0000000000012ff7 .LASF4549
C:\Users\SOLDER~1\AppData\Local\Temp\cc0vShlo.s:24613  .debug_str:000000000001a330 .LASF4550
C:\Users\SOLDER~1\AppData\Local\Temp\cc0vShlo.s:25023  .debug_str:000000000001bda4 .LASF4551
C:\Users\SOLDER~1\AppData\Local\Temp\cc0vShlo.s:24143  .debug_str:00000000000184f4 .LASF4552
C:\Users\SOLDER~1\AppData\Local\Temp\cc0vShlo.s:28287  .debug_str:000000000002943e .LASF4553
C:\Users\SOLDER~1\AppData\Local\Temp\cc0vShlo.s:18215  .debug_str:000000000000010c .LASF4554
C:\Users\SOLDER~1\AppData\Local\Temp\cc0vShlo.s:26439  .debug_str:0000000000021a27 .LASF4555
C:\Users\SOLDER~1\AppData\Local\Temp\cc0vShlo.s:26183  .debug_str:00000000000209ae .LASF4556
C:\Users\SOLDER~1\AppData\Local\Temp\cc0vShlo.s:24121  .debug_str:000000000001838c .LASF4557
C:\Users\SOLDER~1\AppData\Local\Temp\cc0vShlo.s:28795  .debug_str:000000000002b522 .LASF4558
C:\Users\SOLDER~1\AppData\Local\Temp\cc0vShlo.s:22111  .debug_str:0000000000010045 .LASF4559
C:\Users\SOLDER~1\AppData\Local\Temp\cc0vShlo.s:22201  .debug_str:00000000000105e1 .LASF4560
C:\Users\SOLDER~1\AppData\Local\Temp\cc0vShlo.s:22301  .debug_str:0000000000010c5d .LASF4561
C:\Users\SOLDER~1\AppData\Local\Temp\cc0vShlo.s:22443  .debug_str:00000000000115aa .LASF4562
C:\Users\SOLDER~1\AppData\Local\Temp\cc0vShlo.s:22175  .debug_str:0000000000010471 .LASF4563
C:\Users\SOLDER~1\AppData\Local\Temp\cc0vShlo.s:20619  .debug_str:0000000000009e08 .LASF4564
C:\Users\SOLDER~1\AppData\Local\Temp\cc0vShlo.s:19995  .debug_str:0000000000007531 .LASF4565
C:\Users\SOLDER~1\AppData\Local\Temp\cc0vShlo.s:19285  .debug_str:0000000000004715 .LASF4566
C:\Users\SOLDER~1\AppData\Local\Temp\cc0vShlo.s:22615  .debug_str:0000000000012077 .LASF4567
C:\Users\SOLDER~1\AppData\Local\Temp\cc0vShlo.s:27781  .debug_str:000000000002731e .LASF4568
C:\Users\SOLDER~1\AppData\Local\Temp\cc0vShlo.s:23593  .debug_str:0000000000016193 .LASF4569
C:\Users\SOLDER~1\AppData\Local\Temp\cc0vShlo.s:25273  .debug_str:000000000001ce71 .LASF4570
C:\Users\SOLDER~1\AppData\Local\Temp\cc0vShlo.s:25463  .debug_str:000000000001daa3 .LASF4571
C:\Users\SOLDER~1\AppData\Local\Temp\cc0vShlo.s:22333  .debug_str:0000000000010e67 .LASF4572
C:\Users\SOLDER~1\AppData\Local\Temp\cc0vShlo.s:23911  .debug_str:00000000000175de .LASF4573
C:\Users\SOLDER~1\AppData\Local\Temp\cc0vShlo.s:28799  .debug_str:000000000002b56f .LASF4574
C:\Users\SOLDER~1\AppData\Local\Temp\cc0vShlo.s:25455  .debug_str:000000000001da15 .LASF4575
C:\Users\SOLDER~1\AppData\Local\Temp\cc0vShlo.s:18755  .debug_str:0000000000002528 .LASF4576
C:\Users\SOLDER~1\AppData\Local\Temp\cc0vShlo.s:20809  .debug_str:000000000000aabe .LASF4577
C:\Users\SOLDER~1\AppData\Local\Temp\cc0vShlo.s:20769  .debug_str:000000000000a827 .LASF4578
C:\Users\SOLDER~1\AppData\Local\Temp\cc0vShlo.s:25037  .debug_str:000000000001be7f .LASF4579
C:\Users\SOLDER~1\AppData\Local\Temp\cc0vShlo.s:22249  .debug_str:0000000000010925 .LASF4580
C:\Users\SOLDER~1\AppData\Local\Temp\cc0vShlo.s:24953  .debug_str:000000000001b900 .LASF4581
C:\Users\SOLDER~1\AppData\Local\Temp\cc0vShlo.s:27835  .debug_str:0000000000027693 .LASF4582
C:\Users\SOLDER~1\AppData\Local\Temp\cc0vShlo.s:21125  .debug_str:000000000000bf11 .LASF4583
C:\Users\SOLDER~1\AppData\Local\Temp\cc0vShlo.s:20017  .debug_str:000000000000768d .LASF4584
C:\Users\SOLDER~1\AppData\Local\Temp\cc0vShlo.s:23981  .debug_str:0000000000017a46 .LASF4585
C:\Users\SOLDER~1\AppData\Local\Temp\cc0vShlo.s:24887  .debug_str:000000000001b4d1 .LASF4586
C:\Users\SOLDER~1\AppData\Local\Temp\cc0vShlo.s:19543  .debug_str:000000000000570c .LASF4587
C:\Users\SOLDER~1\AppData\Local\Temp\cc0vShlo.s:20113  .debug_str:0000000000007cb0 .LASF4588
C:\Users\SOLDER~1\AppData\Local\Temp\cc0vShlo.s:20319  .debug_str:00000000000089ff .LASF4589
C:\Users\SOLDER~1\AppData\Local\Temp\cc0vShlo.s:25601  .debug_str:000000000001e386 .LASF4590
C:\Users\SOLDER~1\AppData\Local\Temp\cc0vShlo.s:29099  .debug_str:000000000002c8be .LASF4591
C:\Users\SOLDER~1\AppData\Local\Temp\cc0vShlo.s:20035  .debug_str:0000000000007777 .LASF4594
GAS LISTING C:\Users\SOLDER~1\AppData\Local\Temp\cc0vShlo.s 			page 91


C:\Users\SOLDER~1\AppData\Local\Temp\cc0vShlo.s:24655  .debug_str:000000000001a5b3 .LASF4595
C:\Users\SOLDER~1\AppData\Local\Temp\cc0vShlo.s:22973  .debug_str:0000000000013820 .LASF4596
C:\Users\SOLDER~1\AppData\Local\Temp\cc0vShlo.s:24735  .debug_str:000000000001ab06 .LASF4597
C:\Users\SOLDER~1\AppData\Local\Temp\cc0vShlo.s:26391  .debug_str:0000000000021710 .LASF4598
C:\Users\SOLDER~1\AppData\Local\Temp\cc0vShlo.s:23363  .debug_str:00000000000152a7 .LASF4599
C:\Users\SOLDER~1\AppData\Local\Temp\cc0vShlo.s:28705  .debug_str:000000000002af87 .LASF4600
C:\Users\SOLDER~1\AppData\Local\Temp\cc0vShlo.s:23705  .debug_str:0000000000016876 .LASF4601
C:\Users\SOLDER~1\AppData\Local\Temp\cc0vShlo.s:21323  .debug_str:000000000000cc75 .LASF4602
C:\Users\SOLDER~1\AppData\Local\Temp\cc0vShlo.s:23095  .debug_str:00000000000140bd .LASF4603
C:\Users\SOLDER~1\AppData\Local\Temp\cc0vShlo.s:21977  .debug_str:000000000000f714 .LASF4604
C:\Users\SOLDER~1\AppData\Local\Temp\cc0vShlo.s:28429  .debug_str:0000000000029d3e .LASF4605
C:\Users\SOLDER~1\AppData\Local\Temp\cc0vShlo.s:29531  .debug_str:000000000002e4ad .LASF4606
C:\Users\SOLDER~1\AppData\Local\Temp\cc0vShlo.s:26925  .debug_str:00000000000239bc .LASF4607
C:\Users\SOLDER~1\AppData\Local\Temp\cc0vShlo.s:20705  .debug_str:000000000000a3ac .LASF4608
C:\Users\SOLDER~1\AppData\Local\Temp\cc0vShlo.s:22865  .debug_str:000000000001309a .LASF4609
C:\Users\SOLDER~1\AppData\Local\Temp\cc0vShlo.s:26909  .debug_str:00000000000238a2 .LASF4610
C:\Users\SOLDER~1\AppData\Local\Temp\cc0vShlo.s:19891  .debug_str:0000000000006e3e .LASF4611
C:\Users\SOLDER~1\AppData\Local\Temp\cc0vShlo.s:25843  .debug_str:000000000001f3d0 .LASF4612
C:\Users\SOLDER~1\AppData\Local\Temp\cc0vShlo.s:19123  .debug_str:0000000000003cc5 .LASF4613
C:\Users\SOLDER~1\AppData\Local\Temp\cc0vShlo.s:27553  .debug_str:00000000000263e4 .LASF4614
C:\Users\SOLDER~1\AppData\Local\Temp\cc0vShlo.s:20309  .debug_str:0000000000008951 .LASF4615
C:\Users\SOLDER~1\AppData\Local\Temp\cc0vShlo.s:27607  .debug_str:0000000000026781 .LASF4616
C:\Users\SOLDER~1\AppData\Local\Temp\cc0vShlo.s:19899  .debug_str:0000000000006eea .LASF4617
C:\Users\SOLDER~1\AppData\Local\Temp\cc0vShlo.s:18863  .debug_str:0000000000002bc4 .LASF4618
C:\Users\SOLDER~1\AppData\Local\Temp\cc0vShlo.s:20915  .debug_str:000000000000b15f .LASF4619
C:\Users\SOLDER~1\AppData\Local\Temp\cc0vShlo.s:21033  .debug_str:000000000000b91b .LASF4620
C:\Users\SOLDER~1\AppData\Local\Temp\cc0vShlo.s:27057  .debug_str:000000000002428a .LASF4621
C:\Users\SOLDER~1\AppData\Local\Temp\cc0vShlo.s:28177  .debug_str:0000000000028cdb .LASF4622
C:\Users\SOLDER~1\AppData\Local\Temp\cc0vShlo.s:24065  .debug_str:0000000000018013 .LASF4623
C:\Users\SOLDER~1\AppData\Local\Temp\cc0vShlo.s:22107  .debug_str:0000000000010015 .LASF4624
C:\Users\SOLDER~1\AppData\Local\Temp\cc0vShlo.s:28587  .debug_str:000000000002a785 .LASF4625
C:\Users\SOLDER~1\AppData\Local\Temp\cc0vShlo.s:23741  .debug_str:0000000000016acf .LASF4626
C:\Users\SOLDER~1\AppData\Local\Temp\cc0vShlo.s:25695  .debug_str:000000000001e9eb .LASF4627
C:\Users\SOLDER~1\AppData\Local\Temp\cc0vShlo.s:23071  .debug_str:0000000000013f1f .LASF4628
C:\Users\SOLDER~1\AppData\Local\Temp\cc0vShlo.s:20495  .debug_str:00000000000095fc .LASF4629
C:\Users\SOLDER~1\AppData\Local\Temp\cc0vShlo.s:25587  .debug_str:000000000001e294 .LASF4630
C:\Users\SOLDER~1\AppData\Local\Temp\cc0vShlo.s:26555  .debug_str:000000000002213e .LASF4631
C:\Users\SOLDER~1\AppData\Local\Temp\cc0vShlo.s:25399  .debug_str:000000000001d6a9 .LASF4632
C:\Users\SOLDER~1\AppData\Local\Temp\cc0vShlo.s:29217  .debug_str:000000000002d0c1 .LASF4633
C:\Users\SOLDER~1\AppData\Local\Temp\cc0vShlo.s:26521  .debug_str:0000000000021f5c .LASF4634
C:\Users\SOLDER~1\AppData\Local\Temp\cc0vShlo.s:18219  .debug_str:0000000000000130 .LASF4635
C:\Users\SOLDER~1\AppData\Local\Temp\cc0vShlo.s:23847  .debug_str:000000000001719a .LASF4636
C:\Users\SOLDER~1\AppData\Local\Temp\cc0vShlo.s:22943  .debug_str:00000000000135f8 .LASF4637
C:\Users\SOLDER~1\AppData\Local\Temp\cc0vShlo.s:22919  .debug_str:000000000001344e .LASF4638
C:\Users\SOLDER~1\AppData\Local\Temp\cc0vShlo.s:22921  .debug_str:000000000001347f .LASF4639
C:\Users\SOLDER~1\AppData\Local\Temp\cc0vShlo.s:28425  .debug_str:0000000000029cf9 .LASF4640
C:\Users\SOLDER~1\AppData\Local\Temp\cc0vShlo.s:27909  .debug_str:0000000000027b72 .LASF4641
C:\Users\SOLDER~1\AppData\Local\Temp\cc0vShlo.s:29645  .debug_str:000000000002ec09 .LASF4642
C:\Users\SOLDER~1\AppData\Local\Temp\cc0vShlo.s:26509  .debug_str:0000000000021ea3 .LASF4643
C:\Users\SOLDER~1\AppData\Local\Temp\cc0vShlo.s:21453  .debug_str:000000000000d516 .LASF4644
C:\Users\SOLDER~1\AppData\Local\Temp\cc0vShlo.s:25505  .debug_str:000000000001dd9b .LASF4645
C:\Users\SOLDER~1\AppData\Local\Temp\cc0vShlo.s:21485  .debug_str:000000000000d738 .LASF4646
C:\Users\SOLDER~1\AppData\Local\Temp\cc0vShlo.s:24959  .debug_str:000000000001b95a .LASF4647
C:\Users\SOLDER~1\AppData\Local\Temp\cc0vShlo.s:22067  .debug_str:000000000000fd8b .LASF4648
C:\Users\SOLDER~1\AppData\Local\Temp\cc0vShlo.s:21327  .debug_str:000000000000ccc9 .LASF4649
C:\Users\SOLDER~1\AppData\Local\Temp\cc0vShlo.s:18645  .debug_str:0000000000001dc7 .LASF4650
C:\Users\SOLDER~1\AppData\Local\Temp\cc0vShlo.s:21357  .debug_str:000000000000ce9f .LASF4651
GAS LISTING C:\Users\SOLDER~1\AppData\Local\Temp\cc0vShlo.s 			page 92


C:\Users\SOLDER~1\AppData\Local\Temp\cc0vShlo.s:24599  .debug_str:000000000001a219 .LASF4652
C:\Users\SOLDER~1\AppData\Local\Temp\cc0vShlo.s:26793  .debug_str:0000000000023132 .LASF4653
C:\Users\SOLDER~1\AppData\Local\Temp\cc0vShlo.s:22989  .debug_str:0000000000013952 .LASF4654
C:\Users\SOLDER~1\AppData\Local\Temp\cc0vShlo.s:20211  .debug_str:0000000000008320 .LASF4655
C:\Users\SOLDER~1\AppData\Local\Temp\cc0vShlo.s:25035  .debug_str:000000000001be47 .LASF4656
C:\Users\SOLDER~1\AppData\Local\Temp\cc0vShlo.s:22037  .debug_str:000000000000fb69 .LASF4657
C:\Users\SOLDER~1\AppData\Local\Temp\cc0vShlo.s:20601  .debug_str:0000000000009cad .LASF4658
C:\Users\SOLDER~1\AppData\Local\Temp\cc0vShlo.s:21303  .debug_str:000000000000cb1e .LASF4659
C:\Users\SOLDER~1\AppData\Local\Temp\cc0vShlo.s:28387  .debug_str:0000000000029a64 .LASF4660
C:\Users\SOLDER~1\AppData\Local\Temp\cc0vShlo.s:25187  .debug_str:000000000001c8a6 .LASF4661
C:\Users\SOLDER~1\AppData\Local\Temp\cc0vShlo.s:24519  .debug_str:0000000000019d1e .LASF4662
C:\Users\SOLDER~1\AppData\Local\Temp\cc0vShlo.s:18207  .debug_str:000000000000006c .LASF4663
C:\Users\SOLDER~1\AppData\Local\Temp\cc0vShlo.s:22537  .debug_str:0000000000011b8b .LASF4664
C:\Users\SOLDER~1\AppData\Local\Temp\cc0vShlo.s:24383  .debug_str:00000000000194cc .LASF4665
C:\Users\SOLDER~1\AppData\Local\Temp\cc0vShlo.s:28941  .debug_str:000000000002bece .LASF4666
C:\Users\SOLDER~1\AppData\Local\Temp\cc0vShlo.s:18495  .debug_str:00000000000013f7 .LASF4667
C:\Users\SOLDER~1\AppData\Local\Temp\cc0vShlo.s:18291  .debug_str:00000000000005dd .LASF4668
C:\Users\SOLDER~1\AppData\Local\Temp\cc0vShlo.s:19789  .debug_str:00000000000067ae .LASF4669
C:\Users\SOLDER~1\AppData\Local\Temp\cc0vShlo.s:21631  .debug_str:000000000000e0e0 .LASF4670
C:\Users\SOLDER~1\AppData\Local\Temp\cc0vShlo.s:18625  .debug_str:0000000000001c6a .LASF4671
C:\Users\SOLDER~1\AppData\Local\Temp\cc0vShlo.s:18531  .debug_str:0000000000001648 .LASF4672
C:\Users\SOLDER~1\AppData\Local\Temp\cc0vShlo.s:25841  .debug_str:000000000001f38f .LASF4673
C:\Users\SOLDER~1\AppData\Local\Temp\cc0vShlo.s:23599  .debug_str:00000000000161ea .LASF4674
C:\Users\SOLDER~1\AppData\Local\Temp\cc0vShlo.s:19287  .debug_str:0000000000004728 .LASF4675
C:\Users\SOLDER~1\AppData\Local\Temp\cc0vShlo.s:22679  .debug_str:0000000000012487 .LASF4676
C:\Users\SOLDER~1\AppData\Local\Temp\cc0vShlo.s:22013  .debug_str:000000000000f9b5 .LASF4677
C:\Users\SOLDER~1\AppData\Local\Temp\cc0vShlo.s:20161  .debug_str:0000000000007fd4 .LASF4678
C:\Users\SOLDER~1\AppData\Local\Temp\cc0vShlo.s:27101  .debug_str:000000000002458a .LASF4679
C:\Users\SOLDER~1\AppData\Local\Temp\cc0vShlo.s:23241  .debug_str:0000000000014abc .LASF4680
C:\Users\SOLDER~1\AppData\Local\Temp\cc0vShlo.s:18879  .debug_str:0000000000002ce0 .LASF4681
C:\Users\SOLDER~1\AppData\Local\Temp\cc0vShlo.s:19795  .debug_str:000000000000683a .LASF4682
C:\Users\SOLDER~1\AppData\Local\Temp\cc0vShlo.s:18591  .debug_str:0000000000001a22 .LASF4683
C:\Users\SOLDER~1\AppData\Local\Temp\cc0vShlo.s:21195  .debug_str:000000000000c3f5 .LASF4684
C:\Users\SOLDER~1\AppData\Local\Temp\cc0vShlo.s:28383  .debug_str:0000000000029a26 .LASF4685
C:\Users\SOLDER~1\AppData\Local\Temp\cc0vShlo.s:27855  .debug_str:00000000000277c4 .LASF4686
C:\Users\SOLDER~1\AppData\Local\Temp\cc0vShlo.s:25341  .debug_str:000000000001d32e .LASF4687
C:\Users\SOLDER~1\AppData\Local\Temp\cc0vShlo.s:27921  .debug_str:0000000000027c46 .LASF4688
C:\Users\SOLDER~1\AppData\Local\Temp\cc0vShlo.s:25929  .debug_str:000000000001f959 .LASF4689
C:\Users\SOLDER~1\AppData\Local\Temp\cc0vShlo.s:27381  .debug_str:00000000000257f2 .LASF4690
C:\Users\SOLDER~1\AppData\Local\Temp\cc0vShlo.s:18471  .debug_str:0000000000001268 .LASF4691
C:\Users\SOLDER~1\AppData\Local\Temp\cc0vShlo.s:25781  .debug_str:000000000001ef86 .LASF4692
C:\Users\SOLDER~1\AppData\Local\Temp\cc0vShlo.s:26631  .debug_str:000000000002266c .LASF4693
C:\Users\SOLDER~1\AppData\Local\Temp\cc0vShlo.s:28181  .debug_str:0000000000028d10 .LASF4694
C:\Users\SOLDER~1\AppData\Local\Temp\cc0vShlo.s:25381  .debug_str:000000000001d58d .LASF4695
C:\Users\SOLDER~1\AppData\Local\Temp\cc0vShlo.s:18567  .debug_str:000000000000187b .LASF4696
C:\Users\SOLDER~1\AppData\Local\Temp\cc0vShlo.s:23227  .debug_str:00000000000149da .LASF4697
C:\Users\SOLDER~1\AppData\Local\Temp\cc0vShlo.s:20063  .debug_str:0000000000007953 .LASF4698
C:\Users\SOLDER~1\AppData\Local\Temp\cc0vShlo.s:28673  .debug_str:000000000002ad16 .LASF4699
C:\Users\SOLDER~1\AppData\Local\Temp\cc0vShlo.s:25207  .debug_str:000000000001ca2d .LASF4700
C:\Users\SOLDER~1\AppData\Local\Temp\cc0vShlo.s:20545  .debug_str:0000000000009944 .LASF4701
C:\Users\SOLDER~1\AppData\Local\Temp\cc0vShlo.s:18869  .debug_str:0000000000002c33 .LASF4702
C:\Users\SOLDER~1\AppData\Local\Temp\cc0vShlo.s:24381  .debug_str:00000000000194b0 .LASF4703
C:\Users\SOLDER~1\AppData\Local\Temp\cc0vShlo.s:27105  .debug_str:00000000000245d0 .LASF4704
C:\Users\SOLDER~1\AppData\Local\Temp\cc0vShlo.s:24029  .debug_str:0000000000017d83 .LASF4705
C:\Users\SOLDER~1\AppData\Local\Temp\cc0vShlo.s:23527  .debug_str:0000000000015d46 .LASF4706
C:\Users\SOLDER~1\AppData\Local\Temp\cc0vShlo.s:22455  .debug_str:000000000001163d .LASF4707
C:\Users\SOLDER~1\AppData\Local\Temp\cc0vShlo.s:20979  .debug_str:000000000000b5ae .LASF4708
GAS LISTING C:\Users\SOLDER~1\AppData\Local\Temp\cc0vShlo.s 			page 93


C:\Users\SOLDER~1\AppData\Local\Temp\cc0vShlo.s:24103  .debug_str:000000000001826c .LASF4709
C:\Users\SOLDER~1\AppData\Local\Temp\cc0vShlo.s:25097  .debug_str:000000000001c2ac .LASF4710
C:\Users\SOLDER~1\AppData\Local\Temp\cc0vShlo.s:26055  .debug_str:0000000000020146 .LASF4711
C:\Users\SOLDER~1\AppData\Local\Temp\cc0vShlo.s:23967  .debug_str:000000000001796d .LASF4712
C:\Users\SOLDER~1\AppData\Local\Temp\cc0vShlo.s:24751  .debug_str:000000000001ac3f .LASF4713
C:\Users\SOLDER~1\AppData\Local\Temp\cc0vShlo.s:22193  .debug_str:000000000001057a .LASF4714
C:\Users\SOLDER~1\AppData\Local\Temp\cc0vShlo.s:29553  .debug_str:000000000002e651 .LASF4715
C:\Users\SOLDER~1\AppData\Local\Temp\cc0vShlo.s:28643  .debug_str:000000000002ab4d .LASF4716
C:\Users\SOLDER~1\AppData\Local\Temp\cc0vShlo.s:27737  .debug_str:0000000000027024 .LASF4717
C:\Users\SOLDER~1\AppData\Local\Temp\cc0vShlo.s:28169  .debug_str:0000000000028c58 .LASF4718
C:\Users\SOLDER~1\AppData\Local\Temp\cc0vShlo.s:18929  .debug_str:0000000000003031 .LASF4719
C:\Users\SOLDER~1\AppData\Local\Temp\cc0vShlo.s:22581  .debug_str:0000000000011e5a .LASF4720
C:\Users\SOLDER~1\AppData\Local\Temp\cc0vShlo.s:24313  .debug_str:000000000001901f .LASF4721
C:\Users\SOLDER~1\AppData\Local\Temp\cc0vShlo.s:18387  .debug_str:0000000000000d26 .LASF4722
C:\Users\SOLDER~1\AppData\Local\Temp\cc0vShlo.s:25727  .debug_str:000000000001ebf3 .LASF4723
C:\Users\SOLDER~1\AppData\Local\Temp\cc0vShlo.s:20475  .debug_str:00000000000094cf .LASF4724
C:\Users\SOLDER~1\AppData\Local\Temp\cc0vShlo.s:25773  .debug_str:000000000001ef01 .LASF4725
C:\Users\SOLDER~1\AppData\Local\Temp\cc0vShlo.s:24401  .debug_str:000000000001960f .LASF4726
C:\Users\SOLDER~1\AppData\Local\Temp\cc0vShlo.s:27987  .debug_str:000000000002809b .LASF4727
C:\Users\SOLDER~1\AppData\Local\Temp\cc0vShlo.s:20547  .debug_str:000000000000995f .LASF4728
C:\Users\SOLDER~1\AppData\Local\Temp\cc0vShlo.s:27627  .debug_str:0000000000026903 .LASF4729
C:\Users\SOLDER~1\AppData\Local\Temp\cc0vShlo.s:26611  .debug_str:000000000002250f .LASF4730
C:\Users\SOLDER~1\AppData\Local\Temp\cc0vShlo.s:29003  .debug_str:000000000002c2bc .LASF4731
C:\Users\SOLDER~1\AppData\Local\Temp\cc0vShlo.s:26831  .debug_str:00000000000233cf .LASF4732
C:\Users\SOLDER~1\AppData\Local\Temp\cc0vShlo.s:27851  .debug_str:0000000000027783 .LASF4733
C:\Users\SOLDER~1\AppData\Local\Temp\cc0vShlo.s:28299  .debug_str:00000000000294f2 .LASF4734
C:\Users\SOLDER~1\AppData\Local\Temp\cc0vShlo.s:20953  .debug_str:000000000000b414 .LASF4735
C:\Users\SOLDER~1\AppData\Local\Temp\cc0vShlo.s:19669  .debug_str:0000000000005f4e .LASF4736
C:\Users\SOLDER~1\AppData\Local\Temp\cc0vShlo.s:19027  .debug_str:000000000000369b .LASF4737
C:\Users\SOLDER~1\AppData\Local\Temp\cc0vShlo.s:27777  .debug_str:00000000000272db .LASF4738
C:\Users\SOLDER~1\AppData\Local\Temp\cc0vShlo.s:24641  .debug_str:000000000001a4be .LASF4739
C:\Users\SOLDER~1\AppData\Local\Temp\cc0vShlo.s:19087  .debug_str:0000000000003a8c .LASF4740
C:\Users\SOLDER~1\AppData\Local\Temp\cc0vShlo.s:19191  .debug_str:000000000000412e .LASF4741
C:\Users\SOLDER~1\AppData\Local\Temp\cc0vShlo.s:26851  .debug_str:0000000000023526 .LASF4742
C:\Users\SOLDER~1\AppData\Local\Temp\cc0vShlo.s:27185  .debug_str:0000000000024b0b .LASF4743
C:\Users\SOLDER~1\AppData\Local\Temp\cc0vShlo.s:22811  .debug_str:0000000000012d5b .LASF4744
C:\Users\SOLDER~1\AppData\Local\Temp\cc0vShlo.s:18623  .debug_str:0000000000001c44 .LASF4745
C:\Users\SOLDER~1\AppData\Local\Temp\cc0vShlo.s:27365  .debug_str:00000000000256ec .LASF4746
C:\Users\SOLDER~1\AppData\Local\Temp\cc0vShlo.s:21477  .debug_str:000000000000d6b8 .LASF4747
C:\Users\SOLDER~1\AppData\Local\Temp\cc0vShlo.s:18467  .debug_str:0000000000001232 .LASF4748
C:\Users\SOLDER~1\AppData\Local\Temp\cc0vShlo.s:26823  .debug_str:000000000002334b .LASF4749
C:\Users\SOLDER~1\AppData\Local\Temp\cc0vShlo.s:28567  .debug_str:000000000002a64f .LASF4750
C:\Users\SOLDER~1\AppData\Local\Temp\cc0vShlo.s:21911  .debug_str:000000000000f2d6 .LASF4751
C:\Users\SOLDER~1\AppData\Local\Temp\cc0vShlo.s:21101  .debug_str:000000000000bd79 .LASF4752
C:\Users\SOLDER~1\AppData\Local\Temp\cc0vShlo.s:27255  .debug_str:0000000000024f88 .LASF4753
C:\Users\SOLDER~1\AppData\Local\Temp\cc0vShlo.s:24275  .debug_str:0000000000018db1 .LASF4754
C:\Users\SOLDER~1\AppData\Local\Temp\cc0vShlo.s:18353  .debug_str:0000000000000ad0 .LASF4755
C:\Users\SOLDER~1\AppData\Local\Temp\cc0vShlo.s:29627  .debug_str:000000000002eae8 .LASF4756
C:\Users\SOLDER~1\AppData\Local\Temp\cc0vShlo.s:26525  .debug_str:0000000000021fa0 .LASF4757
C:\Users\SOLDER~1\AppData\Local\Temp\cc0vShlo.s:26997  .debug_str:0000000000023e87 .LASF4758
C:\Users\SOLDER~1\AppData\Local\Temp\cc0vShlo.s:19447  .debug_str:0000000000005122 .LASF4759
C:\Users\SOLDER~1\AppData\Local\Temp\cc0vShlo.s:21931  .debug_str:000000000000f439 .LASF4760
C:\Users\SOLDER~1\AppData\Local\Temp\cc0vShlo.s:27251  .debug_str:0000000000024f52 .LASF4761
C:\Users\SOLDER~1\AppData\Local\Temp\cc0vShlo.s:24271  .debug_str:0000000000018d71 .LASF4762
C:\Users\SOLDER~1\AppData\Local\Temp\cc0vShlo.s:21175  .debug_str:000000000000c28c .LASF4763
C:\Users\SOLDER~1\AppData\Local\Temp\cc0vShlo.s:20461  .debug_str:00000000000093c1 .LASF4764
C:\Users\SOLDER~1\AppData\Local\Temp\cc0vShlo.s:20389  .debug_str:0000000000008ec8 .LASF4765
GAS LISTING C:\Users\SOLDER~1\AppData\Local\Temp\cc0vShlo.s 			page 94


C:\Users\SOLDER~1\AppData\Local\Temp\cc0vShlo.s:23541  .debug_str:0000000000015e2b .LASF4766
C:\Users\SOLDER~1\AppData\Local\Temp\cc0vShlo.s:25801  .debug_str:000000000001f0e4 .LASF4767
C:\Users\SOLDER~1\AppData\Local\Temp\cc0vShlo.s:22753  .debug_str:000000000001295e .LASF4768
C:\Users\SOLDER~1\AppData\Local\Temp\cc0vShlo.s:29253  .debug_str:000000000002d2eb .LASF4769
C:\Users\SOLDER~1\AppData\Local\Temp\cc0vShlo.s:25863  .debug_str:000000000001f51e .LASF4770
C:\Users\SOLDER~1\AppData\Local\Temp\cc0vShlo.s:21943  .debug_str:000000000000f4f3 .LASF4771
C:\Users\SOLDER~1\AppData\Local\Temp\cc0vShlo.s:21867  .debug_str:000000000000f008 .LASF4772
C:\Users\SOLDER~1\AppData\Local\Temp\cc0vShlo.s:18987  .debug_str:000000000000341f .LASF4773
C:\Users\SOLDER~1\AppData\Local\Temp\cc0vShlo.s:27377  .debug_str:00000000000257b6 .LASF4774
C:\Users\SOLDER~1\AppData\Local\Temp\cc0vShlo.s:18515  .debug_str:0000000000001555 .LASF4775
C:\Users\SOLDER~1\AppData\Local\Temp\cc0vShlo.s:19111  .debug_str:0000000000003c10 .LASF4776
C:\Users\SOLDER~1\AppData\Local\Temp\cc0vShlo.s:25575  .debug_str:000000000001e1db .LASF4777
C:\Users\SOLDER~1\AppData\Local\Temp\cc0vShlo.s:19515  .debug_str:000000000000551f .LASF4778
C:\Users\SOLDER~1\AppData\Local\Temp\cc0vShlo.s:28651  .debug_str:000000000002abc4 .LASF4779
C:\Users\SOLDER~1\AppData\Local\Temp\cc0vShlo.s:28915  .debug_str:000000000002bcdf .LASF4780
C:\Users\SOLDER~1\AppData\Local\Temp\cc0vShlo.s:21703  .debug_str:000000000000e56c .LASF4781
C:\Users\SOLDER~1\AppData\Local\Temp\cc0vShlo.s:25803  .debug_str:000000000001f100 .LASF4782
C:\Users\SOLDER~1\AppData\Local\Temp\cc0vShlo.s:21603  .debug_str:000000000000dec6 .LASF4783
C:\Users\SOLDER~1\AppData\Local\Temp\cc0vShlo.s:21015  .debug_str:000000000000b7ef .LASF4784
C:\Users\SOLDER~1\AppData\Local\Temp\cc0vShlo.s:26191  .debug_str:0000000000020a33 .LASF4785
C:\Users\SOLDER~1\AppData\Local\Temp\cc0vShlo.s:18641  .debug_str:0000000000001d93 .LASF4786
C:\Users\SOLDER~1\AppData\Local\Temp\cc0vShlo.s:24719  .debug_str:000000000001a9d1 .LASF4787
C:\Users\SOLDER~1\AppData\Local\Temp\cc0vShlo.s:29543  .debug_str:000000000002e58a .LASF4788
C:\Users\SOLDER~1\AppData\Local\Temp\cc0vShlo.s:20723  .debug_str:000000000000a4ed .LASF4789
C:\Users\SOLDER~1\AppData\Local\Temp\cc0vShlo.s:29569  .debug_str:000000000002e763 .LASF4790
C:\Users\SOLDER~1\AppData\Local\Temp\cc0vShlo.s:19153  .debug_str:0000000000003ebf .LASF4791
C:\Users\SOLDER~1\AppData\Local\Temp\cc0vShlo.s:27699  .debug_str:0000000000026dc3 .LASF4792
C:\Users\SOLDER~1\AppData\Local\Temp\cc0vShlo.s:27913  .debug_str:0000000000027bc7 .LASF4793
C:\Users\SOLDER~1\AppData\Local\Temp\cc0vShlo.s:20293  .debug_str:0000000000008840 .LASF4794
C:\Users\SOLDER~1\AppData\Local\Temp\cc0vShlo.s:20733  .debug_str:000000000000a5a4 .LASF4795
C:\Users\SOLDER~1\AppData\Local\Temp\cc0vShlo.s:28585  .debug_str:000000000002a75e .LASF4796
C:\Users\SOLDER~1\AppData\Local\Temp\cc0vShlo.s:23775  .debug_str:0000000000016cad .LASF4797
C:\Users\SOLDER~1\AppData\Local\Temp\cc0vShlo.s:19013  .debug_str:00000000000035ae .LASF4798
C:\Users\SOLDER~1\AppData\Local\Temp\cc0vShlo.s:21579  .debug_str:000000000000dd19 .LASF4799
C:\Users\SOLDER~1\AppData\Local\Temp\cc0vShlo.s:22209  .debug_str:0000000000010646 .LASF4800
C:\Users\SOLDER~1\AppData\Local\Temp\cc0vShlo.s:28257  .debug_str:0000000000029210 .LASF4801
C:\Users\SOLDER~1\AppData\Local\Temp\cc0vShlo.s:19863  .debug_str:0000000000006c4d .LASF4802
C:\Users\SOLDER~1\AppData\Local\Temp\cc0vShlo.s:26567  .debug_str:0000000000022213 .LASF4803
C:\Users\SOLDER~1\AppData\Local\Temp\cc0vShlo.s:22025  .debug_str:000000000000fa80 .LASF4804
C:\Users\SOLDER~1\AppData\Local\Temp\cc0vShlo.s:26175  .debug_str:0000000000020934 .LASF4805
C:\Users\SOLDER~1\AppData\Local\Temp\cc0vShlo.s:29129  .debug_str:000000000002cab6 .LASF4806
C:\Users\SOLDER~1\AppData\Local\Temp\cc0vShlo.s:19711  .debug_str:000000000000624a .LASF4807
C:\Users\SOLDER~1\AppData\Local\Temp\cc0vShlo.s:27161  .debug_str:0000000000024998 .LASF4808
C:\Users\SOLDER~1\AppData\Local\Temp\cc0vShlo.s:20419  .debug_str:00000000000090d7 .LASF4809
C:\Users\SOLDER~1\AppData\Local\Temp\cc0vShlo.s:22041  .debug_str:000000000000fbc7 .LASF4810
C:\Users\SOLDER~1\AppData\Local\Temp\cc0vShlo.s:24863  .debug_str:000000000001b34a .LASF4811
C:\Users\SOLDER~1\AppData\Local\Temp\cc0vShlo.s:29385  .debug_str:000000000002db59 .LASF4812
C:\Users\SOLDER~1\AppData\Local\Temp\cc0vShlo.s:29611  .debug_str:000000000002e9f8 .LASF4813
C:\Users\SOLDER~1\AppData\Local\Temp\cc0vShlo.s:20233  .debug_str:0000000000008486 .LASF4814
C:\Users\SOLDER~1\AppData\Local\Temp\cc0vShlo.s:22331  .debug_str:0000000000010e43 .LASF4815
C:\Users\SOLDER~1\AppData\Local\Temp\cc0vShlo.s:21405  .debug_str:000000000000d1e9 .LASF4816
C:\Users\SOLDER~1\AppData\Local\Temp\cc0vShlo.s:20361  .debug_str:0000000000008cc7 .LASF4817
C:\Users\SOLDER~1\AppData\Local\Temp\cc0vShlo.s:18997  .debug_str:00000000000034b8 .LASF4818
C:\Users\SOLDER~1\AppData\Local\Temp\cc0vShlo.s:18201  .debug_str:0000000000000000 .LASF4819
C:\Users\SOLDER~1\AppData\Local\Temp\cc0vShlo.s:25671  .debug_str:000000000001e864 .LASF4820
C:\Users\SOLDER~1\AppData\Local\Temp\cc0vShlo.s:26319  .debug_str:000000000002127d .LASF4821
C:\Users\SOLDER~1\AppData\Local\Temp\cc0vShlo.s:29327  .debug_str:000000000002d793 .LASF4822
GAS LISTING C:\Users\SOLDER~1\AppData\Local\Temp\cc0vShlo.s 			page 95


C:\Users\SOLDER~1\AppData\Local\Temp\cc0vShlo.s:20395  .debug_str:0000000000008f27 .LASF4823
C:\Users\SOLDER~1\AppData\Local\Temp\cc0vShlo.s:19591  .debug_str:0000000000005a5c .LASF4824
C:\Users\SOLDER~1\AppData\Local\Temp\cc0vShlo.s:18363  .debug_str:0000000000000b7d .LASF4825
C:\Users\SOLDER~1\AppData\Local\Temp\cc0vShlo.s:26751  .debug_str:0000000000022e65 .LASF4826
C:\Users\SOLDER~1\AppData\Local\Temp\cc0vShlo.s:21747  .debug_str:000000000000e88f .LASF4827
C:\Users\SOLDER~1\AppData\Local\Temp\cc0vShlo.s:23793  .debug_str:0000000000016de1 .LASF4828
C:\Users\SOLDER~1\AppData\Local\Temp\cc0vShlo.s:23913  .debug_str:00000000000175ee .LASF4829
C:\Users\SOLDER~1\AppData\Local\Temp\cc0vShlo.s:18783  .debug_str:00000000000026d2 .LASF4830
C:\Users\SOLDER~1\AppData\Local\Temp\cc0vShlo.s:23293  .debug_str:0000000000014e1e .LASF4831
C:\Users\SOLDER~1\AppData\Local\Temp\cc0vShlo.s:27883  .debug_str:0000000000027988 .LASF4832
C:\Users\SOLDER~1\AppData\Local\Temp\cc0vShlo.s:23477  .debug_str:0000000000015a2d .LASF4833
C:\Users\SOLDER~1\AppData\Local\Temp\cc0vShlo.s:19011  .debug_str:0000000000003596 .LASF4834
C:\Users\SOLDER~1\AppData\Local\Temp\cc0vShlo.s:25809  .debug_str:000000000001f16a .LASF4835
C:\Users\SOLDER~1\AppData\Local\Temp\cc0vShlo.s:23147  .debug_str:0000000000014465 .LASF4836
C:\Users\SOLDER~1\AppData\Local\Temp\cc0vShlo.s:20269  .debug_str:00000000000086e7 .LASF4837
C:\Users\SOLDER~1\AppData\Local\Temp\cc0vShlo.s:21653  .debug_str:000000000000e26b .LASF4838
C:\Users\SOLDER~1\AppData\Local\Temp\cc0vShlo.s:26493  .debug_str:0000000000021da9 .LASF4839
C:\Users\SOLDER~1\AppData\Local\Temp\cc0vShlo.s:26239  .debug_str:0000000000020d3d .LASF4840
C:\Users\SOLDER~1\AppData\Local\Temp\cc0vShlo.s:24689  .debug_str:000000000001a804 .LASF4841
C:\Users\SOLDER~1\AppData\Local\Temp\cc0vShlo.s:23735  .debug_str:0000000000016a70 .LASF4842
C:\Users\SOLDER~1\AppData\Local\Temp\cc0vShlo.s:19079  .debug_str:0000000000003a02 .LASF4843
C:\Users\SOLDER~1\AppData\Local\Temp\cc0vShlo.s:23765  .debug_str:0000000000016c1d .LASF4844
C:\Users\SOLDER~1\AppData\Local\Temp\cc0vShlo.s:28233  .debug_str:0000000000029070 .LASF4845
C:\Users\SOLDER~1\AppData\Local\Temp\cc0vShlo.s:21523  .debug_str:000000000000d979 .LASF4846
C:\Users\SOLDER~1\AppData\Local\Temp\cc0vShlo.s:28017  .debug_str:0000000000028295 .LASF4847
C:\Users\SOLDER~1\AppData\Local\Temp\cc0vShlo.s:27653  .debug_str:0000000000026a9e .LASF4848
C:\Users\SOLDER~1\AppData\Local\Temp\cc0vShlo.s:22957  .debug_str:00000000000136d5 .LASF4849
C:\Users\SOLDER~1\AppData\Local\Temp\cc0vShlo.s:26077  .debug_str:00000000000202ce .LASF4850
C:\Users\SOLDER~1\AppData\Local\Temp\cc0vShlo.s:25753  .debug_str:000000000001ed9d .LASF4852
C:\Users\SOLDER~1\AppData\Local\Temp\cc0vShlo.s:21007  .debug_str:000000000000b751 .LASF4853
C:\Users\SOLDER~1\AppData\Local\Temp\cc0vShlo.s:27301  .debug_str:000000000002525d .LASF4854
C:\Users\SOLDER~1\AppData\Local\Temp\cc0vShlo.s:29287  .debug_str:000000000002d51e .LASF4855
C:\Users\SOLDER~1\AppData\Local\Temp\cc0vShlo.s:18773  .debug_str:000000000000260a .LASF4856
C:\Users\SOLDER~1\AppData\Local\Temp\cc0vShlo.s:19267  .debug_str:00000000000045e2 .LASF4857
C:\Users\SOLDER~1\AppData\Local\Temp\cc0vShlo.s:26201  .debug_str:0000000000020ab5 .LASF4858
C:\Users\SOLDER~1\AppData\Local\Temp\cc0vShlo.s:28353  .debug_str:0000000000029814 .LASF4859
C:\Users\SOLDER~1\AppData\Local\Temp\cc0vShlo.s:27871  .debug_str:00000000000278b5 .LASF4860
C:\Users\SOLDER~1\AppData\Local\Temp\cc0vShlo.s:27693  .debug_str:0000000000026d50 .LASF4861
C:\Users\SOLDER~1\AppData\Local\Temp\cc0vShlo.s:28377  .debug_str:00000000000299af .LASF4862
C:\Users\SOLDER~1\AppData\Local\Temp\cc0vShlo.s:23141  .debug_str:00000000000143ff .LASF4863
C:\Users\SOLDER~1\AppData\Local\Temp\cc0vShlo.s:28433  .debug_str:0000000000029d93 .LASF4864
C:\Users\SOLDER~1\AppData\Local\Temp\cc0vShlo.s:25999  .debug_str:000000000001fdb1 .LASF4865
C:\Users\SOLDER~1\AppData\Local\Temp\cc0vShlo.s:27075  .debug_str:00000000000243be .LASF4866
C:\Users\SOLDER~1\AppData\Local\Temp\cc0vShlo.s:22775  .debug_str:0000000000012ae0 .LASF4867
C:\Users\SOLDER~1\AppData\Local\Temp\cc0vShlo.s:18653  .debug_str:0000000000001e44 .LASF4868
C:\Users\SOLDER~1\AppData\Local\Temp\cc0vShlo.s:19465  .debug_str:000000000000522c .LASF4869
C:\Users\SOLDER~1\AppData\Local\Temp\cc0vShlo.s:26359  .debug_str:000000000002151f .LASF4870
C:\Users\SOLDER~1\AppData\Local\Temp\cc0vShlo.s:27579  .debug_str:00000000000265c6 .LASF4871
C:\Users\SOLDER~1\AppData\Local\Temp\cc0vShlo.s:22337  .debug_str:0000000000010e98 .LASF4872
C:\Users\SOLDER~1\AppData\Local\Temp\cc0vShlo.s:25497  .debug_str:000000000001dd08 .LASF4873
C:\Users\SOLDER~1\AppData\Local\Temp\cc0vShlo.s:24827  .debug_str:000000000001b0de .LASF4874
C:\Users\SOLDER~1\AppData\Local\Temp\cc0vShlo.s:22217  .debug_str:00000000000106df .LASF4875
C:\Users\SOLDER~1\AppData\Local\Temp\cc0vShlo.s:29093  .debug_str:000000000002c863 .LASF4876
C:\Users\SOLDER~1\AppData\Local\Temp\cc0vShlo.s:27407  .debug_str:00000000000259ca .LASF4877
C:\Users\SOLDER~1\AppData\Local\Temp\cc0vShlo.s:21537  .debug_str:000000000000da47 .LASF4878
C:\Users\SOLDER~1\AppData\Local\Temp\cc0vShlo.s:29349  .debug_str:000000000002d90d .LASF4879
C:\Users\SOLDER~1\AppData\Local\Temp\cc0vShlo.s:19955  .debug_str:000000000000729b .LASF4880
GAS LISTING C:\Users\SOLDER~1\AppData\Local\Temp\cc0vShlo.s 			page 96


C:\Users\SOLDER~1\AppData\Local\Temp\cc0vShlo.s:24273  .debug_str:0000000000018d8e .LASF4881
C:\Users\SOLDER~1\AppData\Local\Temp\cc0vShlo.s:21273  .debug_str:000000000000c92e .LASF4882
C:\Users\SOLDER~1\AppData\Local\Temp\cc0vShlo.s:27395  .debug_str:00000000000258f3 .LASF4883
C:\Users\SOLDER~1\AppData\Local\Temp\cc0vShlo.s:27779  .debug_str:00000000000272fb .LASF4884
C:\Users\SOLDER~1\AppData\Local\Temp\cc0vShlo.s:25417  .debug_str:000000000001d793 .LASF4885
C:\Users\SOLDER~1\AppData\Local\Temp\cc0vShlo.s:25873  .debug_str:000000000001f5cd .LASF4886
C:\Users\SOLDER~1\AppData\Local\Temp\cc0vShlo.s:26029  .debug_str:000000000001ff94 .LASF4887
C:\Users\SOLDER~1\AppData\Local\Temp\cc0vShlo.s:27179  .debug_str:0000000000024aa9 .LASF4888
C:\Users\SOLDER~1\AppData\Local\Temp\cc0vShlo.s:26551  .debug_str:0000000000022100 .LASF4889
C:\Users\SOLDER~1\AppData\Local\Temp\cc0vShlo.s:20057  .debug_str:00000000000078e1 .LASF4890
C:\Users\SOLDER~1\AppData\Local\Temp\cc0vShlo.s:21281  .debug_str:000000000000c9bb .LASF4891
C:\Users\SOLDER~1\AppData\Local\Temp\cc0vShlo.s:23511  .debug_str:0000000000015c4b .LASF4892
C:\Users\SOLDER~1\AppData\Local\Temp\cc0vShlo.s:27123  .debug_str:0000000000024704 .LASF4893
C:\Users\SOLDER~1\AppData\Local\Temp\cc0vShlo.s:27989  .debug_str:00000000000280b7 .LASF4894
C:\Users\SOLDER~1\AppData\Local\Temp\cc0vShlo.s:22417  .debug_str:00000000000113ea .LASF4895
C:\Users\SOLDER~1\AppData\Local\Temp\cc0vShlo.s:18377  .debug_str:0000000000000c6f .LASF4896
C:\Users\SOLDER~1\AppData\Local\Temp\cc0vShlo.s:24699  .debug_str:000000000001a88d .LASF4897
C:\Users\SOLDER~1\AppData\Local\Temp\cc0vShlo.s:26941  .debug_str:0000000000023ada .LASF4898
C:\Users\SOLDER~1\AppData\Local\Temp\cc0vShlo.s:27217  .debug_str:0000000000024d1b .LASF4899
C:\Users\SOLDER~1\AppData\Local\Temp\cc0vShlo.s:23289  .debug_str:0000000000014dd6 .LASF4900
C:\Users\SOLDER~1\AppData\Local\Temp\cc0vShlo.s:27357  .debug_str:000000000002564a .LASF4901
C:\Users\SOLDER~1\AppData\Local\Temp\cc0vShlo.s:28171  .debug_str:0000000000028c74 .LASF4902
C:\Users\SOLDER~1\AppData\Local\Temp\cc0vShlo.s:20997  .debug_str:000000000000b6b8 .LASF4903
C:\Users\SOLDER~1\AppData\Local\Temp\cc0vShlo.s:19189  .debug_str:000000000000410b .LASF4904
C:\Users\SOLDER~1\AppData\Local\Temp\cc0vShlo.s:24841  .debug_str:000000000001b1d0 .LASF4905
C:\Users\SOLDER~1\AppData\Local\Temp\cc0vShlo.s:25997  .debug_str:000000000001fd8e .LASF4906
C:\Users\SOLDER~1\AppData\Local\Temp\cc0vShlo.s:22575  .debug_str:0000000000011df2 .LASF4907
C:\Users\SOLDER~1\AppData\Local\Temp\cc0vShlo.s:29511  .debug_str:000000000002e368 .LASF4908
C:\Users\SOLDER~1\AppData\Local\Temp\cc0vShlo.s:21699  .debug_str:000000000000e52f .LASF4909
C:\Users\SOLDER~1\AppData\Local\Temp\cc0vShlo.s:28379  .debug_str:00000000000299de .LASF4910
C:\Users\SOLDER~1\AppData\Local\Temp\cc0vShlo.s:29187  .debug_str:000000000002ced1 .LASF4911
C:\Users\SOLDER~1\AppData\Local\Temp\cc0vShlo.s:25257  .debug_str:000000000001cd7e .LASF4912
C:\Users\SOLDER~1\AppData\Local\Temp\cc0vShlo.s:28593  .debug_str:000000000002a7ee .LASF4913
C:\Users\SOLDER~1\AppData\Local\Temp\cc0vShlo.s:25339  .debug_str:000000000001d309 .LASF4914
C:\Users\SOLDER~1\AppData\Local\Temp\cc0vShlo.s:25973  .debug_str:000000000001fc03 .LASF4915
C:\Users\SOLDER~1\AppData\Local\Temp\cc0vShlo.s:24285  .debug_str:0000000000018e57 .LASF4916
C:\Users\SOLDER~1\AppData\Local\Temp\cc0vShlo.s:20065  .debug_str:000000000000796e .LASF4917
C:\Users\SOLDER~1\AppData\Local\Temp\cc0vShlo.s:22403  .debug_str:00000000000112d6 .LASF4918
C:\Users\SOLDER~1\AppData\Local\Temp\cc0vShlo.s:22613  .debug_str:0000000000012052 .LASF4919
C:\Users\SOLDER~1\AppData\Local\Temp\cc0vShlo.s:23643  .debug_str:00000000000164b3 .LASF4920
C:\Users\SOLDER~1\AppData\Local\Temp\cc0vShlo.s:25609  .debug_str:000000000001e41c .LASF4921
C:\Users\SOLDER~1\AppData\Local\Temp\cc0vShlo.s:27237  .debug_str:0000000000024e82 .LASF4922
C:\Users\SOLDER~1\AppData\Local\Temp\cc0vShlo.s:26669  .debug_str:000000000002291d .LASF4923
C:\Users\SOLDER~1\AppData\Local\Temp\cc0vShlo.s:26105  .debug_str:0000000000020496 .LASF4924
C:\Users\SOLDER~1\AppData\Local\Temp\cc0vShlo.s:26395  .debug_str:0000000000021769 .LASF4925
C:\Users\SOLDER~1\AppData\Local\Temp\cc0vShlo.s:21721  .debug_str:000000000000e6a9 .LASF4926
C:\Users\SOLDER~1\AppData\Local\Temp\cc0vShlo.s:22769  .debug_str:0000000000012a5d .LASF4927
C:\Users\SOLDER~1\AppData\Local\Temp\cc0vShlo.s:22649  .debug_str:000000000001228d .LASF4928
C:\Users\SOLDER~1\AppData\Local\Temp\cc0vShlo.s:21399  .debug_str:000000000000d17d .LASF4929
C:\Users\SOLDER~1\AppData\Local\Temp\cc0vShlo.s:28087  .debug_str:0000000000028722 .LASF4930
C:\Users\SOLDER~1\AppData\Local\Temp\cc0vShlo.s:18735  .debug_str:00000000000023b3 .LASF4931
C:\Users\SOLDER~1\AppData\Local\Temp\cc0vShlo.s:27959  .debug_str:0000000000027ed6 .LASF4932
C:\Users\SOLDER~1\AppData\Local\Temp\cc0vShlo.s:23361  .debug_str:0000000000015282 .LASF4933
C:\Users\SOLDER~1\AppData\Local\Temp\cc0vShlo.s:21011  .debug_str:000000000000b7a3 .LASF4934
C:\Users\SOLDER~1\AppData\Local\Temp\cc0vShlo.s:22117  .debug_str:0000000000010094 .LASF4935
C:\Users\SOLDER~1\AppData\Local\Temp\cc0vShlo.s:29241  .debug_str:000000000002d24b .LASF4936
C:\Users\SOLDER~1\AppData\Local\Temp\cc0vShlo.s:23317  .debug_str:0000000000014fa0 .LASF4937
GAS LISTING C:\Users\SOLDER~1\AppData\Local\Temp\cc0vShlo.s 			page 97


C:\Users\SOLDER~1\AppData\Local\Temp\cc0vShlo.s:19723  .debug_str:000000000000632a .LASF4938
C:\Users\SOLDER~1\AppData\Local\Temp\cc0vShlo.s:25401  .debug_str:000000000001d6c8 .LASF4939
C:\Users\SOLDER~1\AppData\Local\Temp\cc0vShlo.s:20595  .debug_str:0000000000009c54 .LASF4940
C:\Users\SOLDER~1\AppData\Local\Temp\cc0vShlo.s:27633  .debug_str:000000000002695e .LASF4941
C:\Users\SOLDER~1\AppData\Local\Temp\cc0vShlo.s:22151  .debug_str:00000000000102d5 .LASF4942
C:\Users\SOLDER~1\AppData\Local\Temp\cc0vShlo.s:20585  .debug_str:0000000000009bae .LASF4943
C:\Users\SOLDER~1\AppData\Local\Temp\cc0vShlo.s:23617  .debug_str:000000000001631d .LASF4944
C:\Users\SOLDER~1\AppData\Local\Temp\cc0vShlo.s:20913  .debug_str:000000000000b140 .LASF4945
C:\Users\SOLDER~1\AppData\Local\Temp\cc0vShlo.s:18547  .debug_str:000000000000176a .LASF4946
C:\Users\SOLDER~1\AppData\Local\Temp\cc0vShlo.s:20725  .debug_str:000000000000a507 .LASF4947
C:\Users\SOLDER~1\AppData\Local\Temp\cc0vShlo.s:21119  .debug_str:000000000000beb6 .LASF4948
C:\Users\SOLDER~1\AppData\Local\Temp\cc0vShlo.s:27219  .debug_str:0000000000024d3e .LASF4949
C:\Users\SOLDER~1\AppData\Local\Temp\cc0vShlo.s:24231  .debug_str:0000000000018a98 .LASF4950
C:\Users\SOLDER~1\AppData\Local\Temp\cc0vShlo.s:24677  .debug_str:000000000001a750 .LASF4951
C:\Users\SOLDER~1\AppData\Local\Temp\cc0vShlo.s:19261  .debug_str:0000000000004587 .LASF4952
C:\Users\SOLDER~1\AppData\Local\Temp\cc0vShlo.s:25835  .debug_str:000000000001f32d .LASF4953
C:\Users\SOLDER~1\AppData\Local\Temp\cc0vShlo.s:22527  .debug_str:0000000000011af0 .LASF4954
C:\Users\SOLDER~1\AppData\Local\Temp\cc0vShlo.s:18499  .debug_str:0000000000001441 .LASF4955
C:\Users\SOLDER~1\AppData\Local\Temp\cc0vShlo.s:19063  .debug_str:00000000000038fe .LASF4956
C:\Users\SOLDER~1\AppData\Local\Temp\cc0vShlo.s:22347  .debug_str:0000000000010f4e .LASF4957
C:\Users\SOLDER~1\AppData\Local\Temp\cc0vShlo.s:18831  .debug_str:00000000000029fc .LASF4958
C:\Users\SOLDER~1\AppData\Local\Temp\cc0vShlo.s:19733  .debug_str:00000000000063de .LASF4959
C:\Users\SOLDER~1\AppData\Local\Temp\cc0vShlo.s:25139  .debug_str:000000000001c572 .LASF4960
C:\Users\SOLDER~1\AppData\Local\Temp\cc0vShlo.s:29637  .debug_str:000000000002eb90 .LASF4961
C:\Users\SOLDER~1\AppData\Local\Temp\cc0vShlo.s:29587  .debug_str:000000000002e892 .LASF4962
C:\Users\SOLDER~1\AppData\Local\Temp\cc0vShlo.s:28523  .debug_str:000000000002a3a2 .LASF4963
C:\Users\SOLDER~1\AppData\Local\Temp\cc0vShlo.s:25853  .debug_str:000000000001f485 .LASF4964
C:\Users\SOLDER~1\AppData\Local\Temp\cc0vShlo.s:20471  .debug_str:0000000000009489 .LASF4965
C:\Users\SOLDER~1\AppData\Local\Temp\cc0vShlo.s:26159  .debug_str:0000000000020819 .LASF4966
C:\Users\SOLDER~1\AppData\Local\Temp\cc0vShlo.s:26661  .debug_str:0000000000022885 .LASF4967
C:\Users\SOLDER~1\AppData\Local\Temp\cc0vShlo.s:28281  .debug_str:00000000000293c6 .LASF4968
C:\Users\SOLDER~1\AppData\Local\Temp\cc0vShlo.s:22867  .debug_str:00000000000130d9 .LASF4969
C:\Users\SOLDER~1\AppData\Local\Temp\cc0vShlo.s:23973  .debug_str:00000000000179cb .LASF4970
C:\Users\SOLDER~1\AppData\Local\Temp\cc0vShlo.s:18927  .debug_str:0000000000003004 .LASF4971
C:\Users\SOLDER~1\AppData\Local\Temp\cc0vShlo.s:26689  .debug_str:0000000000022a74 .LASF4972
C:\Users\SOLDER~1\AppData\Local\Temp\cc0vShlo.s:28617  .debug_str:000000000002a995 .LASF4973
C:\Users\SOLDER~1\AppData\Local\Temp\cc0vShlo.s:26983  .debug_str:0000000000023d9d .LASF4974
C:\Users\SOLDER~1\AppData\Local\Temp\cc0vShlo.s:22579  .debug_str:0000000000011e2c .LASF4975
C:\Users\SOLDER~1\AppData\Local\Temp\cc0vShlo.s:27045  .debug_str:00000000000241bc .LASF4976
C:\Users\SOLDER~1\AppData\Local\Temp\cc0vShlo.s:28783  .debug_str:000000000002b450 .LASF4977
C:\Users\SOLDER~1\AppData\Local\Temp\cc0vShlo.s:23035  .debug_str:0000000000013ca8 .LASF4978
C:\Users\SOLDER~1\AppData\Local\Temp\cc0vShlo.s:20665  .debug_str:000000000000a11b .LASF4979
C:\Users\SOLDER~1\AppData\Local\Temp\cc0vShlo.s:27785  .debug_str:0000000000027355 .LASF4980
C:\Users\SOLDER~1\AppData\Local\Temp\cc0vShlo.s:27361  .debug_str:00000000000256a0 .LASF4981
C:\Users\SOLDER~1\AppData\Local\Temp\cc0vShlo.s:26621  .debug_str:00000000000225ba .LASF4982
C:\Users\SOLDER~1\AppData\Local\Temp\cc0vShlo.s:25065  .debug_str:000000000001c069 .LASF4983
C:\Users\SOLDER~1\AppData\Local\Temp\cc0vShlo.s:22063  .debug_str:000000000000fd38 .LASF4984
C:\Users\SOLDER~1\AppData\Local\Temp\cc0vShlo.s:26807  .debug_str:000000000002322c .LASF4985
C:\Users\SOLDER~1\AppData\Local\Temp\cc0vShlo.s:27889  .debug_str:00000000000279f0 .LASF4986
C:\Users\SOLDER~1\AppData\Local\Temp\cc0vShlo.s:20865  .debug_str:000000000000ae58 .LASF4987
C:\Users\SOLDER~1\AppData\Local\Temp\cc0vShlo.s:23917  .debug_str:0000000000017635 .LASF4988
C:\Users\SOLDER~1\AppData\Local\Temp\cc0vShlo.s:23523  .debug_str:0000000000015cfe .LASF4989
C:\Users\SOLDER~1\AppData\Local\Temp\cc0vShlo.s:27115  .debug_str:000000000002465f .LASF4990
C:\Users\SOLDER~1\AppData\Local\Temp\cc0vShlo.s:27965  .debug_str:0000000000027f3f .LASF4991
C:\Users\SOLDER~1\AppData\Local\Temp\cc0vShlo.s:23101  .debug_str:0000000000014130 .LASF4992
C:\Users\SOLDER~1\AppData\Local\Temp\cc0vShlo.s:21371  .debug_str:000000000000cfb9 .LASF4993
C:\Users\SOLDER~1\AppData\Local\Temp\cc0vShlo.s:28341  .debug_str:000000000002975e .LASF4994
GAS LISTING C:\Users\SOLDER~1\AppData\Local\Temp\cc0vShlo.s 			page 98


C:\Users\SOLDER~1\AppData\Local\Temp\cc0vShlo.s:23063  .debug_str:0000000000013e91 .LASF4995
C:\Users\SOLDER~1\AppData\Local\Temp\cc0vShlo.s:26987  .debug_str:0000000000023df0 .LASF4996
C:\Users\SOLDER~1\AppData\Local\Temp\cc0vShlo.s:23143  .debug_str:0000000000014432 .LASF4997
C:\Users\SOLDER~1\AppData\Local\Temp\cc0vShlo.s:23807  .debug_str:0000000000016ed4 .LASF4998
C:\Users\SOLDER~1\AppData\Local\Temp\cc0vShlo.s:23399  .debug_str:000000000001551f .LASF4999
C:\Users\SOLDER~1\AppData\Local\Temp\cc0vShlo.s:24467  .debug_str:00000000000199fc .LASF5000
C:\Users\SOLDER~1\AppData\Local\Temp\cc0vShlo.s:21251  .debug_str:000000000000c79a .LASF5001
C:\Users\SOLDER~1\AppData\Local\Temp\cc0vShlo.s:27719  .debug_str:0000000000026efb .LASF5002
C:\Users\SOLDER~1\AppData\Local\Temp\cc0vShlo.s:28741  .debug_str:000000000002b1be .LASF5003
C:\Users\SOLDER~1\AppData\Local\Temp\cc0vShlo.s:26049  .debug_str:00000000000200dd .LASF5004
C:\Users\SOLDER~1\AppData\Local\Temp\cc0vShlo.s:22859  .debug_str:000000000001303c .LASF5005
C:\Users\SOLDER~1\AppData\Local\Temp\cc0vShlo.s:22571  .debug_str:0000000000011da3 .LASF5006
C:\Users\SOLDER~1\AppData\Local\Temp\cc0vShlo.s:26041  .debug_str:0000000000020058 .LASF5007
C:\Users\SOLDER~1\AppData\Local\Temp\cc0vShlo.s:23203  .debug_str:000000000001481f .LASF5008
C:\Users\SOLDER~1\AppData\Local\Temp\cc0vShlo.s:24753  .debug_str:000000000001ac5b .LASF5009
C:\Users\SOLDER~1\AppData\Local\Temp\cc0vShlo.s:22097  .debug_str:000000000000ff77 .LASF5010
C:\Users\SOLDER~1\AppData\Local\Temp\cc0vShlo.s:27611  .debug_str:00000000000267da .LASF5011
C:\Users\SOLDER~1\AppData\Local\Temp\cc0vShlo.s:25845  .debug_str:000000000001f403 .LASF5012
C:\Users\SOLDER~1\AppData\Local\Temp\cc0vShlo.s:18727  .debug_str:0000000000002319 .LASF5013
C:\Users\SOLDER~1\AppData\Local\Temp\cc0vShlo.s:18487  .debug_str:0000000000001372 .LASF5014
C:\Users\SOLDER~1\AppData\Local\Temp\cc0vShlo.s:19569  .debug_str:00000000000058ee .LASF5015
C:\Users\SOLDER~1\AppData\Local\Temp\cc0vShlo.s:22115  .debug_str:0000000000010076 .LASF5016
C:\Users\SOLDER~1\AppData\Local\Temp\cc0vShlo.s:22629  .debug_str:0000000000012161 .LASF5017
C:\Users\SOLDER~1\AppData\Local\Temp\cc0vShlo.s:28111  .debug_str:00000000000288b9 .LASF5018
C:\Users\SOLDER~1\AppData\Local\Temp\cc0vShlo.s:24911  .debug_str:000000000001b637 .LASF5019
C:\Users\SOLDER~1\AppData\Local\Temp\cc0vShlo.s:22881  .debug_str:00000000000131eb .LASF5020
C:\Users\SOLDER~1\AppData\Local\Temp\cc0vShlo.s:26367  .debug_str:000000000002158c .LASF5021
C:\Users\SOLDER~1\AppData\Local\Temp\cc0vShlo.s:24133  .debug_str:0000000000018431 .LASF5022
C:\Users\SOLDER~1\AppData\Local\Temp\cc0vShlo.s:25879  .debug_str:000000000001f63f .LASF5023
C:\Users\SOLDER~1\AppData\Local\Temp\cc0vShlo.s:24183  .debug_str:000000000001877d .LASF5024
C:\Users\SOLDER~1\AppData\Local\Temp\cc0vShlo.s:22929  .debug_str:000000000001351f .LASF5025
C:\Users\SOLDER~1\AppData\Local\Temp\cc0vShlo.s:20477  .debug_str:00000000000094eb .LASF5026
C:\Users\SOLDER~1\AppData\Local\Temp\cc0vShlo.s:26929  .debug_str:0000000000023a14 .LASF5027
C:\Users\SOLDER~1\AppData\Local\Temp\cc0vShlo.s:28061  .debug_str:000000000002857e .LASF5028
C:\Users\SOLDER~1\AppData\Local\Temp\cc0vShlo.s:26281  .debug_str:0000000000021028 .LASF5029
C:\Users\SOLDER~1\AppData\Local\Temp\cc0vShlo.s:26279  .debug_str:0000000000021009 .LASF5030
C:\Users\SOLDER~1\AppData\Local\Temp\cc0vShlo.s:18391  .debug_str:0000000000000d80 .LASF5031
C:\Users\SOLDER~1\AppData\Local\Temp\cc0vShlo.s:29643  .debug_str:000000000002ebe9 .LASF5032
C:\Users\SOLDER~1\AppData\Local\Temp\cc0vShlo.s:25241  .debug_str:000000000001cc7e .LASF5033
C:\Users\SOLDER~1\AppData\Local\Temp\cc0vShlo.s:20613  .debug_str:0000000000009d96 .LASF5034
C:\Users\SOLDER~1\AppData\Local\Temp\cc0vShlo.s:22893  .debug_str:0000000000013299 .LASF5035
C:\Users\SOLDER~1\AppData\Local\Temp\cc0vShlo.s:28867  .debug_str:000000000002b9b3 .LASF5036
C:\Users\SOLDER~1\AppData\Local\Temp\cc0vShlo.s:20657  .debug_str:000000000000a085 .LASF5037
C:\Users\SOLDER~1\AppData\Local\Temp\cc0vShlo.s:22545  .debug_str:0000000000011c25 .LASF5038
C:\Users\SOLDER~1\AppData\Local\Temp\cc0vShlo.s:28409  .debug_str:0000000000029c06 .LASF5039
C:\Users\SOLDER~1\AppData\Local\Temp\cc0vShlo.s:23037  .debug_str:0000000000013cd6 .LASF5040
C:\Users\SOLDER~1\AppData\Local\Temp\cc0vShlo.s:18575  .debug_str:00000000000018f5 .LASF5041
C:\Users\SOLDER~1\AppData\Local\Temp\cc0vShlo.s:23695  .debug_str:00000000000167ce .LASF5042
C:\Users\SOLDER~1\AppData\Local\Temp\cc0vShlo.s:21611  .debug_str:000000000000df3e .LASF5043
C:\Users\SOLDER~1\AppData\Local\Temp\cc0vShlo.s:20907  .debug_str:000000000000b0d5 .LASF5044
C:\Users\SOLDER~1\AppData\Local\Temp\cc0vShlo.s:21255  .debug_str:000000000000c7df .LASF5045
C:\Users\SOLDER~1\AppData\Local\Temp\cc0vShlo.s:18331  .debug_str:000000000000094d .LASF5046
C:\Users\SOLDER~1\AppData\Local\Temp\cc0vShlo.s:27125  .debug_str:0000000000024727 .LASF5047
C:\Users\SOLDER~1\AppData\Local\Temp\cc0vShlo.s:18893  .debug_str:0000000000002dc7 .LASF5048
C:\Users\SOLDER~1\AppData\Local\Temp\cc0vShlo.s:20793  .debug_str:000000000000a9c5 .LASF5049
C:\Users\SOLDER~1\AppData\Local\Temp\cc0vShlo.s:20109  .debug_str:0000000000007c5a .LASF5050
C:\Users\SOLDER~1\AppData\Local\Temp\cc0vShlo.s:22425  .debug_str:0000000000011486 .LASF5051
GAS LISTING C:\Users\SOLDER~1\AppData\Local\Temp\cc0vShlo.s 			page 99


C:\Users\SOLDER~1\AppData\Local\Temp\cc0vShlo.s:24927  .debug_str:000000000001b70b .LASF5052
C:\Users\SOLDER~1\AppData\Local\Temp\cc0vShlo.s:21057  .debug_str:000000000000babb .LASF5053
C:\Users\SOLDER~1\AppData\Local\Temp\cc0vShlo.s:22965  .debug_str:000000000001376b .LASF5054
C:\Users\SOLDER~1\AppData\Local\Temp\cc0vShlo.s:20359  .debug_str:0000000000008ca1 .LASF5055
C:\Users\SOLDER~1\AppData\Local\Temp\cc0vShlo.s:27953  .debug_str:0000000000027e63 .LASF5056
C:\Users\SOLDER~1\AppData\Local\Temp\cc0vShlo.s:22525  .debug_str:0000000000011ac1 .LASF5057
C:\Users\SOLDER~1\AppData\Local\Temp\cc0vShlo.s:19969  .debug_str:000000000000737e .LASF5058
C:\Users\SOLDER~1\AppData\Local\Temp\cc0vShlo.s:18621  .debug_str:0000000000001c1d .LASF5059
C:\Users\SOLDER~1\AppData\Local\Temp\cc0vShlo.s:26693  .debug_str:0000000000022aaf .LASF5060
C:\Users\SOLDER~1\AppData\Local\Temp\cc0vShlo.s:22479  .debug_str:00000000000117d4 .LASF5061
C:\Users\SOLDER~1\AppData\Local\Temp\cc0vShlo.s:20443  .debug_str:000000000000926c .LASF5062
C:\Users\SOLDER~1\AppData\Local\Temp\cc0vShlo.s:20165  .debug_str:000000000000800c .LASF5063
C:\Users\SOLDER~1\AppData\Local\Temp\cc0vShlo.s:25307  .debug_str:000000000001d0dc .LASF5064
C:\Users\SOLDER~1\AppData\Local\Temp\cc0vShlo.s:27523  .debug_str:000000000002620c .LASF5065
C:\Users\SOLDER~1\AppData\Local\Temp\cc0vShlo.s:29563  .debug_str:000000000002e6f3 .LASF5066
C:\Users\SOLDER~1\AppData\Local\Temp\cc0vShlo.s:20957  .debug_str:000000000000b44c .LASF5067
C:\Users\SOLDER~1\AppData\Local\Temp\cc0vShlo.s:20615  .debug_str:0000000000009dbd .LASF5068
C:\Users\SOLDER~1\AppData\Local\Temp\cc0vShlo.s:20333  .debug_str:0000000000008ae4 .LASF5069
C:\Users\SOLDER~1\AppData\Local\Temp\cc0vShlo.s:26911  .debug_str:00000000000238d5 .LASF5070
C:\Users\SOLDER~1\AppData\Local\Temp\cc0vShlo.s:20611  .debug_str:0000000000009d69 .LASF5071
C:\Users\SOLDER~1\AppData\Local\Temp\cc0vShlo.s:24809  .debug_str:000000000001afb7 .LASF5072
C:\Users\SOLDER~1\AppData\Local\Temp\cc0vShlo.s:21061  .debug_str:000000000000bb0a .LASF5073
C:\Users\SOLDER~1\AppData\Local\Temp\cc0vShlo.s:20425  .debug_str:0000000000009156 .LASF5074
C:\Users\SOLDER~1\AppData\Local\Temp\cc0vShlo.s:27935  .debug_str:0000000000027d26 .LASF5075
C:\Users\SOLDER~1\AppData\Local\Temp\cc0vShlo.s:23161  .debug_str:0000000000014557 .LASF5076
C:\Users\SOLDER~1\AppData\Local\Temp\cc0vShlo.s:28077  .debug_str:000000000002869a .LASF5077
C:\Users\SOLDER~1\AppData\Local\Temp\cc0vShlo.s:24831  .debug_str:000000000001b124 .LASF5078
C:\Users\SOLDER~1\AppData\Local\Temp\cc0vShlo.s:20167  .debug_str:000000000000803a .LASF5079
C:\Users\SOLDER~1\AppData\Local\Temp\cc0vShlo.s:21795  .debug_str:000000000000eb5b .LASF5080
C:\Users\SOLDER~1\AppData\Local\Temp\cc0vShlo.s:18385  .debug_str:0000000000000d01 .LASF5081
C:\Users\SOLDER~1\AppData\Local\Temp\cc0vShlo.s:24929  .debug_str:000000000001b73a .LASF5082
C:\Users\SOLDER~1\AppData\Local\Temp\cc0vShlo.s:26993  .debug_str:0000000000023e40 .LASF5083
C:\Users\SOLDER~1\AppData\Local\Temp\cc0vShlo.s:18571  .debug_str:00000000000018aa .LASF5084
C:\Users\SOLDER~1\AppData\Local\Temp\cc0vShlo.s:25905  .debug_str:000000000001f7d4 .LASF5085
C:\Users\SOLDER~1\AppData\Local\Temp\cc0vShlo.s:19089  .debug_str:0000000000003aac .LASF5086
C:\Users\SOLDER~1\AppData\Local\Temp\cc0vShlo.s:19015  .debug_str:00000000000035d3 .LASF5087
C:\Users\SOLDER~1\AppData\Local\Temp\cc0vShlo.s:27369  .debug_str:0000000000025740 .LASF5088
C:\Users\SOLDER~1\AppData\Local\Temp\cc0vShlo.s:25175  .debug_str:000000000001c7d8 .LASF5089
C:\Users\SOLDER~1\AppData\Local\Temp\cc0vShlo.s:22627  .debug_str:0000000000012141 .LASF5090
C:\Users\SOLDER~1\AppData\Local\Temp\cc0vShlo.s:28147  .debug_str:0000000000028af6 .LASF5091
C:\Users\SOLDER~1\AppData\Local\Temp\cc0vShlo.s:22157  .debug_str:000000000001034a .LASF5092
C:\Users\SOLDER~1\AppData\Local\Temp\cc0vShlo.s:19835  .debug_str:0000000000006a9c .LASF5093
C:\Users\SOLDER~1\AppData\Local\Temp\cc0vShlo.s:24747  .debug_str:000000000001abfc .LASF5094
C:\Users\SOLDER~1\AppData\Local\Temp\cc0vShlo.s:21023  .debug_str:000000000000b87b .LASF5095
C:\Users\SOLDER~1\AppData\Local\Temp\cc0vShlo.s:24933  .debug_str:000000000001b787 .LASF5096
C:\Users\SOLDER~1\AppData\Local\Temp\cc0vShlo.s:21921  .debug_str:000000000000f36d .LASF5097
C:\Users\SOLDER~1\AppData\Local\Temp\cc0vShlo.s:22135  .debug_str:00000000000101b3 .LASF5098
C:\Users\SOLDER~1\AppData\Local\Temp\cc0vShlo.s:20791  .debug_str:000000000000a9a4 .LASF5099
C:\Users\SOLDER~1\AppData\Local\Temp\cc0vShlo.s:29633  .debug_str:000000000002eb4b .LASF5100
C:\Users\SOLDER~1\AppData\Local\Temp\cc0vShlo.s:21353  .debug_str:000000000000ce70 .LASF5101
C:\Users\SOLDER~1\AppData\Local\Temp\cc0vShlo.s:22029  .debug_str:000000000000facf .LASF5102
C:\Users\SOLDER~1\AppData\Local\Temp\cc0vShlo.s:19181  .debug_str:000000000000406d .LASF5103
C:\Users\SOLDER~1\AppData\Local\Temp\cc0vShlo.s:27745  .debug_str:00000000000270c0 .LASF5104
C:\Users\SOLDER~1\AppData\Local\Temp\cc0vShlo.s:28801  .debug_str:000000000002b57f .LASF5105
C:\Users\SOLDER~1\AppData\Local\Temp\cc0vShlo.s:19599  .debug_str:0000000000005af0 .LASF5106
C:\Users\SOLDER~1\AppData\Local\Temp\cc0vShlo.s:24033  .debug_str:0000000000017dc9 .LASF5107
C:\Users\SOLDER~1\AppData\Local\Temp\cc0vShlo.s:24777  .debug_str:000000000001ade9 .LASF5108
GAS LISTING C:\Users\SOLDER~1\AppData\Local\Temp\cc0vShlo.s 			page 100


C:\Users\SOLDER~1\AppData\Local\Temp\cc0vShlo.s:23781  .debug_str:0000000000016d0b .LASF5109
C:\Users\SOLDER~1\AppData\Local\Temp\cc0vShlo.s:24101  .debug_str:000000000001824a .LASF5110
C:\Users\SOLDER~1\AppData\Local\Temp\cc0vShlo.s:22781  .debug_str:0000000000012b5a .LASF5111
C:\Users\SOLDER~1\AppData\Local\Temp\cc0vShlo.s:28325  .debug_str:0000000000029684 .LASF5112
C:\Users\SOLDER~1\AppData\Local\Temp\cc0vShlo.s:26411  .debug_str:0000000000021874 .LASF5113
C:\Users\SOLDER~1\AppData\Local\Temp\cc0vShlo.s:26445  .debug_str:0000000000021a80 .LASF5114
C:\Users\SOLDER~1\AppData\Local\Temp\cc0vShlo.s:27743  .debug_str:000000000002708f .LASF5115
C:\Users\SOLDER~1\AppData\Local\Temp\cc0vShlo.s:29617  .debug_str:000000000002ea5a .LASF5116
C:\Users\SOLDER~1\AppData\Local\Temp\cc0vShlo.s:29549  .debug_str:000000000002e60e .LASF5117
C:\Users\SOLDER~1\AppData\Local\Temp\cc0vShlo.s:23743  .debug_str:0000000000016aed .LASF5118
C:\Users\SOLDER~1\AppData\Local\Temp\cc0vShlo.s:23155  .debug_str:00000000000144f0 .LASF5119
C:\Users\SOLDER~1\AppData\Local\Temp\cc0vShlo.s:22995  .debug_str:00000000000139dd .LASF5120
C:\Users\SOLDER~1\AppData\Local\Temp\cc0vShlo.s:27793  .debug_str:00000000000273e8 .LASF5121
C:\Users\SOLDER~1\AppData\Local\Temp\cc0vShlo.s:24045  .debug_str:0000000000017eaa .LASF5122
C:\Users\SOLDER~1\AppData\Local\Temp\cc0vShlo.s:18509  .debug_str:00000000000014f8 .LASF5123
C:\Users\SOLDER~1\AppData\Local\Temp\cc0vShlo.s:26123  .debug_str:00000000000205c9 .LASF5124
C:\Users\SOLDER~1\AppData\Local\Temp\cc0vShlo.s:25907  .debug_str:000000000001f7f9 .LASF5125
C:\Users\SOLDER~1\AppData\Local\Temp\cc0vShlo.s:20867  .debug_str:000000000000ae86 .LASF5126
C:\Users\SOLDER~1\AppData\Local\Temp\cc0vShlo.s:27679  .debug_str:0000000000026c58 .LASF5127
C:\Users\SOLDER~1\AppData\Local\Temp\cc0vShlo.s:26583  .debug_str:000000000002232d .LASF5128
C:\Users\SOLDER~1\AppData\Local\Temp\cc0vShlo.s:23343  .debug_str:0000000000015161 .LASF5129
C:\Users\SOLDER~1\AppData\Local\Temp\cc0vShlo.s:27431  .debug_str:0000000000025b81 .LASF5130
C:\Users\SOLDER~1\AppData\Local\Temp\cc0vShlo.s:22381  .debug_str:0000000000011171 .LASF5131
C:\Users\SOLDER~1\AppData\Local\Temp\cc0vShlo.s:29315  .debug_str:000000000002d6e6 .LASF5132
C:\Users\SOLDER~1\AppData\Local\Temp\cc0vShlo.s:25849  .debug_str:000000000001f443 .LASF5133
C:\Users\SOLDER~1\AppData\Local\Temp\cc0vShlo.s:26715  .debug_str:0000000000022c1d .LASF5134
C:\Users\SOLDER~1\AppData\Local\Temp\cc0vShlo.s:28211  .debug_str:0000000000028ef2 .LASF5135
C:\Users\SOLDER~1\AppData\Local\Temp\cc0vShlo.s:24321  .debug_str:000000000001909a .LASF5136
C:\Users\SOLDER~1\AppData\Local\Temp\cc0vShlo.s:25057  .debug_str:000000000001bfda .LASF5137
C:\Users\SOLDER~1\AppData\Local\Temp\cc0vShlo.s:20365  .debug_str:0000000000008d11 .LASF5138
C:\Users\SOLDER~1\AppData\Local\Temp\cc0vShlo.s:25901  .debug_str:000000000001f78c .LASF5139
C:\Users\SOLDER~1\AppData\Local\Temp\cc0vShlo.s:28055  .debug_str:000000000002850d .LASF5140
C:\Users\SOLDER~1\AppData\Local\Temp\cc0vShlo.s:26261  .debug_str:0000000000020ed7 .LASF5141
C:\Users\SOLDER~1\AppData\Local\Temp\cc0vShlo.s:18483  .debug_str:0000000000001319 .LASF5142
C:\Users\SOLDER~1\AppData\Local\Temp\cc0vShlo.s:18205  .debug_str:0000000000000048 .LASF5143
C:\Users\SOLDER~1\AppData\Local\Temp\cc0vShlo.s:24913  .debug_str:000000000001b655 .LASF5144
C:\Users\SOLDER~1\AppData\Local\Temp\cc0vShlo.s:29281  .debug_str:000000000002d4b5 .LASF5145
C:\Users\SOLDER~1\AppData\Local\Temp\cc0vShlo.s:18233  .debug_str:00000000000001f5 .LASF5146
C:\Users\SOLDER~1\AppData\Local\Temp\cc0vShlo.s:20587  .debug_str:0000000000009bcd .LASF5147
C:\Users\SOLDER~1\AppData\Local\Temp\cc0vShlo.s:29657  .debug_str:000000000002ecc4 .LASF5148
C:\Users\SOLDER~1\AppData\Local\Temp\cc0vShlo.s:22595  .debug_str:0000000000011f2f .LASF5149
C:\Users\SOLDER~1\AppData\Local\Temp\cc0vShlo.s:24233  .debug_str:0000000000018ab7 .LASF5150
C:\Users\SOLDER~1\AppData\Local\Temp\cc0vShlo.s:20111  .debug_str:0000000000007c88 .LASF5151
C:\Users\SOLDER~1\AppData\Local\Temp\cc0vShlo.s:20121  .debug_str:0000000000007d2a .LASF5152
C:\Users\SOLDER~1\AppData\Local\Temp\cc0vShlo.s:25693  .debug_str:000000000001e9c6 .LASF5153
C:\Users\SOLDER~1\AppData\Local\Temp\cc0vShlo.s:29275  .debug_str:000000000002d44b .LASF5154
C:\Users\SOLDER~1\AppData\Local\Temp\cc0vShlo.s:22289  .debug_str:0000000000010b75 .LASF5155
C:\Users\SOLDER~1\AppData\Local\Temp\cc0vShlo.s:20431  .debug_str:00000000000091c2 .LASF5156
C:\Users\SOLDER~1\AppData\Local\Temp\cc0vShlo.s:23039  .debug_str:0000000000013d01 .LASF5157
C:\Users\SOLDER~1\AppData\Local\Temp\cc0vShlo.s:26095  .debug_str:00000000000203dc .LASF5158
C:\Users\SOLDER~1\AppData\Local\Temp\cc0vShlo.s:23621  .debug_str:0000000000016355 .LASF5159
C:\Users\SOLDER~1\AppData\Local\Temp\cc0vShlo.s:22019  .debug_str:000000000000fa1f .LASF5160
C:\Users\SOLDER~1\AppData\Local\Temp\cc0vShlo.s:29595  .debug_str:000000000002e904 .LASF5161
C:\Users\SOLDER~1\AppData\Local\Temp\cc0vShlo.s:21321  .debug_str:000000000000cc51 .LASF5162
C:\Users\SOLDER~1\AppData\Local\Temp\cc0vShlo.s:25719  .debug_str:000000000001eb75 .LASF5163
C:\Users\SOLDER~1\AppData\Local\Temp\cc0vShlo.s:18897  .debug_str:0000000000002e0b .LASF5164
C:\Users\SOLDER~1\AppData\Local\Temp\cc0vShlo.s:22385  .debug_str:00000000000111b6 .LASF5165
GAS LISTING C:\Users\SOLDER~1\AppData\Local\Temp\cc0vShlo.s 			page 101


C:\Users\SOLDER~1\AppData\Local\Temp\cc0vShlo.s:25489  .debug_str:000000000001dc6f .LASF5166
C:\Users\SOLDER~1\AppData\Local\Temp\cc0vShlo.s:23265  .debug_str:0000000000014c5c .LASF5167
C:\Users\SOLDER~1\AppData\Local\Temp\cc0vShlo.s:27315  .debug_str:000000000002536d .LASF5168
C:\Users\SOLDER~1\AppData\Local\Temp\cc0vShlo.s:25013  .debug_str:000000000001bcd9 .LASF5169
C:\Users\SOLDER~1\AppData\Local\Temp\cc0vShlo.s:21471  .debug_str:000000000000d633 .LASF5170
C:\Users\SOLDER~1\AppData\Local\Temp\cc0vShlo.s:19685  .debug_str:000000000000607e .LASF5171
C:\Users\SOLDER~1\AppData\Local\Temp\cc0vShlo.s:29547  .debug_str:000000000002e5d7 .LASF5172
C:\Users\SOLDER~1\AppData\Local\Temp\cc0vShlo.s:18485  .debug_str:000000000000133c .LASF5173
C:\Users\SOLDER~1\AppData\Local\Temp\cc0vShlo.s:21263  .debug_str:000000000000c86e .LASF5174
C:\Users\SOLDER~1\AppData\Local\Temp\cc0vShlo.s:27733  .debug_str:0000000000026fd4 .LASF5175
C:\Users\SOLDER~1\AppData\Local\Temp\cc0vShlo.s:24665  .debug_str:000000000001a662 .LASF5176
C:\Users\SOLDER~1\AppData\Local\Temp\cc0vShlo.s:20737  .debug_str:000000000000a5e6 .LASF5177
C:\Users\SOLDER~1\AppData\Local\Temp\cc0vShlo.s:18753  .debug_str:00000000000024e2 .LASF5178
C:\Users\SOLDER~1\AppData\Local\Temp\cc0vShlo.s:24737  .debug_str:000000000001ab3d .LASF5179
C:\Users\SOLDER~1\AppData\Local\Temp\cc0vShlo.s:27409  .debug_str:00000000000259ed .LASF5180
C:\Users\SOLDER~1\AppData\Local\Temp\cc0vShlo.s:20421  .debug_str:00000000000090fc .LASF5181
C:\Users\SOLDER~1\AppData\Local\Temp\cc0vShlo.s:27495  .debug_str:0000000000025ffc .LASF5182
C:\Users\SOLDER~1\AppData\Local\Temp\cc0vShlo.s:19445  .debug_str:00000000000050ea .LASF5183
C:\Users\SOLDER~1\AppData\Local\Temp\cc0vShlo.s:18359  .debug_str:0000000000000b31 .LASF5184
C:\Users\SOLDER~1\AppData\Local\Temp\cc0vShlo.s:19537  .debug_str:0000000000005689 .LASF5185
C:\Users\SOLDER~1\AppData\Local\Temp\cc0vShlo.s:22549  .debug_str:0000000000011c6c .LASF5186
C:\Users\SOLDER~1\AppData\Local\Temp\cc0vShlo.s:23685  .debug_str:000000000001672c .LASF5187
C:\Users\SOLDER~1\AppData\Local\Temp\cc0vShlo.s:19731  .debug_str:00000000000063b2 .LASF5188
C:\Users\SOLDER~1\AppData\Local\Temp\cc0vShlo.s:27955  .debug_str:0000000000027e8a .LASF5189
C:\Users\SOLDER~1\AppData\Local\Temp\cc0vShlo.s:26643  .debug_str:0000000000022749 .LASF5190
C:\Users\SOLDER~1\AppData\Local\Temp\cc0vShlo.s:22961  .debug_str:000000000001370f .LASF5191
C:\Users\SOLDER~1\AppData\Local\Temp\cc0vShlo.s:26335  .debug_str:00000000000213a4 .LASF5192
C:\Users\SOLDER~1\AppData\Local\Temp\cc0vShlo.s:27111  .debug_str:000000000002462c .LASF5193
C:\Users\SOLDER~1\AppData\Local\Temp\cc0vShlo.s:25179  .debug_str:000000000001c81e .LASF5194
C:\Users\SOLDER~1\AppData\Local\Temp\cc0vShlo.s:23701  .debug_str:0000000000016838 .LASF5195
C:\Users\SOLDER~1\AppData\Local\Temp\cc0vShlo.s:26961  .debug_str:0000000000023c32 .LASF5196
C:\Users\SOLDER~1\AppData\Local\Temp\cc0vShlo.s:29237  .debug_str:000000000002d209 .LASF5197
C:\Users\SOLDER~1\AppData\Local\Temp\cc0vShlo.s:24565  .debug_str:000000000001a016 .LASF5198
C:\Users\SOLDER~1\AppData\Local\Temp\cc0vShlo.s:24885  .debug_str:000000000001b4a9 .LASF5199
C:\Users\SOLDER~1\AppData\Local\Temp\cc0vShlo.s:26125  .debug_str:00000000000205ea .LASF5200
C:\Users\SOLDER~1\AppData\Local\Temp\cc0vShlo.s:24951  .debug_str:000000000001b8d8 .LASF5201
C:\Users\SOLDER~1\AppData\Local\Temp\cc0vShlo.s:23795  .debug_str:0000000000016e03 .LASF5202
C:\Users\SOLDER~1\AppData\Local\Temp\cc0vShlo.s:27349  .debug_str:00000000000255b1 .LASF5203
C:\Users\SOLDER~1\AppData\Local\Temp\cc0vShlo.s:18551  .debug_str:00000000000017ad .LASF5204
C:\Users\SOLDER~1\AppData\Local\Temp\cc0vShlo.s:22473  .debug_str:0000000000011779 .LASF5205
C:\Users\SOLDER~1\AppData\Local\Temp\cc0vShlo.s:22481  .debug_str:00000000000117fe .LASF5206
C:\Users\SOLDER~1\AppData\Local\Temp\cc0vShlo.s:20801  .debug_str:000000000000aa4c .LASF5207
C:\Users\SOLDER~1\AppData\Local\Temp\cc0vShlo.s:21165  .debug_str:000000000000c1c3 .LASF5208
C:\Users\SOLDER~1\AppData\Local\Temp\cc0vShlo.s:20323  .debug_str:0000000000008a49 .LASF5209
C:\Users\SOLDER~1\AppData\Local\Temp\cc0vShlo.s:20199  .debug_str:0000000000008265 .LASF5210
C:\Users\SOLDER~1\AppData\Local\Temp\cc0vShlo.s:19215  .debug_str:0000000000004297 .LASF5211
C:\Users\SOLDER~1\AppData\Local\Temp\cc0vShlo.s:21429  .debug_str:000000000000d38a .LASF5212
C:\Users\SOLDER~1\AppData\Local\Temp\cc0vShlo.s:26163  .debug_str:000000000002085e .LASF5213
C:\Users\SOLDER~1\AppData\Local\Temp\cc0vShlo.s:21907  .debug_str:000000000000f2a4 .LASF5214
C:\Users\SOLDER~1\AppData\Local\Temp\cc0vShlo.s:18971  .debug_str:00000000000032f6 .LASF5215
C:\Users\SOLDER~1\AppData\Local\Temp\cc0vShlo.s:28583  .debug_str:000000000002a73c .LASF5216
C:\Users\SOLDER~1\AppData\Local\Temp\cc0vShlo.s:22213  .debug_str:0000000000010694 .LASF5217
C:\Users\SOLDER~1\AppData\Local\Temp\cc0vShlo.s:28395  .debug_str:0000000000029afd .LASF5218
C:\Users\SOLDER~1\AppData\Local\Temp\cc0vShlo.s:21985  .debug_str:000000000000f7b6 .LASF5219
C:\Users\SOLDER~1\AppData\Local\Temp\cc0vShlo.s:18747  .debug_str:000000000000247f .LASF5220
C:\Users\SOLDER~1\AppData\Local\Temp\cc0vShlo.s:24581  .debug_str:000000000001a101 .LASF5221
C:\Users\SOLDER~1\AppData\Local\Temp\cc0vShlo.s:19019  .debug_str:0000000000003614 .LASF5222
GAS LISTING C:\Users\SOLDER~1\AppData\Local\Temp\cc0vShlo.s 			page 102


C:\Users\SOLDER~1\AppData\Local\Temp\cc0vShlo.s:19419  .debug_str:0000000000004f6b .LASF5223
C:\Users\SOLDER~1\AppData\Local\Temp\cc0vShlo.s:28483  .debug_str:000000000002a119 .LASF5224
C:\Users\SOLDER~1\AppData\Local\Temp\cc0vShlo.s:18249  .debug_str:000000000000031d .LASF5225
C:\Users\SOLDER~1\AppData\Local\Temp\cc0vShlo.s:19925  .debug_str:00000000000070c1 .LASF5226
C:\Users\SOLDER~1\AppData\Local\Temp\cc0vShlo.s:28717  .debug_str:000000000002b054 .LASF5227
C:\Users\SOLDER~1\AppData\Local\Temp\cc0vShlo.s:20797  .debug_str:000000000000aa0a .LASF5228
C:\Users\SOLDER~1\AppData\Local\Temp\cc0vShlo.s:27499  .debug_str:0000000000026050 .LASF5229
C:\Users\SOLDER~1\AppData\Local\Temp\cc0vShlo.s:28847  .debug_str:000000000002b864 .LASF5230
C:\Users\SOLDER~1\AppData\Local\Temp\cc0vShlo.s:22161  .debug_str:0000000000010384 .LASF5231
C:\Users\SOLDER~1\AppData\Local\Temp\cc0vShlo.s:21169  .debug_str:000000000000c216 .LASF5232
C:\Users\SOLDER~1\AppData\Local\Temp\cc0vShlo.s:27167  .debug_str:00000000000249e6 .LASF5233
C:\Users\SOLDER~1\AppData\Local\Temp\cc0vShlo.s:24441  .debug_str:0000000000019839 .LASF5234
C:\Users\SOLDER~1\AppData\Local\Temp\cc0vShlo.s:21713  .debug_str:000000000000e61e .LASF5235
C:\Users\SOLDER~1\AppData\Local\Temp\cc0vShlo.s:29465  .debug_str:000000000002e066 .LASF5236
C:\Users\SOLDER~1\AppData\Local\Temp\cc0vShlo.s:22407  .debug_str:0000000000011314 .LASF5237
C:\Users\SOLDER~1\AppData\Local\Temp\cc0vShlo.s:25235  .debug_str:000000000001cc1b .LASF5238
C:\Users\SOLDER~1\AppData\Local\Temp\cc0vShlo.s:23985  .debug_str:0000000000017a80 .LASF5239
C:\Users\SOLDER~1\AppData\Local\Temp\cc0vShlo.s:20097  .debug_str:0000000000007b87 .LASF5240
C:\Users\SOLDER~1\AppData\Local\Temp\cc0vShlo.s:29433  .debug_str:000000000002de54 .LASF5241
C:\Users\SOLDER~1\AppData\Local\Temp\cc0vShlo.s:25577  .debug_str:000000000001e201 .LASF5242
C:\Users\SOLDER~1\AppData\Local\Temp\cc0vShlo.s:18493  .debug_str:00000000000013d0 .LASF5243
C:\Users\SOLDER~1\AppData\Local\Temp\cc0vShlo.s:23489  .debug_str:0000000000015ae5 .LASF5244
C:\Users\SOLDER~1\AppData\Local\Temp\cc0vShlo.s:27669  .debug_str:0000000000026b98 .LASF5245
C:\Users\SOLDER~1\AppData\Local\Temp\cc0vShlo.s:22609  .debug_str:0000000000012003 .LASF5246
C:\Users\SOLDER~1\AppData\Local\Temp\cc0vShlo.s:27903  .debug_str:0000000000027b02 .LASF5247
C:\Users\SOLDER~1\AppData\Local\Temp\cc0vShlo.s:18579  .debug_str:000000000000194f .LASF5248
C:\Users\SOLDER~1\AppData\Local\Temp\cc0vShlo.s:26569  .debug_str:0000000000022239 .LASF5249
C:\Users\SOLDER~1\AppData\Local\Temp\cc0vShlo.s:24559  .debug_str:0000000000019fb0 .LASF5250
C:\Users\SOLDER~1\AppData\Local\Temp\cc0vShlo.s:23509  .debug_str:0000000000015c26 .LASF5251
C:\Users\SOLDER~1\AppData\Local\Temp\cc0vShlo.s:20811  .debug_str:000000000000aacf .LASF5252
C:\Users\SOLDER~1\AppData\Local\Temp\cc0vShlo.s:18337  .debug_str:00000000000009b2 .LASF5253
C:\Users\SOLDER~1\AppData\Local\Temp\cc0vShlo.s:25681  .debug_str:000000000001e907 .LASF5254
C:\Users\SOLDER~1\AppData\Local\Temp\cc0vShlo.s:28441  .debug_str:0000000000029e1a .LASF5255
C:\Users\SOLDER~1\AppData\Local\Temp\cc0vShlo.s:23933  .debug_str:000000000001773b .LASF5256
C:\Users\SOLDER~1\AppData\Local\Temp\cc0vShlo.s:22127  .debug_str:0000000000010145 .LASF5257
C:\Users\SOLDER~1\AppData\Local\Temp\cc0vShlo.s:18891  .debug_str:0000000000002da9 .LASF5258
C:\Users\SOLDER~1\AppData\Local\Temp\cc0vShlo.s:20033  .debug_str:000000000000775c .LASF5259
C:\Users\SOLDER~1\AppData\Local\Temp\cc0vShlo.s:25461  .debug_str:000000000001da76 .LASF5260
C:\Users\SOLDER~1\AppData\Local\Temp\cc0vShlo.s:20131  .debug_str:0000000000007dcb .LASF5261
C:\Users\SOLDER~1\AppData\Local\Temp\cc0vShlo.s:27311  .debug_str:0000000000025325 .LASF5262
C:\Users\SOLDER~1\AppData\Local\Temp\cc0vShlo.s:18963  .debug_str:0000000000003266 .LASF5263
C:\Users\SOLDER~1\AppData\Local\Temp\cc0vShlo.s:19567  .debug_str:00000000000058c8 .LASF5264
C:\Users\SOLDER~1\AppData\Local\Temp\cc0vShlo.s:25117  .debug_str:000000000001c3e5 .LASF5265
C:\Users\SOLDER~1\AppData\Local\Temp\cc0vShlo.s:18981  .debug_str:00000000000033b1 .LASF5266
C:\Users\SOLDER~1\AppData\Local\Temp\cc0vShlo.s:28991  .debug_str:000000000002c20c .LASF5267
C:\Users\SOLDER~1\AppData\Local\Temp\cc0vShlo.s:21855  .debug_str:000000000000ef57 .LASF5268
C:\Users\SOLDER~1\AppData\Local\Temp\cc0vShlo.s:22225  .debug_str:000000000001077f .LASF5269
C:\Users\SOLDER~1\AppData\Local\Temp\cc0vShlo.s:19165  .debug_str:0000000000003f66 .LASF5270
C:\Users\SOLDER~1\AppData\Local\Temp\cc0vShlo.s:19539  .debug_str:00000000000056bc .LASF5271
C:\Users\SOLDER~1\AppData\Local\Temp\cc0vShlo.s:18417  .debug_str:0000000000000f0f .LASF5272
C:\Users\SOLDER~1\AppData\Local\Temp\cc0vShlo.s:22951  .debug_str:000000000001367f .LASF5273
C:\Users\SOLDER~1\AppData\Local\Temp\cc0vShlo.s:26779  .debug_str:000000000002302e .LASF5274
C:\Users\SOLDER~1\AppData\Local\Temp\cc0vShlo.s:23875  .debug_str:000000000001735c .LASF5275
C:\Users\SOLDER~1\AppData\Local\Temp\cc0vShlo.s:23785  .debug_str:0000000000016d59 .LASF5276
C:\Users\SOLDER~1\AppData\Local\Temp\cc0vShlo.s:21789  .debug_str:000000000000eaeb .LASF5277
C:\Users\SOLDER~1\AppData\Local\Temp\cc0vShlo.s:19921  .debug_str:0000000000007074 .LASF5278
C:\Users\SOLDER~1\AppData\Local\Temp\cc0vShlo.s:20175  .debug_str:00000000000080e6 .LASF5279
GAS LISTING C:\Users\SOLDER~1\AppData\Local\Temp\cc0vShlo.s 			page 103


C:\Users\SOLDER~1\AppData\Local\Temp\cc0vShlo.s:28229  .debug_str:0000000000029024 .LASF5280
C:\Users\SOLDER~1\AppData\Local\Temp\cc0vShlo.s:23681  .debug_str:00000000000166db .LASF5281
C:\Users\SOLDER~1\AppData\Local\Temp\cc0vShlo.s:21257  .debug_str:000000000000c80a .LASF5282
C:\Users\SOLDER~1\AppData\Local\Temp\cc0vShlo.s:26921  .debug_str:0000000000023978 .LASF5283
C:\Users\SOLDER~1\AppData\Local\Temp\cc0vShlo.s:25051  .debug_str:000000000001bf52 .LASF5284
C:\Users\SOLDER~1\AppData\Local\Temp\cc0vShlo.s:25251  .debug_str:000000000001cd1b .LASF5285
C:\Users\SOLDER~1\AppData\Local\Temp\cc0vShlo.s:22369  .debug_str:00000000000110c7 .LASF5286
C:\Users\SOLDER~1\AppData\Local\Temp\cc0vShlo.s:20937  .debug_str:000000000000b2d5 .LASF5287
C:\Users\SOLDER~1\AppData\Local\Temp\cc0vShlo.s:25555  .debug_str:000000000001e0a1 .LASF5288
C:\Users\SOLDER~1\AppData\Local\Temp\cc0vShlo.s:25911  .debug_str:000000000001f831 .LASF5289
C:\Users\SOLDER~1\AppData\Local\Temp\cc0vShlo.s:20577  .debug_str:0000000000009b3d .LASF5290
C:\Users\SOLDER~1\AppData\Local\Temp\cc0vShlo.s:28693  .debug_str:000000000002aea8 .LASF5291
C:\Users\SOLDER~1\AppData\Local\Temp\cc0vShlo.s:27491  .debug_str:0000000000025fac .LASF5292
C:\Users\SOLDER~1\AppData\Local\Temp\cc0vShlo.s:18669  .debug_str:0000000000001f5b .LASF5293
C:\Users\SOLDER~1\AppData\Local\Temp\cc0vShlo.s:22869  .debug_str:0000000000013106 .LASF5294
C:\Users\SOLDER~1\AppData\Local\Temp\cc0vShlo.s:19225  .debug_str:000000000000432a .LASF5295
C:\Users\SOLDER~1\AppData\Local\Temp\cc0vShlo.s:22925  .debug_str:00000000000134ce .LASF5296
C:\Users\SOLDER~1\AppData\Local\Temp\cc0vShlo.s:20691  .debug_str:000000000000a2bc .LASF5297
C:\Users\SOLDER~1\AppData\Local\Temp\cc0vShlo.s:26575  .debug_str:00000000000222ab .LASF5298
C:\Users\SOLDER~1\AppData\Local\Temp\cc0vShlo.s:23549  .debug_str:0000000000015eaa .LASF5299
C:\Users\SOLDER~1\AppData\Local\Temp\cc0vShlo.s:28357  .debug_str:0000000000029864 .LASF5300
C:\Users\SOLDER~1\AppData\Local\Temp\cc0vShlo.s:24239  .debug_str:0000000000018b2d .LASF5301
C:\Users\SOLDER~1\AppData\Local\Temp\cc0vShlo.s:27805  .debug_str:00000000000274ae .LASF5302
C:\Users\SOLDER~1\AppData\Local\Temp\cc0vShlo.s:25659  .debug_str:000000000001e78e .LASF5303
C:\Users\SOLDER~1\AppData\Local\Temp\cc0vShlo.s:22721  .debug_str:0000000000012729 .LASF5304
C:\Users\SOLDER~1\AppData\Local\Temp\cc0vShlo.s:23869  .debug_str:00000000000172ef .LASF5305
C:\Users\SOLDER~1\AppData\Local\Temp\cc0vShlo.s:25317  .debug_str:000000000001d199 .LASF5306
C:\Users\SOLDER~1\AppData\Local\Temp\cc0vShlo.s:18577  .debug_str:0000000000001924 .LASF5307
C:\Users\SOLDER~1\AppData\Local\Temp\cc0vShlo.s:26839  .debug_str:0000000000023458 .LASF5308
C:\Users\SOLDER~1\AppData\Local\Temp\cc0vShlo.s:23419  .debug_str:000000000001565c .LASF5309
C:\Users\SOLDER~1\AppData\Local\Temp\cc0vShlo.s:19903  .debug_str:0000000000006f46 .LASF5310
C:\Users\SOLDER~1\AppData\Local\Temp\cc0vShlo.s:19451  .debug_str:000000000000514e .LASF5311
C:\Users\SOLDER~1\AppData\Local\Temp\cc0vShlo.s:22279  .debug_str:0000000000010ae2 .LASF5312
C:\Users\SOLDER~1\AppData\Local\Temp\cc0vShlo.s:20427  .debug_str:0000000000009186 .LASF5313
C:\Users\SOLDER~1\AppData\Local\Temp\cc0vShlo.s:27199  .debug_str:0000000000024bf9 .LASF5314
C:\Users\SOLDER~1\AppData\Local\Temp\cc0vShlo.s:28235  .debug_str:0000000000029092 .LASF5315
C:\Users\SOLDER~1\AppData\Local\Temp\cc0vShlo.s:19573  .debug_str:0000000000005921 .LASF5316
C:\Users\SOLDER~1\AppData\Local\Temp\cc0vShlo.s:23543  .debug_str:0000000000015e48 .LASF5317
C:\Users\SOLDER~1\AppData\Local\Temp\cc0vShlo.s:21151  .debug_str:000000000000c0e5 .LASF5318
C:\Users\SOLDER~1\AppData\Local\Temp\cc0vShlo.s:20079  .debug_str:0000000000007a40 .LASF5319
C:\Users\SOLDER~1\AppData\Local\Temp\cc0vShlo.s:19961  .debug_str:0000000000007300 .LASF5320
C:\Users\SOLDER~1\AppData\Local\Temp\cc0vShlo.s:26427  .debug_str:0000000000021983 .LASF5321
C:\Users\SOLDER~1\AppData\Local\Temp\cc0vShlo.s:24479  .debug_str:0000000000019ac6 .LASF5322
C:\Users\SOLDER~1\AppData\Local\Temp\cc0vShlo.s:27819  .debug_str:0000000000027593 .LASF5323
C:\Users\SOLDER~1\AppData\Local\Temp\cc0vShlo.s:29635  .debug_str:000000000002eb6c .LASF5324
C:\Users\SOLDER~1\AppData\Local\Temp\cc0vShlo.s:26637  .debug_str:00000000000226d0 .LASF5325
C:\Users\SOLDER~1\AppData\Local\Temp\cc0vShlo.s:29113  .debug_str:000000000002c9a4 .LASF5326
C:\Users\SOLDER~1\AppData\Local\Temp\cc0vShlo.s:19043  .debug_str:00000000000037ab .LASF5327
C:\Users\SOLDER~1\AppData\Local\Temp\cc0vShlo.s:28757  .debug_str:000000000002b2b6 .LASF5328
C:\Users\SOLDER~1\AppData\Local\Temp\cc0vShlo.s:24241  .debug_str:0000000000018b58 .LASF5329
C:\Users\SOLDER~1\AppData\Local\Temp\cc0vShlo.s:24009  .debug_str:0000000000017c26 .LASF5330
C:\Users\SOLDER~1\AppData\Local\Temp\cc0vShlo.s:21883  .debug_str:000000000000f100 .LASF5331
C:\Users\SOLDER~1\AppData\Local\Temp\cc0vShlo.s:21275  .debug_str:000000000000c951 .LASF5332
C:\Users\SOLDER~1\AppData\Local\Temp\cc0vShlo.s:28825  .debug_str:000000000002b714 .LASF5333
C:\Users\SOLDER~1\AppData\Local\Temp\cc0vShlo.s:28209  .debug_str:0000000000028ed1 .LASF5334
C:\Users\SOLDER~1\AppData\Local\Temp\cc0vShlo.s:29145  .debug_str:000000000002cbbf .LASF5335
C:\Users\SOLDER~1\AppData\Local\Temp\cc0vShlo.s:26559  .debug_str:0000000000022182 .LASF5336
GAS LISTING C:\Users\SOLDER~1\AppData\Local\Temp\cc0vShlo.s 			page 104


C:\Users\SOLDER~1\AppData\Local\Temp\cc0vShlo.s:22359  .debug_str:0000000000011019 .LASF5337
C:\Users\SOLDER~1\AppData\Local\Temp\cc0vShlo.s:19561  .debug_str:0000000000005861 .LASF5338
C:\Users\SOLDER~1\AppData\Local\Temp\cc0vShlo.s:28785  .debug_str:000000000002b47e .LASF5339
C:\Users\SOLDER~1\AppData\Local\Temp\cc0vShlo.s:23451  .debug_str:0000000000015884 .LASF5340
C:\Users\SOLDER~1\AppData\Local\Temp\cc0vShlo.s:23151  .debug_str:00000000000144ad .LASF5341
C:\Users\SOLDER~1\AppData\Local\Temp\cc0vShlo.s:27967  .debug_str:0000000000027f6d .LASF5342
C:\Users\SOLDER~1\AppData\Local\Temp\cc0vShlo.s:18993  .debug_str:0000000000003482 .LASF5343
C:\Users\SOLDER~1\AppData\Local\Temp\cc0vShlo.s:23075  .debug_str:0000000000013f53 .LASF5344
C:\Users\SOLDER~1\AppData\Local\Temp\cc0vShlo.s:24573  .debug_str:000000000001a07e .LASF5345
C:\Users\SOLDER~1\AppData\Local\Temp\cc0vShlo.s:18899  .debug_str:0000000000002e31 .LASF5346
C:\Users\SOLDER~1\AppData\Local\Temp\cc0vShlo.s:20141  .debug_str:0000000000007e80 .LASF5347
C:\Users\SOLDER~1\AppData\Local\Temp\cc0vShlo.s:29137  .debug_str:000000000002cb38 .LASF5348
C:\Users\SOLDER~1\AppData\Local\Temp\cc0vShlo.s:23597  .debug_str:00000000000161cc .LASF5349
C:\Users\SOLDER~1\AppData\Local\Temp\cc0vShlo.s:27117  .debug_str:000000000002468d .LASF5350
C:\Users\SOLDER~1\AppData\Local\Temp\cc0vShlo.s:22625  .debug_str:0000000000012121 .LASF5351
C:\Users\SOLDER~1\AppData\Local\Temp\cc0vShlo.s:28895  .debug_str:000000000002bb81 .LASF5352
C:\Users\SOLDER~1\AppData\Local\Temp\cc0vShlo.s:23163  .debug_str:0000000000014587 .LASF5353
C:\Users\SOLDER~1\AppData\Local\Temp\cc0vShlo.s:21427  .debug_str:000000000000d36a .LASF5354
C:\Users\SOLDER~1\AppData\Local\Temp\cc0vShlo.s:29021  .debug_str:000000000002c3e6 .LASF5355
C:\Users\SOLDER~1\AppData\Local\Temp\cc0vShlo.s:27359  .debug_str:000000000002566d .LASF5356
C:\Users\SOLDER~1\AppData\Local\Temp\cc0vShlo.s:23247  .debug_str:0000000000014b26 .LASF5357
C:\Users\SOLDER~1\AppData\Local\Temp\cc0vShlo.s:19343  .debug_str:0000000000004ab4 .LASF5358
C:\Users\SOLDER~1\AppData\Local\Temp\cc0vShlo.s:19529  .debug_str:00000000000055f6 .LASF5359
C:\Users\SOLDER~1\AppData\Local\Temp\cc0vShlo.s:24531  .debug_str:0000000000019dd9 .LASF5360
C:\Users\SOLDER~1\AppData\Local\Temp\cc0vShlo.s:26639  .debug_str:00000000000226f0 .LASF5361
C:\Users\SOLDER~1\AppData\Local\Temp\cc0vShlo.s:18473  .debug_str:0000000000001295 .LASF5362
C:\Users\SOLDER~1\AppData\Local\Temp\cc0vShlo.s:21997  .debug_str:000000000000f8ad .LASF5363
C:\Users\SOLDER~1\AppData\Local\Temp\cc0vShlo.s:26861  .debug_str:00000000000235de .LASF5364
C:\Users\SOLDER~1\AppData\Local\Temp\cc0vShlo.s:18265  .debug_str:000000000000042f .LASF5365
C:\Users\SOLDER~1\AppData\Local\Temp\cc0vShlo.s:23421  .debug_str:0000000000015689 .LASF5366
C:\Users\SOLDER~1\AppData\Local\Temp\cc0vShlo.s:29659  .debug_str:000000000002ecea .LASF5367
C:\Users\SOLDER~1\AppData\Local\Temp\cc0vShlo.s:24387  .debug_str:000000000001952a .LASF5368
C:\Users\SOLDER~1\AppData\Local\Temp\cc0vShlo.s:28953  .debug_str:000000000002bf97 .LASF5369
C:\Users\SOLDER~1\AppData\Local\Temp\cc0vShlo.s:24367  .debug_str:00000000000193c1 .LASF5370
C:\Users\SOLDER~1\AppData\Local\Temp\cc0vShlo.s:22147  .debug_str:0000000000010289 .LASF5371
C:\Users\SOLDER~1\AppData\Local\Temp\cc0vShlo.s:23165  .debug_str:00000000000145a7 .LASF5372
C:\Users\SOLDER~1\AppData\Local\Temp\cc0vShlo.s:22829  .debug_str:0000000000012e72 .LASF5373
C:\Users\SOLDER~1\AppData\Local\Temp\cc0vShlo.s:25983  .debug_str:000000000001fca2 .LASF5374
C:\Users\SOLDER~1\AppData\Local\Temp\cc0vShlo.s:29439  .debug_str:000000000002dec6 .LASF5375
C:\Users\SOLDER~1\AppData\Local\Temp\cc0vShlo.s:21035  .debug_str:000000000000b939 .LASF5376
C:\Users\SOLDER~1\AppData\Local\Temp\cc0vShlo.s:24725  .debug_str:000000000001aa4d .LASF5377
C:\Users\SOLDER~1\AppData\Local\Temp\cc0vShlo.s:29157  .debug_str:000000000002cc94 .LASF5378
C:\Users\SOLDER~1\AppData\Local\Temp\cc0vShlo.s:27081  .debug_str:000000000002443b .LASF5379
C:\Users\SOLDER~1\AppData\Local\Temp\cc0vShlo.s:24649  .debug_str:000000000001a543 .LASF5380
C:\Users\SOLDER~1\AppData\Local\Temp\cc0vShlo.s:25327  .debug_str:000000000001d248 .LASF5381
C:\Users\SOLDER~1\AppData\Local\Temp\cc0vShlo.s:20991  .debug_str:000000000000b655 .LASF5382
C:\Users\SOLDER~1\AppData\Local\Temp\cc0vShlo.s:24141  .debug_str:00000000000184cf .LASF5383
C:\Users\SOLDER~1\AppData\Local\Temp\cc0vShlo.s:27837  .debug_str:00000000000276aa .LASF5384
C:\Users\SOLDER~1\AppData\Local\Temp\cc0vShlo.s:22047  .debug_str:000000000000fc2f .LASF5385
C:\Users\SOLDER~1\AppData\Local\Temp\cc0vShlo.s:24221  .debug_str:0000000000018a06 .LASF5386
C:\Users\SOLDER~1\AppData\Local\Temp\cc0vShlo.s:23221  .debug_str:0000000000014969 .LASF5387
C:\Users\SOLDER~1\AppData\Local\Temp\cc0vShlo.s:28775  .debug_str:000000000002b3cc .LASF5388
C:\Users\SOLDER~1\AppData\Local\Temp\cc0vShlo.s:29231  .debug_str:000000000002d1b2 .LASF5389
C:\Users\SOLDER~1\AppData\Local\Temp\cc0vShlo.s:29079  .debug_str:000000000002c786 .LASF5390
C:\Users\SOLDER~1\AppData\Local\Temp\cc0vShlo.s:19673  .debug_str:0000000000005f9d .LASF5391
C:\Users\SOLDER~1\AppData\Local\Temp\cc0vShlo.s:18817  .debug_str:000000000000293b .LASF5392
C:\Users\SOLDER~1\AppData\Local\Temp\cc0vShlo.s:22291  .debug_str:0000000000010b9e .LASF5393
GAS LISTING C:\Users\SOLDER~1\AppData\Local\Temp\cc0vShlo.s 			page 105


C:\Users\SOLDER~1\AppData\Local\Temp\cc0vShlo.s:20765  .debug_str:000000000000a7da .LASF5394
C:\Users\SOLDER~1\AppData\Local\Temp\cc0vShlo.s:24395  .debug_str:00000000000195bb .LASF5395
C:\Users\SOLDER~1\AppData\Local\Temp\cc0vShlo.s:27761  .debug_str:00000000000271d3 .LASF5396
C:\Users\SOLDER~1\AppData\Local\Temp\cc0vShlo.s:21239  .debug_str:000000000000c6d7 .LASF5397
C:\Users\SOLDER~1\AppData\Local\Temp\cc0vShlo.s:22355  .debug_str:0000000000010fd0 .LASF5398
C:\Users\SOLDER~1\AppData\Local\Temp\cc0vShlo.s:20787  .debug_str:000000000000a95a .LASF5399
C:\Users\SOLDER~1\AppData\Local\Temp\cc0vShlo.s:29109  .debug_str:000000000002c968 .LASF5400
C:\Users\SOLDER~1\AppData\Local\Temp\cc0vShlo.s:25655  .debug_str:000000000001e741 .LASF5401
C:\Users\SOLDER~1\AppData\Local\Temp\cc0vShlo.s:26685  .debug_str:0000000000022a2b .LASF5402
C:\Users\SOLDER~1\AppData\Local\Temp\cc0vShlo.s:25141  .debug_str:000000000001c592 .LASF5403
C:\Users\SOLDER~1\AppData\Local\Temp\cc0vShlo.s:20337  .debug_str:0000000000008b3a .LASF5404
C:\Users\SOLDER~1\AppData\Local\Temp\cc0vShlo.s:27991  .debug_str:00000000000280da .LASF5405
C:\Users\SOLDER~1\AppData\Local\Temp\cc0vShlo.s:29365  .debug_str:000000000002da1a .LASF5406
C:\Users\SOLDER~1\AppData\Local\Temp\cc0vShlo.s:19533  .debug_str:0000000000005643 .LASF5407
C:\Users\SOLDER~1\AppData\Local\Temp\cc0vShlo.s:23169  .debug_str:00000000000145fa .LASF5408
C:\Users\SOLDER~1\AppData\Local\Temp\cc0vShlo.s:28787  .debug_str:000000000002b49f .LASF5409
C:\Users\SOLDER~1\AppData\Local\Temp\cc0vShlo.s:29177  .debug_str:000000000002ce04 .LASF5410
C:\Users\SOLDER~1\AppData\Local\Temp\cc0vShlo.s:22429  .debug_str:00000000000114d5 .LASF5411
C:\Users\SOLDER~1\AppData\Local\Temp\cc0vShlo.s:19323  .debug_str:0000000000004982 .LASF5412
C:\Users\SOLDER~1\AppData\Local\Temp\cc0vShlo.s:18973  .debug_str:0000000000003319 .LASF5413
C:\Users\SOLDER~1\AppData\Local\Temp\cc0vShlo.s:24881  .debug_str:000000000001b461 .LASF5414
C:\Users\SOLDER~1\AppData\Local\Temp\cc0vShlo.s:28125  .debug_str:0000000000028998 .LASF5415
C:\Users\SOLDER~1\AppData\Local\Temp\cc0vShlo.s:20761  .debug_str:000000000000a7a2 .LASF5416
C:\Users\SOLDER~1\AppData\Local\Temp\cc0vShlo.s:21991  .debug_str:000000000000f84b .LASF5417
C:\Users\SOLDER~1\AppData\Local\Temp\cc0vShlo.s:25295  .debug_str:000000000001d01f .LASF5418
C:\Users\SOLDER~1\AppData\Local\Temp\cc0vShlo.s:26143  .debug_str:000000000002070e .LASF5419
C:\Users\SOLDER~1\AppData\Local\Temp\cc0vShlo.s:20629  .debug_str:0000000000009eb2 .LASF5420
C:\Users\SOLDER~1\AppData\Local\Temp\cc0vShlo.s:18601  .debug_str:0000000000001ad3 .LASF5421
C:\Users\SOLDER~1\AppData\Local\Temp\cc0vShlo.s:24455  .debug_str:000000000001992e .LASF5422
C:\Users\SOLDER~1\AppData\Local\Temp\cc0vShlo.s:19351  .debug_str:0000000000004b41 .LASF5423
C:\Users\SOLDER~1\AppData\Local\Temp\cc0vShlo.s:28951  .debug_str:000000000002bf74 .LASF5424
C:\Users\SOLDER~1\AppData\Local\Temp\cc0vShlo.s:26027  .debug_str:000000000001ff74 .LASF5425
C:\Users\SOLDER~1\AppData\Local\Temp\cc0vShlo.s:26507  .debug_str:0000000000021e80 .LASF5426
C:\Users\SOLDER~1\AppData\Local\Temp\cc0vShlo.s:23647  .debug_str:00000000000164f9 .LASF5427
C:\Users\SOLDER~1\AppData\Local\Temp\cc0vShlo.s:22181  .debug_str:00000000000104b7 .LASF5428
C:\Users\SOLDER~1\AppData\Local\Temp\cc0vShlo.s:23513  .debug_str:0000000000015c6e .LASF5429
C:\Users\SOLDER~1\AppData\Local\Temp\cc0vShlo.s:22505  .debug_str:0000000000011982 .LASF5430
C:\Users\SOLDER~1\AppData\Local\Temp\cc0vShlo.s:27437  .debug_str:0000000000025be5 .LASF5431
C:\Users\SOLDER~1\AppData\Local\Temp\cc0vShlo.s:22065  .debug_str:000000000000fd66 .LASF5432
C:\Users\SOLDER~1\AppData\Local\Temp\cc0vShlo.s:20945  .debug_str:000000000000b367 .LASF5433
C:\Users\SOLDER~1\AppData\Local\Temp\cc0vShlo.s:22827  .debug_str:0000000000012e4d .LASF5434
C:\Users\SOLDER~1\AppData\Local\Temp\cc0vShlo.s:21899  .debug_str:000000000000f224 .LASF5435
C:\Users\SOLDER~1\AppData\Local\Temp\cc0vShlo.s:19069  .debug_str:000000000000394e .LASF5436
C:\Users\SOLDER~1\AppData\Local\Temp\cc0vShlo.s:20743  .debug_str:000000000000a670 .LASF5437
C:\Users\SOLDER~1\AppData\Local\Temp\cc0vShlo.s:19231  .debug_str:00000000000043a2 .LASF5438
C:\Users\SOLDER~1\AppData\Local\Temp\cc0vShlo.s:20679  .debug_str:000000000000a21e .LASF5439
C:\Users\SOLDER~1\AppData\Local\Temp\cc0vShlo.s:20593  .debug_str:0000000000009c33 .LASF5440
C:\Users\SOLDER~1\AppData\Local\Temp\cc0vShlo.s:28911  .debug_str:000000000002bc98 .LASF5441
C:\Users\SOLDER~1\AppData\Local\Temp\cc0vShlo.s:23779  .debug_str:0000000000016cea .LASF5442
C:\Users\SOLDER~1\AppData\Local\Temp\cc0vShlo.s:24567  .debug_str:000000000001a028 .LASF5443
C:\Users\SOLDER~1\AppData\Local\Temp\cc0vShlo.s:23393  .debug_str:00000000000154b4 .LASF5444
C:\Users\SOLDER~1\AppData\Local\Temp\cc0vShlo.s:26379  .debug_str:0000000000021650 .LASF5445
C:\Users\SOLDER~1\AppData\Local\Temp\cc0vShlo.s:27489  .debug_str:0000000000025f86 .LASF5446
C:\Users\SOLDER~1\AppData\Local\Temp\cc0vShlo.s:21021  .debug_str:000000000000b853 .LASF5447
C:\Users\SOLDER~1\AppData\Local\Temp\cc0vShlo.s:19895  .debug_str:0000000000006e92 .LASF5448
C:\Users\SOLDER~1\AppData\Local\Temp\cc0vShlo.s:20469  .debug_str:0000000000009457 .LASF5449
C:\Users\SOLDER~1\AppData\Local\Temp\cc0vShlo.s:21029  .debug_str:000000000000b8c7 .LASF5450
GAS LISTING C:\Users\SOLDER~1\AppData\Local\Temp\cc0vShlo.s 			page 106


C:\Users\SOLDER~1\AppData\Local\Temp\cc0vShlo.s:21953  .debug_str:000000000000f592 .LASF5451
C:\Users\SOLDER~1\AppData\Local\Temp\cc0vShlo.s:24683  .debug_str:000000000001a7a7 .LASF5452
C:\Users\SOLDER~1\AppData\Local\Temp\cc0vShlo.s:25281  .debug_str:000000000001cef5 .LASF5453
C:\Users\SOLDER~1\AppData\Local\Temp\cc0vShlo.s:29035  .debug_str:000000000002c4c1 .LASF5454
C:\Users\SOLDER~1\AppData\Local\Temp\cc0vShlo.s:28579  .debug_str:000000000002a6ff .LASF5455
C:\Users\SOLDER~1\AppData\Local\Temp\cc0vShlo.s:25201  .debug_str:000000000001c9ba .LASF5456
C:\Users\SOLDER~1\AppData\Local\Temp\cc0vShlo.s:21989  .debug_str:000000000000f81f .LASF5457
C:\Users\SOLDER~1\AppData\Local\Temp\cc0vShlo.s:23783  .debug_str:0000000000016d2e .LASF5458
C:\Users\SOLDER~1\AppData\Local\Temp\cc0vShlo.s:21341  .debug_str:000000000000cdba .LASF5459
C:\Users\SOLDER~1\AppData\Local\Temp\cc0vShlo.s:20591  .debug_str:0000000000009c10 .LASF5460
C:\Users\SOLDER~1\AppData\Local\Temp\cc0vShlo.s:27317  .debug_str:0000000000025390 .LASF5461
C:\Users\SOLDER~1\AppData\Local\Temp\cc0vShlo.s:22071  .debug_str:000000000000fdc9 .LASF5462
C:\Users\SOLDER~1\AppData\Local\Temp\cc0vShlo.s:29343  .debug_str:000000000002d89a .LASF5463
C:\Users\SOLDER~1\AppData\Local\Temp\cc0vShlo.s:25651  .debug_str:000000000001e6f6 .LASF5464
C:\Users\SOLDER~1\AppData\Local\Temp\cc0vShlo.s:18347  .debug_str:0000000000000a6a .LASF5465
C:\Users\SOLDER~1\AppData\Local\Temp\cc0vShlo.s:23007  .debug_str:0000000000013ac1 .LASF5466
C:\Users\SOLDER~1\AppData\Local\Temp\cc0vShlo.s:28159  .debug_str:0000000000028baf .LASF5467
C:\Users\SOLDER~1\AppData\Local\Temp\cc0vShlo.s:24715  .debug_str:000000000001a97e .LASF5468
C:\Users\SOLDER~1\AppData\Local\Temp\cc0vShlo.s:21003  .debug_str:000000000000b714 .LASF5469
C:\Users\SOLDER~1\AppData\Local\Temp\cc0vShlo.s:23815  .debug_str:0000000000016f57 .LASF5470
C:\Users\SOLDER~1\AppData\Local\Temp\cc0vShlo.s:28481  .debug_str:000000000002a0f6 .LASF5471
C:\Users\SOLDER~1\AppData\Local\Temp\cc0vShlo.s:21725  .debug_str:000000000000e6e9 .LASF5472
C:\Users\SOLDER~1\AppData\Local\Temp\cc0vShlo.s:24931  .debug_str:000000000001b75f .LASF5473
C:\Users\SOLDER~1\AppData\Local\Temp\cc0vShlo.s:21475  .debug_str:000000000000d68f .LASF5474
C:\Users\SOLDER~1\AppData\Local\Temp\cc0vShlo.s:27615  .debug_str:0000000000026827 .LASF5475
C:\Users\SOLDER~1\AppData\Local\Temp\cc0vShlo.s:26973  .debug_str:0000000000023cf4 .LASF5476
C:\Users\SOLDER~1\AppData\Local\Temp\cc0vShlo.s:28883  .debug_str:000000000002babf .LASF5477
C:\Users\SOLDER~1\AppData\Local\Temp\cc0vShlo.s:21365  .debug_str:000000000000cf3b .LASF5478
C:\Users\SOLDER~1\AppData\Local\Temp\cc0vShlo.s:26917  .debug_str:0000000000023936 .LASF5479
C:\Users\SOLDER~1\AppData\Local\Temp\cc0vShlo.s:24151  .debug_str:0000000000018579 .LASF5480
C:\Users\SOLDER~1\AppData\Local\Temp\cc0vShlo.s:28051  .debug_str:000000000002849f .LASF5481
C:\Users\SOLDER~1\AppData\Local\Temp\cc0vShlo.s:24741  .debug_str:000000000001ab99 .LASF5482
C:\Users\SOLDER~1\AppData\Local\Temp\cc0vShlo.s:29493  .debug_str:000000000002e22a .LASF5483
C:\Users\SOLDER~1\AppData\Local\Temp\cc0vShlo.s:19471  .debug_str:0000000000005291 .LASF5484
C:\Users\SOLDER~1\AppData\Local\Temp\cc0vShlo.s:20779  .debug_str:000000000000a8ca .LASF5485
C:\Users\SOLDER~1\AppData\Local\Temp\cc0vShlo.s:23135  .debug_str:0000000000014388 .LASF5486
C:\Users\SOLDER~1\AppData\Local\Temp\cc0vShlo.s:21403  .debug_str:000000000000d1c7 .LASF5487
C:\Users\SOLDER~1\AppData\Local\Temp\cc0vShlo.s:26293  .debug_str:00000000000210e9 .LASF5488
C:\Users\SOLDER~1\AppData\Local\Temp\cc0vShlo.s:26067  .debug_str:0000000000020212 .LASF5489
C:\Users\SOLDER~1\AppData\Local\Temp\cc0vShlo.s:23217  .debug_str:0000000000014921 .LASF5490
C:\Users\SOLDER~1\AppData\Local\Temp\cc0vShlo.s:22457  .debug_str:0000000000011659 .LASF5491
C:\Users\SOLDER~1\AppData\Local\Temp\cc0vShlo.s:26303  .debug_str:000000000002118c .LASF5492
C:\Users\SOLDER~1\AppData\Local\Temp\cc0vShlo.s:26225  .debug_str:0000000000020c4b .LASF5493
C:\Users\SOLDER~1\AppData\Local\Temp\cc0vShlo.s:19907  .debug_str:0000000000006f84 .LASF5494
C:\Users\SOLDER~1\AppData\Local\Temp\cc0vShlo.s:22139  .debug_str:00000000000101eb .LASF5495
C:\Users\SOLDER~1\AppData\Local\Temp\cc0vShlo.s:27927  .debug_str:0000000000027cab .LASF5496
C:\Users\SOLDER~1\AppData\Local\Temp\cc0vShlo.s:28479  .debug_str:000000000002a0d4 .LASF5497
C:\Users\SOLDER~1\AppData\Local\Temp\cc0vShlo.s:25007  .debug_str:000000000001bc81 .LASF5498
C:\Users\SOLDER~1\AppData\Local\Temp\cc0vShlo.s:29427  .debug_str:000000000002ddfb .LASF5499
C:\Users\SOLDER~1\AppData\Local\Temp\cc0vShlo.s:28919  .debug_str:000000000002bd25 .LASF5500
C:\Users\SOLDER~1\AppData\Local\Temp\cc0vShlo.s:26789  .debug_str:00000000000230d4 .LASF5501
C:\Users\SOLDER~1\AppData\Local\Temp\cc0vShlo.s:18561  .debug_str:000000000000183b .LASF5502
C:\Users\SOLDER~1\AppData\Local\Temp\cc0vShlo.s:22907  .debug_str:000000000001338a .LASF5503
C:\Users\SOLDER~1\AppData\Local\Temp\cc0vShlo.s:22621  .debug_str:00000000000120d8 .LASF5504
C:\Users\SOLDER~1\AppData\Local\Temp\cc0vShlo.s:22153  .debug_str:00000000000102f4 .LASF5505
C:\Users\SOLDER~1\AppData\Local\Temp\cc0vShlo.s:18685  .debug_str:0000000000002047 .LASF5506
C:\Users\SOLDER~1\AppData\Local\Temp\cc0vShlo.s:18419  .debug_str:0000000000000f42 .LASF5507
GAS LISTING C:\Users\SOLDER~1\AppData\Local\Temp\cc0vShlo.s 			page 107


C:\Users\SOLDER~1\AppData\Local\Temp\cc0vShlo.s:25939  .debug_str:000000000001f9ff .LASF5508
C:\Users\SOLDER~1\AppData\Local\Temp\cc0vShlo.s:29183  .debug_str:000000000002ce89 .LASF5509
C:\Users\SOLDER~1\AppData\Local\Temp\cc0vShlo.s:25709  .debug_str:000000000001eabf .LASF5510
C:\Users\SOLDER~1\AppData\Local\Temp\cc0vShlo.s:27049  .debug_str:000000000002420b .LASF5511
C:\Users\SOLDER~1\AppData\Local\Temp\cc0vShlo.s:19923  .debug_str:000000000000709d .LASF5512
C:\Users\SOLDER~1\AppData\Local\Temp\cc0vShlo.s:25055  .debug_str:000000000001bfb6 .LASF5513
C:\Users\SOLDER~1\AppData\Local\Temp\cc0vShlo.s:22771  .debug_str:0000000000012a82 .LASF5514
C:\Users\SOLDER~1\AppData\Local\Temp\cc0vShlo.s:29583  .debug_str:000000000002e847 .LASF5515
C:\Users\SOLDER~1\AppData\Local\Temp\cc0vShlo.s:21479  .debug_str:000000000000d6d4 .LASF5516
C:\Users\SOLDER~1\AppData\Local\Temp\cc0vShlo.s:26587  .debug_str:000000000002237d .LASF5517
C:\Users\SOLDER~1\AppData\Local\Temp\cc0vShlo.s:21411  .debug_str:000000000000d23f .LASF5518
C:\Users\SOLDER~1\AppData\Local\Temp\cc0vShlo.s:27569  .debug_str:00000000000264fd .LASF5519
C:\Users\SOLDER~1\AppData\Local\Temp\cc0vShlo.s:21423  .debug_str:000000000000d31d .LASF5520
C:\Users\SOLDER~1\AppData\Local\Temp\cc0vShlo.s:28401  .debug_str:0000000000029b78 .LASF5521
C:\Users\SOLDER~1\AppData\Local\Temp\cc0vShlo.s:20573  .debug_str:0000000000009ae7 .LASF5522
C:\Users\SOLDER~1\AppData\Local\Temp\cc0vShlo.s:26613  .debug_str:000000000002252b .LASF5523
C:\Users\SOLDER~1\AppData\Local\Temp\cc0vShlo.s:27829  .debug_str:0000000000027637 .LASF5524
C:\Users\SOLDER~1\AppData\Local\Temp\cc0vShlo.s:23315  .debug_str:0000000000014f6f .LASF5525
C:\Users\SOLDER~1\AppData\Local\Temp\cc0vShlo.s:29345  .debug_str:000000000002d8be .LASF5526
C:\Users\SOLDER~1\AppData\Local\Temp\cc0vShlo.s:24137  .debug_str:0000000000018474 .LASF5527
C:\Users\SOLDER~1\AppData\Local\Temp\cc0vShlo.s:23199  .debug_str:00000000000147c6 .LASF5528
C:\Users\SOLDER~1\AppData\Local\Temp\cc0vShlo.s:23001  .debug_str:0000000000013a41 .LASF5529
C:\Users\SOLDER~1\AppData\Local\Temp\cc0vShlo.s:20647  .debug_str:0000000000009fd3 .LASF5530
C:\Users\SOLDER~1\AppData\Local\Temp\cc0vShlo.s:25313  .debug_str:000000000001d150 .LASF5531
C:\Users\SOLDER~1\AppData\Local\Temp\cc0vShlo.s:20775  .debug_str:000000000000a871 .LASF5532
C:\Users\SOLDER~1\AppData\Local\Temp\cc0vShlo.s:27443  .debug_str:0000000000025c49 .LASF5533
C:\Users\SOLDER~1\AppData\Local\Temp\cc0vShlo.s:18903  .debug_str:0000000000002e67 .LASF5534
C:\Users\SOLDER~1\AppData\Local\Temp\cc0vShlo.s:19337  .debug_str:0000000000004a47 .LASF5535
C:\Users\SOLDER~1\AppData\Local\Temp\cc0vShlo.s:20879  .debug_str:000000000000af43 .LASF5536
C:\Users\SOLDER~1\AppData\Local\Temp\cc0vShlo.s:24341  .debug_str:00000000000191f1 .LASF5537
C:\Users\SOLDER~1\AppData\Local\Temp\cc0vShlo.s:21435  .debug_str:000000000000d3f6 .LASF5538
C:\Users\SOLDER~1\AppData\Local\Temp\cc0vShlo.s:26867  .debug_str:000000000002362c .LASF5539
C:\Users\SOLDER~1\AppData\Local\Temp\cc0vShlo.s:27995  .debug_str:0000000000028119 .LASF5540
C:\Users\SOLDER~1\AppData\Local\Temp\cc0vShlo.s:20909  .debug_str:000000000000b103 .LASF5541
C:\Users\SOLDER~1\AppData\Local\Temp\cc0vShlo.s:25427  .debug_str:000000000001d83e .LASF5542
C:\Users\SOLDER~1\AppData\Local\Temp\cc0vShlo.s:27933  .debug_str:0000000000027d01 .LASF5543
C:\Users\SOLDER~1\AppData\Local\Temp\cc0vShlo.s:25167  .debug_str:000000000001c74f .LASF5544
C:\Users\SOLDER~1\AppData\Local\Temp\cc0vShlo.s:29545  .debug_str:000000000002e5b1 .LASF5545
C:\Users\SOLDER~1\AppData\Local\Temp\cc0vShlo.s:28625  .debug_str:000000000002aa24 .LASF5546
C:\Users\SOLDER~1\AppData\Local\Temp\cc0vShlo.s:28897  .debug_str:000000000002bba0 .LASF5547
C:\Users\SOLDER~1\AppData\Local\Temp\cc0vShlo.s:24393  .debug_str:000000000001959c .LASF5548
C:\Users\SOLDER~1\AppData\Local\Temp\cc0vShlo.s:19855  .debug_str:0000000000006bd9 .LASF5549
C:\Users\SOLDER~1\AppData\Local\Temp\cc0vShlo.s:18437  .debug_str:000000000000103f .LASF5550
C:\Users\SOLDER~1\AppData\Local\Temp\cc0vShlo.s:26667  .debug_str:00000000000228fb .LASF5551
C:\Users\SOLDER~1\AppData\Local\Temp\cc0vShlo.s:18343  .debug_str:0000000000000a24 .LASF5552
C:\Users\SOLDER~1\AppData\Local\Temp\cc0vShlo.s:23029  .debug_str:0000000000013c35 .LASF5553
C:\Users\SOLDER~1\AppData\Local\Temp\cc0vShlo.s:22399  .debug_str:0000000000011292 .LASF5554
C:\Users\SOLDER~1\AppData\Local\Temp\cc0vShlo.s:27119  .debug_str:00000000000246af .LASF5555
C:\Users\SOLDER~1\AppData\Local\Temp\cc0vShlo.s:18457  .debug_str:0000000000001182 .LASF5556
C:\Users\SOLDER~1\AppData\Local\Temp\cc0vShlo.s:23843  .debug_str:0000000000017144 .LASF5557
C:\Users\SOLDER~1\AppData\Local\Temp\cc0vShlo.s:25019  .debug_str:000000000001bd50 .LASF5558
C:\Users\SOLDER~1\AppData\Local\Temp\cc0vShlo.s:20013  .debug_str:0000000000007636 .LASF5559
C:\Users\SOLDER~1\AppData\Local\Temp\cc0vShlo.s:21731  .debug_str:000000000000e760 .LASF5560
C:\Users\SOLDER~1\AppData\Local\Temp\cc0vShlo.s:22747  .debug_str:00000000000128e0 .LASF5561
C:\Users\SOLDER~1\AppData\Local\Temp\cc0vShlo.s:24533  .debug_str:0000000000019dfc .LASF5562
C:\Users\SOLDER~1\AppData\Local\Temp\cc0vShlo.s:24389  .debug_str:000000000001954a .LASF5563
C:\Users\SOLDER~1\AppData\Local\Temp\cc0vShlo.s:24647  .debug_str:000000000001a51c .LASF5564
GAS LISTING C:\Users\SOLDER~1\AppData\Local\Temp\cc0vShlo.s 			page 108


C:\Users\SOLDER~1\AppData\Local\Temp\cc0vShlo.s:25827  .debug_str:000000000001f2ad .LASF5565
C:\Users\SOLDER~1\AppData\Local\Temp\cc0vShlo.s:22641  .debug_str:0000000000012209 .LASF5566
C:\Users\SOLDER~1\AppData\Local\Temp\cc0vShlo.s:28669  .debug_str:000000000002acc7 .LASF5567
C:\Users\SOLDER~1\AppData\Local\Temp\cc0vShlo.s:20407  .debug_str:0000000000008ff9 .LASF5568
C:\Users\SOLDER~1\AppData\Local\Temp\cc0vShlo.s:26283  .debug_str:0000000000021047 .LASF5569
C:\Users\SOLDER~1\AppData\Local\Temp\cc0vShlo.s:22051  .debug_str:000000000000fc75 .LASF5570
C:\Users\SOLDER~1\AppData\Local\Temp\cc0vShlo.s:20777  .debug_str:000000000000a8a3 .LASF5571
C:\Users\SOLDER~1\AppData\Local\Temp\cc0vShlo.s:24245  .debug_str:0000000000018b9a .LASF5572
C:\Users\SOLDER~1\AppData\Local\Temp\cc0vShlo.s:19637  .debug_str:0000000000005d4c .LASF5573
C:\Users\SOLDER~1\AppData\Local\Temp\cc0vShlo.s:22745  .debug_str:00000000000128b7 .LASF5574
C:\Users\SOLDER~1\AppData\Local\Temp\cc0vShlo.s:20693  .debug_str:000000000000a2e7 .LASF5575
C:\Users\SOLDER~1\AppData\Local\Temp\cc0vShlo.s:26741  .debug_str:0000000000022dad .LASF5576
C:\Users\SOLDER~1\AppData\Local\Temp\cc0vShlo.s:25715  .debug_str:000000000001eb2d .LASF5577
C:\Users\SOLDER~1\AppData\Local\Temp\cc0vShlo.s:18309  .debug_str:000000000000079b .LASF5578
C:\Users\SOLDER~1\AppData\Local\Temp\cc0vShlo.s:22267  .debug_str:0000000000010a2b .LASF5579
C:\Users\SOLDER~1\AppData\Local\Temp\cc0vShlo.s:29205  .debug_str:000000000002cffc .LASF5580
C:\Users\SOLDER~1\AppData\Local\Temp\cc0vShlo.s:19391  .debug_str:0000000000004dc5 .LASF5581
C:\Users\SOLDER~1\AppData\Local\Temp\cc0vShlo.s:26951  .debug_str:0000000000023b76 .LASF5582
C:\Users\SOLDER~1\AppData\Local\Temp\cc0vShlo.s:27885  .debug_str:00000000000279a0 .LASF5583
C:\Users\SOLDER~1\AppData\Local\Temp\cc0vShlo.s:26465  .debug_str:0000000000021bd9 .LASF5584
C:\Users\SOLDER~1\AppData\Local\Temp\cc0vShlo.s:26417  .debug_str:00000000000218d2 .LASF5585
C:\Users\SOLDER~1\AppData\Local\Temp\cc0vShlo.s:26023  .debug_str:000000000001ff36 .LASF5586
C:\Users\SOLDER~1\AppData\Local\Temp\cc0vShlo.s:18637  .debug_str:0000000000001d50 .LASF5587
C:\Users\SOLDER~1\AppData\Local\Temp\cc0vShlo.s:28157  .debug_str:0000000000028b86 .LASF5588
C:\Users\SOLDER~1\AppData\Local\Temp\cc0vShlo.s:25289  .debug_str:000000000001cfa2 .LASF5589
C:\Users\SOLDER~1\AppData\Local\Temp\cc0vShlo.s:29153  .debug_str:000000000002cc45 .LASF5590
C:\Users\SOLDER~1\AppData\Local\Temp\cc0vShlo.s:19861  .debug_str:0000000000006c26 .LASF5591
C:\Users\SOLDER~1\AppData\Local\Temp\cc0vShlo.s:21149  .debug_str:000000000000c0be .LASF5592
C:\Users\SOLDER~1\AppData\Local\Temp\cc0vShlo.s:28397  .debug_str:0000000000029b2b .LASF5593
C:\Users\SOLDER~1\AppData\Local\Temp\cc0vShlo.s:24249  .debug_str:0000000000018bd5 .LASF5594
C:\Users\SOLDER~1\AppData\Local\Temp\cc0vShlo.s:27063  .debug_str:00000000000242e9 .LASF5595
C:\Users\SOLDER~1\AppData\Local\Temp\cc0vShlo.s:25471  .debug_str:000000000001db25 .LASF5596
C:\Users\SOLDER~1\AppData\Local\Temp\cc0vShlo.s:23789  .debug_str:0000000000016d98 .LASF5597
C:\Users\SOLDER~1\AppData\Local\Temp\cc0vShlo.s:19517  .debug_str:0000000000005545 .LASF5598
C:\Users\SOLDER~1\AppData\Local\Temp\cc0vShlo.s:23653  .debug_str:000000000001654d .LASF5599
C:\Users\SOLDER~1\AppData\Local\Temp\cc0vShlo.s:27563  .debug_str:0000000000026494 .LASF5600
C:\Users\SOLDER~1\AppData\Local\Temp\cc0vShlo.s:22427  .debug_str:00000000000114b5 .LASF5601
C:\Users\SOLDER~1\AppData\Local\Temp\cc0vShlo.s:19271  .debug_str:0000000000004632 .LASF5602
C:\Users\SOLDER~1\AppData\Local\Temp\cc0vShlo.s:18301  .debug_str:0000000000000720 .LASF5603
C:\Users\SOLDER~1\AppData\Local\Temp\cc0vShlo.s:20807  .debug_str:000000000000aa9c .LASF5604
C:\Users\SOLDER~1\AppData\Local\Temp\cc0vShlo.s:25533  .debug_str:000000000001df48 .LASF5605
C:\Users\SOLDER~1\AppData\Local\Temp\cc0vShlo.s:22725  .debug_str:0000000000012779 .LASF5606
C:\Users\SOLDER~1\AppData\Local\Temp\cc0vShlo.s:22981  .debug_str:00000000000138aa .LASF5607
C:\Users\SOLDER~1\AppData\Local\Temp\cc0vShlo.s:21183  .debug_str:000000000000c31f .LASF5608
C:\Users\SOLDER~1\AppData\Local\Temp\cc0vShlo.s:26227  .debug_str:0000000000020c69 .LASF5609
C:\Users\SOLDER~1\AppData\Local\Temp\cc0vShlo.s:23877  .debug_str:0000000000017386 .LASF5610
C:\Users\SOLDER~1\AppData\Local\Temp\cc0vShlo.s:28073  .debug_str:0000000000028646 .LASF5611
C:\Users\SOLDER~1\AppData\Local\Temp\cc0vShlo.s:23883  .debug_str:00000000000173f4 .LASF5612
C:\Users\SOLDER~1\AppData\Local\Temp\cc0vShlo.s:29375  .debug_str:000000000002dac7 .LASF5613
C:\Users\SOLDER~1\AppData\Local\Temp\cc0vShlo.s:23659  .debug_str:0000000000016591 .LASF5614
C:\Users\SOLDER~1\AppData\Local\Temp\cc0vShlo.s:25229  .debug_str:000000000001cb9d .LASF5615
C:\Users\SOLDER~1\AppData\Local\Temp\cc0vShlo.s:26813  .debug_str:00000000000232a4 .LASF5616
C:\Users\SOLDER~1\AppData\Local\Temp\cc0vShlo.s:22303  .debug_str:0000000000010c6c .LASF5617
C:\Users\SOLDER~1\AppData\Local\Temp\cc0vShlo.s:24147  .debug_str:0000000000018527 .LASF5618
C:\Users\SOLDER~1\AppData\Local\Temp\cc0vShlo.s:20263  .debug_str:0000000000008667 .LASF5619
C:\Users\SOLDER~1\AppData\Local\Temp\cc0vShlo.s:22963  .debug_str:0000000000013731 .LASF5620
C:\Users\SOLDER~1\AppData\Local\Temp\cc0vShlo.s:26383  .debug_str:0000000000021689 .LASF5621
GAS LISTING C:\Users\SOLDER~1\AppData\Local\Temp\cc0vShlo.s 			page 109


C:\Users\SOLDER~1\AppData\Local\Temp\cc0vShlo.s:28687  .debug_str:000000000002ae24 .LASF5622
C:\Users\SOLDER~1\AppData\Local\Temp\cc0vShlo.s:20731  .debug_str:000000000000a56a .LASF5623
C:\Users\SOLDER~1\AppData\Local\Temp\cc0vShlo.s:26251  .debug_str:0000000000020e00 .LASF5624
C:\Users\SOLDER~1\AppData\Local\Temp\cc0vShlo.s:22791  .debug_str:0000000000012bf7 .LASF5625
C:\Users\SOLDER~1\AppData\Local\Temp\cc0vShlo.s:27077  .debug_str:00000000000243e5 .LASF5626
C:\Users\SOLDER~1\AppData\Local\Temp\cc0vShlo.s:23271  .debug_str:0000000000014ccc .LASF5627
C:\Users\SOLDER~1\AppData\Local\Temp\cc0vShlo.s:26629  .debug_str:0000000000022645 .LASF5628
C:\Users\SOLDER~1\AppData\Local\Temp\cc0vShlo.s:29585  .debug_str:000000000002e86b .LASF5629
C:\Users\SOLDER~1\AppData\Local\Temp\cc0vShlo.s:28947  .debug_str:000000000002bf3b .LASF5630
C:\Users\SOLDER~1\AppData\Local\Temp\cc0vShlo.s:28251  .debug_str:0000000000029198 .LASF5631
C:\Users\SOLDER~1\AppData\Local\Temp\cc0vShlo.s:19873  .debug_str:0000000000006cff .LASF5632
C:\Users\SOLDER~1\AppData\Local\Temp\cc0vShlo.s:23269  .debug_str:0000000000014ca6 .LASF5633
C:\Users\SOLDER~1\AppData\Local\Temp\cc0vShlo.s:19869  .debug_str:0000000000006cc2 .LASF5634
C:\Users\SOLDER~1\AppData\Local\Temp\cc0vShlo.s:26763  .debug_str:0000000000022f2e .LASF5635
C:\Users\SOLDER~1\AppData\Local\Temp\cc0vShlo.s:28767  .debug_str:000000000002b35f .LASF5636
C:\Users\SOLDER~1\AppData\Local\Temp\cc0vShlo.s:18989  .debug_str:000000000000343b .LASF5637
C:\Users\SOLDER~1\AppData\Local\Temp\cc0vShlo.s:28751  .debug_str:000000000002b251 .LASF5638
C:\Users\SOLDER~1\AppData\Local\Temp\cc0vShlo.s:25597  .debug_str:000000000001e32f .LASF5639
C:\Users\SOLDER~1\AppData\Local\Temp\cc0vShlo.s:22155  .debug_str:0000000000010319 .LASF5640
C:\Users\SOLDER~1\AppData\Local\Temp\cc0vShlo.s:19833  .debug_str:0000000000006a6b .LASF5641
C:\Users\SOLDER~1\AppData\Local\Temp\cc0vShlo.s:21893  .debug_str:000000000000f193 .LASF5642
C:\Users\SOLDER~1\AppData\Local\Temp\cc0vShlo.s:18775  .debug_str:000000000000263b .LASF5643
C:\Users\SOLDER~1\AppData\Local\Temp\cc0vShlo.s:18991  .debug_str:000000000000345c .LASF5644
C:\Users\SOLDER~1\AppData\Local\Temp\cc0vShlo.s:22295  .debug_str:0000000000010beb .LASF5645
C:\Users\SOLDER~1\AppData\Local\Temp\cc0vShlo.s:20447  .debug_str:000000000000929f .LASF5646
C:\Users\SOLDER~1\AppData\Local\Temp\cc0vShlo.s:19541  .debug_str:00000000000056e8 .LASF5647
C:\Users\SOLDER~1\AppData\Local\Temp\cc0vShlo.s:27419  .debug_str:0000000000025aab .LASF5648
C:\Users\SOLDER~1\AppData\Local\Temp\cc0vShlo.s:21325  .debug_str:000000000000cca0 .LASF5649
C:\Users\SOLDER~1\AppData\Local\Temp\cc0vShlo.s:19917  .debug_str:000000000000702f .LASF5650
C:\Users\SOLDER~1\AppData\Local\Temp\cc0vShlo.s:29667  .debug_str:000000000002ed6d .LASF5651
C:\Users\SOLDER~1\AppData\Local\Temp\cc0vShlo.s:20247  .debug_str:0000000000008563 .LASF5652
C:\Users\SOLDER~1\AppData\Local\Temp\cc0vShlo.s:19931  .debug_str:0000000000007119 .LASF5653
C:\Users\SOLDER~1\AppData\Local\Temp\cc0vShlo.s:23567  .debug_str:0000000000015ff1 .LASF5654
C:\Users\SOLDER~1\AppData\Local\Temp\cc0vShlo.s:29483  .debug_str:000000000002e179 .LASF5655
C:\Users\SOLDER~1\AppData\Local\Temp\cc0vShlo.s:18635  .debug_str:0000000000001d2f .LASF5656
C:\Users\SOLDER~1\AppData\Local\Temp\cc0vShlo.s:23389  .debug_str:000000000001546b .LASF5657
C:\Users\SOLDER~1\AppData\Local\Temp\cc0vShlo.s:29277  .debug_str:000000000002d46f .LASF5658
C:\Users\SOLDER~1\AppData\Local\Temp\cc0vShlo.s:25775  .debug_str:000000000001ef1d .LASF5659
C:\Users\SOLDER~1\AppData\Local\Temp\cc0vShlo.s:19093  .debug_str:0000000000003af7 .LASF5660
C:\Users\SOLDER~1\AppData\Local\Temp\cc0vShlo.s:26935  .debug_str:0000000000023a68 .LASF5661
C:\Users\SOLDER~1\AppData\Local\Temp\cc0vShlo.s:26449  .debug_str:0000000000021ae5 .LASF5662
C:\Users\SOLDER~1\AppData\Local\Temp\cc0vShlo.s:19005  .debug_str:0000000000003530 .LASF5663
C:\Users\SOLDER~1\AppData\Local\Temp\cc0vShlo.s:27815  .debug_str:000000000002754e .LASF5664
C:\Users\SOLDER~1\AppData\Local\Temp\cc0vShlo.s:23319  .debug_str:0000000000014fc5 .LASF5665
C:\Users\SOLDER~1\AppData\Local\Temp\cc0vShlo.s:25269  .debug_str:000000000001ce22 .LASF5666
C:\Users\SOLDER~1\AppData\Local\Temp\cc0vShlo.s:19247  .debug_str:000000000000449c .LASF5667
C:\Users\SOLDER~1\AppData\Local\Temp\cc0vShlo.s:27277  .debug_str:00000000000250f7 .LASF5668
C:\Users\SOLDER~1\AppData\Local\Temp\cc0vShlo.s:24731  .debug_str:000000000001aab0 .LASF5669
C:\Users\SOLDER~1\AppData\Local\Temp\cc0vShlo.s:24723  .debug_str:000000000001aa22 .LASF5670
C:\Users\SOLDER~1\AppData\Local\Temp\cc0vShlo.s:25061  .debug_str:000000000001c01c .LASF5671
C:\Users\SOLDER~1\AppData\Local\Temp\cc0vShlo.s:23257  .debug_str:0000000000014bdf .LASF5672
C:\Users\SOLDER~1\AppData\Local\Temp\cc0vShlo.s:22695  .debug_str:000000000001259f .LASF5673
C:\Users\SOLDER~1\AppData\Local\Temp\cc0vShlo.s:24729  .debug_str:000000000001aa8e .LASF5674
C:\Users\SOLDER~1\AppData\Local\Temp\cc0vShlo.s:29485  .debug_str:000000000002e19c .LASF5675
C:\Users\SOLDER~1\AppData\Local\Temp\cc0vShlo.s:29397  .debug_str:000000000002dc3d .LASF5676
C:\Users\SOLDER~1\AppData\Local\Temp\cc0vShlo.s:22125  .debug_str:0000000000010122 .LASF5677
C:\Users\SOLDER~1\AppData\Local\Temp\cc0vShlo.s:28755  .debug_str:000000000002b294 .LASF5678
GAS LISTING C:\Users\SOLDER~1\AppData\Local\Temp\cc0vShlo.s 			page 110


C:\Users\SOLDER~1\AppData\Local\Temp\cc0vShlo.s:25473  .debug_str:000000000001db54 .LASF5679
C:\Users\SOLDER~1\AppData\Local\Temp\cc0vShlo.s:22519  .debug_str:0000000000011a62 .LASF5680
C:\Users\SOLDER~1\AppData\Local\Temp\cc0vShlo.s:20089  .debug_str:0000000000007aff .LASF5681
C:\Users\SOLDER~1\AppData\Local\Temp\cc0vShlo.s:18461  .debug_str:00000000000011d4 .LASF5682
C:\Users\SOLDER~1\AppData\Local\Temp\cc0vShlo.s:26977  .debug_str:0000000000023d41 .LASF5683
C:\Users\SOLDER~1\AppData\Local\Temp\cc0vShlo.s:22669  .debug_str:00000000000123c1 .LASF5684
C:\Users\SOLDER~1\AppData\Local\Temp\cc0vShlo.s:20357  .debug_str:0000000000008c79 .LASF5685
C:\Users\SOLDER~1\AppData\Local\Temp\cc0vShlo.s:19579  .debug_str:0000000000005991 .LASF5686
C:\Users\SOLDER~1\AppData\Local\Temp\cc0vShlo.s:28979  .debug_str:000000000002c142 .LASF5687
C:\Users\SOLDER~1\AppData\Local\Temp\cc0vShlo.s:21115  .debug_str:000000000000be6f .LASF5688
C:\Users\SOLDER~1\AppData\Local\Temp\cc0vShlo.s:21313  .debug_str:000000000000cbdb .LASF5689
C:\Users\SOLDER~1\AppData\Local\Temp\cc0vShlo.s:25389  .debug_str:000000000001d605 .LASF5690
C:\Users\SOLDER~1\AppData\Local\Temp\cc0vShlo.s:24801  .debug_str:000000000001af2a .LASF5691
C:\Users\SOLDER~1\AppData\Local\Temp\cc0vShlo.s:24283  .debug_str:0000000000018e31 .LASF5692
C:\Users\SOLDER~1\AppData\Local\Temp\cc0vShlo.s:26547  .debug_str:00000000000220ba .LASF5693
C:\Users\SOLDER~1\AppData\Local\Temp\cc0vShlo.s:18907  .debug_str:0000000000002edf .LASF5694
C:\Users\SOLDER~1\AppData\Local\Temp\cc0vShlo.s:20185  .debug_str:0000000000008183 .LASF5695
C:\Users\SOLDER~1\AppData\Local\Temp\cc0vShlo.s:21661  .debug_str:000000000000e2eb .LASF5696
C:\Users\SOLDER~1\AppData\Local\Temp\cc0vShlo.s:24873  .debug_str:000000000001b3d4 .LASF5697
C:\Users\SOLDER~1\AppData\Local\Temp\cc0vShlo.s:20197  .debug_str:0000000000008234 .LASF5698
C:\Users\SOLDER~1\AppData\Local\Temp\cc0vShlo.s:26829  .debug_str:000000000002339e .LASF5699
C:\Users\SOLDER~1\AppData\Local\Temp\cc0vShlo.s:29507  .debug_str:000000000002e327 .LASF5700
C:\Users\SOLDER~1\AppData\Local\Temp\cc0vShlo.s:27209  .debug_str:0000000000024ca3 .LASF5701
C:\Users\SOLDER~1\AppData\Local\Temp\cc0vShlo.s:27617  .debug_str:000000000002684f .LASF5702
C:\Users\SOLDER~1\AppData\Local\Temp\cc0vShlo.s:26333  .debug_str:000000000002137c .LASF5703
C:\Users\SOLDER~1\AppData\Local\Temp\cc0vShlo.s:19227  .debug_str:0000000000004356 .LASF5704
C:\Users\SOLDER~1\AppData\Local\Temp\cc0vShlo.s:26647  .debug_str:0000000000022787 .LASF5705
C:\Users\SOLDER~1\AppData\Local\Temp\cc0vShlo.s:19061  .debug_str:00000000000038d6 .LASF5706
C:\Users\SOLDER~1\AppData\Local\Temp\cc0vShlo.s:18943  .debug_str:000000000000311d .LASF5707
C:\Users\SOLDER~1\AppData\Local\Temp\cc0vShlo.s:21649  .debug_str:000000000000e21e .LASF5708
C:\Users\SOLDER~1\AppData\Local\Temp\cc0vShlo.s:27887  .debug_str:00000000000279c8 .LASF5709
C:\Users\SOLDER~1\AppData\Local\Temp\cc0vShlo.s:26683  .debug_str:0000000000022a03 .LASF5710
C:\Users\SOLDER~1\AppData\Local\Temp\cc0vShlo.s:18339  .debug_str:00000000000009d8 .LASF5711
                           .group:0000000000000000 wm4.0.cc27e0d2094b492664a2491ca1ae43b0
                           .group:0000000000000000 wm4.ch32v20x.h.13.a030255a3e90e7179ae3b08da8e2408d
                           .group:0000000000000000 wm4._newlib_version.h.4.529115dae5e4f67702b1de0b6e841f38
                           .group:0000000000000000 wm4.features.h.33.3e67abe6fb64142d4f6fa9496796153c
                           .group:0000000000000000 wm4._default_types.h.15.247e5cd201eca3442cbf5404108c4935
                           .group:0000000000000000 wm4._intsup.h.10.48bafbb683905c4daa4565a85aeeb264
                           .group:0000000000000000 wm4._stdint.h.10.c24fa3af3bc1706662bb5593a907e841
                           .group:0000000000000000 wm4.stdint.h.23.d53047a68f4a85177f80b422d52785ed
                           .group:0000000000000000 wm4.core_riscv.h.11.151d7acb41e203dcc664023294f59bdc
                           .group:0000000000000000 wm4.ch32v20x.h.153.1d8393f26361703471ea96fe9aa4b4f9
                           .group:0000000000000000 wm4.ch32v20x_adc.h.56.f131972e7ce35efbe3b5c47a075d6d1b
                           .group:0000000000000000 wm4.ch32v20x_bkp.h.14.0a7965eb5be5000a494c3059b6f0eca5
                           .group:0000000000000000 wm4.ch32v20x_can.h.14.aa1dae2c28cbaf083875b4b61810c3c7
                           .group:0000000000000000 wm4.ch32v20x_dma.h.14.425a907348dd0134bf6e82c73bbd3df8
                           .group:0000000000000000 wm4.ch32v20x_exti.h.14.f67190d3fb91aa9aecce0f4d5a543221
                           .group:0000000000000000 wm4.ch32v20x_flash.h.14.91c5ecdad44f358d5032244aabf7ef4e
                           .group:0000000000000000 wm4.ch32v20x_gpio.h.14.bdb7f79cce0dffbc24dc81ea80f90bd2
                           .group:0000000000000000 wm4.ch32v20x_i2c.h.14.101eb625c9d2afac400f4e8ac2e9fb1d
                           .group:0000000000000000 wm4.ch32v20x_iwdg.h.14.26025d04ceeb3151185969ed5850fbb4
                           .group:0000000000000000 wm4.ch32v20x_pwr.h.14.8eaa3508938f71b27f140895c21602e6
                           .group:0000000000000000 wm4.ch32v20x_rcc.h.13.18c6b8696a30372de01acaf3c246ecb8
                           .group:0000000000000000 wm4.ch32v20x_rtc.h.14.eb8734f5dd75abcf831b4f12ec49aebe
                           .group:0000000000000000 wm4.ch32v20x_spi.h.14.f12b1f237c615e7304ae62cc2e2c3c1a
                           .group:0000000000000000 wm4.ch32v20x_tim.h.14.35d11fab62898d9d661122ade86d8a6c
GAS LISTING C:\Users\SOLDER~1\AppData\Local\Temp\cc0vShlo.s 			page 111


                           .group:0000000000000000 wm4.ch32v20x_usart.h.14.9d28c7ec28f2121810b69a55079cd38f
                           .group:0000000000000000 wm4.ch32v20x_wwdg.h.14.49bada437175894a4dce7e12e4216bc9
                           .group:0000000000000000 wm4.ch32v20x_misc.h.14.f3992cf724c30ec0bea268444ffdb6e0
                           .group:0000000000000000 wm4.ch32v20x_dbgmcu.h.22.4512829914bce290442c73f37ce00b7b

NO UNDEFINED SYMBOLS
