GAS LISTING C:\Users\SOLDER~1\AppData\Local\Temp\cc6haz4O.s 			page 1


   1              		.file	"ch32v20x_misc.c"
   2              		.option nopic
   3              		.attribute arch, "rv32i2p0_m2p0_a2p0_c2p0_xw"
   4              		.attribute unaligned_access, 0
   5              		.attribute stack_align, 16
   6              		.text
   7              	.Ltext0:
   8              		.cfi_sections	.debug_frame
   9              		.file 0 "C:\\Users\\Solderingiron\\Documents\\GitHub\\VSC-make-example\\VSC_CH32V203C8T6" "Drivers
  10              		.section	.text.NVIC_EnableIRQ,"ax",@progbits
  11              		.align	1
  13              	NVIC_EnableIRQ:
  14              	.LFB3:
  15              		.file 1 "Drivers/inc/core_riscv.h"
   1:Drivers/inc/core_riscv.h **** /********************************** (C) COPYRIGHT  *******************************
   2:Drivers/inc/core_riscv.h ****  * File Name          : core_riscv.h
   3:Drivers/inc/core_riscv.h ****  * Author             : WCH
   4:Drivers/inc/core_riscv.h ****  * Version            : V1.0.0
   5:Drivers/inc/core_riscv.h ****  * Date               : 2021/06/06
   6:Drivers/inc/core_riscv.h ****  * Description        : RISC-V Core Peripheral Access Layer Header File for CH32V20x
   7:Drivers/inc/core_riscv.h ****  * Copyright (c) 2021 Nanjing Qinheng Microelectronics Co., Ltd.
   8:Drivers/inc/core_riscv.h ****  * SPDX-License-Identifier: Apache-2.0
   9:Drivers/inc/core_riscv.h ****  *******************************************************************************/
  10:Drivers/inc/core_riscv.h **** #ifndef __CORE_RISCV_H__
  11:Drivers/inc/core_riscv.h **** #define __CORE_RISCV_H__
  12:Drivers/inc/core_riscv.h **** 
  13:Drivers/inc/core_riscv.h **** /* IO definitions */
  14:Drivers/inc/core_riscv.h **** #ifdef __cplusplus
  15:Drivers/inc/core_riscv.h **** #define     __I     volatile                /*!< defines 'read only' permissions      */
  16:Drivers/inc/core_riscv.h **** #else
  17:Drivers/inc/core_riscv.h **** #define     __I     volatile const          /*!< defines 'read only' permissions     */
  18:Drivers/inc/core_riscv.h **** #endif
  19:Drivers/inc/core_riscv.h **** #define     __O     volatile                  /*!< defines 'write only' permissions     */
  20:Drivers/inc/core_riscv.h **** #define     __IO    volatile                  /*!< defines 'read / write' permissions   */
  21:Drivers/inc/core_riscv.h **** 
  22:Drivers/inc/core_riscv.h **** /* Standard Peripheral Library old types (maintained for legacy purpose) */
  23:Drivers/inc/core_riscv.h **** typedef __I uint64_t vuc64; /* Read Only */
  24:Drivers/inc/core_riscv.h **** typedef __I uint32_t vuc32; /* Read Only */
  25:Drivers/inc/core_riscv.h **** typedef __I uint16_t vuc16; /* Read Only */
  26:Drivers/inc/core_riscv.h **** typedef __I uint8_t vuc8; /* Read Only */
  27:Drivers/inc/core_riscv.h **** 
  28:Drivers/inc/core_riscv.h **** typedef const uint64_t uc64; /* Read Only */
  29:Drivers/inc/core_riscv.h **** typedef const uint32_t uc32; /* Read Only */
  30:Drivers/inc/core_riscv.h **** typedef const uint16_t uc16; /* Read Only */
  31:Drivers/inc/core_riscv.h **** typedef const uint8_t uc8; /* Read Only */
  32:Drivers/inc/core_riscv.h **** 
  33:Drivers/inc/core_riscv.h **** typedef __I int64_t vsc64; /* Read Only */
  34:Drivers/inc/core_riscv.h **** typedef __I int32_t vsc32; /* Read Only */
  35:Drivers/inc/core_riscv.h **** typedef __I int16_t vsc16; /* Read Only */
  36:Drivers/inc/core_riscv.h **** typedef __I int8_t vsc8; /* Read Only */
  37:Drivers/inc/core_riscv.h **** 
  38:Drivers/inc/core_riscv.h **** typedef const int64_t sc64; /* Read Only */
  39:Drivers/inc/core_riscv.h **** typedef const int32_t sc32; /* Read Only */
  40:Drivers/inc/core_riscv.h **** typedef const int16_t sc16; /* Read Only */
  41:Drivers/inc/core_riscv.h **** typedef const int8_t sc8; /* Read Only */
  42:Drivers/inc/core_riscv.h **** 
  43:Drivers/inc/core_riscv.h **** typedef __IO uint64_t vu64;
GAS LISTING C:\Users\SOLDER~1\AppData\Local\Temp\cc6haz4O.s 			page 2


  44:Drivers/inc/core_riscv.h **** typedef __IO uint32_t vu32;
  45:Drivers/inc/core_riscv.h **** typedef __IO uint16_t vu16;
  46:Drivers/inc/core_riscv.h **** typedef __IO uint8_t vu8;
  47:Drivers/inc/core_riscv.h **** 
  48:Drivers/inc/core_riscv.h **** typedef uint64_t u64;
  49:Drivers/inc/core_riscv.h **** typedef uint32_t u32;
  50:Drivers/inc/core_riscv.h **** typedef uint16_t u16;
  51:Drivers/inc/core_riscv.h **** typedef uint8_t u8;
  52:Drivers/inc/core_riscv.h **** 
  53:Drivers/inc/core_riscv.h **** typedef __IO int64_t vs64;
  54:Drivers/inc/core_riscv.h **** typedef __IO int32_t vs32;
  55:Drivers/inc/core_riscv.h **** typedef __IO int16_t vs16;
  56:Drivers/inc/core_riscv.h **** typedef __IO int8_t vs8;
  57:Drivers/inc/core_riscv.h **** 
  58:Drivers/inc/core_riscv.h **** typedef int64_t s64;
  59:Drivers/inc/core_riscv.h **** typedef int32_t s32;
  60:Drivers/inc/core_riscv.h **** typedef int16_t s16;
  61:Drivers/inc/core_riscv.h **** typedef int8_t s8;
  62:Drivers/inc/core_riscv.h **** 
  63:Drivers/inc/core_riscv.h **** typedef enum {
  64:Drivers/inc/core_riscv.h ****     NoREADY = 0, READY = !NoREADY
  65:Drivers/inc/core_riscv.h **** } ErrorStatus;
  66:Drivers/inc/core_riscv.h **** 
  67:Drivers/inc/core_riscv.h **** typedef enum {
  68:Drivers/inc/core_riscv.h ****     DISABLE = 0, ENABLE = !DISABLE
  69:Drivers/inc/core_riscv.h **** } FunctionalState;
  70:Drivers/inc/core_riscv.h **** 
  71:Drivers/inc/core_riscv.h **** typedef enum {
  72:Drivers/inc/core_riscv.h ****     RESET = 0, SET = !RESET
  73:Drivers/inc/core_riscv.h **** } FlagStatus, ITStatus;
  74:Drivers/inc/core_riscv.h **** 
  75:Drivers/inc/core_riscv.h **** #define   RV_STATIC_INLINE  static  inline
  76:Drivers/inc/core_riscv.h **** 
  77:Drivers/inc/core_riscv.h **** /* memory mapped structure for Program Fast Interrupt Controller (PFIC) */
  78:Drivers/inc/core_riscv.h **** typedef struct {
  79:Drivers/inc/core_riscv.h ****     __I uint32_t ISR[8];
  80:Drivers/inc/core_riscv.h ****     __I uint32_t IPR[8];
  81:Drivers/inc/core_riscv.h ****     __IO uint32_t ITHRESDR;
  82:Drivers/inc/core_riscv.h ****     __IO uint32_t RESERVED;
  83:Drivers/inc/core_riscv.h ****     __IO uint32_t CFGR;
  84:Drivers/inc/core_riscv.h ****     __I uint32_t GISR;
  85:Drivers/inc/core_riscv.h ****     uint8_t VTFIDR[4];
  86:Drivers/inc/core_riscv.h ****     uint8_t RESERVED0[12];
  87:Drivers/inc/core_riscv.h ****     __IO uint32_t VTFADDR[4];
  88:Drivers/inc/core_riscv.h ****     uint8_t RESERVED1[0x90];
  89:Drivers/inc/core_riscv.h ****     __O uint32_t IENR[8];
  90:Drivers/inc/core_riscv.h ****     uint8_t RESERVED2[0x60];
  91:Drivers/inc/core_riscv.h ****     __O uint32_t IRER[8];
  92:Drivers/inc/core_riscv.h ****     uint8_t RESERVED3[0x60];
  93:Drivers/inc/core_riscv.h ****     __O uint32_t IPSR[8];
  94:Drivers/inc/core_riscv.h ****     uint8_t RESERVED4[0x60];
  95:Drivers/inc/core_riscv.h ****     __O uint32_t IPRR[8];
  96:Drivers/inc/core_riscv.h ****     uint8_t RESERVED5[0x60];
  97:Drivers/inc/core_riscv.h ****     __IO uint32_t IACTR[8];
  98:Drivers/inc/core_riscv.h ****     uint8_t RESERVED6[0xE0];
  99:Drivers/inc/core_riscv.h ****     __IO uint8_t IPRIOR[256];
 100:Drivers/inc/core_riscv.h ****     uint8_t RESERVED7[0x810];
GAS LISTING C:\Users\SOLDER~1\AppData\Local\Temp\cc6haz4O.s 			page 3


 101:Drivers/inc/core_riscv.h ****     __IO uint32_t SCTLR;
 102:Drivers/inc/core_riscv.h **** } PFIC_Type;
 103:Drivers/inc/core_riscv.h **** 
 104:Drivers/inc/core_riscv.h **** /* memory mapped structure for SysTick */
 105:Drivers/inc/core_riscv.h **** typedef struct {
 106:Drivers/inc/core_riscv.h ****     __IO u32 CTLR;
 107:Drivers/inc/core_riscv.h ****     __IO u32 SR;
 108:Drivers/inc/core_riscv.h ****     __IO u64 CNT;
 109:Drivers/inc/core_riscv.h ****     __IO u64 CMP;
 110:Drivers/inc/core_riscv.h **** } SysTick_Type;
 111:Drivers/inc/core_riscv.h **** 
 112:Drivers/inc/core_riscv.h **** #define PFIC            ((PFIC_Type *) 0xE000E000 )
 113:Drivers/inc/core_riscv.h **** #define NVIC            PFIC
 114:Drivers/inc/core_riscv.h **** #define NVIC_KEY1       ((uint32_t)0xFA050000)
 115:Drivers/inc/core_riscv.h **** #define	NVIC_KEY2				((uint32_t)0xBCAF0000)
 116:Drivers/inc/core_riscv.h **** #define	NVIC_KEY3				((uint32_t)0xBEEF0000)
 117:Drivers/inc/core_riscv.h **** 
 118:Drivers/inc/core_riscv.h **** #define SysTick         ((SysTick_Type *) 0xE000F000)
 119:Drivers/inc/core_riscv.h **** 
 120:Drivers/inc/core_riscv.h **** /*********************************************************************
 121:Drivers/inc/core_riscv.h ****  * @fn      __enable_irq
 122:Drivers/inc/core_riscv.h ****  *
 123:Drivers/inc/core_riscv.h ****  * @brief   Enable Global Interrupt
 124:Drivers/inc/core_riscv.h ****  *
 125:Drivers/inc/core_riscv.h ****  * @return  none
 126:Drivers/inc/core_riscv.h ****  */
 127:Drivers/inc/core_riscv.h **** RV_STATIC_INLINE void __enable_irq() {
 128:Drivers/inc/core_riscv.h ****     __asm volatile ("csrw 0x800, %0" : : "r" (0x6088) );
 129:Drivers/inc/core_riscv.h **** }
 130:Drivers/inc/core_riscv.h **** 
 131:Drivers/inc/core_riscv.h **** /*********************************************************************
 132:Drivers/inc/core_riscv.h ****  * @fn      __disable_irq
 133:Drivers/inc/core_riscv.h ****  *
 134:Drivers/inc/core_riscv.h ****  * @brief   Disable Global Interrupt
 135:Drivers/inc/core_riscv.h ****  *
 136:Drivers/inc/core_riscv.h ****  * @return  none
 137:Drivers/inc/core_riscv.h ****  */
 138:Drivers/inc/core_riscv.h **** RV_STATIC_INLINE void __disable_irq() {
 139:Drivers/inc/core_riscv.h ****     __asm volatile ("csrw 0x800, %0" : : "r" (0x6000) );
 140:Drivers/inc/core_riscv.h **** }
 141:Drivers/inc/core_riscv.h **** 
 142:Drivers/inc/core_riscv.h **** /*********************************************************************
 143:Drivers/inc/core_riscv.h ****  * @fn      __NOP
 144:Drivers/inc/core_riscv.h ****  *
 145:Drivers/inc/core_riscv.h ****  * @brief   nop
 146:Drivers/inc/core_riscv.h ****  *
 147:Drivers/inc/core_riscv.h ****  * @return  none
 148:Drivers/inc/core_riscv.h ****  */
 149:Drivers/inc/core_riscv.h **** RV_STATIC_INLINE void __NOP() {
 150:Drivers/inc/core_riscv.h ****     __asm volatile ("nop");
 151:Drivers/inc/core_riscv.h **** }
 152:Drivers/inc/core_riscv.h **** 
 153:Drivers/inc/core_riscv.h **** /*********************************************************************
 154:Drivers/inc/core_riscv.h ****  * @fn       NVIC_EnableIRQ
 155:Drivers/inc/core_riscv.h ****  *
 156:Drivers/inc/core_riscv.h ****  * @brief   Disable Interrupt
 157:Drivers/inc/core_riscv.h ****  *
GAS LISTING C:\Users\SOLDER~1\AppData\Local\Temp\cc6haz4O.s 			page 4


 158:Drivers/inc/core_riscv.h ****  * @param   IRQn - Interrupt Numbers
 159:Drivers/inc/core_riscv.h ****  *
 160:Drivers/inc/core_riscv.h ****  * @return  none
 161:Drivers/inc/core_riscv.h ****  */
 162:Drivers/inc/core_riscv.h **** RV_STATIC_INLINE void NVIC_EnableIRQ(IRQn_Type IRQn) {
  16              		.loc 1 162 54
  17              		.cfi_startproc
  18 0000 0111     		addi	sp,sp,-32
  19              		.cfi_def_cfa_offset 32
  20 0002 22CE     		sw	s0,28(sp)
  21              		.cfi_offset 8, -4
  22 0004 0010     		addi	s0,sp,32
  23              		.cfi_def_cfa 8, 0
  24 0006 2326A4FE 		sw	a0,-20(s0)
 163:Drivers/inc/core_riscv.h ****     NVIC->IENR[((uint32_t) (IRQn) >> 5)] = (1 << ((uint32_t) (IRQn) & 0x1F));
  25              		.loc 1 163 69
  26 000a 8327C4FE 		lw	a5,-20(s0)
  27 000e FD8B     		andi	a5,a5,31
  28              		.loc 1 163 47
  29 0010 0547     		li	a4,1
  30 0012 B316F700 		sll	a3,a4,a5
  31              		.loc 1 163 9
  32 0016 37E700E0 		li	a4,-536813568
  33              		.loc 1 163 35
  34 001a 8327C4FE 		lw	a5,-20(s0)
  35 001e 9583     		srli	a5,a5,5
  36              		.loc 1 163 42
  37 0020 93870704 		addi	a5,a5,64
  38 0024 8A07     		slli	a5,a5,2
  39 0026 BA97     		add	a5,a4,a5
  40 0028 94C3     		sw	a3,0(a5)
 164:Drivers/inc/core_riscv.h **** }
  41              		.loc 1 164 1
  42 002a 0100     		nop
  43 002c 7244     		lw	s0,28(sp)
  44              		.cfi_restore 8
  45              		.cfi_def_cfa 2, 32
  46 002e 0561     		addi	sp,sp,32
  47              		.cfi_def_cfa_offset 0
  48 0030 8280     		jr	ra
  49              		.cfi_endproc
  50              	.LFE3:
  52              		.section	.text.NVIC_DisableIRQ,"ax",@progbits
  53              		.align	1
  55              	NVIC_DisableIRQ:
  56              	.LFB4:
 165:Drivers/inc/core_riscv.h **** 
 166:Drivers/inc/core_riscv.h **** /*********************************************************************
 167:Drivers/inc/core_riscv.h ****  * @fn       NVIC_DisableIRQ
 168:Drivers/inc/core_riscv.h ****  *
 169:Drivers/inc/core_riscv.h ****  * @brief   Disable Interrupt
 170:Drivers/inc/core_riscv.h ****  *
 171:Drivers/inc/core_riscv.h ****  * @param   IRQn - Interrupt Numbers
 172:Drivers/inc/core_riscv.h ****  *
 173:Drivers/inc/core_riscv.h ****  * @return  none
 174:Drivers/inc/core_riscv.h ****  */
 175:Drivers/inc/core_riscv.h **** RV_STATIC_INLINE void NVIC_DisableIRQ(IRQn_Type IRQn) {
GAS LISTING C:\Users\SOLDER~1\AppData\Local\Temp\cc6haz4O.s 			page 5


  57              		.loc 1 175 55
  58              		.cfi_startproc
  59 0000 0111     		addi	sp,sp,-32
  60              		.cfi_def_cfa_offset 32
  61 0002 22CE     		sw	s0,28(sp)
  62              		.cfi_offset 8, -4
  63 0004 0010     		addi	s0,sp,32
  64              		.cfi_def_cfa 8, 0
  65 0006 2326A4FE 		sw	a0,-20(s0)
 176:Drivers/inc/core_riscv.h ****     NVIC->IRER[((uint32_t) (IRQn) >> 5)] = (1 << ((uint32_t) (IRQn) & 0x1F));
  66              		.loc 1 176 69
  67 000a 8327C4FE 		lw	a5,-20(s0)
  68 000e FD8B     		andi	a5,a5,31
  69              		.loc 1 176 47
  70 0010 0547     		li	a4,1
  71 0012 B316F700 		sll	a3,a4,a5
  72              		.loc 1 176 9
  73 0016 37E700E0 		li	a4,-536813568
  74              		.loc 1 176 35
  75 001a 8327C4FE 		lw	a5,-20(s0)
  76 001e 9583     		srli	a5,a5,5
  77              		.loc 1 176 42
  78 0020 93870706 		addi	a5,a5,96
  79 0024 8A07     		slli	a5,a5,2
  80 0026 BA97     		add	a5,a4,a5
  81 0028 94C3     		sw	a3,0(a5)
 177:Drivers/inc/core_riscv.h **** }
  82              		.loc 1 177 1
  83 002a 0100     		nop
  84 002c 7244     		lw	s0,28(sp)
  85              		.cfi_restore 8
  86              		.cfi_def_cfa 2, 32
  87 002e 0561     		addi	sp,sp,32
  88              		.cfi_def_cfa_offset 0
  89 0030 8280     		jr	ra
  90              		.cfi_endproc
  91              	.LFE4:
  93              		.section	.text.NVIC_SetPriority,"ax",@progbits
  94              		.align	1
  96              	NVIC_SetPriority:
  97              	.LFB10:
 178:Drivers/inc/core_riscv.h **** 
 179:Drivers/inc/core_riscv.h **** /*********************************************************************
 180:Drivers/inc/core_riscv.h ****  * @fn       NVIC_GetStatusIRQ
 181:Drivers/inc/core_riscv.h ****  *
 182:Drivers/inc/core_riscv.h ****  * @brief   Get Interrupt Enable State
 183:Drivers/inc/core_riscv.h ****  *
 184:Drivers/inc/core_riscv.h ****  * @param   IRQn - Interrupt Numbers
 185:Drivers/inc/core_riscv.h ****  *
 186:Drivers/inc/core_riscv.h ****  * @return  1 - 1: Interrupt Pending Enable
 187:Drivers/inc/core_riscv.h ****  *                0 - Interrupt Pending Disable
 188:Drivers/inc/core_riscv.h ****  */
 189:Drivers/inc/core_riscv.h **** RV_STATIC_INLINE uint32_t NVIC_GetStatusIRQ(IRQn_Type IRQn) {
 190:Drivers/inc/core_riscv.h ****     return ((uint32_t) (
 191:Drivers/inc/core_riscv.h ****             (NVIC->ISR[(uint32_t) (IRQn) >> 5]
 192:Drivers/inc/core_riscv.h ****                     & (1 << ((uint32_t) (IRQn) & 0x1F))) ? 1 : 0));
 193:Drivers/inc/core_riscv.h **** }
GAS LISTING C:\Users\SOLDER~1\AppData\Local\Temp\cc6haz4O.s 			page 6


 194:Drivers/inc/core_riscv.h **** 
 195:Drivers/inc/core_riscv.h **** /*********************************************************************
 196:Drivers/inc/core_riscv.h ****  * @fn      NVIC_GetPendingIRQ
 197:Drivers/inc/core_riscv.h ****  *
 198:Drivers/inc/core_riscv.h ****  * @brief   Get Interrupt Pending State
 199:Drivers/inc/core_riscv.h ****  *
 200:Drivers/inc/core_riscv.h ****  * @param   IRQn - Interrupt Numbers
 201:Drivers/inc/core_riscv.h ****  *
 202:Drivers/inc/core_riscv.h ****  * @return  1 - 1: Interrupt Pending Enable
 203:Drivers/inc/core_riscv.h ****  *                0 - Interrupt Pending Disable
 204:Drivers/inc/core_riscv.h ****  */
 205:Drivers/inc/core_riscv.h **** RV_STATIC_INLINE uint32_t NVIC_GetPendingIRQ(IRQn_Type IRQn) {
 206:Drivers/inc/core_riscv.h ****     return ((uint32_t) (
 207:Drivers/inc/core_riscv.h ****             (NVIC->IPR[(uint32_t) (IRQn) >> 5]
 208:Drivers/inc/core_riscv.h ****                     & (1 << ((uint32_t) (IRQn) & 0x1F))) ? 1 : 0));
 209:Drivers/inc/core_riscv.h **** }
 210:Drivers/inc/core_riscv.h **** 
 211:Drivers/inc/core_riscv.h **** /*********************************************************************
 212:Drivers/inc/core_riscv.h ****  * @fn      NVIC_SetPendingIRQ
 213:Drivers/inc/core_riscv.h ****  *
 214:Drivers/inc/core_riscv.h ****  * @brief   Set Interrupt Pending
 215:Drivers/inc/core_riscv.h ****  *
 216:Drivers/inc/core_riscv.h ****  * @param   IRQn - Interrupt Numbers
 217:Drivers/inc/core_riscv.h ****  *
 218:Drivers/inc/core_riscv.h ****  * @return  none
 219:Drivers/inc/core_riscv.h ****  */
 220:Drivers/inc/core_riscv.h **** RV_STATIC_INLINE void NVIC_SetPendingIRQ(IRQn_Type IRQn) {
 221:Drivers/inc/core_riscv.h ****     NVIC->IPSR[((uint32_t) (IRQn) >> 5)] = (1 << ((uint32_t) (IRQn) & 0x1F));
 222:Drivers/inc/core_riscv.h **** }
 223:Drivers/inc/core_riscv.h **** 
 224:Drivers/inc/core_riscv.h **** /*********************************************************************
 225:Drivers/inc/core_riscv.h ****  * @fn      NVIC_ClearPendingIRQ
 226:Drivers/inc/core_riscv.h ****  *
 227:Drivers/inc/core_riscv.h ****  * @brief   Clear Interrupt Pending
 228:Drivers/inc/core_riscv.h ****  *
 229:Drivers/inc/core_riscv.h ****  * @param   IRQn - Interrupt Numbers
 230:Drivers/inc/core_riscv.h ****  *
 231:Drivers/inc/core_riscv.h ****  * @return  none
 232:Drivers/inc/core_riscv.h ****  */
 233:Drivers/inc/core_riscv.h **** RV_STATIC_INLINE void NVIC_ClearPendingIRQ(IRQn_Type IRQn) {
 234:Drivers/inc/core_riscv.h ****     NVIC->IPRR[((uint32_t) (IRQn) >> 5)] = (1 << ((uint32_t) (IRQn) & 0x1F));
 235:Drivers/inc/core_riscv.h **** }
 236:Drivers/inc/core_riscv.h **** 
 237:Drivers/inc/core_riscv.h **** /*********************************************************************
 238:Drivers/inc/core_riscv.h ****  * @fn      NVIC_GetActive
 239:Drivers/inc/core_riscv.h ****  *
 240:Drivers/inc/core_riscv.h ****  * @brief   Get Interrupt Active State
 241:Drivers/inc/core_riscv.h ****  *
 242:Drivers/inc/core_riscv.h ****  * @param   IRQn - Interrupt Numbers
 243:Drivers/inc/core_riscv.h ****  *
 244:Drivers/inc/core_riscv.h ****  * @return  1 - Interrupt Active
 245:Drivers/inc/core_riscv.h ****  *                0 - Interrupt No Active
 246:Drivers/inc/core_riscv.h ****  */
 247:Drivers/inc/core_riscv.h **** RV_STATIC_INLINE uint32_t NVIC_GetActive(IRQn_Type IRQn) {
 248:Drivers/inc/core_riscv.h ****     return ((uint32_t) (
 249:Drivers/inc/core_riscv.h ****             (NVIC->IACTR[(uint32_t) (IRQn) >> 5]
 250:Drivers/inc/core_riscv.h ****                     & (1 << ((uint32_t) (IRQn) & 0x1F))) ? 1 : 0));
GAS LISTING C:\Users\SOLDER~1\AppData\Local\Temp\cc6haz4O.s 			page 7


 251:Drivers/inc/core_riscv.h **** }
 252:Drivers/inc/core_riscv.h **** 
 253:Drivers/inc/core_riscv.h **** /**
 254:Drivers/inc/core_riscv.h ****  ******************************************************************************
 255:Drivers/inc/core_riscv.h ****  *  @breif Задать приоритет прерыванию
 256:Drivers/inc/core_riscv.h ****  *  @attention Чем ниже номер приоритета - тем он выше. 0 - высш
 257:Drivers/inc/core_riscv.h ****  *  @param   IRQn_Type IRQn - прерывание
 258:Drivers/inc/core_riscv.h ****  *  @param   priority - приоритет (от 0 до 7)
 259:Drivers/inc/core_riscv.h ****  ******************************************************************************
 260:Drivers/inc/core_riscv.h ****  */
 261:Drivers/inc/core_riscv.h **** 
 262:Drivers/inc/core_riscv.h **** RV_STATIC_INLINE void NVIC_SetPriority(IRQn_Type IRQn, uint8_t priority) {
  98              		.loc 1 262 74
  99              		.cfi_startproc
 100 0000 0111     		addi	sp,sp,-32
 101              		.cfi_def_cfa_offset 32
 102 0002 22CE     		sw	s0,28(sp)
 103              		.cfi_offset 8, -4
 104 0004 0010     		addi	s0,sp,32
 105              		.cfi_def_cfa 8, 0
 106 0006 2326A4FE 		sw	a0,-20(s0)
 107 000a AE87     		mv	a5,a1
 108 000c A305F4FE 		sb	a5,-21(s0)
 263:Drivers/inc/core_riscv.h ****     if (priority > 7) {
 109              		.loc 1 263 8
 110 0010 0347B4FE 		lbu	a4,-21(s0)
 111 0014 9D47     		li	a5,7
 112 0016 63F5E700 		bleu	a4,a5,.L4
 264:Drivers/inc/core_riscv.h ****         priority = 7;
 113              		.loc 1 264 18
 114 001a 9D47     		li	a5,7
 115 001c A305F4FE 		sb	a5,-21(s0)
 116              	.L4:
 265:Drivers/inc/core_riscv.h ****     }
 266:Drivers/inc/core_riscv.h ****     NVIC->IPRIOR[(uint32_t) (IRQn)] = priority << 5U;
 117              		.loc 1 266 9
 118 0020 B7E600E0 		li	a3,-536813568
 119              		.loc 1 266 48
 120 0024 8347B4FE 		lbu	a5,-21(s0)
 121 0028 9607     		slli	a5,a5,5
 122 002a 13F7F70F 		andi	a4,a5,0xff
 123              		.loc 1 266 37
 124 002e 8327C4FE 		lw	a5,-20(s0)
 125 0032 B697     		add	a5,a3,a5
 126 0034 2380E740 		sb	a4,1024(a5)
 267:Drivers/inc/core_riscv.h **** }
 127              		.loc 1 267 1
 128 0038 0100     		nop
 129 003a 7244     		lw	s0,28(sp)
 130              		.cfi_restore 8
 131              		.cfi_def_cfa 2, 32
 132 003c 0561     		addi	sp,sp,32
 133              		.cfi_def_cfa_offset 0
 134 003e 8280     		jr	ra
 135              		.cfi_endproc
 136              	.LFE10:
 138              		.globl	NVIC_Priority_Group
GAS LISTING C:\Users\SOLDER~1\AppData\Local\Temp\cc6haz4O.s 			page 8


 139              		.section	.sbss.NVIC_Priority_Group,"aw",@nobits
 140              		.align	2
 143              	NVIC_Priority_Group:
 144 0000 00000000 		.zero	4
 145              		.section	.text.NVIC_PriorityGroupConfig,"ax",@progbits
 146              		.align	1
 147              		.globl	NVIC_PriorityGroupConfig
 149              	NVIC_PriorityGroupConfig:
 150              	.LFB16:
 151              		.file 2 "Drivers/src/ch32v20x_misc.c"
   1:Drivers/src/ch32v20x_misc.c **** /********************************** (C) COPYRIGHT *******************************
   2:Drivers/src/ch32v20x_misc.c ****  * File Name          : ch32v20x_misc.c
   3:Drivers/src/ch32v20x_misc.c ****  * Author             : WCH
   4:Drivers/src/ch32v20x_misc.c ****  * Version            : V1.0.0
   5:Drivers/src/ch32v20x_misc.c ****  * Date               : 2021/06/06
   6:Drivers/src/ch32v20x_misc.c ****  * Description        : This file provides all the miscellaneous firmware functions .
   7:Drivers/src/ch32v20x_misc.c **** *********************************************************************************
   8:Drivers/src/ch32v20x_misc.c **** * Copyright (c) 2021 Nanjing Qinheng Microelectronics Co., Ltd.
   9:Drivers/src/ch32v20x_misc.c **** * Attention: This software (modified or not) and binary are used for 
  10:Drivers/src/ch32v20x_misc.c **** * microcontroller manufactured by Nanjing Qinheng Microelectronics.
  11:Drivers/src/ch32v20x_misc.c **** *******************************************************************************/
  12:Drivers/src/ch32v20x_misc.c **** #include "ch32v20x_misc.h"
  13:Drivers/src/ch32v20x_misc.c **** 
  14:Drivers/src/ch32v20x_misc.c **** __IO uint32_t NVIC_Priority_Group = 0;
  15:Drivers/src/ch32v20x_misc.c **** 
  16:Drivers/src/ch32v20x_misc.c **** /*********************************************************************
  17:Drivers/src/ch32v20x_misc.c ****  * @fn      NVIC_PriorityGroupConfig
  18:Drivers/src/ch32v20x_misc.c ****  *
  19:Drivers/src/ch32v20x_misc.c ****  * @brief   Configures the priority grouping - pre-emption priority and subpriority.
  20:Drivers/src/ch32v20x_misc.c ****  *
  21:Drivers/src/ch32v20x_misc.c ****  * @param   NVIC_PriorityGroup - specifies the priority grouping bits length.
  22:Drivers/src/ch32v20x_misc.c ****  *            NVIC_PriorityGroup_0 - 0 bits for pre-emption priority
  23:Drivers/src/ch32v20x_misc.c ****  *                                   4 bits for subpriority
  24:Drivers/src/ch32v20x_misc.c ****  *            NVIC_PriorityGroup_1 - 1 bits for pre-emption priority
  25:Drivers/src/ch32v20x_misc.c ****  *                                   3 bits for subpriority
  26:Drivers/src/ch32v20x_misc.c ****  *            NVIC_PriorityGroup_2 - 2 bits for pre-emption priority
  27:Drivers/src/ch32v20x_misc.c ****  *                                   2 bits for subpriority
  28:Drivers/src/ch32v20x_misc.c ****  *            NVIC_PriorityGroup_3 - 3 bits for pre-emption priority
  29:Drivers/src/ch32v20x_misc.c ****  *                                   1 bits for subpriority
  30:Drivers/src/ch32v20x_misc.c ****  *            NVIC_PriorityGroup_4 - 4 bits for pre-emption priority
  31:Drivers/src/ch32v20x_misc.c ****  *                                   0 bits for subpriority
  32:Drivers/src/ch32v20x_misc.c ****  *
  33:Drivers/src/ch32v20x_misc.c ****  * @return  none
  34:Drivers/src/ch32v20x_misc.c ****  */
  35:Drivers/src/ch32v20x_misc.c **** void NVIC_PriorityGroupConfig(uint32_t NVIC_PriorityGroup)
  36:Drivers/src/ch32v20x_misc.c **** {
 152              		.loc 2 36 1
 153              		.cfi_startproc
 154 0000 0111     		addi	sp,sp,-32
 155              		.cfi_def_cfa_offset 32
 156 0002 22CE     		sw	s0,28(sp)
 157              		.cfi_offset 8, -4
 158 0004 0010     		addi	s0,sp,32
 159              		.cfi_def_cfa 8, 0
 160 0006 2326A4FE 		sw	a0,-20(s0)
  37:Drivers/src/ch32v20x_misc.c ****     NVIC_Priority_Group = NVIC_PriorityGroup;
 161              		.loc 2 37 25
GAS LISTING C:\Users\SOLDER~1\AppData\Local\Temp\cc6haz4O.s 			page 9


 162 000a B7070000 		lui	a5,%hi(NVIC_Priority_Group)
 163 000e 0327C4FE 		lw	a4,-20(s0)
 164 0012 23A0E700 		sw	a4,%lo(NVIC_Priority_Group)(a5)
  38:Drivers/src/ch32v20x_misc.c **** }
 165              		.loc 2 38 1
 166 0016 0100     		nop
 167 0018 7244     		lw	s0,28(sp)
 168              		.cfi_restore 8
 169              		.cfi_def_cfa 2, 32
 170 001a 0561     		addi	sp,sp,32
 171              		.cfi_def_cfa_offset 0
 172 001c 8280     		jr	ra
 173              		.cfi_endproc
 174              	.LFE16:
 176              		.section	.text.NVIC_Init,"ax",@progbits
 177              		.align	1
 178              		.globl	NVIC_Init
 180              	NVIC_Init:
 181              	.LFB17:
  39:Drivers/src/ch32v20x_misc.c **** 
  40:Drivers/src/ch32v20x_misc.c **** /*********************************************************************
  41:Drivers/src/ch32v20x_misc.c ****  * @fn      NVIC_Init
  42:Drivers/src/ch32v20x_misc.c ****  *
  43:Drivers/src/ch32v20x_misc.c ****  * @brief   Initializes the NVIC peripheral according to the specified parameters in
  44:Drivers/src/ch32v20x_misc.c ****  *        the NVIC_InitStruct.
  45:Drivers/src/ch32v20x_misc.c ****  *
  46:Drivers/src/ch32v20x_misc.c ****  * @param   NVIC_InitStruct - pointer to a NVIC_InitTypeDef structure that contains the
  47:Drivers/src/ch32v20x_misc.c ****  *        configuration information for the specified NVIC peripheral.
  48:Drivers/src/ch32v20x_misc.c ****  *
  49:Drivers/src/ch32v20x_misc.c ****  * @return  none
  50:Drivers/src/ch32v20x_misc.c ****  */
  51:Drivers/src/ch32v20x_misc.c **** void NVIC_Init(NVIC_InitTypeDef *NVIC_InitStruct)
  52:Drivers/src/ch32v20x_misc.c **** {
 182              		.loc 2 52 1
 183              		.cfi_startproc
 184 0000 7971     		addi	sp,sp,-48
 185              		.cfi_def_cfa_offset 48
 186 0002 06D6     		sw	ra,44(sp)
 187 0004 22D4     		sw	s0,40(sp)
 188              		.cfi_offset 1, -4
 189              		.cfi_offset 8, -8
 190 0006 0018     		addi	s0,sp,48
 191              		.cfi_def_cfa 8, 0
 192 0008 232EA4FC 		sw	a0,-36(s0)
  53:Drivers/src/ch32v20x_misc.c ****     uint8_t tmppre = 0;
 193              		.loc 2 53 13
 194 000c A30704FE 		sb	zero,-17(s0)
  54:Drivers/src/ch32v20x_misc.c **** 
  55:Drivers/src/ch32v20x_misc.c ****     if(NVIC_Priority_Group == NVIC_PriorityGroup_0)
 195              		.loc 2 55 28
 196 0010 B7070000 		lui	a5,%hi(NVIC_Priority_Group)
 197 0014 83A70700 		lw	a5,%lo(NVIC_Priority_Group)(a5)
 198              		.loc 2 55 7
 199 0018 95E3     		bne	a5,zero,.L7
  56:Drivers/src/ch32v20x_misc.c ****     {
  57:Drivers/src/ch32v20x_misc.c ****         NVIC_SetPriority(NVIC_InitStruct->NVIC_IRQChannel, NVIC_InitStruct->NVIC_IRQChannelSubPrior
 200              		.loc 2 57 41
GAS LISTING C:\Users\SOLDER~1\AppData\Local\Temp\cc6haz4O.s 			page 10


 201 001a 8327C4FD 		lw	a5,-36(s0)
 202 001e 9C23     		lbu	a5,0(a5)
 203              		.loc 2 57 9
 204 0020 3E87     		mv	a4,a5
 205              		.loc 2 57 75
 206 0022 8327C4FD 		lw	a5,-36(s0)
 207 0026 BC23     		lbu	a5,2(a5)
 208              		.loc 2 57 9
 209 0028 9207     		slli	a5,a5,4
 210 002a 93F7F70F 		andi	a5,a5,0xff
 211 002e BE85     		mv	a1,a5
 212 0030 3A85     		mv	a0,a4
 213 0032 97000000 		call	NVIC_SetPriority
 213      E7800000 
 214 003a C9AA     		j	.L8
 215              	.L7:
  58:Drivers/src/ch32v20x_misc.c ****     }
  59:Drivers/src/ch32v20x_misc.c ****     else if(NVIC_Priority_Group == NVIC_PriorityGroup_1)
 216              		.loc 2 59 33
 217 003c B7070000 		lui	a5,%hi(NVIC_Priority_Group)
 218 0040 03A70700 		lw	a4,%lo(NVIC_Priority_Group)(a5)
 219              		.loc 2 59 12
 220 0044 8547     		li	a5,1
 221 0046 6310F706 		bne	a4,a5,.L9
  60:Drivers/src/ch32v20x_misc.c ****     {
  61:Drivers/src/ch32v20x_misc.c ****         if(NVIC_InitStruct->NVIC_IRQChannelPreemptionPriority == 1)
 222              		.loc 2 61 27
 223 004a 8327C4FD 		lw	a5,-36(s0)
 224 004e 9833     		lbu	a4,1(a5)
 225              		.loc 2 61 11
 226 0050 8547     		li	a5,1
 227 0052 6319F702 		bne	a4,a5,.L10
  62:Drivers/src/ch32v20x_misc.c ****         {
  63:Drivers/src/ch32v20x_misc.c ****             NVIC_SetPriority(NVIC_InitStruct->NVIC_IRQChannel, (1 << 7) | (NVIC_InitStruct->NVIC_IR
 228              		.loc 2 63 45
 229 0056 8327C4FD 		lw	a5,-36(s0)
 230 005a 9C23     		lbu	a5,0(a5)
 231              		.loc 2 63 13
 232 005c 3E87     		mv	a4,a5
 233              		.loc 2 63 91
 234 005e 8327C4FD 		lw	a5,-36(s0)
 235 0062 BC23     		lbu	a5,2(a5)
 236              		.loc 2 63 120
 237 0064 9207     		slli	a5,a5,4
 238              		.loc 2 63 73
 239 0066 E207     		slli	a5,a5,24
 240 0068 E187     		srai	a5,a5,24
 241 006a 93E707F8 		ori	a5,a5,-128
 242 006e E207     		slli	a5,a5,24
 243 0070 E187     		srai	a5,a5,24
 244              		.loc 2 63 13
 245 0072 93F7F70F 		andi	a5,a5,0xff
 246 0076 BE85     		mv	a1,a5
 247 0078 3A85     		mv	a0,a4
 248 007a 97000000 		call	NVIC_SetPriority
 248      E7800000 
 249 0082 69A2     		j	.L8
GAS LISTING C:\Users\SOLDER~1\AppData\Local\Temp\cc6haz4O.s 			page 11


 250              	.L10:
  64:Drivers/src/ch32v20x_misc.c ****         }
  65:Drivers/src/ch32v20x_misc.c ****         else
  66:Drivers/src/ch32v20x_misc.c ****         {
  67:Drivers/src/ch32v20x_misc.c ****             NVIC_SetPriority(NVIC_InitStruct->NVIC_IRQChannel, (0 << 7) | (NVIC_InitStruct->NVIC_IR
 251              		.loc 2 67 45
 252 0084 8327C4FD 		lw	a5,-36(s0)
 253 0088 9C23     		lbu	a5,0(a5)
 254              		.loc 2 67 13
 255 008a 3E87     		mv	a4,a5
 256              		.loc 2 67 91
 257 008c 8327C4FD 		lw	a5,-36(s0)
 258 0090 BC23     		lbu	a5,2(a5)
 259              		.loc 2 67 13
 260 0092 9207     		slli	a5,a5,4
 261 0094 93F7F70F 		andi	a5,a5,0xff
 262 0098 BE85     		mv	a1,a5
 263 009a 3A85     		mv	a0,a4
 264 009c 97000000 		call	NVIC_SetPriority
 264      E7800000 
 265 00a4 A5A2     		j	.L8
 266              	.L9:
  68:Drivers/src/ch32v20x_misc.c ****         }
  69:Drivers/src/ch32v20x_misc.c ****     }
  70:Drivers/src/ch32v20x_misc.c ****     else if(NVIC_Priority_Group == NVIC_PriorityGroup_2)
 267              		.loc 2 70 33
 268 00a6 B7070000 		lui	a5,%hi(NVIC_Priority_Group)
 269 00aa 03A70700 		lw	a4,%lo(NVIC_Priority_Group)(a5)
 270              		.loc 2 70 12
 271 00ae 8947     		li	a5,2
 272 00b0 6319F708 		bne	a4,a5,.L11
  71:Drivers/src/ch32v20x_misc.c ****     {
  72:Drivers/src/ch32v20x_misc.c ****         if(NVIC_InitStruct->NVIC_IRQChannelPreemptionPriority <= 1)
 273              		.loc 2 72 27
 274 00b4 8327C4FD 		lw	a5,-36(s0)
 275 00b8 9833     		lbu	a4,1(a5)
 276              		.loc 2 72 11
 277 00ba 8547     		li	a5,1
 278 00bc 63EEE702 		bgtu	a4,a5,.L12
  73:Drivers/src/ch32v20x_misc.c ****         {
  74:Drivers/src/ch32v20x_misc.c ****             tmppre = NVIC_InitStruct->NVIC_IRQChannelSubPriority + (4 * NVIC_InitStruct->NVIC_IRQCh
 279              		.loc 2 74 37
 280 00c0 8327C4FD 		lw	a5,-36(s0)
 281 00c4 B823     		lbu	a4,2(a5)
 282              		.loc 2 74 88
 283 00c6 8327C4FD 		lw	a5,-36(s0)
 284 00ca 9C33     		lbu	a5,1(a5)
 285              		.loc 2 74 66
 286 00cc 8A07     		slli	a5,a5,2
 287 00ce 93F7F70F 		andi	a5,a5,0xff
 288              		.loc 2 74 20
 289 00d2 BA97     		add	a5,a4,a5
 290 00d4 A307F4FE 		sb	a5,-17(s0)
  75:Drivers/src/ch32v20x_misc.c ****             NVIC_SetPriority(NVIC_InitStruct->NVIC_IRQChannel, (0 << 7) | (tmppre << 4));
 291              		.loc 2 75 45
 292 00d8 8327C4FD 		lw	a5,-36(s0)
 293 00dc 9C23     		lbu	a5,0(a5)
GAS LISTING C:\Users\SOLDER~1\AppData\Local\Temp\cc6haz4O.s 			page 12


 294              		.loc 2 75 13
 295 00de 3E87     		mv	a4,a5
 296 00e0 8347F4FE 		lbu	a5,-17(s0)
 297 00e4 9207     		slli	a5,a5,4
 298 00e6 93F7F70F 		andi	a5,a5,0xff
 299 00ea BE85     		mv	a1,a5
 300 00ec 3A85     		mv	a0,a4
 301 00ee 97000000 		call	NVIC_SetPriority
 301      E7800000 
 302 00f6 19AA     		j	.L8
 303              	.L12:
  76:Drivers/src/ch32v20x_misc.c ****         }
  77:Drivers/src/ch32v20x_misc.c ****         else
  78:Drivers/src/ch32v20x_misc.c ****         {
  79:Drivers/src/ch32v20x_misc.c ****             tmppre = NVIC_InitStruct->NVIC_IRQChannelSubPriority + (4 * (NVIC_InitStruct->NVIC_IRQC
 304              		.loc 2 79 37
 305 00f8 8327C4FD 		lw	a5,-36(s0)
 306 00fc B823     		lbu	a4,2(a5)
 307              		.loc 2 79 89
 308 00fe 8327C4FD 		lw	a5,-36(s0)
 309 0102 9C33     		lbu	a5,1(a5)
 310              		.loc 2 79 66
 311 0104 F917     		addi	a5,a5,-2
 312 0106 93F7F70F 		andi	a5,a5,0xff
 313 010a 8A07     		slli	a5,a5,2
 314 010c 93F7F70F 		andi	a5,a5,0xff
 315              		.loc 2 79 20
 316 0110 BA97     		add	a5,a4,a5
 317 0112 A307F4FE 		sb	a5,-17(s0)
  80:Drivers/src/ch32v20x_misc.c ****             NVIC_SetPriority(NVIC_InitStruct->NVIC_IRQChannel, (1 << 7) | (tmppre << 4));
 318              		.loc 2 80 45
 319 0116 8327C4FD 		lw	a5,-36(s0)
 320 011a 9C23     		lbu	a5,0(a5)
 321              		.loc 2 80 13
 322 011c 3E87     		mv	a4,a5
 323              		.loc 2 80 83
 324 011e 8347F4FE 		lbu	a5,-17(s0)
 325 0122 9207     		slli	a5,a5,4
 326              		.loc 2 80 73
 327 0124 E207     		slli	a5,a5,24
 328 0126 E187     		srai	a5,a5,24
 329 0128 93E707F8 		ori	a5,a5,-128
 330 012c E207     		slli	a5,a5,24
 331 012e E187     		srai	a5,a5,24
 332              		.loc 2 80 13
 333 0130 93F7F70F 		andi	a5,a5,0xff
 334 0134 BE85     		mv	a1,a5
 335 0136 3A85     		mv	a0,a4
 336 0138 97000000 		call	NVIC_SetPriority
 336      E7800000 
 337 0140 F1A0     		j	.L8
 338              	.L11:
  81:Drivers/src/ch32v20x_misc.c ****         }
  82:Drivers/src/ch32v20x_misc.c ****     }
  83:Drivers/src/ch32v20x_misc.c ****     else if(NVIC_Priority_Group == NVIC_PriorityGroup_3)
 339              		.loc 2 83 33
 340 0142 B7070000 		lui	a5,%hi(NVIC_Priority_Group)
GAS LISTING C:\Users\SOLDER~1\AppData\Local\Temp\cc6haz4O.s 			page 13


 341 0146 03A70700 		lw	a4,%lo(NVIC_Priority_Group)(a5)
 342              		.loc 2 83 12
 343 014a 8D47     		li	a5,3
 344 014c 6319F708 		bne	a4,a5,.L13
  84:Drivers/src/ch32v20x_misc.c ****     {
  85:Drivers/src/ch32v20x_misc.c ****         if(NVIC_InitStruct->NVIC_IRQChannelPreemptionPriority <= 3)
 345              		.loc 2 85 27
 346 0150 8327C4FD 		lw	a5,-36(s0)
 347 0154 9833     		lbu	a4,1(a5)
 348              		.loc 2 85 11
 349 0156 8D47     		li	a5,3
 350 0158 63EEE702 		bgtu	a4,a5,.L14
  86:Drivers/src/ch32v20x_misc.c ****         {
  87:Drivers/src/ch32v20x_misc.c ****             tmppre = NVIC_InitStruct->NVIC_IRQChannelSubPriority + (2 * NVIC_InitStruct->NVIC_IRQCh
 351              		.loc 2 87 37
 352 015c 8327C4FD 		lw	a5,-36(s0)
 353 0160 B823     		lbu	a4,2(a5)
 354              		.loc 2 87 88
 355 0162 8327C4FD 		lw	a5,-36(s0)
 356 0166 9C33     		lbu	a5,1(a5)
 357              		.loc 2 87 66
 358 0168 8607     		slli	a5,a5,1
 359 016a 93F7F70F 		andi	a5,a5,0xff
 360              		.loc 2 87 20
 361 016e BA97     		add	a5,a4,a5
 362 0170 A307F4FE 		sb	a5,-17(s0)
  88:Drivers/src/ch32v20x_misc.c ****             NVIC_SetPriority(NVIC_InitStruct->NVIC_IRQChannel, (0 << 7) | (tmppre << 4));
 363              		.loc 2 88 45
 364 0174 8327C4FD 		lw	a5,-36(s0)
 365 0178 9C23     		lbu	a5,0(a5)
 366              		.loc 2 88 13
 367 017a 3E87     		mv	a4,a5
 368 017c 8347F4FE 		lbu	a5,-17(s0)
 369 0180 9207     		slli	a5,a5,4
 370 0182 93F7F70F 		andi	a5,a5,0xff
 371 0186 BE85     		mv	a1,a5
 372 0188 3A85     		mv	a0,a4
 373 018a 97000000 		call	NVIC_SetPriority
 373      E7800000 
 374 0192 ADA8     		j	.L8
 375              	.L14:
  89:Drivers/src/ch32v20x_misc.c ****         }
  90:Drivers/src/ch32v20x_misc.c ****         else
  91:Drivers/src/ch32v20x_misc.c ****         {
  92:Drivers/src/ch32v20x_misc.c ****             tmppre = NVIC_InitStruct->NVIC_IRQChannelSubPriority + (2 * (NVIC_InitStruct->NVIC_IRQC
 376              		.loc 2 92 37
 377 0194 8327C4FD 		lw	a5,-36(s0)
 378 0198 B823     		lbu	a4,2(a5)
 379              		.loc 2 92 89
 380 019a 8327C4FD 		lw	a5,-36(s0)
 381 019e 9C33     		lbu	a5,1(a5)
 382              		.loc 2 92 66
 383 01a0 F117     		addi	a5,a5,-4
 384 01a2 93F7F70F 		andi	a5,a5,0xff
 385 01a6 8607     		slli	a5,a5,1
 386 01a8 93F7F70F 		andi	a5,a5,0xff
 387              		.loc 2 92 20
GAS LISTING C:\Users\SOLDER~1\AppData\Local\Temp\cc6haz4O.s 			page 14


 388 01ac BA97     		add	a5,a4,a5
 389 01ae A307F4FE 		sb	a5,-17(s0)
  93:Drivers/src/ch32v20x_misc.c ****             NVIC_SetPriority(NVIC_InitStruct->NVIC_IRQChannel, (1 << 7) | (tmppre << 4));
 390              		.loc 2 93 45
 391 01b2 8327C4FD 		lw	a5,-36(s0)
 392 01b6 9C23     		lbu	a5,0(a5)
 393              		.loc 2 93 13
 394 01b8 3E87     		mv	a4,a5
 395              		.loc 2 93 83
 396 01ba 8347F4FE 		lbu	a5,-17(s0)
 397 01be 9207     		slli	a5,a5,4
 398              		.loc 2 93 73
 399 01c0 E207     		slli	a5,a5,24
 400 01c2 E187     		srai	a5,a5,24
 401 01c4 93E707F8 		ori	a5,a5,-128
 402 01c8 E207     		slli	a5,a5,24
 403 01ca E187     		srai	a5,a5,24
 404              		.loc 2 93 13
 405 01cc 93F7F70F 		andi	a5,a5,0xff
 406 01d0 BE85     		mv	a1,a5
 407 01d2 3A85     		mv	a0,a4
 408 01d4 97000000 		call	NVIC_SetPriority
 408      E7800000 
 409 01dc 05A8     		j	.L8
 410              	.L13:
  94:Drivers/src/ch32v20x_misc.c ****         }
  95:Drivers/src/ch32v20x_misc.c ****     }
  96:Drivers/src/ch32v20x_misc.c ****     else if(NVIC_Priority_Group == NVIC_PriorityGroup_4)
 411              		.loc 2 96 33
 412 01de B7070000 		lui	a5,%hi(NVIC_Priority_Group)
 413 01e2 03A70700 		lw	a4,%lo(NVIC_Priority_Group)(a5)
 414              		.loc 2 96 12
 415 01e6 9147     		li	a5,4
 416 01e8 6312F702 		bne	a4,a5,.L8
  97:Drivers/src/ch32v20x_misc.c ****     {
  98:Drivers/src/ch32v20x_misc.c ****         NVIC_SetPriority(NVIC_InitStruct->NVIC_IRQChannel, NVIC_InitStruct->NVIC_IRQChannelPreempti
 417              		.loc 2 98 41
 418 01ec 8327C4FD 		lw	a5,-36(s0)
 419 01f0 9C23     		lbu	a5,0(a5)
 420              		.loc 2 98 9
 421 01f2 3E87     		mv	a4,a5
 422              		.loc 2 98 75
 423 01f4 8327C4FD 		lw	a5,-36(s0)
 424 01f8 9C33     		lbu	a5,1(a5)
 425              		.loc 2 98 9
 426 01fa 9207     		slli	a5,a5,4
 427 01fc 93F7F70F 		andi	a5,a5,0xff
 428 0200 BE85     		mv	a1,a5
 429 0202 3A85     		mv	a0,a4
 430 0204 97000000 		call	NVIC_SetPriority
 430      E7800000 
 431              	.L8:
  99:Drivers/src/ch32v20x_misc.c ****     }
 100:Drivers/src/ch32v20x_misc.c **** 
 101:Drivers/src/ch32v20x_misc.c ****     if(NVIC_InitStruct->NVIC_IRQChannelCmd != DISABLE)
 432              		.loc 2 101 23
 433 020c 8327C4FD 		lw	a5,-36(s0)
GAS LISTING C:\Users\SOLDER~1\AppData\Local\Temp\cc6haz4O.s 			page 15


 434 0210 DC43     		lw	a5,4(a5)
 435              		.loc 2 101 7
 436 0212 91CB     		beq	a5,zero,.L15
 102:Drivers/src/ch32v20x_misc.c ****     {
 103:Drivers/src/ch32v20x_misc.c ****         NVIC_EnableIRQ(NVIC_InitStruct->NVIC_IRQChannel);
 437              		.loc 2 103 39
 438 0214 8327C4FD 		lw	a5,-36(s0)
 439 0218 9C23     		lbu	a5,0(a5)
 440              		.loc 2 103 9
 441 021a 3E85     		mv	a0,a5
 442 021c 97000000 		call	NVIC_EnableIRQ
 442      E7800000 
 104:Drivers/src/ch32v20x_misc.c ****     }
 105:Drivers/src/ch32v20x_misc.c ****     else
 106:Drivers/src/ch32v20x_misc.c ****     {
 107:Drivers/src/ch32v20x_misc.c ****         NVIC_DisableIRQ(NVIC_InitStruct->NVIC_IRQChannel);
 108:Drivers/src/ch32v20x_misc.c ****     }
 109:Drivers/src/ch32v20x_misc.c **** }
 443              		.loc 2 109 1
 444 0224 09A8     		j	.L17
 445              	.L15:
 107:Drivers/src/ch32v20x_misc.c ****     }
 446              		.loc 2 107 40
 447 0226 8327C4FD 		lw	a5,-36(s0)
 448 022a 9C23     		lbu	a5,0(a5)
 107:Drivers/src/ch32v20x_misc.c ****     }
 449              		.loc 2 107 9
 450 022c 3E85     		mv	a0,a5
 451 022e 97000000 		call	NVIC_DisableIRQ
 451      E7800000 
 452              	.L17:
 453              		.loc 2 109 1
 454 0236 0100     		nop
 455 0238 B250     		lw	ra,44(sp)
 456              		.cfi_restore 1
 457 023a 2254     		lw	s0,40(sp)
 458              		.cfi_restore 8
 459              		.cfi_def_cfa 2, 48
 460 023c 4561     		addi	sp,sp,48
 461              		.cfi_def_cfa_offset 0
 462 023e 8280     		jr	ra
 463              		.cfi_endproc
 464              	.LFE17:
 466              		.text
 467              	.Letext0:
 468              		.file 3 "Drivers/inc/ch32v20x.h"
 469              		.file 4 "c:\\dev_tools\\ch32_tools\\risc-v_embedded_gcc12\\riscv-none-elf\\include\\machine\\_defa
 470              		.file 5 "c:\\dev_tools\\ch32_tools\\risc-v_embedded_gcc12\\riscv-none-elf\\include\\sys\\_stdint.h
 471              		.file 6 "Drivers/inc/ch32v20x_misc.h"
GAS LISTING C:\Users\SOLDER~1\AppData\Local\Temp\cc6haz4O.s 			page 16


DEFINED SYMBOLS
                            *ABS*:0000000000000000 ch32v20x_misc.c
C:\Users\SOLDER~1\AppData\Local\Temp\cc6haz4O.s:13     .text.NVIC_EnableIRQ:0000000000000000 NVIC_EnableIRQ
C:\Users\SOLDER~1\AppData\Local\Temp\cc6haz4O.s:17     .text.NVIC_EnableIRQ:0000000000000000 .L0 
C:\Users\SOLDER~1\AppData\Local\Temp\cc6haz4O.s:18     .text.NVIC_EnableIRQ:0000000000000000 $x
C:\Users\SOLDER~1\AppData\Local\Temp\cc6haz4O.s:18     .text.NVIC_EnableIRQ:0000000000000000 .L0 
C:\Users\SOLDER~1\AppData\Local\Temp\cc6haz4O.s:19     .text.NVIC_EnableIRQ:0000000000000002 .L0 
C:\Users\SOLDER~1\AppData\Local\Temp\cc6haz4O.s:21     .text.NVIC_EnableIRQ:0000000000000004 .L0 
C:\Users\SOLDER~1\AppData\Local\Temp\cc6haz4O.s:23     .text.NVIC_EnableIRQ:0000000000000006 .L0 
C:\Users\SOLDER~1\AppData\Local\Temp\cc6haz4O.s:26     .text.NVIC_EnableIRQ:000000000000000a .L0 
C:\Users\SOLDER~1\AppData\Local\Temp\cc6haz4O.s:29     .text.NVIC_EnableIRQ:0000000000000010 .L0 
C:\Users\SOLDER~1\AppData\Local\Temp\cc6haz4O.s:32     .text.NVIC_EnableIRQ:0000000000000016 .L0 
C:\Users\SOLDER~1\AppData\Local\Temp\cc6haz4O.s:34     .text.NVIC_EnableIRQ:000000000000001a .L0 
C:\Users\SOLDER~1\AppData\Local\Temp\cc6haz4O.s:37     .text.NVIC_EnableIRQ:0000000000000020 .L0 
C:\Users\SOLDER~1\AppData\Local\Temp\cc6haz4O.s:42     .text.NVIC_EnableIRQ:000000000000002a .L0 
C:\Users\SOLDER~1\AppData\Local\Temp\cc6haz4O.s:44     .text.NVIC_EnableIRQ:000000000000002e .L0 
C:\Users\SOLDER~1\AppData\Local\Temp\cc6haz4O.s:45     .text.NVIC_EnableIRQ:000000000000002e .L0 
C:\Users\SOLDER~1\AppData\Local\Temp\cc6haz4O.s:47     .text.NVIC_EnableIRQ:0000000000000030 .L0 
C:\Users\SOLDER~1\AppData\Local\Temp\cc6haz4O.s:49     .text.NVIC_EnableIRQ:0000000000000032 .L0 
C:\Users\SOLDER~1\AppData\Local\Temp\cc6haz4O.s:55     .text.NVIC_DisableIRQ:0000000000000000 NVIC_DisableIRQ
C:\Users\SOLDER~1\AppData\Local\Temp\cc6haz4O.s:58     .text.NVIC_DisableIRQ:0000000000000000 .L0 
C:\Users\SOLDER~1\AppData\Local\Temp\cc6haz4O.s:59     .text.NVIC_DisableIRQ:0000000000000000 $x
C:\Users\SOLDER~1\AppData\Local\Temp\cc6haz4O.s:59     .text.NVIC_DisableIRQ:0000000000000000 .L0 
C:\Users\SOLDER~1\AppData\Local\Temp\cc6haz4O.s:60     .text.NVIC_DisableIRQ:0000000000000002 .L0 
C:\Users\SOLDER~1\AppData\Local\Temp\cc6haz4O.s:62     .text.NVIC_DisableIRQ:0000000000000004 .L0 
C:\Users\SOLDER~1\AppData\Local\Temp\cc6haz4O.s:64     .text.NVIC_DisableIRQ:0000000000000006 .L0 
C:\Users\SOLDER~1\AppData\Local\Temp\cc6haz4O.s:67     .text.NVIC_DisableIRQ:000000000000000a .L0 
C:\Users\SOLDER~1\AppData\Local\Temp\cc6haz4O.s:70     .text.NVIC_DisableIRQ:0000000000000010 .L0 
C:\Users\SOLDER~1\AppData\Local\Temp\cc6haz4O.s:73     .text.NVIC_DisableIRQ:0000000000000016 .L0 
C:\Users\SOLDER~1\AppData\Local\Temp\cc6haz4O.s:75     .text.NVIC_DisableIRQ:000000000000001a .L0 
C:\Users\SOLDER~1\AppData\Local\Temp\cc6haz4O.s:78     .text.NVIC_DisableIRQ:0000000000000020 .L0 
C:\Users\SOLDER~1\AppData\Local\Temp\cc6haz4O.s:83     .text.NVIC_DisableIRQ:000000000000002a .L0 
C:\Users\SOLDER~1\AppData\Local\Temp\cc6haz4O.s:85     .text.NVIC_DisableIRQ:000000000000002e .L0 
C:\Users\SOLDER~1\AppData\Local\Temp\cc6haz4O.s:86     .text.NVIC_DisableIRQ:000000000000002e .L0 
C:\Users\SOLDER~1\AppData\Local\Temp\cc6haz4O.s:88     .text.NVIC_DisableIRQ:0000000000000030 .L0 
C:\Users\SOLDER~1\AppData\Local\Temp\cc6haz4O.s:90     .text.NVIC_DisableIRQ:0000000000000032 .L0 
C:\Users\SOLDER~1\AppData\Local\Temp\cc6haz4O.s:96     .text.NVIC_SetPriority:0000000000000000 NVIC_SetPriority
C:\Users\SOLDER~1\AppData\Local\Temp\cc6haz4O.s:99     .text.NVIC_SetPriority:0000000000000000 .L0 
C:\Users\SOLDER~1\AppData\Local\Temp\cc6haz4O.s:100    .text.NVIC_SetPriority:0000000000000000 $x
C:\Users\SOLDER~1\AppData\Local\Temp\cc6haz4O.s:100    .text.NVIC_SetPriority:0000000000000000 .L0 
C:\Users\SOLDER~1\AppData\Local\Temp\cc6haz4O.s:101    .text.NVIC_SetPriority:0000000000000002 .L0 
C:\Users\SOLDER~1\AppData\Local\Temp\cc6haz4O.s:103    .text.NVIC_SetPriority:0000000000000004 .L0 
C:\Users\SOLDER~1\AppData\Local\Temp\cc6haz4O.s:105    .text.NVIC_SetPriority:0000000000000006 .L0 
C:\Users\SOLDER~1\AppData\Local\Temp\cc6haz4O.s:110    .text.NVIC_SetPriority:0000000000000010 .L0 
C:\Users\SOLDER~1\AppData\Local\Temp\cc6haz4O.s:114    .text.NVIC_SetPriority:000000000000001a .L0 
C:\Users\SOLDER~1\AppData\Local\Temp\cc6haz4O.s:118    .text.NVIC_SetPriority:0000000000000020 .L0 
C:\Users\SOLDER~1\AppData\Local\Temp\cc6haz4O.s:120    .text.NVIC_SetPriority:0000000000000024 .L0 
C:\Users\SOLDER~1\AppData\Local\Temp\cc6haz4O.s:124    .text.NVIC_SetPriority:000000000000002e .L0 
C:\Users\SOLDER~1\AppData\Local\Temp\cc6haz4O.s:128    .text.NVIC_SetPriority:0000000000000038 .L0 
C:\Users\SOLDER~1\AppData\Local\Temp\cc6haz4O.s:130    .text.NVIC_SetPriority:000000000000003c .L0 
C:\Users\SOLDER~1\AppData\Local\Temp\cc6haz4O.s:131    .text.NVIC_SetPriority:000000000000003c .L0 
C:\Users\SOLDER~1\AppData\Local\Temp\cc6haz4O.s:133    .text.NVIC_SetPriority:000000000000003e .L0 
C:\Users\SOLDER~1\AppData\Local\Temp\cc6haz4O.s:135    .text.NVIC_SetPriority:0000000000000040 .L0 
C:\Users\SOLDER~1\AppData\Local\Temp\cc6haz4O.s:143    .sbss.NVIC_Priority_Group:0000000000000000 NVIC_Priority_Group
C:\Users\SOLDER~1\AppData\Local\Temp\cc6haz4O.s:149    .text.NVIC_PriorityGroupConfig:0000000000000000 NVIC_PriorityGroupConfig
C:\Users\SOLDER~1\AppData\Local\Temp\cc6haz4O.s:153    .text.NVIC_PriorityGroupConfig:0000000000000000 .L0 
C:\Users\SOLDER~1\AppData\Local\Temp\cc6haz4O.s:154    .text.NVIC_PriorityGroupConfig:0000000000000000 $x
GAS LISTING C:\Users\SOLDER~1\AppData\Local\Temp\cc6haz4O.s 			page 17


C:\Users\SOLDER~1\AppData\Local\Temp\cc6haz4O.s:154    .text.NVIC_PriorityGroupConfig:0000000000000000 .L0 
C:\Users\SOLDER~1\AppData\Local\Temp\cc6haz4O.s:155    .text.NVIC_PriorityGroupConfig:0000000000000002 .L0 
C:\Users\SOLDER~1\AppData\Local\Temp\cc6haz4O.s:157    .text.NVIC_PriorityGroupConfig:0000000000000004 .L0 
C:\Users\SOLDER~1\AppData\Local\Temp\cc6haz4O.s:159    .text.NVIC_PriorityGroupConfig:0000000000000006 .L0 
C:\Users\SOLDER~1\AppData\Local\Temp\cc6haz4O.s:162    .text.NVIC_PriorityGroupConfig:000000000000000a .L0 
C:\Users\SOLDER~1\AppData\Local\Temp\cc6haz4O.s:166    .text.NVIC_PriorityGroupConfig:0000000000000016 .L0 
C:\Users\SOLDER~1\AppData\Local\Temp\cc6haz4O.s:168    .text.NVIC_PriorityGroupConfig:000000000000001a .L0 
C:\Users\SOLDER~1\AppData\Local\Temp\cc6haz4O.s:169    .text.NVIC_PriorityGroupConfig:000000000000001a .L0 
C:\Users\SOLDER~1\AppData\Local\Temp\cc6haz4O.s:171    .text.NVIC_PriorityGroupConfig:000000000000001c .L0 
C:\Users\SOLDER~1\AppData\Local\Temp\cc6haz4O.s:173    .text.NVIC_PriorityGroupConfig:000000000000001e .L0 
C:\Users\SOLDER~1\AppData\Local\Temp\cc6haz4O.s:180    .text.NVIC_Init:0000000000000000 NVIC_Init
C:\Users\SOLDER~1\AppData\Local\Temp\cc6haz4O.s:183    .text.NVIC_Init:0000000000000000 .L0 
C:\Users\SOLDER~1\AppData\Local\Temp\cc6haz4O.s:184    .text.NVIC_Init:0000000000000000 $x
C:\Users\SOLDER~1\AppData\Local\Temp\cc6haz4O.s:184    .text.NVIC_Init:0000000000000000 .L0 
C:\Users\SOLDER~1\AppData\Local\Temp\cc6haz4O.s:185    .text.NVIC_Init:0000000000000002 .L0 
C:\Users\SOLDER~1\AppData\Local\Temp\cc6haz4O.s:188    .text.NVIC_Init:0000000000000006 .L0 
C:\Users\SOLDER~1\AppData\Local\Temp\cc6haz4O.s:189    .text.NVIC_Init:0000000000000006 .L0 
C:\Users\SOLDER~1\AppData\Local\Temp\cc6haz4O.s:191    .text.NVIC_Init:0000000000000008 .L0 
C:\Users\SOLDER~1\AppData\Local\Temp\cc6haz4O.s:194    .text.NVIC_Init:000000000000000c .L0 
C:\Users\SOLDER~1\AppData\Local\Temp\cc6haz4O.s:196    .text.NVIC_Init:0000000000000010 .L0 
C:\Users\SOLDER~1\AppData\Local\Temp\cc6haz4O.s:199    .text.NVIC_Init:0000000000000018 .L0 
C:\Users\SOLDER~1\AppData\Local\Temp\cc6haz4O.s:201    .text.NVIC_Init:000000000000001a .L0 
C:\Users\SOLDER~1\AppData\Local\Temp\cc6haz4O.s:204    .text.NVIC_Init:0000000000000020 .L0 
C:\Users\SOLDER~1\AppData\Local\Temp\cc6haz4O.s:206    .text.NVIC_Init:0000000000000022 .L0 
C:\Users\SOLDER~1\AppData\Local\Temp\cc6haz4O.s:209    .text.NVIC_Init:0000000000000028 .L0 
C:\Users\SOLDER~1\AppData\Local\Temp\cc6haz4O.s:217    .text.NVIC_Init:000000000000003c .L0 
C:\Users\SOLDER~1\AppData\Local\Temp\cc6haz4O.s:220    .text.NVIC_Init:0000000000000044 .L0 
C:\Users\SOLDER~1\AppData\Local\Temp\cc6haz4O.s:223    .text.NVIC_Init:000000000000004a .L0 
C:\Users\SOLDER~1\AppData\Local\Temp\cc6haz4O.s:226    .text.NVIC_Init:0000000000000050 .L0 
C:\Users\SOLDER~1\AppData\Local\Temp\cc6haz4O.s:229    .text.NVIC_Init:0000000000000056 .L0 
C:\Users\SOLDER~1\AppData\Local\Temp\cc6haz4O.s:232    .text.NVIC_Init:000000000000005c .L0 
C:\Users\SOLDER~1\AppData\Local\Temp\cc6haz4O.s:234    .text.NVIC_Init:000000000000005e .L0 
C:\Users\SOLDER~1\AppData\Local\Temp\cc6haz4O.s:237    .text.NVIC_Init:0000000000000064 .L0 
C:\Users\SOLDER~1\AppData\Local\Temp\cc6haz4O.s:239    .text.NVIC_Init:0000000000000066 .L0 
C:\Users\SOLDER~1\AppData\Local\Temp\cc6haz4O.s:245    .text.NVIC_Init:0000000000000072 .L0 
C:\Users\SOLDER~1\AppData\Local\Temp\cc6haz4O.s:252    .text.NVIC_Init:0000000000000084 .L0 
C:\Users\SOLDER~1\AppData\Local\Temp\cc6haz4O.s:255    .text.NVIC_Init:000000000000008a .L0 
C:\Users\SOLDER~1\AppData\Local\Temp\cc6haz4O.s:257    .text.NVIC_Init:000000000000008c .L0 
C:\Users\SOLDER~1\AppData\Local\Temp\cc6haz4O.s:260    .text.NVIC_Init:0000000000000092 .L0 
C:\Users\SOLDER~1\AppData\Local\Temp\cc6haz4O.s:268    .text.NVIC_Init:00000000000000a6 .L0 
C:\Users\SOLDER~1\AppData\Local\Temp\cc6haz4O.s:271    .text.NVIC_Init:00000000000000ae .L0 
C:\Users\SOLDER~1\AppData\Local\Temp\cc6haz4O.s:274    .text.NVIC_Init:00000000000000b4 .L0 
C:\Users\SOLDER~1\AppData\Local\Temp\cc6haz4O.s:277    .text.NVIC_Init:00000000000000ba .L0 
C:\Users\SOLDER~1\AppData\Local\Temp\cc6haz4O.s:280    .text.NVIC_Init:00000000000000c0 .L0 
C:\Users\SOLDER~1\AppData\Local\Temp\cc6haz4O.s:283    .text.NVIC_Init:00000000000000c6 .L0 
C:\Users\SOLDER~1\AppData\Local\Temp\cc6haz4O.s:286    .text.NVIC_Init:00000000000000cc .L0 
C:\Users\SOLDER~1\AppData\Local\Temp\cc6haz4O.s:289    .text.NVIC_Init:00000000000000d2 .L0 
C:\Users\SOLDER~1\AppData\Local\Temp\cc6haz4O.s:292    .text.NVIC_Init:00000000000000d8 .L0 
C:\Users\SOLDER~1\AppData\Local\Temp\cc6haz4O.s:295    .text.NVIC_Init:00000000000000de .L0 
C:\Users\SOLDER~1\AppData\Local\Temp\cc6haz4O.s:305    .text.NVIC_Init:00000000000000f8 .L0 
C:\Users\SOLDER~1\AppData\Local\Temp\cc6haz4O.s:308    .text.NVIC_Init:00000000000000fe .L0 
C:\Users\SOLDER~1\AppData\Local\Temp\cc6haz4O.s:311    .text.NVIC_Init:0000000000000104 .L0 
C:\Users\SOLDER~1\AppData\Local\Temp\cc6haz4O.s:316    .text.NVIC_Init:0000000000000110 .L0 
C:\Users\SOLDER~1\AppData\Local\Temp\cc6haz4O.s:319    .text.NVIC_Init:0000000000000116 .L0 
C:\Users\SOLDER~1\AppData\Local\Temp\cc6haz4O.s:322    .text.NVIC_Init:000000000000011c .L0 
C:\Users\SOLDER~1\AppData\Local\Temp\cc6haz4O.s:324    .text.NVIC_Init:000000000000011e .L0 
C:\Users\SOLDER~1\AppData\Local\Temp\cc6haz4O.s:327    .text.NVIC_Init:0000000000000124 .L0 
GAS LISTING C:\Users\SOLDER~1\AppData\Local\Temp\cc6haz4O.s 			page 18


C:\Users\SOLDER~1\AppData\Local\Temp\cc6haz4O.s:333    .text.NVIC_Init:0000000000000130 .L0 
C:\Users\SOLDER~1\AppData\Local\Temp\cc6haz4O.s:340    .text.NVIC_Init:0000000000000142 .L0 
C:\Users\SOLDER~1\AppData\Local\Temp\cc6haz4O.s:343    .text.NVIC_Init:000000000000014a .L0 
C:\Users\SOLDER~1\AppData\Local\Temp\cc6haz4O.s:346    .text.NVIC_Init:0000000000000150 .L0 
C:\Users\SOLDER~1\AppData\Local\Temp\cc6haz4O.s:349    .text.NVIC_Init:0000000000000156 .L0 
C:\Users\SOLDER~1\AppData\Local\Temp\cc6haz4O.s:352    .text.NVIC_Init:000000000000015c .L0 
C:\Users\SOLDER~1\AppData\Local\Temp\cc6haz4O.s:355    .text.NVIC_Init:0000000000000162 .L0 
C:\Users\SOLDER~1\AppData\Local\Temp\cc6haz4O.s:358    .text.NVIC_Init:0000000000000168 .L0 
C:\Users\SOLDER~1\AppData\Local\Temp\cc6haz4O.s:361    .text.NVIC_Init:000000000000016e .L0 
C:\Users\SOLDER~1\AppData\Local\Temp\cc6haz4O.s:364    .text.NVIC_Init:0000000000000174 .L0 
C:\Users\SOLDER~1\AppData\Local\Temp\cc6haz4O.s:367    .text.NVIC_Init:000000000000017a .L0 
C:\Users\SOLDER~1\AppData\Local\Temp\cc6haz4O.s:377    .text.NVIC_Init:0000000000000194 .L0 
C:\Users\SOLDER~1\AppData\Local\Temp\cc6haz4O.s:380    .text.NVIC_Init:000000000000019a .L0 
C:\Users\SOLDER~1\AppData\Local\Temp\cc6haz4O.s:383    .text.NVIC_Init:00000000000001a0 .L0 
C:\Users\SOLDER~1\AppData\Local\Temp\cc6haz4O.s:388    .text.NVIC_Init:00000000000001ac .L0 
C:\Users\SOLDER~1\AppData\Local\Temp\cc6haz4O.s:391    .text.NVIC_Init:00000000000001b2 .L0 
C:\Users\SOLDER~1\AppData\Local\Temp\cc6haz4O.s:394    .text.NVIC_Init:00000000000001b8 .L0 
C:\Users\SOLDER~1\AppData\Local\Temp\cc6haz4O.s:396    .text.NVIC_Init:00000000000001ba .L0 
C:\Users\SOLDER~1\AppData\Local\Temp\cc6haz4O.s:399    .text.NVIC_Init:00000000000001c0 .L0 
C:\Users\SOLDER~1\AppData\Local\Temp\cc6haz4O.s:405    .text.NVIC_Init:00000000000001cc .L0 
C:\Users\SOLDER~1\AppData\Local\Temp\cc6haz4O.s:412    .text.NVIC_Init:00000000000001de .L0 
C:\Users\SOLDER~1\AppData\Local\Temp\cc6haz4O.s:415    .text.NVIC_Init:00000000000001e6 .L0 
C:\Users\SOLDER~1\AppData\Local\Temp\cc6haz4O.s:418    .text.NVIC_Init:00000000000001ec .L0 
C:\Users\SOLDER~1\AppData\Local\Temp\cc6haz4O.s:421    .text.NVIC_Init:00000000000001f2 .L0 
C:\Users\SOLDER~1\AppData\Local\Temp\cc6haz4O.s:423    .text.NVIC_Init:00000000000001f4 .L0 
C:\Users\SOLDER~1\AppData\Local\Temp\cc6haz4O.s:426    .text.NVIC_Init:00000000000001fa .L0 
C:\Users\SOLDER~1\AppData\Local\Temp\cc6haz4O.s:433    .text.NVIC_Init:000000000000020c .L0 
C:\Users\SOLDER~1\AppData\Local\Temp\cc6haz4O.s:436    .text.NVIC_Init:0000000000000212 .L0 
C:\Users\SOLDER~1\AppData\Local\Temp\cc6haz4O.s:438    .text.NVIC_Init:0000000000000214 .L0 
C:\Users\SOLDER~1\AppData\Local\Temp\cc6haz4O.s:441    .text.NVIC_Init:000000000000021a .L0 
C:\Users\SOLDER~1\AppData\Local\Temp\cc6haz4O.s:444    .text.NVIC_Init:0000000000000224 .L0 
C:\Users\SOLDER~1\AppData\Local\Temp\cc6haz4O.s:447    .text.NVIC_Init:0000000000000226 .L0 
C:\Users\SOLDER~1\AppData\Local\Temp\cc6haz4O.s:450    .text.NVIC_Init:000000000000022c .L0 
C:\Users\SOLDER~1\AppData\Local\Temp\cc6haz4O.s:454    .text.NVIC_Init:0000000000000236 .L0 
C:\Users\SOLDER~1\AppData\Local\Temp\cc6haz4O.s:456    .text.NVIC_Init:000000000000023a .L0 
C:\Users\SOLDER~1\AppData\Local\Temp\cc6haz4O.s:458    .text.NVIC_Init:000000000000023c .L0 
C:\Users\SOLDER~1\AppData\Local\Temp\cc6haz4O.s:459    .text.NVIC_Init:000000000000023c .L0 
C:\Users\SOLDER~1\AppData\Local\Temp\cc6haz4O.s:461    .text.NVIC_Init:000000000000023e .L0 
C:\Users\SOLDER~1\AppData\Local\Temp\cc6haz4O.s:463    .text.NVIC_Init:0000000000000240 .L0 
C:\Users\SOLDER~1\AppData\Local\Temp\cc6haz4O.s:30813  .debug_line_str:0000000000000066 .L0 
C:\Users\SOLDER~1\AppData\Local\Temp\cc6haz4O.s:30813  .debug_line_str:00000000000000b0 .L0 
C:\Users\SOLDER~1\AppData\Local\Temp\cc6haz4O.s:30813  .debug_line_str:00000000000000bc .L0 
C:\Users\SOLDER~1\AppData\Local\Temp\cc6haz4O.s:30813  .debug_line_str:00000000000000c8 .L0 
C:\Users\SOLDER~1\AppData\Local\Temp\cc6haz4O.s:30813  .debug_line_str:0000000000000115 .L0 
C:\Users\SOLDER~1\AppData\Local\Temp\cc6haz4O.s:30813  .debug_line_str:000000000000015e .L0 
C:\Users\SOLDER~1\AppData\Local\Temp\cc6haz4O.s:30813  .debug_line_str:00000000000001b2 .L0 
C:\Users\SOLDER~1\AppData\Local\Temp\cc6haz4O.s:30813  .debug_line_str:00000000000001f7 .L0 
C:\Users\SOLDER~1\AppData\Local\Temp\cc6haz4O.s:30813  .debug_line_str:0000000000000207 .L0 
C:\Users\SOLDER~1\AppData\Local\Temp\cc6haz4O.s:30813  .debug_line_str:0000000000000214 .L0 
C:\Users\SOLDER~1\AppData\Local\Temp\cc6haz4O.s:30813  .debug_line_str:0000000000000224 .L0 
C:\Users\SOLDER~1\AppData\Local\Temp\cc6haz4O.s:30813  .debug_line_str:000000000000022f .L0 
C:\Users\SOLDER~1\AppData\Local\Temp\cc6haz4O.s:30813  .debug_line_str:0000000000000240 .L0 
C:\Users\SOLDER~1\AppData\Local\Temp\cc6haz4O.s:30813  .debug_line_str:000000000000024a .L0 
C:\Users\SOLDER~1\AppData\Local\Temp\cc6haz4O.s:30813  .debug_line_str:000000000000025a .L0 
C:\Users\SOLDER~1\AppData\Local\Temp\cc6haz4O.s:30813  .debug_line_str:0000000000000263 .L0 
C:\Users\SOLDER~1\AppData\Local\Temp\cc6haz4O.s:30813  .debug_line_str:000000000000026c .L0 
C:\Users\SOLDER~1\AppData\Local\Temp\cc6haz4O.s:30813  .debug_line_str:0000000000000277 .L0 
GAS LISTING C:\Users\SOLDER~1\AppData\Local\Temp\cc6haz4O.s 			page 19


C:\Users\SOLDER~1\AppData\Local\Temp\cc6haz4O.s:30813  .debug_line_str:0000000000000289 .L0 
C:\Users\SOLDER~1\AppData\Local\Temp\cc6haz4O.s:30813  .debug_line_str:0000000000000293 .L0 
C:\Users\SOLDER~1\AppData\Local\Temp\cc6haz4O.s:30813  .debug_line_str:00000000000002a3 .L0 
C:\Users\SOLDER~1\AppData\Local\Temp\cc6haz4O.s:30813  .debug_line_str:00000000000002b2 .L0 
C:\Users\SOLDER~1\AppData\Local\Temp\cc6haz4O.s:30813  .debug_line_str:00000000000002c1 .L0 
C:\Users\SOLDER~1\AppData\Local\Temp\cc6haz4O.s:30813  .debug_line_str:00000000000002d0 .L0 
C:\Users\SOLDER~1\AppData\Local\Temp\cc6haz4O.s:30813  .debug_line_str:00000000000002df .L0 
C:\Users\SOLDER~1\AppData\Local\Temp\cc6haz4O.s:30813  .debug_line_str:00000000000002f1 .L0 
C:\Users\SOLDER~1\AppData\Local\Temp\cc6haz4O.s:30813  .debug_line_str:0000000000000300 .L0 
C:\Users\SOLDER~1\AppData\Local\Temp\cc6haz4O.s:30813  .debug_line_str:0000000000000310 .L0 
C:\Users\SOLDER~1\AppData\Local\Temp\cc6haz4O.s:30813  .debug_line_str:0000000000000321 .L0 
C:\Users\SOLDER~1\AppData\Local\Temp\cc6haz4O.s:30813  .debug_line_str:0000000000000331 .L0 
C:\Users\SOLDER~1\AppData\Local\Temp\cc6haz4O.s:30813  .debug_line_str:0000000000000340 .L0 
C:\Users\SOLDER~1\AppData\Local\Temp\cc6haz4O.s:30813  .debug_line_str:0000000000000350 .L0 
C:\Users\SOLDER~1\AppData\Local\Temp\cc6haz4O.s:30813  .debug_line_str:000000000000035f .L0 
C:\Users\SOLDER~1\AppData\Local\Temp\cc6haz4O.s:30813  .debug_line_str:000000000000036e .L0 
C:\Users\SOLDER~1\AppData\Local\Temp\cc6haz4O.s:30813  .debug_line_str:000000000000037d .L0 
C:\Users\SOLDER~1\AppData\Local\Temp\cc6haz4O.s:30813  .debug_line_str:000000000000038c .L0 
C:\Users\SOLDER~1\AppData\Local\Temp\cc6haz4O.s:30813  .debug_line_str:000000000000039b .L0 
C:\Users\SOLDER~1\AppData\Local\Temp\cc6haz4O.s:30813  .debug_line_str:00000000000003ac .L0 
C:\Users\SOLDER~1\AppData\Local\Temp\cc6haz4O.s:52     .text.NVIC_EnableIRQ:0000000000000032 .L0 
C:\Users\SOLDER~1\AppData\Local\Temp\cc6haz4O.s:93     .text.NVIC_DisableIRQ:0000000000000032 .L0 
C:\Users\SOLDER~1\AppData\Local\Temp\cc6haz4O.s:139    .text.NVIC_SetPriority:0000000000000040 .L0 
C:\Users\SOLDER~1\AppData\Local\Temp\cc6haz4O.s:176    .text.NVIC_PriorityGroupConfig:000000000000001e .L0 
C:\Users\SOLDER~1\AppData\Local\Temp\cc6haz4O.s:466    .text.NVIC_Init:0000000000000240 .L0 
                     .debug_frame:0000000000000000 .L0 
C:\Users\SOLDER~1\AppData\Local\Temp\cc6haz4O.s:116    .text.NVIC_SetPriority:0000000000000020 .L4
C:\Users\SOLDER~1\AppData\Local\Temp\cc6haz4O.s:215    .text.NVIC_Init:000000000000003c .L7
C:\Users\SOLDER~1\AppData\Local\Temp\cc6haz4O.s:431    .text.NVIC_Init:000000000000020c .L8
C:\Users\SOLDER~1\AppData\Local\Temp\cc6haz4O.s:266    .text.NVIC_Init:00000000000000a6 .L9
C:\Users\SOLDER~1\AppData\Local\Temp\cc6haz4O.s:250    .text.NVIC_Init:0000000000000084 .L10
C:\Users\SOLDER~1\AppData\Local\Temp\cc6haz4O.s:338    .text.NVIC_Init:0000000000000142 .L11
C:\Users\SOLDER~1\AppData\Local\Temp\cc6haz4O.s:303    .text.NVIC_Init:00000000000000f8 .L12
C:\Users\SOLDER~1\AppData\Local\Temp\cc6haz4O.s:410    .text.NVIC_Init:00000000000001de .L13
C:\Users\SOLDER~1\AppData\Local\Temp\cc6haz4O.s:375    .text.NVIC_Init:0000000000000194 .L14
C:\Users\SOLDER~1\AppData\Local\Temp\cc6haz4O.s:445    .text.NVIC_Init:0000000000000226 .L15
C:\Users\SOLDER~1\AppData\Local\Temp\cc6haz4O.s:452    .text.NVIC_Init:0000000000000236 .L17
C:\Users\SOLDER~1\AppData\Local\Temp\cc6haz4O.s:1166   .debug_abbrev:0000000000000000 .Ldebug_abbrev0
C:\Users\SOLDER~1\AppData\Local\Temp\cc6haz4O.s:19268  .debug_str:0000000000000671 .LASF5818
C:\Users\SOLDER~1\AppData\Local\Temp\cc6haz4O.s:30809  .debug_line_str:0000000000000000 .LASF0
C:\Users\SOLDER~1\AppData\Local\Temp\cc6haz4O.s:30811  .debug_line_str:000000000000001c .LASF1
C:\Users\SOLDER~1\AppData\Local\Temp\cc6haz4O.s:1636   .debug_rnglists:000000000000000c .LLRL0
C:\Users\SOLDER~1\AppData\Local\Temp\cc6haz4O.s:19166  .debug_line:0000000000000000 .Ldebug_line0
C:\Users\SOLDER~1\AppData\Local\Temp\cc6haz4O.s:1655   .debug_macro:0000000000000000 .Ldebug_macro0
C:\Users\SOLDER~1\AppData\Local\Temp\cc6haz4O.s:19264  .debug_str:0000000000000650 .LASF5814
C:\Users\SOLDER~1\AppData\Local\Temp\cc6haz4O.s:21854  .debug_str:000000000000aee0 .LASF5712
C:\Users\SOLDER~1\AppData\Local\Temp\cc6haz4O.s:29906  .debug_str:000000000002b7dd .LASF5713
C:\Users\SOLDER~1\AppData\Local\Temp\cc6haz4O.s:26036  .debug_str:000000000001bc38 .LASF5714
C:\Users\SOLDER~1\AppData\Local\Temp\cc6haz4O.s:30710  .debug_str:000000000002ebc9 .LASF5715
C:\Users\SOLDER~1\AppData\Local\Temp\cc6haz4O.s:20478  .debug_str:00000000000054b4 .LASF5716
C:\Users\SOLDER~1\AppData\Local\Temp\cc6haz4O.s:21226  .debug_str:00000000000085a8 .LASF5717
C:\Users\SOLDER~1\AppData\Local\Temp\cc6haz4O.s:26364  .debug_str:000000000001d1b1 .LASF5718
C:\Users\SOLDER~1\AppData\Local\Temp\cc6haz4O.s:21918  .debug_str:000000000000b2d1 .LASF5719
C:\Users\SOLDER~1\AppData\Local\Temp\cc6haz4O.s:22216  .debug_str:000000000000c60d .LASF5720
C:\Users\SOLDER~1\AppData\Local\Temp\cc6haz4O.s:22166  .debug_str:000000000000c299 .LASF5721
C:\Users\SOLDER~1\AppData\Local\Temp\cc6haz4O.s:28904  .debug_str:0000000000027782 .LASF5722
C:\Users\SOLDER~1\AppData\Local\Temp\cc6haz4O.s:23212  .debug_str:00000000000106f2 .LASF5723
GAS LISTING C:\Users\SOLDER~1\AppData\Local\Temp\cc6haz4O.s 			page 20


C:\Users\SOLDER~1\AppData\Local\Temp\cc6haz4O.s:22542  .debug_str:000000000000db71 .LASF5724
C:\Users\SOLDER~1\AppData\Local\Temp\cc6haz4O.s:25374  .debug_str:00000000000191f0 .LASF5725
C:\Users\SOLDER~1\AppData\Local\Temp\cc6haz4O.s:28970  .debug_str:0000000000027b74 .LASF5726
C:\Users\SOLDER~1\AppData\Local\Temp\cc6haz4O.s:21020  .debug_str:000000000000783d .LASF5727
C:\Users\SOLDER~1\AppData\Local\Temp\cc6haz4O.s:24602  .debug_str:0000000000016100 .LASF5728
C:\Users\SOLDER~1\AppData\Local\Temp\cc6haz4O.s:28214  .debug_str:0000000000024920 .LASF5729
C:\Users\SOLDER~1\AppData\Local\Temp\cc6haz4O.s:27076  .debug_str:000000000001fff8 .LASF5730
C:\Users\SOLDER~1\AppData\Local\Temp\cc6haz4O.s:28144  .debug_str:0000000000024479 .LASF5731
C:\Users\SOLDER~1\AppData\Local\Temp\cc6haz4O.s:20112  .debug_str:0000000000003e11 .LASF5732
C:\Users\SOLDER~1\AppData\Local\Temp\cc6haz4O.s:23772  .debug_str:0000000000012a17 .LASF5733
C:\Users\SOLDER~1\AppData\Local\Temp\cc6haz4O.s:27422  .debug_str:00000000000215fc .LASF5734
C:\Users\SOLDER~1\AppData\Local\Temp\cc6haz4O.s:19394  .debug_str:0000000000000faa .LASF5735
C:\Users\SOLDER~1\AppData\Local\Temp\cc6haz4O.s:23038  .debug_str:000000000000fba8 .LASF5736
C:\Users\SOLDER~1\AppData\Local\Temp\cc6haz4O.s:25424  .debug_str:0000000000019509 .LASF5737
C:\Users\SOLDER~1\AppData\Local\Temp\cc6haz4O.s:28086  .debug_str:00000000000240bf .LASF5738
C:\Users\SOLDER~1\AppData\Local\Temp\cc6haz4O.s:25324  .debug_str:0000000000018ebb .LASF5739
C:\Users\SOLDER~1\AppData\Local\Temp\cc6haz4O.s:26186  .debug_str:000000000001c5fe .LASF5740
C:\Users\SOLDER~1\AppData\Local\Temp\cc6haz4O.s:29832  .debug_str:000000000002b34a .LASF5741
C:\Users\SOLDER~1\AppData\Local\Temp\cc6haz4O.s:22698  .debug_str:000000000000e5cb .LASF5742
C:\Users\SOLDER~1\AppData\Local\Temp\cc6haz4O.s:27894  .debug_str:0000000000023465 .LASF5743
C:\Users\SOLDER~1\AppData\Local\Temp\cc6haz4O.s:28736  .debug_str:0000000000026c5a .LASF5744
C:\Users\SOLDER~1\AppData\Local\Temp\cc6haz4O.s:24974  .debug_str:0000000000017830 .LASF5745
C:\Users\SOLDER~1\AppData\Local\Temp\cc6haz4O.s:22680  .debug_str:000000000000e4bf .LASF5746
C:\Users\SOLDER~1\AppData\Local\Temp\cc6haz4O.s:28914  .debug_str:0000000000027818 .LASF5747
C:\Users\SOLDER~1\AppData\Local\Temp\cc6haz4O.s:20242  .debug_str:000000000000461f .LASF5748
C:\Users\SOLDER~1\AppData\Local\Temp\cc6haz4O.s:24642  .debug_str:0000000000016371 .LASF5749
C:\Users\SOLDER~1\AppData\Local\Temp\cc6haz4O.s:23280  .debug_str:0000000000010b4e .LASF5750
C:\Users\SOLDER~1\AppData\Local\Temp\cc6haz4O.s:20430  .debug_str:00000000000051ba .LASF5751
C:\Users\SOLDER~1\AppData\Local\Temp\cc6haz4O.s:27952  .debug_str:000000000002383f .LASF5752
C:\Users\SOLDER~1\AppData\Local\Temp\cc6haz4O.s:25212  .debug_str:000000000001879f .LASF5753
C:\Users\SOLDER~1\AppData\Local\Temp\cc6haz4O.s:23668  .debug_str:00000000000123ac .LASF5754
C:\Users\SOLDER~1\AppData\Local\Temp\cc6haz4O.s:27324  .debug_str:0000000000020f9a .LASF5755
C:\Users\SOLDER~1\AppData\Local\Temp\cc6haz4O.s:23870  .debug_str:00000000000130ad .LASF5756
C:\Users\SOLDER~1\AppData\Local\Temp\cc6haz4O.s:27502  .debug_str:0000000000021b38 .LASF5757
C:\Users\SOLDER~1\AppData\Local\Temp\cc6haz4O.s:19552  .debug_str:0000000000001967 .LASF5758
C:\Users\SOLDER~1\AppData\Local\Temp\cc6haz4O.s:19618  .debug_str:0000000000001de1 .LASF5759
C:\Users\SOLDER~1\AppData\Local\Temp\cc6haz4O.s:24520  .debug_str:0000000000015bf5 .LASF5760
C:\Users\SOLDER~1\AppData\Local\Temp\cc6haz4O.s:25524  .debug_str:0000000000019b69 .LASF5761
C:\Users\SOLDER~1\AppData\Local\Temp\cc6haz4O.s:24856  .debug_str:0000000000017060 .LASF5762
C:\Users\SOLDER~1\AppData\Local\Temp\cc6haz4O.s:22064  .debug_str:000000000000bc0d .LASF5763
C:\Users\SOLDER~1\AppData\Local\Temp\cc6haz4O.s:25426  .debug_str:0000000000019512 .LASF5764
C:\Users\SOLDER~1\AppData\Local\Temp\cc6haz4O.s:26690  .debug_str:000000000001e6d5 .LASF5765
C:\Users\SOLDER~1\AppData\Local\Temp\cc6haz4O.s:30748  .debug_str:000000000002ee28 .LASF5766
C:\Users\SOLDER~1\AppData\Local\Temp\cc6haz4O.s:27152  .debug_str:00000000000204b3 .LASF5768
C:\Users\SOLDER~1\AppData\Local\Temp\cc6haz4O.s:25498  .debug_str:00000000000199c5 .LASF5767
C:\Users\SOLDER~1\AppData\Local\Temp\cc6haz4O.s:21462  .debug_str:0000000000009527 .LASF5769
C:\Users\SOLDER~1\AppData\Local\Temp\cc6haz4O.s:24988  .debug_str:0000000000017917 .LASF5770
C:\Users\SOLDER~1\AppData\Local\Temp\cc6haz4O.s:24276  .debug_str:0000000000014c6a .LASF5771
C:\Users\SOLDER~1\AppData\Local\Temp\cc6haz4O.s:28478  .debug_str:0000000000025a68 .LASF5772
C:\Users\SOLDER~1\AppData\Local\Temp\cc6haz4O.s:27282  .debug_str:0000000000020d2d .LASF5773
C:\Users\SOLDER~1\AppData\Local\Temp\cc6haz4O.s:25698  .debug_str:000000000001a656 .LASF5774
C:\Users\SOLDER~1\AppData\Local\Temp\cc6haz4O.s:19280  .debug_str:00000000000007cd .LASF5775
C:\Users\SOLDER~1\AppData\Local\Temp\cc6haz4O.s:19188  .debug_str:0000000000000153 .LASF5776
C:\Users\SOLDER~1\AppData\Local\Temp\cc6haz4O.s:28852  .debug_str:0000000000027413 .LASF5777
C:\Users\SOLDER~1\AppData\Local\Temp\cc6haz4O.s:28418  .debug_str:0000000000025652 .LASF5778
C:\Users\SOLDER~1\AppData\Local\Temp\cc6haz4O.s:20018  .debug_str:00000000000037fc .LASF5779
C:\Users\SOLDER~1\AppData\Local\Temp\cc6haz4O.s:21270  .debug_str:0000000000008881 .LASF5780
GAS LISTING C:\Users\SOLDER~1\AppData\Local\Temp\cc6haz4O.s 			page 21


C:\Users\SOLDER~1\AppData\Local\Temp\cc6haz4O.s:22800  .debug_str:000000000000ec2f .LASF5781
C:\Users\SOLDER~1\AppData\Local\Temp\cc6haz4O.s:24740  .debug_str:0000000000016964 .LASF5782
C:\Users\SOLDER~1\AppData\Local\Temp\cc6haz4O.s:24842  .debug_str:0000000000016f85 .LASF5783
C:\Users\SOLDER~1\AppData\Local\Temp\cc6haz4O.s:26964  .debug_str:000000000001f916 .LASF5784
C:\Users\SOLDER~1\AppData\Local\Temp\cc6haz4O.s:19548  .debug_str:0000000000001933 .LASF5785
C:\Users\SOLDER~1\AppData\Local\Temp\cc6haz4O.s:26724  .debug_str:000000000001e935 .LASF5786
C:\Users\SOLDER~1\AppData\Local\Temp\cc6haz4O.s:29772  .debug_str:000000000002af4a .LASF5787
C:\Users\SOLDER~1\AppData\Local\Temp\cc6haz4O.s:22008  .debug_str:000000000000b8a4 .LASF5788
C:\Users\SOLDER~1\AppData\Local\Temp\cc6haz4O.s:20366  .debug_str:0000000000004e1c .LASF5789
C:\Users\SOLDER~1\AppData\Local\Temp\cc6haz4O.s:24466  .debug_str:00000000000158b1 .LASF5790
C:\Users\SOLDER~1\AppData\Local\Temp\cc6haz4O.s:29092  .debug_str:000000000002839e .LASF5791
C:\Users\SOLDER~1\AppData\Local\Temp\cc6haz4O.s:24468  .debug_str:00000000000158bb .LASF5792
C:\Users\SOLDER~1\AppData\Local\Temp\cc6haz4O.s:29698  .debug_str:000000000002aa62 .LASF5793
C:\Users\SOLDER~1\AppData\Local\Temp\cc6haz4O.s:22020  .debug_str:000000000000b953 .LASF5794
C:\Users\SOLDER~1\AppData\Local\Temp\cc6haz4O.s:29924  .debug_str:000000000002b8ec .LASF5795
C:\Users\SOLDER~1\AppData\Local\Temp\cc6haz4O.s:22024  .debug_str:000000000000b98a .LASF5796
C:\Users\SOLDER~1\AppData\Local\Temp\cc6haz4O.s:25394  .debug_str:000000000001930f .LASF5797
C:\Users\SOLDER~1\AppData\Local\Temp\cc6haz4O.s:22028  .debug_str:000000000000b9b9 .LASF5798
C:\Users\SOLDER~1\AppData\Local\Temp\cc6haz4O.s:23726  .debug_str:0000000000012771 .LASF5799
C:\Users\SOLDER~1\AppData\Local\Temp\cc6haz4O.s:24476  .debug_str:000000000001592a .LASF5800
C:\Users\SOLDER~1\AppData\Local\Temp\cc6haz4O.s:30246  .debug_str:000000000002cd9f .LASF5801
C:\Users\SOLDER~1\AppData\Local\Temp\cc6haz4O.s:24478  .debug_str:0000000000015934 .LASF5802
C:\Users\SOLDER~1\AppData\Local\Temp\cc6haz4O.s:20650  .debug_str:0000000000005fd3 .LASF5803
C:\Users\SOLDER~1\AppData\Local\Temp\cc6haz4O.s:25844  .debug_str:000000000001b04b .LASF5804
C:\Users\SOLDER~1\AppData\Local\Temp\cc6haz4O.s:30446  .debug_str:000000000002dad5 .LASF5805
C:\Users\SOLDER~1\AppData\Local\Temp\cc6haz4O.s:25032  .debug_str:0000000000017bc7 .LASF5806
C:\Users\SOLDER~1\AppData\Local\Temp\cc6haz4O.s:24546  .debug_str:0000000000015d4f .LASF5807
C:\Users\SOLDER~1\AppData\Local\Temp\cc6haz4O.s:24796  .debug_str:0000000000016cfd .LASF5808
C:\Users\SOLDER~1\AppData\Local\Temp\cc6haz4O.s:23526  .debug_str:0000000000011ad1 .LASF5809
C:\Users\SOLDER~1\AppData\Local\Temp\cc6haz4O.s:27586  .debug_str:0000000000022082 .LASF5819
C:\Users\SOLDER~1\AppData\Local\Temp\cc6haz4O.s:26216  .debug_str:000000000001c7fc .LASF5810
C:\Users\SOLDER~1\AppData\Local\Temp\cc6haz4O.s:181    .text.NVIC_Init:0000000000000000 .LFB17
C:\Users\SOLDER~1\AppData\Local\Temp\cc6haz4O.s:464    .text.NVIC_Init:0000000000000240 .LFE17
C:\Users\SOLDER~1\AppData\Local\Temp\cc6haz4O.s:20768  .debug_str:00000000000067bd .LASF5812
C:\Users\SOLDER~1\AppData\Local\Temp\cc6haz4O.s:24938  .debug_str:00000000000175e9 .LASF5820
C:\Users\SOLDER~1\AppData\Local\Temp\cc6haz4O.s:24620  .debug_str:000000000001620d .LASF5811
C:\Users\SOLDER~1\AppData\Local\Temp\cc6haz4O.s:150    .text.NVIC_PriorityGroupConfig:0000000000000000 .LFB16
C:\Users\SOLDER~1\AppData\Local\Temp\cc6haz4O.s:174    .text.NVIC_PriorityGroupConfig:000000000000001e .LFE16
C:\Users\SOLDER~1\AppData\Local\Temp\cc6haz4O.s:21640  .debug_str:000000000000a0be .LASF5813
C:\Users\SOLDER~1\AppData\Local\Temp\cc6haz4O.s:24834  .debug_str:0000000000016f14 .LASF5816
C:\Users\SOLDER~1\AppData\Local\Temp\cc6haz4O.s:97     .text.NVIC_SetPriority:0000000000000000 .LFB10
C:\Users\SOLDER~1\AppData\Local\Temp\cc6haz4O.s:136    .text.NVIC_SetPriority:0000000000000040 .LFE10
C:\Users\SOLDER~1\AppData\Local\Temp\cc6haz4O.s:21456  .debug_str:00000000000094e6 .LASF5815
C:\Users\SOLDER~1\AppData\Local\Temp\cc6haz4O.s:27120  .debug_str:00000000000202b6 .LASF5817
C:\Users\SOLDER~1\AppData\Local\Temp\cc6haz4O.s:56     .text.NVIC_DisableIRQ:0000000000000000 .LFB4
C:\Users\SOLDER~1\AppData\Local\Temp\cc6haz4O.s:91     .text.NVIC_DisableIRQ:0000000000000032 .LFE4
C:\Users\SOLDER~1\AppData\Local\Temp\cc6haz4O.s:23088  .debug_str:000000000000ff19 .LASF5821
C:\Users\SOLDER~1\AppData\Local\Temp\cc6haz4O.s:14     .text.NVIC_EnableIRQ:0000000000000000 .LFB3
C:\Users\SOLDER~1\AppData\Local\Temp\cc6haz4O.s:50     .text.NVIC_EnableIRQ:0000000000000032 .LFE3
C:\Users\SOLDER~1\AppData\Local\Temp\cc6haz4O.s:473    .debug_info:0000000000000000 .Ldebug_info0
C:\Users\SOLDER~1\AppData\Local\Temp\cc6haz4O.s:1893   .debug_macro:0000000000000000 .Ldebug_macro2
C:\Users\SOLDER~1\AppData\Local\Temp\cc6haz4O.s:30110  .debug_str:000000000002c526 .LASF318
C:\Users\SOLDER~1\AppData\Local\Temp\cc6haz4O.s:2846   .debug_macro:0000000000000000 .Ldebug_macro3
C:\Users\SOLDER~1\AppData\Local\Temp\cc6haz4O.s:25596  .debug_str:0000000000019fe9 .LASF336
C:\Users\SOLDER~1\AppData\Local\Temp\cc6haz4O.s:20232  .debug_str:000000000000458f .LASF337
C:\Users\SOLDER~1\AppData\Local\Temp\cc6haz4O.s:27580  .debug_str:000000000002202a .LASF338
C:\Users\SOLDER~1\AppData\Local\Temp\cc6haz4O.s:2902   .debug_macro:0000000000000000 .Ldebug_macro4
GAS LISTING C:\Users\SOLDER~1\AppData\Local\Temp\cc6haz4O.s 			page 22


C:\Users\SOLDER~1\AppData\Local\Temp\cc6haz4O.s:2922   .debug_macro:0000000000000000 .Ldebug_macro5
C:\Users\SOLDER~1\AppData\Local\Temp\cc6haz4O.s:2987   .debug_macro:0000000000000000 .Ldebug_macro6
C:\Users\SOLDER~1\AppData\Local\Temp\cc6haz4O.s:3028   .debug_macro:0000000000000000 .Ldebug_macro7
C:\Users\SOLDER~1\AppData\Local\Temp\cc6haz4O.s:3153   .debug_macro:0000000000000000 .Ldebug_macro8
C:\Users\SOLDER~1\AppData\Local\Temp\cc6haz4O.s:3209   .debug_macro:0000000000000000 .Ldebug_macro9
C:\Users\SOLDER~1\AppData\Local\Temp\cc6haz4O.s:19544  .debug_str:00000000000018fa .LASF493
C:\Users\SOLDER~1\AppData\Local\Temp\cc6haz4O.s:3421   .debug_macro:0000000000000000 .Ldebug_macro10
C:\Users\SOLDER~1\AppData\Local\Temp\cc6haz4O.s:3459   .debug_macro:0000000000000000 .Ldebug_macro11
C:\Users\SOLDER~1\AppData\Local\Temp\cc6haz4O.s:19816  .debug_str:0000000000002b2a .LASF4592
C:\Users\SOLDER~1\AppData\Local\Temp\cc6haz4O.s:28380  .debug_str:00000000000253eb .LASF4593
C:\Users\SOLDER~1\AppData\Local\Temp\cc6haz4O.s:15725  .debug_macro:0000000000000000 .Ldebug_macro12
C:\Users\SOLDER~1\AppData\Local\Temp\cc6haz4O.s:16006  .debug_macro:0000000000000000 .Ldebug_macro13
C:\Users\SOLDER~1\AppData\Local\Temp\cc6haz4O.s:16158  .debug_macro:0000000000000000 .Ldebug_macro14
C:\Users\SOLDER~1\AppData\Local\Temp\cc6haz4O.s:24732  .debug_str:00000000000168d6 .LASF4851
C:\Users\SOLDER~1\AppData\Local\Temp\cc6haz4O.s:16511  .debug_macro:0000000000000000 .Ldebug_macro15
C:\Users\SOLDER~1\AppData\Local\Temp\cc6haz4O.s:16576  .debug_macro:0000000000000000 .Ldebug_macro16
C:\Users\SOLDER~1\AppData\Local\Temp\cc6haz4O.s:16845  .debug_macro:0000000000000000 .Ldebug_macro17
C:\Users\SOLDER~1\AppData\Local\Temp\cc6haz4O.s:16916  .debug_macro:0000000000000000 .Ldebug_macro18
C:\Users\SOLDER~1\AppData\Local\Temp\cc6haz4O.s:17080  .debug_macro:0000000000000000 .Ldebug_macro19
C:\Users\SOLDER~1\AppData\Local\Temp\cc6haz4O.s:17352  .debug_macro:0000000000000000 .Ldebug_macro20
C:\Users\SOLDER~1\AppData\Local\Temp\cc6haz4O.s:17603  .debug_macro:0000000000000000 .Ldebug_macro21
C:\Users\SOLDER~1\AppData\Local\Temp\cc6haz4O.s:17644  .debug_macro:0000000000000000 .Ldebug_macro22
C:\Users\SOLDER~1\AppData\Local\Temp\cc6haz4O.s:17697  .debug_macro:0000000000000000 .Ldebug_macro23
C:\Users\SOLDER~1\AppData\Local\Temp\cc6haz4O.s:18098  .debug_macro:0000000000000000 .Ldebug_macro24
C:\Users\SOLDER~1\AppData\Local\Temp\cc6haz4O.s:18130  .debug_macro:0000000000000000 .Ldebug_macro25
C:\Users\SOLDER~1\AppData\Local\Temp\cc6haz4O.s:18360  .debug_macro:0000000000000000 .Ldebug_macro26
C:\Users\SOLDER~1\AppData\Local\Temp\cc6haz4O.s:18956  .debug_macro:0000000000000000 .Ldebug_macro27
C:\Users\SOLDER~1\AppData\Local\Temp\cc6haz4O.s:19126  .debug_macro:0000000000000000 .Ldebug_macro28
C:\Users\SOLDER~1\AppData\Local\Temp\cc6haz4O.s:19146  .debug_macro:0000000000000000 .Ldebug_macro29
C:\Users\SOLDER~1\AppData\Local\Temp\cc6haz4O.s:20606  .debug_str:0000000000005d26 .LASF2
C:\Users\SOLDER~1\AppData\Local\Temp\cc6haz4O.s:29544  .debug_str:000000000002a071 .LASF3
C:\Users\SOLDER~1\AppData\Local\Temp\cc6haz4O.s:29922  .debug_str:000000000002b8da .LASF4
C:\Users\SOLDER~1\AppData\Local\Temp\cc6haz4O.s:23350  .debug_str:0000000000010f8f .LASF5
C:\Users\SOLDER~1\AppData\Local\Temp\cc6haz4O.s:24708  .debug_str:0000000000016767 .LASF6
C:\Users\SOLDER~1\AppData\Local\Temp\cc6haz4O.s:30342  .debug_str:000000000002d42f .LASF7
C:\Users\SOLDER~1\AppData\Local\Temp\cc6haz4O.s:23408  .debug_str:0000000000011324 .LASF8
C:\Users\SOLDER~1\AppData\Local\Temp\cc6haz4O.s:24160  .debug_str:00000000000144a6 .LASF9
C:\Users\SOLDER~1\AppData\Local\Temp\cc6haz4O.s:21340  .debug_str:0000000000008d08 .LASF10
C:\Users\SOLDER~1\AppData\Local\Temp\cc6haz4O.s:29254  .debug_str:0000000000028deb .LASF11
C:\Users\SOLDER~1\AppData\Local\Temp\cc6haz4O.s:25790  .debug_str:000000000001ac76 .LASF12
C:\Users\SOLDER~1\AppData\Local\Temp\cc6haz4O.s:25642  .debug_str:000000000001a2ca .LASF13
C:\Users\SOLDER~1\AppData\Local\Temp\cc6haz4O.s:28188  .debug_str:0000000000024779 .LASF14
C:\Users\SOLDER~1\AppData\Local\Temp\cc6haz4O.s:25662  .debug_str:000000000001a406 .LASF15
C:\Users\SOLDER~1\AppData\Local\Temp\cc6haz4O.s:21832  .debug_str:000000000000ad7b .LASF16
C:\Users\SOLDER~1\AppData\Local\Temp\cc6haz4O.s:27078  .debug_str:000000000002000b .LASF17
C:\Users\SOLDER~1\AppData\Local\Temp\cc6haz4O.s:27796  .debug_str:0000000000022dfd .LASF18
C:\Users\SOLDER~1\AppData\Local\Temp\cc6haz4O.s:21872  .debug_str:000000000000b01a .LASF19
C:\Users\SOLDER~1\AppData\Local\Temp\cc6haz4O.s:20762  .debug_str:0000000000006748 .LASF20
C:\Users\SOLDER~1\AppData\Local\Temp\cc6haz4O.s:22880  .debug_str:000000000000f148 .LASF21
C:\Users\SOLDER~1\AppData\Local\Temp\cc6haz4O.s:28658  .debug_str:00000000000266d7 .LASF22
C:\Users\SOLDER~1\AppData\Local\Temp\cc6haz4O.s:25472  .debug_str:0000000000019867 .LASF23
C:\Users\SOLDER~1\AppData\Local\Temp\cc6haz4O.s:25470  .debug_str:000000000001984d .LASF24
C:\Users\SOLDER~1\AppData\Local\Temp\cc6haz4O.s:28112  .debug_str:0000000000024267 .LASF25
C:\Users\SOLDER~1\AppData\Local\Temp\cc6haz4O.s:28778  .debug_str:0000000000026f30 .LASF26
C:\Users\SOLDER~1\AppData\Local\Temp\cc6haz4O.s:20118  .debug_str:0000000000003e67 .LASF27
C:\Users\SOLDER~1\AppData\Local\Temp\cc6haz4O.s:24862  .debug_str:00000000000170b8 .LASF28
C:\Users\SOLDER~1\AppData\Local\Temp\cc6haz4O.s:28006  .debug_str:0000000000023b68 .LASF29
GAS LISTING C:\Users\SOLDER~1\AppData\Local\Temp\cc6haz4O.s 			page 23


C:\Users\SOLDER~1\AppData\Local\Temp\cc6haz4O.s:27806  .debug_str:0000000000022ea5 .LASF30
C:\Users\SOLDER~1\AppData\Local\Temp\cc6haz4O.s:20546  .debug_str:00000000000058f1 .LASF31
C:\Users\SOLDER~1\AppData\Local\Temp\cc6haz4O.s:26850  .debug_str:000000000001f15c .LASF32
C:\Users\SOLDER~1\AppData\Local\Temp\cc6haz4O.s:19502  .debug_str:0000000000001674 .LASF33
C:\Users\SOLDER~1\AppData\Local\Temp\cc6haz4O.s:23574  .debug_str:0000000000011dcd .LASF34
C:\Users\SOLDER~1\AppData\Local\Temp\cc6haz4O.s:24518  .debug_str:0000000000015bc7 .LASF35
C:\Users\SOLDER~1\AppData\Local\Temp\cc6haz4O.s:22632  .debug_str:000000000000e139 .LASF36
C:\Users\SOLDER~1\AppData\Local\Temp\cc6haz4O.s:21708  .debug_str:000000000000a52f .LASF37
C:\Users\SOLDER~1\AppData\Local\Temp\cc6haz4O.s:21560  .debug_str:0000000000009b68 .LASF38
C:\Users\SOLDER~1\AppData\Local\Temp\cc6haz4O.s:22906  .debug_str:000000000000f2f5 .LASF39
C:\Users\SOLDER~1\AppData\Local\Temp\cc6haz4O.s:25894  .debug_str:000000000001b322 .LASF40
C:\Users\SOLDER~1\AppData\Local\Temp\cc6haz4O.s:21082  .debug_str:0000000000007c08 .LASF41
C:\Users\SOLDER~1\AppData\Local\Temp\cc6haz4O.s:23286  .debug_str:0000000000010b89 .LASF42
C:\Users\SOLDER~1\AppData\Local\Temp\cc6haz4O.s:29084  .debug_str:0000000000028307 .LASF43
C:\Users\SOLDER~1\AppData\Local\Temp\cc6haz4O.s:19872  .debug_str:0000000000002e92 .LASF44
C:\Users\SOLDER~1\AppData\Local\Temp\cc6haz4O.s:22972  .debug_str:000000000000f718 .LASF45
C:\Users\SOLDER~1\AppData\Local\Temp\cc6haz4O.s:23888  .debug_str:00000000000131c2 .LASF46
C:\Users\SOLDER~1\AppData\Local\Temp\cc6haz4O.s:28386  .debug_str:0000000000025455 .LASF47
C:\Users\SOLDER~1\AppData\Local\Temp\cc6haz4O.s:25884  .debug_str:000000000001b277 .LASF48
C:\Users\SOLDER~1\AppData\Local\Temp\cc6haz4O.s:23738  .debug_str:0000000000012811 .LASF49
C:\Users\SOLDER~1\AppData\Local\Temp\cc6haz4O.s:20380  .debug_str:0000000000004ec7 .LASF50
C:\Users\SOLDER~1\AppData\Local\Temp\cc6haz4O.s:23890  .debug_str:00000000000131db .LASF51
C:\Users\SOLDER~1\AppData\Local\Temp\cc6haz4O.s:28568  .debug_str:000000000002609c .LASF52
C:\Users\SOLDER~1\AppData\Local\Temp\cc6haz4O.s:22630  .debug_str:000000000000e119 .LASF53
C:\Users\SOLDER~1\AppData\Local\Temp\cc6haz4O.s:19714  .debug_str:0000000000002444 .LASF54
C:\Users\SOLDER~1\AppData\Local\Temp\cc6haz4O.s:19196  .debug_str:00000000000001b8 .LASF55
C:\Users\SOLDER~1\AppData\Local\Temp\cc6haz4O.s:29964  .debug_str:000000000002bb6a .LASF56
C:\Users\SOLDER~1\AppData\Local\Temp\cc6haz4O.s:27982  .debug_str:0000000000023a0b .LASF57
C:\Users\SOLDER~1\AppData\Local\Temp\cc6haz4O.s:19282  .debug_str:00000000000007df .LASF58
C:\Users\SOLDER~1\AppData\Local\Temp\cc6haz4O.s:23246  .debug_str:00000000000108e9 .LASF59
C:\Users\SOLDER~1\AppData\Local\Temp\cc6haz4O.s:21168  .debug_str:00000000000081cb .LASF60
C:\Users\SOLDER~1\AppData\Local\Temp\cc6haz4O.s:27634  .debug_str:0000000000022326 .LASF61
C:\Users\SOLDER~1\AppData\Local\Temp\cc6haz4O.s:19450  .debug_str:000000000000130f .LASF62
C:\Users\SOLDER~1\AppData\Local\Temp\cc6haz4O.s:22516  .debug_str:000000000000d9e5 .LASF63
C:\Users\SOLDER~1\AppData\Local\Temp\cc6haz4O.s:25436  .debug_str:00000000000195bc .LASF64
C:\Users\SOLDER~1\AppData\Local\Temp\cc6haz4O.s:26254  .debug_str:000000000001ca60 .LASF65
C:\Users\SOLDER~1\AppData\Local\Temp\cc6haz4O.s:19952  .debug_str:00000000000033b0 .LASF66
C:\Users\SOLDER~1\AppData\Local\Temp\cc6haz4O.s:22620  .debug_str:000000000000e076 .LASF67
C:\Users\SOLDER~1\AppData\Local\Temp\cc6haz4O.s:22348  .debug_str:000000000000cee4 .LASF68
C:\Users\SOLDER~1\AppData\Local\Temp\cc6haz4O.s:25876  .debug_str:000000000001b215 .LASF69
C:\Users\SOLDER~1\AppData\Local\Temp\cc6haz4O.s:24514  .debug_str:0000000000015b80 .LASF70
C:\Users\SOLDER~1\AppData\Local\Temp\cc6haz4O.s:29720  .debug_str:000000000002abc0 .LASF71
C:\Users\SOLDER~1\AppData\Local\Temp\cc6haz4O.s:30190  .debug_str:000000000002ca25 .LASF72
C:\Users\SOLDER~1\AppData\Local\Temp\cc6haz4O.s:23692  .debug_str:000000000001250c .LASF73
C:\Users\SOLDER~1\AppData\Local\Temp\cc6haz4O.s:22792  .debug_str:000000000000ebca .LASF74
C:\Users\SOLDER~1\AppData\Local\Temp\cc6haz4O.s:20398  .debug_str:0000000000004fdc .LASF75
C:\Users\SOLDER~1\AppData\Local\Temp\cc6haz4O.s:23728  .debug_str:0000000000012777 .LASF76
C:\Users\SOLDER~1\AppData\Local\Temp\cc6haz4O.s:22266  .debug_str:000000000000c950 .LASF77
C:\Users\SOLDER~1\AppData\Local\Temp\cc6haz4O.s:23980  .debug_str:00000000000137ef .LASF78
C:\Users\SOLDER~1\AppData\Local\Temp\cc6haz4O.s:25248  .debug_str:00000000000189a9 .LASF79
C:\Users\SOLDER~1\AppData\Local\Temp\cc6haz4O.s:23918  .debug_str:00000000000133cc .LASF80
C:\Users\SOLDER~1\AppData\Local\Temp\cc6haz4O.s:28474  .debug_str:0000000000025a2d .LASF81
C:\Users\SOLDER~1\AppData\Local\Temp\cc6haz4O.s:26380  .debug_str:000000000001d2e3 .LASF82
C:\Users\SOLDER~1\AppData\Local\Temp\cc6haz4O.s:26814  .debug_str:000000000001ef27 .LASF83
C:\Users\SOLDER~1\AppData\Local\Temp\cc6haz4O.s:29704  .debug_str:000000000002aab2 .LASF84
C:\Users\SOLDER~1\AppData\Local\Temp\cc6haz4O.s:21654  .debug_str:000000000000a18d .LASF85
C:\Users\SOLDER~1\AppData\Local\Temp\cc6haz4O.s:29852  .debug_str:000000000002b483 .LASF86
GAS LISTING C:\Users\SOLDER~1\AppData\Local\Temp\cc6haz4O.s 			page 24


C:\Users\SOLDER~1\AppData\Local\Temp\cc6haz4O.s:23730  .debug_str:000000000001279e .LASF87
C:\Users\SOLDER~1\AppData\Local\Temp\cc6haz4O.s:25900  .debug_str:000000000001b382 .LASF88
C:\Users\SOLDER~1\AppData\Local\Temp\cc6haz4O.s:20904  .debug_str:00000000000070dc .LASF89
C:\Users\SOLDER~1\AppData\Local\Temp\cc6haz4O.s:30184  .debug_str:000000000002c9c3 .LASF90
C:\Users\SOLDER~1\AppData\Local\Temp\cc6haz4O.s:29878  .debug_str:000000000002b605 .LASF91
C:\Users\SOLDER~1\AppData\Local\Temp\cc6haz4O.s:27252  .debug_str:0000000000020b23 .LASF92
C:\Users\SOLDER~1\AppData\Local\Temp\cc6haz4O.s:25972  .debug_str:000000000001b828 .LASF93
C:\Users\SOLDER~1\AppData\Local\Temp\cc6haz4O.s:27276  .debug_str:0000000000020cbe .LASF94
C:\Users\SOLDER~1\AppData\Local\Temp\cc6haz4O.s:30098  .debug_str:000000000002c471 .LASF95
C:\Users\SOLDER~1\AppData\Local\Temp\cc6haz4O.s:28882  .debug_str:000000000002761c .LASF96
C:\Users\SOLDER~1\AppData\Local\Temp\cc6haz4O.s:21742  .debug_str:000000000000a776 .LASF97
C:\Users\SOLDER~1\AppData\Local\Temp\cc6haz4O.s:28106  .debug_str:00000000000241ec .LASF98
C:\Users\SOLDER~1\AppData\Local\Temp\cc6haz4O.s:24222  .debug_str:00000000000148c9 .LASF99
C:\Users\SOLDER~1\AppData\Local\Temp\cc6haz4O.s:28268  .debug_str:0000000000024ccd .LASF100
C:\Users\SOLDER~1\AppData\Local\Temp\cc6haz4O.s:30380  .debug_str:000000000002d690 .LASF101
C:\Users\SOLDER~1\AppData\Local\Temp\cc6haz4O.s:23820  .debug_str:0000000000012d6d .LASF102
C:\Users\SOLDER~1\AppData\Local\Temp\cc6haz4O.s:27818  .debug_str:0000000000022f56 .LASF103
C:\Users\SOLDER~1\AppData\Local\Temp\cc6haz4O.s:26448  .debug_str:000000000001d77c .LASF104
C:\Users\SOLDER~1\AppData\Local\Temp\cc6haz4O.s:23304  .debug_str:0000000000010c97 .LASF105
C:\Users\SOLDER~1\AppData\Local\Temp\cc6haz4O.s:20996  .debug_str:00000000000076b9 .LASF106
C:\Users\SOLDER~1\AppData\Local\Temp\cc6haz4O.s:23568  .debug_str:0000000000011d58 .LASF107
C:\Users\SOLDER~1\AppData\Local\Temp\cc6haz4O.s:22544  .debug_str:000000000000db7a .LASF108
C:\Users\SOLDER~1\AppData\Local\Temp\cc6haz4O.s:23746  .debug_str:00000000000128a4 .LASF109
C:\Users\SOLDER~1\AppData\Local\Temp\cc6haz4O.s:20432  .debug_str:00000000000051c7 .LASF110
C:\Users\SOLDER~1\AppData\Local\Temp\cc6haz4O.s:23562  .debug_str:0000000000011d02 .LASF111
C:\Users\SOLDER~1\AppData\Local\Temp\cc6haz4O.s:22538  .debug_str:000000000000db3c .LASF112
C:\Users\SOLDER~1\AppData\Local\Temp\cc6haz4O.s:24038  .debug_str:0000000000013c22 .LASF113
C:\Users\SOLDER~1\AppData\Local\Temp\cc6haz4O.s:22932  .debug_str:000000000000f492 .LASF114
C:\Users\SOLDER~1\AppData\Local\Temp\cc6haz4O.s:25522  .debug_str:0000000000019b55 .LASF115
C:\Users\SOLDER~1\AppData\Local\Temp\cc6haz4O.s:22004  .debug_str:000000000000b866 .LASF116
C:\Users\SOLDER~1\AppData\Local\Temp\cc6haz4O.s:21736  .debug_str:000000000000a6ef .LASF117
C:\Users\SOLDER~1\AppData\Local\Temp\cc6haz4O.s:23102  .debug_str:0000000000010000 .LASF118
C:\Users\SOLDER~1\AppData\Local\Temp\cc6haz4O.s:29758  .debug_str:000000000002ae6e .LASF119
C:\Users\SOLDER~1\AppData\Local\Temp\cc6haz4O.s:25052  .debug_str:0000000000017d1a .LASF120
C:\Users\SOLDER~1\AppData\Local\Temp\cc6haz4O.s:21502  .debug_str:00000000000097c0 .LASF121
C:\Users\SOLDER~1\AppData\Local\Temp\cc6haz4O.s:26236  .debug_str:000000000001c92c .LASF122
C:\Users\SOLDER~1\AppData\Local\Temp\cc6haz4O.s:30514  .debug_str:000000000002df37 .LASF123
C:\Users\SOLDER~1\AppData\Local\Temp\cc6haz4O.s:22846  .debug_str:000000000000ef13 .LASF124
C:\Users\SOLDER~1\AppData\Local\Temp\cc6haz4O.s:28460  .debug_str:0000000000025917 .LASF125
C:\Users\SOLDER~1\AppData\Local\Temp\cc6haz4O.s:22318  .debug_str:000000000000ccd7 .LASF126
C:\Users\SOLDER~1\AppData\Local\Temp\cc6haz4O.s:22414  .debug_str:000000000000d332 .LASF127
C:\Users\SOLDER~1\AppData\Local\Temp\cc6haz4O.s:20054  .debug_str:0000000000003a56 .LASF128
C:\Users\SOLDER~1\AppData\Local\Temp\cc6haz4O.s:20348  .debug_str:0000000000004ceb .LASF129
C:\Users\SOLDER~1\AppData\Local\Temp\cc6haz4O.s:29444  .debug_str:0000000000029a12 .LASF130
C:\Users\SOLDER~1\AppData\Local\Temp\cc6haz4O.s:23750  .debug_str:00000000000128bc .LASF131
C:\Users\SOLDER~1\AppData\Local\Temp\cc6haz4O.s:26640  .debug_str:000000000001e3b7 .LASF132
C:\Users\SOLDER~1\AppData\Local\Temp\cc6haz4O.s:21570  .debug_str:0000000000009c0a .LASF133
C:\Users\SOLDER~1\AppData\Local\Temp\cc6haz4O.s:28986  .debug_str:0000000000027c48 .LASF134
C:\Users\SOLDER~1\AppData\Local\Temp\cc6haz4O.s:29314  .debug_str:0000000000029192 .LASF135
C:\Users\SOLDER~1\AppData\Local\Temp\cc6haz4O.s:29116  .debug_str:00000000000284e6 .LASF136
C:\Users\SOLDER~1\AppData\Local\Temp\cc6haz4O.s:22824  .debug_str:000000000000ed98 .LASF137
C:\Users\SOLDER~1\AppData\Local\Temp\cc6haz4O.s:28374  .debug_str:0000000000025389 .LASF138
C:\Users\SOLDER~1\AppData\Local\Temp\cc6haz4O.s:20334  .debug_str:0000000000004bdd .LASF139
C:\Users\SOLDER~1\AppData\Local\Temp\cc6haz4O.s:21212  .debug_str:00000000000084d6 .LASF140
C:\Users\SOLDER~1\AppData\Local\Temp\cc6haz4O.s:30182  .debug_str:000000000002c9af .LASF141
C:\Users\SOLDER~1\AppData\Local\Temp\cc6haz4O.s:26130  .debug_str:000000000001c22b .LASF142
C:\Users\SOLDER~1\AppData\Local\Temp\cc6haz4O.s:29650  .debug_str:000000000002a78d .LASF143
GAS LISTING C:\Users\SOLDER~1\AppData\Local\Temp\cc6haz4O.s 			page 25


C:\Users\SOLDER~1\AppData\Local\Temp\cc6haz4O.s:28754  .debug_str:0000000000026d8c .LASF144
C:\Users\SOLDER~1\AppData\Local\Temp\cc6haz4O.s:26328  .debug_str:000000000001cf94 .LASF145
C:\Users\SOLDER~1\AppData\Local\Temp\cc6haz4O.s:21694  .debug_str:000000000000a42f .LASF146
C:\Users\SOLDER~1\AppData\Local\Temp\cc6haz4O.s:23974  .debug_str:0000000000013795 .LASF147
C:\Users\SOLDER~1\AppData\Local\Temp\cc6haz4O.s:20152  .debug_str:0000000000004074 .LASF148
C:\Users\SOLDER~1\AppData\Local\Temp\cc6haz4O.s:24528  .debug_str:0000000000015c42 .LASF149
C:\Users\SOLDER~1\AppData\Local\Temp\cc6haz4O.s:22374  .debug_str:000000000000d083 .LASF150
C:\Users\SOLDER~1\AppData\Local\Temp\cc6haz4O.s:20396  .debug_str:0000000000004fc5 .LASF151
C:\Users\SOLDER~1\AppData\Local\Temp\cc6haz4O.s:22968  .debug_str:000000000000f6da .LASF152
C:\Users\SOLDER~1\AppData\Local\Temp\cc6haz4O.s:25476  .debug_str:0000000000019897 .LASF153
C:\Users\SOLDER~1\AppData\Local\Temp\cc6haz4O.s:19272  .debug_str:000000000000074d .LASF154
C:\Users\SOLDER~1\AppData\Local\Temp\cc6haz4O.s:27808  .debug_str:0000000000022ebf .LASF155
C:\Users\SOLDER~1\AppData\Local\Temp\cc6haz4O.s:24028  .debug_str:0000000000013b57 .LASF156
C:\Users\SOLDER~1\AppData\Local\Temp\cc6haz4O.s:28756  .debug_str:0000000000026da4 .LASF157
C:\Users\SOLDER~1\AppData\Local\Temp\cc6haz4O.s:26536  .debug_str:000000000001dcb5 .LASF158
C:\Users\SOLDER~1\AppData\Local\Temp\cc6haz4O.s:28690  .debug_str:0000000000026901 .LASF159
C:\Users\SOLDER~1\AppData\Local\Temp\cc6haz4O.s:26558  .debug_str:000000000001de35 .LASF160
C:\Users\SOLDER~1\AppData\Local\Temp\cc6haz4O.s:26674  .debug_str:000000000001e5cb .LASF161
C:\Users\SOLDER~1\AppData\Local\Temp\cc6haz4O.s:22246  .debug_str:000000000000c7f3 .LASF162
C:\Users\SOLDER~1\AppData\Local\Temp\cc6haz4O.s:21316  .debug_str:0000000000008b72 .LASF163
C:\Users\SOLDER~1\AppData\Local\Temp\cc6haz4O.s:24170  .debug_str:000000000001454e .LASF164
C:\Users\SOLDER~1\AppData\Local\Temp\cc6haz4O.s:26174  .debug_str:000000000001c541 .LASF165
C:\Users\SOLDER~1\AppData\Local\Temp\cc6haz4O.s:27626  .debug_str:00000000000222c9 .LASF166
C:\Users\SOLDER~1\AppData\Local\Temp\cc6haz4O.s:29246  .debug_str:0000000000028d6c .LASF167
C:\Users\SOLDER~1\AppData\Local\Temp\cc6haz4O.s:28364  .debug_str:00000000000252cf .LASF168
C:\Users\SOLDER~1\AppData\Local\Temp\cc6haz4O.s:30082  .debug_str:000000000002c363 .LASF169
C:\Users\SOLDER~1\AppData\Local\Temp\cc6haz4O.s:21072  .debug_str:0000000000007b58 .LASF170
C:\Users\SOLDER~1\AppData\Local\Temp\cc6haz4O.s:29748  .debug_str:000000000002adcc .LASF171
C:\Users\SOLDER~1\AppData\Local\Temp\cc6haz4O.s:21464  .debug_str:0000000000009531 .LASF172
C:\Users\SOLDER~1\AppData\Local\Temp\cc6haz4O.s:26034  .debug_str:000000000001bbf1 .LASF173
C:\Users\SOLDER~1\AppData\Local\Temp\cc6haz4O.s:25272  .debug_str:0000000000018b27 .LASF174
C:\Users\SOLDER~1\AppData\Local\Temp\cc6haz4O.s:29176  .debug_str:00000000000288b9 .LASF175
C:\Users\SOLDER~1\AppData\Local\Temp\cc6haz4O.s:24900  .debug_str:0000000000017334 .LASF176
C:\Users\SOLDER~1\AppData\Local\Temp\cc6haz4O.s:26458  .debug_str:000000000001d810 .LASF177
C:\Users\SOLDER~1\AppData\Local\Temp\cc6haz4O.s:21688  .debug_str:000000000000a3ea .LASF178
C:\Users\SOLDER~1\AppData\Local\Temp\cc6haz4O.s:23690  .debug_str:00000000000124f4 .LASF179
C:\Users\SOLDER~1\AppData\Local\Temp\cc6haz4O.s:25600  .debug_str:000000000001a017 .LASF180
C:\Users\SOLDER~1\AppData\Local\Temp\cc6haz4O.s:20732  .debug_str:0000000000006562 .LASF181
C:\Users\SOLDER~1\AppData\Local\Temp\cc6haz4O.s:21546  .debug_str:0000000000009aa1 .LASF182
C:\Users\SOLDER~1\AppData\Local\Temp\cc6haz4O.s:20198  .debug_str:0000000000004371 .LASF183
C:\Users\SOLDER~1\AppData\Local\Temp\cc6haz4O.s:25656  .debug_str:000000000001a3a7 .LASF184
C:\Users\SOLDER~1\AppData\Local\Temp\cc6haz4O.s:24172  .debug_str:0000000000014565 .LASF185
C:\Users\SOLDER~1\AppData\Local\Temp\cc6haz4O.s:19708  .debug_str:00000000000023d4 .LASF186
C:\Users\SOLDER~1\AppData\Local\Temp\cc6haz4O.s:30378  .debug_str:000000000002d67d .LASF187
C:\Users\SOLDER~1\AppData\Local\Temp\cc6haz4O.s:19486  .debug_str:000000000000157f .LASF188
C:\Users\SOLDER~1\AppData\Local\Temp\cc6haz4O.s:24152  .debug_str:000000000001440c .LASF189
C:\Users\SOLDER~1\AppData\Local\Temp\cc6haz4O.s:24600  .debug_str:00000000000160c1 .LASF190
C:\Users\SOLDER~1\AppData\Local\Temp\cc6haz4O.s:29574  .debug_str:000000000002a26a .LASF191
C:\Users\SOLDER~1\AppData\Local\Temp\cc6haz4O.s:22574  .debug_str:000000000000dd5d .LASF192
C:\Users\SOLDER~1\AppData\Local\Temp\cc6haz4O.s:30054  .debug_str:000000000002c14c .LASF193
C:\Users\SOLDER~1\AppData\Local\Temp\cc6haz4O.s:24116  .debug_str:000000000001417d .LASF194
C:\Users\SOLDER~1\AppData\Local\Temp\cc6haz4O.s:22866  .debug_str:000000000000f078 .LASF195
C:\Users\SOLDER~1\AppData\Local\Temp\cc6haz4O.s:21884  .debug_str:000000000000b0e5 .LASF196
C:\Users\SOLDER~1\AppData\Local\Temp\cc6haz4O.s:26732  .debug_str:000000000001e9ad .LASF197
C:\Users\SOLDER~1\AppData\Local\Temp\cc6haz4O.s:29664  .debug_str:000000000002a880 .LASF198
C:\Users\SOLDER~1\AppData\Local\Temp\cc6haz4O.s:24398  .debug_str:000000000001544f .LASF199
C:\Users\SOLDER~1\AppData\Local\Temp\cc6haz4O.s:26928  .debug_str:000000000001f6af .LASF200
GAS LISTING C:\Users\SOLDER~1\AppData\Local\Temp\cc6haz4O.s 			page 26


C:\Users\SOLDER~1\AppData\Local\Temp\cc6haz4O.s:19496  .debug_str:0000000000001621 .LASF201
C:\Users\SOLDER~1\AppData\Local\Temp\cc6haz4O.s:30614  .debug_str:000000000002e55b .LASF202
C:\Users\SOLDER~1\AppData\Local\Temp\cc6haz4O.s:24374  .debug_str:00000000000152a1 .LASF203
C:\Users\SOLDER~1\AppData\Local\Temp\cc6haz4O.s:27124  .debug_str:00000000000202ec .LASF204
C:\Users\SOLDER~1\AppData\Local\Temp\cc6haz4O.s:25676  .debug_str:000000000001a4e1 .LASF205
C:\Users\SOLDER~1\AppData\Local\Temp\cc6haz4O.s:20780  .debug_str:000000000000685c .LASF206
C:\Users\SOLDER~1\AppData\Local\Temp\cc6haz4O.s:24386  .debug_str:0000000000015368 .LASF207
C:\Users\SOLDER~1\AppData\Local\Temp\cc6haz4O.s:26376  .debug_str:000000000001d27c .LASF208
C:\Users\SOLDER~1\AppData\Local\Temp\cc6haz4O.s:27364  .debug_str:000000000002122f .LASF209
C:\Users\SOLDER~1\AppData\Local\Temp\cc6haz4O.s:23192  .debug_str:00000000000105a6 .LASF210
C:\Users\SOLDER~1\AppData\Local\Temp\cc6haz4O.s:28758  .debug_str:0000000000026de0 .LASF211
C:\Users\SOLDER~1\AppData\Local\Temp\cc6haz4O.s:28554  .debug_str:0000000000025f86 .LASF212
C:\Users\SOLDER~1\AppData\Local\Temp\cc6haz4O.s:21018  .debug_str:0000000000007824 .LASF213
C:\Users\SOLDER~1\AppData\Local\Temp\cc6haz4O.s:28070  .debug_str:0000000000023fab .LASF214
C:\Users\SOLDER~1\AppData\Local\Temp\cc6haz4O.s:24688  .debug_str:000000000001665c .LASF215
C:\Users\SOLDER~1\AppData\Local\Temp\cc6haz4O.s:20986  .debug_str:0000000000007628 .LASF216
C:\Users\SOLDER~1\AppData\Local\Temp\cc6haz4O.s:21402  .debug_str:000000000000912d .LASF217
C:\Users\SOLDER~1\AppData\Local\Temp\cc6haz4O.s:30266  .debug_str:000000000002ceca .LASF218
C:\Users\SOLDER~1\AppData\Local\Temp\cc6haz4O.s:27558  .debug_str:0000000000021ebd .LASF219
C:\Users\SOLDER~1\AppData\Local\Temp\cc6haz4O.s:19806  .debug_str:0000000000002a7d .LASF220
C:\Users\SOLDER~1\AppData\Local\Temp\cc6haz4O.s:21540  .debug_str:0000000000009a1e .LASF221
C:\Users\SOLDER~1\AppData\Local\Temp\cc6haz4O.s:19210  .debug_str:00000000000002a8 .LASF222
C:\Users\SOLDER~1\AppData\Local\Temp\cc6haz4O.s:27158  .debug_str:00000000000204f2 .LASF223
C:\Users\SOLDER~1\AppData\Local\Temp\cc6haz4O.s:21450  .debug_str:0000000000009461 .LASF224
C:\Users\SOLDER~1\AppData\Local\Temp\cc6haz4O.s:20788  .debug_str:000000000000690f .LASF225
C:\Users\SOLDER~1\AppData\Local\Temp\cc6haz4O.s:26638  .debug_str:000000000001e3a0 .LASF226
C:\Users\SOLDER~1\AppData\Local\Temp\cc6haz4O.s:24792  .debug_str:0000000000016cbc .LASF227
C:\Users\SOLDER~1\AppData\Local\Temp\cc6haz4O.s:23110  .debug_str:0000000000010070 .LASF228
C:\Users\SOLDER~1\AppData\Local\Temp\cc6haz4O.s:27156  .debug_str:00000000000204d9 .LASF229
C:\Users\SOLDER~1\AppData\Local\Temp\cc6haz4O.s:28196  .debug_str:00000000000247fa .LASF230
C:\Users\SOLDER~1\AppData\Local\Temp\cc6haz4O.s:23134  .debug_str:00000000000101f1 .LASF231
C:\Users\SOLDER~1\AppData\Local\Temp\cc6haz4O.s:28982  .debug_str:0000000000027c0c .LASF232
C:\Users\SOLDER~1\AppData\Local\Temp\cc6haz4O.s:28260  .debug_str:0000000000024c48 .LASF233
C:\Users\SOLDER~1\AppData\Local\Temp\cc6haz4O.s:30030  .debug_str:000000000002bf97 .LASF234
C:\Users\SOLDER~1\AppData\Local\Temp\cc6haz4O.s:21184  .debug_str:0000000000008302 .LASF235
C:\Users\SOLDER~1\AppData\Local\Temp\cc6haz4O.s:23186  .debug_str:000000000001054d .LASF236
C:\Users\SOLDER~1\AppData\Local\Temp\cc6haz4O.s:22638  .debug_str:000000000000e1a9 .LASF237
C:\Users\SOLDER~1\AppData\Local\Temp\cc6haz4O.s:28426  .debug_str:00000000000256bb .LASF238
C:\Users\SOLDER~1\AppData\Local\Temp\cc6haz4O.s:24012  .debug_str:0000000000013a1d .LASF239
C:\Users\SOLDER~1\AppData\Local\Temp\cc6haz4O.s:27174  .debug_str:0000000000020604 .LASF240
C:\Users\SOLDER~1\AppData\Local\Temp\cc6haz4O.s:25458  .debug_str:0000000000019750 .LASF241
C:\Users\SOLDER~1\AppData\Local\Temp\cc6haz4O.s:24998  .debug_str:0000000000017992 .LASF242
C:\Users\SOLDER~1\AppData\Local\Temp\cc6haz4O.s:26472  .debug_str:000000000001d8db .LASF243
C:\Users\SOLDER~1\AppData\Local\Temp\cc6haz4O.s:25840  .debug_str:000000000001b00b .LASF244
C:\Users\SOLDER~1\AppData\Local\Temp\cc6haz4O.s:30346  .debug_str:000000000002d464 .LASF245
C:\Users\SOLDER~1\AppData\Local\Temp\cc6haz4O.s:26404  .debug_str:000000000001d49a .LASF246
C:\Users\SOLDER~1\AppData\Local\Temp\cc6haz4O.s:29466  .debug_str:0000000000029b47 .LASF247
C:\Users\SOLDER~1\AppData\Local\Temp\cc6haz4O.s:22662  .debug_str:000000000000e37f .LASF248
C:\Users\SOLDER~1\AppData\Local\Temp\cc6haz4O.s:28846  .debug_str:00000000000273a3 .LASF249
C:\Users\SOLDER~1\AppData\Local\Temp\cc6haz4O.s:22514  .debug_str:000000000000d9cd .LASF250
C:\Users\SOLDER~1\AppData\Local\Temp\cc6haz4O.s:25746  .debug_str:000000000001a999 .LASF251
C:\Users\SOLDER~1\AppData\Local\Temp\cc6haz4O.s:23222  .debug_str:000000000001077f .LASF252
C:\Users\SOLDER~1\AppData\Local\Temp\cc6haz4O.s:19418  .debug_str:00000000000010f6 .LASF253
C:\Users\SOLDER~1\AppData\Local\Temp\cc6haz4O.s:21960  .debug_str:000000000000b598 .LASF254
C:\Users\SOLDER~1\AppData\Local\Temp\cc6haz4O.s:19358  .debug_str:0000000000000d4e .LASF255
C:\Users\SOLDER~1\AppData\Local\Temp\cc6haz4O.s:22076  .debug_str:000000000000bcaf .LASF256
C:\Users\SOLDER~1\AppData\Local\Temp\cc6haz4O.s:19674  .debug_str:0000000000002167 .LASF257
GAS LISTING C:\Users\SOLDER~1\AppData\Local\Temp\cc6haz4O.s 			page 27


C:\Users\SOLDER~1\AppData\Local\Temp\cc6haz4O.s:30554  .debug_str:000000000002e1a4 .LASF258
C:\Users\SOLDER~1\AppData\Local\Temp\cc6haz4O.s:26352  .debug_str:000000000001d106 .LASF259
C:\Users\SOLDER~1\AppData\Local\Temp\cc6haz4O.s:25154  .debug_str:00000000000183ea .LASF260
C:\Users\SOLDER~1\AppData\Local\Temp\cc6haz4O.s:25960  .debug_str:000000000001b76c .LASF261
C:\Users\SOLDER~1\AppData\Local\Temp\cc6haz4O.s:22690  .debug_str:000000000000e552 .LASF262
C:\Users\SOLDER~1\AppData\Local\Temp\cc6haz4O.s:22014  .debug_str:000000000000b904 .LASF263
C:\Users\SOLDER~1\AppData\Local\Temp\cc6haz4O.s:29842  .debug_str:000000000002b3d2 .LASF264
C:\Users\SOLDER~1\AppData\Local\Temp\cc6haz4O.s:22334  .debug_str:000000000000cdf3 .LASF265
C:\Users\SOLDER~1\AppData\Local\Temp\cc6haz4O.s:23320  .debug_str:0000000000010d8d .LASF266
C:\Users\SOLDER~1\AppData\Local\Temp\cc6haz4O.s:25184  .debug_str:00000000000185c6 .LASF267
C:\Users\SOLDER~1\AppData\Local\Temp\cc6haz4O.s:29096  .debug_str:00000000000283c5 .LASF268
C:\Users\SOLDER~1\AppData\Local\Temp\cc6haz4O.s:22154  .debug_str:000000000000c1b1 .LASF269
C:\Users\SOLDER~1\AppData\Local\Temp\cc6haz4O.s:20878  .debug_str:0000000000006ec2 .LASF270
C:\Users\SOLDER~1\AppData\Local\Temp\cc6haz4O.s:21052  .debug_str:00000000000079f9 .LASF271
C:\Users\SOLDER~1\AppData\Local\Temp\cc6haz4O.s:22386  .debug_str:000000000000d156 .LASF272
C:\Users\SOLDER~1\AppData\Local\Temp\cc6haz4O.s:22224  .debug_str:000000000000c67b .LASF273
C:\Users\SOLDER~1\AppData\Local\Temp\cc6haz4O.s:19508  .debug_str:00000000000016e7 .LASF274
C:\Users\SOLDER~1\AppData\Local\Temp\cc6haz4O.s:20870  .debug_str:0000000000006e5a .LASF275
C:\Users\SOLDER~1\AppData\Local\Temp\cc6haz4O.s:29776  .debug_str:000000000002af74 .LASF276
C:\Users\SOLDER~1\AppData\Local\Temp\cc6haz4O.s:27708  .debug_str:00000000000227f7 .LASF277
C:\Users\SOLDER~1\AppData\Local\Temp\cc6haz4O.s:28652  .debug_str:000000000002668b .LASF278
C:\Users\SOLDER~1\AppData\Local\Temp\cc6haz4O.s:20830  .debug_str:0000000000006bc9 .LASF279
C:\Users\SOLDER~1\AppData\Local\Temp\cc6haz4O.s:20608  .debug_str:0000000000005d31 .LASF280
C:\Users\SOLDER~1\AppData\Local\Temp\cc6haz4O.s:20492  .debug_str:0000000000005579 .LASF281
C:\Users\SOLDER~1\AppData\Local\Temp\cc6haz4O.s:25214  .debug_str:00000000000187ac .LASF282
C:\Users\SOLDER~1\AppData\Local\Temp\cc6haz4O.s:28622  .debug_str:000000000002647f .LASF283
C:\Users\SOLDER~1\AppData\Local\Temp\cc6haz4O.s:28890  .debug_str:0000000000027693 .LASF284
C:\Users\SOLDER~1\AppData\Local\Temp\cc6haz4O.s:29754  .debug_str:000000000002ae2e .LASF285
C:\Users\SOLDER~1\AppData\Local\Temp\cc6haz4O.s:26416  .debug_str:000000000001d563 .LASF286
C:\Users\SOLDER~1\AppData\Local\Temp\cc6haz4O.s:30544  .debug_str:000000000002e103 .LASF287
C:\Users\SOLDER~1\AppData\Local\Temp\cc6haz4O.s:20582  .debug_str:0000000000005b73 .LASF288
C:\Users\SOLDER~1\AppData\Local\Temp\cc6haz4O.s:24402  .debug_str:0000000000015484 .LASF289
C:\Users\SOLDER~1\AppData\Local\Temp\cc6haz4O.s:23272  .debug_str:0000000000010ac8 .LASF290
C:\Users\SOLDER~1\AppData\Local\Temp\cc6haz4O.s:30786  .debug_str:000000000002f06b .LASF291
C:\Users\SOLDER~1\AppData\Local\Temp\cc6haz4O.s:29592  .debug_str:000000000002a3c5 .LASF292
C:\Users\SOLDER~1\AppData\Local\Temp\cc6haz4O.s:20418  .debug_str:000000000000510e .LASF293
C:\Users\SOLDER~1\AppData\Local\Temp\cc6haz4O.s:19212  .debug_str:00000000000002e9 .LASF294
C:\Users\SOLDER~1\AppData\Local\Temp\cc6haz4O.s:24452  .debug_str:00000000000157db .LASF295
C:\Users\SOLDER~1\AppData\Local\Temp\cc6haz4O.s:25290  .debug_str:0000000000018c75 .LASF296
C:\Users\SOLDER~1\AppData\Local\Temp\cc6haz4O.s:22682  .debug_str:000000000000e4cc .LASF297
C:\Users\SOLDER~1\AppData\Local\Temp\cc6haz4O.s:23214  .debug_str:00000000000106fd .LASF298
C:\Users\SOLDER~1\AppData\Local\Temp\cc6haz4O.s:26000  .debug_str:000000000001b9ce .LASF299
C:\Users\SOLDER~1\AppData\Local\Temp\cc6haz4O.s:24522  .debug_str:0000000000015c03 .LASF300
C:\Users\SOLDER~1\AppData\Local\Temp\cc6haz4O.s:23954  .debug_str:000000000001362f .LASF301
C:\Users\SOLDER~1\AppData\Local\Temp\cc6haz4O.s:19744  .debug_str:000000000000264e .LASF302
C:\Users\SOLDER~1\AppData\Local\Temp\cc6haz4O.s:22338  .debug_str:000000000000ce35 .LASF303
C:\Users\SOLDER~1\AppData\Local\Temp\cc6haz4O.s:27788  .debug_str:0000000000022d7a .LASF304
C:\Users\SOLDER~1\AppData\Local\Temp\cc6haz4O.s:23234  .debug_str:000000000001081e .LASF305
C:\Users\SOLDER~1\AppData\Local\Temp\cc6haz4O.s:28642  .debug_str:00000000000265fa .LASF306
C:\Users\SOLDER~1\AppData\Local\Temp\cc6haz4O.s:28234  .debug_str:0000000000024a7e .LASF307
C:\Users\SOLDER~1\AppData\Local\Temp\cc6haz4O.s:26430  .debug_str:000000000001d659 .LASF308
C:\Users\SOLDER~1\AppData\Local\Temp\cc6haz4O.s:20204  .debug_str:00000000000043d5 .LASF309
C:\Users\SOLDER~1\AppData\Local\Temp\cc6haz4O.s:26792  .debug_str:000000000001eda4 .LASF310
C:\Users\SOLDER~1\AppData\Local\Temp\cc6haz4O.s:22458  .debug_str:000000000000d628 .LASF311
C:\Users\SOLDER~1\AppData\Local\Temp\cc6haz4O.s:23776  .debug_str:0000000000012a4e .LASF312
C:\Users\SOLDER~1\AppData\Local\Temp\cc6haz4O.s:21612  .debug_str:0000000000009ed3 .LASF313
C:\Users\SOLDER~1\AppData\Local\Temp\cc6haz4O.s:24216  .debug_str:0000000000014871 .LASF314
GAS LISTING C:\Users\SOLDER~1\AppData\Local\Temp\cc6haz4O.s 			page 28


C:\Users\SOLDER~1\AppData\Local\Temp\cc6haz4O.s:21048  .debug_str:00000000000079ba .LASF315
C:\Users\SOLDER~1\AppData\Local\Temp\cc6haz4O.s:26502  .debug_str:000000000001daa3 .LASF316
C:\Users\SOLDER~1\AppData\Local\Temp\cc6haz4O.s:28978  .debug_str:0000000000027bdd .LASF317
C:\Users\SOLDER~1\AppData\Local\Temp\cc6haz4O.s:28238  .debug_str:0000000000024ac5 .LASF319
C:\Users\SOLDER~1\AppData\Local\Temp\cc6haz4O.s:23074  .debug_str:000000000000fe34 .LASF320
C:\Users\SOLDER~1\AppData\Local\Temp\cc6haz4O.s:24372  .debug_str:000000000001527c .LASF321
C:\Users\SOLDER~1\AppData\Local\Temp\cc6haz4O.s:26832  .debug_str:000000000001f02c .LASF322
C:\Users\SOLDER~1\AppData\Local\Temp\cc6haz4O.s:25650  .debug_str:000000000001a347 .LASF323
C:\Users\SOLDER~1\AppData\Local\Temp\cc6haz4O.s:22352  .debug_str:000000000000cf20 .LASF324
C:\Users\SOLDER~1\AppData\Local\Temp\cc6haz4O.s:20578  .debug_str:0000000000005b3a .LASF325
C:\Users\SOLDER~1\AppData\Local\Temp\cc6haz4O.s:19296  .debug_str:00000000000008d0 .LASF326
C:\Users\SOLDER~1\AppData\Local\Temp\cc6haz4O.s:29596  .debug_str:000000000002a40a .LASF327
C:\Users\SOLDER~1\AppData\Local\Temp\cc6haz4O.s:22428  .debug_str:000000000000d41b .LASF328
C:\Users\SOLDER~1\AppData\Local\Temp\cc6haz4O.s:30470  .debug_str:000000000002dc3d .LASF329
C:\Users\SOLDER~1\AppData\Local\Temp\cc6haz4O.s:20702  .debug_str:0000000000006365 .LASF330
C:\Users\SOLDER~1\AppData\Local\Temp\cc6haz4O.s:20252  .debug_str:00000000000046a7 .LASF331
C:\Users\SOLDER~1\AppData\Local\Temp\cc6haz4O.s:19224  .debug_str:00000000000003aa .LASF332
C:\Users\SOLDER~1\AppData\Local\Temp\cc6haz4O.s:24622  .debug_str:0000000000016226 .LASF333
C:\Users\SOLDER~1\AppData\Local\Temp\cc6haz4O.s:27266  .debug_str:0000000000020c19 .LASF334
C:\Users\SOLDER~1\AppData\Local\Temp\cc6haz4O.s:25532  .debug_str:0000000000019be5 .LASF335
C:\Users\SOLDER~1\AppData\Local\Temp\cc6haz4O.s:25390  .debug_str:00000000000192d5 .LASF339
C:\Users\SOLDER~1\AppData\Local\Temp\cc6haz4O.s:25936  .debug_str:000000000001b5d2 .LASF340
C:\Users\SOLDER~1\AppData\Local\Temp\cc6haz4O.s:21910  .debug_str:000000000000b26b .LASF341
C:\Users\SOLDER~1\AppData\Local\Temp\cc6haz4O.s:25160  .debug_str:0000000000018450 .LASF342
C:\Users\SOLDER~1\AppData\Local\Temp\cc6haz4O.s:25376  .debug_str:00000000000191fb .LASF343
C:\Users\SOLDER~1\AppData\Local\Temp\cc6haz4O.s:19790  .debug_str:0000000000002933 .LASF344
C:\Users\SOLDER~1\AppData\Local\Temp\cc6haz4O.s:21954  .debug_str:000000000000b526 .LASF345
C:\Users\SOLDER~1\AppData\Local\Temp\cc6haz4O.s:20114  .debug_str:0000000000003e24 .LASF346
C:\Users\SOLDER~1\AppData\Local\Temp\cc6haz4O.s:30126  .debug_str:000000000002c632 .LASF347
C:\Users\SOLDER~1\AppData\Local\Temp\cc6haz4O.s:24712  .debug_str:00000000000167b1 .LASF348
C:\Users\SOLDER~1\AppData\Local\Temp\cc6haz4O.s:27194  .debug_str:0000000000020764 .LASF349
C:\Users\SOLDER~1\AppData\Local\Temp\cc6haz4O.s:21438  .debug_str:00000000000093b9 .LASF350
C:\Users\SOLDER~1\AppData\Local\Temp\cc6haz4O.s:25224  .debug_str:0000000000018835 .LASF351
C:\Users\SOLDER~1\AppData\Local\Temp\cc6haz4O.s:30460  .debug_str:000000000002dba6 .LASF352
C:\Users\SOLDER~1\AppData\Local\Temp\cc6haz4O.s:21886  .debug_str:000000000000b0fe .LASF353
C:\Users\SOLDER~1\AppData\Local\Temp\cc6haz4O.s:22984  .debug_str:000000000000f7ee .LASF354
C:\Users\SOLDER~1\AppData\Local\Temp\cc6haz4O.s:26444  .debug_str:000000000001d745 .LASF355
C:\Users\SOLDER~1\AppData\Local\Temp\cc6haz4O.s:28988  .debug_str:0000000000027c70 .LASF356
C:\Users\SOLDER~1\AppData\Local\Temp\cc6haz4O.s:24768  .debug_str:0000000000016b3d .LASF357
C:\Users\SOLDER~1\AppData\Local\Temp\cc6haz4O.s:27832  .debug_str:000000000002302e .LASF358
C:\Users\SOLDER~1\AppData\Local\Temp\cc6haz4O.s:23832  .debug_str:0000000000012e47 .LASF359
C:\Users\SOLDER~1\AppData\Local\Temp\cc6haz4O.s:24198  .debug_str:0000000000014732 .LASF360
C:\Users\SOLDER~1\AppData\Local\Temp\cc6haz4O.s:27946  .debug_str:00000000000237d8 .LASF361
C:\Users\SOLDER~1\AppData\Local\Temp\cc6haz4O.s:20942  .debug_str:000000000000733f .LASF362
C:\Users\SOLDER~1\AppData\Local\Temp\cc6haz4O.s:23188  .debug_str:0000000000010567 .LASF363
C:\Users\SOLDER~1\AppData\Local\Temp\cc6haz4O.s:20462  .debug_str:00000000000053ac .LASF364
C:\Users\SOLDER~1\AppData\Local\Temp\cc6haz4O.s:25310  .debug_str:0000000000018dc3 .LASF365
C:\Users\SOLDER~1\AppData\Local\Temp\cc6haz4O.s:21036  .debug_str:00000000000078ff .LASF366
C:\Users\SOLDER~1\AppData\Local\Temp\cc6haz4O.s:21972  .debug_str:000000000000b688 .LASF367
C:\Users\SOLDER~1\AppData\Local\Temp\cc6haz4O.s:19184  .debug_str:000000000000011f .LASF368
C:\Users\SOLDER~1\AppData\Local\Temp\cc6haz4O.s:27142  .debug_str:000000000002040e .LASF369
C:\Users\SOLDER~1\AppData\Local\Temp\cc6haz4O.s:22670  .debug_str:000000000000e412 .LASF370
C:\Users\SOLDER~1\AppData\Local\Temp\cc6haz4O.s:28142  .debug_str:000000000002445f .LASF371
C:\Users\SOLDER~1\AppData\Local\Temp\cc6haz4O.s:27072  .debug_str:000000000001ffba .LASF372
C:\Users\SOLDER~1\AppData\Local\Temp\cc6haz4O.s:23432  .debug_str:0000000000011495 .LASF373
C:\Users\SOLDER~1\AppData\Local\Temp\cc6haz4O.s:30606  .debug_str:000000000002e4de .LASF374
C:\Users\SOLDER~1\AppData\Local\Temp\cc6haz4O.s:30542  .debug_str:000000000002e0fd .LASF375
GAS LISTING C:\Users\SOLDER~1\AppData\Local\Temp\cc6haz4O.s 			page 29


C:\Users\SOLDER~1\AppData\Local\Temp\cc6haz4O.s:21220  .debug_str:0000000000008557 .LASF376
C:\Users\SOLDER~1\AppData\Local\Temp\cc6haz4O.s:29628  .debug_str:000000000002a610 .LASF377
C:\Users\SOLDER~1\AppData\Local\Temp\cc6haz4O.s:24606  .debug_str:0000000000016130 .LASF378
C:\Users\SOLDER~1\AppData\Local\Temp\cc6haz4O.s:28406  .debug_str:0000000000025581 .LASF379
C:\Users\SOLDER~1\AppData\Local\Temp\cc6haz4O.s:29428  .debug_str:0000000000029922 .LASF380
C:\Users\SOLDER~1\AppData\Local\Temp\cc6haz4O.s:27868  .debug_str:000000000002329b .LASF381
C:\Users\SOLDER~1\AppData\Local\Temp\cc6haz4O.s:24810  .debug_str:0000000000016db7 .LASF382
C:\Users\SOLDER~1\AppData\Local\Temp\cc6haz4O.s:29452  .debug_str:0000000000029a81 .LASF383
C:\Users\SOLDER~1\AppData\Local\Temp\cc6haz4O.s:26162  .debug_str:000000000001c485 .LASF384
C:\Users\SOLDER~1\AppData\Local\Temp\cc6haz4O.s:23532  .debug_str:0000000000011b2e .LASF385
C:\Users\SOLDER~1\AppData\Local\Temp\cc6haz4O.s:27996  .debug_str:0000000000023ae1 .LASF386
C:\Users\SOLDER~1\AppData\Local\Temp\cc6haz4O.s:26984  .debug_str:000000000001fa59 .LASF387
C:\Users\SOLDER~1\AppData\Local\Temp\cc6haz4O.s:19538  .debug_str:00000000000018c3 .LASF388
C:\Users\SOLDER~1\AppData\Local\Temp\cc6haz4O.s:20222  .debug_str:00000000000044e5 .LASF389
C:\Users\SOLDER~1\AppData\Local\Temp\cc6haz4O.s:20634  .debug_str:0000000000005ee6 .LASF390
C:\Users\SOLDER~1\AppData\Local\Temp\cc6haz4O.s:21812  .debug_str:000000000000ac4d .LASF391
C:\Users\SOLDER~1\AppData\Local\Temp\cc6haz4O.s:21290  .debug_str:00000000000089c3 .LASF392
C:\Users\SOLDER~1\AppData\Local\Temp\cc6haz4O.s:26682  .debug_str:000000000001e649 .LASF393
C:\Users\SOLDER~1\AppData\Local\Temp\cc6haz4O.s:27334  .debug_str:0000000000021039 .LASF394
C:\Users\SOLDER~1\AppData\Local\Temp\cc6haz4O.s:27468  .debug_str:0000000000021901 .LASF395
C:\Users\SOLDER~1\AppData\Local\Temp\cc6haz4O.s:21446  .debug_str:0000000000009432 .LASF396
C:\Users\SOLDER~1\AppData\Local\Temp\cc6haz4O.s:21026  .debug_str:000000000000787e .LASF397
C:\Users\SOLDER~1\AppData\Local\Temp\cc6haz4O.s:26498  .debug_str:000000000001da7f .LASF398
C:\Users\SOLDER~1\AppData\Local\Temp\cc6haz4O.s:29144  .debug_str:00000000000286cf .LASF399
C:\Users\SOLDER~1\AppData\Local\Temp\cc6haz4O.s:23748  .debug_str:00000000000128b2 .LASF400
C:\Users\SOLDER~1\AppData\Local\Temp\cc6haz4O.s:24506  .debug_str:0000000000015b03 .LASF401
C:\Users\SOLDER~1\AppData\Local\Temp\cc6haz4O.s:22320  .debug_str:000000000000cd02 .LASF402
C:\Users\SOLDER~1\AppData\Local\Temp\cc6haz4O.s:26192  .debug_str:000000000001c655 .LASF403
C:\Users\SOLDER~1\AppData\Local\Temp\cc6haz4O.s:24720  .debug_str:000000000001681e .LASF404
C:\Users\SOLDER~1\AppData\Local\Temp\cc6haz4O.s:25174  .debug_str:0000000000018533 .LASF405
C:\Users\SOLDER~1\AppData\Local\Temp\cc6haz4O.s:21344  .debug_str:0000000000008d37 .LASF406
C:\Users\SOLDER~1\AppData\Local\Temp\cc6haz4O.s:30078  .debug_str:000000000002c32f .LASF407
C:\Users\SOLDER~1\AppData\Local\Temp\cc6haz4O.s:24060  .debug_str:0000000000013dbd .LASF408
C:\Users\SOLDER~1\AppData\Local\Temp\cc6haz4O.s:26528  .debug_str:000000000001dc40 .LASF409
C:\Users\SOLDER~1\AppData\Local\Temp\cc6haz4O.s:22900  .debug_str:000000000000f294 .LASF410
C:\Users\SOLDER~1\AppData\Local\Temp\cc6haz4O.s:27232  .debug_str:00000000000209ea .LASF411
C:\Users\SOLDER~1\AppData\Local\Temp\cc6haz4O.s:29208  .debug_str:0000000000028aff .LASF412
C:\Users\SOLDER~1\AppData\Local\Temp\cc6haz4O.s:24390  .debug_str:00000000000153ca .LASF413
C:\Users\SOLDER~1\AppData\Local\Temp\cc6haz4O.s:23590  .debug_str:0000000000011ec8 .LASF414
C:\Users\SOLDER~1\AppData\Local\Temp\cc6haz4O.s:25594  .debug_str:0000000000019fd5 .LASF415
C:\Users\SOLDER~1\AppData\Local\Temp\cc6haz4O.s:30640  .debug_str:000000000002e719 .LASF416
C:\Users\SOLDER~1\AppData\Local\Temp\cc6haz4O.s:30778  .debug_str:000000000002eff1 .LASF417
C:\Users\SOLDER~1\AppData\Local\Temp\cc6haz4O.s:21098  .debug_str:0000000000007d1a .LASF418
C:\Users\SOLDER~1\AppData\Local\Temp\cc6haz4O.s:22176  .debug_str:000000000000c33e .LASF419
C:\Users\SOLDER~1\AppData\Local\Temp\cc6haz4O.s:24034  .debug_str:0000000000013beb .LASF420
C:\Users\SOLDER~1\AppData\Local\Temp\cc6haz4O.s:27286  .debug_str:0000000000020d4e .LASF421
C:\Users\SOLDER~1\AppData\Local\Temp\cc6haz4O.s:27972  .debug_str:0000000000023968 .LASF422
C:\Users\SOLDER~1\AppData\Local\Temp\cc6haz4O.s:19658  .debug_str:000000000000205f .LASF423
C:\Users\SOLDER~1\AppData\Local\Temp\cc6haz4O.s:23994  .debug_str:00000000000138e8 .LASF424
C:\Users\SOLDER~1\AppData\Local\Temp\cc6haz4O.s:27222  .debug_str:0000000000020942 .LASF425
C:\Users\SOLDER~1\AppData\Local\Temp\cc6haz4O.s:23580  .debug_str:0000000000011e44 .LASF426
C:\Users\SOLDER~1\AppData\Local\Temp\cc6haz4O.s:30760  .debug_str:000000000002eed1 .LASF427
C:\Users\SOLDER~1\AppData\Local\Temp\cc6haz4O.s:26204  .debug_str:000000000001c70a .LASF428
C:\Users\SOLDER~1\AppData\Local\Temp\cc6haz4O.s:20476  .debug_str:000000000000549b .LASF429
C:\Users\SOLDER~1\AppData\Local\Temp\cc6haz4O.s:28348  .debug_str:00000000000251e4 .LASF430
C:\Users\SOLDER~1\AppData\Local\Temp\cc6haz4O.s:23926  .debug_str:0000000000013455 .LASF431
C:\Users\SOLDER~1\AppData\Local\Temp\cc6haz4O.s:28262  .debug_str:0000000000024c66 .LASF432
GAS LISTING C:\Users\SOLDER~1\AppData\Local\Temp\cc6haz4O.s 			page 30


C:\Users\SOLDER~1\AppData\Local\Temp\cc6haz4O.s:20386  .debug_str:0000000000004f2f .LASF433
C:\Users\SOLDER~1\AppData\Local\Temp\cc6haz4O.s:22872  .debug_str:000000000000f0c6 .LASF434
C:\Users\SOLDER~1\AppData\Local\Temp\cc6haz4O.s:27108  .debug_str:0000000000020206 .LASF435
C:\Users\SOLDER~1\AppData\Local\Temp\cc6haz4O.s:19342  .debug_str:0000000000000c3f .LASF436
C:\Users\SOLDER~1\AppData\Local\Temp\cc6haz4O.s:22362  .debug_str:000000000000cfce .LASF437
C:\Users\SOLDER~1\AppData\Local\Temp\cc6haz4O.s:24344  .debug_str:00000000000150c7 .LASF438
C:\Users\SOLDER~1\AppData\Local\Temp\cc6haz4O.s:20464  .debug_str:00000000000053c1 .LASF439
C:\Users\SOLDER~1\AppData\Local\Temp\cc6haz4O.s:23652  .debug_str:00000000000122a2 .LASF440
C:\Users\SOLDER~1\AppData\Local\Temp\cc6haz4O.s:29396  .debug_str:000000000002970d .LASF441
C:\Users\SOLDER~1\AppData\Local\Temp\cc6haz4O.s:22000  .debug_str:000000000000b827 .LASF442
C:\Users\SOLDER~1\AppData\Local\Temp\cc6haz4O.s:26252  .debug_str:000000000001ca44 .LASF443
C:\Users\SOLDER~1\AppData\Local\Temp\cc6haz4O.s:29950  .debug_str:000000000002ba6e .LASF444
C:\Users\SOLDER~1\AppData\Local\Temp\cc6haz4O.s:23788  .debug_str:0000000000012b28 .LASF445
C:\Users\SOLDER~1\AppData\Local\Temp\cc6haz4O.s:23202  .debug_str:0000000000010654 .LASF446
C:\Users\SOLDER~1\AppData\Local\Temp\cc6haz4O.s:27004  .debug_str:000000000001fb8e .LASF447
C:\Users\SOLDER~1\AppData\Local\Temp\cc6haz4O.s:21342  .debug_str:0000000000008d1d .LASF448
C:\Users\SOLDER~1\AppData\Local\Temp\cc6haz4O.s:26600  .debug_str:000000000001e13d .LASF449
C:\Users\SOLDER~1\AppData\Local\Temp\cc6haz4O.s:22864  .debug_str:000000000000f04d .LASF450
C:\Users\SOLDER~1\AppData\Local\Temp\cc6haz4O.s:29366  .debug_str:0000000000029500 .LASF451
C:\Users\SOLDER~1\AppData\Local\Temp\cc6haz4O.s:23506  .debug_str:000000000001196f .LASF452
C:\Users\SOLDER~1\AppData\Local\Temp\cc6haz4O.s:19910  .debug_str:0000000000003101 .LASF453
C:\Users\SOLDER~1\AppData\Local\Temp\cc6haz4O.s:19492  .debug_str:00000000000015de .LASF454
C:\Users\SOLDER~1\AppData\Local\Temp\cc6haz4O.s:27716  .debug_str:0000000000022878 .LASF455
C:\Users\SOLDER~1\AppData\Local\Temp\cc6haz4O.s:28620  .debug_str:0000000000026454 .LASF456
C:\Users\SOLDER~1\AppData\Local\Temp\cc6haz4O.s:22382  .debug_str:000000000000d107 .LASF457
C:\Users\SOLDER~1\AppData\Local\Temp\cc6haz4O.s:22710  .debug_str:000000000000e674 .LASF458
C:\Users\SOLDER~1\AppData\Local\Temp\cc6haz4O.s:29268  .debug_str:0000000000028eb6 .LASF459
C:\Users\SOLDER~1\AppData\Local\Temp\cc6haz4O.s:30194  .debug_str:000000000002ca5d .LASF460
C:\Users\SOLDER~1\AppData\Local\Temp\cc6haz4O.s:19478  .debug_str:00000000000014e9 .LASF461
C:\Users\SOLDER~1\AppData\Local\Temp\cc6haz4O.s:21982  .debug_str:000000000000b711 .LASF462
C:\Users\SOLDER~1\AppData\Local\Temp\cc6haz4O.s:28578  .debug_str:0000000000026150 .LASF463
C:\Users\SOLDER~1\AppData\Local\Temp\cc6haz4O.s:25934  .debug_str:000000000001b5ac .LASF464
C:\Users\SOLDER~1\AppData\Local\Temp\cc6haz4O.s:29120  .debug_str:0000000000028524 .LASF465
C:\Users\SOLDER~1\AppData\Local\Temp\cc6haz4O.s:25104  .debug_str:00000000000180ac .LASF466
C:\Users\SOLDER~1\AppData\Local\Temp\cc6haz4O.s:27514  .debug_str:0000000000021bf7 .LASF467
C:\Users\SOLDER~1\AppData\Local\Temp\cc6haz4O.s:26154  .debug_str:000000000001c3f5 .LASF468
C:\Users\SOLDER~1\AppData\Local\Temp\cc6haz4O.s:19582  .debug_str:0000000000001b5d .LASF469
C:\Users\SOLDER~1\AppData\Local\Temp\cc6haz4O.s:24530  .debug_str:0000000000015c56 .LASF470
C:\Users\SOLDER~1\AppData\Local\Temp\cc6haz4O.s:27090  .debug_str:00000000000200cd .LASF471
C:\Users\SOLDER~1\AppData\Local\Temp\cc6haz4O.s:30450  .debug_str:000000000002db02 .LASF472
C:\Users\SOLDER~1\AppData\Local\Temp\cc6haz4O.s:30694  .debug_str:000000000002eacf .LASF473
C:\Users\SOLDER~1\AppData\Local\Temp\cc6haz4O.s:30546  .debug_str:000000000002e125 .LASF474
C:\Users\SOLDER~1\AppData\Local\Temp\cc6haz4O.s:28612  .debug_str:00000000000263af .LASF475
C:\Users\SOLDER~1\AppData\Local\Temp\cc6haz4O.s:21632  .debug_str:000000000000a02c .LASF476
C:\Users\SOLDER~1\AppData\Local\Temp\cc6haz4O.s:25714  .debug_str:000000000001a75a .LASF477
C:\Users\SOLDER~1\AppData\Local\Temp\cc6haz4O.s:24784  .debug_str:0000000000016c47 .LASF478
C:\Users\SOLDER~1\AppData\Local\Temp\cc6haz4O.s:28722  .debug_str:0000000000026b4a .LASF479
C:\Users\SOLDER~1\AppData\Local\Temp\cc6haz4O.s:30788  .debug_str:000000000002f089 .LASF480
C:\Users\SOLDER~1\AppData\Local\Temp\cc6haz4O.s:27526  .debug_str:0000000000021cc7 .LASF481
C:\Users\SOLDER~1\AppData\Local\Temp\cc6haz4O.s:28818  .debug_str:00000000000271e6 .LASF482
C:\Users\SOLDER~1\AppData\Local\Temp\cc6haz4O.s:22132  .debug_str:000000000000c05e .LASF483
C:\Users\SOLDER~1\AppData\Local\Temp\cc6haz4O.s:25874  .debug_str:000000000001b1fd .LASF484
C:\Users\SOLDER~1\AppData\Local\Temp\cc6haz4O.s:25786  .debug_str:000000000001ac24 .LASF485
C:\Users\SOLDER~1\AppData\Local\Temp\cc6haz4O.s:28940  .debug_str:00000000000279a3 .LASF486
C:\Users\SOLDER~1\AppData\Local\Temp\cc6haz4O.s:26350  .debug_str:000000000001d0ee .LASF487
C:\Users\SOLDER~1\AppData\Local\Temp\cc6haz4O.s:23126  .debug_str:000000000001017a .LASF488
C:\Users\SOLDER~1\AppData\Local\Temp\cc6haz4O.s:25266  .debug_str:0000000000018ac7 .LASF489
GAS LISTING C:\Users\SOLDER~1\AppData\Local\Temp\cc6haz4O.s 			page 31


C:\Users\SOLDER~1\AppData\Local\Temp\cc6haz4O.s:20410  .debug_str:0000000000005087 .LASF490
C:\Users\SOLDER~1\AppData\Local\Temp\cc6haz4O.s:23482  .debug_str:00000000000117f1 .LASF491
C:\Users\SOLDER~1\AppData\Local\Temp\cc6haz4O.s:22444  .debug_str:000000000000d537 .LASF492
C:\Users\SOLDER~1\AppData\Local\Temp\cc6haz4O.s:27828  .debug_str:0000000000022ff7 .LASF494
C:\Users\SOLDER~1\AppData\Local\Temp\cc6haz4O.s:21514  .debug_str:0000000000009884 .LASF495
C:\Users\SOLDER~1\AppData\Local\Temp\cc6haz4O.s:25006  .debug_str:0000000000017a17 .LASF496
C:\Users\SOLDER~1\AppData\Local\Temp\cc6haz4O.s:26606  .debug_str:000000000001e196 .LASF497
C:\Users\SOLDER~1\AppData\Local\Temp\cc6haz4O.s:25938  .debug_str:000000000001b5ea .LASF498
C:\Users\SOLDER~1\AppData\Local\Temp\cc6haz4O.s:26040  .debug_str:000000000001bc62 .LASF499
C:\Users\SOLDER~1\AppData\Local\Temp\cc6haz4O.s:22714  .debug_str:000000000000e6b5 .LASF500
C:\Users\SOLDER~1\AppData\Local\Temp\cc6haz4O.s:20306  .debug_str:0000000000004a4f .LASF501
C:\Users\SOLDER~1\AppData\Local\Temp\cc6haz4O.s:23634  .debug_str:0000000000012188 .LASF502
C:\Users\SOLDER~1\AppData\Local\Temp\cc6haz4O.s:20440  .debug_str:0000000000005238 .LASF503
C:\Users\SOLDER~1\AppData\Local\Temp\cc6haz4O.s:24490  .debug_str:00000000000159e9 .LASF504
C:\Users\SOLDER~1\AppData\Local\Temp\cc6haz4O.s:19194  .debug_str:00000000000001a4 .LASF505
C:\Users\SOLDER~1\AppData\Local\Temp\cc6haz4O.s:22526  .debug_str:000000000000da8e .LASF506
C:\Users\SOLDER~1\AppData\Local\Temp\cc6haz4O.s:30510  .debug_str:000000000002ded8 .LASF507
C:\Users\SOLDER~1\AppData\Local\Temp\cc6haz4O.s:29434  .debug_str:000000000002996e .LASF508
C:\Users\SOLDER~1\AppData\Local\Temp\cc6haz4O.s:24020  .debug_str:0000000000013ac5 .LASF509
C:\Users\SOLDER~1\AppData\Local\Temp\cc6haz4O.s:24958  .debug_str:000000000001772a .LASF510
C:\Users\SOLDER~1\AppData\Local\Temp\cc6haz4O.s:24330  .debug_str:0000000000014ff3 .LASF511
C:\Users\SOLDER~1\AppData\Local\Temp\cc6haz4O.s:25408  .debug_str:00000000000193ec .LASF512
C:\Users\SOLDER~1\AppData\Local\Temp\cc6haz4O.s:27260  .debug_str:0000000000020bae .LASF513
C:\Users\SOLDER~1\AppData\Local\Temp\cc6haz4O.s:26272  .debug_str:000000000001cba2 .LASF514
C:\Users\SOLDER~1\AppData\Local\Temp\cc6haz4O.s:21896  .debug_str:000000000000b196 .LASF515
C:\Users\SOLDER~1\AppData\Local\Temp\cc6haz4O.s:30050  .debug_str:000000000002c104 .LASF516
C:\Users\SOLDER~1\AppData\Local\Temp\cc6haz4O.s:26518  .debug_str:000000000001db96 .LASF517
C:\Users\SOLDER~1\AppData\Local\Temp\cc6haz4O.s:29918  .debug_str:000000000002b894 .LASF518
C:\Users\SOLDER~1\AppData\Local\Temp\cc6haz4O.s:28506  .debug_str:0000000000025c42 .LASF519
C:\Users\SOLDER~1\AppData\Local\Temp\cc6haz4O.s:25680  .debug_str:000000000001a542 .LASF520
C:\Users\SOLDER~1\AppData\Local\Temp\cc6haz4O.s:20726  .debug_str:00000000000064eb .LASF521
C:\Users\SOLDER~1\AppData\Local\Temp\cc6haz4O.s:27872  .debug_str:00000000000232cc .LASF522
C:\Users\SOLDER~1\AppData\Local\Temp\cc6haz4O.s:21674  .debug_str:000000000000a2e9 .LASF523
C:\Users\SOLDER~1\AppData\Local\Temp\cc6haz4O.s:19690  .debug_str:00000000000022a8 .LASF524
C:\Users\SOLDER~1\AppData\Local\Temp\cc6haz4O.s:26570  .debug_str:000000000001df31 .LASF525
C:\Users\SOLDER~1\AppData\Local\Temp\cc6haz4O.s:22584  .debug_str:000000000000de18 .LASF526
C:\Users\SOLDER~1\AppData\Local\Temp\cc6haz4O.s:24348  .debug_str:0000000000015103 .LASF527
C:\Users\SOLDER~1\AppData\Local\Temp\cc6haz4O.s:22622  .debug_str:000000000000e098 .LASF528
C:\Users\SOLDER~1\AppData\Local\Temp\cc6haz4O.s:21400  .debug_str:0000000000009109 .LASF529
C:\Users\SOLDER~1\AppData\Local\Temp\cc6haz4O.s:21040  .debug_str:0000000000007938 .LASF530
C:\Users\SOLDER~1\AppData\Local\Temp\cc6haz4O.s:22212  .debug_str:000000000000c5c6 .LASF531
C:\Users\SOLDER~1\AppData\Local\Temp\cc6haz4O.s:28868  .debug_str:000000000002751b .LASF532
C:\Users\SOLDER~1\AppData\Local\Temp\cc6haz4O.s:30656  .debug_str:000000000002e810 .LASF533
C:\Users\SOLDER~1\AppData\Local\Temp\cc6haz4O.s:23658  .debug_str:0000000000012312 .LASF534
C:\Users\SOLDER~1\AppData\Local\Temp\cc6haz4O.s:30042  .debug_str:000000000002c076 .LASF535
C:\Users\SOLDER~1\AppData\Local\Temp\cc6haz4O.s:26156  .debug_str:000000000001c41e .LASF536
C:\Users\SOLDER~1\AppData\Local\Temp\cc6haz4O.s:22534  .debug_str:000000000000db04 .LASF537
C:\Users\SOLDER~1\AppData\Local\Temp\cc6haz4O.s:25932  .debug_str:000000000001b586 .LASF538
C:\Users\SOLDER~1\AppData\Local\Temp\cc6haz4O.s:20296  .debug_str:0000000000004998 .LASF539
C:\Users\SOLDER~1\AppData\Local\Temp\cc6haz4O.s:27926  .debug_str:0000000000023680 .LASF540
C:\Users\SOLDER~1\AppData\Local\Temp\cc6haz4O.s:25978  .debug_str:000000000001b87f .LASF541
C:\Users\SOLDER~1\AppData\Local\Temp\cc6haz4O.s:30132  .debug_str:000000000002c67b .LASF542
C:\Users\SOLDER~1\AppData\Local\Temp\cc6haz4O.s:22030  .debug_str:000000000000b9c3 .LASF543
C:\Users\SOLDER~1\AppData\Local\Temp\cc6haz4O.s:28842  .debug_str:0000000000027362 .LASF544
C:\Users\SOLDER~1\AppData\Local\Temp\cc6haz4O.s:28066  .debug_str:0000000000023f5b .LASF545
C:\Users\SOLDER~1\AppData\Local\Temp\cc6haz4O.s:26834  .debug_str:000000000001f04e .LASF546
C:\Users\SOLDER~1\AppData\Local\Temp\cc6haz4O.s:29064  .debug_str:0000000000028192 .LASF547
GAS LISTING C:\Users\SOLDER~1\AppData\Local\Temp\cc6haz4O.s 			page 32


C:\Users\SOLDER~1\AppData\Local\Temp\cc6haz4O.s:27040  .debug_str:000000000001fdb8 .LASF548
C:\Users\SOLDER~1\AppData\Local\Temp\cc6haz4O.s:25156  .debug_str:0000000000018405 .LASF549
C:\Users\SOLDER~1\AppData\Local\Temp\cc6haz4O.s:23846  .debug_str:0000000000012f18 .LASF550
C:\Users\SOLDER~1\AppData\Local\Temp\cc6haz4O.s:27474  .debug_str:000000000002194b .LASF551
C:\Users\SOLDER~1\AppData\Local\Temp\cc6haz4O.s:24086  .debug_str:0000000000013f7b .LASF552
C:\Users\SOLDER~1\AppData\Local\Temp\cc6haz4O.s:26708  .debug_str:000000000001e818 .LASF553
C:\Users\SOLDER~1\AppData\Local\Temp\cc6haz4O.s:24632  .debug_str:00000000000162ce .LASF554
C:\Users\SOLDER~1\AppData\Local\Temp\cc6haz4O.s:19518  .debug_str:0000000000001784 .LASF555
C:\Users\SOLDER~1\AppData\Local\Temp\cc6haz4O.s:23378  .debug_str:0000000000011142 .LASF556
C:\Users\SOLDER~1\AppData\Local\Temp\cc6haz4O.s:20684  .debug_str:0000000000006232 .LASF557
C:\Users\SOLDER~1\AppData\Local\Temp\cc6haz4O.s:23274  .debug_str:0000000000010ae5 .LASF558
C:\Users\SOLDER~1\AppData\Local\Temp\cc6haz4O.s:23138  .debug_str:0000000000010212 .LASF559
C:\Users\SOLDER~1\AppData\Local\Temp\cc6haz4O.s:19608  .debug_str:0000000000001d41 .LASF560
C:\Users\SOLDER~1\AppData\Local\Temp\cc6haz4O.s:28378  .debug_str:00000000000253cb .LASF561
C:\Users\SOLDER~1\AppData\Local\Temp\cc6haz4O.s:30330  .debug_str:000000000002d36a .LASF562
C:\Users\SOLDER~1\AppData\Local\Temp\cc6haz4O.s:30566  .debug_str:000000000002e24f .LASF563
C:\Users\SOLDER~1\AppData\Local\Temp\cc6haz4O.s:22606  .debug_str:000000000000df7f .LASF564
C:\Users\SOLDER~1\AppData\Local\Temp\cc6haz4O.s:19422  .debug_str:0000000000001154 .LASF565
C:\Users\SOLDER~1\AppData\Local\Temp\cc6haz4O.s:27978  .debug_str:00000000000239c8 .LASF566
C:\Users\SOLDER~1\AppData\Local\Temp\cc6haz4O.s:25860  .debug_str:000000000001b13b .LASF567
C:\Users\SOLDER~1\AppData\Local\Temp\cc6haz4O.s:26094  .debug_str:000000000001bfe0 .LASF568
C:\Users\SOLDER~1\AppData\Local\Temp\cc6haz4O.s:19638  .debug_str:0000000000001f0c .LASF569
C:\Users\SOLDER~1\AppData\Local\Temp\cc6haz4O.s:24434  .debug_str:00000000000156a9 .LASF570
C:\Users\SOLDER~1\AppData\Local\Temp\cc6haz4O.s:28164  .debug_str:00000000000245b9 .LASF571
C:\Users\SOLDER~1\AppData\Local\Temp\cc6haz4O.s:22926  .debug_str:000000000000f43c .LASF572
C:\Users\SOLDER~1\AppData\Local\Temp\cc6haz4O.s:24884  .debug_str:0000000000017225 .LASF573
C:\Users\SOLDER~1\AppData\Local\Temp\cc6haz4O.s:22744  .debug_str:000000000000e88e .LASF574
C:\Users\SOLDER~1\AppData\Local\Temp\cc6haz4O.s:24772  .debug_str:0000000000016b73 .LASF575
C:\Users\SOLDER~1\AppData\Local\Temp\cc6haz4O.s:23876  .debug_str:0000000000013101 .LASF576
C:\Users\SOLDER~1\AppData\Local\Temp\cc6haz4O.s:23834  .debug_str:0000000000012e58 .LASF577
C:\Users\SOLDER~1\AppData\Local\Temp\cc6haz4O.s:30404  .debug_str:000000000002d7fd .LASF578
C:\Users\SOLDER~1\AppData\Local\Temp\cc6haz4O.s:25332  .debug_str:0000000000018f40 .LASF579
C:\Users\SOLDER~1\AppData\Local\Temp\cc6haz4O.s:28580  .debug_str:0000000000026174 .LASF580
C:\Users\SOLDER~1\AppData\Local\Temp\cc6haz4O.s:20292  .debug_str:000000000000495a .LASF581
C:\Users\SOLDER~1\AppData\Local\Temp\cc6haz4O.s:21782  .debug_str:000000000000aa1f .LASF582
C:\Users\SOLDER~1\AppData\Local\Temp\cc6haz4O.s:26854  .debug_str:000000000001f1ac .LASF583
C:\Users\SOLDER~1\AppData\Local\Temp\cc6haz4O.s:30170  .debug_str:000000000002c8e9 .LASF584
C:\Users\SOLDER~1\AppData\Local\Temp\cc6haz4O.s:21846  .debug_str:000000000000ae4e .LASF585
C:\Users\SOLDER~1\AppData\Local\Temp\cc6haz4O.s:29700  .debug_str:000000000002aa67 .LASF586
C:\Users\SOLDER~1\AppData\Local\Temp\cc6haz4O.s:28590  .debug_str:0000000000026228 .LASF587
C:\Users\SOLDER~1\AppData\Local\Temp\cc6haz4O.s:23770  .debug_str:00000000000129f6 .LASF588
C:\Users\SOLDER~1\AppData\Local\Temp\cc6haz4O.s:25712  .debug_str:000000000001a739 .LASF589
C:\Users\SOLDER~1\AppData\Local\Temp\cc6haz4O.s:27862  .debug_str:0000000000023235 .LASF590
C:\Users\SOLDER~1\AppData\Local\Temp\cc6haz4O.s:24806  .debug_str:0000000000016d77 .LASF591
C:\Users\SOLDER~1\AppData\Local\Temp\cc6haz4O.s:29322  .debug_str:000000000002920d .LASF592
C:\Users\SOLDER~1\AppData\Local\Temp\cc6haz4O.s:26414  .debug_str:000000000001d543 .LASF593
C:\Users\SOLDER~1\AppData\Local\Temp\cc6haz4O.s:25102  .debug_str:0000000000018072 .LASF594
C:\Users\SOLDER~1\AppData\Local\Temp\cc6haz4O.s:30500  .debug_str:000000000002de18 .LASF595
C:\Users\SOLDER~1\AppData\Local\Temp\cc6haz4O.s:21858  .debug_str:000000000000af1e .LASF596
C:\Users\SOLDER~1\AppData\Local\Temp\cc6haz4O.s:29928  .debug_str:000000000002b904 .LASF597
C:\Users\SOLDER~1\AppData\Local\Temp\cc6haz4O.s:23810  .debug_str:0000000000012c96 .LASF598
C:\Users\SOLDER~1\AppData\Local\Temp\cc6haz4O.s:29336  .debug_str:0000000000029308 .LASF599
C:\Users\SOLDER~1\AppData\Local\Temp\cc6haz4O.s:23250  .debug_str:000000000001092e .LASF600
C:\Users\SOLDER~1\AppData\Local\Temp\cc6haz4O.s:28638  .debug_str:0000000000026598 .LASF601
C:\Users\SOLDER~1\AppData\Local\Temp\cc6haz4O.s:28750  .debug_str:0000000000026d44 .LASF602
C:\Users\SOLDER~1\AppData\Local\Temp\cc6haz4O.s:22610  .debug_str:000000000000dfc4 .LASF603
C:\Users\SOLDER~1\AppData\Local\Temp\cc6haz4O.s:22396  .debug_str:000000000000d20c .LASF604
GAS LISTING C:\Users\SOLDER~1\AppData\Local\Temp\cc6haz4O.s 			page 33


C:\Users\SOLDER~1\AppData\Local\Temp\cc6haz4O.s:26494  .debug_str:000000000001da42 .LASF605
C:\Users\SOLDER~1\AppData\Local\Temp\cc6haz4O.s:28412  .debug_str:00000000000255dc .LASF606
C:\Users\SOLDER~1\AppData\Local\Temp\cc6haz4O.s:24890  .debug_str:0000000000017293 .LASF607
C:\Users\SOLDER~1\AppData\Local\Temp\cc6haz4O.s:27620  .debug_str:0000000000022270 .LASF608
C:\Users\SOLDER~1\AppData\Local\Temp\cc6haz4O.s:30014  .debug_str:000000000002be7e .LASF609
C:\Users\SOLDER~1\AppData\Local\Temp\cc6haz4O.s:21488  .debug_str:00000000000096e8 .LASF610
C:\Users\SOLDER~1\AppData\Local\Temp\cc6haz4O.s:23548  .debug_str:0000000000011c12 .LASF611
C:\Users\SOLDER~1\AppData\Local\Temp\cc6haz4O.s:23822  .debug_str:0000000000012d87 .LASF612
C:\Users\SOLDER~1\AppData\Local\Temp\cc6haz4O.s:26488  .debug_str:000000000001d9ed .LASF613
C:\Users\SOLDER~1\AppData\Local\Temp\cc6haz4O.s:20926  .debug_str:000000000000724f .LASF614
C:\Users\SOLDER~1\AppData\Local\Temp\cc6haz4O.s:19654  .debug_str:0000000000002039 .LASF615
C:\Users\SOLDER~1\AppData\Local\Temp\cc6haz4O.s:24962  .debug_str:0000000000017773 .LASF616
C:\Users\SOLDER~1\AppData\Local\Temp\cc6haz4O.s:20526  .debug_str:0000000000005785 .LASF617
C:\Users\SOLDER~1\AppData\Local\Temp\cc6haz4O.s:28958  .debug_str:0000000000027ad0 .LASF618
C:\Users\SOLDER~1\AppData\Local\Temp\cc6haz4O.s:19940  .debug_str:00000000000032f7 .LASF619
C:\Users\SOLDER~1\AppData\Local\Temp\cc6haz4O.s:26614  .debug_str:000000000001e213 .LASF620
C:\Users\SOLDER~1\AppData\Local\Temp\cc6haz4O.s:20036  .debug_str:0000000000003929 .LASF621
C:\Users\SOLDER~1\AppData\Local\Temp\cc6haz4O.s:24496  .debug_str:0000000000015a5a .LASF622
C:\Users\SOLDER~1\AppData\Local\Temp\cc6haz4O.s:25582  .debug_str:0000000000019eff .LASF623
C:\Users\SOLDER~1\AppData\Local\Temp\cc6haz4O.s:23424  .debug_str:0000000000011417 .LASF624
C:\Users\SOLDER~1\AppData\Local\Temp\cc6haz4O.s:26166  .debug_str:000000000001c4ae .LASF625
C:\Users\SOLDER~1\AppData\Local\Temp\cc6haz4O.s:20892  .debug_str:0000000000006fd9 .LASF626
C:\Users\SOLDER~1\AppData\Local\Temp\cc6haz4O.s:20850  .debug_str:0000000000006d13 .LASF627
C:\Users\SOLDER~1\AppData\Local\Temp\cc6haz4O.s:25824  .debug_str:000000000001af0c .LASF628
C:\Users\SOLDER~1\AppData\Local\Temp\cc6haz4O.s:22614  .debug_str:000000000000e00e .LASF629
C:\Users\SOLDER~1\AppData\Local\Temp\cc6haz4O.s:27112  .debug_str:0000000000020245 .LASF630
C:\Users\SOLDER~1\AppData\Local\Temp\cc6haz4O.s:26088  .debug_str:000000000001bf87 .LASF631
C:\Users\SOLDER~1\AppData\Local\Temp\cc6haz4O.s:27100  .debug_str:0000000000020180 .LASF632
C:\Users\SOLDER~1\AppData\Local\Temp\cc6haz4O.s:25548  .debug_str:0000000000019cf0 .LASF633
C:\Users\SOLDER~1\AppData\Local\Temp\cc6haz4O.s:29156  .debug_str:0000000000028785 .LASF634
C:\Users\SOLDER~1\AppData\Local\Temp\cc6haz4O.s:24296  .debug_str:0000000000014dc5 .LASF635
C:\Users\SOLDER~1\AppData\Local\Temp\cc6haz4O.s:26054  .debug_str:000000000001bd45 .LASF636
C:\Users\SOLDER~1\AppData\Local\Temp\cc6haz4O.s:28212  .debug_str:00000000000248fe .LASF637
C:\Users\SOLDER~1\AppData\Local\Temp\cc6haz4O.s:19620  .debug_str:0000000000001df0 .LASF638
C:\Users\SOLDER~1\AppData\Local\Temp\cc6haz4O.s:30022  .debug_str:000000000002bf13 .LASF639
C:\Users\SOLDER~1\AppData\Local\Temp\cc6haz4O.s:23878  .debug_str:000000000001311f .LASF640
C:\Users\SOLDER~1\AppData\Local\Temp\cc6haz4O.s:24912  .debug_str:0000000000017439 .LASF641
C:\Users\SOLDER~1\AppData\Local\Temp\cc6haz4O.s:24818  .debug_str:0000000000016e23 .LASF642
C:\Users\SOLDER~1\AppData\Local\Temp\cc6haz4O.s:26184  .debug_str:000000000001c5db .LASF643
C:\Users\SOLDER~1\AppData\Local\Temp\cc6haz4O.s:20754  .debug_str:00000000000066c9 .LASF644
C:\Users\SOLDER~1\AppData\Local\Temp\cc6haz4O.s:28158  .debug_str:000000000002455b .LASF645
C:\Users\SOLDER~1\AppData\Local\Temp\cc6haz4O.s:24872  .debug_str:000000000001715e .LASF646
C:\Users\SOLDER~1\AppData\Local\Temp\cc6haz4O.s:22752  .debug_str:000000000000e911 .LASF647
C:\Users\SOLDER~1\AppData\Local\Temp\cc6haz4O.s:24290  .debug_str:0000000000014d4b .LASF648
C:\Users\SOLDER~1\AppData\Local\Temp\cc6haz4O.s:22834  .debug_str:000000000000ee58 .LASF649
C:\Users\SOLDER~1\AppData\Local\Temp\cc6haz4O.s:29500  .debug_str:0000000000029d90 .LASF650
C:\Users\SOLDER~1\AppData\Local\Temp\cc6haz4O.s:25720  .debug_str:000000000001a7b9 .LASF651
C:\Users\SOLDER~1\AppData\Local\Temp\cc6haz4O.s:23704  .debug_str:00000000000125c6 .LASF652
C:\Users\SOLDER~1\AppData\Local\Temp\cc6haz4O.s:25320  .debug_str:0000000000018e71 .LASF653
C:\Users\SOLDER~1\AppData\Local\Temp\cc6haz4O.s:24610  .debug_str:0000000000016159 .LASF654
C:\Users\SOLDER~1\AppData\Local\Temp\cc6haz4O.s:30520  .debug_str:000000000002df7c .LASF655
C:\Users\SOLDER~1\AppData\Local\Temp\cc6haz4O.s:25366  .debug_str:0000000000019174 .LASF656
C:\Users\SOLDER~1\AppData\Local\Temp\cc6haz4O.s:29782  .debug_str:000000000002afcb .LASF657
C:\Users\SOLDER~1\AppData\Local\Temp\cc6haz4O.s:29154  .debug_str:0000000000028764 .LASF658
C:\Users\SOLDER~1\AppData\Local\Temp\cc6haz4O.s:27928  .debug_str:00000000000236a5 .LASF659
C:\Users\SOLDER~1\AppData\Local\Temp\cc6haz4O.s:27958  .debug_str:0000000000023895 .LASF660
C:\Users\SOLDER~1\AppData\Local\Temp\cc6haz4O.s:30176  .debug_str:000000000002c960 .LASF661
GAS LISTING C:\Users\SOLDER~1\AppData\Local\Temp\cc6haz4O.s 			page 34


C:\Users\SOLDER~1\AppData\Local\Temp\cc6haz4O.s:22624  .debug_str:000000000000e0bc .LASF662
C:\Users\SOLDER~1\AppData\Local\Temp\cc6haz4O.s:21928  .debug_str:000000000000b37b .LASF663
C:\Users\SOLDER~1\AppData\Local\Temp\cc6haz4O.s:20388  .debug_str:0000000000004f4b .LASF664
C:\Users\SOLDER~1\AppData\Local\Temp\cc6haz4O.s:26636  .debug_str:000000000001e38c .LASF665
C:\Users\SOLDER~1\AppData\Local\Temp\cc6haz4O.s:26908  .debug_str:000000000001f560 .LASF666
C:\Users\SOLDER~1\AppData\Local\Temp\cc6haz4O.s:26924  .debug_str:000000000001f67e .LASF667
C:\Users\SOLDER~1\AppData\Local\Temp\cc6haz4O.s:20812  .debug_str:0000000000006ac8 .LASF668
C:\Users\SOLDER~1\AppData\Local\Temp\cc6haz4O.s:27994  .debug_str:0000000000023acd .LASF669
C:\Users\SOLDER~1\AppData\Local\Temp\cc6haz4O.s:29020  .debug_str:0000000000027eac .LASF670
C:\Users\SOLDER~1\AppData\Local\Temp\cc6haz4O.s:30488  .debug_str:000000000002dd68 .LASF671
C:\Users\SOLDER~1\AppData\Local\Temp\cc6haz4O.s:29774  .debug_str:000000000002af51 .LASF672
C:\Users\SOLDER~1\AppData\Local\Temp\cc6haz4O.s:26024  .debug_str:000000000001bb54 .LASF673
C:\Users\SOLDER~1\AppData\Local\Temp\cc6haz4O.s:24576  .debug_str:0000000000015f29 .LASF674
C:\Users\SOLDER~1\AppData\Local\Temp\cc6haz4O.s:20070  .debug_str:0000000000003b59 .LASF675
C:\Users\SOLDER~1\AppData\Local\Temp\cc6haz4O.s:23284  .debug_str:0000000000010b72 .LASF676
C:\Users\SOLDER~1\AppData\Local\Temp\cc6haz4O.s:25726  .debug_str:000000000001a829 .LASF677
C:\Users\SOLDER~1\AppData\Local\Temp\cc6haz4O.s:28822  .debug_str:0000000000027218 .LASF678
C:\Users\SOLDER~1\AppData\Local\Temp\cc6haz4O.s:30100  .debug_str:000000000002c489 .LASF679
C:\Users\SOLDER~1\AppData\Local\Temp\cc6haz4O.s:25038  .debug_str:0000000000017c30 .LASF680
C:\Users\SOLDER~1\AppData\Local\Temp\cc6haz4O.s:26560  .debug_str:000000000001de73 .LASF681
C:\Users\SOLDER~1\AppData\Local\Temp\cc6haz4O.s:23824  .debug_str:0000000000012d9f .LASF682
C:\Users\SOLDER~1\AppData\Local\Temp\cc6haz4O.s:24752  .debug_str:0000000000016a2b .LASF683
C:\Users\SOLDER~1\AppData\Local\Temp\cc6haz4O.s:21288  .debug_str:00000000000089a0 .LASF684
C:\Users\SOLDER~1\AppData\Local\Temp\cc6haz4O.s:26334  .debug_str:000000000001cfe9 .LASF685
C:\Users\SOLDER~1\AppData\Local\Temp\cc6haz4O.s:26870  .debug_str:000000000001f2cb .LASF686
C:\Users\SOLDER~1\AppData\Local\Temp\cc6haz4O.s:19584  .debug_str:0000000000001b81 .LASF687
C:\Users\SOLDER~1\AppData\Local\Temp\cc6haz4O.s:26648  .debug_str:000000000001e43e .LASF688
C:\Users\SOLDER~1\AppData\Local\Temp\cc6haz4O.s:29986  .debug_str:000000000002bcb6 .LASF689
C:\Users\SOLDER~1\AppData\Local\Temp\cc6haz4O.s:19198  .debug_str:00000000000001d6 .LASF690
C:\Users\SOLDER~1\AppData\Local\Temp\cc6haz4O.s:27136  .debug_str:00000000000203b0 .LASF691
C:\Users\SOLDER~1\AppData\Local\Temp\cc6haz4O.s:27086  .debug_str:0000000000020087 .LASF692
C:\Users\SOLDER~1\AppData\Local\Temp\cc6haz4O.s:21386  .debug_str:0000000000009016 .LASF693
C:\Users\SOLDER~1\AppData\Local\Temp\cc6haz4O.s:21952  .debug_str:000000000000b503 .LASF694
C:\Users\SOLDER~1\AppData\Local\Temp\cc6haz4O.s:21368  .debug_str:0000000000008ee5 .LASF695
C:\Users\SOLDER~1\AppData\Local\Temp\cc6haz4O.s:26344  .debug_str:000000000001d097 .LASF696
C:\Users\SOLDER~1\AppData\Local\Temp\cc6haz4O.s:29010  .debug_str:0000000000027de9 .LASF697
C:\Users\SOLDER~1\AppData\Local\Temp\cc6haz4O.s:29796  .debug_str:000000000002b094 .LASF698
C:\Users\SOLDER~1\AppData\Local\Temp\cc6haz4O.s:22768  .debug_str:000000000000ea42 .LASF699
C:\Users\SOLDER~1\AppData\Local\Temp\cc6haz4O.s:30490  .debug_str:000000000002dd7e .LASF700
C:\Users\SOLDER~1\AppData\Local\Temp\cc6haz4O.s:25580  .debug_str:0000000000019eec .LASF701
C:\Users\SOLDER~1\AppData\Local\Temp\cc6haz4O.s:20004  .debug_str:0000000000003709 .LASF702
C:\Users\SOLDER~1\AppData\Local\Temp\cc6haz4O.s:28068  .debug_str:0000000000023f88 .LASF703
C:\Users\SOLDER~1\AppData\Local\Temp\cc6haz4O.s:26058  .debug_str:000000000001bd70 .LASF704
C:\Users\SOLDER~1\AppData\Local\Temp\cc6haz4O.s:29062  .debug_str:000000000002816f .LASF705
C:\Users\SOLDER~1\AppData\Local\Temp\cc6haz4O.s:24788  .debug_str:0000000000016c8b .LASF706
C:\Users\SOLDER~1\AppData\Local\Temp\cc6haz4O.s:22086  .debug_str:000000000000bd8e .LASF707
C:\Users\SOLDER~1\AppData\Local\Temp\cc6haz4O.s:27664  .debug_str:00000000000224fd .LASF708
C:\Users\SOLDER~1\AppData\Local\Temp\cc6haz4O.s:27130  .debug_str:0000000000020347 .LASF709
C:\Users\SOLDER~1\AppData\Local\Temp\cc6haz4O.s:20022  .debug_str:0000000000003827 .LASF710
C:\Users\SOLDER~1\AppData\Local\Temp\cc6haz4O.s:28548  .debug_str:0000000000025f28 .LASF711
C:\Users\SOLDER~1\AppData\Local\Temp\cc6haz4O.s:27854  .debug_str:00000000000231a1 .LASF712
C:\Users\SOLDER~1\AppData\Local\Temp\cc6haz4O.s:21146  .debug_str:0000000000008051 .LASF713
C:\Users\SOLDER~1\AppData\Local\Temp\cc6haz4O.s:28900  .debug_str:0000000000027731 .LASF714
C:\Users\SOLDER~1\AppData\Local\Temp\cc6haz4O.s:26852  .debug_str:000000000001f189 .LASF715
C:\Users\SOLDER~1\AppData\Local\Temp\cc6haz4O.s:28008  .debug_str:0000000000023b82 .LASF716
C:\Users\SOLDER~1\AppData\Local\Temp\cc6haz4O.s:23308  .debug_str:0000000000010cce .LASF717
C:\Users\SOLDER~1\AppData\Local\Temp\cc6haz4O.s:30530  .debug_str:000000000002e029 .LASF718
GAS LISTING C:\Users\SOLDER~1\AppData\Local\Temp\cc6haz4O.s 			page 35


C:\Users\SOLDER~1\AppData\Local\Temp\cc6haz4O.s:25756  .debug_str:000000000001aa47 .LASF719
C:\Users\SOLDER~1\AppData\Local\Temp\cc6haz4O.s:23740  .debug_str:000000000001282e .LASF720
C:\Users\SOLDER~1\AppData\Local\Temp\cc6haz4O.s:27412  .debug_str:0000000000021569 .LASF721
C:\Users\SOLDER~1\AppData\Local\Temp\cc6haz4O.s:25550  .debug_str:0000000000019d12 .LASF722
C:\Users\SOLDER~1\AppData\Local\Temp\cc6haz4O.s:27456  .debug_str:000000000002183a .LASF723
C:\Users\SOLDER~1\AppData\Local\Temp\cc6haz4O.s:24676  .debug_str:0000000000016578 .LASF724
C:\Users\SOLDER~1\AppData\Local\Temp\cc6haz4O.s:23914  .debug_str:0000000000013380 .LASF725
C:\Users\SOLDER~1\AppData\Local\Temp\cc6haz4O.s:29670  .debug_str:000000000002a8dc .LASF726
C:\Users\SOLDER~1\AppData\Local\Temp\cc6haz4O.s:24098  .debug_str:000000000001404e .LASF727
C:\Users\SOLDER~1\AppData\Local\Temp\cc6haz4O.s:19336  .debug_str:0000000000000bd0 .LASF728
C:\Users\SOLDER~1\AppData\Local\Temp\cc6haz4O.s:22522  .debug_str:000000000000da46 .LASF729
C:\Users\SOLDER~1\AppData\Local\Temp\cc6haz4O.s:25402  .debug_str:0000000000019381 .LASF730
C:\Users\SOLDER~1\AppData\Local\Temp\cc6haz4O.s:26004  .debug_str:000000000001ba07 .LASF731
C:\Users\SOLDER~1\AppData\Local\Temp\cc6haz4O.s:20976  .debug_str:0000000000007577 .LASF732
C:\Users\SOLDER~1\AppData\Local\Temp\cc6haz4O.s:21594  .debug_str:0000000000009d8f .LASF733
C:\Users\SOLDER~1\AppData\Local\Temp\cc6haz4O.s:27648  .debug_str:00000000000223eb .LASF734
C:\Users\SOLDER~1\AppData\Local\Temp\cc6haz4O.s:27582  .debug_str:000000000002203b .LASF735
C:\Users\SOLDER~1\AppData\Local\Temp\cc6haz4O.s:25232  .debug_str:00000000000188b0 .LASF736
C:\Users\SOLDER~1\AppData\Local\Temp\cc6haz4O.s:22080  .debug_str:000000000000bd19 .LASF737
C:\Users\SOLDER~1\AppData\Local\Temp\cc6haz4O.s:30660  .debug_str:000000000002e852 .LASF738
C:\Users\SOLDER~1\AppData\Local\Temp\cc6haz4O.s:22306  .debug_str:000000000000cc0c .LASF739
C:\Users\SOLDER~1\AppData\Local\Temp\cc6haz4O.s:19692  .debug_str:00000000000022ce .LASF740
C:\Users\SOLDER~1\AppData\Local\Temp\cc6haz4O.s:24406  .debug_str:00000000000154c8 .LASF741
C:\Users\SOLDER~1\AppData\Local\Temp\cc6haz4O.s:22068  .debug_str:000000000000bc43 .LASF742
C:\Users\SOLDER~1\AppData\Local\Temp\cc6haz4O.s:28934  .debug_str:0000000000027940 .LASF743
C:\Users\SOLDER~1\AppData\Local\Temp\cc6haz4O.s:25568  .debug_str:0000000000019e43 .LASF744
C:\Users\SOLDER~1\AppData\Local\Temp\cc6haz4O.s:23678  .debug_str:000000000001242d .LASF745
C:\Users\SOLDER~1\AppData\Local\Temp\cc6haz4O.s:27000  .debug_str:000000000001fb51 .LASF746
C:\Users\SOLDER~1\AppData\Local\Temp\cc6haz4O.s:27576  .debug_str:0000000000021fd5 .LASF747
C:\Users\SOLDER~1\AppData\Local\Temp\cc6haz4O.s:28512  .debug_str:0000000000025ca5 .LASF748
C:\Users\SOLDER~1\AppData\Local\Temp\cc6haz4O.s:27944  .debug_str:00000000000237b6 .LASF749
C:\Users\SOLDER~1\AppData\Local\Temp\cc6haz4O.s:30784  .debug_str:000000000002f049 .LASF750
C:\Users\SOLDER~1\AppData\Local\Temp\cc6haz4O.s:20372  .debug_str:0000000000004e66 .LASF751
C:\Users\SOLDER~1\AppData\Local\Temp\cc6haz4O.s:21764  .debug_str:000000000000a919 .LASF752
C:\Users\SOLDER~1\AppData\Local\Temp\cc6haz4O.s:21976  .debug_str:000000000000b6b3 .LASF753
C:\Users\SOLDER~1\AppData\Local\Temp\cc6haz4O.s:29760  .debug_str:000000000002ae87 .LASF754
C:\Users\SOLDER~1\AppData\Local\Temp\cc6haz4O.s:27660  .debug_str:00000000000224c2 .LASF755
C:\Users\SOLDER~1\AppData\Local\Temp\cc6haz4O.s:19842  .debug_str:0000000000002c99 .LASF756
C:\Users\SOLDER~1\AppData\Local\Temp\cc6haz4O.s:28964  .debug_str:0000000000027b21 .LASF757
C:\Users\SOLDER~1\AppData\Local\Temp\cc6haz4O.s:19724  .debug_str:00000000000024f5 .LASF758
C:\Users\SOLDER~1\AppData\Local\Temp\cc6haz4O.s:26584  .debug_str:000000000001e02e .LASF759
C:\Users\SOLDER~1\AppData\Local\Temp\cc6haz4O.s:24612  .debug_str:000000000001617e .LASF760
C:\Users\SOLDER~1\AppData\Local\Temp\cc6haz4O.s:19234  .debug_str:0000000000000454 .LASF761
C:\Users\SOLDER~1\AppData\Local\Temp\cc6haz4O.s:19420  .debug_str:0000000000001134 .LASF762
C:\Users\SOLDER~1\AppData\Local\Temp\cc6haz4O.s:28046  .debug_str:0000000000023e12 .LASF763
C:\Users\SOLDER~1\AppData\Local\Temp\cc6haz4O.s:28352  .debug_str:0000000000025222 .LASF764
C:\Users\SOLDER~1\AppData\Local\Temp\cc6haz4O.s:20638  .debug_str:0000000000005f16 .LASF765
C:\Users\SOLDER~1\AppData\Local\Temp\cc6haz4O.s:21458  .debug_str:00000000000094ef .LASF766
C:\Users\SOLDER~1\AppData\Local\Temp\cc6haz4O.s:29504  .debug_str:0000000000029dd1 .LASF767
C:\Users\SOLDER~1\AppData\Local\Temp\cc6haz4O.s:19364  .debug_str:0000000000000dd0 .LASF768
C:\Users\SOLDER~1\AppData\Local\Temp\cc6haz4O.s:25448  .debug_str:000000000001969d .LASF769
C:\Users\SOLDER~1\AppData\Local\Temp\cc6haz4O.s:26208  .debug_str:000000000001c747 .LASF770
C:\Users\SOLDER~1\AppData\Local\Temp\cc6haz4O.s:20932  .debug_str:00000000000072a6 .LASF771
C:\Users\SOLDER~1\AppData\Local\Temp\cc6haz4O.s:20612  .debug_str:0000000000005d60 .LASF772
C:\Users\SOLDER~1\AppData\Local\Temp\cc6haz4O.s:22184  .debug_str:000000000000c3b9 .LASF773
C:\Users\SOLDER~1\AppData\Local\Temp\cc6haz4O.s:19742  .debug_str:000000000000262c .LASF774
C:\Users\SOLDER~1\AppData\Local\Temp\cc6haz4O.s:20412  .debug_str:00000000000050a1 .LASF775
GAS LISTING C:\Users\SOLDER~1\AppData\Local\Temp\cc6haz4O.s 			page 36


C:\Users\SOLDER~1\AppData\Local\Temp\cc6haz4O.s:20394  .debug_str:0000000000004fb2 .LASF776
C:\Users\SOLDER~1\AppData\Local\Temp\cc6haz4O.s:20660  .debug_str:000000000000605c .LASF777
C:\Users\SOLDER~1\AppData\Local\Temp\cc6haz4O.s:29660  .debug_str:000000000002a83c .LASF778
C:\Users\SOLDER~1\AppData\Local\Temp\cc6haz4O.s:26440  .debug_str:000000000001d6fe .LASF779
C:\Users\SOLDER~1\AppData\Local\Temp\cc6haz4O.s:25560  .debug_str:0000000000019dbd .LASF780
C:\Users\SOLDER~1\AppData\Local\Temp\cc6haz4O.s:29506  .debug_str:0000000000029df1 .LASF781
C:\Users\SOLDER~1\AppData\Local\Temp\cc6haz4O.s:21240  .debug_str:0000000000008686 .LASF782
C:\Users\SOLDER~1\AppData\Local\Temp\cc6haz4O.s:30800  .debug_str:000000000002f15e .LASF783
C:\Users\SOLDER~1\AppData\Local\Temp\cc6haz4O.s:19580  .debug_str:0000000000001b3d .LASF784
C:\Users\SOLDER~1\AppData\Local\Temp\cc6haz4O.s:22482  .debug_str:000000000000d797 .LASF785
C:\Users\SOLDER~1\AppData\Local\Temp\cc6haz4O.s:20928  .debug_str:0000000000007267 .LASF786
C:\Users\SOLDER~1\AppData\Local\Temp\cc6haz4O.s:25862  .debug_str:000000000001b15c .LASF787
C:\Users\SOLDER~1\AppData\Local\Temp\cc6haz4O.s:27850  .debug_str:0000000000023160 .LASF788
C:\Users\SOLDER~1\AppData\Local\Temp\cc6haz4O.s:25040  .debug_str:0000000000017c54 .LASF789
C:\Users\SOLDER~1\AppData\Local\Temp\cc6haz4O.s:30462  .debug_str:000000000002dbb5 .LASF790
C:\Users\SOLDER~1\AppData\Local\Temp\cc6haz4O.s:25372  .debug_str:00000000000191e0 .LASF791
C:\Users\SOLDER~1\AppData\Local\Temp\cc6haz4O.s:30754  .debug_str:000000000002ee80 .LASF792
C:\Users\SOLDER~1\AppData\Local\Temp\cc6haz4O.s:23484  .debug_str:000000000001180b .LASF793
C:\Users\SOLDER~1\AppData\Local\Temp\cc6haz4O.s:28584  .debug_str:00000000000261ba .LASF794
C:\Users\SOLDER~1\AppData\Local\Temp\cc6haz4O.s:29024  .debug_str:0000000000027ef6 .LASF795
C:\Users\SOLDER~1\AppData\Local\Temp\cc6haz4O.s:22158  .debug_str:000000000000c212 .LASF796
C:\Users\SOLDER~1\AppData\Local\Temp\cc6haz4O.s:29056  .debug_str:0000000000028116 .LASF797
C:\Users\SOLDER~1\AppData\Local\Temp\cc6haz4O.s:24394  .debug_str:0000000000015407 .LASF798
C:\Users\SOLDER~1\AppData\Local\Temp\cc6haz4O.s:24360  .debug_str:00000000000151a5 .LASF799
C:\Users\SOLDER~1\AppData\Local\Temp\cc6haz4O.s:23802  .debug_str:0000000000012c16 .LASF800
C:\Users\SOLDER~1\AppData\Local\Temp\cc6haz4O.s:22220  .debug_str:000000000000c635 .LASF801
C:\Users\SOLDER~1\AppData\Local\Temp\cc6haz4O.s:26904  .debug_str:000000000001f51c .LASF802
C:\Users\SOLDER~1\AppData\Local\Temp\cc6haz4O.s:30752  .debug_str:000000000002ee5e .LASF803
C:\Users\SOLDER~1\AppData\Local\Temp\cc6haz4O.s:30496  .debug_str:000000000002ddd4 .LASF804
C:\Users\SOLDER~1\AppData\Local\Temp\cc6haz4O.s:28698  .debug_str:00000000000269a1 .LASF805
C:\Users\SOLDER~1\AppData\Local\Temp\cc6haz4O.s:19794  .debug_str:00000000000029a9 .LASF806
C:\Users\SOLDER~1\AppData\Local\Temp\cc6haz4O.s:28762  .debug_str:0000000000026e1e .LASF807
C:\Users\SOLDER~1\AppData\Local\Temp\cc6haz4O.s:28984  .debug_str:0000000000027c28 .LASF808
C:\Users\SOLDER~1\AppData\Local\Temp\cc6haz4O.s:20808  .debug_str:0000000000006a86 .LASF809
C:\Users\SOLDER~1\AppData\Local\Temp\cc6haz4O.s:25622  .debug_str:000000000001a18c .LASF810
C:\Users\SOLDER~1\AppData\Local\Temp\cc6haz4O.s:24664  .debug_str:00000000000164ce .LASF811
C:\Users\SOLDER~1\AppData\Local\Temp\cc6haz4O.s:20778  .debug_str:000000000000683a .LASF812
C:\Users\SOLDER~1\AppData\Local\Temp\cc6haz4O.s:30348  .debug_str:000000000002d47e .LASF813
C:\Users\SOLDER~1\AppData\Local\Temp\cc6haz4O.s:29370  .debug_str:0000000000029555 .LASF814
C:\Users\SOLDER~1\AppData\Local\Temp\cc6haz4O.s:27572  .debug_str:0000000000021f9c .LASF815
C:\Users\SOLDER~1\AppData\Local\Temp\cc6haz4O.s:30018  .debug_str:000000000002becc .LASF816
C:\Users\SOLDER~1\AppData\Local\Temp\cc6haz4O.s:28884  .debug_str:0000000000027630 .LASF817
C:\Users\SOLDER~1\AppData\Local\Temp\cc6haz4O.s:26914  .debug_str:000000000001f5cf .LASF818
C:\Users\SOLDER~1\AppData\Local\Temp\cc6haz4O.s:28628  .debug_str:00000000000264ea .LASF819
C:\Users\SOLDER~1\AppData\Local\Temp\cc6haz4O.s:25684  .debug_str:000000000001a588 .LASF820
C:\Users\SOLDER~1\AppData\Local\Temp\cc6haz4O.s:22350  .debug_str:000000000000cf10 .LASF821
C:\Users\SOLDER~1\AppData\Local\Temp\cc6haz4O.s:25364  .debug_str:0000000000019157 .LASF822
C:\Users\SOLDER~1\AppData\Local\Temp\cc6haz4O.s:21536  .debug_str:00000000000099ed .LASF823
C:\Users\SOLDER~1\AppData\Local\Temp\cc6haz4O.s:26522  .debug_str:000000000001dbde .LASF824
C:\Users\SOLDER~1\AppData\Local\Temp\cc6haz4O.s:22822  .debug_str:000000000000ed79 .LASF825
C:\Users\SOLDER~1\AppData\Local\Temp\cc6haz4O.s:26286  .debug_str:000000000001cca6 .LASF826
C:\Users\SOLDER~1\AppData\Local\Temp\cc6haz4O.s:28932  .debug_str:000000000002792f .LASF827
C:\Users\SOLDER~1\AppData\Local\Temp\cc6haz4O.s:25108  .debug_str:00000000000180f3 .LASF828
C:\Users\SOLDER~1\AppData\Local\Temp\cc6haz4O.s:22380  .debug_str:000000000000d0e6 .LASF829
C:\Users\SOLDER~1\AppData\Local\Temp\cc6haz4O.s:28440  .debug_str:00000000000257a6 .LASF830
C:\Users\SOLDER~1\AppData\Local\Temp\cc6haz4O.s:23004  .debug_str:000000000000f937 .LASF831
C:\Users\SOLDER~1\AppData\Local\Temp\cc6haz4O.s:29362  .debug_str:00000000000294c6 .LASF832
GAS LISTING C:\Users\SOLDER~1\AppData\Local\Temp\cc6haz4O.s 			page 37


C:\Users\SOLDER~1\AppData\Local\Temp\cc6haz4O.s:21452  .debug_str:00000000000094a0 .LASF833
C:\Users\SOLDER~1\AppData\Local\Temp\cc6haz4O.s:29258  .debug_str:0000000000028e19 .LASF834
C:\Users\SOLDER~1\AppData\Local\Temp\cc6haz4O.s:30224  .debug_str:000000000002cc45 .LASF835
C:\Users\SOLDER~1\AppData\Local\Temp\cc6haz4O.s:20142  .debug_str:0000000000003ff5 .LASF836
C:\Users\SOLDER~1\AppData\Local\Temp\cc6haz4O.s:27240  .debug_str:0000000000020a5c .LASF837
C:\Users\SOLDER~1\AppData\Local\Temp\cc6haz4O.s:23836  .debug_str:0000000000012e79 .LASF838
C:\Users\SOLDER~1\AppData\Local\Temp\cc6haz4O.s:22070  .debug_str:000000000000bc63 .LASF839
C:\Users\SOLDER~1\AppData\Local\Temp\cc6haz4O.s:20512  .debug_str:00000000000056a0 .LASF840
C:\Users\SOLDER~1\AppData\Local\Temp\cc6haz4O.s:23428  .debug_str:000000000001145c .LASF841
C:\Users\SOLDER~1\AppData\Local\Temp\cc6haz4O.s:23412  .debug_str:0000000000011348 .LASF842
C:\Users\SOLDER~1\AppData\Local\Temp\cc6haz4O.s:26064  .debug_str:000000000001bdd1 .LASF843
C:\Users\SOLDER~1\AppData\Local\Temp\cc6haz4O.s:30588  .debug_str:000000000002e3bd .LASF844
C:\Users\SOLDER~1\AppData\Local\Temp\cc6haz4O.s:29610  .debug_str:000000000002a4f0 .LASF845
C:\Users\SOLDER~1\AppData\Local\Temp\cc6haz4O.s:25690  .debug_str:000000000001a5df .LASF846
C:\Users\SOLDER~1\AppData\Local\Temp\cc6haz4O.s:23596  .debug_str:0000000000011f16 .LASF847
C:\Users\SOLDER~1\AppData\Local\Temp\cc6haz4O.s:19540  .debug_str:00000000000018cc .LASF848
C:\Users\SOLDER~1\AppData\Local\Temp\cc6haz4O.s:26702  .debug_str:000000000001e7a3 .LASF849
C:\Users\SOLDER~1\AppData\Local\Temp\cc6haz4O.s:29694  .debug_str:000000000002aa2c .LASF850
C:\Users\SOLDER~1\AppData\Local\Temp\cc6haz4O.s:20486  .debug_str:0000000000005511 .LASF851
C:\Users\SOLDER~1\AppData\Local\Temp\cc6haz4O.s:22916  .debug_str:000000000000f382 .LASF852
C:\Users\SOLDER~1\AppData\Local\Temp\cc6haz4O.s:24608  .debug_str:0000000000016137 .LASF853
C:\Users\SOLDER~1\AppData\Local\Temp\cc6haz4O.s:21748  .debug_str:000000000000a7fc .LASF854
C:\Users\SOLDER~1\AppData\Local\Temp\cc6haz4O.s:22802  .debug_str:000000000000ec36 .LASF855
C:\Users\SOLDER~1\AppData\Local\Temp\cc6haz4O.s:26806  .debug_str:000000000001ee88 .LASF856
C:\Users\SOLDER~1\AppData\Local\Temp\cc6haz4O.s:22836  .debug_str:000000000000ee6e .LASF857
C:\Users\SOLDER~1\AppData\Local\Temp\cc6haz4O.s:27702  .debug_str:00000000000227a6 .LASF858
C:\Users\SOLDER~1\AppData\Local\Temp\cc6haz4O.s:20106  .debug_str:0000000000003dae .LASF859
C:\Users\SOLDER~1\AppData\Local\Temp\cc6haz4O.s:22128  .debug_str:000000000000c017 .LASF860
C:\Users\SOLDER~1\AppData\Local\Temp\cc6haz4O.s:19824  .debug_str:0000000000002b9b .LASF861
C:\Users\SOLDER~1\AppData\Local\Temp\cc6haz4O.s:23410  .debug_str:0000000000011335 .LASF862
C:\Users\SOLDER~1\AppData\Local\Temp\cc6haz4O.s:25766  .debug_str:000000000001aae6 .LASF863
C:\Users\SOLDER~1\AppData\Local\Temp\cc6haz4O.s:23896  .debug_str:0000000000013220 .LASF864
C:\Users\SOLDER~1\AppData\Local\Temp\cc6haz4O.s:27618  .debug_str:000000000002224e .LASF865
C:\Users\SOLDER~1\AppData\Local\Temp\cc6haz4O.s:23210  .debug_str:00000000000106d0 .LASF866
C:\Users\SOLDER~1\AppData\Local\Temp\cc6haz4O.s:19984  .debug_str:00000000000035da .LASF867
C:\Users\SOLDER~1\AppData\Local\Temp\cc6haz4O.s:30628  .debug_str:000000000002e636 .LASF868
C:\Users\SOLDER~1\AppData\Local\Temp\cc6haz4O.s:20422  .debug_str:0000000000005156 .LASF869
C:\Users\SOLDER~1\AppData\Local\Temp\cc6haz4O.s:24094  .debug_str:0000000000014002 .LASF870
C:\Users\SOLDER~1\AppData\Local\Temp\cc6haz4O.s:30128  .debug_str:000000000002c644 .LASF871
C:\Users\SOLDER~1\AppData\Local\Temp\cc6haz4O.s:24588  .debug_str:0000000000015ff6 .LASF872
C:\Users\SOLDER~1\AppData\Local\Temp\cc6haz4O.s:30746  .debug_str:000000000002ee07 .LASF873
C:\Users\SOLDER~1\AppData\Local\Temp\cc6haz4O.s:26134  .debug_str:000000000001c270 .LASF874
C:\Users\SOLDER~1\AppData\Local\Temp\cc6haz4O.s:25380  .debug_str:000000000001922f .LASF875
C:\Users\SOLDER~1\AppData\Local\Temp\cc6haz4O.s:20738  .debug_str:00000000000065be .LASF876
C:\Users\SOLDER~1\AppData\Local\Temp\cc6haz4O.s:29312  .debug_str:0000000000029173 .LASF877
C:\Users\SOLDER~1\AppData\Local\Temp\cc6haz4O.s:27852  .debug_str:0000000000023180 .LASF878
C:\Users\SOLDER~1\AppData\Local\Temp\cc6haz4O.s:23372  .debug_str:00000000000110d1 .LASF879
C:\Users\SOLDER~1\AppData\Local\Temp\cc6haz4O.s:19870  .debug_str:0000000000002e71 .LASF880
C:\Users\SOLDER~1\AppData\Local\Temp\cc6haz4O.s:29804  .debug_str:000000000002b121 .LASF881
C:\Users\SOLDER~1\AppData\Local\Temp\cc6haz4O.s:20880  .debug_str:0000000000006f06 .LASF882
C:\Users\SOLDER~1\AppData\Local\Temp\cc6haz4O.s:20456  .debug_str:0000000000005358 .LASF883
C:\Users\SOLDER~1\AppData\Local\Temp\cc6haz4O.s:20084  .debug_str:0000000000003c57 .LASF884
C:\Users\SOLDER~1\AppData\Local\Temp\cc6haz4O.s:22138  .debug_str:000000000000c0bd .LASF885
C:\Users\SOLDER~1\AppData\Local\Temp\cc6haz4O.s:26578  .debug_str:000000000001dfc0 .LASF886
C:\Users\SOLDER~1\AppData\Local\Temp\cc6haz4O.s:25658  .debug_str:000000000001a3c3 .LASF887
C:\Users\SOLDER~1\AppData\Local\Temp\cc6haz4O.s:21758  .debug_str:000000000000a8b5 .LASF888
C:\Users\SOLDER~1\AppData\Local\Temp\cc6haz4O.s:23306  .debug_str:0000000000010cad .LASF889
GAS LISTING C:\Users\SOLDER~1\AppData\Local\Temp\cc6haz4O.s 			page 38


C:\Users\SOLDER~1\AppData\Local\Temp\cc6haz4O.s:29464  .debug_str:0000000000029b35 .LASF890
C:\Users\SOLDER~1\AppData\Local\Temp\cc6haz4O.s:19244  .debug_str:00000000000004f2 .LASF891
C:\Users\SOLDER~1\AppData\Local\Temp\cc6haz4O.s:29984  .debug_str:000000000002bc95 .LASF892
C:\Users\SOLDER~1\AppData\Local\Temp\cc6haz4O.s:29900  .debug_str:000000000002b763 .LASF893
C:\Users\SOLDER~1\AppData\Local\Temp\cc6haz4O.s:27866  .debug_str:000000000002327a .LASF894
C:\Users\SOLDER~1\AppData\Local\Temp\cc6haz4O.s:29480  .debug_str:0000000000029c44 .LASF895
C:\Users\SOLDER~1\AppData\Local\Temp\cc6haz4O.s:26738  .debug_str:000000000001ea17 .LASF896
C:\Users\SOLDER~1\AppData\Local\Temp\cc6haz4O.s:29058  .debug_str:0000000000028138 .LASF897
C:\Users\SOLDER~1\AppData\Local\Temp\cc6haz4O.s:20804  .debug_str:0000000000006a3e .LASF898
C:\Users\SOLDER~1\AppData\Local\Temp\cc6haz4O.s:19262  .debug_str:000000000000062f .LASF899
C:\Users\SOLDER~1\AppData\Local\Temp\cc6haz4O.s:20734  .debug_str:0000000000006578 .LASF900
C:\Users\SOLDER~1\AppData\Local\Temp\cc6haz4O.s:25138  .debug_str:00000000000182f5 .LASF901
C:\Users\SOLDER~1\AppData\Local\Temp\cc6haz4O.s:27024  .debug_str:000000000001fcc8 .LASF902
C:\Users\SOLDER~1\AppData\Local\Temp\cc6haz4O.s:20956  .debug_str:0000000000007430 .LASF903
C:\Users\SOLDER~1\AppData\Local\Temp\cc6haz4O.s:19992  .debug_str:000000000000364d .LASF904
C:\Users\SOLDER~1\AppData\Local\Temp\cc6haz4O.s:22094  .debug_str:000000000000be0a .LASF905
C:\Users\SOLDER~1\AppData\Local\Temp\cc6haz4O.s:20236  .debug_str:00000000000045cf .LASF906
C:\Users\SOLDER~1\AppData\Local\Temp\cc6haz4O.s:21004  .debug_str:0000000000007737 .LASF907
C:\Users\SOLDER~1\AppData\Local\Temp\cc6haz4O.s:28048  .debug_str:0000000000023e34 .LASF908
C:\Users\SOLDER~1\AppData\Local\Temp\cc6haz4O.s:24918  .debug_str:000000000001749b .LASF909
C:\Users\SOLDER~1\AppData\Local\Temp\cc6haz4O.s:23978  .debug_str:00000000000137ce .LASF910
C:\Users\SOLDER~1\AppData\Local\Temp\cc6haz4O.s:26610  .debug_str:000000000001e1db .LASF911
C:\Users\SOLDER~1\AppData\Local\Temp\cc6haz4O.s:20498  .debug_str:00000000000055c6 .LASF912
C:\Users\SOLDER~1\AppData\Local\Temp\cc6haz4O.s:29662  .debug_str:000000000002a85e .LASF913
C:\Users\SOLDER~1\AppData\Local\Temp\cc6haz4O.s:19784  .debug_str:00000000000028d2 .LASF914
C:\Users\SOLDER~1\AppData\Local\Temp\cc6haz4O.s:30278  .debug_str:000000000002cfac .LASF915
C:\Users\SOLDER~1\AppData\Local\Temp\cc6haz4O.s:25056  .debug_str:0000000000017d58 .LASF916
C:\Users\SOLDER~1\AppData\Local\Temp\cc6haz4O.s:20300  .debug_str:00000000000049e3 .LASF917
C:\Users\SOLDER~1\AppData\Local\Temp\cc6haz4O.s:26938  .debug_str:000000000001f77b .LASF918
C:\Users\SOLDER~1\AppData\Local\Temp\cc6haz4O.s:25776  .debug_str:000000000001ab6f .LASF919
C:\Users\SOLDER~1\AppData\Local\Temp\cc6haz4O.s:27496  .debug_str:0000000000021ace .LASF920
C:\Users\SOLDER~1\AppData\Local\Temp\cc6haz4O.s:22980  .debug_str:000000000000f7aa .LASF921
C:\Users\SOLDER~1\AppData\Local\Temp\cc6haz4O.s:19566  .debug_str:0000000000001a4f .LASF922
C:\Users\SOLDER~1\AppData\Local\Temp\cc6haz4O.s:29338  .debug_str:0000000000029342 .LASF923
C:\Users\SOLDER~1\AppData\Local\Temp\cc6haz4O.s:29648  .debug_str:000000000002a76b .LASF924
C:\Users\SOLDER~1\AppData\Local\Temp\cc6haz4O.s:20376  .debug_str:0000000000004e9f .LASF925
C:\Users\SOLDER~1\AppData\Local\Temp\cc6haz4O.s:20802  .debug_str:0000000000006a1e .LASF926
C:\Users\SOLDER~1\AppData\Local\Temp\cc6haz4O.s:21668  .debug_str:000000000000a281 .LASF927
C:\Users\SOLDER~1\AppData\Local\Temp\cc6haz4O.s:26212  .debug_str:000000000001c7a3 .LASF928
C:\Users\SOLDER~1\AppData\Local\Temp\cc6haz4O.s:25300  .debug_str:0000000000018d0c .LASF929
C:\Users\SOLDER~1\AppData\Local\Temp\cc6haz4O.s:26722  .debug_str:000000000001e913 .LASF930
C:\Users\SOLDER~1\AppData\Local\Temp\cc6haz4O.s:19504  .debug_str:0000000000001689 .LASF931
C:\Users\SOLDER~1\AppData\Local\Temp\cc6haz4O.s:20874  .debug_str:0000000000006e98 .LASF932
C:\Users\SOLDER~1\AppData\Local\Temp\cc6haz4O.s:19416  .debug_str:00000000000010d6 .LASF933
C:\Users\SOLDER~1\AppData\Local\Temp\cc6haz4O.s:22658  .debug_str:000000000000e334 .LASF934
C:\Users\SOLDER~1\AppData\Local\Temp\cc6haz4O.s:29526  .debug_str:0000000000029f4f .LASF935
C:\Users\SOLDER~1\AppData\Local\Temp\cc6haz4O.s:27510  .debug_str:0000000000021bb0 .LASF936
C:\Users\SOLDER~1\AppData\Local\Temp\cc6haz4O.s:29094  .debug_str:00000000000283a3 .LASF937
C:\Users\SOLDER~1\AppData\Local\Temp\cc6haz4O.s:26478  .debug_str:000000000001d938 .LASF938
C:\Users\SOLDER~1\AppData\Local\Temp\cc6haz4O.s:29372  .debug_str:0000000000029568 .LASF939
C:\Users\SOLDER~1\AppData\Local\Temp\cc6haz4O.s:21494  .debug_str:0000000000009750 .LASF940
C:\Users\SOLDER~1\AppData\Local\Temp\cc6haz4O.s:29510  .debug_str:0000000000029e2c .LASF941
C:\Users\SOLDER~1\AppData\Local\Temp\cc6haz4O.s:22860  .debug_str:000000000000f008 .LASF942
C:\Users\SOLDER~1\AppData\Local\Temp\cc6haz4O.s:28420  .debug_str:000000000002565a .LASF943
C:\Users\SOLDER~1\AppData\Local\Temp\cc6haz4O.s:20008  .debug_str:000000000000374e .LASF944
C:\Users\SOLDER~1\AppData\Local\Temp\cc6haz4O.s:22706  .debug_str:000000000000e635 .LASF945
C:\Users\SOLDER~1\AppData\Local\Temp\cc6haz4O.s:29682  .debug_str:000000000002a979 .LASF946
GAS LISTING C:\Users\SOLDER~1\AppData\Local\Temp\cc6haz4O.s 			page 39


C:\Users\SOLDER~1\AppData\Local\Temp\cc6haz4O.s:28498  .debug_str:0000000000025bc9 .LASF947
C:\Users\SOLDER~1\AppData\Local\Temp\cc6haz4O.s:25958  .debug_str:000000000001b747 .LASF948
C:\Users\SOLDER~1\AppData\Local\Temp\cc6haz4O.s:21564  .debug_str:0000000000009ba5 .LASF949
C:\Users\SOLDER~1\AppData\Local\Temp\cc6haz4O.s:22674  .debug_str:000000000000e44f .LASF950
C:\Users\SOLDER~1\AppData\Local\Temp\cc6haz4O.s:23030  .debug_str:000000000000fb1e .LASF951
C:\Users\SOLDER~1\AppData\Local\Temp\cc6haz4O.s:30362  .debug_str:000000000002d575 .LASF952
C:\Users\SOLDER~1\AppData\Local\Temp\cc6haz4O.s:22530  .debug_str:000000000000dac6 .LASF953
C:\Users\SOLDER~1\AppData\Local\Temp\cc6haz4O.s:24954  .debug_str:00000000000176da .LASF954
C:\Users\SOLDER~1\AppData\Local\Temp\cc6haz4O.s:25486  .debug_str:0000000000019919 .LASF955
C:\Users\SOLDER~1\AppData\Local\Temp\cc6haz4O.s:25328  .debug_str:0000000000018ef9 .LASF956
C:\Users\SOLDER~1\AppData\Local\Temp\cc6haz4O.s:24804  .debug_str:0000000000016d61 .LASF957
C:\Users\SOLDER~1\AppData\Local\Temp\cc6haz4O.s:22886  .debug_str:000000000000f197 .LASF958
C:\Users\SOLDER~1\AppData\Local\Temp\cc6haz4O.s:20338  .debug_str:0000000000004c39 .LASF959
C:\Users\SOLDER~1\AppData\Local\Temp\cc6haz4O.s:20568  .debug_str:0000000000005a82 .LASF960
C:\Users\SOLDER~1\AppData\Local\Temp\cc6haz4O.s:27604  .debug_str:0000000000022183 .LASF961
C:\Users\SOLDER~1\AppData\Local\Temp\cc6haz4O.s:29808  .debug_str:000000000002b16b .LASF962
C:\Users\SOLDER~1\AppData\Local\Temp\cc6haz4O.s:22958  .debug_str:000000000000f638 .LASF963
C:\Users\SOLDER~1\AppData\Local\Temp\cc6haz4O.s:27392  .debug_str:0000000000021425 .LASF964
C:\Users\SOLDER~1\AppData\Local\Temp\cc6haz4O.s:30092  .debug_str:000000000002c426 .LASF965
C:\Users\SOLDER~1\AppData\Local\Temp\cc6haz4O.s:25058  .debug_str:0000000000017d7a .LASF966
C:\Users\SOLDER~1\AppData\Local\Temp\cc6haz4O.s:24846  .debug_str:0000000000016fb7 .LASF967
C:\Users\SOLDER~1\AppData\Local\Temp\cc6haz4O.s:22596  .debug_str:000000000000dee0 .LASF968
C:\Users\SOLDER~1\AppData\Local\Temp\cc6haz4O.s:21156  .debug_str:000000000000810c .LASF969
C:\Users\SOLDER~1\AppData\Local\Temp\cc6haz4O.s:20190  .debug_str:00000000000042f5 .LASF970
C:\Users\SOLDER~1\AppData\Local\Temp\cc6haz4O.s:28244  .debug_str:0000000000024b09 .LASF971
C:\Users\SOLDER~1\AppData\Local\Temp\cc6haz4O.s:29438  .debug_str:00000000000299ac .LASF972
C:\Users\SOLDER~1\AppData\Local\Temp\cc6haz4O.s:22370  .debug_str:000000000000d04b .LASF973
C:\Users\SOLDER~1\AppData\Local\Temp\cc6haz4O.s:23450  .debug_str:00000000000115e7 .LASF974
C:\Users\SOLDER~1\AppData\Local\Temp\cc6haz4O.s:22990  .debug_str:000000000000f842 .LASF975
C:\Users\SOLDER~1\AppData\Local\Temp\cc6haz4O.s:23874  .debug_str:00000000000130e0 .LASF976
C:\Users\SOLDER~1\AppData\Local\Temp\cc6haz4O.s:30216  .debug_str:000000000002cbdc .LASF977
C:\Users\SOLDER~1\AppData\Local\Temp\cc6haz4O.s:30274  .debug_str:000000000002cf6a .LASF978
C:\Users\SOLDER~1\AppData\Local\Temp\cc6haz4O.s:25718  .debug_str:000000000001a7a2 .LASF979
C:\Users\SOLDER~1\AppData\Local\Temp\cc6haz4O.s:27834  .debug_str:0000000000023044 .LASF980
C:\Users\SOLDER~1\AppData\Local\Temp\cc6haz4O.s:21188  .debug_str:0000000000008342 .LASF981
C:\Users\SOLDER~1\AppData\Local\Temp\cc6haz4O.s:25494  .debug_str:000000000001997e .LASF982
C:\Users\SOLDER~1\AppData\Local\Temp\cc6haz4O.s:28270  .debug_str:0000000000024cdf .LASF983
C:\Users\SOLDER~1\AppData\Local\Temp\cc6haz4O.s:23174  .debug_str:0000000000010472 .LASF984
C:\Users\SOLDER~1\AppData\Local\Temp\cc6haz4O.s:23798  .debug_str:0000000000012bdb .LASF985
C:\Users\SOLDER~1\AppData\Local\Temp\cc6haz4O.s:20748  .debug_str:0000000000006661 .LASF986
C:\Users\SOLDER~1\AppData\Local\Temp\cc6haz4O.s:24334  .debug_str:0000000000015029 .LASF987
C:\Users\SOLDER~1\AppData\Local\Temp\cc6haz4O.s:29992  .debug_str:000000000002bd1e .LASF988
C:\Users\SOLDER~1\AppData\Local\Temp\cc6haz4O.s:26500  .debug_str:000000000001da8c .LASF989
C:\Users\SOLDER~1\AppData\Local\Temp\cc6haz4O.s:20626  .debug_str:0000000000005e64 .LASF990
C:\Users\SOLDER~1\AppData\Local\Temp\cc6haz4O.s:21980  .debug_str:000000000000b6fa .LASF991
C:\Users\SOLDER~1\AppData\Local\Temp\cc6haz4O.s:25226  .debug_str:000000000001884d .LASF992
C:\Users\SOLDER~1\AppData\Local\Temp\cc6haz4O.s:29102  .debug_str:000000000002841e .LASF993
C:\Users\SOLDER~1\AppData\Local\Temp\cc6haz4O.s:26308  .debug_str:000000000001ce1b .LASF994
C:\Users\SOLDER~1\AppData\Local\Temp\cc6haz4O.s:24626  .debug_str:0000000000016279 .LASF995
C:\Users\SOLDER~1\AppData\Local\Temp\cc6haz4O.s:23256  .debug_str:000000000001099f .LASF996
C:\Users\SOLDER~1\AppData\Local\Temp\cc6haz4O.s:20094  .debug_str:0000000000003cf3 .LASF997
C:\Users\SOLDER~1\AppData\Local\Temp\cc6haz4O.s:21504  .debug_str:00000000000097cf .LASF998
C:\Users\SOLDER~1\AppData\Local\Temp\cc6haz4O.s:27300  .debug_str:0000000000020e1f .LASF999
C:\Users\SOLDER~1\AppData\Local\Temp\cc6haz4O.s:30742  .debug_str:000000000002edbf .LASF1000
C:\Users\SOLDER~1\AppData\Local\Temp\cc6haz4O.s:22794  .debug_str:000000000000ebe1 .LASF1001
C:\Users\SOLDER~1\AppData\Local\Temp\cc6haz4O.s:28298  .debug_str:0000000000024ea5 .LASF1002
C:\Users\SOLDER~1\AppData\Local\Temp\cc6haz4O.s:29942  .debug_str:000000000002ba01 .LASF1003
GAS LISTING C:\Users\SOLDER~1\AppData\Local\Temp\cc6haz4O.s 			page 40


C:\Users\SOLDER~1\AppData\Local\Temp\cc6haz4O.s:26042  .debug_str:000000000001bc83 .LASF1004
C:\Users\SOLDER~1\AppData\Local\Temp\cc6haz4O.s:25450  .debug_str:00000000000196bf .LASF1005
C:\Users\SOLDER~1\AppData\Local\Temp\cc6haz4O.s:23618  .debug_str:000000000001208d .LASF1006
C:\Users\SOLDER~1\AppData\Local\Temp\cc6haz4O.s:20910  .debug_str:0000000000007132 .LASF1007
C:\Users\SOLDER~1\AppData\Local\Temp\cc6haz4O.s:21214  .debug_str:00000000000084f0 .LASF1008
C:\Users\SOLDER~1\AppData\Local\Temp\cc6haz4O.s:28092  .debug_str:000000000002410c .LASF1009
C:\Users\SOLDER~1\AppData\Local\Temp\cc6haz4O.s:30456  .debug_str:000000000002db62 .LASF1010
C:\Users\SOLDER~1\AppData\Local\Temp\cc6haz4O.s:23610  .debug_str:0000000000012007 .LASF1011
C:\Users\SOLDER~1\AppData\Local\Temp\cc6haz4O.s:28674  .debug_str:00000000000267de .LASF1012
C:\Users\SOLDER~1\AppData\Local\Temp\cc6haz4O.s:30736  .debug_str:000000000002ed66 .LASF1013
C:\Users\SOLDER~1\AppData\Local\Temp\cc6haz4O.s:29164  .debug_str:00000000000287f9 .LASF1014
C:\Users\SOLDER~1\AppData\Local\Temp\cc6haz4O.s:26224  .debug_str:000000000001c872 .LASF1015
C:\Users\SOLDER~1\AppData\Local\Temp\cc6haz4O.s:26770  .debug_str:000000000001ec46 .LASF1016
C:\Users\SOLDER~1\AppData\Local\Temp\cc6haz4O.s:21692  .debug_str:000000000000a418 .LASF1017
C:\Users\SOLDER~1\AppData\Local\Temp\cc6haz4O.s:24378  .debug_str:00000000000152df .LASF1018
C:\Users\SOLDER~1\AppData\Local\Temp\cc6haz4O.s:28814  .debug_str:00000000000271b2 .LASF1019
C:\Users\SOLDER~1\AppData\Local\Temp\cc6haz4O.s:21950  .debug_str:000000000000b4e2 .LASF1020
C:\Users\SOLDER~1\AppData\Local\Temp\cc6haz4O.s:23584  .debug_str:0000000000011e71 .LASF1021
C:\Users\SOLDER~1\AppData\Local\Temp\cc6haz4O.s:25682  .debug_str:000000000001a567 .LASF1022
C:\Users\SOLDER~1\AppData\Local\Temp\cc6haz4O.s:19906  .debug_str:00000000000030d6 .LASF1023
C:\Users\SOLDER~1\AppData\Local\Temp\cc6haz4O.s:28866  .debug_str:00000000000274fa .LASF1024
C:\Users\SOLDER~1\AppData\Local\Temp\cc6haz4O.s:27822  .debug_str:0000000000022fa0 .LASF1025
C:\Users\SOLDER~1\AppData\Local\Temp\cc6haz4O.s:24746  .debug_str:00000000000169bc .LASF1026
C:\Users\SOLDER~1\AppData\Local\Temp\cc6haz4O.s:22510  .debug_str:000000000000d995 .LASF1027
C:\Users\SOLDER~1\AppData\Local\Temp\cc6haz4O.s:24102  .debug_str:0000000000014094 .LASF1028
C:\Users\SOLDER~1\AppData\Local\Temp\cc6haz4O.s:29642  .debug_str:000000000002a6f2 .LASF1029
C:\Users\SOLDER~1\AppData\Local\Temp\cc6haz4O.s:21664  .debug_str:000000000000a23d .LASF1030
C:\Users\SOLDER~1\AppData\Local\Temp\cc6haz4O.s:21256  .debug_str:0000000000008784 .LASF1031
C:\Users\SOLDER~1\AppData\Local\Temp\cc6haz4O.s:19292  .debug_str:000000000000088e .LASF1032
C:\Users\SOLDER~1\AppData\Local\Temp\cc6haz4O.s:24876  .debug_str:0000000000017197 .LASF1033
C:\Users\SOLDER~1\AppData\Local\Temp\cc6haz4O.s:20402  .debug_str:000000000000501e .LASF1034
C:\Users\SOLDER~1\AppData\Local\Temp\cc6haz4O.s:27706  .debug_str:00000000000227e0 .LASF1035
C:\Users\SOLDER~1\AppData\Local\Temp\cc6haz4O.s:29626  .debug_str:000000000002a5ef .LASF1036
C:\Users\SOLDER~1\AppData\Local\Temp\cc6haz4O.s:23344  .debug_str:0000000000010f2e .LASF1037
C:\Users\SOLDER~1\AppData\Local\Temp\cc6haz4O.s:27220  .debug_str:0000000000020921 .LASF1038
C:\Users\SOLDER~1\AppData\Local\Temp\cc6haz4O.s:28216  .debug_str:000000000002492b .LASF1039
C:\Users\SOLDER~1\AppData\Local\Temp\cc6haz4O.s:21558  .debug_str:0000000000009b4d .LASF1040
C:\Users\SOLDER~1\AppData\Local\Temp\cc6haz4O.s:20322  .debug_str:0000000000004b3a .LASF1041
C:\Users\SOLDER~1\AppData\Local\Temp\cc6haz4O.s:23198  .debug_str:0000000000010614 .LASF1042
C:\Users\SOLDER~1\AppData\Local\Temp\cc6haz4O.s:29290  .debug_str:0000000000029036 .LASF1043
C:\Users\SOLDER~1\AppData\Local\Temp\cc6haz4O.s:27010  .debug_str:000000000001fbe8 .LASF1044
C:\Users\SOLDER~1\AppData\Local\Temp\cc6haz4O.s:24538  .debug_str:0000000000015ce3 .LASF1045
C:\Users\SOLDER~1\AppData\Local\Temp\cc6haz4O.s:20104  .debug_str:0000000000003d92 .LASF1046
C:\Users\SOLDER~1\AppData\Local\Temp\cc6haz4O.s:27016  .debug_str:000000000001fc3e .LASF1047
C:\Users\SOLDER~1\AppData\Local\Temp\cc6haz4O.s:20706  .debug_str:00000000000063a3 .LASF1048
C:\Users\SOLDER~1\AppData\Local\Temp\cc6haz4O.s:24922  .debug_str:00000000000174e1 .LASF1049
C:\Users\SOLDER~1\AppData\Local\Temp\cc6haz4O.s:23594  .debug_str:0000000000011efd .LASF1050
C:\Users\SOLDER~1\AppData\Local\Temp\cc6haz4O.s:26300  .debug_str:000000000001cd9c .LASF1051
C:\Users\SOLDER~1\AppData\Local\Temp\cc6haz4O.s:28696  .debug_str:0000000000026986 .LASF1052
C:\Users\SOLDER~1\AppData\Local\Temp\cc6haz4O.s:22780  .debug_str:000000000000eb0f .LASF1053
C:\Users\SOLDER~1\AppData\Local\Temp\cc6haz4O.s:26124  .debug_str:000000000001c1d3 .LASF1054
C:\Users\SOLDER~1\AppData\Local\Temp\cc6haz4O.s:20408  .debug_str:0000000000005075 .LASF1055
C:\Users\SOLDER~1\AppData\Local\Temp\cc6haz4O.s:27404  .debug_str:00000000000214df .LASF1056
C:\Users\SOLDER~1\AppData\Local\Temp\cc6haz4O.s:27492  .debug_str:0000000000021a86 .LASF1057
C:\Users\SOLDER~1\AppData\Local\Temp\cc6haz4O.s:26460  .debug_str:000000000001d825 .LASF1058
C:\Users\SOLDER~1\AppData\Local\Temp\cc6haz4O.s:29488  .debug_str:0000000000029cc9 .LASF1059
C:\Users\SOLDER~1\AppData\Local\Temp\cc6haz4O.s:27414  .debug_str:000000000002157d .LASF1060
GAS LISTING C:\Users\SOLDER~1\AppData\Local\Temp\cc6haz4O.s 			page 41


C:\Users\SOLDER~1\AppData\Local\Temp\cc6haz4O.s:27176  .debug_str:0000000000020645 .LASF1061
C:\Users\SOLDER~1\AppData\Local\Temp\cc6haz4O.s:30400  .debug_str:000000000002d7c0 .LASF1062
C:\Users\SOLDER~1\AppData\Local\Temp\cc6haz4O.s:20770  .debug_str:00000000000067cd .LASF1063
C:\Users\SOLDER~1\AppData\Local\Temp\cc6haz4O.s:23104  .debug_str:0000000000010015 .LASF1064
C:\Users\SOLDER~1\AppData\Local\Temp\cc6haz4O.s:27814  .debug_str:0000000000022f1d .LASF1065
C:\Users\SOLDER~1\AppData\Local\Temp\cc6haz4O.s:27836  .debug_str:0000000000023065 .LASF1066
C:\Users\SOLDER~1\AppData\Local\Temp\cc6haz4O.s:22512  .debug_str:000000000000d9ac .LASF1067
C:\Users\SOLDER~1\AppData\Local\Temp\cc6haz4O.s:21644  .debug_str:000000000000a0e7 .LASF1068
C:\Users\SOLDER~1\AppData\Local\Temp\cc6haz4O.s:23338  .debug_str:0000000000010ec3 .LASF1069
C:\Users\SOLDER~1\AppData\Local\Temp\cc6haz4O.s:27690  .debug_str:00000000000226c9 .LASF1070
C:\Users\SOLDER~1\AppData\Local\Temp\cc6haz4O.s:26372  .debug_str:000000000001d235 .LASF1071
C:\Users\SOLDER~1\AppData\Local\Temp\cc6haz4O.s:23318  .debug_str:0000000000010d6b .LASF1072
C:\Users\SOLDER~1\AppData\Local\Temp\cc6haz4O.s:27934  .debug_str:00000000000236fc .LASF1073
C:\Users\SOLDER~1\AppData\Local\Temp\cc6haz4O.s:19310  .debug_str:00000000000009fb .LASF1074
C:\Users\SOLDER~1\AppData\Local\Temp\cc6haz4O.s:25636  .debug_str:000000000001a277 .LASF1075
C:\Users\SOLDER~1\AppData\Local\Temp\cc6haz4O.s:24124  .debug_str:00000000000141f6 .LASF1076
C:\Users\SOLDER~1\AppData\Local\Temp\cc6haz4O.s:22310  .debug_str:000000000000cc45 .LASF1077
C:\Users\SOLDER~1\AppData\Local\Temp\cc6haz4O.s:19770  .debug_str:00000000000027f0 .LASF1078
C:\Users\SOLDER~1\AppData\Local\Temp\cc6haz4O.s:28394  .debug_str:00000000000254ca .LASF1079
C:\Users\SOLDER~1\AppData\Local\Temp\cc6haz4O.s:21376  .debug_str:0000000000008f6c .LASF1080
C:\Users\SOLDER~1\AppData\Local\Temp\cc6haz4O.s:19760  .debug_str:0000000000002736 .LASF1081
C:\Users\SOLDER~1\AppData\Local\Temp\cc6haz4O.s:27256  .debug_str:0000000000020b62 .LASF1082
C:\Users\SOLDER~1\AppData\Local\Temp\cc6haz4O.s:26704  .debug_str:000000000001e7c3 .LASF1083
C:\Users\SOLDER~1\AppData\Local\Temp\cc6haz4O.s:24618  .debug_str:00000000000161e5 .LASF1084
C:\Users\SOLDER~1\AppData\Local\Temp\cc6haz4O.s:20618  .debug_str:0000000000005dca .LASF1085
C:\Users\SOLDER~1\AppData\Local\Temp\cc6haz4O.s:27798  .debug_str:0000000000022e0e .LASF1086
C:\Users\SOLDER~1\AppData\Local\Temp\cc6haz4O.s:29568  .debug_str:000000000002a1fd .LASF1087
C:\Users\SOLDER~1\AppData\Local\Temp\cc6haz4O.s:29728  .debug_str:000000000002ac54 .LASF1088
C:\Users\SOLDER~1\AppData\Local\Temp\cc6haz4O.s:20588  .debug_str:0000000000005be0 .LASF1089
C:\Users\SOLDER~1\AppData\Local\Temp\cc6haz4O.s:28720  .debug_str:0000000000026b22 .LASF1090
C:\Users\SOLDER~1\AppData\Local\Temp\cc6haz4O.s:26548  .debug_str:000000000001dd82 .LASF1091
C:\Users\SOLDER~1\AppData\Local\Temp\cc6haz4O.s:20950  .debug_str:00000000000073c4 .LASF1092
C:\Users\SOLDER~1\AppData\Local\Temp\cc6haz4O.s:25074  .debug_str:0000000000017e84 .LASF1093
C:\Users\SOLDER~1\AppData\Local\Temp\cc6haz4O.s:22478  .debug_str:000000000000d758 .LASF1094
C:\Users\SOLDER~1\AppData\Local\Temp\cc6haz4O.s:19520  .debug_str:00000000000017a7 .LASF1095
C:\Users\SOLDER~1\AppData\Local\Temp\cc6haz4O.s:20676  .debug_str:000000000000617d .LASF1096
C:\Users\SOLDER~1\AppData\Local\Temp\cc6haz4O.s:27820  .debug_str:0000000000022f79 .LASF1097
C:\Users\SOLDER~1\AppData\Local\Temp\cc6haz4O.s:27116  .debug_str:000000000002027d .LASF1098
C:\Users\SOLDER~1\AppData\Local\Temp\cc6haz4O.s:20912  .debug_str:0000000000007149 .LASF1099
C:\Users\SOLDER~1\AppData\Local\Temp\cc6haz4O.s:24388  .debug_str:00000000000153a3 .LASF1100
C:\Users\SOLDER~1\AppData\Local\Temp\cc6haz4O.s:28072  .debug_str:0000000000023fc1 .LASF1101
C:\Users\SOLDER~1\AppData\Local\Temp\cc6haz4O.s:29768  .debug_str:000000000002af07 .LASF1102
C:\Users\SOLDER~1\AppData\Local\Temp\cc6haz4O.s:19376  .debug_str:0000000000000e8e .LASF1103
C:\Users\SOLDER~1\AppData\Local\Temp\cc6haz4O.s:19488  .debug_str:0000000000001597 .LASF1104
C:\Users\SOLDER~1\AppData\Local\Temp\cc6haz4O.s:27044  .debug_str:000000000001fdfc .LASF1105
C:\Users\SOLDER~1\AppData\Local\Temp\cc6haz4O.s:20562  .debug_str:0000000000005a16 .LASF1106
C:\Users\SOLDER~1\AppData\Local\Temp\cc6haz4O.s:22112  .debug_str:000000000000bf17 .LASF1107
C:\Users\SOLDER~1\AppData\Local\Temp\cc6haz4O.s:19560  .debug_str:00000000000019ec .LASF1108
C:\Users\SOLDER~1\AppData\Local\Temp\cc6haz4O.s:27132  .debug_str:000000000002036a .LASF1109
C:\Users\SOLDER~1\AppData\Local\Temp\cc6haz4O.s:26018  .debug_str:000000000001baf2 .LASF1110
C:\Users\SOLDER~1\AppData\Local\Temp\cc6haz4O.s:21154  .debug_str:00000000000080e4 .LASF1111
C:\Users\SOLDER~1\AppData\Local\Temp\cc6haz4O.s:22060  .debug_str:000000000000bbc7 .LASF1112
C:\Users\SOLDER~1\AppData\Local\Temp\cc6haz4O.s:22084  .debug_str:000000000000bd66 .LASF1113
C:\Users\SOLDER~1\AppData\Local\Temp\cc6haz4O.s:29070  .debug_str:00000000000281fd .LASF1114
C:\Users\SOLDER~1\AppData\Local\Temp\cc6haz4O.s:21300  .debug_str:0000000000008a40 .LASF1115
C:\Users\SOLDER~1\AppData\Local\Temp\cc6haz4O.s:28784  .debug_str:0000000000026f76 .LASF1116
C:\Users\SOLDER~1\AppData\Local\Temp\cc6haz4O.s:26932  .debug_str:000000000001f6f1 .LASF1117
GAS LISTING C:\Users\SOLDER~1\AppData\Local\Temp\cc6haz4O.s 			page 42


C:\Users\SOLDER~1\AppData\Local\Temp\cc6haz4O.s:29732  .debug_str:000000000002aca1 .LASF1118
C:\Users\SOLDER~1\AppData\Local\Temp\cc6haz4O.s:24040  .debug_str:0000000000013c3b .LASF1119
C:\Users\SOLDER~1\AppData\Local\Temp\cc6haz4O.s:20324  .debug_str:0000000000004b4b .LASF1120
C:\Users\SOLDER~1\AppData\Local\Temp\cc6haz4O.s:26590  .debug_str:000000000001e09a .LASF1121
C:\Users\SOLDER~1\AppData\Local\Temp\cc6haz4O.s:21416  .debug_str:0000000000009220 .LASF1122
C:\Users\SOLDER~1\AppData\Local\Temp\cc6haz4O.s:29032  .debug_str:0000000000027f84 .LASF1123
C:\Users\SOLDER~1\AppData\Local\Temp\cc6haz4O.s:24284  .debug_str:0000000000014ce2 .LASF1124
C:\Users\SOLDER~1\AppData\Local\Temp\cc6haz4O.s:21966  .debug_str:000000000000b612 .LASF1125
C:\Users\SOLDER~1\AppData\Local\Temp\cc6haz4O.s:30432  .debug_str:000000000002d9eb .LASF1126
C:\Users\SOLDER~1\AppData\Local\Temp\cc6haz4O.s:28530  .debug_str:0000000000025de9 .LASF1127
C:\Users\SOLDER~1\AppData\Local\Temp\cc6haz4O.s:27584  .debug_str:000000000002205d .LASF1128
C:\Users\SOLDER~1\AppData\Local\Temp\cc6haz4O.s:25254  .debug_str:0000000000018a0f .LASF1129
C:\Users\SOLDER~1\AppData\Local\Temp\cc6haz4O.s:25866  .debug_str:000000000001b189 .LASF1130
C:\Users\SOLDER~1\AppData\Local\Temp\cc6haz4O.s:21312  .debug_str:0000000000008b33 .LASF1131
C:\Users\SOLDER~1\AppData\Local\Temp\cc6haz4O.s:26888  .debug_str:000000000001f406 .LASF1132
C:\Users\SOLDER~1\AppData\Local\Temp\cc6haz4O.s:21882  .debug_str:000000000000b0c0 .LASF1133
C:\Users\SOLDER~1\AppData\Local\Temp\cc6haz4O.s:24910  .debug_str:0000000000017414 .LASF1134
C:\Users\SOLDER~1\AppData\Local\Temp\cc6haz4O.s:24282  .debug_str:0000000000014cbd .LASF1135
C:\Users\SOLDER~1\AppData\Local\Temp\cc6haz4O.s:24920  .debug_str:00000000000174bc .LASF1136
C:\Users\SOLDER~1\AppData\Local\Temp\cc6haz4O.s:26408  .debug_str:000000000001d4dc .LASF1137
C:\Users\SOLDER~1\AppData\Local\Temp\cc6haz4O.s:26826  .debug_str:000000000001efcc .LASF1138
C:\Users\SOLDER~1\AppData\Local\Temp\cc6haz4O.s:28132  .debug_str:00000000000243b6 .LASF1139
C:\Users\SOLDER~1\AppData\Local\Temp\cc6haz4O.s:19712  .debug_str:000000000000241d .LASF1140
C:\Users\SOLDER~1\AppData\Local\Temp\cc6haz4O.s:28396  .debug_str:00000000000254f2 .LASF1141
C:\Users\SOLDER~1\AppData\Local\Temp\cc6haz4O.s:27700  .debug_str:0000000000022780 .LASF1142
C:\Users\SOLDER~1\AppData\Local\Temp\cc6haz4O.s:26230  .debug_str:000000000001c8cb .LASF1143
C:\Users\SOLDER~1\AppData\Local\Temp\cc6haz4O.s:30002  .debug_str:000000000002bdcf .LASF1144
C:\Users\SOLDER~1\AppData\Local\Temp\cc6haz4O.s:26720  .debug_str:000000000001e8ec .LASF1145
C:\Users\SOLDER~1\AppData\Local\Temp\cc6haz4O.s:26484  .debug_str:000000000001d9a5 .LASF1146
C:\Users\SOLDER~1\AppData\Local\Temp\cc6haz4O.s:24794  .debug_str:0000000000016cd5 .LASF1147
C:\Users\SOLDER~1\AppData\Local\Temp\cc6haz4O.s:30116  .debug_str:000000000002c582 .LASF1148
C:\Users\SOLDER~1\AppData\Local\Temp\cc6haz4O.s:27406  .debug_str:00000000000214fb .LASF1149
C:\Users\SOLDER~1\AppData\Local\Temp\cc6haz4O.s:24516  .debug_str:0000000000015b9e .LASF1150
C:\Users\SOLDER~1\AppData\Local\Temp\cc6haz4O.s:26282  .debug_str:000000000001cc5b .LASF1151
C:\Users\SOLDER~1\AppData\Local\Temp\cc6haz4O.s:23332  .debug_str:0000000000010e53 .LASF1152
C:\Users\SOLDER~1\AppData\Local\Temp\cc6haz4O.s:21566  .debug_str:0000000000009bc0 .LASF1153
C:\Users\SOLDER~1\AppData\Local\Temp\cc6haz4O.s:25162  .debug_str:0000000000018463 .LASF1154
C:\Users\SOLDER~1\AppData\Local\Temp\cc6haz4O.s:19604  .debug_str:0000000000001cf3 .LASF1155
C:\Users\SOLDER~1\AppData\Local\Temp\cc6haz4O.s:24050  .debug_str:0000000000013d0d .LASF1156
C:\Users\SOLDER~1\AppData\Local\Temp\cc6haz4O.s:27162  .debug_str:0000000000020545 .LASF1157
C:\Users\SOLDER~1\AppData\Local\Temp\cc6haz4O.s:30540  .debug_str:000000000002e0d7 .LASF1158
C:\Users\SOLDER~1\AppData\Local\Temp\cc6haz4O.s:30548  .debug_str:000000000002e13d .LASF1159
C:\Users\SOLDER~1\AppData\Local\Temp\cc6haz4O.s:29128  .debug_str:00000000000285b3 .LASF1160
C:\Users\SOLDER~1\AppData\Local\Temp\cc6haz4O.s:25414  .debug_str:000000000001944f .LASF1161
C:\Users\SOLDER~1\AppData\Local\Temp\cc6haz4O.s:25186  .debug_str:00000000000185e1 .LASF1162
C:\Users\SOLDER~1\AppData\Local\Temp\cc6haz4O.s:28956  .debug_str:0000000000027aa8 .LASF1163
C:\Users\SOLDER~1\AppData\Local\Temp\cc6haz4O.s:19996  .debug_str:0000000000003683 .LASF1164
C:\Users\SOLDER~1\AppData\Local\Temp\cc6haz4O.s:28892  .debug_str:00000000000276b1 .LASF1165
C:\Users\SOLDER~1\AppData\Local\Temp\cc6haz4O.s:30602  .debug_str:000000000002e490 .LASF1166
C:\Users\SOLDER~1\AppData\Local\Temp\cc6haz4O.s:26948  .debug_str:000000000001f811 .LASF1167
C:\Users\SOLDER~1\AppData\Local\Temp\cc6haz4O.s:23916  .debug_str:00000000000133a3 .LASF1168
C:\Users\SOLDER~1\AppData\Local\Temp\cc6haz4O.s:29442  .debug_str:00000000000299e9 .LASF1169
C:\Users\SOLDER~1\AppData\Local\Temp\cc6haz4O.s:21352  .debug_str:0000000000008db0 .LASF1170
C:\Users\SOLDER~1\AppData\Local\Temp\cc6haz4O.s:27448  .debug_str:00000000000217b3 .LASF1171
C:\Users\SOLDER~1\AppData\Local\Temp\cc6haz4O.s:28296  .debug_str:0000000000024e7e .LASF1172
C:\Users\SOLDER~1\AppData\Local\Temp\cc6haz4O.s:26776  .debug_str:000000000001eca6 .LASF1173
C:\Users\SOLDER~1\AppData\Local\Temp\cc6haz4O.s:25172  .debug_str:000000000001850d .LASF1174
GAS LISTING C:\Users\SOLDER~1\AppData\Local\Temp\cc6haz4O.s 			page 43


C:\Users\SOLDER~1\AppData\Local\Temp\cc6haz4O.s:23128  .debug_str:0000000000010194 .LASF1175
C:\Users\SOLDER~1\AppData\Local\Temp\cc6haz4O.s:26978  .debug_str:000000000001f9fb .LASF1176
C:\Users\SOLDER~1\AppData\Local\Temp\cc6haz4O.s:24054  .debug_str:0000000000013d59 .LASF1177
C:\Users\SOLDER~1\AppData\Local\Temp\cc6haz4O.s:23792  .debug_str:0000000000012b6a .LASF1178
C:\Users\SOLDER~1\AppData\Local\Temp\cc6haz4O.s:21636  .debug_str:000000000000a071 .LASF1179
C:\Users\SOLDER~1\AppData\Local\Temp\cc6haz4O.s:23008  .debug_str:000000000000f976 .LASF1180
C:\Users\SOLDER~1\AppData\Local\Temp\cc6haz4O.s:25100  .debug_str:0000000000018049 .LASF1181
C:\Users\SOLDER~1\AppData\Local\Temp\cc6haz4O.s:28570  .debug_str:00000000000260c3 .LASF1182
C:\Users\SOLDER~1\AppData\Local\Temp\cc6haz4O.s:23190  .debug_str:000000000001057d .LASF1183
C:\Users\SOLDER~1\AppData\Local\Temp\cc6haz4O.s:28792  .debug_str:000000000002700b .LASF1184
C:\Users\SOLDER~1\AppData\Local\Temp\cc6haz4O.s:25692  .debug_str:000000000001a600 .LASF1185
C:\Users\SOLDER~1\AppData\Local\Temp\cc6haz4O.s:29212  .debug_str:0000000000028b38 .LASF1186
C:\Users\SOLDER~1\AppData\Local\Temp\cc6haz4O.s:23702  .debug_str:000000000001259d .LASF1187
C:\Users\SOLDER~1\AppData\Local\Temp\cc6haz4O.s:21726  .debug_str:000000000000a65c .LASF1188
C:\Users\SOLDER~1\AppData\Local\Temp\cc6haz4O.s:21056  .debug_str:0000000000007a5b .LASF1189
C:\Users\SOLDER~1\AppData\Local\Temp\cc6haz4O.s:19640  .debug_str:0000000000001f32 .LASF1190
C:\Users\SOLDER~1\AppData\Local\Temp\cc6haz4O.s:23430  .debug_str:000000000001146e .LASF1191
C:\Users\SOLDER~1\AppData\Local\Temp\cc6haz4O.s:20138  .debug_str:0000000000003fb7 .LASF1192
C:\Users\SOLDER~1\AppData\Local\Temp\cc6haz4O.s:30744  .debug_str:000000000002ede0 .LASF1193
C:\Users\SOLDER~1\AppData\Local\Temp\cc6haz4O.s:25728  .debug_str:000000000001a84d .LASF1194
C:\Users\SOLDER~1\AppData\Local\Temp\cc6haz4O.s:20900  .debug_str:0000000000007087 .LASF1195
C:\Users\SOLDER~1\AppData\Local\Temp\cc6haz4O.s:26428  .debug_str:000000000001d630 .LASF1196
C:\Users\SOLDER~1\AppData\Local\Temp\cc6haz4O.s:29990  .debug_str:000000000002bcf5 .LASF1197
C:\Users\SOLDER~1\AppData\Local\Temp\cc6haz4O.s:24482  .debug_str:0000000000015969 .LASF1198
C:\Users\SOLDER~1\AppData\Local\Temp\cc6haz4O.s:21522  .debug_str:0000000000009907 .LASF1199
C:\Users\SOLDER~1\AppData\Local\Temp\cc6haz4O.s:26970  .debug_str:000000000001f968 .LASF1200
C:\Users\SOLDER~1\AppData\Local\Temp\cc6haz4O.s:30532  .debug_str:000000000002e04c .LASF1201
C:\Users\SOLDER~1\AppData\Local\Temp\cc6haz4O.s:25132  .debug_str:0000000000018283 .LASF1202
C:\Users\SOLDER~1\AppData\Local\Temp\cc6haz4O.s:20470  .debug_str:0000000000005424 .LASF1203
C:\Users\SOLDER~1\AppData\Local\Temp\cc6haz4O.s:19698  .debug_str:0000000000002328 .LASF1204
C:\Users\SOLDER~1\AppData\Local\Temp\cc6haz4O.s:23872  .debug_str:00000000000130b9 .LASF1205
C:\Users\SOLDER~1\AppData\Local\Temp\cc6haz4O.s:27688  .debug_str:00000000000226a2 .LASF1206
C:\Users\SOLDER~1\AppData\Local\Temp\cc6haz4O.s:30444  .debug_str:000000000002daae .LASF1207
C:\Users\SOLDER~1\AppData\Local\Temp\cc6haz4O.s:29390  .debug_str:00000000000296aa .LASF1208
C:\Users\SOLDER~1\AppData\Local\Temp\cc6haz4O.s:29940  .debug_str:000000000002b9d9 .LASF1209
C:\Users\SOLDER~1\AppData\Local\Temp\cc6haz4O.s:28744  .debug_str:0000000000026cde .LASF1210
C:\Users\SOLDER~1\AppData\Local\Temp\cc6haz4O.s:22660  .debug_str:000000000000e356 .LASF1211
C:\Users\SOLDER~1\AppData\Local\Temp\cc6haz4O.s:26132  .debug_str:000000000001c247 .LASF1212
C:\Users\SOLDER~1\AppData\Local\Temp\cc6haz4O.s:20700  .debug_str:000000000000633c .LASF1213
C:\Users\SOLDER~1\AppData\Local\Temp\cc6haz4O.s:29806  .debug_str:000000000002b142 .LASF1214
C:\Users\SOLDER~1\AppData\Local\Temp\cc6haz4O.s:20556  .debug_str:00000000000059b1 .LASF1215
C:\Users\SOLDER~1\AppData\Local\Temp\cc6haz4O.s:26748  .debug_str:000000000001eac5 .LASF1216
C:\Users\SOLDER~1\AppData\Local\Temp\cc6haz4O.s:21326  .debug_str:0000000000008c0d .LASF1217
C:\Users\SOLDER~1\AppData\Local\Temp\cc6haz4O.s:19920  .debug_str:00000000000031a7 .LASF1218
C:\Users\SOLDER~1\AppData\Local\Temp\cc6haz4O.s:27980  .debug_str:00000000000239e9 .LASF1219
C:\Users\SOLDER~1\AppData\Local\Temp\cc6haz4O.s:27694  .debug_str:0000000000022702 .LASF1220
C:\Users\SOLDER~1\AppData\Local\Temp\cc6haz4O.s:26264  .debug_str:000000000001cb0a .LASF1221
C:\Users\SOLDER~1\AppData\Local\Temp\cc6haz4O.s:23764  .debug_str:00000000000129a3 .LASF1222
C:\Users\SOLDER~1\AppData\Local\Temp\cc6haz4O.s:20554  .debug_str:000000000000598e .LASF1223
C:\Users\SOLDER~1\AppData\Local\Temp\cc6haz4O.s:21998  .debug_str:000000000000b804 .LASF1224
C:\Users\SOLDER~1\AppData\Local\Temp\cc6haz4O.s:21470  .debug_str:00000000000095b5 .LASF1225
C:\Users\SOLDER~1\AppData\Local\Temp\cc6haz4O.s:22920  .debug_str:000000000000f3dd .LASF1226
C:\Users\SOLDER~1\AppData\Local\Temp\cc6haz4O.s:28118  .debug_str:00000000000242c1 .LASF1227
C:\Users\SOLDER~1\AppData\Local\Temp\cc6haz4O.s:21870  .debug_str:000000000000aff7 .LASF1228
C:\Users\SOLDER~1\AppData\Local\Temp\cc6haz4O.s:22962  .debug_str:000000000000f678 .LASF1229
C:\Users\SOLDER~1\AppData\Local\Temp\cc6haz4O.s:26302  .debug_str:000000000001cdad .LASF1230
C:\Users\SOLDER~1\AppData\Local\Temp\cc6haz4O.s:23956  .debug_str:0000000000013644 .LASF1231
GAS LISTING C:\Users\SOLDER~1\AppData\Local\Temp\cc6haz4O.s 			page 44


C:\Users\SOLDER~1\AppData\Local\Temp\cc6haz4O.s:25110  .debug_str:0000000000018112 .LASF1232
C:\Users\SOLDER~1\AppData\Local\Temp\cc6haz4O.s:23290  .debug_str:0000000000010bcd .LASF1233
C:\Users\SOLDER~1\AppData\Local\Temp\cc6haz4O.s:20848  .debug_str:0000000000006cf1 .LASF1234
C:\Users\SOLDER~1\AppData\Local\Temp\cc6haz4O.s:24008  .debug_str:00000000000139d9 .LASF1235
C:\Users\SOLDER~1\AppData\Local\Temp\cc6haz4O.s:20488  .debug_str:0000000000005533 .LASF1236
C:\Users\SOLDER~1\AppData\Local\Temp\cc6haz4O.s:28714  .debug_str:0000000000026abf .LASF1237
C:\Users\SOLDER~1\AppData\Local\Temp\cc6haz4O.s:25566  .debug_str:0000000000019e20 .LASF1238
C:\Users\SOLDER~1\AppData\Local\Temp\cc6haz4O.s:22696  .debug_str:000000000000e5a8 .LASF1239
C:\Users\SOLDER~1\AppData\Local\Temp\cc6haz4O.s:30364  .debug_str:000000000002d59c .LASF1240
C:\Users\SOLDER~1\AppData\Local\Temp\cc6haz4O.s:27856  .debug_str:00000000000231c2 .LASF1241
C:\Users\SOLDER~1\AppData\Local\Temp\cc6haz4O.s:26540  .debug_str:000000000001dd0d .LASF1242
C:\Users\SOLDER~1\AppData\Local\Temp\cc6haz4O.s:26764  .debug_str:000000000001ebe6 .LASF1243
C:\Users\SOLDER~1\AppData\Local\Temp\cc6haz4O.s:19904  .debug_str:00000000000030b3 .LASF1244
C:\Users\SOLDER~1\AppData\Local\Temp\cc6haz4O.s:22646  .debug_str:000000000000e258 .LASF1245
C:\Users\SOLDER~1\AppData\Local\Temp\cc6haz4O.s:29238  .debug_str:0000000000028ce6 .LASF1246
C:\Users\SOLDER~1\AppData\Local\Temp\cc6haz4O.s:28772  .debug_str:0000000000026ebc .LASF1247
C:\Users\SOLDER~1\AppData\Local\Temp\cc6haz4O.s:28546  .debug_str:0000000000025f04 .LASF1248
C:\Users\SOLDER~1\AppData\Local\Temp\cc6haz4O.s:28582  .debug_str:0000000000026197 .LASF1249
C:\Users\SOLDER~1\AppData\Local\Temp\cc6haz4O.s:22228  .debug_str:000000000000c6de .LASF1250
C:\Users\SOLDER~1\AppData\Local\Temp\cc6haz4O.s:30386  .debug_str:000000000002d6d4 .LASF1251
C:\Users\SOLDER~1\AppData\Local\Temp\cc6haz4O.s:26988  .debug_str:000000000001fa7b .LASF1252
C:\Users\SOLDER~1\AppData\Local\Temp\cc6haz4O.s:23780  .debug_str:0000000000012a86 .LASF1253
C:\Users\SOLDER~1\AppData\Local\Temp\cc6haz4O.s:25836  .debug_str:000000000001afcb .LASF1254
C:\Users\SOLDER~1\AppData\Local\Temp\cc6haz4O.s:28576  .debug_str:000000000002612c .LASF1255
C:\Users\SOLDER~1\AppData\Local\Temp\cc6haz4O.s:26148  .debug_str:000000000001c384 .LASF1256
C:\Users\SOLDER~1\AppData\Local\Temp\cc6haz4O.s:24830  .debug_str:0000000000016eca .LASF1257
C:\Users\SOLDER~1\AppData\Local\Temp\cc6haz4O.s:25144  .debug_str:0000000000018354 .LASF1258
C:\Users\SOLDER~1\AppData\Local\Temp\cc6haz4O.s:29786  .debug_str:000000000002aff5 .LASF1259
C:\Users\SOLDER~1\AppData\Local\Temp\cc6haz4O.s:23200  .debug_str:000000000001062f .LASF1260
C:\Users\SOLDER~1\AppData\Local\Temp\cc6haz4O.s:28592  .debug_str:0000000000026248 .LASF1261
C:\Users\SOLDER~1\AppData\Local\Temp\cc6haz4O.s:29738  .debug_str:000000000002ad12 .LASF1262
C:\Users\SOLDER~1\AppData\Local\Temp\cc6haz4O.s:27830  .debug_str:0000000000023009 .LASF1263
C:\Users\SOLDER~1\AppData\Local\Temp\cc6haz4O.s:19370  .debug_str:0000000000000e43 .LASF1264
C:\Users\SOLDER~1\AppData\Local\Temp\cc6haz4O.s:27794  .debug_str:0000000000022ddc .LASF1265
C:\Users\SOLDER~1\AppData\Local\Temp\cc6haz4O.s:24354  .debug_str:0000000000015158 .LASF1266
C:\Users\SOLDER~1\AppData\Local\Temp\cc6haz4O.s:20954  .debug_str:000000000000740f .LASF1267
C:\Users\SOLDER~1\AppData\Local\Temp\cc6haz4O.s:29378  .debug_str:00000000000295d0 .LASF1268
C:\Users\SOLDER~1\AppData\Local\Temp\cc6haz4O.s:19772  .debug_str:0000000000002810 .LASF1269
C:\Users\SOLDER~1\AppData\Local\Temp\cc6haz4O.s:22560  .debug_str:000000000000dc64 .LASF1270
C:\Users\SOLDER~1\AppData\Local\Temp\cc6haz4O.s:20098  .debug_str:0000000000003d2e .LASF1271
C:\Users\SOLDER~1\AppData\Local\Temp\cc6haz4O.s:28150  .debug_str:00000000000244de .LASF1272
C:\Users\SOLDER~1\AppData\Local\Temp\cc6haz4O.s:30708  .debug_str:000000000002eba8 .LASF1273
C:\Users\SOLDER~1\AppData\Local\Temp\cc6haz4O.s:23840  .debug_str:0000000000012ec0 .LASF1274
C:\Users\SOLDER~1\AppData\Local\Temp\cc6haz4O.s:25708  .debug_str:000000000001a6f3 .LASF1275
C:\Users\SOLDER~1\AppData\Local\Temp\cc6haz4O.s:20720  .debug_str:000000000000648c .LASF1276
C:\Users\SOLDER~1\AppData\Local\Temp\cc6haz4O.s:21836  .debug_str:000000000000adaf .LASF1277
C:\Users\SOLDER~1\AppData\Local\Temp\cc6haz4O.s:20048  .debug_str:00000000000039ec .LASF1278
C:\Users\SOLDER~1\AppData\Local\Temp\cc6haz4O.s:19570  .debug_str:0000000000001a8f .LASF1279
C:\Users\SOLDER~1\AppData\Local\Temp\cc6haz4O.s:20978  .debug_str:0000000000007597 .LASF1280
C:\Users\SOLDER~1\AppData\Local\Temp\cc6haz4O.s:20172  .debug_str:00000000000041ad .LASF1281
C:\Users\SOLDER~1\AppData\Local\Temp\cc6haz4O.s:23524  .debug_str:0000000000011aad .LASF1282
C:\Users\SOLDER~1\AppData\Local\Temp\cc6haz4O.s:29636  .debug_str:000000000002a68f .LASF1283
C:\Users\SOLDER~1\AppData\Local\Temp\cc6haz4O.s:24774  .debug_str:0000000000016b91 .LASF1284
C:\Users\SOLDER~1\AppData\Local\Temp\cc6haz4O.s:22594  .debug_str:000000000000debc .LASF1285
C:\Users\SOLDER~1\AppData\Local\Temp\cc6haz4O.s:19202  .debug_str:000000000000021c .LASF1286
C:\Users\SOLDER~1\AppData\Local\Temp\cc6haz4O.s:29036  .debug_str:0000000000027fc6 .LASF1287
C:\Users\SOLDER~1\AppData\Local\Temp\cc6haz4O.s:24090  .debug_str:0000000000013fc6 .LASF1288
GAS LISTING C:\Users\SOLDER~1\AppData\Local\Temp\cc6haz4O.s 			page 45


C:\Users\SOLDER~1\AppData\Local\Temp\cc6haz4O.s:30020  .debug_str:000000000002beee .LASF1289
C:\Users\SOLDER~1\AppData\Local\Temp\cc6haz4O.s:22904  .debug_str:000000000000f2d0 .LASF1290
C:\Users\SOLDER~1\AppData\Local\Temp\cc6haz4O.s:21942  .debug_str:000000000000b44f .LASF1291
C:\Users\SOLDER~1\AppData\Local\Temp\cc6haz4O.s:29630  .debug_str:000000000002a62c .LASF1292
C:\Users\SOLDER~1\AppData\Local\Temp\cc6haz4O.s:27538  .debug_str:0000000000021d5e .LASF1293
C:\Users\SOLDER~1\AppData\Local\Temp\cc6haz4O.s:29060  .debug_str:000000000002814a .LASF1294
C:\Users\SOLDER~1\AppData\Local\Temp\cc6haz4O.s:24404  .debug_str:00000000000154a3 .LASF1295
C:\Users\SOLDER~1\AppData\Local\Temp\cc6haz4O.s:22296  .debug_str:000000000000cb63 .LASF1296
C:\Users\SOLDER~1\AppData\Local\Temp\cc6haz4O.s:30506  .debug_str:000000000002de98 .LASF1297
C:\Users\SOLDER~1\AppData\Local\Temp\cc6haz4O.s:21148  .debug_str:0000000000008074 .LASF1298
C:\Users\SOLDER~1\AppData\Local\Temp\cc6haz4O.s:22568  .debug_str:000000000000dcea .LASF1299
C:\Users\SOLDER~1\AppData\Local\Temp\cc6haz4O.s:29894  .debug_str:000000000002b700 .LASF1300
C:\Users\SOLDER~1\AppData\Local\Temp\cc6haz4O.s:24340  .debug_str:0000000000015080 .LASF1301
C:\Users\SOLDER~1\AppData\Local\Temp\cc6haz4O.s:22402  .debug_str:000000000000d258 .LASF1302
C:\Users\SOLDER~1\AppData\Local\Temp\cc6haz4O.s:27840  .debug_str:00000000000230b2 .LASF1303
C:\Users\SOLDER~1\AppData\Local\Temp\cc6haz4O.s:23346  .debug_str:0000000000010f45 .LASF1304
C:\Users\SOLDER~1\AppData\Local\Temp\cc6haz4O.s:26188  .debug_str:000000000001c60c .LASF1305
C:\Users\SOLDER~1\AppData\Local\Temp\cc6haz4O.s:21626  .debug_str:0000000000009fbc .LASF1306
C:\Users\SOLDER~1\AppData\Local\Temp\cc6haz4O.s:30064  .debug_str:000000000002c216 .LASF1307
C:\Users\SOLDER~1\AppData\Local\Temp\cc6haz4O.s:29140  .debug_str:000000000002868a .LASF1308
C:\Users\SOLDER~1\AppData\Local\Temp\cc6haz4O.s:24074  .debug_str:0000000000013ea5 .LASF1309
C:\Users\SOLDER~1\AppData\Local\Temp\cc6haz4O.s:25738  .debug_str:000000000001a8ff .LASF1310
C:\Users\SOLDER~1\AppData\Local\Temp\cc6haz4O.s:23886  .debug_str:000000000001319e .LASF1311
C:\Users\SOLDER~1\AppData\Local\Temp\cc6haz4O.s:29960  .debug_str:000000000002bb29 .LASF1312
C:\Users\SOLDER~1\AppData\Local\Temp\cc6haz4O.s:24510  .debug_str:0000000000015b32 .LASF1313
C:\Users\SOLDER~1\AppData\Local\Temp\cc6haz4O.s:24776  .debug_str:0000000000016bb5 .LASF1314
C:\Users\SOLDER~1\AppData\Local\Temp\cc6haz4O.s:30732  .debug_str:000000000002ed1d .LASF1315
C:\Users\SOLDER~1\AppData\Local\Temp\cc6haz4O.s:19812  .debug_str:0000000000002acc .LASF1316
C:\Users\SOLDER~1\AppData\Local\Temp\cc6haz4O.s:26916  .debug_str:000000000001f5f1 .LASF1317
C:\Users\SOLDER~1\AppData\Local\Temp\cc6haz4O.s:23494  .debug_str:0000000000011898 .LASF1318
C:\Users\SOLDER~1\AppData\Local\Temp\cc6haz4O.s:21716  .debug_str:000000000000a5ac .LASF1319
C:\Users\SOLDER~1\AppData\Local\Temp\cc6haz4O.s:24450  .debug_str:00000000000157b7 .LASF1320
C:\Users\SOLDER~1\AppData\Local\Temp\cc6haz4O.s:26248  .debug_str:000000000001c9ff .LASF1321
C:\Users\SOLDER~1\AppData\Local\Temp\cc6haz4O.s:30792  .debug_str:000000000002f0c8 .LASF1322
C:\Users\SOLDER~1\AppData\Local\Temp\cc6haz4O.s:29724  .debug_str:000000000002ac0e .LASF1323
C:\Users\SOLDER~1\AppData\Local\Temp\cc6haz4O.s:25886  .debug_str:000000000001b294 .LASF1324
C:\Users\SOLDER~1\AppData\Local\Temp\cc6haz4O.s:23796  .debug_str:0000000000012bb6 .LASF1325
C:\Users\SOLDER~1\AppData\Local\Temp\cc6haz4O.s:25350  .debug_str:000000000001906e .LASF1326
C:\Users\SOLDER~1\AppData\Local\Temp\cc6haz4O.s:20620  .debug_str:0000000000005df2 .LASF1327
C:\Users\SOLDER~1\AppData\Local\Temp\cc6haz4O.s:30178  .debug_str:000000000002c972 .LASF1328
C:\Users\SOLDER~1\AppData\Local\Temp\cc6haz4O.s:20110  .debug_str:0000000000003dec .LASF1329
C:\Users\SOLDER~1\AppData\Local\Temp\cc6haz4O.s:28996  .debug_str:0000000000027ced .LASF1330
C:\Users\SOLDER~1\AppData\Local\Temp\cc6haz4O.s:19362  .debug_str:0000000000000dab .LASF1331
C:\Users\SOLDER~1\AppData\Local\Temp\cc6haz4O.s:29818  .debug_str:000000000002b24e .LASF1332
C:\Users\SOLDER~1\AppData\Local\Temp\cc6haz4O.s:28308  .debug_str:0000000000024f59 .LASF1333
C:\Users\SOLDER~1\AppData\Local\Temp\cc6haz4O.s:30282  .debug_str:000000000002cfed .LASF1334
C:\Users\SOLDER~1\AppData\Local\Temp\cc6haz4O.s:24128  .debug_str:0000000000014237 .LASF1335
C:\Users\SOLDER~1\AppData\Local\Temp\cc6haz4O.s:21650  .debug_str:000000000000a136 .LASF1336
C:\Users\SOLDER~1\AppData\Local\Temp\cc6haz4O.s:22412  .debug_str:000000000000d30d .LASF1337
C:\Users\SOLDER~1\AppData\Local\Temp\cc6haz4O.s:29508  .debug_str:0000000000029e07 .LASF1338
C:\Users\SOLDER~1\AppData\Local\Temp\cc6haz4O.s:26294  .debug_str:000000000001cd3d .LASF1339
C:\Users\SOLDER~1\AppData\Local\Temp\cc6haz4O.s:25418  .debug_str:0000000000019490 .LASF1340
C:\Users\SOLDER~1\AppData\Local\Temp\cc6haz4O.s:20280  .debug_str:0000000000004881 .LASF1341
C:\Users\SOLDER~1\AppData\Local\Temp\cc6haz4O.s:21938  .debug_str:000000000000b417 .LASF1342
C:\Users\SOLDER~1\AppData\Local\Temp\cc6haz4O.s:28146  .debug_str:000000000002448c .LASF1343
C:\Users\SOLDER~1\AppData\Local\Temp\cc6haz4O.s:22528  .debug_str:000000000000daa2 .LASF1344
C:\Users\SOLDER~1\AppData\Local\Temp\cc6haz4O.s:28678  .debug_str:000000000002681f .LASF1345
GAS LISTING C:\Users\SOLDER~1\AppData\Local\Temp\cc6haz4O.s 			page 46


C:\Users\SOLDER~1\AppData\Local\Temp\cc6haz4O.s:23446  .debug_str:0000000000011598 .LASF1346
C:\Users\SOLDER~1\AppData\Local\Temp\cc6haz4O.s:27360  .debug_str:00000000000211eb .LASF1347
C:\Users\SOLDER~1\AppData\Local\Temp\cc6haz4O.s:24144  .debug_str:0000000000014370 .LASF1348
C:\Users\SOLDER~1\AppData\Local\Temp\cc6haz4O.s:19586  .debug_str:0000000000001b97 .LASF1349
C:\Users\SOLDER~1\AppData\Local\Temp\cc6haz4O.s:27764  .debug_str:0000000000022bd8 .LASF1350
C:\Users\SOLDER~1\AppData\Local\Temp\cc6haz4O.s:25964  .debug_str:000000000001b7aa .LASF1351
C:\Users\SOLDER~1\AppData\Local\Temp\cc6haz4O.s:21790  .debug_str:000000000000aab3 .LASF1352
C:\Users\SOLDER~1\AppData\Local\Temp\cc6haz4O.s:22470  .debug_str:000000000000d6e3 .LASF1353
C:\Users\SOLDER~1\AppData\Local\Temp\cc6haz4O.s:26920  .debug_str:000000000001f63c .LASF1354
C:\Users\SOLDER~1\AppData\Local\Temp\cc6haz4O.s:25986  .debug_str:000000000001b8fa .LASF1355
C:\Users\SOLDER~1\AppData\Local\Temp\cc6haz4O.s:22102  .debug_str:000000000000be8a .LASF1356
C:\Users\SOLDER~1\AppData\Local\Temp\cc6haz4O.s:20030  .debug_str:00000000000038be .LASF1357
C:\Users\SOLDER~1\AppData\Local\Temp\cc6haz4O.s:21544  .debug_str:0000000000009a7c .LASF1358
C:\Users\SOLDER~1\AppData\Local\Temp\cc6haz4O.s:28370  .debug_str:0000000000025347 .LASF1359
C:\Users\SOLDER~1\AppData\Local\Temp\cc6haz4O.s:26400  .debug_str:000000000001d443 .LASF1360
C:\Users\SOLDER~1\AppData\Local\Temp\cc6haz4O.s:27942  .debug_str:0000000000023791 .LASF1361
C:\Users\SOLDER~1\AppData\Local\Temp\cc6haz4O.s:25288  .debug_str:0000000000018c50 .LASF1362
C:\Users\SOLDER~1\AppData\Local\Temp\cc6haz4O.s:27202  .debug_str:00000000000207e6 .LASF1363
C:\Users\SOLDER~1\AppData\Local\Temp\cc6haz4O.s:20564  .debug_str:0000000000005a37 .LASF1364
C:\Users\SOLDER~1\AppData\Local\Temp\cc6haz4O.s:24502  .debug_str:0000000000015ab4 .LASF1365
C:\Users\SOLDER~1\AppData\Local\Temp\cc6haz4O.s:26506  .debug_str:000000000001dac3 .LASF1366
C:\Users\SOLDER~1\AppData\Local\Temp\cc6haz4O.s:24716  .debug_str:00000000000167d8 .LASF1367
C:\Users\SOLDER~1\AppData\Local\Temp\cc6haz4O.s:29530  .debug_str:0000000000029f9f .LASF1368
C:\Users\SOLDER~1\AppData\Local\Temp\cc6haz4O.s:30292  .debug_str:000000000002d0a2 .LASF1369
C:\Users\SOLDER~1\AppData\Local\Temp\cc6haz4O.s:30308  .debug_str:000000000002d1cc .LASF1370
C:\Users\SOLDER~1\AppData\Local\Temp\cc6haz4O.s:22518  .debug_str:000000000000d9fd .LASF1371
C:\Users\SOLDER~1\AppData\Local\Temp\cc6haz4O.s:21604  .debug_str:0000000000009e29 .LASF1372
C:\Users\SOLDER~1\AppData\Local\Temp\cc6haz4O.s:28124  .debug_str:0000000000024335 .LASF1373
C:\Users\SOLDER~1\AppData\Local\Temp\cc6haz4O.s:29820  .debug_str:000000000002b273 .LASF1374
C:\Users\SOLDER~1\AppData\Local\Temp\cc6haz4O.s:20766  .debug_str:0000000000006799 .LASF1375
C:\Users\SOLDER~1\AppData\Local\Temp\cc6haz4O.s:23844  .debug_str:0000000000012ef4 .LASF1376
C:\Users\SOLDER~1\AppData\Local\Temp\cc6haz4O.s:21382  .debug_str:0000000000008fcd .LASF1377
C:\Users\SOLDER~1\AppData\Local\Temp\cc6haz4O.s:26390  .debug_str:000000000001d39c .LASF1378
C:\Users\SOLDER~1\AppData\Local\Temp\cc6haz4O.s:27672  .debug_str:0000000000022594 .LASF1379
C:\Users\SOLDER~1\AppData\Local\Temp\cc6haz4O.s:28486  .debug_str:0000000000025ada .LASF1380
C:\Users\SOLDER~1\AppData\Local\Temp\cc6haz4O.s:23800  .debug_str:0000000000012bf2 .LASF1381
C:\Users\SOLDER~1\AppData\Local\Temp\cc6haz4O.s:20382  .debug_str:0000000000004eea .LASF1382
C:\Users\SOLDER~1\AppData\Local\Temp\cc6haz4O.s:30264  .debug_str:000000000002cea6 .LASF1383
C:\Users\SOLDER~1\AppData\Local\Temp\cc6haz4O.s:21330  .debug_str:0000000000008c4b .LASF1384
C:\Users\SOLDER~1\AppData\Local\Temp\cc6haz4O.s:30356  .debug_str:000000000002d50b .LASF1385
C:\Users\SOLDER~1\AppData\Local\Temp\cc6haz4O.s:23166  .debug_str:00000000000103c7 .LASF1386
C:\Users\SOLDER~1\AppData\Local\Temp\cc6haz4O.s:29730  .debug_str:000000000002ac7c .LASF1387
C:\Users\SOLDER~1\AppData\Local\Temp\cc6haz4O.s:29974  .debug_str:000000000002bbf6 .LASF1388
C:\Users\SOLDER~1\AppData\Local\Temp\cc6haz4O.s:27864  .debug_str:0000000000023255 .LASF1389
C:\Users\SOLDER~1\AppData\Local\Temp\cc6haz4O.s:29410  .debug_str:00000000000297f8 .LASF1390
C:\Users\SOLDER~1\AppData\Local\Temp\cc6haz4O.s:24656  .debug_str:0000000000016449 .LASF1391
C:\Users\SOLDER~1\AppData\Local\Temp\cc6haz4O.s:24990  .debug_str:0000000000017925 .LASF1392
C:\Users\SOLDER~1\AppData\Local\Temp\cc6haz4O.s:24242  .debug_str:00000000000149f3 .LASF1393
C:\Users\SOLDER~1\AppData\Local\Temp\cc6haz4O.s:23266  .debug_str:0000000000010a53 .LASF1394
C:\Users\SOLDER~1\AppData\Local\Temp\cc6haz4O.s:23458  .debug_str:000000000001167f .LASF1395
C:\Users\SOLDER~1\AppData\Local\Temp\cc6haz4O.s:28410  .debug_str:00000000000255b7 .LASF1396
C:\Users\SOLDER~1\AppData\Local\Temp\cc6haz4O.s:20714  .debug_str:0000000000006416 .LASF1397
C:\Users\SOLDER~1\AppData\Local\Temp\cc6haz4O.s:22736  .debug_str:000000000000e7fe .LASF1398
C:\Users\SOLDER~1\AppData\Local\Temp\cc6haz4O.s:28170  .debug_str:000000000002462d .LASF1399
C:\Users\SOLDER~1\AppData\Local\Temp\cc6haz4O.s:25782  .debug_str:000000000001abda .LASF1400
C:\Users\SOLDER~1\AppData\Local\Temp\cc6haz4O.s:26424  .debug_str:000000000001d5f3 .LASF1401
C:\Users\SOLDER~1\AppData\Local\Temp\cc6haz4O.s:21962  .debug_str:000000000000b5db .LASF1402
GAS LISTING C:\Users\SOLDER~1\AppData\Local\Temp\cc6haz4O.s 			page 47


C:\Users\SOLDER~1\AppData\Local\Temp\cc6haz4O.s:28290  .debug_str:0000000000024e1c .LASF1403
C:\Users\SOLDER~1\AppData\Local\Temp\cc6haz4O.s:29484  .debug_str:0000000000029c7e .LASF1404
C:\Users\SOLDER~1\AppData\Local\Temp\cc6haz4O.s:24400  .debug_str:000000000001545f .LASF1405
C:\Users\SOLDER~1\AppData\Local\Temp\cc6haz4O.s:26068  .debug_str:000000000001be07 .LASF1406
C:\Users\SOLDER~1\AppData\Local\Temp\cc6haz4O.s:25124  .debug_str:0000000000018215 .LASF1407
C:\Users\SOLDER~1\AppData\Local\Temp\cc6haz4O.s:26804  .debug_str:000000000001ee64 .LASF1408
C:\Users\SOLDER~1\AppData\Local\Temp\cc6haz4O.s:25710  .debug_str:000000000001a715 .LASF1409
C:\Users\SOLDER~1\AppData\Local\Temp\cc6haz4O.s:20414  .debug_str:00000000000050c3 .LASF1410
C:\Users\SOLDER~1\AppData\Local\Temp\cc6haz4O.s:20282  .debug_str:00000000000048a6 .LASF1411
C:\Users\SOLDER~1\AppData\Local\Temp\cc6haz4O.s:21014  .debug_str:00000000000077e2 .LASF1412
C:\Users\SOLDER~1\AppData\Local\Temp\cc6haz4O.s:28076  .debug_str:0000000000024011 .LASF1413
C:\Users\SOLDER~1\AppData\Local\Temp\cc6haz4O.s:24724  .debug_str:0000000000016847 .LASF1414
C:\Users\SOLDER~1\AppData\Local\Temp\cc6haz4O.s:22928  .debug_str:000000000000f45c .LASF1415
C:\Users\SOLDER~1\AppData\Local\Temp\cc6haz4O.s:25670  .debug_str:000000000001a477 .LASF1416
C:\Users\SOLDER~1\AppData\Local\Temp\cc6haz4O.s:26482  .debug_str:000000000001d980 .LASF1417
C:\Users\SOLDER~1\AppData\Local\Temp\cc6haz4O.s:19400  .debug_str:0000000000000fe9 .LASF1418
C:\Users\SOLDER~1\AppData\Local\Temp\cc6haz4O.s:30068  .debug_str:000000000002c25d .LASF1419
C:\Users\SOLDER~1\AppData\Local\Temp\cc6haz4O.s:26206  .debug_str:000000000001c722 .LASF1420
C:\Users\SOLDER~1\AppData\Local\Temp\cc6haz4O.s:19348  .debug_str:0000000000000c9e .LASF1421
C:\Users\SOLDER~1\AppData\Local\Temp\cc6haz4O.s:25674  .debug_str:000000000001a4bc .LASF1422
C:\Users\SOLDER~1\AppData\Local\Temp\cc6haz4O.s:20864  .debug_str:0000000000006def .LASF1423
C:\Users\SOLDER~1\AppData\Local\Temp\cc6haz4O.s:30524  .debug_str:000000000002dfb5 .LASF1424
C:\Users\SOLDER~1\AppData\Local\Temp\cc6haz4O.s:20444  .debug_str:0000000000005276 .LASF1425
C:\Users\SOLDER~1\AppData\Local\Temp\cc6haz4O.s:29342  .debug_str:0000000000029379 .LASF1426
C:\Users\SOLDER~1\AppData\Local\Temp\cc6haz4O.s:27200  .debug_str:00000000000207c1 .LASF1427
C:\Users\SOLDER~1\AppData\Local\Temp\cc6haz4O.s:24604  .debug_str:000000000001610b .LASF1428
C:\Users\SOLDER~1\AppData\Local\Temp\cc6haz4O.s:28552  .debug_str:0000000000025f61 .LASF1429
C:\Users\SOLDER~1\AppData\Local\Temp\cc6haz4O.s:30630  .debug_str:000000000002e658 .LASF1430
C:\Users\SOLDER~1\AppData\Local\Temp\cc6haz4O.s:19960  .debug_str:000000000000343d .LASF1431
C:\Users\SOLDER~1\AppData\Local\Temp\cc6haz4O.s:21978  .debug_str:000000000000b6d5 .LASF1432
C:\Users\SOLDER~1\AppData\Local\Temp\cc6haz4O.s:22656  .debug_str:000000000000e30f .LASF1433
C:\Users\SOLDER~1\AppData\Local\Temp\cc6haz4O.s:29840  .debug_str:000000000002b3ad .LASF1434
C:\Users\SOLDER~1\AppData\Local\Temp\cc6haz4O.s:26628  .debug_str:000000000001e2f7 .LASF1435
C:\Users\SOLDER~1\AppData\Local\Temp\cc6haz4O.s:21272  .debug_str:0000000000008889 .LASF1436
C:\Users\SOLDER~1\AppData\Local\Temp\cc6haz4O.s:20614  .debug_str:0000000000005d80 .LASF1437
C:\Users\SOLDER~1\AppData\Local\Temp\cc6haz4O.s:22274  .debug_str:000000000000c9d4 .LASF1438
C:\Users\SOLDER~1\AppData\Local\Temp\cc6haz4O.s:29386  .debug_str:0000000000029661 .LASF1439
C:\Users\SOLDER~1\AppData\Local\Temp\cc6haz4O.s:23826  .debug_str:0000000000012dc3 .LASF1440
C:\Users\SOLDER~1\AppData\Local\Temp\cc6haz4O.s:30004  .debug_str:000000000002bdf6 .LASF1441
C:\Users\SOLDER~1\AppData\Local\Temp\cc6haz4O.s:24658  .debug_str:000000000001646e .LASF1442
C:\Users\SOLDER~1\AppData\Local\Temp\cc6haz4O.s:24614  .debug_str:00000000000161a0 .LASF1443
C:\Users\SOLDER~1\AppData\Local\Temp\cc6haz4O.s:27172  .debug_str:00000000000205e0 .LASF1444
C:\Users\SOLDER~1\AppData\Local\Temp\cc6haz4O.s:20784  .debug_str:00000000000068c5 .LASF1445
C:\Users\SOLDER~1\AppData\Local\Temp\cc6haz4O.s:22730  .debug_str:000000000000e798 .LASF1446
C:\Users\SOLDER~1\AppData\Local\Temp\cc6haz4O.s:27226  .debug_str:000000000002097d .LASF1447
C:\Users\SOLDER~1\AppData\Local\Temp\cc6haz4O.s:29954  .debug_str:000000000002babf .LASF1448
C:\Users\SOLDER~1\AppData\Local\Temp\cc6haz4O.s:21284  .debug_str:0000000000008950 .LASF1449
C:\Users\SOLDER~1\AppData\Local\Temp\cc6haz4O.s:27236  .debug_str:0000000000020a1f .LASF1450
C:\Users\SOLDER~1\AppData\Local\Temp\cc6haz4O.s:24142  .debug_str:000000000001434b .LASF1451
C:\Users\SOLDER~1\AppData\Local\Temp\cc6haz4O.s:22426  .debug_str:000000000000d3f6 .LASF1452
C:\Users\SOLDER~1\AppData\Local\Temp\cc6haz4O.s:20362  .debug_str:0000000000004dd4 .LASF1453
C:\Users\SOLDER~1\AppData\Local\Temp\cc6haz4O.s:21868  .debug_str:000000000000afd2 .LASF1454
C:\Users\SOLDER~1\AppData\Local\Temp\cc6haz4O.s:28710  .debug_str:0000000000026a72 .LASF1455
C:\Users\SOLDER~1\AppData\Local\Temp\cc6haz4O.s:19330  .debug_str:0000000000000b64 .LASF1456
C:\Users\SOLDER~1\AppData\Local\Temp\cc6haz4O.s:28280  .debug_str:0000000000024d7a .LASF1457
C:\Users\SOLDER~1\AppData\Local\Temp\cc6haz4O.s:25518  .debug_str:0000000000019b0a .LASF1458
C:\Users\SOLDER~1\AppData\Local\Temp\cc6haz4O.s:27522  .debug_str:0000000000021c7c .LASF1459
GAS LISTING C:\Users\SOLDER~1\AppData\Local\Temp\cc6haz4O.s 			page 48


C:\Users\SOLDER~1\AppData\Local\Temp\cc6haz4O.s:20746  .debug_str:000000000000663c .LASF1460
C:\Users\SOLDER~1\AppData\Local\Temp\cc6haz4O.s:24860  .debug_str:0000000000017093 .LASF1461
C:\Users\SOLDER~1\AppData\Local\Temp\cc6haz4O.s:24786  .debug_str:0000000000016c66 .LASF1462
C:\Users\SOLDER~1\AppData\Local\Temp\cc6haz4O.s:20674  .debug_str:0000000000006158 .LASF1463
C:\Users\SOLDER~1\AppData\Local\Temp\cc6haz4O.s:29864  .debug_str:000000000002b51c .LASF1464
C:\Users\SOLDER~1\AppData\Local\Temp\cc6haz4O.s:30550  .debug_str:000000000002e164 .LASF1465
C:\Users\SOLDER~1\AppData\Local\Temp\cc6haz4O.s:26084  .debug_str:000000000001bf38 .LASF1466
C:\Users\SOLDER~1\AppData\Local\Temp\cc6haz4O.s:20824  .debug_str:0000000000006b7e .LASF1467
C:\Users\SOLDER~1\AppData\Local\Temp\cc6haz4O.s:21852  .debug_str:000000000000aebb .LASF1468
C:\Users\SOLDER~1\AppData\Local\Temp\cc6haz4O.s:26466  .debug_str:000000000001d884 .LASF1469
C:\Users\SOLDER~1\AppData\Local\Temp\cc6haz4O.s:25068  .debug_str:0000000000017e1f .LASF1470
C:\Users\SOLDER~1\AppData\Local\Temp\cc6haz4O.s:22056  .debug_str:000000000000bb86 .LASF1471
C:\Users\SOLDER~1\AppData\Local\Temp\cc6haz4O.s:28004  .debug_str:0000000000023b44 .LASF1472
C:\Users\SOLDER~1\AppData\Local\Temp\cc6haz4O.s:22570  .debug_str:000000000000dd0f .LASF1473
C:\Users\SOLDER~1\AppData\Local\Temp\cc6haz4O.s:28922  .debug_str:000000000002787c .LASF1474
C:\Users\SOLDER~1\AppData\Local\Temp\cc6haz4O.s:28886  .debug_str:0000000000027652 .LASF1475
C:\Users\SOLDER~1\AppData\Local\Temp\cc6haz4O.s:29618  .debug_str:000000000002a56b .LASF1476
C:\Users\SOLDER~1\AppData\Local\Temp\cc6haz4O.s:25136  .debug_str:00000000000182d1 .LASF1477
C:\Users\SOLDER~1\AppData\Local\Temp\cc6haz4O.s:21658  .debug_str:000000000000a1c1 .LASF1478
C:\Users\SOLDER~1\AppData\Local\Temp\cc6haz4O.s:19822  .debug_str:0000000000002b77 .LASF1479
C:\Users\SOLDER~1\AppData\Local\Temp\cc6haz4O.s:22520  .debug_str:000000000000da22 .LASF1480
C:\Users\SOLDER~1\AppData\Local\Temp\cc6haz4O.s:30608  .debug_str:000000000002e4f9 .LASF1481
C:\Users\SOLDER~1\AppData\Local\Temp\cc6haz4O.s:23486  .debug_str:000000000001181d .LASF1482
C:\Users\SOLDER~1\AppData\Local\Temp\cc6haz4O.s:22524  .debug_str:000000000000da69 .LASF1483
C:\Users\SOLDER~1\AppData\Local\Temp\cc6haz4O.s:30304  .debug_str:000000000002d17e .LASF1484
C:\Users\SOLDER~1\AppData\Local\Temp\cc6haz4O.s:28198  .debug_str:0000000000024812 .LASF1485
C:\Users\SOLDER~1\AppData\Local\Temp\cc6haz4O.s:29654  .debug_str:000000000002a7cc .LASF1486
C:\Users\SOLDER~1\AppData\Local\Temp\cc6haz4O.s:25018  .debug_str:0000000000017ae5 .LASF1487
C:\Users\SOLDER~1\AppData\Local\Temp\cc6haz4O.s:22316  .debug_str:000000000000ccb2 .LASF1488
C:\Users\SOLDER~1\AppData\Local\Temp\cc6haz4O.s:24570  .debug_str:0000000000015ebc .LASF1489
C:\Users\SOLDER~1\AppData\Local\Temp\cc6haz4O.s:21704  .debug_str:000000000000a4e4 .LASF1490
C:\Users\SOLDER~1\AppData\Local\Temp\cc6haz4O.s:20686  .debug_str:0000000000006255 .LASF1491
C:\Users\SOLDER~1\AppData\Local\Temp\cc6haz4O.s:28650  .debug_str:0000000000026666 .LASF1492
C:\Users\SOLDER~1\AppData\Local\Temp\cc6haz4O.s:25750  .debug_str:000000000001a9d8 .LASF1493
C:\Users\SOLDER~1\AppData\Local\Temp\cc6haz4O.s:23084  .debug_str:000000000000fedf .LASF1494
C:\Users\SOLDER~1\AppData\Local\Temp\cc6haz4O.s:28508  .debug_str:0000000000025c67 .LASF1495
C:\Users\SOLDER~1\AppData\Local\Temp\cc6haz4O.s:26104  .debug_str:000000000001c09d .LASF1496
C:\Users\SOLDER~1\AppData\Local\Temp\cc6haz4O.s:26768  .debug_str:000000000001ec21 .LASF1497
C:\Users\SOLDER~1\AppData\Local\Temp\cc6haz4O.s:22298  .debug_str:000000000000cb88 .LASF1498
C:\Users\SOLDER~1\AppData\Local\Temp\cc6haz4O.s:30654  .debug_str:000000000002e7eb .LASF1499
C:\Users\SOLDER~1\AppData\Local\Temp\cc6haz4O.s:29716  .debug_str:000000000002ab73 .LASF1500
C:\Users\SOLDER~1\AppData\Local\Temp\cc6haz4O.s:24754  .debug_str:0000000000016a41 .LASF1501
C:\Users\SOLDER~1\AppData\Local\Temp\cc6haz4O.s:26386  .debug_str:000000000001d356 .LASF1502
C:\Users\SOLDER~1\AppData\Local\Temp\cc6haz4O.s:26280  .debug_str:000000000001cc37 .LASF1503
C:\Users\SOLDER~1\AppData\Local\Temp\cc6haz4O.s:20712  .debug_str:00000000000063f2 .LASF1504
C:\Users\SOLDER~1\AppData\Local\Temp\cc6haz4O.s:26898  .debug_str:000000000001f4b2 .LASF1505
C:\Users\SOLDER~1\AppData\Local\Temp\cc6haz4O.s:21608  .debug_str:0000000000009e91 .LASF1506
C:\Users\SOLDER~1\AppData\Local\Temp\cc6haz4O.s:21572  .debug_str:0000000000009c22 .LASF1507
C:\Users\SOLDER~1\AppData\Local\Temp\cc6haz4O.s:22290  .debug_str:000000000000cafc .LASF1508
C:\Users\SOLDER~1\AppData\Local\Temp\cc6haz4O.s:29296  .debug_str:0000000000029087 .LASF1509
C:\Users\SOLDER~1\AppData\Local\Temp\cc6haz4O.s:26678  .debug_str:000000000001e5ff .LASF1510
C:\Users\SOLDER~1\AppData\Local\Temp\cc6haz4O.s:24150  .debug_str:00000000000143e8 .LASF1511
C:\Users\SOLDER~1\AppData\Local\Temp\cc6haz4O.s:26842  .debug_str:000000000001f0e1 .LASF1512
C:\Users\SOLDER~1\AppData\Local\Temp\cc6haz4O.s:26828  .debug_str:000000000001eff2 .LASF1513
C:\Users\SOLDER~1\AppData\Local\Temp\cc6haz4O.s:19680  .debug_str:00000000000021fc .LASF1514
C:\Users\SOLDER~1\AppData\Local\Temp\cc6haz4O.s:30408  .debug_str:000000000002d833 .LASF1515
C:\Users\SOLDER~1\AppData\Local\Temp\cc6haz4O.s:26532  .debug_str:000000000001dc78 .LASF1516
GAS LISTING C:\Users\SOLDER~1\AppData\Local\Temp\cc6haz4O.s 			page 49


C:\Users\SOLDER~1\AppData\Local\Temp\cc6haz4O.s:27430  .debug_str:000000000002167a .LASF1517
C:\Users\SOLDER~1\AppData\Local\Temp\cc6haz4O.s:25902  .debug_str:000000000001b395 .LASF1518
C:\Users\SOLDER~1\AppData\Local\Temp\cc6haz4O.s:21200  .debug_str:0000000000008405 .LASF1519
C:\Users\SOLDER~1\AppData\Local\Temp\cc6haz4O.s:30764  .debug_str:000000000002ef03 .LASF1520
C:\Users\SOLDER~1\AppData\Local\Temp\cc6haz4O.s:28246  .debug_str:0000000000024b1f .LASF1521
C:\Users\SOLDER~1\AppData\Local\Temp\cc6haz4O.s:29580  .debug_str:000000000002a2e6 .LASF1522
C:\Users\SOLDER~1\AppData\Local\Temp\cc6haz4O.s:19924  .debug_str:00000000000031e8 .LASF1523
C:\Users\SOLDER~1\AppData\Local\Temp\cc6haz4O.s:24968  .debug_str:00000000000177d4 .LASF1524
C:\Users\SOLDER~1\AppData\Local\Temp\cc6haz4O.s:28906  .debug_str:000000000002778b .LASF1525
C:\Users\SOLDER~1\AppData\Local\Temp\cc6haz4O.s:19238  .debug_str:0000000000000491 .LASF1526
C:\Users\SOLDER~1\AppData\Local\Temp\cc6haz4O.s:24812  .debug_str:0000000000016dbf .LASF1527
C:\Users\SOLDER~1\AppData\Local\Temp\cc6haz4O.s:22232  .debug_str:000000000000c71a .LASF1528
C:\Users\SOLDER~1\AppData\Local\Temp\cc6haz4O.s:23002  .debug_str:000000000000f912 .LASF1529
C:\Users\SOLDER~1\AppData\Local\Temp\cc6haz4O.s:30088  .debug_str:000000000002c3d5 .LASF1530
C:\Users\SOLDER~1\AppData\Local\Temp\cc6haz4O.s:27784  .debug_str:0000000000022d28 .LASF1531
C:\Users\SOLDER~1\AppData\Local\Temp\cc6haz4O.s:25974  .debug_str:000000000001b83e .LASF1532
C:\Users\SOLDER~1\AppData\Local\Temp\cc6haz4O.s:20742  .debug_str:00000000000065f4 .LASF1533
C:\Users\SOLDER~1\AppData\Local\Temp\cc6haz4O.s:22608  .debug_str:000000000000df9f .LASF1534
C:\Users\SOLDER~1\AppData\Local\Temp\cc6haz4O.s:30600  .debug_str:000000000002e46c .LASF1535
C:\Users\SOLDER~1\AppData\Local\Temp\cc6haz4O.s:25078  .debug_str:0000000000017ec6 .LASF1536
C:\Users\SOLDER~1\AppData\Local\Temp\cc6haz4O.s:19564  .debug_str:0000000000001a2b .LASF1537
C:\Users\SOLDER~1\AppData\Local\Temp\cc6haz4O.s:25942  .debug_str:000000000001b638 .LASF1538
C:\Users\SOLDER~1\AppData\Local\Temp\cc6haz4O.s:25812  .debug_str:000000000001ae13 .LASF1539
C:\Users\SOLDER~1\AppData\Local\Temp\cc6haz4O.s:26512  .debug_str:000000000001db33 .LASF1540
C:\Users\SOLDER~1\AppData\Local\Temp\cc6haz4O.s:21970  .debug_str:000000000000b664 .LASF1541
C:\Users\SOLDER~1\AppData\Local\Temp\cc6haz4O.s:30208  .debug_str:000000000002cb48 .LASF1542
C:\Users\SOLDER~1\AppData\Local\Temp\cc6haz4O.s:28330  .debug_str:00000000000250bf .LASF1543
C:\Users\SOLDER~1\AppData\Local\Temp\cc6haz4O.s:19516  .debug_str:0000000000001760 .LASF1544
C:\Users\SOLDER~1\AppData\Local\Temp\cc6haz4O.s:23064  .debug_str:000000000000fd83 .LASF1545
C:\Users\SOLDER~1\AppData\Local\Temp\cc6haz4O.s:27556  .debug_str:0000000000021e98 .LASF1546
C:\Users\SOLDER~1\AppData\Local\Temp\cc6haz4O.s:26632  .debug_str:000000000001e342 .LASF1547
C:\Users\SOLDER~1\AppData\Local\Temp\cc6haz4O.s:22760  .debug_str:000000000000e9b7 .LASF1548
C:\Users\SOLDER~1\AppData\Local\Temp\cc6haz4O.s:30466  .debug_str:000000000002dbf2 .LASF1549
C:\Users\SOLDER~1\AppData\Local\Temp\cc6haz4O.s:21100  .debug_str:0000000000007d2e .LASF1550
C:\Users\SOLDER~1\AppData\Local\Temp\cc6haz4O.s:29050  .debug_str:000000000002809f .LASF1551
C:\Users\SOLDER~1\AppData\Local\Temp\cc6haz4O.s:26982  .debug_str:000000000001fa34 .LASF1552
C:\Users\SOLDER~1\AppData\Local\Temp\cc6haz4O.s:19652  .debug_str:0000000000002014 .LASF1553
C:\Users\SOLDER~1\AppData\Local\Temp\cc6haz4O.s:25842  .debug_str:000000000001b026 .LASF1554
C:\Users\SOLDER~1\AppData\Local\Temp\cc6haz4O.s:27754  .debug_str:0000000000022b10 .LASF1555
C:\Users\SOLDER~1\AppData\Local\Temp\cc6haz4O.s:21152  .debug_str:00000000000080bf .LASF1556
C:\Users\SOLDER~1\AppData\Local\Temp\cc6haz4O.s:25196  .debug_str:0000000000018675 .LASF1557
C:\Users\SOLDER~1\AppData\Local\Temp\cc6haz4O.s:27088  .debug_str:00000000000200a8 .LASF1558
C:\Users\SOLDER~1\AppData\Local\Temp\cc6haz4O.s:21010  .debug_str:00000000000077a6 .LASF1559
C:\Users\SOLDER~1\AppData\Local\Temp\cc6haz4O.s:30114  .debug_str:000000000002c55d .LASF1560
C:\Users\SOLDER~1\AppData\Local\Temp\cc6haz4O.s:19246  .debug_str:0000000000000511 .LASF1561
C:\Users\SOLDER~1\AppData\Local\Temp\cc6haz4O.s:26314  .debug_str:000000000001ce7c .LASF1562
C:\Users\SOLDER~1\AppData\Local\Temp\cc6haz4O.s:23116  .debug_str:00000000000100d2 .LASF1563
C:\Users\SOLDER~1\AppData\Local\Temp\cc6haz4O.s:22182  .debug_str:000000000000c394 .LASF1564
C:\Users\SOLDER~1\AppData\Local\Temp\cc6haz4O.s:28798  .debug_str:0000000000027086 .LASF1565
C:\Users\SOLDER~1\AppData\Local\Temp\cc6haz4O.s:24976  .debug_str:0000000000017842 .LASF1566
C:\Users\SOLDER~1\AppData\Local\Temp\cc6haz4O.s:23278  .debug_str:0000000000010b2a .LASF1567
C:\Users\SOLDER~1\AppData\Local\Temp\cc6haz4O.s:29326  .debug_str:000000000002925c .LASF1568
C:\Users\SOLDER~1\AppData\Local\Temp\cc6haz4O.s:23774  .debug_str:0000000000012a2a .LASF1569
C:\Users\SOLDER~1\AppData\Local\Temp\cc6haz4O.s:30146  .debug_str:000000000002c764 .LASF1570
C:\Users\SOLDER~1\AppData\Local\Temp\cc6haz4O.s:30112  .debug_str:000000000002c539 .LASF1571
C:\Users\SOLDER~1\AppData\Local\Temp\cc6haz4O.s:19208  .debug_str:0000000000000284 .LASF1572
C:\Users\SOLDER~1\AppData\Local\Temp\cc6haz4O.s:26292  .debug_str:000000000001cd19 .LASF1573
GAS LISTING C:\Users\SOLDER~1\AppData\Local\Temp\cc6haz4O.s 			page 50


C:\Users\SOLDER~1\AppData\Local\Temp\cc6haz4O.s:22868  .debug_str:000000000000f090 .LASF1574
C:\Users\SOLDER~1\AppData\Local\Temp\cc6haz4O.s:21112  .debug_str:0000000000007e1b .LASF1575
C:\Users\SOLDER~1\AppData\Local\Temp\cc6haz4O.s:23724  .debug_str:000000000001274d .LASF1576
C:\Users\SOLDER~1\AppData\Local\Temp\cc6haz4O.s:19302  .debug_str:000000000000096e .LASF1577
C:\Users\SOLDER~1\AppData\Local\Temp\cc6haz4O.s:23816  .debug_str:0000000000012d25 .LASF1578
C:\Users\SOLDER~1\AppData\Local\Temp\cc6haz4O.s:22858  .debug_str:000000000000efe3 .LASF1579
C:\Users\SOLDER~1\AppData\Local\Temp\cc6haz4O.s:30560  .debug_str:000000000002e1f7 .LASF1580
C:\Users\SOLDER~1\AppData\Local\Temp\cc6haz4O.s:28452  .debug_str:0000000000025877 .LASF1581
C:\Users\SOLDER~1\AppData\Local\Temp\cc6haz4O.s:29994  .debug_str:000000000002bd3f .LASF1582
C:\Users\SOLDER~1\AppData\Local\Temp\cc6haz4O.s:25340  .debug_str:0000000000018fbf .LASF1583
C:\Users\SOLDER~1\AppData\Local\Temp\cc6haz4O.s:23230  .debug_str:00000000000107d9 .LASF1584
C:\Users\SOLDER~1\AppData\Local\Temp\cc6haz4O.s:24828  .debug_str:0000000000016ea5 .LASF1585
C:\Users\SOLDER~1\AppData\Local\Temp\cc6haz4O.s:22054  .debug_str:000000000000bb61 .LASF1586
C:\Users\SOLDER~1\AppData\Local\Temp\cc6haz4O.s:24052  .debug_str:0000000000013d34 .LASF1587
C:\Users\SOLDER~1\AppData\Local\Temp\cc6haz4O.s:29000  .debug_str:0000000000027d2e .LASF1588
C:\Users\SOLDER~1\AppData\Local\Temp\cc6haz4O.s:21384  .debug_str:0000000000008ff1 .LASF1589
C:\Users\SOLDER~1\AppData\Local\Temp\cc6haz4O.s:23340  .debug_str:0000000000010ee5 .LASF1590
C:\Users\SOLDER~1\AppData\Local\Temp\cc6haz4O.s:28760  .debug_str:0000000000026df9 .LASF1591
C:\Users\SOLDER~1\AppData\Local\Temp\cc6haz4O.s:26338  .debug_str:000000000001d022 .LASF1592
C:\Users\SOLDER~1\AppData\Local\Temp\cc6haz4O.s:29014  .debug_str:0000000000027e2f .LASF1593
C:\Users\SOLDER~1\AppData\Local\Temp\cc6haz4O.s:22546  .debug_str:000000000000db92 .LASF1594
C:\Users\SOLDER~1\AppData\Local\Temp\cc6haz4O.s:19352  .debug_str:0000000000000ce8 .LASF1595
C:\Users\SOLDER~1\AppData\Local\Temp\cc6haz4O.s:30062  .debug_str:000000000002c1f1 .LASF1596
C:\Users\SOLDER~1\AppData\Local\Temp\cc6haz4O.s:25014  .debug_str:0000000000017a9c .LASF1597
C:\Users\SOLDER~1\AppData\Local\Temp\cc6haz4O.s:27898  .debug_str:0000000000023497 .LASF1598
C:\Users\SOLDER~1\AppData\Local\Temp\cc6haz4O.s:30192  .debug_str:000000000002ca38 .LASF1599
C:\Users\SOLDER~1\AppData\Local\Temp\cc6haz4O.s:24646  .debug_str:000000000001638f .LASF1600
C:\Users\SOLDER~1\AppData\Local\Temp\cc6haz4O.s:28708  .debug_str:0000000000026a4d .LASF1601
C:\Users\SOLDER~1\AppData\Local\Temp\cc6haz4O.s:25464  .debug_str:00000000000197e3 .LASF1602
C:\Users\SOLDER~1\AppData\Local\Temp\cc6haz4O.s:25430  .debug_str:0000000000019542 .LASF1603
C:\Users\SOLDER~1\AppData\Local\Temp\cc6haz4O.s:26126  .debug_str:000000000001c1ee .LASF1604
C:\Users\SOLDER~1\AppData\Local\Temp\cc6haz4O.s:21578  .debug_str:0000000000009c81 .LASF1605
C:\Users\SOLDER~1\AppData\Local\Temp\cc6haz4O.s:29800  .debug_str:000000000002b0e1 .LASF1606
C:\Users\SOLDER~1\AppData\Local\Temp\cc6haz4O.s:28000  .debug_str:0000000000023b07 .LASF1607
C:\Users\SOLDER~1\AppData\Local\Temp\cc6haz4O.s:30670  .debug_str:000000000002e90b .LASF1608
C:\Users\SOLDER~1\AppData\Local\Temp\cc6haz4O.s:30428  .debug_str:000000000002d9a3 .LASF1609
C:\Users\SOLDER~1\AppData\Local\Temp\cc6haz4O.s:22642  .debug_str:000000000000e20d .LASF1610
C:\Users\SOLDER~1\AppData\Local\Temp\cc6haz4O.s:26958  .debug_str:000000000001f8ac .LASF1611
C:\Users\SOLDER~1\AppData\Local\Temp\cc6haz4O.s:19864  .debug_str:0000000000002e05 .LASF1612
C:\Users\SOLDER~1\AppData\Local\Temp\cc6haz4O.s:27308  .debug_str:0000000000020e97 .LASF1613
C:\Users\SOLDER~1\AppData\Local\Temp\cc6haz4O.s:28806  .debug_str:000000000002710c .LASF1614
C:\Users\SOLDER~1\AppData\Local\Temp\cc6haz4O.s:24162  .debug_str:00000000000144bc .LASF1615
C:\Users\SOLDER~1\AppData\Local\Temp\cc6haz4O.s:21236  .debug_str:000000000000864d .LASF1616
C:\Users\SOLDER~1\AppData\Local\Temp\cc6haz4O.s:23630  .debug_str:000000000001214b .LASF1617
C:\Users\SOLDER~1\AppData\Local\Temp\cc6haz4O.s:20896  .debug_str:000000000000702e .LASF1618
C:\Users\SOLDER~1\AppData\Local\Temp\cc6haz4O.s:22854  .debug_str:000000000000ef98 .LASF1619
C:\Users\SOLDER~1\AppData\Local\Temp\cc6haz4O.s:27826  .debug_str:0000000000022fd1 .LASF1620
C:\Users\SOLDER~1\AppData\Local\Temp\cc6haz4O.s:20216  .debug_str:0000000000004480 .LASF1621
C:\Users\SOLDER~1\AppData\Local\Temp\cc6haz4O.s:22150  .debug_str:000000000000c173 .LASF1622
C:\Users\SOLDER~1\AppData\Local\Temp\cc6haz4O.s:27590  .debug_str:00000000000220b2 .LASF1623
C:\Users\SOLDER~1\AppData\Local\Temp\cc6haz4O.s:25222  .debug_str:000000000001880f .LASF1624
C:\Users\SOLDER~1\AppData\Local\Temp\cc6haz4O.s:25956  .debug_str:000000000001b721 .LASF1625
C:\Users\SOLDER~1\AppData\Local\Temp\cc6haz4O.s:21390  .debug_str:0000000000009056 .LASF1626
C:\Users\SOLDER~1\AppData\Local\Temp\cc6haz4O.s:29810  .debug_str:000000000002b18b .LASF1627
C:\Users\SOLDER~1\AppData\Local\Temp\cc6haz4O.s:28880  .debug_str:00000000000275f6 .LASF1628
C:\Users\SOLDER~1\AppData\Local\Temp\cc6haz4O.s:28362  .debug_str:00000000000252a9 .LASF1629
C:\Users\SOLDER~1\AppData\Local\Temp\cc6haz4O.s:25496  .debug_str:000000000001999f .LASF1630
GAS LISTING C:\Users\SOLDER~1\AppData\Local\Temp\cc6haz4O.s 			page 51


C:\Users\SOLDER~1\AppData\Local\Temp\cc6haz4O.s:22850  .debug_str:000000000000ef52 .LASF1631
C:\Users\SOLDER~1\AppData\Local\Temp\cc6haz4O.s:28824  .debug_str:000000000002722d .LASF1632
C:\Users\SOLDER~1\AppData\Local\Temp\cc6haz4O.s:23398  .debug_str:0000000000011284 .LASF1633
C:\Users\SOLDER~1\AppData\Local\Temp\cc6haz4O.s:29734  .debug_str:000000000002acc9 .LASF1634
C:\Users\SOLDER~1\AppData\Local\Temp\cc6haz4O.s:21508  .debug_str:0000000000009814 .LASF1635
C:\Users\SOLDER~1\AppData\Local\Temp\cc6haz4O.s:30436  .debug_str:000000000002da2c .LASF1636
C:\Users\SOLDER~1\AppData\Local\Temp\cc6haz4O.s:25908  .debug_str:000000000001b3fe .LASF1637
C:\Users\SOLDER~1\AppData\Local\Temp\cc6haz4O.s:22462  .debug_str:000000000000d65d .LASF1638
C:\Users\SOLDER~1\AppData\Local\Temp\cc6haz4O.s:20616  .debug_str:0000000000005da5 .LASF1639
C:\Users\SOLDER~1\AppData\Local\Temp\cc6haz4O.s:23348  .debug_str:0000000000010f6a .LASF1640
C:\Users\SOLDER~1\AppData\Local\Temp\cc6haz4O.s:26020  .debug_str:000000000001bb13 .LASF1641
C:\Users\SOLDER~1\AppData\Local\Temp\cc6haz4O.s:30538  .debug_str:000000000002e0b1 .LASF1642
C:\Users\SOLDER~1\AppData\Local\Temp\cc6haz4O.s:29486  .debug_str:0000000000029ca3 .LASF1643
C:\Users\SOLDER~1\AppData\Local\Temp\cc6haz4O.s:25648  .debug_str:000000000001a321 .LASF1644
C:\Users\SOLDER~1\AppData\Local\Temp\cc6haz4O.s:23542  .debug_str:0000000000011b9f .LASF1645
C:\Users\SOLDER~1\AppData\Local\Temp\cc6haz4O.s:25112  .debug_str:0000000000018136 .LASF1646
C:\Users\SOLDER~1\AppData\Local\Temp\cc6haz4O.s:20370  .debug_str:0000000000004e40 .LASF1647
C:\Users\SOLDER~1\AppData\Local\Temp\cc6haz4O.s:24264  .debug_str:0000000000014b91 .LASF1648
C:\Users\SOLDER~1\AppData\Local\Temp\cc6haz4O.s:19860  .debug_str:0000000000002dc4 .LASF1649
C:\Users\SOLDER~1\AppData\Local\Temp\cc6haz4O.s:28740  .debug_str:0000000000026c8d .LASF1650
C:\Users\SOLDER~1\AppData\Local\Temp\cc6haz4O.s:30738  .debug_str:000000000002ed7d .LASF1651
C:\Users\SOLDER~1\AppData\Local\Temp\cc6haz4O.s:19970  .debug_str:00000000000034f9 .LASF1652
C:\Users\SOLDER~1\AppData\Local\Temp\cc6haz4O.s:28056  .debug_str:0000000000023eb6 .LASF1653
C:\Users\SOLDER~1\AppData\Local\Temp\cc6haz4O.s:30032  .debug_str:000000000002bfb0 .LASF1654
C:\Users\SOLDER~1\AppData\Local\Temp\cc6haz4O.s:23862  .debug_str:0000000000013014 .LASF1655
C:\Users\SOLDER~1\AppData\Local\Temp\cc6haz4O.s:21412  .debug_str:00000000000091d8 .LASF1656
C:\Users\SOLDER~1\AppData\Local\Temp\cc6haz4O.s:24174  .debug_str:000000000001457c .LASF1657
C:\Users\SOLDER~1\AppData\Local\Temp\cc6haz4O.s:29244  .debug_str:0000000000028d46 .LASF1658
C:\Users\SOLDER~1\AppData\Local\Temp\cc6haz4O.s:26062  .debug_str:000000000001bdab .LASF1659
C:\Users\SOLDER~1\AppData\Local\Temp\cc6haz4O.s:25168  .debug_str:00000000000184c8 .LASF1660
C:\Users\SOLDER~1\AppData\Local\Temp\cc6haz4O.s:20034  .debug_str:0000000000003903 .LASF1661
C:\Users\SOLDER~1\AppData\Local\Temp\cc6haz4O.s:21682  .debug_str:000000000000a37a .LASF1662
C:\Users\SOLDER~1\AppData\Local\Temp\cc6haz4O.s:27070  .debug_str:000000000001ff95 .LASF1663
C:\Users\SOLDER~1\AppData\Local\Temp\cc6haz4O.s:21518  .debug_str:00000000000098bd .LASF1664
C:\Users\SOLDER~1\AppData\Local\Temp\cc6haz4O.s:27656  .debug_str:000000000002246a .LASF1665
C:\Users\SOLDER~1\AppData\Local\Temp\cc6haz4O.s:22406  .debug_str:000000000000d2a2 .LASF1666
C:\Users\SOLDER~1\AppData\Local\Temp\cc6haz4O.s:22366  .debug_str:000000000000d00e .LASF1667
C:\Users\SOLDER~1\AppData\Local\Temp\cc6haz4O.s:23112  .debug_str:000000000001008a .LASF1668
C:\Users\SOLDER~1\AppData\Local\Temp\cc6haz4O.s:30118  .debug_str:000000000002c5ab .LASF1669
C:\Users\SOLDER~1\AppData\Local\Temp\cc6haz4O.s:26688  .debug_str:000000000001e6b0 .LASF1670
C:\Users\SOLDER~1\AppData\Local\Temp\cc6haz4O.s:24984  .debug_str:00000000000178dd .LASF1671
C:\Users\SOLDER~1\AppData\Local\Temp\cc6haz4O.s:22644  .debug_str:000000000000e233 .LASF1672
C:\Users\SOLDER~1\AppData\Local\Temp\cc6haz4O.s:22222  .debug_str:000000000000c655 .LASF1673
C:\Users\SOLDER~1\AppData\Local\Temp\cc6haz4O.s:29934  .debug_str:000000000002b96e .LASF1674
C:\Users\SOLDER~1\AppData\Local\Temp\cc6haz4O.s:25734  .debug_str:000000000001a8bd .LASF1675
C:\Users\SOLDER~1\AppData\Local\Temp\cc6haz4O.s:21848  .debug_str:000000000000ae71 .LASF1676
C:\Users\SOLDER~1\AppData\Local\Temp\cc6haz4O.s:19780  .debug_str:0000000000002890 .LASF1677
C:\Users\SOLDER~1\AppData\Local\Temp\cc6haz4O.s:21302  .debug_str:0000000000008a69 .LASF1678
C:\Users\SOLDER~1\AppData\Local\Temp\cc6haz4O.s:28122  .debug_str:000000000002430f .LASF1679
C:\Users\SOLDER~1\AppData\Local\Temp\cc6haz4O.s:26158  .debug_str:000000000001c444 .LASF1680
C:\Users\SOLDER~1\AppData\Local\Temp\cc6haz4O.s:30222  .debug_str:000000000002cc1f .LASF1681
C:\Users\SOLDER~1\AppData\Local\Temp\cc6haz4O.s:25048  .debug_str:0000000000017ccd .LASF1682
C:\Users\SOLDER~1\AppData\Local\Temp\cc6haz4O.s:26968  .debug_str:000000000001f942 .LASF1683
C:\Users\SOLDER~1\AppData\Local\Temp\cc6haz4O.s:20316  .debug_str:0000000000004ad6 .LASF1684
C:\Users\SOLDER~1\AppData\Local\Temp\cc6haz4O.s:24256  .debug_str:0000000000014b0b .LASF1685
C:\Users\SOLDER~1\AppData\Local\Temp\cc6haz4O.s:26266  .debug_str:000000000001cb2d .LASF1686
C:\Users\SOLDER~1\AppData\Local\Temp\cc6haz4O.s:20092  .debug_str:0000000000003ccd .LASF1687
GAS LISTING C:\Users\SOLDER~1\AppData\Local\Temp\cc6haz4O.s 			page 52


C:\Users\SOLDER~1\AppData\Local\Temp\cc6haz4O.s:29266  .debug_str:0000000000028e90 .LASF1688
C:\Users\SOLDER~1\AppData\Local\Temp\cc6haz4O.s:30046  .debug_str:000000000002c0bd .LASF1689
C:\Users\SOLDER~1\AppData\Local\Temp\cc6haz4O.s:25520  .debug_str:0000000000019b2f .LASF1690
C:\Users\SOLDER~1\AppData\Local\Temp\cc6haz4O.s:22268  .debug_str:000000000000c969 .LASF1691
C:\Users\SOLDER~1\AppData\Local\Temp\cc6haz4O.s:21360  .debug_str:0000000000008e4c .LASF1692
C:\Users\SOLDER~1\AppData\Local\Temp\cc6haz4O.s:22766  .debug_str:000000000000ea1c .LASF1693
C:\Users\SOLDER~1\AppData\Local\Temp\cc6haz4O.s:29564  .debug_str:000000000002a1ba .LASF1694
C:\Users\SOLDER~1\AppData\Local\Temp\cc6haz4O.s:26114  .debug_str:000000000001c125 .LASF1695
C:\Users\SOLDER~1\AppData\Local\Temp\cc6haz4O.s:24730  .debug_str:00000000000168b1 .LASF1696
C:\Users\SOLDER~1\AppData\Local\Temp\cc6haz4O.s:19964  .debug_str:000000000000348c .LASF1697
C:\Users\SOLDER~1\AppData\Local\Temp\cc6haz4O.s:26718  .debug_str:000000000001e8c7 .LASF1698
C:\Users\SOLDER~1\AppData\Local\Temp\cc6haz4O.s:26592  .debug_str:000000000001e0c2 .LASF1699
C:\Users\SOLDER~1\AppData\Local\Temp\cc6haz4O.s:27310  .debug_str:0000000000020ebd .LASF1700
C:\Users\SOLDER~1\AppData\Local\Temp\cc6haz4O.s:22776  .debug_str:000000000000eac5 .LASF1701
C:\Users\SOLDER~1\AppData\Local\Temp\cc6haz4O.s:19382  .debug_str:0000000000000ee4 .LASF1702
C:\Users\SOLDER~1\AppData\Local\Temp\cc6haz4O.s:29224  .debug_str:0000000000028c17 .LASF1703
C:\Users\SOLDER~1\AppData\Local\Temp\cc6haz4O.s:20302  .debug_str:0000000000004a05 .LASF1704
C:\Users\SOLDER~1\AppData\Local\Temp\cc6haz4O.s:30106  .debug_str:000000000002c4e9 .LASF1705
C:\Users\SOLDER~1\AppData\Local\Temp\cc6haz4O.s:22896  .debug_str:000000000000f234 .LASF1706
C:\Users\SOLDER~1\AppData\Local\Temp\cc6haz4O.s:21934  .debug_str:000000000000b3d6 .LASF1707
C:\Users\SOLDER~1\AppData\Local\Temp\cc6haz4O.s:29714  .debug_str:000000000002ab4d .LASF1708
C:\Users\SOLDER~1\AppData\Local\Temp\cc6haz4O.s:27614  .debug_str:0000000000022215 .LASF1709
C:\Users\SOLDER~1\AppData\Local\Temp\cc6haz4O.s:23946  .debug_str:0000000000013597 .LASF1710
C:\Users\SOLDER~1\AppData\Local\Temp\cc6haz4O.s:24396  .debug_str:0000000000015429 .LASF1711
C:\Users\SOLDER~1\AppData\Local\Temp\cc6haz4O.s:30638  .debug_str:000000000002e6f3 .LASF1712
C:\Users\SOLDER~1\AppData\Local\Temp\cc6haz4O.s:23988  .debug_str:0000000000013880 .LASF1713
C:\Users\SOLDER~1\AppData\Local\Temp\cc6haz4O.s:21230  .debug_str:00000000000085d9 .LASF1714
C:\Users\SOLDER~1\AppData\Local\Temp\cc6haz4O.s:29536  .debug_str:0000000000029fef .LASF1715
C:\Users\SOLDER~1\AppData\Local\Temp\cc6haz4O.s:20984  .debug_str:0000000000007602 .LASF1716
C:\Users\SOLDER~1\AppData\Local\Temp\cc6haz4O.s:19688  .debug_str:0000000000002282 .LASF1717
C:\Users\SOLDER~1\AppData\Local\Temp\cc6haz4O.s:22484  .debug_str:000000000000d7ad .LASF1718
C:\Users\SOLDER~1\AppData\Local\Temp\cc6haz4O.s:27920  .debug_str:000000000002361a .LASF1719
C:\Users\SOLDER~1\AppData\Local\Temp\cc6haz4O.s:25542  .debug_str:0000000000019c8b .LASF1720
C:\Users\SOLDER~1\AppData\Local\Temp\cc6haz4O.s:26278  .debug_str:000000000001cc11 .LASF1721
C:\Users\SOLDER~1\AppData\Local\Temp\cc6haz4O.s:21706  .debug_str:000000000000a509 .LASF1722
C:\Users\SOLDER~1\AppData\Local\Temp\cc6haz4O.s:30152  .debug_str:000000000002c7c1 .LASF1723
C:\Users\SOLDER~1\AppData\Local\Temp\cc6haz4O.s:29222  .debug_str:0000000000028bf1 .LASF1724
C:\Users\SOLDER~1\AppData\Local\Temp\cc6haz4O.s:24156  .debug_str:000000000001445d .LASF1725
C:\Users\SOLDER~1\AppData\Local\Temp\cc6haz4O.s:25822  .debug_str:000000000001aee6 .LASF1726
C:\Users\SOLDER~1\AppData\Local\Temp\cc6haz4O.s:22464  .debug_str:000000000000d682 .LASF1727
C:\Users\SOLDER~1\AppData\Local\Temp\cc6haz4O.s:28516  .debug_str:0000000000025ce5 .LASF1728
C:\Users\SOLDER~1\AppData\Local\Temp\cc6haz4O.s:23098  .debug_str:000000000000ffaf .LASF1729
C:\Users\SOLDER~1\AppData\Local\Temp\cc6haz4O.s:20096  .debug_str:0000000000003d0a .LASF1730
C:\Users\SOLDER~1\AppData\Local\Temp\cc6haz4O.s:29412  .debug_str:000000000002981d .LASF1731
C:\Users\SOLDER~1\AppData\Local\Temp\cc6haz4O.s:30140  .debug_str:000000000002c6f6 .LASF1732
C:\Users\SOLDER~1\AppData\Local\Temp\cc6haz4O.s:25628  .debug_str:000000000001a1f5 .LASF1733
C:\Users\SOLDER~1\AppData\Local\Temp\cc6haz4O.s:22092  .debug_str:000000000000bde6 .LASF1734
C:\Users\SOLDER~1\AppData\Local\Temp\cc6haz4O.s:20552  .debug_str:000000000000596a .LASF1735
C:\Users\SOLDER~1\AppData\Local\Temp\cc6haz4O.s:23044  .debug_str:000000000000fc01 .LASF1736
C:\Users\SOLDER~1\AppData\Local\Temp\cc6haz4O.s:24640  .debug_str:000000000001634c .LASF1737
C:\Users\SOLDER~1\AppData\Local\Temp\cc6haz4O.s:20046  .debug_str:00000000000039c7 .LASF1738
C:\Users\SOLDER~1\AppData\Local\Temp\cc6haz4O.s:20602  .debug_str:0000000000005ce2 .LASF1739
C:\Users\SOLDER~1\AppData\Local\Temp\cc6haz4O.s:28350  .debug_str:00000000000251fd .LASF1740
C:\Users\SOLDER~1\AppData\Local\Temp\cc6haz4O.s:26222  .debug_str:000000000001c84d .LASF1741
C:\Users\SOLDER~1\AppData\Local\Temp\cc6haz4O.s:23178  .debug_str:00000000000104b2 .LASF1742
C:\Users\SOLDER~1\AppData\Local\Temp\cc6haz4O.s:23050  .debug_str:000000000000fc61 .LASF1743
C:\Users\SOLDER~1\AppData\Local\Temp\cc6haz4O.s:20968  .debug_str:00000000000074fd .LASF1744
GAS LISTING C:\Users\SOLDER~1\AppData\Local\Temp\cc6haz4O.s 			page 53


C:\Users\SOLDER~1\AppData\Local\Temp\cc6haz4O.s:22616  .debug_str:000000000000e02f .LASF1745
C:\Users\SOLDER~1\AppData\Local\Temp\cc6haz4O.s:27990  .debug_str:0000000000023a93 .LASF1746
C:\Users\SOLDER~1\AppData\Local\Temp\cc6haz4O.s:21756  .debug_str:000000000000a890 .LASF1747
C:\Users\SOLDER~1\AppData\Local\Temp\cc6haz4O.s:26760  .debug_str:000000000001eb9f .LASF1748
C:\Users\SOLDER~1\AppData\Local\Temp\cc6haz4O.s:30780  .debug_str:000000000002f004 .LASF1749
C:\Users\SOLDER~1\AppData\Local\Temp\cc6haz4O.s:21070  .debug_str:0000000000007b33 .LASF1750
C:\Users\SOLDER~1\AppData\Local\Temp\cc6haz4O.s:26618  .debug_str:000000000001e249 .LASF1751
C:\Users\SOLDER~1\AppData\Local\Temp\cc6haz4O.s:24100  .debug_str:000000000001406f .LASF1752
C:\Users\SOLDER~1\AppData\Local\Temp\cc6haz4O.s:24882  .debug_str:0000000000017200 .LASF1753
C:\Users\SOLDER~1\AppData\Local\Temp\cc6haz4O.s:20288  .debug_str:0000000000004916 .LASF1754
C:\Users\SOLDER~1\AppData\Local\Temp\cc6haz4O.s:28686  .debug_str:00000000000268c8 .LASF1755
C:\Users\SOLDER~1\AppData\Local\Temp\cc6haz4O.s:27762  .debug_str:0000000000022bb3 .LASF1756
C:\Users\SOLDER~1\AppData\Local\Temp\cc6haz4O.s:22790  .debug_str:000000000000eba5 .LASF1757
C:\Users\SOLDER~1\AppData\Local\Temp\cc6haz4O.s:24474  .debug_str:0000000000015905 .LASF1758
C:\Users\SOLDER~1\AppData\Local\Temp\cc6haz4O.s:26790  .debug_str:000000000001ed80 .LASF1759
C:\Users\SOLDER~1\AppData\Local\Temp\cc6haz4O.s:21224  .debug_str:0000000000008584 .LASF1760
C:\Users\SOLDER~1\AppData\Local\Temp\cc6haz4O.s:27382  .debug_str:000000000002137f .LASF1761
C:\Users\SOLDER~1\AppData\Local\Temp\cc6haz4O.s:22114  .debug_str:000000000000bf37 .LASF1762
C:\Users\SOLDER~1\AppData\Local\Temp\cc6haz4O.s:19716  .debug_str:0000000000002463 .LASF1763
C:\Users\SOLDER~1\AppData\Local\Temp\cc6haz4O.s:22708  .debug_str:000000000000e650 .LASF1764
C:\Users\SOLDER~1\AppData\Local\Temp\cc6haz4O.s:23576  .debug_str:0000000000011df3 .LASF1765
C:\Users\SOLDER~1\AppData\Local\Temp\cc6haz4O.s:26398  .debug_str:000000000001d41f .LASF1766
C:\Users\SOLDER~1\AppData\Local\Temp\cc6haz4O.s:24662  .debug_str:00000000000164aa .LASF1767
C:\Users\SOLDER~1\AppData\Local\Temp\cc6haz4O.s:27340  .debug_str:0000000000021093 .LASF1768
C:\Users\SOLDER~1\AppData\Local\Temp\cc6haz4O.s:24948  .debug_str:0000000000017684 .LASF1769
C:\Users\SOLDER~1\AppData\Local\Temp\cc6haz4O.s:29430  .debug_str:0000000000029927 .LASF1770
C:\Users\SOLDER~1\AppData\Local\Temp\cc6haz4O.s:28450  .debug_str:0000000000025852 .LASF1771
C:\Users\SOLDER~1\AppData\Local\Temp\cc6haz4O.s:24636  .debug_str:000000000001630c .LASF1772
C:\Users\SOLDER~1\AppData\Local\Temp\cc6haz4O.s:22438  .debug_str:000000000000d4bf .LASF1773
C:\Users\SOLDER~1\AppData\Local\Temp\cc6haz4O.s:23982  .debug_str:0000000000013812 .LASF1774
C:\Users\SOLDER~1\AppData\Local\Temp\cc6haz4O.s:19290  .debug_str:0000000000000869 .LASF1775
C:\Users\SOLDER~1\AppData\Local\Temp\cc6haz4O.s:28804  .debug_str:00000000000270e7 .LASF1776
C:\Users\SOLDER~1\AppData\Local\Temp\cc6haz4O.s:30504  .debug_str:000000000002de73 .LASF1777
C:\Users\SOLDER~1\AppData\Local\Temp\cc6haz4O.s:27630  .debug_str:00000000000222ed .LASF1778
C:\Users\SOLDER~1\AppData\Local\Temp\cc6haz4O.s:27054  .debug_str:000000000001fe94 .LASF1779
C:\Users\SOLDER~1\AppData\Local\Temp\cc6haz4O.s:22992  .debug_str:000000000000f859 .LASF1780
C:\Users\SOLDER~1\AppData\Local\Temp\cc6haz4O.s:26994  .debug_str:000000000001fae1 .LASF1781
C:\Users\SOLDER~1\AppData\Local\Temp\cc6haz4O.s:28912  .debug_str:00000000000277f3 .LASF1782
C:\Users\SOLDER~1\AppData\Local\Temp\cc6haz4O.s:22844  .debug_str:000000000000eeee .LASF1783
C:\Users\SOLDER~1\AppData\Local\Temp\cc6haz4O.s:20304  .debug_str:0000000000004a2a .LASF1784
C:\Users\SOLDER~1\AppData\Local\Temp\cc6haz4O.s:21078  .debug_str:0000000000007bc1 .LASF1785
C:\Users\SOLDER~1\AppData\Local\Temp\cc6haz4O.s:28128  .debug_str:0000000000024376 .LASF1786
C:\Users\SOLDER~1\AppData\Local\Temp\cc6haz4O.s:25004  .debug_str:00000000000179f2 .LASF1787
C:\Users\SOLDER~1\AppData\Local\Temp\cc6haz4O.s:24058  .debug_str:0000000000013d98 .LASF1788
C:\Users\SOLDER~1\AppData\Local\Temp\cc6haz4O.s:30678  .debug_str:000000000002e990 .LASF1789
C:\Users\SOLDER~1\AppData\Local\Temp\cc6haz4O.s:20598  .debug_str:0000000000005c99 .LASF1790
C:\Users\SOLDER~1\AppData\Local\Temp\cc6haz4O.s:19470  .debug_str:0000000000001467 .LASF1791
C:\Users\SOLDER~1\AppData\Local\Temp\cc6haz4O.s:25564  .debug_str:0000000000019dfc .LASF1792
C:\Users\SOLDER~1\AppData\Local\Temp\cc6haz4O.s:20072  .debug_str:0000000000003b7e .LASF1793
C:\Users\SOLDER~1\AppData\Local\Temp\cc6haz4O.s:26342  .debug_str:000000000001d073 .LASF1794
C:\Users\SOLDER~1\AppData\Local\Temp\cc6haz4O.s:26306  .debug_str:000000000001cdf7 .LASF1795
C:\Users\SOLDER~1\AppData\Local\Temp\cc6haz4O.s:27020  .debug_str:000000000001fc78 .LASF1796
C:\Users\SOLDER~1\AppData\Local\Temp\cc6haz4O.s:23326  .debug_str:0000000000010de6 .LASF1797
C:\Users\SOLDER~1\AppData\Local\Temp\cc6haz4O.s:30720  .debug_str:000000000002ec60 .LASF1798
C:\Users\SOLDER~1\AppData\Local\Temp\cc6haz4O.s:28926  .debug_str:00000000000278cc .LASF1799
C:\Users\SOLDER~1\AppData\Local\Temp\cc6haz4O.s:20016  .debug_str:00000000000037d8 .LASF1800
C:\Users\SOLDER~1\AppData\Local\Temp\cc6haz4O.s:21136  .debug_str:0000000000007fa9 .LASF1801
GAS LISTING C:\Users\SOLDER~1\AppData\Local\Temp\cc6haz4O.s 			page 54


C:\Users\SOLDER~1\AppData\Local\Temp\cc6haz4O.s:26890  .debug_str:000000000001f42b .LASF1802
C:\Users\SOLDER~1\AppData\Local\Temp\cc6haz4O.s:24742  .debug_str:0000000000016974 .LASF1803
C:\Users\SOLDER~1\AppData\Local\Temp\cc6haz4O.s:20750  .debug_str:0000000000006682 .LASF1804
C:\Users\SOLDER~1\AppData\Local\Temp\cc6haz4O.s:30322  .debug_str:000000000002d2e3 .LASF1805
C:\Users\SOLDER~1\AppData\Local\Temp\cc6haz4O.s:20184  .debug_str:0000000000004284 .LASF1806
C:\Users\SOLDER~1\AppData\Local\Temp\cc6haz4O.s:27138  .debug_str:00000000000203c3 .LASF1807
C:\Users\SOLDER~1\AppData\Local\Temp\cc6haz4O.s:24956  .debug_str:0000000000017705 .LASF1808
C:\Users\SOLDER~1\AppData\Local\Temp\cc6haz4O.s:26634  .debug_str:000000000001e367 .LASF1809
C:\Users\SOLDER~1\AppData\Local\Temp\cc6haz4O.s:23912  .debug_str:000000000001335b .LASF1810
C:\Users\SOLDER~1\AppData\Local\Temp\cc6haz4O.s:25882  .debug_str:000000000001b252 .LASF1811
C:\Users\SOLDER~1\AppData\Local\Temp\cc6haz4O.s:19240  .debug_str:00000000000004b6 .LASF1812
C:\Users\SOLDER~1\AppData\Local\Temp\cc6haz4O.s:23242  .debug_str:00000000000108a3 .LASF1813
C:\Users\SOLDER~1\AppData\Local\Temp\cc6haz4O.s:25206  .debug_str:0000000000018728 .LASF1814
C:\Users\SOLDER~1\AppData\Local\Temp\cc6haz4O.s:30644  .debug_str:000000000002e755 .LASF1815
C:\Users\SOLDER~1\AppData\Local\Temp\cc6haz4O.s:26586  .debug_str:000000000001e050 .LASF1816
C:\Users\SOLDER~1\AppData\Local\Temp\cc6haz4O.s:29388  .debug_str:0000000000029685 .LASF1817
C:\Users\SOLDER~1\AppData\Local\Temp\cc6haz4O.s:24408  .debug_str:00000000000154da .LASF1818
C:\Users\SOLDER~1\AppData\Local\Temp\cc6haz4O.s:21180  .debug_str:00000000000082a5 .LASF1819
C:\Users\SOLDER~1\AppData\Local\Temp\cc6haz4O.s:20258  .debug_str:000000000000470f .LASF1820
C:\Users\SOLDER~1\AppData\Local\Temp\cc6haz4O.s:26802  .debug_str:000000000001ee3f .LASF1821
C:\Users\SOLDER~1\AppData\Local\Temp\cc6haz4O.s:28446  .debug_str:000000000002580b .LASF1822
C:\Users\SOLDER~1\AppData\Local\Temp\cc6haz4O.s:23760  .debug_str:000000000001295d .LASF1823
C:\Users\SOLDER~1\AppData\Local\Temp\cc6haz4O.s:29744  .debug_str:000000000002ad82 .LASF1824
C:\Users\SOLDER~1\AppData\Local\Temp\cc6haz4O.s:24310  .debug_str:0000000000014ea8 .LASF1825
C:\Users\SOLDER~1\AppData\Local\Temp\cc6haz4O.s:30664  .debug_str:000000000002e88f .LASF1826
C:\Users\SOLDER~1\AppData\Local\Temp\cc6haz4O.s:29068  .debug_str:00000000000281d9 .LASF1827
C:\Users\SOLDER~1\AppData\Local\Temp\cc6haz4O.s:19694  .debug_str:00000000000022f0 .LASF1828
C:\Users\SOLDER~1\AppData\Local\Temp\cc6haz4O.s:26796  .debug_str:000000000001eddd .LASF1829
C:\Users\SOLDER~1\AppData\Local\Temp\cc6haz4O.s:21576  .debug_str:0000000000009c5d .LASF1830
C:\Users\SOLDER~1\AppData\Local\Temp\cc6haz4O.s:21530  .debug_str:0000000000009988 .LASF1831
C:\Users\SOLDER~1\AppData\Local\Temp\cc6haz4O.s:24258  .debug_str:0000000000014b31 .LASF1832
C:\Users\SOLDER~1\AppData\Local\Temp\cc6haz4O.s:28980  .debug_str:0000000000027be7 .LASF1833
C:\Users\SOLDER~1\AppData\Local\Temp\cc6haz4O.s:21878  .debug_str:000000000000b079 .LASF1834
C:\Users\SOLDER~1\AppData\Local\Temp\cc6haz4O.s:20846  .debug_str:0000000000006ccc .LASF1835
C:\Users\SOLDER~1\AppData\Local\Temp\cc6haz4O.s:28588  .debug_str:0000000000026203 .LASF1836
C:\Users\SOLDER~1\AppData\Local\Temp\cc6haz4O.s:26550  .debug_str:000000000001ddaa .LASF1837
C:\Users\SOLDER~1\AppData\Local\Temp\cc6haz4O.s:27452  .debug_str:0000000000021801 .LASF1838
C:\Users\SOLDER~1\AppData\Local\Temp\cc6haz4O.s:23392  .debug_str:000000000001121e .LASF1839
C:\Users\SOLDER~1\AppData\Local\Temp\cc6haz4O.s:22164  .debug_str:000000000000c274 .LASF1840
C:\Users\SOLDER~1\AppData\Local\Temp\cc6haz4O.s:22862  .debug_str:000000000000f028 .LASF1841
C:\Users\SOLDER~1\AppData\Local\Temp\cc6haz4O.s:20122  .debug_str:0000000000003ea3 .LASF1842
C:\Users\SOLDER~1\AppData\Local\Temp\cc6haz4O.s:22098  .debug_str:000000000000be4d .LASF1843
C:\Users\SOLDER~1\AppData\Local\Temp\cc6haz4O.s:27092  .debug_str:00000000000200e9 .LASF1844
C:\Users\SOLDER~1\AppData\Local\Temp\cc6haz4O.s:19476  .debug_str:00000000000014c4 .LASF1845
C:\Users\SOLDER~1\AppData\Local\Temp\cc6haz4O.s:21398  .debug_str:00000000000090e4 .LASF1846
C:\Users\SOLDER~1\AppData\Local\Temp\cc6haz4O.s:26868  .debug_str:000000000001f2a6 .LASF1847
C:\Users\SOLDER~1\AppData\Local\Temp\cc6haz4O.s:24422  .debug_str:00000000000155da .LASF1848
C:\Users\SOLDER~1\AppData\Local\Temp\cc6haz4O.s:25218  .debug_str:00000000000187d8 .LASF1849
C:\Users\SOLDER~1\AppData\Local\Temp\cc6haz4O.s:20624  .debug_str:0000000000005e3f .LASF1850
C:\Users\SOLDER~1\AppData\Local\Temp\cc6haz4O.s:29026  .debug_str:0000000000027f18 .LASF1851
C:\Users\SOLDER~1\AppData\Local\Temp\cc6haz4O.s:28104  .debug_str:00000000000241c7 .LASF1852
C:\Users\SOLDER~1\AppData\Local\Temp\cc6haz4O.s:29320  .debug_str:00000000000291e8 .LASF1853
C:\Users\SOLDER~1\AppData\Local\Temp\cc6haz4O.s:24736  .debug_str:0000000000016914 .LASF1854
C:\Users\SOLDER~1\AppData\Local\Temp\cc6haz4O.s:27940  .debug_str:000000000002376d .LASF1855
C:\Users\SOLDER~1\AppData\Local\Temp\cc6haz4O.s:25590  .debug_str:0000000000019f79 .LASF1856
C:\Users\SOLDER~1\AppData\Local\Temp\cc6haz4O.s:28566  .debug_str:0000000000026078 .LASF1857
C:\Users\SOLDER~1\AppData\Local\Temp\cc6haz4O.s:23342  .debug_str:0000000000010f0a .LASF1858
GAS LISTING C:\Users\SOLDER~1\AppData\Local\Temp\cc6haz4O.s 			page 55


C:\Users\SOLDER~1\AppData\Local\Temp\cc6haz4O.s:23310  .debug_str:0000000000010cef .LASF1859
C:\Users\SOLDER~1\AppData\Local\Temp\cc6haz4O.s:24032  .debug_str:0000000000013bc7 .LASF1860
C:\Users\SOLDER~1\AppData\Local\Temp\cc6haz4O.s:21866  .debug_str:000000000000afae .LASF1861
C:\Users\SOLDER~1\AppData\Local\Temp\cc6haz4O.s:27570  .debug_str:0000000000021f78 .LASF1862
C:\Users\SOLDER~1\AppData\Local\Temp\cc6haz4O.s:25858  .debug_str:000000000001b117 .LASF1863
C:\Users\SOLDER~1\AppData\Local\Temp\cc6haz4O.s:28614  .debug_str:00000000000263db .LASF1864
C:\Users\SOLDER~1\AppData\Local\Temp\cc6haz4O.s:25276  .debug_str:0000000000018b8e .LASF1865
C:\Users\SOLDER~1\AppData\Local\Temp\cc6haz4O.s:29752  .debug_str:000000000002ae09 .LASF1866
C:\Users\SOLDER~1\AppData\Local\Temp\cc6haz4O.s:28692  .debug_str:000000000002693b .LASF1867
C:\Users\SOLDER~1\AppData\Local\Temp\cc6haz4O.s:24894  .debug_str:00000000000172d0 .LASF1868
C:\Users\SOLDER~1\AppData\Local\Temp\cc6haz4O.s:22778  .debug_str:000000000000eaea .LASF1869
C:\Users\SOLDER~1\AppData\Local\Temp\cc6haz4O.s:24314  .debug_str:0000000000014ef1 .LASF1870
C:\Users\SOLDER~1\AppData\Local\Temp\cc6haz4O.s:19524  .debug_str:00000000000017ec .LASF1871
C:\Users\SOLDER~1\AppData\Local\Temp\cc6haz4O.s:29152  .debug_str:000000000002873f .LASF1872
C:\Users\SOLDER~1\AppData\Local\Temp\cc6haz4O.s:28108  .debug_str:0000000000024219 .LASF1873
C:\Users\SOLDER~1\AppData\Local\Temp\cc6haz4O.s:27956  .debug_str:0000000000023870 .LASF1874
C:\Users\SOLDER~1\AppData\Local\Temp\cc6haz4O.s:29972  .debug_str:000000000002bbd1 .LASF1875
C:\Users\SOLDER~1\AppData\Local\Temp\cc6haz4O.s:27508  .debug_str:0000000000021b8b .LASF1876
C:\Users\SOLDER~1\AppData\Local\Temp\cc6haz4O.s:26246  .debug_str:000000000001c9da .LASF1877
C:\Users\SOLDER~1\AppData\Local\Temp\cc6haz4O.s:29252  .debug_str:0000000000028dc6 .LASF1878
C:\Users\SOLDER~1\AppData\Local\Temp\cc6haz4O.s:27910  .debug_str:0000000000023573 .LASF1879
C:\Users\SOLDER~1\AppData\Local\Temp\cc6haz4O.s:20642  .debug_str:0000000000005f56 .LASF1880
C:\Users\SOLDER~1\AppData\Local\Temp\cc6haz4O.s:21408  .debug_str:0000000000009191 .LASF1881
C:\Users\SOLDER~1\AppData\Local\Temp\cc6haz4O.s:28462  .debug_str:000000000002592d .LASF1882
C:\Users\SOLDER~1\AppData\Local\Temp\cc6haz4O.s:25318  .debug_str:0000000000018e4c .LASF1883
C:\Users\SOLDER~1\AppData\Local\Temp\cc6haz4O.s:19436  .debug_str:0000000000001235 .LASF1884
C:\Users\SOLDER~1\AppData\Local\Temp\cc6haz4O.s:19286  .debug_str:000000000000081e .LASF1885
C:\Users\SOLDER~1\AppData\Local\Temp\cc6haz4O.s:20944  .debug_str:000000000000734f .LASF1886
C:\Users\SOLDER~1\AppData\Local\Temp\cc6haz4O.s:20654  .debug_str:0000000000005fff .LASF1887
C:\Users\SOLDER~1\AppData\Local\Temp\cc6haz4O.s:26728  .debug_str:000000000001e95b .LASF1888
C:\Users\SOLDER~1\AppData\Local\Temp\cc6haz4O.s:21276  .debug_str:00000000000088cb .LASF1889
C:\Users\SOLDER~1\AppData\Local\Temp\cc6haz4O.s:27598  .debug_str:0000000000022124 .LASF1890
C:\Users\SOLDER~1\AppData\Local\Temp\cc6haz4O.s:27564  .debug_str:0000000000021f07 .LASF1891
C:\Users\SOLDER~1\AppData\Local\Temp\cc6haz4O.s:28190  .debug_str:000000000002478c .LASF1892
C:\Users\SOLDER~1\AppData\Local\Temp\cc6haz4O.s:23686  .debug_str:00000000000124ae .LASF1893
C:\Users\SOLDER~1\AppData\Local\Temp\cc6haz4O.s:20268  .debug_str:00000000000047bb .LASF1894
C:\Users\SOLDER~1\AppData\Local\Temp\cc6haz4O.s:30150  .debug_str:000000000002c79d .LASF1895
C:\Users\SOLDER~1\AppData\Local\Temp\cc6haz4O.s:21216  .debug_str:0000000000008511 .LASF1896
C:\Users\SOLDER~1\AppData\Local\Temp\cc6haz4O.s:21468  .debug_str:0000000000009590 .LASF1897
C:\Users\SOLDER~1\AppData\Local\Temp\cc6haz4O.s:25918  .debug_str:000000000001b4aa .LASF1898
C:\Users\SOLDER~1\AppData\Local\Temp\cc6haz4O.s:21358  .debug_str:0000000000008e27 .LASF1899
C:\Users\SOLDER~1\AppData\Local\Temp\cc6haz4O.s:21090  .debug_str:0000000000007c97 .LASF1900
C:\Users\SOLDER~1\AppData\Local\Temp\cc6haz4O.s:30666  .debug_str:000000000002e8b3 .LASF1901
C:\Users\SOLDER~1\AppData\Local\Temp\cc6haz4O.s:20524  .debug_str:0000000000005760 .LASF1902
C:\Users\SOLDER~1\AppData\Local\Temp\cc6haz4O.s:30254  .debug_str:000000000002cdff .LASF1903
C:\Users\SOLDER~1\AppData\Local\Temp\cc6haz4O.s:25428  .debug_str:000000000001951d .LASF1904
C:\Users\SOLDER~1\AppData\Local\Temp\cc6haz4O.s:26974  .debug_str:000000000001f9af .LASF1905
C:\Users\SOLDER~1\AppData\Local\Temp\cc6haz4O.s:24252  .debug_str:0000000000014aaf .LASF1906
C:\Users\SOLDER~1\AppData\Local\Temp\cc6haz4O.s:26200  .debug_str:000000000001c6bf .LASF1907
C:\Users\SOLDER~1\AppData\Local\Temp\cc6haz4O.s:19558  .debug_str:00000000000019c7 .LASF1908
C:\Users\SOLDER~1\AppData\Local\Temp\cc6haz4O.s:29242  .debug_str:0000000000028d21 .LASF1909
C:\Users\SOLDER~1\AppData\Local\Temp\cc6haz4O.s:25530  .debug_str:0000000000019bc0 .LASF1910
C:\Users\SOLDER~1\AppData\Local\Temp\cc6haz4O.s:19338  .debug_str:0000000000000bf3 .LASF1911
C:\Users\SOLDER~1\AppData\Local\Temp\cc6haz4O.s:28482  .debug_str:0000000000025a99 .LASF1912
C:\Users\SOLDER~1\AppData\Local\Temp\cc6haz4O.s:29264  .debug_str:0000000000028e6b .LASF1913
C:\Users\SOLDER~1\AppData\Local\Temp\cc6haz4O.s:24762  .debug_str:0000000000016acf .LASF1914
C:\Users\SOLDER~1\AppData\Local\Temp\cc6haz4O.s:30024  .debug_str:000000000002bf34 .LASF1915
GAS LISTING C:\Users\SOLDER~1\AppData\Local\Temp\cc6haz4O.s 			page 56


C:\Users\SOLDER~1\AppData\Local\Temp\cc6haz4O.s:20592  .debug_str:0000000000005c2c .LASF1916
C:\Users\SOLDER~1\AppData\Local\Temp\cc6haz4O.s:27134  .debug_str:000000000002038b .LASF1917
C:\Users\SOLDER~1\AppData\Local\Temp\cc6haz4O.s:25704  .debug_str:000000000001a6af .LASF1918
C:\Users\SOLDER~1\AppData\Local\Temp\cc6haz4O.s:25016  .debug_str:0000000000017ac1 .LASF1919
C:\Users\SOLDER~1\AppData\Local\Temp\cc6haz4O.s:19424  .debug_str:0000000000001172 .LASF1920
C:\Users\SOLDER~1\AppData\Local\Temp\cc6haz4O.s:25610  .debug_str:000000000001a0bc .LASF1921
C:\Users\SOLDER~1\AppData\Local\Temp\cc6haz4O.s:20202  .debug_str:00000000000043b1 .LASF1922
C:\Users\SOLDER~1\AppData\Local\Temp\cc6haz4O.s:20166  .debug_str:0000000000004154 .LASF1923
C:\Users\SOLDER~1\AppData\Local\Temp\cc6haz4O.s:27922  .debug_str:0000000000023640 .LASF1924
C:\Users\SOLDER~1\AppData\Local\Temp\cc6haz4O.s:27954  .debug_str:000000000002384c .LASF1925
C:\Users\SOLDER~1\AppData\Local\Temp\cc6haz4O.s:24210  .debug_str:0000000000014800 .LASF1926
C:\Users\SOLDER~1\AppData\Local\Temp\cc6haz4O.s:22814  .debug_str:000000000000eceb .LASF1927
C:\Users\SOLDER~1\AppData\Local\Temp\cc6haz4O.s:25556  .debug_str:0000000000019d74 .LASF1928
C:\Users\SOLDER~1\AppData\Local\Temp\cc6haz4O.s:29230  .debug_str:0000000000028c6d .LASF1929
C:\Users\SOLDER~1\AppData\Local\Temp\cc6haz4O.s:22124  .debug_str:000000000000bfc4 .LASF1930
C:\Users\SOLDER~1\AppData\Local\Temp\cc6haz4O.s:21186  .debug_str:000000000000831d .LASF1931
C:\Users\SOLDER~1\AppData\Local\Temp\cc6haz4O.s:28938  .debug_str:000000000002797e .LASF1932
C:\Users\SOLDER~1\AppData\Local\Temp\cc6haz4O.s:22578  .debug_str:000000000000ddc4 .LASF1933
C:\Users\SOLDER~1\AppData\Local\Temp\cc6haz4O.s:28366  .debug_str:00000000000252e9 .LASF1934
C:\Users\SOLDER~1\AppData\Local\Temp\cc6haz4O.s:19170  .debug_str:0000000000000023 .LASF1935
C:\Users\SOLDER~1\AppData\Local\Temp\cc6haz4O.s:21614  .debug_str:0000000000009ee5 .LASF1936
C:\Users\SOLDER~1\AppData\Local\Temp\cc6haz4O.s:23218  .debug_str:000000000001073e .LASF1937
C:\Users\SOLDER~1\AppData\Local\Temp\cc6haz4O.s:20454  .debug_str:0000000000005333 .LASF1938
C:\Users\SOLDER~1\AppData\Local\Temp\cc6haz4O.s:22420  .debug_str:000000000000d38b .LASF1939
C:\Users\SOLDER~1\AppData\Local\Temp\cc6haz4O.s:27328  .debug_str:0000000000020fc0 .LASF1940
C:\Users\SOLDER~1\AppData\Local\Temp\cc6haz4O.s:19700  .debug_str:000000000000234e .LASF1941
C:\Users\SOLDER~1\AppData\Local\Temp\cc6haz4O.s:25054  .debug_str:0000000000017d33 .LASF1942
C:\Users\SOLDER~1\AppData\Local\Temp\cc6haz4O.s:27182  .debug_str:00000000000206a5 .LASF1943
C:\Users\SOLDER~1\AppData\Local\Temp\cc6haz4O.s:29218  .debug_str:0000000000028bb0 .LASF1944
C:\Users\SOLDER~1\AppData\Local\Temp\cc6haz4O.s:25454  .debug_str:00000000000196f2 .LASF1945
C:\Users\SOLDER~1\AppData\Local\Temp\cc6haz4O.s:20970  .debug_str:0000000000007522 .LASF1946
C:\Users\SOLDER~1\AppData\Local\Temp\cc6haz4O.s:29382  .debug_str:0000000000029616 .LASF1947
C:\Users\SOLDER~1\AppData\Local\Temp\cc6haz4O.s:28344  .debug_str:00000000000251ac .LASF1948
C:\Users\SOLDER~1\AppData\Local\Temp\cc6haz4O.s:23388  .debug_str:00000000000111d5 .LASF1949
C:\Users\SOLDER~1\AppData\Local\Temp\cc6haz4O.s:25088  .debug_str:0000000000017f84 .LASF1950
C:\Users\SOLDER~1\AppData\Local\Temp\cc6haz4O.s:22612  .debug_str:000000000000dfea .LASF1951
C:\Users\SOLDER~1\AppData\Local\Temp\cc6haz4O.s:23622  .debug_str:00000000000120d0 .LASF1952
C:\Users\SOLDER~1\AppData\Local\Temp\cc6haz4O.s:29792  .debug_str:000000000002b04b .LASF1953
C:\Users\SOLDER~1\AppData\Local\Temp\cc6haz4O.s:24540  .debug_str:0000000000015cf5 .LASF1954
C:\Users\SOLDER~1\AppData\Local\Temp\cc6haz4O.s:25488  .debug_str:000000000001992f .LASF1955
C:\Users\SOLDER~1\AppData\Local\Temp\cc6haz4O.s:25250  .debug_str:00000000000189c2 .LASF1956
C:\Users\SOLDER~1\AppData\Local\Temp\cc6haz4O.s:20670  .debug_str:0000000000006117 .LASF1957
C:\Users\SOLDER~1\AppData\Local\Temp\cc6haz4O.s:28870  .debug_str:0000000000027541 .LASF1958
C:\Users\SOLDER~1\AppData\Local\Temp\cc6haz4O.s:27028  .debug_str:000000000001fcfc .LASF1959
C:\Users\SOLDER~1\AppData\Local\Temp\cc6haz4O.s:29736  .debug_str:000000000002acee .LASF1960
C:\Users\SOLDER~1\AppData\Local\Temp\cc6haz4O.s:25504  .debug_str:0000000000019a26 .LASF1961
C:\Users\SOLDER~1\AppData\Local\Temp\cc6haz4O.s:28528  .debug_str:0000000000025dc4 .LASF1962
C:\Users\SOLDER~1\AppData\Local\Temp\cc6haz4O.s:29028  .debug_str:0000000000027f3d .LASF1963
C:\Users\SOLDER~1\AppData\Local\Temp\cc6haz4O.s:25234  .debug_str:00000000000188c2 .LASF1964
C:\Users\SOLDER~1\AppData\Local\Temp\cc6haz4O.s:25630  .debug_str:000000000001a219 .LASF1965
C:\Users\SOLDER~1\AppData\Local\Temp\cc6haz4O.s:24652  .debug_str:0000000000016409 .LASF1966
C:\Users\SOLDER~1\AppData\Local\Temp\cc6haz4O.s:19848  .debug_str:0000000000002cea .LASF1967
C:\Users\SOLDER~1\AppData\Local\Temp\cc6haz4O.s:29494  .debug_str:0000000000029d17 .LASF1968
C:\Users\SOLDER~1\AppData\Local\Temp\cc6haz4O.s:25558  .debug_str:0000000000019d98 .LASF1969
C:\Users\SOLDER~1\AppData\Local\Temp\cc6haz4O.s:28300  .debug_str:0000000000024ec6 .LASF1970
C:\Users\SOLDER~1\AppData\Local\Temp\cc6haz4O.s:30300  .debug_str:000000000002d12e .LASF1971
C:\Users\SOLDER~1\AppData\Local\Temp\cc6haz4O.s:23564  .debug_str:0000000000011d1d .LASF1972
GAS LISTING C:\Users\SOLDER~1\AppData\Local\Temp\cc6haz4O.s 			page 57


C:\Users\SOLDER~1\AppData\Local\Temp\cc6haz4O.s:27544  .debug_str:0000000000021db7 .LASF1973
C:\Users\SOLDER~1\AppData\Local\Temp\cc6haz4O.s:29586  .debug_str:000000000002a34a .LASF1974
C:\Users\SOLDER~1\AppData\Local\Temp\cc6haz4O.s:23436  .debug_str:00000000000114cf .LASF1975
C:\Users\SOLDER~1\AppData\Local\Temp\cc6haz4O.s:20988  .debug_str:0000000000007642 .LASF1976
C:\Users\SOLDER~1\AppData\Local\Temp\cc6haz4O.s:21638  .debug_str:000000000000a099 .LASF1977
C:\Users\SOLDER~1\AppData\Local\Temp\cc6haz4O.s:19334  .debug_str:0000000000000bab .LASF1978
C:\Users\SOLDER~1\AppData\Local\Temp\cc6haz4O.s:25554  .debug_str:0000000000019d4f .LASF1979
C:\Users\SOLDER~1\AppData\Local\Temp\cc6haz4O.s:24630  .debug_str:00000000000162a9 .LASF1980
C:\Users\SOLDER~1\AppData\Local\Temp\cc6haz4O.s:19606  .debug_str:0000000000001d1c .LASF1981
C:\Users\SOLDER~1\AppData\Local\Temp\cc6haz4O.s:21278  .debug_str:00000000000088ef .LASF1982
C:\Users\SOLDER~1\AppData\Local\Temp\cc6haz4O.s:21850  .debug_str:000000000000ae97 .LASF1983
C:\Users\SOLDER~1\AppData\Local\Temp\cc6haz4O.s:27896  .debug_str:0000000000023473 .LASF1984
C:\Users\SOLDER~1\AppData\Local\Temp\cc6haz4O.s:23552  .debug_str:0000000000011c49 .LASF1985
C:\Users\SOLDER~1\AppData\Local\Temp\cc6haz4O.s:28808  .debug_str:0000000000027132 .LASF1986
C:\Users\SOLDER~1\AppData\Local\Temp\cc6haz4O.s:28766  .debug_str:0000000000026e5b .LASF1987
C:\Users\SOLDER~1\AppData\Local\Temp\cc6haz4O.s:29518  .debug_str:0000000000029ebf .LASF1988
C:\Users\SOLDER~1\AppData\Local\Temp\cc6haz4O.s:24934  .debug_str:000000000001759b .LASF1989
C:\Users\SOLDER~1\AppData\Local\Temp\cc6haz4O.s:22174  .debug_str:000000000000c31a .LASF1990
C:\Users\SOLDER~1\AppData\Local\Temp\cc6haz4O.s:19706  .debug_str:00000000000023b0 .LASF1991
C:\Users\SOLDER~1\AppData\Local\Temp\cc6haz4O.s:22408  .debug_str:000000000000d2c7 .LASF1992
C:\Users\SOLDER~1\AppData\Local\Temp\cc6haz4O.s:27520  .debug_str:0000000000021c57 .LASF1993
C:\Users\SOLDER~1\AppData\Local\Temp\cc6haz4O.s:26238  .debug_str:000000000001c948 .LASF1994
C:\Users\SOLDER~1\AppData\Local\Temp\cc6haz4O.s:23858  .debug_str:0000000000012fd7 .LASF1995
C:\Users\SOLDER~1\AppData\Local\Temp\cc6haz4O.s:21422  .debug_str:00000000000092a2 .LASF1996
C:\Users\SOLDER~1\AppData\Local\Temp\cc6haz4O.s:19368  .debug_str:0000000000000e1e .LASF1997
C:\Users\SOLDER~1\AppData\Local\Temp\cc6haz4O.s:20772  .debug_str:00000000000067ee .LASF1998
C:\Users\SOLDER~1\AppData\Local\Temp\cc6haz4O.s:27684  .debug_str:000000000002265a .LASF1999
C:\Users\SOLDER~1\AppData\Local\Temp\cc6haz4O.s:25748  .debug_str:000000000001a9b3 .LASF2000
C:\Users\SOLDER~1\AppData\Local\Temp\cc6haz4O.s:27290  .debug_str:0000000000020d77 .LASF2001
C:\Users\SOLDER~1\AppData\Local\Temp\cc6haz4O.s:24492  .debug_str:0000000000015a0f .LASF2002
C:\Users\SOLDER~1\AppData\Local\Temp\cc6haz4O.s:26436  .debug_str:000000000001d6c1 .LASF2003
C:\Users\SOLDER~1\AppData\Local\Temp\cc6haz4O.s:19798  .debug_str:00000000000029f1 .LASF2004
C:\Users\SOLDER~1\AppData\Local\Temp\cc6haz4O.s:23804  .debug_str:0000000000012c28 .LASF2005
C:\Users\SOLDER~1\AppData\Local\Temp\cc6haz4O.s:19402  .debug_str:000000000000100e .LASF2006
C:\Users\SOLDER~1\AppData\Local\Temp\cc6haz4O.s:19650  .debug_str:0000000000001fef .LASF2007
C:\Users\SOLDER~1\AppData\Local\Temp\cc6haz4O.s:28832  .debug_str:00000000000272b8 .LASF2008
C:\Users\SOLDER~1\AppData\Local\Temp\cc6haz4O.s:29524  .debug_str:0000000000029f2a .LASF2009
C:\Users\SOLDER~1\AppData\Local\Temp\cc6haz4O.s:22324  .debug_str:000000000000cd49 .LASF2010
C:\Users\SOLDER~1\AppData\Local\Temp\cc6haz4O.s:21746  .debug_str:000000000000a7d7 .LASF2011
C:\Users\SOLDER~1\AppData\Local\Temp\cc6haz4O.s:20838  .debug_str:0000000000006c52 .LASF2012
C:\Users\SOLDER~1\AppData\Local\Temp\cc6haz4O.s:27450  .debug_str:00000000000217dc .LASF2013
C:\Users\SOLDER~1\AppData\Local\Temp\cc6haz4O.s:29130  .debug_str:00000000000285da .LASF2014
C:\Users\SOLDER~1\AppData\Local\Temp\cc6haz4O.s:26164  .debug_str:000000000001c48a .LASF2015
C:\Users\SOLDER~1\AppData\Local\Temp\cc6haz4O.s:20600  .debug_str:0000000000005cbe .LASF2016
C:\Users\SOLDER~1\AppData\Local\Temp\cc6haz4O.s:26780  .debug_str:000000000001ece6 .LASF2017
C:\Users\SOLDER~1\AppData\Local\Temp\cc6haz4O.s:21506  .debug_str:00000000000097f0 .LASF2018
C:\Users\SOLDER~1\AppData\Local\Temp\cc6haz4O.s:21374  .debug_str:0000000000008f48 .LASF2019
C:\Users\SOLDER~1\AppData\Local\Temp\cc6haz4O.s:22096  .debug_str:000000000000be29 .LASF2020
C:\Users\SOLDER~1\AppData\Local\Temp\cc6haz4O.s:29190  .debug_str:00000000000289cd .LASF2021
C:\Users\SOLDER~1\AppData\Local\Temp\cc6haz4O.s:25796  .debug_str:000000000001acd0 .LASF2022
C:\Users\SOLDER~1\AppData\Local\Temp\cc6haz4O.s:24044  .debug_str:0000000000013c95 .LASF2023
C:\Users\SOLDER~1\AppData\Local\Temp\cc6haz4O.s:30166  .debug_str:000000000002c89e .LASF2024
C:\Users\SOLDER~1\AppData\Local\Temp\cc6haz4O.s:30572  .debug_str:000000000002e2ac .LASF2025
C:\Users\SOLDER~1\AppData\Local\Temp\cc6haz4O.s:22940  .debug_str:000000000000f503 .LASF2026
C:\Users\SOLDER~1\AppData\Local\Temp\cc6haz4O.s:21520  .debug_str:00000000000098e2 .LASF2027
C:\Users\SOLDER~1\AppData\Local\Temp\cc6haz4O.s:29280  .debug_str:0000000000028f82 .LASF2028
C:\Users\SOLDER~1\AppData\Local\Temp\cc6haz4O.s:27208  .debug_str:0000000000020849 .LASF2029
GAS LISTING C:\Users\SOLDER~1\AppData\Local\Temp\cc6haz4O.s 			page 58


C:\Users\SOLDER~1\AppData\Local\Temp\cc6haz4O.s:28602  .debug_str:00000000000262f6 .LASF2030
C:\Users\SOLDER~1\AppData\Local\Temp\cc6haz4O.s:23972  .debug_str:0000000000013770 .LASF2031
C:\Users\SOLDER~1\AppData\Local\Temp\cc6haz4O.s:21860  .debug_str:000000000000af58 .LASF2032
C:\Users\SOLDER~1\AppData\Local\Temp\cc6haz4O.s:23538  .debug_str:0000000000011b68 .LASF2033
C:\Users\SOLDER~1\AppData\Local\Temp\cc6haz4O.s:20704  .debug_str:000000000000637e .LASF2034
C:\Users\SOLDER~1\AppData\Local\Temp\cc6haz4O.s:22666  .debug_str:000000000000e3c4 .LASF2035
C:\Users\SOLDER~1\AppData\Local\Temp\cc6haz4O.s:30206  .debug_str:000000000002cb23 .LASF2036
C:\Users\SOLDER~1\AppData\Local\Temp\cc6haz4O.s:29656  .debug_str:000000000002a7f1 .LASF2037
C:\Users\SOLDER~1\AppData\Local\Temp\cc6haz4O.s:21486  .debug_str:00000000000096c3 .LASF2038
C:\Users\SOLDER~1\AppData\Local\Temp\cc6haz4O.s:27506  .debug_str:0000000000021b66 .LASF2039
C:\Users\SOLDER~1\AppData\Local\Temp\cc6haz4O.s:25044  .debug_str:0000000000017c79 .LASF2040
C:\Users\SOLDER~1\AppData\Local\Temp\cc6haz4O.s:25774  .debug_str:000000000001ab4a .LASF2041
C:\Users\SOLDER~1\AppData\Local\Temp\cc6haz4O.s:24440  .debug_str:0000000000015708 .LASF2042
C:\Users\SOLDER~1\AppData\Local\Temp\cc6haz4O.s:29614  .debug_str:000000000002a533 .LASF2043
C:\Users\SOLDER~1\AppData\Local\Temp\cc6haz4O.s:28680  .debug_str:0000000000026843 .LASF2044
C:\Users\SOLDER~1\AppData\Local\Temp\cc6haz4O.s:24132  .debug_str:000000000001427d .LASF2045
C:\Users\SOLDER~1\AppData\Local\Temp\cc6haz4O.s:25406  .debug_str:00000000000193c7 .LASF2046
C:\Users\SOLDER~1\AppData\Local\Temp\cc6haz4O.s:21454  .debug_str:00000000000094c1 .LASF2047
C:\Users\SOLDER~1\AppData\Local\Temp\cc6haz4O.s:27512  .debug_str:0000000000021bd2 .LASF2048
C:\Users\SOLDER~1\AppData\Local\Temp\cc6haz4O.s:22066  .debug_str:000000000000bc1e .LASF2049
C:\Users\SOLDER~1\AppData\Local\Temp\cc6haz4O.s:28400  .debug_str:000000000002552c .LASF2050
C:\Users\SOLDER~1\AppData\Local\Temp\cc6haz4O.s:27068  .debug_str:000000000001ff70 .LASF2051
C:\Users\SOLDER~1\AppData\Local\Temp\cc6haz4O.s:29012  .debug_str:0000000000027e0a .LASF2052
C:\Users\SOLDER~1\AppData\Local\Temp\cc6haz4O.s:24508  .debug_str:0000000000015b0d .LASF2053
C:\Users\SOLDER~1\AppData\Local\Temp\cc6haz4O.s:30296  .debug_str:000000000002d0e7 .LASF2054
C:\Users\SOLDER~1\AppData\Local\Temp\cc6haz4O.s:19320  .debug_str:0000000000000aa5 .LASF2055
C:\Users\SOLDER~1\AppData\Local\Temp\cc6haz4O.s:22006  .debug_str:000000000000b87f .LASF2056
C:\Users\SOLDER~1\AppData\Local\Temp\cc6haz4O.s:28384  .debug_str:000000000002542f .LASF2057
C:\Users\SOLDER~1\AppData\Local\Temp\cc6haz4O.s:29456  .debug_str:0000000000029aa6 .LASF2058
C:\Users\SOLDER~1\AppData\Local\Temp\cc6haz4O.s:20352  .debug_str:0000000000004d26 .LASF2059
C:\Users\SOLDER~1\AppData\Local\Temp\cc6haz4O.s:28102  .debug_str:00000000000241a1 .LASF2060
C:\Users\SOLDER~1\AppData\Local\Temp\cc6haz4O.s:30414  .debug_str:000000000002d89c .LASF2061
C:\Users\SOLDER~1\AppData\Local\Temp\cc6haz4O.s:27460  .debug_str:0000000000021878 .LASF2062
C:\Users\SOLDER~1\AppData\Local\Temp\cc6haz4O.s:22788  .debug_str:000000000000eb7f .LASF2063
C:\Users\SOLDER~1\AppData\Local\Temp\cc6haz4O.s:30124  .debug_str:000000000002c60c .LASF2064
C:\Users\SOLDER~1\AppData\Local\Temp\cc6haz4O.s:22364  .debug_str:000000000000cfe8 .LASF2065
C:\Users\SOLDER~1\AppData\Local\Temp\cc6haz4O.s:26102  .debug_str:000000000001c077 .LASF2066
C:\Users\SOLDER~1\AppData\Local\Temp\cc6haz4O.s:21516  .debug_str:0000000000009897 .LASF2067
C:\Users\SOLDER~1\AppData\Local\Temp\cc6haz4O.s:20822  .debug_str:0000000000006b58 .LASF2068
C:\Users\SOLDER~1\AppData\Local\Temp\cc6haz4O.s:30528  .debug_str:000000000002e003 .LASF2069
C:\Users\SOLDER~1\AppData\Local\Temp\cc6haz4O.s:20908  .debug_str:000000000000710c .LASF2070
C:\Users\SOLDER~1\AppData\Local\Temp\cc6haz4O.s:26360  .debug_str:000000000001d177 .LASF2071
C:\Users\SOLDER~1\AppData\Local\Temp\cc6haz4O.s:23830  .debug_str:0000000000012e21 .LASF2072
C:\Users\SOLDER~1\AppData\Local\Temp\cc6haz4O.s:28670  .debug_str:000000000002679d .LASF2073
C:\Users\SOLDER~1\AppData\Local\Temp\cc6haz4O.s:20042  .debug_str:0000000000003986 .LASF2074
C:\Users\SOLDER~1\AppData\Local\Temp\cc6haz4O.s:28438  .debug_str:0000000000025780 .LASF2075
C:\Users\SOLDER~1\AppData\Local\Temp\cc6haz4O.s:27524  .debug_str:0000000000021ca1 .LASF2076
C:\Users\SOLDER~1\AppData\Local\Temp\cc6haz4O.s:22540  .debug_str:000000000000db4b .LASF2077
C:\Users\SOLDER~1\AppData\Local\Temp\cc6haz4O.s:24238  .debug_str:00000000000149a6 .LASF2078
C:\Users\SOLDER~1\AppData\Local\Temp\cc6haz4O.s:25784  .debug_str:000000000001abff .LASF2079
C:\Users\SOLDER~1\AppData\Local\Temp\cc6haz4O.s:20194  .debug_str:0000000000004331 .LASF2080
C:\Users\SOLDER~1\AppData\Local\Temp\cc6haz4O.s:26374  .debug_str:000000000001d257 .LASF2081
C:\Users\SOLDER~1\AppData\Local\Temp\cc6haz4O.s:25230  .debug_str:000000000001888b .LASF2082
C:\Users\SOLDER~1\AppData\Local\Temp\cc6haz4O.s:20982  .debug_str:00000000000075dd .LASF2083
C:\Users\SOLDER~1\AppData\Local\Temp\cc6haz4O.s:21678  .debug_str:000000000000a333 .LASF2084
C:\Users\SOLDER~1\AppData\Local\Temp\cc6haz4O.s:24444  .debug_str:000000000001574d .LASF2085
C:\Users\SOLDER~1\AppData\Local\Temp\cc6haz4O.s:23794  .debug_str:0000000000012b91 .LASF2086
GAS LISTING C:\Users\SOLDER~1\AppData\Local\Temp\cc6haz4O.s 			page 59


C:\Users\SOLDER~1\AppData\Local\Temp\cc6haz4O.s:23616  .debug_str:0000000000012068 .LASF2087
C:\Users\SOLDER~1\AppData\Local\Temp\cc6haz4O.s:26320  .debug_str:000000000001cf01 .LASF2088
C:\Users\SOLDER~1\AppData\Local\Temp\cc6haz4O.s:24678  .debug_str:000000000001659b .LASF2089
C:\Users\SOLDER~1\AppData\Local\Temp\cc6haz4O.s:29172  .debug_str:000000000002886d .LASF2090
C:\Users\SOLDER~1\AppData\Local\Temp\cc6haz4O.s:26178  .debug_str:000000000001c577 .LASF2091
C:\Users\SOLDER~1\AppData\Local\Temp\cc6haz4O.s:24376  .debug_str:00000000000152b9 .LASF2092
C:\Users\SOLDER~1\AppData\Local\Temp\cc6haz4O.s:22192  .debug_str:000000000000c453 .LASF2093
C:\Users\SOLDER~1\AppData\Local\Temp\cc6haz4O.s:23710  .debug_str:000000000001263f .LASF2094
C:\Users\SOLDER~1\AppData\Local\Temp\cc6haz4O.s:30676  .debug_str:000000000002e96a .LASF2095
C:\Users\SOLDER~1\AppData\Local\Temp\cc6haz4O.s:28542  .debug_str:0000000000025eb2 .LASF2096
C:\Users\SOLDER~1\AppData\Local\Temp\cc6haz4O.s:25398  .debug_str:0000000000019338 .LASF2097
C:\Users\SOLDER~1\AppData\Local\Temp\cc6haz4O.s:27400  .debug_str:00000000000214a3 .LASF2098
C:\Users\SOLDER~1\AppData\Local\Temp\cc6haz4O.s:29384  .debug_str:000000000002963b .LASF2099
C:\Users\SOLDER~1\AppData\Local\Temp\cc6haz4O.s:23838  .debug_str:0000000000012e9a .LASF2100
C:\Users\SOLDER~1\AppData\Local\Temp\cc6haz4O.s:26744  .debug_str:000000000001ea7b .LASF2101
C:\Users\SOLDER~1\AppData\Local\Temp\cc6haz4O.s:28648  .debug_str:0000000000026640 .LASF2102
C:\Users\SOLDER~1\AppData\Local\Temp\cc6haz4O.s:22590  .debug_str:000000000000de77 .LASF2103
C:\Users\SOLDER~1\AppData\Local\Temp\cc6haz4O.s:20062  .debug_str:0000000000003acd .LASF2104
C:\Users\SOLDER~1\AppData\Local\Temp\cc6haz4O.s:20820  .debug_str:0000000000006b32 .LASF2105
C:\Users\SOLDER~1\AppData\Local\Temp\cc6haz4O.s:27878  .debug_str:000000000002333a .LASF2106
C:\Users\SOLDER~1\AppData\Local\Temp\cc6haz4O.s:24728  .debug_str:000000000001688b .LASF2107
C:\Users\SOLDER~1\AppData\Local\Temp\cc6haz4O.s:23778  .debug_str:0000000000012a60 .LASF2108
C:\Users\SOLDER~1\AppData\Local\Temp\cc6haz4O.s:30420  .debug_str:000000000002d905 .LASF2109
C:\Users\SOLDER~1\AppData\Local\Temp\cc6haz4O.s:20346  .debug_str:0000000000004cc5 .LASF2110
C:\Users\SOLDER~1\AppData\Local\Temp\cc6haz4O.s:30076  .debug_str:000000000002c30a .LASF2111
C:\Users\SOLDER~1\AppData\Local\Temp\cc6haz4O.s:24432  .debug_str:0000000000015684 .LASF2112
C:\Users\SOLDER~1\AppData\Local\Temp\cc6haz4O.s:30612  .debug_str:000000000002e536 .LASF2113
C:\Users\SOLDER~1\AppData\Local\Temp\cc6haz4O.s:28660  .debug_str:00000000000266ea .LASF2114
C:\Users\SOLDER~1\AppData\Local\Temp\cc6haz4O.s:25322  .debug_str:0000000000018e96 .LASF2115
C:\Users\SOLDER~1\AppData\Local\Temp\cc6haz4O.s:26030  .debug_str:000000000001bbaa .LASF2116
C:\Users\SOLDER~1\AppData\Local\Temp\cc6haz4O.s:21472  .debug_str:00000000000095d8 .LASF2117
C:\Users\SOLDER~1\AppData\Local\Temp\cc6haz4O.s:29692  .debug_str:000000000002aa07 .LASF2118
C:\Users\SOLDER~1\AppData\Local\Temp\cc6haz4O.s:27802  .debug_str:0000000000022e59 .LASF2119
C:\Users\SOLDER~1\AppData\Local\Temp\cc6haz4O.s:30556  .debug_str:000000000002e1bc .LASF2120
C:\Users\SOLDER~1\AppData\Local\Temp\cc6haz4O.s:20882  .debug_str:0000000000006f27 .LASF2121
C:\Users\SOLDER~1\AppData\Local\Temp\cc6haz4O.s:25444  .debug_str:000000000001964e .LASF2122
C:\Users\SOLDER~1\AppData\Local\Temp\cc6haz4O.s:24470  .debug_str:00000000000158c5 .LASF2123
C:\Users\SOLDER~1\AppData\Local\Temp\cc6haz4O.s:23146  .debug_str:000000000001029d .LASF2124
C:\Users\SOLDER~1\AppData\Local\Temp\cc6haz4O.s:30072  .debug_str:000000000002c2ac .LASF2125
C:\Users\SOLDER~1\AppData\Local\Temp\cc6haz4O.s:19946  .debug_str:0000000000003350 .LASF2126
C:\Users\SOLDER~1\AppData\Local\Temp\cc6haz4O.s:26902  .debug_str:000000000001f4f6 .LASF2127
C:\Users\SOLDER~1\AppData\Local\Temp\cc6haz4O.s:24850  .debug_str:0000000000016ff0 .LASF2128
C:\Users\SOLDER~1\AppData\Local\Temp\cc6haz4O.s:27432  .debug_str:000000000002169f .LASF2129
C:\Users\SOLDER~1\AppData\Local\Temp\cc6haz4O.s:23646  .debug_str:0000000000012243 .LASF2130
C:\Users\SOLDER~1\AppData\Local\Temp\cc6haz4O.s:21908  .debug_str:000000000000b245 .LASF2131
C:\Users\SOLDER~1\AppData\Local\Temp\cc6haz4O.s:30626  .debug_str:000000000002e610 .LASF2132
C:\Users\SOLDER~1\AppData\Local\Temp\cc6haz4O.s:22978  .debug_str:000000000000f784 .LASF2133
C:\Users\SOLDER~1\AppData\Local\Temp\cc6haz4O.s:24966  .debug_str:00000000000177ae .LASF2134
C:\Users\SOLDER~1\AppData\Local\Temp\cc6haz4O.s:30476  .debug_str:000000000002dc92 .LASF2135
C:\Users\SOLDER~1\AppData\Local\Temp\cc6haz4O.s:24292  .debug_str:0000000000014d70 .LASF2136
C:\Users\SOLDER~1\AppData\Local\Temp\cc6haz4O.s:28662  .debug_str:000000000002670f .LASF2137
C:\Users\SOLDER~1\AppData\Local\Temp\cc6haz4O.s:24164  .debug_str:00000000000144e2 .LASF2138
C:\Users\SOLDER~1\AppData\Local\Temp\cc6haz4O.s:20938  .debug_str:0000000000007301 .LASF2139
C:\Users\SOLDER~1\AppData\Local\Temp\cc6haz4O.s:20010  .debug_str:0000000000003773 .LASF2140
C:\Users\SOLDER~1\AppData\Local\Temp\cc6haz4O.s:26846  .debug_str:000000000001f117 .LASF2141
C:\Users\SOLDER~1\AppData\Local\Temp\cc6haz4O.s:28186  .debug_str:0000000000024753 .LASF2142
C:\Users\SOLDER~1\AppData\Local\Temp\cc6haz4O.s:22640  .debug_str:000000000000e1e8 .LASF2143
GAS LISTING C:\Users\SOLDER~1\AppData\Local\Temp\cc6haz4O.s 			page 60


C:\Users\SOLDER~1\AppData\Local\Temp\cc6haz4O.s:28706  .debug_str:0000000000026a28 .LASF2144
C:\Users\SOLDER~1\AppData\Local\Temp\cc6haz4O.s:23292  .debug_str:0000000000010bf1 .LASF2145
C:\Users\SOLDER~1\AppData\Local\Temp\cc6haz4O.s:29622  .debug_str:000000000002a5b5 .LASF2146
C:\Users\SOLDER~1\AppData\Local\Temp\cc6haz4O.s:29582  .debug_str:000000000002a30b .LASF2147
C:\Users\SOLDER~1\AppData\Local\Temp\cc6haz4O.s:30318  .debug_str:000000000002d299 .LASF2148
C:\Users\SOLDER~1\AppData\Local\Temp\cc6haz4O.s:26756  .debug_str:000000000001eb56 .LASF2149
C:\Users\SOLDER~1\AppData\Local\Temp\cc6haz4O.s:22258  .debug_str:000000000000c8c1 .LASF2150
C:\Users\SOLDER~1\AppData\Local\Temp\cc6haz4O.s:20502  .debug_str:0000000000005603 .LASF2151
C:\Users\SOLDER~1\AppData\Local\Temp\cc6haz4O.s:24384  .debug_str:0000000000015343 .LASF2152
C:\Users\SOLDER~1\AppData\Local\Temp\cc6haz4O.s:28726  .debug_str:0000000000026b97 .LASF2153
C:\Users\SOLDER~1\AppData\Local\Temp\cc6haz4O.s:21628  .debug_str:0000000000009fe1 .LASF2154
C:\Users\SOLDER~1\AppData\Local\Temp\cc6haz4O.s:20690  .debug_str:0000000000006296 .LASF2155
C:\Users\SOLDER~1\AppData\Local\Temp\cc6haz4O.s:28340  .debug_str:0000000000025161 .LASF2156
C:\Users\SOLDER~1\AppData\Local\Temp\cc6haz4O.s:26304  .debug_str:000000000001cdd1 .LASF2157
C:\Users\SOLDER~1\AppData\Local\Temp\cc6haz4O.s:27780  .debug_str:0000000000022cde .LASF2158
C:\Users\SOLDER~1\AppData\Local\Temp\cc6haz4O.s:23144  .debug_str:0000000000010277 .LASF2159
C:\Users\SOLDER~1\AppData\Local\Temp\cc6haz4O.s:21050  .debug_str:00000000000079d3 .LASF2160
C:\Users\SOLDER~1\AppData\Local\Temp\cc6haz4O.s:30468  .debug_str:000000000002dc17 .LASF2161
C:\Users\SOLDER~1\AppData\Local\Temp\cc6haz4O.s:19876  .debug_str:0000000000002ece .LASF2162
C:\Users\SOLDER~1\AppData\Local\Temp\cc6haz4O.s:21844  .debug_str:000000000000ae28 .LASF2163
C:\Users\SOLDER~1\AppData\Local\Temp\cc6haz4O.s:29850  .debug_str:000000000002b45d .LASF2164
C:\Users\SOLDER~1\AppData\Local\Temp\cc6haz4O.s:19226  .debug_str:00000000000003d1 .LASF2165
C:\Users\SOLDER~1\AppData\Local\Temp\cc6haz4O.s:21150  .debug_str:0000000000008099 .LASF2166
C:\Users\SOLDER~1\AppData\Local\Temp\cc6haz4O.s:26612  .debug_str:000000000001e1ed .LASF2167
C:\Users\SOLDER~1\AppData\Local\Temp\cc6haz4O.s:24184  .debug_str:000000000001463d .LASF2168
C:\Users\SOLDER~1\AppData\Local\Temp\cc6haz4O.s:24980  .debug_str:0000000000017895 .LASF2169
C:\Users\SOLDER~1\AppData\Local\Temp\cc6haz4O.s:20374  .debug_str:0000000000004e79 .LASF2170
C:\Users\SOLDER~1\AppData\Local\Temp\cc6haz4O.s:28774  .debug_str:0000000000026ee0 .LASF2171
C:\Users\SOLDER~1\AppData\Local\Temp\cc6haz4O.s:27846  .debug_str:0000000000023118 .LASF2172
C:\Users\SOLDER~1\AppData\Local\Temp\cc6haz4O.s:22782  .debug_str:000000000000eb20 .LASF2173
C:\Users\SOLDER~1\AppData\Local\Temp\cc6haz4O.s:24464  .debug_str:000000000001588b .LASF2174
C:\Users\SOLDER~1\AppData\Local\Temp\cc6haz4O.s:25872  .debug_str:000000000001b1e7 .LASF2175
C:\Users\SOLDER~1\AppData\Local\Temp\cc6haz4O.s:25122  .debug_str:00000000000181f1 .LASF2176
C:\Users\SOLDER~1\AppData\Local\Temp\cc6haz4O.s:24462  .debug_str:0000000000015873 .LASF2177
C:\Users\SOLDER~1\AppData\Local\Temp\cc6haz4O.s:26152  .debug_str:000000000001c3d6 .LASF2178
C:\Users\SOLDER~1\AppData\Local\Temp\cc6haz4O.s:23130  .debug_str:00000000000101bb .LASF2179
C:\Users\SOLDER~1\AppData\Local\Temp\cc6haz4O.s:25240  .debug_str:000000000001891e .LASF2180
C:\Users\SOLDER~1\AppData\Local\Temp\cc6haz4O.s:21538  .debug_str:0000000000009a0c .LASF2181
C:\Users\SOLDER~1\AppData\Local\Temp\cc6haz4O.s:23384  .debug_str:000000000001119c .LASF2182
C:\Users\SOLDER~1\AppData\Local\Temp\cc6haz4O.s:19750  .debug_str:000000000000269a .LASF2183
C:\Users\SOLDER~1\AppData\Local\Temp\cc6haz4O.s:28636  .debug_str:0000000000026577 .LASF2184
C:\Users\SOLDER~1\AppData\Local\Temp\cc6haz4O.s:24082  .debug_str:0000000000013f4a .LASF2185
C:\Users\SOLDER~1\AppData\Local\Temp\cc6haz4O.s:22180  .debug_str:000000000000c373 .LASF2186
C:\Users\SOLDER~1\AppData\Local\Temp\cc6haz4O.s:21484  .debug_str:00000000000096b0 .LASF2187
C:\Users\SOLDER~1\AppData\Local\Temp\cc6haz4O.s:27350  .debug_str:0000000000021132 .LASF2188
C:\Users\SOLDER~1\AppData\Local\Temp\cc6haz4O.s:27118  .debug_str:00000000000202a4 .LASF2189
C:\Users\SOLDER~1\AppData\Local\Temp\cc6haz4O.s:24018  .debug_str:0000000000013aa5 .LASF2190
C:\Users\SOLDER~1\AppData\Local\Temp\cc6haz4O.s:22796  .debug_str:000000000000ebf8 .LASF2191
C:\Users\SOLDER~1\AppData\Local\Temp\cc6haz4O.s:23964  .debug_str:00000000000136e0 .LASF2192
C:\Users\SOLDER~1\AppData\Local\Temp\cc6haz4O.s:28402  .debug_str:0000000000025551 .LASF2193
C:\Users\SOLDER~1\AppData\Local\Temp\cc6haz4O.s:29726  .debug_str:000000000002ac33 .LASF2194
C:\Users\SOLDER~1\AppData\Local\Temp\cc6haz4O.s:27052  .debug_str:000000000001fe81 .LASF2195
C:\Users\SOLDER~1\AppData\Local\Temp\cc6haz4O.s:25896  .debug_str:000000000001b340 .LASF2196
C:\Users\SOLDER~1\AppData\Local\Temp\cc6haz4O.s:22720  .debug_str:000000000000e6fe .LASF2197
C:\Users\SOLDER~1\AppData\Local\Temp\cc6haz4O.s:26250  .debug_str:000000000001ca24 .LASF2198
C:\Users\SOLDER~1\AppData\Local\Temp\cc6haz4O.s:28354  .debug_str:0000000000025244 .LASF2199
C:\Users\SOLDER~1\AppData\Local\Temp\cc6haz4O.s:22254  .debug_str:000000000000c880 .LASF2200
GAS LISTING C:\Users\SOLDER~1\AppData\Local\Temp\cc6haz4O.s 			page 61


C:\Users\SOLDER~1\AppData\Local\Temp\cc6haz4O.s:19988  .debug_str:000000000000361c .LASF2201
C:\Users\SOLDER~1\AppData\Local\Temp\cc6haz4O.s:27166  .debug_str:0000000000020589 .LASF2202
C:\Users\SOLDER~1\AppData\Local\Temp\cc6haz4O.s:29318  .debug_str:00000000000291d4 .LASF2203
C:\Users\SOLDER~1\AppData\Local\Temp\cc6haz4O.s:30418  .debug_str:000000000002d8e4 .LASF2204
C:\Users\SOLDER~1\AppData\Local\Temp\cc6haz4O.s:24568  .debug_str:0000000000015ea9 .LASF2205
C:\Users\SOLDER~1\AppData\Local\Temp\cc6haz4O.s:19734  .debug_str:0000000000002596 .LASF2206
C:\Users\SOLDER~1\AppData\Local\Temp\cc6haz4O.s:19696  .debug_str:0000000000002314 .LASF2207
C:\Users\SOLDER~1\AppData\Local\Temp\cc6haz4O.s:26736  .debug_str:000000000001e9f6 .LASF2208
C:\Users\SOLDER~1\AppData\Local\Temp\cc6haz4O.s:25852  .debug_str:000000000001b0c5 .LASF2209
C:\Users\SOLDER~1\AppData\Local\Temp\cc6haz4O.s:23288  .debug_str:0000000000010bac .LASF2210
C:\Users\SOLDER~1\AppData\Local\Temp\cc6haz4O.s:23536  .debug_str:0000000000011b54 .LASF2211
C:\Users\SOLDER~1\AppData\Local\Temp\cc6haz4O.s:24898  .debug_str:0000000000017313 .LASF2212
C:\Users\SOLDER~1\AppData\Local\Temp\cc6haz4O.s:30056  .debug_str:000000000002c18d .LASF2213
C:\Users\SOLDER~1\AppData\Local\Temp\cc6haz4O.s:27480  .debug_str:00000000000219ba .LASF2214
C:\Users\SOLDER~1\AppData\Local\Temp\cc6haz4O.s:25574  .debug_str:0000000000019ea4 .LASF2215
C:\Users\SOLDER~1\AppData\Local\Temp\cc6haz4O.s:24770  .debug_str:0000000000016b52 .LASF2216
C:\Users\SOLDER~1\AppData\Local\Temp\cc6haz4O.s:19950  .debug_str:000000000000339c .LASF2217
C:\Users\SOLDER~1\AppData\Local\Temp\cc6haz4O.s:24696  .debug_str:00000000000166c0 .LASF2218
C:\Users\SOLDER~1\AppData\Local\Temp\cc6haz4O.s:24562  .debug_str:0000000000015e61 .LASF2219
C:\Users\SOLDER~1\AppData\Local\Temp\cc6haz4O.s:21814  .debug_str:000000000000ac54 .LASF2220
C:\Users\SOLDER~1\AppData\Local\Temp\cc6haz4O.s:27026  .debug_str:000000000001fce9 .LASF2221
C:\Users\SOLDER~1\AppData\Local\Temp\cc6haz4O.s:28908  .debug_str:00000000000277b0 .LASF2222
C:\Users\SOLDER~1\AppData\Local\Temp\cc6haz4O.s:20774  .debug_str:0000000000006813 .LASF2223
C:\Users\SOLDER~1\AppData\Local\Temp\cc6haz4O.s:21510  .debug_str:0000000000009839 .LASF2224
C:\Users\SOLDER~1\AppData\Local\Temp\cc6haz4O.s:23694  .debug_str:0000000000012520 .LASF2225
C:\Users\SOLDER~1\AppData\Local\Temp\cc6haz4O.s:24130  .debug_str:000000000001425c .LASF2226
C:\Users\SOLDER~1\AppData\Local\Temp\cc6haz4O.s:26274  .debug_str:000000000001cbc7 .LASF2227
C:\Users\SOLDER~1\AppData\Local\Temp\cc6haz4O.s:30204  .debug_str:000000000002cb02 .LASF2228
C:\Users\SOLDER~1\AppData\Local\Temp\cc6haz4O.s:21238  .debug_str:0000000000008673 .LASF2229
C:\Users\SOLDER~1\AppData\Local\Temp\cc6haz4O.s:27362  .debug_str:000000000002120f .LASF2230
C:\Users\SOLDER~1\AppData\Local\Temp\cc6haz4O.s:28240  .debug_str:0000000000024ad3 .LASF2231
C:\Users\SOLDER~1\AppData\Local\Temp\cc6haz4O.s:24176  .debug_str:00000000000145a2 .LASF2232
C:\Users\SOLDER~1\AppData\Local\Temp\cc6haz4O.s:20842  .debug_str:0000000000006c8f .LASF2233
C:\Users\SOLDER~1\AppData\Local\Temp\cc6haz4O.s:23602  .debug_str:0000000000011f74 .LASF2234
C:\Users\SOLDER~1\AppData\Local\Temp\cc6haz4O.s:20468  .debug_str:0000000000005410 .LASF2235
C:\Users\SOLDER~1\AppData\Local\Temp\cc6haz4O.s:30258  .debug_str:000000000002ce4e .LASF2236
C:\Users\SOLDER~1\AppData\Local\Temp\cc6haz4O.s:27082  .debug_str:000000000002004e .LASF2237
C:\Users\SOLDER~1\AppData\Local\Temp\cc6haz4O.s:29674  .debug_str:000000000002a904 .LASF2238
C:\Users\SOLDER~1\AppData\Local\Temp\cc6haz4O.s:22476  .debug_str:000000000000d744 .LASF2239
C:\Users\SOLDER~1\AppData\Local\Temp\cc6haz4O.s:23928  .debug_str:000000000001346e .LASF2240
C:\Users\SOLDER~1\AppData\Local\Temp\cc6haz4O.s:19656  .debug_str:000000000000204b .LASF2241
C:\Users\SOLDER~1\AppData\Local\Temp\cc6haz4O.s:28748  .debug_str:0000000000026d23 .LASF2242
C:\Users\SOLDER~1\AppData\Local\Temp\cc6haz4O.s:28688  .debug_str:00000000000268ed .LASF2243
C:\Users\SOLDER~1\AppData\Local\Temp\cc6haz4O.s:23068  .debug_str:000000000000fdcc .LASF2244
C:\Users\SOLDER~1\AppData\Local\Temp\cc6haz4O.s:19252  .debug_str:0000000000000580 .LASF2245
C:\Users\SOLDER~1\AppData\Local\Temp\cc6haz4O.s:19204  .debug_str:0000000000000240 .LASF2246
C:\Users\SOLDER~1\AppData\Local\Temp\cc6haz4O.s:25026  .debug_str:0000000000017b6a .LASF2247
C:\Users\SOLDER~1\AppData\Local\Temp\cc6haz4O.s:21122  .debug_str:0000000000007eb7 .LASF2248
C:\Users\SOLDER~1\AppData\Local\Temp\cc6haz4O.s:24202  .debug_str:000000000001476d .LASF2249
C:\Users\SOLDER~1\AppData\Local\Temp\cc6haz4O.s:22410  .debug_str:000000000000d2eb .LASF2250
C:\Users\SOLDER~1\AppData\Local\Temp\cc6haz4O.s:21880  .debug_str:000000000000b09e .LASF2251
C:\Users\SOLDER~1\AppData\Local\Temp\cc6haz4O.s:30392  .debug_str:000000000002d737 .LASF2252
C:\Users\SOLDER~1\AppData\Local\Temp\cc6haz4O.s:23588  .debug_str:0000000000011ea7 .LASF2253
C:\Users\SOLDER~1\AppData\Local\Temp\cc6haz4O.s:25368  .debug_str:0000000000019196 .LASF2254
C:\Users\SOLDER~1\AppData\Local\Temp\cc6haz4O.s:24902  .debug_str:000000000001737d .LASF2255
C:\Users\SOLDER~1\AppData\Local\Temp\cc6haz4O.s:27374  .debug_str:00000000000212f8 .LASF2256
C:\Users\SOLDER~1\AppData\Local\Temp\cc6haz4O.s:29448  .debug_str:0000000000029a5a .LASF2257
GAS LISTING C:\Users\SOLDER~1\AppData\Local\Temp\cc6haz4O.s 			page 62


C:\Users\SOLDER~1\AppData\Local\Temp\cc6haz4O.s:22314  .debug_str:000000000000cc91 .LASF2258
C:\Users\SOLDER~1\AppData\Local\Temp\cc6haz4O.s:19834  .debug_str:0000000000002c3a .LASF2259
C:\Users\SOLDER~1\AppData\Local\Temp\cc6haz4O.s:27936  .debug_str:000000000002371e .LASF2260
C:\Users\SOLDER~1\AppData\Local\Temp\cc6haz4O.s:25490  .debug_str:0000000000019953 .LASF2261
C:\Users\SOLDER~1\AppData\Local\Temp\cc6haz4O.s:21202  .debug_str:000000000000842a .LASF2262
C:\Users\SOLDER~1\AppData\Local\Temp\cc6haz4O.s:20428  .debug_str:00000000000051a6 .LASF2263
C:\Users\SOLDER~1\AppData\Local\Temp\cc6haz4O.s:27030  .debug_str:000000000001fd20 .LASF2264
C:\Users\SOLDER~1\AppData\Local\Temp\cc6haz4O.s:23406  .debug_str:0000000000011311 .LASF2265
C:\Users\SOLDER~1\AppData\Local\Temp\cc6haz4O.s:22942  .debug_str:000000000000f528 .LASF2266
C:\Users\SOLDER~1\AppData\Local\Temp\cc6haz4O.s:25634  .debug_str:000000000001a263 .LASF2267
C:\Users\SOLDER~1\AppData\Local\Temp\cc6haz4O.s:22742  .debug_str:000000000000e86c .LASF2268
C:\Users\SOLDER~1\AppData\Local\Temp\cc6haz4O.s:19426  .debug_str:0000000000001196 .LASF2269
C:\Users\SOLDER~1\AppData\Local\Temp\cc6haz4O.s:28930  .debug_str:000000000002790d .LASF2270
C:\Users\SOLDER~1\AppData\Local\Temp\cc6haz4O.s:29672  .debug_str:000000000002a8f0 .LASF2271
C:\Users\SOLDER~1\AppData\Local\Temp\cc6haz4O.s:29870  .debug_str:000000000002b57d .LASF2272
C:\Users\SOLDER~1\AppData\Local\Temp\cc6haz4O.s:28948  .debug_str:0000000000027a3d .LASF2273
C:\Users\SOLDER~1\AppData\Local\Temp\cc6haz4O.s:19294  .debug_str:00000000000008af .LASF2274
C:\Users\SOLDER~1\AppData\Local\Temp\cc6haz4O.s:19374  .debug_str:0000000000000e7a .LASF2275
C:\Users\SOLDER~1\AppData\Local\Temp\cc6haz4O.s:25806  .debug_str:000000000001ad9d .LASF2276
C:\Users\SOLDER~1\AppData\Local\Temp\cc6haz4O.s:26840  .debug_str:000000000001f0cc .LASF2277
C:\Users\SOLDER~1\AppData\Local\Temp\cc6haz4O.s:21092  .debug_str:0000000000007cbc .LASF2278
C:\Users\SOLDER~1\AppData\Local\Temp\cc6haz4O.s:30730  .debug_str:000000000002ed08 .LASF2279
C:\Users\SOLDER~1\AppData\Local\Temp\cc6haz4O.s:23688  .debug_str:00000000000124d2 .LASF2280
C:\Users\SOLDER~1\AppData\Local\Temp\cc6haz4O.s:26910  .debug_str:000000000001f582 .LASF2281
C:\Users\SOLDER~1\AppData\Local\Temp\cc6haz4O.s:30332  .debug_str:000000000002d38a .LASF2282
C:\Users\SOLDER~1\AppData\Local\Temp\cc6haz4O.s:21032  .debug_str:00000000000078d1 .LASF2283
C:\Users\SOLDER~1\AppData\Local\Temp\cc6haz4O.s:19792  .debug_str:0000000000002987 .LASF2284
C:\Users\SOLDER~1\AppData\Local\Temp\cc6haz4O.s:27214  .debug_str:00000000000208b6 .LASF2285
C:\Users\SOLDER~1\AppData\Local\Temp\cc6haz4O.s:20992  .debug_str:0000000000007682 .LASF2286
C:\Users\SOLDER~1\AppData\Local\Temp\cc6haz4O.s:24986  .debug_str:0000000000017902 .LASF2287
C:\Users\SOLDER~1\AppData\Local\Temp\cc6haz4O.s:23640  .debug_str:00000000000121df .LASF2288
C:\Users\SOLDER~1\AppData\Local\Temp\cc6haz4O.s:21116  .debug_str:0000000000007e64 .LASF2289
C:\Users\SOLDER~1\AppData\Local\Temp\cc6haz4O.s:26450  .debug_str:000000000001d78f .LASF2290
C:\Users\SOLDER~1\AppData\Local\Temp\cc6haz4O.s:26946  .debug_str:000000000001f7fc .LASF2291
C:\Users\SOLDER~1\AppData\Local\Temp\cc6haz4O.s:24064  .debug_str:0000000000013def .LASF2292
C:\Users\SOLDER~1\AppData\Local\Temp\cc6haz4O.s:20208  .debug_str:0000000000004411 .LASF2293
C:\Users\SOLDER~1\AppData\Local\Temp\cc6haz4O.s:24320  .debug_str:0000000000014f50 .LASF2294
C:\Users\SOLDER~1\AppData\Local\Temp\cc6haz4O.s:30696  .debug_str:000000000002eaed .LASF2295
C:\Users\SOLDER~1\AppData\Local\Temp\cc6haz4O.s:21046  .debug_str:0000000000007998 .LASF2296
C:\Users\SOLDER~1\AppData\Local\Temp\cc6haz4O.s:29634  .debug_str:000000000002a67b .LASF2297
C:\Users\SOLDER~1\AppData\Local\Temp\cc6haz4O.s:27842  .debug_str:00000000000230d7 .LASF2298
C:\Users\SOLDER~1\AppData\Local\Temp\cc6haz4O.s:23934  .debug_str:00000000000134c9 .LASF2299
C:\Users\SOLDER~1\AppData\Local\Temp\cc6haz4O.s:27150  .debug_str:0000000000020491 .LASF2300
C:\Users\SOLDER~1\AppData\Local\Temp\cc6haz4O.s:29966  .debug_str:000000000002bb8d .LASF2301
C:\Users\SOLDER~1\AppData\Local\Temp\cc6haz4O.s:23426  .debug_str:000000000001143a .LASF2302
C:\Users\SOLDER~1\AppData\Local\Temp\cc6haz4O.s:27628  .debug_str:00000000000222d8 .LASF2303
C:\Users\SOLDER~1\AppData\Local\Temp\cc6haz4O.s:24964  .debug_str:000000000001778c .LASF2304
C:\Users\SOLDER~1\AppData\Local\Temp\cc6haz4O.s:23852  .debug_str:0000000000012f7e .LASF2305
C:\Users\SOLDER~1\AppData\Local\Temp\cc6haz4O.s:26322  .debug_str:000000000001cf26 .LASF2306
C:\Users\SOLDER~1\AppData\Local\Temp\cc6haz4O.s:29676  .debug_str:000000000002a924 .LASF2307
C:\Users\SOLDER~1\AppData\Local\Temp\cc6haz4O.s:23468  .debug_str:0000000000011722 .LASF2308
C:\Users\SOLDER~1\AppData\Local\Temp\cc6haz4O.s:24190  .debug_str:00000000000146b4 .LASF2309
C:\Users\SOLDER~1\AppData\Local\Temp\cc6haz4O.s:22816  .debug_str:000000000000ed0f .LASF2310
C:\Users\SOLDER~1\AppData\Local\Temp\cc6haz4O.s:21864  .debug_str:000000000000af99 .LASF2311
C:\Users\SOLDER~1\AppData\Local\Temp\cc6haz4O.s:29552  .debug_str:000000000002a0f3 .LASF2312
C:\Users\SOLDER~1\AppData\Local\Temp\cc6haz4O.s:29696  .debug_str:000000000002aa4e .LASF2313
C:\Users\SOLDER~1\AppData\Local\Temp\cc6haz4O.s:22198  .debug_str:000000000000c4c1 .LASF2314
GAS LISTING C:\Users\SOLDER~1\AppData\Local\Temp\cc6haz4O.s 			page 63


C:\Users\SOLDER~1\AppData\Local\Temp\cc6haz4O.s:23892  .debug_str:00000000000131fd .LASF2315
C:\Users\SOLDER~1\AppData\Local\Temp\cc6haz4O.s:23592  .debug_str:0000000000011edb .LASF2316
C:\Users\SOLDER~1\AppData\Local\Temp\cc6haz4O.s:21066  .debug_str:0000000000007b04 .LASF2317
C:\Users\SOLDER~1\AppData\Local\Temp\cc6haz4O.s:23400  .debug_str:00000000000112a9 .LASF2318
C:\Users\SOLDER~1\AppData\Local\Temp\cc6haz4O.s:30406  .debug_str:000000000002d81e .LASF2319
C:\Users\SOLDER~1\AppData\Local\Temp\cc6haz4O.s:24536  .debug_str:0000000000015cc1 .LASF2320
C:\Users\SOLDER~1\AppData\Local\Temp\cc6haz4O.s:27642  .debug_str:0000000000022395 .LASF2321
C:\Users\SOLDER~1\AppData\Local\Temp\cc6haz4O.s:25002  .debug_str:00000000000179d2 .LASF2322
C:\Users\SOLDER~1\AppData\Local\Temp\cc6haz4O.s:28024  .debug_str:0000000000023c98 .LASF2323
C:\Users\SOLDER~1\AppData\Local\Temp\cc6haz4O.s:27490  .debug_str:0000000000021a64 .LASF2324
C:\Users\SOLDER~1\AppData\Local\Temp\cc6haz4O.s:26426  .debug_str:000000000001d618 .LASF2325
C:\Users\SOLDER~1\AppData\Local\Temp\cc6haz4O.s:21002  .debug_str:0000000000007715 .LASF2326
C:\Users\SOLDER~1\AppData\Local\Temp\cc6haz4O.s:26128  .debug_str:000000000001c213 .LASF2327
C:\Users\SOLDER~1\AppData\Local\Temp\cc6haz4O.s:21792  .debug_str:000000000000aad7 .LASF2328
C:\Users\SOLDER~1\AppData\Local\Temp\cc6haz4O.s:21696  .debug_str:000000000000a450 .LASF2329
C:\Users\SOLDER~1\AppData\Local\Temp\cc6haz4O.s:20506  .debug_str:000000000000563f .LASF2330
C:\Users\SOLDER~1\AppData\Local\Temp\cc6haz4O.s:19530  .debug_str:000000000000184c .LASF2331
C:\Users\SOLDER~1\AppData\Local\Temp\cc6haz4O.s:29890  .debug_str:000000000002b6b5 .LASF2332
C:\Users\SOLDER~1\AppData\Local\Temp\cc6haz4O.s:20458  .debug_str:000000000000536a .LASF2333
C:\Users\SOLDER~1\AppData\Local\Temp\cc6haz4O.s:29188  .debug_str:00000000000289ab .LASF2334
C:\Users\SOLDER~1\AppData\Local\Temp\cc6haz4O.s:22090  .debug_str:000000000000bdce .LASF2335
C:\Users\SOLDER~1\AppData\Local\Temp\cc6haz4O.s:26906  .debug_str:000000000001f53e .LASF2336
C:\Users\SOLDER~1\AppData\Local\Temp\cc6haz4O.s:22552  .debug_str:000000000000dbf9 .LASF2337
C:\Users\SOLDER~1\AppData\Local\Temp\cc6haz4O.s:30390  .debug_str:000000000002d714 .LASF2338
C:\Users\SOLDER~1\AppData\Local\Temp\cc6haz4O.s:22326  .debug_str:000000000000cd6e .LASF2339
C:\Users\SOLDER~1\AppData\Local\Temp\cc6haz4O.s:27114  .debug_str:0000000000020258 .LASF2340
C:\Users\SOLDER~1\AppData\Local\Temp\cc6haz4O.s:26986  .debug_str:000000000001fa61 .LASF2341
C:\Users\SOLDER~1\AppData\Local\Temp\cc6haz4O.s:29980  .debug_str:000000000002bc58 .LASF2342
C:\Users\SOLDER~1\AppData\Local\Temp\cc6haz4O.s:22188  .debug_str:000000000000c409 .LASF2343
C:\Users\SOLDER~1\AppData\Local\Temp\cc6haz4O.s:28768  .debug_str:0000000000026e7f .LASF2344
C:\Users\SOLDER~1\AppData\Local\Temp\cc6haz4O.s:23324  .debug_str:0000000000010dcf .LASF2345
C:\Users\SOLDER~1\AppData\Local\Temp\cc6haz4O.s:22702  .debug_str:000000000000e5ee .LASF2346
C:\Users\SOLDER~1\AppData\Local\Temp\cc6haz4O.s:29082  .debug_str:00000000000282e5 .LASF2347
C:\Users\SOLDER~1\AppData\Local\Temp\cc6haz4O.s:27294  .debug_str:0000000000020dc6 .LASF2348
C:\Users\SOLDER~1\AppData\Local\Temp\cc6haz4O.s:21134  .debug_str:0000000000007f8d .LASF2349
C:\Users\SOLDER~1\AppData\Local\Temp\cc6haz4O.s:26100  .debug_str:000000000001c052 .LASF2350
C:\Users\SOLDER~1\AppData\Local\Temp\cc6haz4O.s:29278  .debug_str:0000000000028f6c .LASF2351
C:\Users\SOLDER~1\AppData\Local\Temp\cc6haz4O.s:27776  .debug_str:0000000000022c9c .LASF2352
C:\Users\SOLDER~1\AppData\Local\Temp\cc6haz4O.s:21770  .debug_str:000000000000a970 .LASF2353
C:\Users\SOLDER~1\AppData\Local\Temp\cc6haz4O.s:30298  .debug_str:000000000002d10c .LASF2354
C:\Users\SOLDER~1\AppData\Local\Temp\cc6haz4O.s:22558  .debug_str:000000000000dc4c .LASF2355
C:\Users\SOLDER~1\AppData\Local\Temp\cc6haz4O.s:25306  .debug_str:0000000000018d7a .LASF2356
C:\Users\SOLDER~1\AppData\Local\Temp\cc6haz4O.s:22152  .debug_str:000000000000c199 .LASF2357
C:\Users\SOLDER~1\AppData\Local\Temp\cc6haz4O.s:26078  .debug_str:000000000001bec0 .LASF2358
C:\Users\SOLDER~1\AppData\Local\Temp\cc6haz4O.s:23026  .debug_str:000000000000faea .LASF2359
C:\Users\SOLDER~1\AppData\Local\Temp\cc6haz4O.s:26486  .debug_str:000000000001d9cc .LASF2360
C:\Users\SOLDER~1\AppData\Local\Temp\cc6haz4O.s:27186  .debug_str:00000000000206e8 .LASF2361
C:\Users\SOLDER~1\AppData\Local\Temp\cc6haz4O.s:22598  .debug_str:000000000000df00 .LASF2362
C:\Users\SOLDER~1\AppData\Local\Temp\cc6haz4O.s:23860  .debug_str:0000000000012ffc .LASF2363
C:\Users\SOLDER~1\AppData\Local\Temp\cc6haz4O.s:21904  .debug_str:000000000000b20e .LASF2364
C:\Users\SOLDER~1\AppData\Local\Temp\cc6haz4O.s:29854  .debug_str:000000000002b495 .LASF2365
C:\Users\SOLDER~1\AppData\Local\Temp\cc6haz4O.s:27104  .debug_str:00000000000201bb .LASF2366
C:\Users\SOLDER~1\AppData\Local\Temp\cc6haz4O.s:28336  .debug_str:000000000002512b .LASF2367
C:\Users\SOLDER~1\AppData\Local\Temp\cc6haz4O.s:27206  .debug_str:0000000000020826 .LASF2368
C:\Users\SOLDER~1\AppData\Local\Temp\cc6haz4O.s:25280  .debug_str:0000000000018bd2 .LASF2369
C:\Users\SOLDER~1\AppData\Local\Temp\cc6haz4O.s:19788  .debug_str:000000000000290e .LASF2370
C:\Users\SOLDER~1\AppData\Local\Temp\cc6haz4O.s:20250  .debug_str:000000000000468d .LASF2371
GAS LISTING C:\Users\SOLDER~1\AppData\Local\Temp\cc6haz4O.s 			page 64


C:\Users\SOLDER~1\AppData\Local\Temp\cc6haz4O.s:26712  .debug_str:000000000001e860 .LASF2372
C:\Users\SOLDER~1\AppData\Local\Temp\cc6haz4O.s:20234  .debug_str:00000000000045aa .LASF2373
C:\Users\SOLDER~1\AppData\Local\Temp\cc6haz4O.s:20064  .debug_str:0000000000003af3 .LASF2374
C:\Users\SOLDER~1\AppData\Local\Temp\cc6haz4O.s:20692  .debug_str:00000000000062bc .LASF2375
C:\Users\SOLDER~1\AppData\Local\Temp\cc6haz4O.s:25612  .debug_str:000000000001a0e0 .LASF2376
C:\Users\SOLDER~1\AppData\Local\Temp\cc6haz4O.s:21714  .debug_str:000000000000a58a .LASF2377
C:\Users\SOLDER~1\AppData\Local\Temp\cc6haz4O.s:19938  .debug_str:00000000000032d5 .LASF2378
C:\Users\SOLDER~1\AppData\Local\Temp\cc6haz4O.s:29570  .debug_str:000000000002a225 .LASF2379
C:\Users\SOLDER~1\AppData\Local\Temp\cc6haz4O.s:28976  .debug_str:0000000000027bb8 .LASF2380
C:\Users\SOLDER~1\AppData\Local\Temp\cc6haz4O.s:19284  .debug_str:0000000000000808 .LASF2381
C:\Users\SOLDER~1\AppData\Local\Temp\cc6haz4O.s:30688  .debug_str:000000000002ea5c .LASF2382
C:\Users\SOLDER~1\AppData\Local\Temp\cc6haz4O.s:26116  .debug_str:000000000001c14a .LASF2383
C:\Users\SOLDER~1\AppData\Local\Temp\cc6haz4O.s:22202  .debug_str:000000000000c515 .LASF2384
C:\Users\SOLDER~1\AppData\Local\Temp\cc6haz4O.s:30242  .debug_str:000000000002cd67 .LASF2385
C:\Users\SOLDER~1\AppData\Local\Temp\cc6haz4O.s:29612  .debug_str:000000000002a511 .LASF2386
C:\Users\SOLDER~1\AppData\Local\Temp\cc6haz4O.s:29944  .debug_str:000000000002ba18 .LASF2387
C:\Users\SOLDER~1\AppData\Local\Temp\cc6haz4O.s:30430  .debug_str:000000000002d9c9 .LASF2388
C:\Users\SOLDER~1\AppData\Local\Temp\cc6haz4O.s:24352  .debug_str:0000000000015141 .LASF2389
C:\Users\SOLDER~1\AppData\Local\Temp\cc6haz4O.s:20836  .debug_str:0000000000006c31 .LASF2390
C:\Users\SOLDER~1\AppData\Local\Temp\cc6haz4O.s:29834  .debug_str:000000000002b358 .LASF2391
C:\Users\SOLDER~1\AppData\Local\Temp\cc6haz4O.s:26882  .debug_str:000000000001f39f .LASF2392
C:\Users\SOLDER~1\AppData\Local\Temp\cc6haz4O.s:20800  .debug_str:0000000000006a06 .LASF2393
C:\Users\SOLDER~1\AppData\Local\Temp\cc6haz4O.s:26182  .debug_str:000000000001c5b9 .LASF2394
C:\Users\SOLDER~1\AppData\Local\Temp\cc6haz4O.s:25912  .debug_str:000000000001b454 .LASF2395
C:\Users\SOLDER~1\AppData\Local\Temp\cc6haz4O.s:19826  .debug_str:0000000000002bbd .LASF2396
C:\Users\SOLDER~1\AppData\Local\Temp\cc6haz4O.s:22628  .debug_str:000000000000e100 .LASF2397
C:\Users\SOLDER~1\AppData\Local\Temp\cc6haz4O.s:23976  .debug_str:00000000000137ab .LASF2398
C:\Users\SOLDER~1\AppData\Local\Temp\cc6haz4O.s:28116  .debug_str:000000000002429c .LASF2399
C:\Users\SOLDER~1\AppData\Local\Temp\cc6haz4O.s:21294  .debug_str:00000000000089e9 .LASF2400
C:\Users\SOLDER~1\AppData\Local\Temp\cc6haz4O.s:22842  .debug_str:000000000000eed4 .LASF2401
C:\Users\SOLDER~1\AppData\Local\Temp\cc6haz4O.s:23544  .debug_str:0000000000011bc5 .LASF2402
C:\Users\SOLDER~1\AppData\Local\Temp\cc6haz4O.s:27970  .debug_str:0000000000023943 .LASF2403
C:\Users\SOLDER~1\AppData\Local\Temp\cc6haz4O.s:22970  .debug_str:000000000000f6f3 .LASF2404
C:\Users\SOLDER~1\AppData\Local\Temp\cc6haz4O.s:21992  .debug_str:000000000000b7b6 .LASF2405
C:\Users\SOLDER~1\AppData\Local\Temp\cc6haz4O.s:28416  .debug_str:0000000000025632 .LASF2406
C:\Users\SOLDER~1\AppData\Local\Temp\cc6haz4O.s:26016  .debug_str:000000000001bad0 .LASF2407
C:\Users\SOLDER~1\AppData\Local\Temp\cc6haz4O.s:24228  .debug_str:0000000000014916 .LASF2408
C:\Users\SOLDER~1\AppData\Local\Temp\cc6haz4O.s:26392  .debug_str:000000000001d3c0 .LASF2409
C:\Users\SOLDER~1\AppData\Local\Temp\cc6haz4O.s:20354  .debug_str:0000000000004d4c .LASF2410
C:\Users\SOLDER~1\AppData\Local\Temp\cc6haz4O.s:20794  .debug_str:0000000000006992 .LASF2411
C:\Users\SOLDER~1\AppData\Local\Temp\cc6haz4O.s:21892  .debug_str:000000000000b151 .LASF2412
C:\Users\SOLDER~1\AppData\Local\Temp\cc6haz4O.s:22230  .debug_str:000000000000c702 .LASF2413
C:\Users\SOLDER~1\AppData\Local\Temp\cc6haz4O.s:27274  .debug_str:0000000000020c9c .LASF2414
C:\Users\SOLDER~1\AppData\Local\Temp\cc6haz4O.s:20940  .debug_str:0000000000007327 .LASF2415
C:\Users\SOLDER~1\AppData\Local\Temp\cc6haz4O.s:20218  .debug_str:00000000000044a6 .LASF2416
C:\Users\SOLDER~1\AppData\Local\Temp\cc6haz4O.s:25990  .debug_str:000000000001b944 .LASF2417
C:\Users\SOLDER~1\AppData\Local\Temp\cc6haz4O.s:23060  .debug_str:000000000000fd28 .LASF2418
C:\Users\SOLDER~1\AppData\Local\Temp\cc6haz4O.s:25764  .debug_str:000000000001aacf .LASF2419
C:\Users\SOLDER~1\AppData\Local\Temp\cc6haz4O.s:26726  .debug_str:000000000001e93a .LASF2420
C:\Users\SOLDER~1\AppData\Local\Temp\cc6haz4O.s:19392  .debug_str:0000000000000f92 .LASF2421
C:\Users\SOLDER~1\AppData\Local\Temp\cc6haz4O.s:19510  .debug_str:00000000000016ff .LASF2422
C:\Users\SOLDER~1\AppData\Local\Temp\cc6haz4O.s:20404  .debug_str:000000000000503f .LASF2423
C:\Users\SOLDER~1\AppData\Local\Temp\cc6haz4O.s:30454  .debug_str:000000000002db40 .LASF2424
C:\Users\SOLDER~1\AppData\Local\Temp\cc6haz4O.s:22018  .debug_str:000000000000b93b .LASF2425
C:\Users\SOLDER~1\AppData\Local\Temp\cc6haz4O.s:24110  .debug_str:000000000001412a .LASF2426
C:\Users\SOLDER~1\AppData\Local\Temp\cc6haz4O.s:28510  .debug_str:0000000000025c8c .LASF2427
C:\Users\SOLDER~1\AppData\Local\Temp\cc6haz4O.s:20790  .debug_str:0000000000006952 .LASF2428
GAS LISTING C:\Users\SOLDER~1\AppData\Local\Temp\cc6haz4O.s 			page 65


C:\Users\SOLDER~1\AppData\Local\Temp\cc6haz4O.s:19512  .debug_str:0000000000001721 .LASF2429
C:\Users\SOLDER~1\AppData\Local\Temp\cc6haz4O.s:24308  .debug_str:0000000000014e83 .LASF2430
C:\Users\SOLDER~1\AppData\Local\Temp\cc6haz4O.s:26410  .debug_str:000000000001d501 .LASF2431
C:\Users\SOLDER~1\AppData\Local\Temp\cc6haz4O.s:19206  .debug_str:0000000000000261 .LASF2432
C:\Users\SOLDER~1\AppData\Local\Temp\cc6haz4O.s:25952  .debug_str:000000000001b6d4 .LASF2433
C:\Users\SOLDER~1\AppData\Local\Temp\cc6haz4O.s:25988  .debug_str:000000000001b91f .LASF2434
C:\Users\SOLDER~1\AppData\Local\Temp\cc6haz4O.s:30058  .debug_str:000000000002c1a0 .LASF2435
C:\Users\SOLDER~1\AppData\Local\Temp\cc6haz4O.s:19668  .debug_str:00000000000020f8 .LASF2436
C:\Users\SOLDER~1\AppData\Local\Temp\cc6haz4O.s:30360  .debug_str:000000000002d553 .LASF2437
C:\Users\SOLDER~1\AppData\Local\Temp\cc6haz4O.s:28524  .debug_str:0000000000025d86 .LASF2438
C:\Users\SOLDER~1\AppData\Local\Temp\cc6haz4O.s:29680  .debug_str:000000000002a95d .LASF2439
C:\Users\SOLDER~1\AppData\Local\Temp\cc6haz4O.s:25140  .debug_str:0000000000018316 .LASF2440
C:\Users\SOLDER~1\AppData\Local\Temp\cc6haz4O.s:22398  .debug_str:000000000000d22a .LASF2441
C:\Users\SOLDER~1\AppData\Local\Temp\cc6haz4O.s:24808  .debug_str:0000000000016d97 .LASF2442
C:\Users\SOLDER~1\AppData\Local\Temp\cc6haz4O.s:30010  .debug_str:000000000002be50 .LASF2443
C:\Users\SOLDER~1\AppData\Local\Temp\cc6haz4O.s:19918  .debug_str:0000000000003185 .LASF2444
C:\Users\SOLDER~1\AppData\Local\Temp\cc6haz4O.s:22400  .debug_str:000000000000d240 .LASF2445
C:\Users\SOLDER~1\AppData\Local\Temp\cc6haz4O.s:26514  .debug_str:000000000001db57 .LASF2446
C:\Users\SOLDER~1\AppData\Local\Temp\cc6haz4O.s:22100  .debug_str:000000000000be72 .LASF2447
C:\Users\SOLDER~1\AppData\Local\Temp\cc6haz4O.s:27312  .debug_str:0000000000020ee2 .LASF2448
C:\Users\SOLDER~1\AppData\Local\Temp\cc6haz4O.s:27042  .debug_str:000000000001fde5 .LASF2449
C:\Users\SOLDER~1\AppData\Local\Temp\cc6haz4O.s:24302  .debug_str:0000000000014e2e .LASF2450
C:\Users\SOLDER~1\AppData\Local\Temp\cc6haz4O.s:24660  .debug_str:0000000000016492 .LASF2451
C:\Users\SOLDER~1\AppData\Local\Temp\cc6haz4O.s:23864  .debug_str:000000000001303a .LASF2452
C:\Users\SOLDER~1\AppData\Local\Temp\cc6haz4O.s:28136  .debug_str:00000000000243f0 .LASF2453
C:\Users\SOLDER~1\AppData\Local\Temp\cc6haz4O.s:22486  .debug_str:000000000000d7d3 .LASF2454
C:\Users\SOLDER~1\AppData\Local\Temp\cc6haz4O.s:29788  .debug_str:000000000002b019 .LASF2455
C:\Users\SOLDER~1\AppData\Local\Temp\cc6haz4O.s:28320  .debug_str:000000000002500c .LASF2456
C:\Users\SOLDER~1\AppData\Local\Temp\cc6haz4O.s:22712  .debug_str:000000000000e69c .LASF2457
C:\Users\SOLDER~1\AppData\Local\Temp\cc6haz4O.s:29160  .debug_str:00000000000287b1 .LASF2458
C:\Users\SOLDER~1\AppData\Local\Temp\cc6haz4O.s:22404  .debug_str:000000000000d27d .LASF2459
C:\Users\SOLDER~1\AppData\Local\Temp\cc6haz4O.s:27180  .debug_str:0000000000020680 .LASF2460
C:\Users\SOLDER~1\AppData\Local\Temp\cc6haz4O.s:19614  .debug_str:0000000000001da7 .LASF2461
C:\Users\SOLDER~1\AppData\Local\Temp\cc6haz4O.s:28632  .debug_str:0000000000026525 .LASF2462
C:\Users\SOLDER~1\AppData\Local\Temp\cc6haz4O.s:22270  .debug_str:000000000000c98f .LASF2463
C:\Users\SOLDER~1\AppData\Local\Temp\cc6haz4O.s:28856  .debug_str:0000000000027446 .LASF2464
C:\Users\SOLDER~1\AppData\Local\Temp\cc6haz4O.s:21324  .debug_str:0000000000008bf6 .LASF2465
C:\Users\SOLDER~1\AppData\Local\Temp\cc6haz4O.s:22532  .debug_str:000000000000dae4 .LASF2466
C:\Users\SOLDER~1\AppData\Local\Temp\cc6haz4O.s:22982  .debug_str:000000000000f7cc .LASF2467
C:\Users\SOLDER~1\AppData\Local\Temp\cc6haz4O.s:21192  .debug_str:000000000000836b .LASF2468
C:\Users\SOLDER~1\AppData\Local\Temp\cc6haz4O.s:20108  .debug_str:0000000000003dd0 .LASF2469
C:\Users\SOLDER~1\AppData\Local\Temp\cc6haz4O.s:26172  .debug_str:000000000001c51c .LASF2470
C:\Users\SOLDER~1\AppData\Local\Temp\cc6haz4O.s:28574  .debug_str:0000000000026116 .LASF2471
C:\Users\SOLDER~1\AppData\Local\Temp\cc6haz4O.s:27602  .debug_str:0000000000022163 .LASF2472
C:\Users\SOLDER~1\AppData\Local\Temp\cc6haz4O.s:26060  .debug_str:000000000001bd93 .LASF2473
C:\Users\SOLDER~1\AppData\Local\Temp\cc6haz4O.s:24204  .debug_str:000000000001478e .LASF2474
C:\Users\SOLDER~1\AppData\Local\Temp\cc6haz4O.s:30180  .debug_str:000000000002c997 .LASF2475
C:\Users\SOLDER~1\AppData\Local\Temp\cc6haz4O.s:30802  .debug_str:000000000002f174 .LASF2476
C:\Users\SOLDER~1\AppData\Local\Temp\cc6haz4O.s:29868  .debug_str:000000000002b565 .LASF2477
C:\Users\SOLDER~1\AppData\Local\Temp\cc6haz4O.s:20040  .debug_str:0000000000003964 .LASF2478
C:\Users\SOLDER~1\AppData\Local\Temp\cc6haz4O.s:20876  .debug_str:0000000000006eab .LASF2479
C:\Users\SOLDER~1\AppData\Local\Temp\cc6haz4O.s:27050  .debug_str:000000000001fe60 .LASF2480
C:\Users\SOLDER~1\AppData\Local\Temp\cc6haz4O.s:22480  .debug_str:000000000000d77f .LASF2481
C:\Users\SOLDER~1\AppData\Local\Temp\cc6haz4O.s:28096  .debug_str:0000000000024148 .LASF2482
C:\Users\SOLDER~1\AppData\Local\Temp\cc6haz4O.s:24236  .debug_str:000000000001498e .LASF2483
C:\Users\SOLDER~1\AppData\Local\Temp\cc6haz4O.s:27418  .debug_str:00000000000215b6 .LASF2484
C:\Users\SOLDER~1\AppData\Local\Temp\cc6haz4O.s:25854  .debug_str:000000000001b0d9 .LASF2485
GAS LISTING C:\Users\SOLDER~1\AppData\Local\Temp\cc6haz4O.s 			page 66


C:\Users\SOLDER~1\AppData\Local\Temp\cc6haz4O.s:21080  .debug_str:0000000000007be6 .LASF2486
C:\Users\SOLDER~1\AppData\Local\Temp\cc6haz4O.s:28596  .debug_str:000000000002628c .LASF2487
C:\Users\SOLDER~1\AppData\Local\Temp\cc6haz4O.s:25928  .debug_str:000000000001b540 .LASF2488
C:\Users\SOLDER~1\AppData\Local\Temp\cc6haz4O.s:25360  .debug_str:000000000001911b .LASF2489
C:\Users\SOLDER~1\AppData\Local\Temp\cc6haz4O.s:30104  .debug_str:000000000002c4c4 .LASF2490
C:\Users\SOLDER~1\AppData\Local\Temp\cc6haz4O.s:30096  .debug_str:000000000002c457 .LASF2491
C:\Users\SOLDER~1\AppData\Local\Temp\cc6haz4O.s:25534  .debug_str:0000000000019bfa .LASF2492
C:\Users\SOLDER~1\AppData\Local\Temp\cc6haz4O.s:30728  .debug_str:000000000002ece3 .LASF2493
C:\Users\SOLDER~1\AppData\Local\Temp\cc6haz4O.s:20134  .debug_str:0000000000003f6a .LASF2494
C:\Users\SOLDER~1\AppData\Local\Temp\cc6haz4O.s:26056  .debug_str:000000000001bd59 .LASF2495
C:\Users\SOLDER~1\AppData\Local\Temp\cc6haz4O.s:25438  .debug_str:00000000000195de .LASF2496
C:\Users\SOLDER~1\AppData\Local\Temp\cc6haz4O.s:27234  .debug_str:00000000000209fd .LASF2497
C:\Users\SOLDER~1\AppData\Local\Temp\cc6haz4O.s:25482  .debug_str:00000000000198d8 .LASF2498
C:\Users\SOLDER~1\AppData\Local\Temp\cc6haz4O.s:28526  .debug_str:0000000000025da8 .LASF2499
C:\Users\SOLDER~1\AppData\Local\Temp\cc6haz4O.s:29162  .debug_str:00000000000287d4 .LASF2500
C:\Users\SOLDER~1\AppData\Local\Temp\cc6haz4O.s:25578  .debug_str:0000000000019ed6 .LASF2501
C:\Users\SOLDER~1\AppData\Local\Temp\cc6haz4O.s:30120  .debug_str:000000000002c5d0 .LASF2502
C:\Users\SOLDER~1\AppData\Local\Temp\cc6haz4O.s:22160  .debug_str:000000000000c234 .LASF2503
C:\Users\SOLDER~1\AppData\Local\Temp\cc6haz4O.s:25116  .debug_str:0000000000018181 .LASF2504
C:\Users\SOLDER~1\AppData\Local\Temp\cc6haz4O.s:26310  .debug_str:000000000001ce3c .LASF2505
C:\Users\SOLDER~1\AppData\Local\Temp\cc6haz4O.s:23510  .debug_str:00000000000119bf .LASF2506
C:\Users\SOLDER~1\AppData\Local\Temp\cc6haz4O.s:25924  .debug_str:000000000001b505 .LASF2507
C:\Users\SOLDER~1\AppData\Local\Temp\cc6haz4O.s:24324  .debug_str:0000000000014f8e .LASF2508
C:\Users\SOLDER~1\AppData\Local\Temp\cc6haz4O.s:21690  .debug_str:000000000000a401 .LASF2509
C:\Users\SOLDER~1\AppData\Local\Temp\cc6haz4O.s:21404  .debug_str:0000000000009149 .LASF2510
C:\Users\SOLDER~1\AppData\Local\Temp\cc6haz4O.s:19318  .debug_str:0000000000000a8d .LASF2511
C:\Users\SOLDER~1\AppData\Local\Temp\cc6haz4O.s:20752  .debug_str:00000000000066a7 .LASF2512
C:\Users\SOLDER~1\AppData\Local\Temp\cc6haz4O.s:20332  .debug_str:0000000000004bc5 .LASF2513
C:\Users\SOLDER~1\AppData\Local\Temp\cc6haz4O.s:20066  .debug_str:0000000000003b18 .LASF2514
C:\Users\SOLDER~1\AppData\Local\Temp\cc6haz4O.s:21948  .debug_str:000000000000b4ca .LASF2515
C:\Users\SOLDER~1\AppData\Local\Temp\cc6haz4O.s:25388  .debug_str:00000000000192b3 .LASF2516
C:\Users\SOLDER~1\AppData\Local\Temp\cc6haz4O.s:20508  .debug_str:0000000000005660 .LASF2517
C:\Users\SOLDER~1\AppData\Local\Temp\cc6haz4O.s:22734  .debug_str:000000000000e7db .LASF2518
C:\Users\SOLDER~1\AppData\Local\Temp\cc6haz4O.s:28278  .debug_str:0000000000024d55 .LASF2519
C:\Users\SOLDER~1\AppData\Local\Temp\cc6haz4O.s:21460  .debug_str:0000000000009502 .LASF2520
C:\Users\SOLDER~1\AppData\Local\Temp\cc6haz4O.s:29790  .debug_str:000000000002b031 .LASF2521
C:\Users\SOLDER~1\AppData\Local\Temp\cc6haz4O.s:22236  .debug_str:000000000000c755 .LASF2522
C:\Users\SOLDER~1\AppData\Local\Temp\cc6haz4O.s:28054  .debug_str:0000000000023e91 .LASF2523
C:\Users\SOLDER~1\AppData\Local\Temp\cc6haz4O.s:23058  .debug_str:000000000000fd03 .LASF2524
C:\Users\SOLDER~1\AppData\Local\Temp\cc6haz4O.s:28704  .debug_str:0000000000026a11 .LASF2525
C:\Users\SOLDER~1\AppData\Local\Temp\cc6haz4O.s:20356  .debug_str:0000000000004d71 .LASF2526
C:\Users\SOLDER~1\AppData\Local\Temp\cc6haz4O.s:19968  .debug_str:00000000000034d7 .LASF2527
C:\Users\SOLDER~1\AppData\Local\Temp\cc6haz4O.s:27462  .debug_str:000000000002189e .LASF2528
C:\Users\SOLDER~1\AppData\Local\Temp\cc6haz4O.s:25410  .debug_str:0000000000019414 .LASF2529
C:\Users\SOLDER~1\AppData\Local\Temp\cc6haz4O.s:20434  .debug_str:00000000000051de .LASF2530
C:\Users\SOLDER~1\AppData\Local\Temp\cc6haz4O.s:29240  .debug_str:0000000000028d0a .LASF2531
C:\Users\SOLDER~1\AppData\Local\Temp\cc6haz4O.s:20384  .debug_str:0000000000004f0e .LASF2532
C:\Users\SOLDER~1\AppData\Local\Temp\cc6haz4O.s:30584  .debug_str:000000000002e385 .LASF2533
C:\Users\SOLDER~1\AppData\Local\Temp\cc6haz4O.s:19572  .debug_str:0000000000001ab3 .LASF2534
C:\Users\SOLDER~1\AppData\Local\Temp\cc6haz4O.s:20240  .debug_str:0000000000004608 .LASF2535
C:\Users\SOLDER~1\AppData\Local\Temp\cc6haz4O.s:25584  .debug_str:0000000000019f22 .LASF2536
C:\Users\SOLDER~1\AppData\Local\Temp\cc6haz4O.s:27160  .debug_str:000000000002052e .LASF2537
C:\Users\SOLDER~1\AppData\Local\Temp\cc6haz4O.s:19896  .debug_str:0000000000003036 .LASF2538
C:\Users\SOLDER~1\AppData\Local\Temp\cc6haz4O.s:22956  .debug_str:000000000000f621 .LASF2539
C:\Users\SOLDER~1\AppData\Local\Temp\cc6haz4O.s:25898  .debug_str:000000000001b361 .LASF2540
C:\Users\SOLDER~1\AppData\Local\Temp\cc6haz4O.s:22242  .debug_str:000000000000c7ad .LASF2541
C:\Users\SOLDER~1\AppData\Local\Temp\cc6haz4O.s:20128  .debug_str:0000000000003f06 .LASF2542
GAS LISTING C:\Users\SOLDER~1\AppData\Local\Temp\cc6haz4O.s 			page 67


C:\Users\SOLDER~1\AppData\Local\Temp\cc6haz4O.s:25620  .debug_str:000000000001a175 .LASF2543
C:\Users\SOLDER~1\AppData\Local\Temp\cc6haz4O.s:23696  .debug_str:0000000000012534 .LASF2544
C:\Users\SOLDER~1\AppData\Local\Temp\cc6haz4O.s:19398  .debug_str:0000000000000fd2 .LASF2545
C:\Users\SOLDER~1\AppData\Local\Temp\cc6haz4O.s:29958  .debug_str:000000000002bb04 .LASF2546
C:\Users\SOLDER~1\AppData\Local\Temp\cc6haz4O.s:20998  .debug_str:00000000000076d5 .LASF2547
C:\Users\SOLDER~1\AppData\Local\Temp\cc6haz4O.s:29148  .debug_str:00000000000286fd .LASF2548
C:\Users\SOLDER~1\AppData\Local\Temp\cc6haz4O.s:22602  .debug_str:000000000000df46 .LASF2549
C:\Users\SOLDER~1\AppData\Local\Temp\cc6haz4O.s:28496  .debug_str:0000000000025ba4 .LASF2550
C:\Users\SOLDER~1\AppData\Local\Temp\cc6haz4O.s:24154  .debug_str:0000000000014446 .LASF2551
C:\Users\SOLDER~1\AppData\Local\Temp\cc6haz4O.s:21894  .debug_str:000000000000b171 .LASF2552
C:\Users\SOLDER~1\AppData\Local\Temp\cc6haz4O.s:25772  .debug_str:000000000001ab33 .LASF2553
C:\Users\SOLDER~1\AppData\Local\Temp\cc6haz4O.s:21762  .debug_str:000000000000a8f4 .LASF2554
C:\Users\SOLDER~1\AppData\Local\Temp\cc6haz4O.s:27262  .debug_str:0000000000020bd5 .LASF2555
C:\Users\SOLDER~1\AppData\Local\Temp\cc6haz4O.s:20474  .debug_str:0000000000005476 .LASF2556
C:\Users\SOLDER~1\AppData\Local\Temp\cc6haz4O.s:25492  .debug_str:0000000000019967 .LASF2557
C:\Users\SOLDER~1\AppData\Local\Temp\cc6haz4O.s:25536  .debug_str:0000000000019c1d .LASF2558
C:\Users\SOLDER~1\AppData\Local\Temp\cc6haz4O.s:25870  .debug_str:000000000001b1d0 .LASF2559
C:\Users\SOLDER~1\AppData\Local\Temp\cc6haz4O.s:26710  .debug_str:000000000001e83b .LASF2560
C:\Users\SOLDER~1\AppData\Local\Temp\cc6haz4O.s:27358  .debug_str:00000000000211d4 .LASF2561
C:\Users\SOLDER~1\AppData\Local\Temp\cc6haz4O.s:25120  .debug_str:00000000000181cc .LASF2562
C:\Users\SOLDER~1\AppData\Local\Temp\cc6haz4O.s:28966  .debug_str:0000000000027b41 .LASF2563
C:\Users\SOLDER~1\AppData\Local\Temp\cc6haz4O.s:30186  .debug_str:000000000002c9d8 .LASF2564
C:\Users\SOLDER~1\AppData\Local\Temp\cc6haz4O.s:30620  .debug_str:000000000002e5b5 .LASF2565
C:\Users\SOLDER~1\AppData\Local\Temp\cc6haz4O.s:23556  .debug_str:0000000000011c8e .LASF2566
C:\Users\SOLDER~1\AppData\Local\Temp\cc6haz4O.s:20480  .debug_str:00000000000054c5 .LASF2567
C:\Users\SOLDER~1\AppData\Local\Temp\cc6haz4O.s:28388  .debug_str:000000000002546d .LASF2568
C:\Users\SOLDER~1\AppData\Local\Temp\cc6haz4O.s:22104  .debug_str:000000000000beaf .LASF2569
C:\Users\SOLDER~1\AppData\Local\Temp\cc6haz4O.s:22130  .debug_str:000000000000c039 .LASF2570
C:\Users\SOLDER~1\AppData\Local\Temp\cc6haz4O.s:23718  .debug_str:00000000000126f0 .LASF2571
C:\Users\SOLDER~1\AppData\Local\Temp\cc6haz4O.s:27146  .debug_str:0000000000020448 .LASF2572
C:\Users\SOLDER~1\AppData\Local\Temp\cc6haz4O.s:26596  .debug_str:000000000001e109 .LASF2573
C:\Users\SOLDER~1\AppData\Local\Temp\cc6haz4O.s:19852  .debug_str:0000000000002d3a .LASF2574
C:\Users\SOLDER~1\AppData\Local\Temp\cc6haz4O.s:24714  .debug_str:00000000000167bf .LASF2575
C:\Users\SOLDER~1\AppData\Local\Temp\cc6haz4O.s:25950  .debug_str:000000000001b6ad .LASF2576
C:\Users\SOLDER~1\AppData\Local\Temp\cc6haz4O.s:22762  .debug_str:000000000000e9dc .LASF2577
C:\Users\SOLDER~1\AppData\Local\Temp\cc6haz4O.s:26602  .debug_str:000000000001e159 .LASF2578
C:\Users\SOLDER~1\AppData\Local\Temp\cc6haz4O.s:20856  .debug_str:0000000000006d6d .LASF2579
C:\Users\SOLDER~1\AppData\Local\Temp\cc6haz4O.s:26836  .debug_str:000000000001f07b .LASF2580
C:\Users\SOLDER~1\AppData\Local\Temp\cc6haz4O.s:30596  .debug_str:000000000002e435 .LASF2581
C:\Users\SOLDER~1\AppData\Local\Temp\cc6haz4O.s:26794  .debug_str:000000000001edb6 .LASF2582
C:\Users\SOLDER~1\AppData\Local\Temp\cc6haz4O.s:28630  .debug_str:000000000002650c .LASF2583
C:\Users\SOLDER~1\AppData\Local\Temp\cc6haz4O.s:27410  .debug_str:0000000000021542 .LASF2584
C:\Users\SOLDER~1\AppData\Local\Temp\cc6haz4O.s:26754  .debug_str:000000000001eb3d .LASF2585
C:\Users\SOLDER~1\AppData\Local\Temp\cc6haz4O.s:22888  .debug_str:000000000000f1b7 .LASF2586
C:\Users\SOLDER~1\AppData\Local\Temp\cc6haz4O.s:24880  .debug_str:00000000000171e7 .LASF2587
C:\Users\SOLDER~1\AppData\Local\Temp\cc6haz4O.s:19482  .debug_str:0000000000001534 .LASF2588
C:\Users\SOLDER~1\AppData\Local\Temp\cc6haz4O.s:22924  .debug_str:000000000000f423 .LASF2589
C:\Users\SOLDER~1\AppData\Local\Temp\cc6haz4O.s:22704  .debug_str:000000000000e60e .LASF2590
C:\Users\SOLDER~1\AppData\Local\Temp\cc6haz4O.s:25732  .debug_str:000000000001a8a4 .LASF2591
C:\Users\SOLDER~1\AppData\Local\Temp\cc6haz4O.s:20416  .debug_str:00000000000050e7 .LASF2592
C:\Users\SOLDER~1\AppData\Local\Temp\cc6haz4O.s:26992  .debug_str:000000000001fac6 .LASF2593
C:\Users\SOLDER~1\AppData\Local\Temp\cc6haz4O.s:26694  .debug_str:000000000001e703 .LASF2594
C:\Users\SOLDER~1\AppData\Local\Temp\cc6haz4O.s:25292  .debug_str:0000000000018c91 .LASF2595
C:\Users\SOLDER~1\AppData\Local\Temp\cc6haz4O.s:19590  .debug_str:0000000000001bf2 .LASF2596
C:\Users\SOLDER~1\AppData\Local\Temp\cc6haz4O.s:23598  .debug_str:0000000000011f37 .LASF2597
C:\Users\SOLDER~1\AppData\Local\Temp\cc6haz4O.s:30188  .debug_str:000000000002c9fd .LASF2598
C:\Users\SOLDER~1\AppData\Local\Temp\cc6haz4O.s:21936  .debug_str:000000000000b3fc .LASF2599
GAS LISTING C:\Users\SOLDER~1\AppData\Local\Temp\cc6haz4O.s 			page 68


C:\Users\SOLDER~1\AppData\Local\Temp\cc6haz4O.s:26316  .debug_str:000000000001cea1 .LASF2600
C:\Users\SOLDER~1\AppData\Local\Temp\cc6haz4O.s:20196  .debug_str:0000000000004356 .LASF2601
C:\Users\SOLDER~1\AppData\Local\Temp\cc6haz4O.s:22436  .debug_str:000000000000d497 .LASF2602
C:\Users\SOLDER~1\AppData\Local\Temp\cc6haz4O.s:30202  .debug_str:000000000002cae7 .LASF2603
C:\Users\SOLDER~1\AppData\Local\Temp\cc6haz4O.s:25780  .debug_str:000000000001abb2 .LASF2604
C:\Users\SOLDER~1\AppData\Local\Temp\cc6haz4O.s:25012  .debug_str:0000000000017a81 .LASF2605
C:\Users\SOLDER~1\AppData\Local\Temp\cc6haz4O.s:21074  .debug_str:0000000000007b6f .LASF2606
C:\Users\SOLDER~1\AppData\Local\Temp\cc6haz4O.s:26798  .debug_str:000000000001ee01 .LASF2607
C:\Users\SOLDER~1\AppData\Local\Temp\cc6haz4O.s:30642  .debug_str:000000000002e72d .LASF2608
C:\Users\SOLDER~1\AppData\Local\Temp\cc6haz4O.s:25192  .debug_str:000000000001863c .LASF2609
C:\Users\SOLDER~1\AppData\Local\Temp\cc6haz4O.s:24212  .debug_str:0000000000014824 .LASF2610
C:\Users\SOLDER~1\AppData\Local\Temp\cc6haz4O.s:23502  .debug_str:000000000001192b .LASF2611
C:\Users\SOLDER~1\AppData\Local\Temp\cc6haz4O.s:29468  .debug_str:0000000000029b59 .LASF2612
C:\Users\SOLDER~1\AppData\Local\Temp\cc6haz4O.s:23022  .debug_str:000000000000faaf .LASF2613
C:\Users\SOLDER~1\AppData\Local\Temp\cc6haz4O.s:20200  .debug_str:000000000000438b .LASF2614
C:\Users\SOLDER~1\AppData\Local\Temp\cc6haz4O.s:19256  .debug_str:00000000000005c9 .LASF2615
C:\Users\SOLDER~1\AppData\Local\Temp\cc6haz4O.s:26196  .debug_str:000000000001c679 .LASF2616
C:\Users\SOLDER~1\AppData\Local\Temp\cc6haz4O.s:28944  .debug_str:00000000000279f4 .LASF2617
C:\Users\SOLDER~1\AppData\Local\Temp\cc6haz4O.s:20728  .debug_str:0000000000006510 .LASF2618
C:\Users\SOLDER~1\AppData\Local\Temp\cc6haz4O.s:27038  .debug_str:000000000001fda0 .LASF2619
C:\Users\SOLDER~1\AppData\Local\Temp\cc6haz4O.s:27098  .debug_str:000000000002015a .LASF2620
C:\Users\SOLDER~1\AppData\Local\Temp\cc6haz4O.s:25216  .debug_str:00000000000187c0 .LASF2621
C:\Users\SOLDER~1\AppData\Local\Temp\cc6haz4O.s:27048  .debug_str:000000000001fe3a .LASF2622
C:\Users\SOLDER~1\AppData\Local\Temp\cc6haz4O.s:22368  .debug_str:000000000000d033 .LASF2623
C:\Users\SOLDER~1\AppData\Local\Temp\cc6haz4O.s:27748  .debug_str:0000000000022ab0 .LASF2624
C:\Users\SOLDER~1\AppData\Local\Temp\cc6haz4O.s:21314  .debug_str:0000000000008b5a .LASF2625
C:\Users\SOLDER~1\AppData\Local\Temp\cc6haz4O.s:23262  .debug_str:0000000000010a04 .LASF2626
C:\Users\SOLDER~1\AppData\Local\Temp\cc6haz4O.s:19414  .debug_str:00000000000010be .LASF2627
C:\Users\SOLDER~1\AppData\Local\Temp\cc6haz4O.s:19828  .debug_str:0000000000002bdf .LASF2628
C:\Users\SOLDER~1\AppData\Local\Temp\cc6haz4O.s:29104  .debug_str:0000000000028435 .LASF2629
C:\Users\SOLDER~1\AppData\Local\Temp\cc6haz4O.s:29594  .debug_str:000000000002a3e4 .LASF2630
C:\Users\SOLDER~1\AppData\Local\Temp\cc6haz4O.s:27284  .debug_str:0000000000020d36 .LASF2631
C:\Users\SOLDER~1\AppData\Local\Temp\cc6haz4O.s:20682  .debug_str:000000000000620c .LASF2632
C:\Users\SOLDER~1\AppData\Local\Temp\cc6haz4O.s:30768  .debug_str:000000000002ef44 .LASF2633
C:\Users\SOLDER~1\AppData\Local\Temp\cc6haz4O.s:23418  .debug_str:00000000000113ad .LASF2634
C:\Users\SOLDER~1\AppData\Local\Temp\cc6haz4O.s:22804  .debug_str:000000000000ec49 .LASF2635
C:\Users\SOLDER~1\AppData\Local\Temp\cc6haz4O.s:27892  .debug_str:000000000002343e .LASF2636
C:\Users\SOLDER~1\AppData\Local\Temp\cc6haz4O.s:29034  .debug_str:0000000000027fac .LASF2637
C:\Users\SOLDER~1\AppData\Local\Temp\cc6haz4O.s:26976  .debug_str:000000000001f9d4 .LASF2638
C:\Users\SOLDER~1\AppData\Local\Temp\cc6haz4O.s:19514  .debug_str:0000000000001746 .LASF2639
C:\Users\SOLDER~1\AppData\Local\Temp\cc6haz4O.s:24970  .debug_str:00000000000177f9 .LASF2640
C:\Users\SOLDER~1\AppData\Local\Temp\cc6haz4O.s:29492  .debug_str:0000000000029cfd .LASF2641
C:\Users\SOLDER~1\AppData\Local\Temp\cc6haz4O.s:20960  .debug_str:0000000000007471 .LASF2642
C:\Users\SOLDER~1\AppData\Local\Temp\cc6haz4O.s:27714  .debug_str:000000000002285e .LASF2643
C:\Users\SOLDER~1\AppData\Local\Temp\cc6haz4O.s:22450  .debug_str:000000000000d596 .LASF2644
C:\Users\SOLDER~1\AppData\Local\Temp\cc6haz4O.s:26110  .debug_str:000000000001c0f3 .LASF2645
C:\Users\SOLDER~1\AppData\Local\Temp\cc6haz4O.s:24424  .debug_str:00000000000155ff .LASF2646
C:\Users\SOLDER~1\AppData\Local\Temp\cc6haz4O.s:24460  .debug_str:0000000000015859 .LASF2647
C:\Users\SOLDER~1\AppData\Local\Temp\cc6haz4O.s:27320  .debug_str:0000000000020f5e .LASF2648
C:\Users\SOLDER~1\AppData\Local\Temp\cc6haz4O.s:22694  .debug_str:000000000000e58e .LASF2649
C:\Users\SOLDER~1\AppData\Local\Temp\cc6haz4O.s:28974  .debug_str:0000000000027b91 .LASF2650
C:\Users\SOLDER~1\AppData\Local\Temp\cc6haz4O.s:21064  .debug_str:0000000000007aea .LASF2651
C:\Users\SOLDER~1\AppData\Local\Temp\cc6haz4O.s:26168  .debug_str:000000000001c4d1 .LASF2652
C:\Users\SOLDER~1\AppData\Local\Temp\cc6haz4O.s:21672  .debug_str:000000000000a2d1 .LASF2653
C:\Users\SOLDER~1\AppData\Local\Temp\cc6haz4O.s:19796  .debug_str:00000000000029cb .LASF2654
C:\Users\SOLDER~1\AppData\Local\Temp\cc6haz4O.s:19776  .debug_str:000000000000285a .LASF2655
C:\Users\SOLDER~1\AppData\Local\Temp\cc6haz4O.s:25892  .debug_str:000000000001b2fc .LASF2656
GAS LISTING C:\Users\SOLDER~1\AppData\Local\Temp\cc6haz4O.s 			page 69


C:\Users\SOLDER~1\AppData\Local\Temp\cc6haz4O.s:27816  .debug_str:0000000000022f3e .LASF2657
C:\Users\SOLDER~1\AppData\Local\Temp\cc6haz4O.s:20522  .debug_str:000000000000573a .LASF2658
C:\Users\SOLDER~1\AppData\Local\Temp\cc6haz4O.s:27560  .debug_str:0000000000021ed6 .LASF2659
C:\Users\SOLDER~1\AppData\Local\Temp\cc6haz4O.s:26680  .debug_str:000000000001e623 .LASF2660
C:\Users\SOLDER~1\AppData\Local\Temp\cc6haz4O.s:25696  .debug_str:000000000001a63e .LASF2661
C:\Users\SOLDER~1\AppData\Local\Temp\cc6haz4O.s:26646  .debug_str:000000000001e418 .LASF2662
C:\Users\SOLDER~1\AppData\Local\Temp\cc6haz4O.s:23754  .debug_str:00000000000128f6 .LASF2663
C:\Users\SOLDER~1\AppData\Local\Temp\cc6haz4O.s:27354  .debug_str:0000000000021174 .LASF2664
C:\Users\SOLDER~1\AppData\Local\Temp\cc6haz4O.s:21842  .debug_str:000000000000ae10 .LASF2665
C:\Users\SOLDER~1\AppData\Local\Temp\cc6haz4O.s:22830  .debug_str:000000000000ee0c .LASF2666
C:\Users\SOLDER~1\AppData\Local\Temp\cc6haz4O.s:19934  .debug_str:00000000000032aa .LASF2667
C:\Users\SOLDER~1\AppData\Local\Temp\cc6haz4O.s:19434  .debug_str:000000000000120f .LASF2668
C:\Users\SOLDER~1\AppData\Local\Temp\cc6haz4O.s:20262  .debug_str:0000000000004754 .LASF2669
C:\Users\SOLDER~1\AppData\Local\Temp\cc6haz4O.s:29276  .debug_str:0000000000028f46 .LASF2670
C:\Users\SOLDER~1\AppData\Local\Temp\cc6haz4O.s:27704  .debug_str:00000000000227c8 .LASF2671
C:\Users\SOLDER~1\AppData\Local\Temp\cc6haz4O.s:20358  .debug_str:0000000000004d91 .LASF2672
C:\Users\SOLDER~1\AppData\Local\Temp\cc6haz4O.s:28392  .debug_str:00000000000254b0 .LASF2673
C:\Users\SOLDER~1\AppData\Local\Temp\cc6haz4O.s:27436  .debug_str:00000000000216e7 .LASF2674
C:\Users\SOLDER~1\AppData\Local\Temp\cc6haz4O.s:26778  .debug_str:000000000001eccc .LASF2675
C:\Users\SOLDER~1\AppData\Local\Temp\cc6haz4O.s:25538  .debug_str:0000000000019c42 .LASF2676
C:\Users\SOLDER~1\AppData\Local\Temp\cc6haz4O.s:25166  .debug_str:00000000000184ae .LASF2677
C:\Users\SOLDER~1\AppData\Local\Temp\cc6haz4O.s:24578  .debug_str:0000000000015f4e .LASF2678
C:\Users\SOLDER~1\AppData\Local\Temp\cc6haz4O.s:23480  .debug_str:00000000000117d7 .LASF2679
C:\Users\SOLDER~1\AppData\Local\Temp\cc6haz4O.s:20694  .debug_str:00000000000062d3 .LASF2680
C:\Users\SOLDER~1\AppData\Local\Temp\cc6haz4O.s:21718  .debug_str:000000000000a5d0 .LASF2681
C:\Users\SOLDER~1\AppData\Local\Temp\cc6haz4O.s:25020  .debug_str:0000000000017b0a .LASF2682
C:\Users\SOLDER~1\AppData\Local\Temp\cc6haz4O.s:20086  .debug_str:0000000000003c76 .LASF2683
C:\Users\SOLDER~1\AppData\Local\Temp\cc6haz4O.s:20126  .debug_str:0000000000003edf .LASF2684
C:\Users\SOLDER~1\AppData\Local\Temp\cc6haz4O.s:26716  .debug_str:000000000001e8ad .LASF2685
C:\Users\SOLDER~1\AppData\Local\Temp\cc6haz4O.s:26990  .debug_str:000000000001fa9f .LASF2686
C:\Users\SOLDER~1\AppData\Local\Temp\cc6haz4O.s:28288  .debug_str:0000000000024e02 .LASF2687
C:\Users\SOLDER~1\AppData\Local\Temp\cc6haz4O.s:25050  .debug_str:0000000000017cf3 .LASF2688
C:\Users\SOLDER~1\AppData\Local\Temp\cc6haz4O.s:26670  .debug_str:000000000001e59a .LASF2689
C:\Users\SOLDER~1\AppData\Local\Temp\cc6haz4O.s:26574  .debug_str:000000000001df77 .LASF2690
C:\Users\SOLDER~1\AppData\Local\Temp\cc6haz4O.s:25076  .debug_str:0000000000017eac .LASF2691
C:\Users\SOLDER~1\AppData\Local\Temp\cc6haz4O.s:27804  .debug_str:0000000000022e7e .LASF2692
C:\Users\SOLDER~1\AppData\Local\Temp\cc6haz4O.s:20494  .debug_str:0000000000005589 .LASF2693
C:\Users\SOLDER~1\AppData\Local\Temp\cc6haz4O.s:19686  .debug_str:000000000000225c .LASF2694
C:\Users\SOLDER~1\AppData\Local\Temp\cc6haz4O.s:30228  .debug_str:000000000002cc84 .LASF2695
C:\Users\SOLDER~1\AppData\Local\Temp\cc6haz4O.s:23968  .debug_str:000000000001372c .LASF2696
C:\Users\SOLDER~1\AppData\Local\Temp\cc6haz4O.s:23884  .debug_str:0000000000013186 .LASF2697
C:\Users\SOLDER~1\AppData\Local\Temp\cc6haz4O.s:20298  .debug_str:00000000000049bd .LASF2698
C:\Users\SOLDER~1\AppData\Local\Temp\cc6haz4O.s:26394  .debug_str:000000000001d3dc .LASF2699
C:\Users\SOLDER~1\AppData\Local\Temp\cc6haz4O.s:26668  .debug_str:000000000001e574 .LASF2700
C:\Users\SOLDER~1\AppData\Local\Temp\cc6haz4O.s:24500  .debug_str:0000000000015a9c .LASF2701
C:\Users\SOLDER~1\AppData\Local\Temp\cc6haz4O.s:26630  .debug_str:000000000001e31c .LASF2702
C:\Users\SOLDER~1\AppData\Local\Temp\cc6haz4O.s:22564  .debug_str:000000000000dca8 .LASF2703
C:\Users\SOLDER~1\AppData\Local\Temp\cc6haz4O.s:27250  .debug_str:0000000000020afd .LASF2704
C:\Users\SOLDER~1\AppData\Local\Temp\cc6haz4O.s:20656  .debug_str:0000000000006023 .LASF2705
C:\Users\SOLDER~1\AppData\Local\Temp\cc6haz4O.s:22716  .debug_str:000000000000e6bf .LASF2706
C:\Users\SOLDER~1\AppData\Local\Temp\cc6haz4O.s:30384  .debug_str:000000000002d6bc .LASF2707
C:\Users\SOLDER~1\AppData\Local\Temp\cc6haz4O.s:24232  .debug_str:000000000001494a .LASF2708
C:\Users\SOLDER~1\AppData\Local\Temp\cc6haz4O.s:28522  .debug_str:0000000000025d6e .LASF2709
C:\Users\SOLDER~1\AppData\Local\Temp\cc6haz4O.s:29174  .debug_str:0000000000028893 .LASF2710
C:\Users\SOLDER~1\AppData\Local\Temp\cc6haz4O.s:26642  .debug_str:000000000001e3d5 .LASF2711
C:\Users\SOLDER~1\AppData\Local\Temp\cc6haz4O.s:27036  .debug_str:000000000001fd7a .LASF2712
C:\Users\SOLDER~1\AppData\Local\Temp\cc6haz4O.s:25036  .debug_str:0000000000017c16 .LASF2713
GAS LISTING C:\Users\SOLDER~1\AppData\Local\Temp\cc6haz4O.s 			page 70


C:\Users\SOLDER~1\AppData\Local\Temp\cc6haz4O.s:27376  .debug_str:000000000002131a .LASF2714
C:\Users\SOLDER~1\AppData\Local\Temp\cc6haz4O.s:23352  .debug_str:0000000000010fa1 .LASF2715
C:\Users\SOLDER~1\AppData\Local\Temp\cc6haz4O.s:20164  .debug_str:000000000000412d .LASF2716
C:\Users\SOLDER~1\AppData\Local\Temp\cc6haz4O.s:21584  .debug_str:0000000000009cea .LASF2717
C:\Users\SOLDER~1\AppData\Local\Temp\cc6haz4O.s:19340  .debug_str:0000000000000c18 .LASF2718
C:\Users\SOLDER~1\AppData\Local\Temp\cc6haz4O.s:19176  .debug_str:00000000000000a4 .LASF2719
C:\Users\SOLDER~1\AppData\Local\Temp\cc6haz4O.s:27102  .debug_str:0000000000020194 .LASF2720
C:\Users\SOLDER~1\AppData\Local\Temp\cc6haz4O.s:25148  .debug_str:000000000001838c .LASF2721
C:\Users\SOLDER~1\AppData\Local\Temp\cc6haz4O.s:27902  .debug_str:00000000000234e5 .LASF2722
C:\Users\SOLDER~1\AppData\Local\Temp\cc6haz4O.s:29608  .debug_str:000000000002a4d6 .LASF2723
C:\Users\SOLDER~1\AppData\Local\Temp\cc6haz4O.s:26446  .debug_str:000000000001d755 .LASF2724
C:\Users\SOLDER~1\AppData\Local\Temp\cc6haz4O.s:26526  .debug_str:000000000001dc26 .LASF2725
C:\Users\SOLDER~1\AppData\Local\Temp\cc6haz4O.s:21752  .debug_str:000000000000a843 .LASF2726
C:\Users\SOLDER~1\AppData\Local\Temp\cc6haz4O.s:24926  .debug_str:0000000000017506 .LASF2727
C:\Users\SOLDER~1\AppData\Local\Temp\cc6haz4O.s:19672  .debug_str:0000000000002140 .LASF2728
C:\Users\SOLDER~1\AppData\Local\Temp\cc6haz4O.s:23156  .debug_str:0000000000010343 .LASF2729
C:\Users\SOLDER~1\AppData\Local\Temp\cc6haz4O.s:21348  .debug_str:0000000000008d69 .LASF2730
C:\Users\SOLDER~1\AppData\Local\Temp\cc6haz4O.s:21496  .debug_str:000000000000976e .LASF2731
C:\Users\SOLDER~1\AppData\Local\Temp\cc6haz4O.s:30158  .debug_str:000000000002c818 .LASF2732
C:\Users\SOLDER~1\AppData\Local\Temp\cc6haz4O.s:30290  .debug_str:000000000002d085 .LASF2733
C:\Users\SOLDER~1\AppData\Local\Temp\cc6haz4O.s:28500  .debug_str:0000000000025be4 .LASF2734
C:\Users\SOLDER~1\AppData\Local\Temp\cc6haz4O.s:28338  .debug_str:0000000000025144 .LASF2735
C:\Users\SOLDER~1\AppData\Local\Temp\cc6haz4O.s:22974  .debug_str:000000000000f732 .LASF2736
C:\Users\SOLDER~1\AppData\Local\Temp\cc6haz4O.s:26456  .debug_str:000000000001d7f3 .LASF2737
C:\Users\SOLDER~1\AppData\Local\Temp\cc6haz4O.s:29138  .debug_str:000000000002865f .LASF2738
C:\Users\SOLDER~1\AppData\Local\Temp\cc6haz4O.s:24564  .debug_str:0000000000015e75 .LASF2739
C:\Users\SOLDER~1\AppData\Local\Temp\cc6haz4O.s:23880  .debug_str:0000000000013134 .LASF2740
C:\Users\SOLDER~1\AppData\Local\Temp\cc6haz4O.s:21244  .debug_str:00000000000086bf .LASF2741
C:\Users\SOLDER~1\AppData\Local\Temp\cc6haz4O.s:20080  .debug_str:0000000000003c04 .LASF2742
C:\Users\SOLDER~1\AppData\Local\Temp\cc6haz4O.s:25420  .debug_str:00000000000194b5 .LASF2743
C:\Users\SOLDER~1\AppData\Local\Temp\cc6haz4O.s:24480  .debug_str:000000000001593e .LASF2744
C:\Users\SOLDER~1\AppData\Local\Temp\cc6haz4O.s:30448  .debug_str:000000000002dae5 .LASF2745
C:\Users\SOLDER~1\AppData\Local\Temp\cc6haz4O.s:19932  .debug_str:000000000000327f .LASF2746
C:\Users\SOLDER~1\AppData\Local\Temp\cc6haz4O.s:28494  .debug_str:0000000000025b87 .LASF2747
C:\Users\SOLDER~1\AppData\Local\Temp\cc6haz4O.s:28120  .debug_str:00000000000242e4 .LASF2748
C:\Users\SOLDER~1\AppData\Local\Temp\cc6haz4O.s:26616  .debug_str:000000000001e22c .LASF2749
C:\Users\SOLDER~1\AppData\Local\Temp\cc6haz4O.s:26070  .debug_str:000000000001be2c .LASF2750
C:\Users\SOLDER~1\AppData\Local\Temp\cc6haz4O.s:24824  .debug_str:0000000000016e76 .LASF2751
C:\Users\SOLDER~1\AppData\Local\Temp\cc6haz4O.s:29078  .debug_str:0000000000028295 .LASF2752
C:\Users\SOLDER~1\AppData\Local\Temp\cc6haz4O.s:20290  .debug_str:000000000000493b .LASF2753
C:\Users\SOLDER~1\AppData\Local\Temp\cc6haz4O.s:26080  .debug_str:000000000001bee2 .LASF2754
C:\Users\SOLDER~1\AppData\Local\Temp\cc6haz4O.s:30280  .debug_str:000000000002cfce .LASF2755
C:\Users\SOLDER~1\AppData\Local\Temp\cc6haz4O.s:27372  .debug_str:00000000000212cc .LASF2756
C:\Users\SOLDER~1\AppData\Local\Temp\cc6haz4O.s:28594  .debug_str:000000000002626d .LASF2757
C:\Users\SOLDER~1\AppData\Local\Temp\cc6haz4O.s:29640  .debug_str:000000000002a6c6 .LASF2758
C:\Users\SOLDER~1\AppData\Local\Temp\cc6haz4O.s:26896  .debug_str:000000000001f493 .LASF2759
C:\Users\SOLDER~1\AppData\Local\Temp\cc6haz4O.s:25800  .debug_str:000000000001ad19 .LASF2760
C:\Users\SOLDER~1\AppData\Local\Temp\cc6haz4O.s:25278  .debug_str:0000000000018bb3 .LASF2761
C:\Users\SOLDER~1\AppData\Local\Temp\cc6haz4O.s:23708  .debug_str:0000000000012613 .LASF2762
C:\Users\SOLDER~1\AppData\Local\Temp\cc6haz4O.s:23586  .debug_str:0000000000011e88 .LASF2763
C:\Users\SOLDER~1\AppData\Local\Temp\cc6haz4O.s:25264  .debug_str:0000000000018a9b .LASF2764
C:\Users\SOLDER~1\AppData\Local\Temp\cc6haz4O.s:21838  .debug_str:000000000000add1 .LASF2765
C:\Users\SOLDER~1\AppData\Local\Temp\cc6haz4O.s:19366  .debug_str:0000000000000df2 .LASF2766
C:\Users\SOLDER~1\AppData\Local\Temp\cc6haz4O.s:22592  .debug_str:000000000000de9d .LASF2767
C:\Users\SOLDER~1\AppData\Local\Temp\cc6haz4O.s:30090  .debug_str:000000000002c3fa .LASF2768
C:\Users\SOLDER~1\AppData\Local\Temp\cc6haz4O.s:26822  .debug_str:000000000001ef94 .LASF2769
C:\Users\SOLDER~1\AppData\Local\Temp\cc6haz4O.s:20024  .debug_str:000000000000384a .LASF2770
GAS LISTING C:\Users\SOLDER~1\AppData\Local\Temp\cc6haz4O.s 			page 71


C:\Users\SOLDER~1\AppData\Local\Temp\cc6haz4O.s:20604  .debug_str:0000000000005d07 .LASF2771
C:\Users\SOLDER~1\AppData\Local\Temp\cc6haz4O.s:30268  .debug_str:000000000002cee1 .LASF2772
C:\Users\SOLDER~1\AppData\Local\Temp\cc6haz4O.s:27192  .debug_str:000000000002074b .LASF2773
C:\Users\SOLDER~1\AppData\Local\Temp\cc6haz4O.s:24274  .debug_str:0000000000014c43 .LASF2774
C:\Users\SOLDER~1\AppData\Local\Temp\cc6haz4O.s:20436  .debug_str:0000000000005203 .LASF2775
C:\Users\SOLDER~1\AppData\Local\Temp\cc6haz4O.s:30248  .debug_str:000000000002cda6 .LASF2776
C:\Users\SOLDER~1\AppData\Local\Temp\cc6haz4O.s:23476  .debug_str:00000000000117af .LASF2777
C:\Users\SOLDER~1\AppData\Local\Temp\cc6haz4O.s:24816  .debug_str:0000000000016dfc .LASF2778
C:\Users\SOLDER~1\AppData\Local\Temp\cc6haz4O.s:21554  .debug_str:0000000000009b0e .LASF2779
C:\Users\SOLDER~1\AppData\Local\Temp\cc6haz4O.s:21984  .debug_str:000000000000b73a .LASF2780
C:\Users\SOLDER~1\AppData\Local\Temp\cc6haz4O.s:19636  .debug_str:0000000000001ef3 .LASF2781
C:\Users\SOLDER~1\AppData\Local\Temp\cc6haz4O.s:19480  .debug_str:000000000000150d .LASF2782
C:\Users\SOLDER~1\AppData\Local\Temp\cc6haz4O.s:29364  .debug_str:00000000000294e7 .LASF2783
C:\Users\SOLDER~1\AppData\Local\Temp\cc6haz4O.s:20182  .debug_str:000000000000425d .LASF2784
C:\Users\SOLDER~1\AppData\Local\Temp\cc6haz4O.s:20212  .debug_str:0000000000004444 .LASF2785
C:\Users\SOLDER~1\AppData\Local\Temp\cc6haz4O.s:24364  .debug_str:00000000000151f6 .LASF2786
C:\Users\SOLDER~1\AppData\Local\Temp\cc6haz4O.s:25570  .debug_str:0000000000019e65 .LASF2787
C:\Users\SOLDER~1\AppData\Local\Temp\cc6haz4O.s:23882  .debug_str:000000000001315f .LASF2788
C:\Users\SOLDER~1\AppData\Local\Temp\cc6haz4O.s:23624  .debug_str:00000000000120f4 .LASF2789
C:\Users\SOLDER~1\AppData\Local\Temp\cc6haz4O.s:22010  .debug_str:000000000000b8ae .LASF2790
C:\Users\SOLDER~1\AppData\Local\Temp\cc6haz4O.s:24780  .debug_str:0000000000016c0c .LASF2791
C:\Users\SOLDER~1\AppData\Local\Temp\cc6haz4O.s:24766  .debug_str:0000000000016b16 .LASF2792
C:\Users\SOLDER~1\AppData\Local\Temp\cc6haz4O.s:21120  .debug_str:0000000000007e9c .LASF2793
C:\Users\SOLDER~1\AppData\Local\Temp\cc6haz4O.s:27378  .debug_str:0000000000021341 .LASF2794
C:\Users\SOLDER~1\AppData\Local\Temp\cc6haz4O.s:26650  .debug_str:000000000001e461 .LASF2795
C:\Users\SOLDER~1\AppData\Local\Temp\cc6haz4O.s:24026  .debug_str:0000000000013b2f .LASF2796
C:\Users\SOLDER~1\AppData\Local\Temp\cc6haz4O.s:29454  .debug_str:0000000000029a8b .LASF2797
C:\Users\SOLDER~1\AppData\Local\Temp\cc6haz4O.s:19260  .debug_str:0000000000000607 .LASF2798
C:\Users\SOLDER~1\AppData\Local\Temp\cc6haz4O.s:27676  .debug_str:00000000000225d8 .LASF2799
C:\Users\SOLDER~1\AppData\Local\Temp\cc6haz4O.s:27012  .debug_str:000000000001fc04 .LASF2800
C:\Users\SOLDER~1\AppData\Local\Temp\cc6haz4O.s:26074  .debug_str:000000000001be83 .LASF2801
C:\Users\SOLDER~1\AppData\Local\Temp\cc6haz4O.s:25000  .debug_str:00000000000179aa .LASF2802
C:\Users\SOLDER~1\AppData\Local\Temp\cc6haz4O.s:24416  .debug_str:0000000000015575 .LASF2803
C:\Users\SOLDER~1\AppData\Local\Temp\cc6haz4O.s:26452  .debug_str:000000000001d7b0 .LASF2804
C:\Users\SOLDER~1\AppData\Local\Temp\cc6haz4O.s:22748  .debug_str:000000000000e8d3 .LASF2805
C:\Users\SOLDER~1\AppData\Local\Temp\cc6haz4O.s:21660  .debug_str:000000000000a1e5 .LASF2806
C:\Users\SOLDER~1\AppData\Local\Temp\cc6haz4O.s:23932  .debug_str:00000000000134ae .LASF2807
C:\Users\SOLDER~1\AppData\Local\Temp\cc6haz4O.s:19678  .debug_str:00000000000021d4 .LASF2808
C:\Users\SOLDER~1\AppData\Local\Temp\cc6haz4O.s:19384  .debug_str:0000000000000f09 .LASF2809
C:\Users\SOLDER~1\AppData\Local\Temp\cc6haz4O.s:21264  .debug_str:000000000000881a .LASF2810
C:\Users\SOLDER~1\AppData\Local\Temp\cc6haz4O.s:29346  .debug_str:00000000000293bb .LASF2811
C:\Users\SOLDER~1\AppData\Local\Temp\cc6haz4O.s:30162  .debug_str:000000000002c864 .LASF2812
C:\Users\SOLDER~1\AppData\Local\Temp\cc6haz4O.s:19642  .debug_str:0000000000001f59 .LASF2813
C:\Users\SOLDER~1\AppData\Local\Temp\cc6haz4O.s:26312  .debug_str:000000000001ce54 .LASF2814
C:\Users\SOLDER~1\AppData\Local\Temp\cc6haz4O.s:27218  .debug_str:0000000000020904 .LASF2815
C:\Users\SOLDER~1\AppData\Local\Temp\cc6haz4O.s:19574  .debug_str:0000000000001ad4 .LASF2816
C:\Users\SOLDER~1\AppData\Local\Temp\cc6haz4O.s:26878  .debug_str:000000000001f357 .LASF2817
C:\Users\SOLDER~1\AppData\Local\Temp\cc6haz4O.s:26820  .debug_str:000000000001ef72 .LASF2818
C:\Users\SOLDER~1\AppData\Local\Temp\cc6haz4O.s:27144  .debug_str:0000000000020423 .LASF2819
C:\Users\SOLDER~1\AppData\Local\Temp\cc6haz4O.s:20934  .debug_str:00000000000072b9 .LASF2820
C:\Users\SOLDER~1\AppData\Local\Temp\cc6haz4O.s:27536  .debug_str:0000000000021d47 .LASF2821
C:\Users\SOLDER~1\AppData\Local\Temp\cc6haz4O.s:21132  .debug_str:0000000000007f68 .LASF2822
C:\Users\SOLDER~1\AppData\Local\Temp\cc6haz4O.s:20012  .debug_str:0000000000003799 .LASF2823
C:\Users\SOLDER~1\AppData\Local\Temp\cc6haz4O.s:25358  .debug_str:00000000000190f5 .LASF2824
C:\Users\SOLDER~1\AppData\Local\Temp\cc6haz4O.s:28156  .debug_str:0000000000024543 .LASF2825
C:\Users\SOLDER~1\AppData\Local\Temp\cc6haz4O.s:23550  .debug_str:0000000000011c23 .LASF2826
C:\Users\SOLDER~1\AppData\Local\Temp\cc6haz4O.s:20312  .debug_str:0000000000004aac .LASF2827
GAS LISTING C:\Users\SOLDER~1\AppData\Local\Temp\cc6haz4O.s 			page 72


C:\Users\SOLDER~1\AppData\Local\Temp\cc6haz4O.s:27718  .debug_str:0000000000022894 .LASF2828
C:\Users\SOLDER~1\AppData\Local\Temp\cc6haz4O.s:24472  .debug_str:00000000000158eb .LASF2829
C:\Users\SOLDER~1\AppData\Local\Temp\cc6haz4O.s:29270  .debug_str:0000000000028edd .LASF2830
C:\Users\SOLDER~1\AppData\Local\Temp\cc6haz4O.s:26662  .debug_str:000000000001e50e .LASF2831
C:\Users\SOLDER~1\AppData\Local\Temp\cc6haz4O.s:30806  .debug_str:000000000002f1b5 .LASF2832
C:\Users\SOLDER~1\AppData\Local\Temp\cc6haz4O.s:25546  .debug_str:0000000000019cd7 .LASF2833
C:\Users\SOLDER~1\AppData\Local\Temp\cc6haz4O.s:23472  .debug_str:0000000000011768 .LASF2834
C:\Users\SOLDER~1\AppData\Local\Temp\cc6haz4O.s:24758  .debug_str:0000000000016a89 .LASF2835
C:\Users\SOLDER~1\AppData\Local\Temp\cc6haz4O.s:20678  .debug_str:00000000000061a4 .LASF2836
C:\Users\SOLDER~1\AppData\Local\Temp\cc6haz4O.s:26240  .debug_str:000000000001c96d .LASF2837
C:\Users\SOLDER~1\AppData\Local\Temp\cc6haz4O.s:23414  .debug_str:0000000000011367 .LASF2838
C:\Users\SOLDER~1\AppData\Local\Temp\cc6haz4O.s:20274  .debug_str:0000000000004829 .LASF2839
C:\Users\SOLDER~1\AppData\Local\Temp\cc6haz4O.s:29478  .debug_str:0000000000029c1c .LASF2840
C:\Users\SOLDER~1\AppData\Local\Temp\cc6haz4O.s:26848  .debug_str:000000000001f13d .LASF2841
C:\Users\SOLDER~1\AppData\Local\Temp\cc6haz4O.s:26270  .debug_str:000000000001cb76 .LASF2842
C:\Users\SOLDER~1\AppData\Local\Temp\cc6haz4O.s:27056  .debug_str:000000000001feb9 .LASF2843
C:\Users\SOLDER~1\AppData\Local\Temp\cc6haz4O.s:28860  .debug_str:000000000002748d .LASF2844
C:\Users\SOLDER~1\AppData\Local\Temp\cc6haz4O.s:29194  .debug_str:0000000000028a1a .LASF2845
C:\Users\SOLDER~1\AppData\Local\Temp\cc6haz4O.s:22636  .debug_str:000000000000e17f .LASF2846
C:\Users\SOLDER~1\AppData\Local\Temp\cc6haz4O.s:26144  .debug_str:000000000001c33b .LASF2847
C:\Users\SOLDER~1\AppData\Local\Temp\cc6haz4O.s:30770  .debug_str:000000000002ef5e .LASF2848
C:\Users\SOLDER~1\AppData\Local\Temp\cc6haz4O.s:26198  .debug_str:000000000001c69f .LASF2849
C:\Users\SOLDER~1\AppData\Local\Temp\cc6haz4O.s:24072  .debug_str:0000000000013e78 .LASF2850
C:\Users\SOLDER~1\AppData\Local\Temp\cc6haz4O.s:30328  .debug_str:000000000002d34d .LASF2851
C:\Users\SOLDER~1\AppData\Local\Temp\cc6haz4O.s:22456  .debug_str:000000000000d5fe .LASF2852
C:\Users\SOLDER~1\AppData\Local\Temp\cc6haz4O.s:22072  .debug_str:000000000000bc84 .LASF2853
C:\Users\SOLDER~1\AppData\Local\Temp\cc6haz4O.s:29620  .debug_str:000000000002a58f .LASF2854
C:\Users\SOLDER~1\AppData\Local\Temp\cc6haz4O.s:25834  .debug_str:000000000001afa7 .LASF2855
C:\Users\SOLDER~1\AppData\Local\Temp\cc6haz4O.s:30008  .debug_str:000000000002be2d .LASF2856
C:\Users\SOLDER~1\AppData\Local\Temp\cc6haz4O.s:22282  .debug_str:000000000000ca66 .LASF2857
C:\Users\SOLDER~1\AppData\Local\Temp\cc6haz4O.s:26758  .debug_str:000000000001eb7b .LASF2858
C:\Users\SOLDER~1\AppData\Local\Temp\cc6haz4O.s:20510  .debug_str:0000000000005679 .LASF2859
C:\Users\SOLDER~1\AppData\Local\Temp\cc6haz4O.s:20038  .debug_str:000000000000393c .LASF2860
C:\Users\SOLDER~1\AppData\Local\Temp\cc6haz4O.s:28840  .debug_str:0000000000027340 .LASF2861
C:\Users\SOLDER~1\AppData\Local\Temp\cc6haz4O.s:21114  .debug_str:0000000000007e3f .LASF2862
C:\Users\SOLDER~1\AppData\Local\Temp\cc6haz4O.s:27370  .debug_str:00000000000212a5 .LASF2863
C:\Users\SOLDER~1\AppData\Local\Temp\cc6haz4O.s:26880  .debug_str:000000000001f377 .LASF2864
C:\Users\SOLDER~1\AppData\Local\Temp\cc6haz4O.s:23654  .debug_str:00000000000122c8 .LASF2865
C:\Users\SOLDER~1\AppData\Local\Temp\cc6haz4O.s:22162  .debug_str:000000000000c24c .LASF2866
C:\Users\SOLDER~1\AppData\Local\Temp\cc6haz4O.s:23356  .debug_str:0000000000010fe2 .LASF2867
C:\Users\SOLDER~1\AppData\Local\Temp\cc6haz4O.s:23938  .debug_str:0000000000013507 .LASF2868
C:\Users\SOLDER~1\AppData\Local\Temp\cc6haz4O.s:30674  .debug_str:000000000002e941 .LASF2869
C:\Users\SOLDER~1\AppData\Local\Temp\cc6haz4O.s:23950  .debug_str:00000000000135df .LASF2870
C:\Users\SOLDER~1\AppData\Local\Temp\cc6haz4O.s:30144  .debug_str:000000000002c73b .LASF2871
C:\Users\SOLDER~1\AppData\Local\Temp\cc6haz4O.s:30256  .debug_str:000000000002ce24 .LASF2872
C:\Users\SOLDER~1\AppData\Local\Temp\cc6haz4O.s:25846  .debug_str:000000000001b055 .LASF2873
C:\Users\SOLDER~1\AppData\Local\Temp\cc6haz4O.s:30174  .debug_str:000000000002c936 .LASF2874
C:\Users\SOLDER~1\AppData\Local\Temp\cc6haz4O.s:27348  .debug_str:0000000000021109 .LASF2875
C:\Users\SOLDER~1\AppData\Local\Temp\cc6haz4O.s:22948  .debug_str:000000000000f582 .LASF2876
C:\Users\SOLDER~1\AppData\Local\Temp\cc6haz4O.s:23054  .debug_str:000000000000fcac .LASF2877
C:\Users\SOLDER~1\AppData\Local\Temp\cc6haz4O.s:22960  .debug_str:000000000000f64e .LASF2878
C:\Users\SOLDER~1\AppData\Local\Temp\cc6haz4O.s:24994  .debug_str:0000000000017968 .LASF2879
C:\Users\SOLDER~1\AppData\Local\Temp\cc6haz4O.s:30634  .debug_str:000000000002e6a8 .LASF2880
C:\Users\SOLDER~1\AppData\Local\Temp\cc6haz4O.s:22472  .debug_str:000000000000d708 .LASF2881
C:\Users\SOLDER~1\AppData\Local\Temp\cc6haz4O.s:30716  .debug_str:000000000002ec11 .LASF2882
C:\Users\SOLDER~1\AppData\Local\Temp\cc6haz4O.s:29844  .debug_str:000000000002b3ee .LASF2883
C:\Users\SOLDER~1\AppData\Local\Temp\cc6haz4O.s:20948  .debug_str:000000000000739a .LASF2884
GAS LISTING C:\Users\SOLDER~1\AppData\Local\Temp\cc6haz4O.s 			page 73


C:\Users\SOLDER~1\AppData\Local\Temp\cc6haz4O.s:28020  .debug_str:0000000000023c52 .LASF2885
C:\Users\SOLDER~1\AppData\Local\Temp\cc6haz4O.s:20622  .debug_str:0000000000005e17 .LASF2886
C:\Users\SOLDER~1\AppData\Local\Temp\cc6haz4O.s:21234  .debug_str:0000000000008623 .LASF2887
C:\Users\SOLDER~1\AppData\Local\Temp\cc6haz4O.s:21944  .debug_str:000000000000b474 .LASF2888
C:\Users\SOLDER~1\AppData\Local\Temp\cc6haz4O.s:21996  .debug_str:000000000000b7ea .LASF2889
C:\Users\SOLDER~1\AppData\Local\Temp\cc6haz4O.s:20936  .debug_str:00000000000072d9 .LASF2890
C:\Users\SOLDER~1\AppData\Local\Temp\cc6haz4O.s:19962  .debug_str:0000000000003462 .LASF2891
C:\Users\SOLDER~1\AppData\Local\Temp\cc6haz4O.s:22664  .debug_str:000000000000e39a .LASF2892
C:\Users\SOLDER~1\AppData\Local\Temp\cc6haz4O.s:24722  .debug_str:000000000001682c .LASF2893
C:\Users\SOLDER~1\AppData\Local\Temp\cc6haz4O.s:30474  .debug_str:000000000002dc6a .LASF2894
C:\Users\SOLDER~1\AppData\Local\Temp\cc6haz4O.s:21856  .debug_str:000000000000aef4 .LASF2895
C:\Users\SOLDER~1\AppData\Local\Temp\cc6haz4O.s:29538  .debug_str:000000000002a015 .LASF2896
C:\Users\SOLDER~1\AppData\Local\Temp\cc6haz4O.s:30552  .debug_str:000000000002e189 .LASF2897
C:\Users\SOLDER~1\AppData\Local\Temp\cc6haz4O.s:30336  .debug_str:000000000002d3cc .LASF2898
C:\Users\SOLDER~1\AppData\Local\Temp\cc6haz4O.s:20460  .debug_str:0000000000005382 .LASF2899
C:\Users\SOLDER~1\AppData\Local\Temp\cc6haz4O.s:21434  .debug_str:000000000000937d .LASF2900
C:\Users\SOLDER~1\AppData\Local\Temp\cc6haz4O.s:26454  .debug_str:000000000001d7d8 .LASF2901
C:\Users\SOLDER~1\AppData\Local\Temp\cc6haz4O.s:22354  .debug_str:000000000000cf43 .LASF2902
C:\Users\SOLDER~1\AppData\Local\Temp\cc6haz4O.s:24220  .debug_str:000000000001489f .LASF2903
C:\Users\SOLDER~1\AppData\Local\Temp\cc6haz4O.s:29180  .debug_str:0000000000028921 .LASF2904
C:\Users\SOLDER~1\AppData\Local\Temp\cc6haz4O.s:21622  .debug_str:0000000000009f8e .LASF2905
C:\Users\SOLDER~1\AppData\Local\Temp\cc6haz4O.s:29286  .debug_str:0000000000028fee .LASF2906
C:\Users\SOLDER~1\AppData\Local\Temp\cc6haz4O.s:25268  .debug_str:0000000000018adf .LASF2907
C:\Users\SOLDER~1\AppData\Local\Temp\cc6haz4O.s:22678  .debug_str:000000000000e495 .LASF2908
C:\Users\SOLDER~1\AppData\Local\Temp\cc6haz4O.s:27458  .debug_str:000000000002185d .LASF2909
C:\Users\SOLDER~1\AppData\Local\Temp\cc6haz4O.s:28206  .debug_str:000000000002489c .LASF2910
C:\Users\SOLDER~1\AppData\Local\Temp\cc6haz4O.s:23500  .debug_str:0000000000011901 .LASF2911
C:\Users\SOLDER~1\AppData\Local\Temp\cc6haz4O.s:22572  .debug_str:000000000000dd33 .LASF2912
C:\Users\SOLDER~1\AppData\Local\Temp\cc6haz4O.s:22914  .debug_str:000000000000f36a .LASF2913
C:\Users\SOLDER~1\AppData\Local\Temp\cc6haz4O.s:19844  .debug_str:0000000000002cac .LASF2914
C:\Users\SOLDER~1\AppData\Local\Temp\cc6haz4O.s:25258  .debug_str:0000000000018a50 .LASF2915
C:\Users\SOLDER~1\AppData\Local\Temp\cc6haz4O.s:19250  .debug_str:0000000000000559 .LASF2916
C:\Users\SOLDER~1\AppData\Local\Temp\cc6haz4O.s:27932  .debug_str:00000000000236d3 .LASF2917
C:\Users\SOLDER~1\AppData\Local\Temp\cc6haz4O.s:22688  .debug_str:000000000000e529 .LASF2918
C:\Users\SOLDER~1\AppData\Local\Temp\cc6haz4O.s:26874  .debug_str:000000000001f31d .LASF2919
C:\Users\SOLDER~1\AppData\Local\Temp\cc6haz4O.s:28174  .debug_str:0000000000024668 .LASF2920
C:\Users\SOLDER~1\AppData\Local\Temp\cc6haz4O.s:26568  .debug_str:000000000001df08 .LASF2921
C:\Users\SOLDER~1\AppData\Local\Temp\cc6haz4O.s:23168  .debug_str:00000000000103ec .LASF2922
C:\Users\SOLDER~1\AppData\Local\Temp\cc6haz4O.s:28232  .debug_str:0000000000024a64 .LASF2923
C:\Users\SOLDER~1\AppData\Local\Temp\cc6haz4O.s:25330  .debug_str:0000000000018f19 .LASF2924
C:\Users\SOLDER~1\AppData\Local\Temp\cc6haz4O.s:24888  .debug_str:000000000001726a .LASF2925
C:\Users\SOLDER~1\AppData\Local\Temp\cc6haz4O.s:24166  .debug_str:0000000000014508 .LASF2926
C:\Users\SOLDER~1\AppData\Local\Temp\cc6haz4O.s:22466  .debug_str:000000000000d6a6 .LASF2927
C:\Users\SOLDER~1\AppData\Local\Temp\cc6haz4O.s:22764  .debug_str:000000000000e9f5 .LASF2928
C:\Users\SOLDER~1\AppData\Local\Temp\cc6haz4O.s:25118  .debug_str:00000000000181a3 .LASF2929
C:\Users\SOLDER~1\AppData\Local\Temp\cc6haz4O.s:26582  .debug_str:000000000001e005 .LASF2930
C:\Users\SOLDER~1\AppData\Local\Temp\cc6haz4O.s:28284  .debug_str:0000000000024dc5 .LASF2931
C:\Users\SOLDER~1\AppData\Local\Temp\cc6haz4O.s:28800  .debug_str:00000000000270ab .LASF2932
C:\Users\SOLDER~1\AppData\Local\Temp\cc6haz4O.s:29192  .debug_str:00000000000289f1 .LASF2933
C:\Users\SOLDER~1\AppData\Local\Temp\cc6haz4O.s:26462  .debug_str:000000000001d840 .LASF2934
C:\Users\SOLDER~1\AppData\Local\Temp\cc6haz4O.s:25256  .debug_str:0000000000018a36 .LASF2935
C:\Users\SOLDER~1\AppData\Local\Temp\cc6haz4O.s:28334  .debug_str:0000000000025104 .LASF2936
C:\Users\SOLDER~1\AppData\Local\Temp\cc6haz4O.s:19178  .debug_str:00000000000000be .LASF2937
C:\Users\SOLDER~1\AppData\Local\Temp\cc6haz4O.s:28586  .debug_str:00000000000261da .LASF2938
C:\Users\SOLDER~1\AppData\Local\Temp\cc6haz4O.s:19440  .debug_str:0000000000001276 .LASF2939
C:\Users\SOLDER~1\AppData\Local\Temp\cc6haz4O.s:20344  .debug_str:0000000000004c9e .LASF2940
C:\Users\SOLDER~1\AppData\Local\Temp\cc6haz4O.s:21058  .debug_str:0000000000007a81 .LASF2941
GAS LISTING C:\Users\SOLDER~1\AppData\Local\Temp\cc6haz4O.s 			page 74


C:\Users\SOLDER~1\AppData\Local\Temp\cc6haz4O.s:28110  .debug_str:000000000002423e .LASF2942
C:\Users\SOLDER~1\AppData\Local\Temp\cc6haz4O.s:27998  .debug_str:0000000000023aed .LASF2943
C:\Users\SOLDER~1\AppData\Local\Temp\cc6haz4O.s:21258  .debug_str:000000000000879b .LASF2944
C:\Users\SOLDER~1\AppData\Local\Temp\cc6haz4O.s:19180  .debug_str:00000000000000e7 .LASF2945
C:\Users\SOLDER~1\AppData\Local\Temp\cc6haz4O.s:25618  .debug_str:000000000001a14c .LASF2946
C:\Users\SOLDER~1\AppData\Local\Temp\cc6haz4O.s:24686  .debug_str:0000000000016643 .LASF2947
C:\Users\SOLDER~1\AppData\Local\Temp\cc6haz4O.s:25152  .debug_str:00000000000183c3 .LASF2948
C:\Users\SOLDER~1\AppData\Local\Temp\cc6haz4O.s:25416  .debug_str:0000000000019476 .LASF2949
C:\Users\SOLDER~1\AppData\Local\Temp\cc6haz4O.s:23814  .debug_str:0000000000012cfd .LASF2950
C:\Users\SOLDER~1\AppData\Local\Temp\cc6haz4O.s:25516  .debug_str:0000000000019ae0 .LASF2951
C:\Users\SOLDER~1\AppData\Local\Temp\cc6haz4O.s:19930  .debug_str:0000000000003255 .LASF2952
C:\Users\SOLDER~1\AppData\Local\Temp\cc6haz4O.s:19380  .debug_str:0000000000000eca .LASF2953
C:\Users\SOLDER~1\AppData\Local\Temp\cc6haz4O.s:25316  .debug_str:0000000000018e24 .LASF2954
C:\Users\SOLDER~1\AppData\Local\Temp\cc6haz4O.s:28572  .debug_str:00000000000260ec .LASF2955
C:\Users\SOLDER~1\AppData\Local\Temp\cc6haz4O.s:29316  .debug_str:00000000000291aa .LASF2956
C:\Users\SOLDER~1\AppData\Local\Temp\cc6haz4O.s:19746  .debug_str:000000000000265f .LASF2957
C:\Users\SOLDER~1\AppData\Local\Temp\cc6haz4O.s:22902  .debug_str:000000000000f2a7 .LASF2958
C:\Users\SOLDER~1\AppData\Local\Temp\cc6haz4O.s:30302  .debug_str:000000000002d153 .LASF2959
C:\Users\SOLDER~1\AppData\Local\Temp\cc6haz4O.s:23448  .debug_str:00000000000115bc .LASF2960
C:\Users\SOLDER~1\AppData\Local\Temp\cc6haz4O.s:24840  .debug_str:0000000000016f69 .LASF2961
C:\Users\SOLDER~1\AppData\Local\Temp\cc6haz4O.s:20806  .debug_str:0000000000006a5d .LASF2962
C:\Users\SOLDER~1\AppData\Local\Temp\cc6haz4O.s:22576  .debug_str:000000000000dd99 .LASF2963
C:\Users\SOLDER~1\AppData\Local\Temp\cc6haz4O.s:28302  .debug_str:0000000000024eeb .LASF2964
C:\Users\SOLDER~1\AppData\Local\Temp\cc6haz4O.s:30740  .debug_str:000000000002eda3 .LASF2965
C:\Users\SOLDER~1\AppData\Local\Temp\cc6haz4O.s:25814  .debug_str:000000000001ae37 .LASF2966
C:\Users\SOLDER~1\AppData\Local\Temp\cc6haz4O.s:19192  .debug_str:0000000000000179 .LASF2967
C:\Users\SOLDER~1\AppData\Local\Temp\cc6haz4O.s:28700  .debug_str:00000000000269c3 .LASF2968
C:\Users\SOLDER~1\AppData\Local\Temp\cc6haz4O.s:27588  .debug_str:0000000000022096 .LASF2969
C:\Users\SOLDER~1\AppData\Local\Temp\cc6haz4O.s:26886  .debug_str:000000000001f3dd .LASF2970
C:\Users\SOLDER~1\AppData\Local\Temp\cc6haz4O.s:22994  .debug_str:000000000000f87e .LASF2971
C:\Users\SOLDER~1\AppData\Local\Temp\cc6haz4O.s:27858  .debug_str:00000000000231e5 .LASF2972
C:\Users\SOLDER~1\AppData\Local\Temp\cc6haz4O.s:21826  .debug_str:000000000000ad1f .LASF2973
C:\Users\SOLDER~1\AppData\Local\Temp\cc6haz4O.s:19632  .debug_str:0000000000001ead .LASF2974
C:\Users\SOLDER~1\AppData\Local\Temp\cc6haz4O.s:23944  .debug_str:000000000001356c .LASF2975
C:\Users\SOLDER~1\AppData\Local\Temp\cc6haz4O.s:21490  .debug_str:0000000000009703 .LASF2976
C:\Users\SOLDER~1\AppData\Local\Temp\cc6haz4O.s:27644  .debug_str:00000000000223ab .LASF2977
C:\Users\SOLDER~1\AppData\Local\Temp\cc6haz4O.s:30306  .debug_str:000000000002d1a3 .LASF2978
C:\Users\SOLDER~1\AppData\Local\Temp\cc6haz4O.s:22194  .debug_str:000000000000c479 .LASF2979
C:\Users\SOLDER~1\AppData\Local\Temp\cc6haz4O.s:27870  .debug_str:00000000000232a1 .LASF2980
C:\Users\SOLDER~1\AppData\Local\Temp\cc6haz4O.s:21778  .debug_str:000000000000a9e6 .LASF2981
C:\Users\SOLDER~1\AppData\Local\Temp\cc6haz4O.s:30286  .debug_str:000000000002d03b .LASF2982
C:\Users\SOLDER~1\AppData\Local\Temp\cc6haz4O.s:24628  .debug_str:0000000000016290 .LASF2983
C:\Users\SOLDER~1\AppData\Local\Temp\cc6haz4O.s:29072  .debug_str:0000000000028226 .LASF2984
C:\Users\SOLDER~1\AppData\Local\Temp\cc6haz4O.s:25446  .debug_str:0000000000019674 .LASF2985
C:\Users\SOLDER~1\AppData\Local\Temp\cc6haz4O.s:20132  .debug_str:0000000000003f41 .LASF2986
C:\Users\SOLDER~1\AppData\Local\Temp\cc6haz4O.s:30198  .debug_str:000000000002caa4 .LASF2987
C:\Users\SOLDER~1\AppData\Local\Temp\cc6haz4O.s:19648  .debug_str:0000000000001fc8 .LASF2988
C:\Users\SOLDER~1\AppData\Local\Temp\cc6haz4O.s:23264  .debug_str:0000000000010a2a .LASF2989
C:\Users\SOLDER~1\AppData\Local\Temp\cc6haz4O.s:20584  .debug_str:0000000000005b94 .LASF2990
C:\Users\SOLDER~1\AppData\Local\Temp\cc6haz4O.s:30704  .debug_str:000000000002eb73 .LASF2991
C:\Users\SOLDER~1\AppData\Local\Temp\cc6haz4O.s:19676  .debug_str:00000000000021ac .LASF2992
C:\Users\SOLDER~1\AppData\Local\Temp\cc6haz4O.s:28830  .debug_str:000000000002728e .LASF2993
C:\Users\SOLDER~1\AppData\Local\Temp\cc6haz4O.s:21724  .debug_str:000000000000a632 .LASF2994
C:\Users\SOLDER~1\AppData\Local\Temp\cc6haz4O.s:19862  .debug_str:0000000000002dea .LASF2995
C:\Users\SOLDER~1\AppData\Local\Temp\cc6haz4O.s:28640  .debug_str:00000000000265d2 .LASF2996
C:\Users\SOLDER~1\AppData\Local\Temp\cc6haz4O.s:22566  .debug_str:000000000000dcc0 .LASF2997
C:\Users\SOLDER~1\AppData\Local\Temp\cc6haz4O.s:24108  .debug_str:0000000000014100 .LASF2998
GAS LISTING C:\Users\SOLDER~1\AppData\Local\Temp\cc6haz4O.s 			page 75


C:\Users\SOLDER~1\AppData\Local\Temp\cc6haz4O.s:28610  .debug_str:0000000000026394 .LASF2999
C:\Users\SOLDER~1\AppData\Local\Temp\cc6haz4O.s:19670  .debug_str:0000000000002118 .LASF3000
C:\Users\SOLDER~1\AppData\Local\Temp\cc6haz4O.s:25716  .debug_str:000000000001a778 .LASF3001
C:\Users\SOLDER~1\AppData\Local\Temp\cc6haz4O.s:23986  .debug_str:0000000000013856 .LASF3002
C:\Users\SOLDER~1\AppData\Local\Temp\cc6haz4O.s:27600  .debug_str:0000000000022148 .LASF3003
C:\Users\SOLDER~1\AppData\Local\Temp\cc6haz4O.s:26476  .debug_str:000000000001d910 .LASF3004
C:\Users\SOLDER~1\AppData\Local\Temp\cc6haz4O.s:28258  .debug_str:0000000000024c1e .LASF3005
C:\Users\SOLDER~1\AppData\Local\Temp\cc6haz4O.s:21802  .debug_str:000000000000ab9b .LASF3006
C:\Users\SOLDER~1\AppData\Local\Temp\cc6haz4O.s:27652  .debug_str:0000000000022430 .LASF3007
C:\Users\SOLDER~1\AppData\Local\Temp\cc6haz4O.s:25370  .debug_str:00000000000191b8 .LASF3008
C:\Users\SOLDER~1\AppData\Local\Temp\cc6haz4O.s:30200  .debug_str:000000000002cabd .LASF3009
C:\Users\SOLDER~1\AppData\Local\Temp\cc6haz4O.s:25752  .debug_str:000000000001a9fd .LASF3010
C:\Users\SOLDER~1\AppData\Local\Temp\cc6haz4O.s:30434  .debug_str:000000000002da11 .LASF3011
C:\Users\SOLDER~1\AppData\Local\Temp\cc6haz4O.s:27062  .debug_str:000000000001ff00 .LASF3012
C:\Users\SOLDER~1\AppData\Local\Temp\cc6haz4O.s:21512  .debug_str:000000000000985a .LASF3013
C:\Users\SOLDER~1\AppData\Local\Temp\cc6haz4O.s:23194  .debug_str:00000000000105bd .LASF3014
C:\Users\SOLDER~1\AppData\Local\Temp\cc6haz4O.s:24092  .debug_str:0000000000013fea .LASF3015
C:\Users\SOLDER~1\AppData\Local\Temp\cc6haz4O.s:25080  .debug_str:0000000000017eea .LASF3016
C:\Users\SOLDER~1\AppData\Local\Temp\cc6haz4O.s:22144  .debug_str:000000000000c121 .LASF3017
C:\Users\SOLDER~1\AppData\Local\Temp\cc6haz4O.s:21542  .debug_str:0000000000009a5a .LASF3018
C:\Users\SOLDER~1\AppData\Local\Temp\cc6haz4O.s:20238  .debug_str:00000000000045f0 .LASF3019
C:\Users\SOLDER~1\AppData\Local\Temp\cc6haz4O.s:30650  .debug_str:000000000002e7b8 .LASF3020
C:\Users\SOLDER~1\AppData\Local\Temp\cc6haz4O.s:29968  .debug_str:000000000002bba2 .LASF3021
C:\Users\SOLDER~1\AppData\Local\Temp\cc6haz4O.s:26576  .debug_str:000000000001df9e .LASF3022
C:\Users\SOLDER~1\AppData\Local\Temp\cc6haz4O.s:28536  .debug_str:0000000000025e58 .LASF3023
C:\Users\SOLDER~1\AppData\Local\Temp\cc6haz4O.s:25888  .debug_str:000000000001b2b9 .LASF3024
C:\Users\SOLDER~1\AppData\Local\Temp\cc6haz4O.s:26234  .debug_str:000000000001c914 .LASF3025
C:\Users\SOLDER~1\AppData\Local\Temp\cc6haz4O.s:19764  .debug_str:0000000000002783 .LASF3026
C:\Users\SOLDER~1\AppData\Local\Temp\cc6haz4O.s:24332  .debug_str:0000000000015011 .LASF3027
C:\Users\SOLDER~1\AppData\Local\Temp\cc6haz4O.s:28918  .debug_str:0000000000027835 .LASF3028
C:\Users\SOLDER~1\AppData\Local\Temp\cc6haz4O.s:22394  .debug_str:000000000000d1f4 .LASF3029
C:\Users\SOLDER~1\AppData\Local\Temp\cc6haz4O.s:24286  .debug_str:0000000000014d0a .LASF3030
C:\Users\SOLDER~1\AppData\Local\Temp\cc6haz4O.s:19726  .debug_str:0000000000002517 .LASF3031
C:\Users\SOLDER~1\AppData\Local\Temp\cc6haz4O.s:21432  .debug_str:000000000000935b .LASF3032
C:\Users\SOLDER~1\AppData\Local\Temp\cc6haz4O.s:30220  .debug_str:000000000002cc07 .LASF3033
C:\Users\SOLDER~1\AppData\Local\Temp\cc6haz4O.s:23714  .debug_str:000000000001268f .LASF3034
C:\Users\SOLDER~1\AppData\Local\Temp\cc6haz4O.s:29584  .debug_str:000000000002a330 .LASF3035
C:\Users\SOLDER~1\AppData\Local\Temp\cc6haz4O.s:21676  .debug_str:000000000000a310 .LASF3036
C:\Users\SOLDER~1\AppData\Local\Temp\cc6haz4O.s:27824  .debug_str:0000000000022fb7 .LASF3037
C:\Users\SOLDER~1\AppData\Local\Temp\cc6haz4O.s:19576  .debug_str:0000000000001aff .LASF3038
C:\Users\SOLDER~1\AppData\Local\Temp\cc6haz4O.s:19628  .debug_str:0000000000001e67 .LASF3039
C:\Users\SOLDER~1\AppData\Local\Temp\cc6haz4O.s:19802  .debug_str:0000000000002a37 .LASF3040
C:\Users\SOLDER~1\AppData\Local\Temp\cc6haz4O.s:24574  .debug_str:0000000000015f0f .LASF3041
C:\Users\SOLDER~1\AppData\Local\Temp\cc6haz4O.s:23270  .debug_str:0000000000010aa5 .LASF3042
C:\Users\SOLDER~1\AppData\Local\Temp\cc6haz4O.s:22808  .debug_str:000000000000ec86 .LASF3043
C:\Users\SOLDER~1\AppData\Local\Temp\cc6haz4O.s:25400  .debug_str:000000000001935e .LASF3044
C:\Users\SOLDER~1\AppData\Local\Temp\cc6haz4O.s:21160  .debug_str:0000000000008140 .LASF3045
C:\Users\SOLDER~1\AppData\Local\Temp\cc6haz4O.s:22468  .debug_str:000000000000d6c0 .LASF3046
C:\Users\SOLDER~1\AppData\Local\Temp\cc6haz4O.s:25142  .debug_str:000000000001833b .LASF3047
C:\Users\SOLDER~1\AppData\Local\Temp\cc6haz4O.s:27800  .debug_str:0000000000022e36 .LASF3048
C:\Users\SOLDER~1\AppData\Local\Temp\cc6haz4O.s:23642  .debug_str:0000000000012201 .LASF3049
C:\Users\SOLDER~1\AppData\Local\Temp\cc6haz4O.s:26962  .debug_str:000000000001f8f3 .LASF3050
C:\Users\SOLDER~1\AppData\Local\Temp\cc6haz4O.s:21280  .debug_str:0000000000008914 .LASF3051
C:\Users\SOLDER~1\AppData\Local\Temp\cc6haz4O.s:22134  .debug_str:000000000000c074 .LASF3052
C:\Users\SOLDER~1\AppData\Local\Temp\cc6haz4O.s:19464  .debug_str:0000000000001401 .LASF3053
C:\Users\SOLDER~1\AppData\Local\Temp\cc6haz4O.s:30590  .debug_str:000000000002e3de .LASF3054
C:\Users\SOLDER~1\AppData\Local\Temp\cc6haz4O.s:29166  .debug_str:000000000002881a .LASF3055
GAS LISTING C:\Users\SOLDER~1\AppData\Local\Temp\cc6haz4O.s 			page 76


C:\Users\SOLDER~1\AppData\Local\Temp\cc6haz4O.s:24458  .debug_str:0000000000015836 .LASF3056
C:\Users\SOLDER~1\AppData\Local\Temp\cc6haz4O.s:27246  .debug_str:0000000000020ac8 .LASF3057
C:\Users\SOLDER~1\AppData\Local\Temp\cc6haz4O.s:23756  .debug_str:000000000001290e .LASF3058
C:\Users\SOLDER~1\AppData\Local\Temp\cc6haz4O.s:24350  .debug_str:0000000000015128 .LASF3059
C:\Users\SOLDER~1\AppData\Local\Temp\cc6haz4O.s:21304  .debug_str:0000000000008a8f .LASF3060
C:\Users\SOLDER~1\AppData\Local\Temp\cc6haz4O.s:23440  .debug_str:0000000000011519 .LASF3061
C:\Users\SOLDER~1\AppData\Local\Temp\cc6haz4O.s:25588  .debug_str:0000000000019f56 .LASF3062
C:\Users\SOLDER~1\AppData\Local\Temp\cc6haz4O.s:19596  .debug_str:0000000000001c53 .LASF3063
C:\Users\SOLDER~1\AppData\Local\Temp\cc6haz4O.s:20120  .debug_str:0000000000003e80 .LASF3064
C:\Users\SOLDER~1\AppData\Local\Temp\cc6haz4O.s:28838  .debug_str:0000000000027327 .LASF3065
C:\Users\SOLDER~1\AppData\Local\Temp\cc6haz4O.s:25084  .debug_str:0000000000017f38 .LASF3066
C:\Users\SOLDER~1\AppData\Local\Temp\cc6haz4O.s:25970  .debug_str:000000000001b80d .LASF3067
C:\Users\SOLDER~1\AppData\Local\Temp\cc6haz4O.s:23294  .debug_str:0000000000010c16 .LASF3068
C:\Users\SOLDER~1\AppData\Local\Temp\cc6haz4O.s:25190  .debug_str:0000000000018621 .LASF3069
C:\Users\SOLDER~1\AppData\Local\Temp\cc6haz4O.s:29866  .debug_str:000000000002b541 .LASF3070
C:\Users\SOLDER~1\AppData\Local\Temp\cc6haz4O.s:25984  .debug_str:000000000001b8df .LASF3071
C:\Users\SOLDER~1\AppData\Local\Temp\cc6haz4O.s:21534  .debug_str:00000000000099c9 .LASF3072
C:\Users\SOLDER~1\AppData\Local\Temp\cc6haz4O.s:29686  .debug_str:000000000002a9bb .LASF3073
C:\Users\SOLDER~1\AppData\Local\Temp\cc6haz4O.s:29182  .debug_str:000000000002894b .LASF3074
C:\Users\SOLDER~1\AppData\Local\Temp\cc6haz4O.s:30210  .debug_str:000000000002cb6c .LASF3075
C:\Users\SOLDER~1\AppData\Local\Temp\cc6haz4O.s:26654  .debug_str:000000000001e495 .LASF3076
C:\Users\SOLDER~1\AppData\Local\Temp\cc6haz4O.s:30094  .debug_str:000000000002c43c .LASF3077
C:\Users\SOLDER~1\AppData\Local\Temp\cc6haz4O.s:21140  .debug_str:0000000000007feb .LASF3078
C:\Users\SOLDER~1\AppData\Local\Temp\cc6haz4O.s:26470  .debug_str:000000000001d8c4 .LASF3079
C:\Users\SOLDER~1\AppData\Local\Temp\cc6haz4O.s:29146  .debug_str:00000000000286d8 .LASF3080
C:\Users\SOLDER~1\AppData\Local\Temp\cc6haz4O.s:22044  .debug_str:000000000000baab .LASF3081
C:\Users\SOLDER~1\AppData\Local\Temp\cc6haz4O.s:29426  .debug_str:00000000000298fd .LASF3082
C:\Users\SOLDER~1\AppData\Local\Temp\cc6haz4O.s:20124  .debug_str:0000000000003ec8 .LASF3083
C:\Users\SOLDER~1\AppData\Local\Temp\cc6haz4O.s:20698  .debug_str:0000000000006317 .LASF3084
C:\Users\SOLDER~1\AppData\Local\Temp\cc6haz4O.s:29394  .debug_str:00000000000296f6 .LASF3085
C:\Users\SOLDER~1\AppData\Local\Temp\cc6haz4O.s:24414  .debug_str:0000000000015550 .LASF3086
C:\Users\SOLDER~1\AppData\Local\Temp\cc6haz4O.s:27906  .debug_str:000000000002352e .LASF3087
C:\Users\SOLDER~1\AppData\Local\Temp\cc6haz4O.s:24380  .debug_str:0000000000015300 .LASF3088
C:\Users\SOLDER~1\AppData\Local\Temp\cc6haz4O.s:26052  .debug_str:000000000001bd2e .LASF3089
C:\Users\SOLDER~1\AppData\Local\Temp\cc6haz4O.s:25134  .debug_str:00000000000182ac .LASF3090
C:\Users\SOLDER~1\AppData\Local\Temp\cc6haz4O.s:29350  .debug_str:00000000000293fd .LASF3091
C:\Users\SOLDER~1\AppData\Local\Temp\cc6haz4O.s:20544  .debug_str:00000000000058cc .LASF3092
C:\Users\SOLDER~1\AppData\Local\Temp\cc6haz4O.s:22280  .debug_str:000000000000ca4f .LASF3093
C:\Users\SOLDER~1\AppData\Local\Temp\cc6haz4O.s:20740  .debug_str:00000000000065cf .LASF3094
C:\Users\SOLDER~1\AppData\Local\Temp\cc6haz4O.s:24634  .debug_str:00000000000162f5 .LASF3095
C:\Users\SOLDER~1\AppData\Local\Temp\cc6haz4O.s:27006  .debug_str:000000000001fbad .LASF3096
C:\Users\SOLDER~1\AppData\Local\Temp\cc6haz4O.s:30108  .debug_str:000000000002c50f .LASF3097
C:\Users\SOLDER~1\AppData\Local\Temp\cc6haz4O.s:22874  .debug_str:000000000000f0e4 .LASF3098
C:\Users\SOLDER~1\AppData\Local\Temp\cc6haz4O.s:24670  .debug_str:0000000000016524 .LASF3099
C:\Users\SOLDER~1\AppData\Local\Temp\cc6haz4O.s:29952  .debug_str:000000000002ba99 .LASF3100
C:\Users\SOLDER~1\AppData\Local\Temp\cc6haz4O.s:23518  .debug_str:0000000000011a44 .LASF3101
C:\Users\SOLDER~1\AppData\Local\Temp\cc6haz4O.s:22832  .debug_str:000000000000ee32 .LASF3102
C:\Users\SOLDER~1\AppData\Local\Temp\cc6haz4O.s:24436  .debug_str:00000000000156cf .LASF3103
C:\Users\SOLDER~1\AppData\Local\Temp\cc6haz4O.s:21874  .debug_str:000000000000b02c .LASF3104
C:\Users\SOLDER~1\AppData\Local\Temp\cc6haz4O.s:22718  .debug_str:000000000000e6e5 .LASF3105
C:\Users\SOLDER~1\AppData\Local\Temp\cc6haz4O.s:29658  .debug_str:000000000002a816 .LASF3106
C:\Users\SOLDER~1\AppData\Local\Temp\cc6haz4O.s:21044  .debug_str:000000000000797f .LASF3107
C:\Users\SOLDER~1\AppData\Local\Temp\cc6haz4O.s:27476  .debug_str:0000000000021978 .LASF3108
C:\Users\SOLDER~1\AppData\Local\Temp\cc6haz4O.s:19404  .debug_str:0000000000001033 .LASF3109
C:\Users\SOLDER~1\AppData\Local\Temp\cc6haz4O.s:24494  .debug_str:0000000000015a34 .LASF3110
C:\Users\SOLDER~1\AppData\Local\Temp\cc6haz4O.s:20144  .debug_str:0000000000004016 .LASF3111
C:\Users\SOLDER~1\AppData\Local\Temp\cc6haz4O.s:28328  .debug_str:000000000002509a .LASF3112
GAS LISTING C:\Users\SOLDER~1\AppData\Local\Temp\cc6haz4O.s 			page 77


C:\Users\SOLDER~1\AppData\Local\Temp\cc6haz4O.s:28002  .debug_str:0000000000023b2c .LASF3113
C:\Users\SOLDER~1\AppData\Local\Temp\cc6haz4O.s:26366  .debug_str:000000000001d1bf .LASF3114
C:\Users\SOLDER~1\AppData\Local\Temp\cc6haz4O.s:22240  .debug_str:000000000000c795 .LASF3115
C:\Users\SOLDER~1\AppData\Local\Temp\cc6haz4O.s:27912  .debug_str:0000000000023598 .LASF3116
C:\Users\SOLDER~1\AppData\Local\Temp\cc6haz4O.s:23120  .debug_str:000000000001011d .LASF3117
C:\Users\SOLDER~1\AppData\Local\Temp\cc6haz4O.s:26588  .debug_str:000000000001e075 .LASF3118
C:\Users\SOLDER~1\AppData\Local\Temp\cc6haz4O.s:25792  .debug_str:000000000001ac89 .LASF3119
C:\Users\SOLDER~1\AppData\Local\Temp\cc6haz4O.s:26530  .debug_str:000000000001dc53 .LASF3120
C:\Users\SOLDER~1\AppData\Local\Temp\cc6haz4O.s:24056  .debug_str:0000000000013d80 .LASF3121
C:\Users\SOLDER~1\AppData\Local\Temp\cc6haz4O.s:29598  .debug_str:000000000002a431 .LASF3122
C:\Users\SOLDER~1\AppData\Local\Temp\cc6haz4O.s:20826  .debug_str:0000000000006ba3 .LASF3123
C:\Users\SOLDER~1\AppData\Local\Temp\cc6haz4O.s:21630  .debug_str:000000000000a007 .LASF3124
C:\Users\SOLDER~1\AppData\Local\Temp\cc6haz4O.s:20724  .debug_str:00000000000064d3 .LASF3125
C:\Users\SOLDER~1\AppData\Local\Temp\cc6haz4O.s:22260  .debug_str:000000000000c8e6 .LASF3126
C:\Users\SOLDER~1\AppData\Local\Temp\cc6haz4O.s:19912  .debug_str:0000000000003120 .LASF3127
C:\Users\SOLDER~1\AppData\Local\Temp\cc6haz4O.s:29124  .debug_str:000000000002857b .LASF3128
C:\Users\SOLDER~1\AppData\Local\Temp\cc6haz4O.s:28950  .debug_str:0000000000027a50 .LASF3129
C:\Users\SOLDER~1\AppData\Local\Temp\cc6haz4O.s:26684  .debug_str:000000000001e659 .LASF3130
C:\Users\SOLDER~1\AppData\Local\Temp\cc6haz4O.s:29422  .debug_str:00000000000298ba .LASF3131
C:\Users\SOLDER~1\AppData\Local\Temp\cc6haz4O.s:24148  .debug_str:00000000000143c2 .LASF3132
C:\Users\SOLDER~1\AppData\Local\Temp\cc6haz4O.s:21478  .debug_str:000000000000965c .LASF3133
C:\Users\SOLDER~1\AppData\Local\Temp\cc6haz4O.s:19660  .debug_str:0000000000002074 .LASF3134
C:\Users\SOLDER~1\AppData\Local\Temp\cc6haz4O.s:22892  .debug_str:000000000000f1fa .LASF3135
C:\Users\SOLDER~1\AppData\Local\Temp\cc6haz4O.s:24960  .debug_str:000000000001774d .LASF3136
C:\Users\SOLDER~1\AppData\Local\Temp\cc6haz4O.s:21242  .debug_str:00000000000086a6 .LASF3137
C:\Users\SOLDER~1\AppData\Local\Temp\cc6haz4O.s:27084  .debug_str:0000000000020061 .LASF3138
C:\Users\SOLDER~1\AppData\Local\Temp\cc6haz4O.s:27964  .debug_str:00000000000238f6 .LASF3139
C:\Users\SOLDER~1\AppData\Local\Temp\cc6haz4O.s:19288  .debug_str:0000000000000843 .LASF3140
C:\Users\SOLDER~1\AppData\Local\Temp\cc6haz4O.s:19474  .debug_str:00000000000014ab .LASF3141
C:\Users\SOLDER~1\AppData\Local\Temp\cc6haz4O.s:20946  .debug_str:0000000000007374 .LASF3142
C:\Users\SOLDER~1\AppData\Local\Temp\cc6haz4O.s:20518  .debug_str:0000000000005707 .LASF3143
C:\Users\SOLDER~1\AppData\Local\Temp\cc6haz4O.s:25064  .debug_str:0000000000017dd7 .LASF3144
C:\Users\SOLDER~1\AppData\Local\Temp\cc6haz4O.s:29784  .debug_str:000000000002afdf .LASF3145
C:\Users\SOLDER~1\AppData\Local\Temp\cc6haz4O.s:21524  .debug_str:0000000000009930 .LASF3146
C:\Users\SOLDER~1\AppData\Local\Temp\cc6haz4O.s:27402  .debug_str:00000000000214c9 .LASF3147
C:\Users\SOLDER~1\AppData\Local\Temp\cc6haz4O.s:20596  .debug_str:0000000000005c79 .LASF3148
C:\Users\SOLDER~1\AppData\Local\Temp\cc6haz4O.s:25096  .debug_str:0000000000018015 .LASF3149
C:\Users\SOLDER~1\AppData\Local\Temp\cc6haz4O.s:29234  .debug_str:0000000000028ca8 .LASF3150
C:\Users\SOLDER~1\AppData\Local\Temp\cc6haz4O.s:27380  .debug_str:0000000000021369 .LASF3151
C:\Users\SOLDER~1\AppData\Local\Temp\cc6haz4O.s:28560  .debug_str:0000000000025ffb .LASF3152
C:\Users\SOLDER~1\AppData\Local\Temp\cc6haz4O.s:25510  .debug_str:0000000000019a81 .LASF3153
C:\Users\SOLDER~1\AppData\Local\Temp\cc6haz4O.s:19748  .debug_str:000000000000267a .LASF3154
C:\Users\SOLDER~1\AppData\Local\Temp\cc6haz4O.s:23566  .debug_str:0000000000011d42 .LASF3155
C:\Users\SOLDER~1\AppData\Local\Temp\cc6haz4O.s:29288  .debug_str:0000000000029016 .LASF3156
C:\Users\SOLDER~1\AppData\Local\Temp\cc6haz4O.s:21642  .debug_str:000000000000a0d1 .LASF3157
C:\Users\SOLDER~1\AppData\Local\Temp\cc6haz4O.s:27542  .debug_str:0000000000021d97 .LASF3158
C:\Users\SOLDER~1\AppData\Local\Temp\cc6haz4O.s:19836  .debug_str:0000000000002c4e .LASF3159
C:\Users\SOLDER~1\AppData\Local\Temp\cc6haz4O.s:27844  .debug_str:00000000000230f8 .LASF3160
C:\Users\SOLDER~1\AppData\Local\Temp\cc6haz4O.s:29548  .debug_str:000000000002a0aa .LASF3161
C:\Users\SOLDER~1\AppData\Local\Temp\cc6haz4O.s:30226  .debug_str:000000000002cc64 .LASF3162
C:\Users\SOLDER~1\AppData\Local\Temp\cc6haz4O.s:29856  .debug_str:000000000002b4ad .LASF3163
C:\Users\SOLDER~1\AppData\Local\Temp\cc6haz4O.s:27224  .debug_str:000000000002095c .LASF3164
C:\Users\SOLDER~1\AppData\Local\Temp\cc6haz4O.s:22726  .debug_str:000000000000e759 .LASF3165
C:\Users\SOLDER~1\AppData\Local\Temp\cc6haz4O.s:27810  .debug_str:0000000000022ed5 .LASF3166
C:\Users\SOLDER~1\AppData\Local\Temp\cc6haz4O.s:23572  .debug_str:0000000000011db5 .LASF3167
C:\Users\SOLDER~1\AppData\Local\Temp\cc6haz4O.s:30374  .debug_str:000000000002d637 .LASF3168
C:\Users\SOLDER~1\AppData\Local\Temp\cc6haz4O.s:21912  .debug_str:000000000000b278 .LASF3169
GAS LISTING C:\Users\SOLDER~1\AppData\Local\Temp\cc6haz4O.s 			page 78


C:\Users\SOLDER~1\AppData\Local\Temp\cc6haz4O.s:28540  .debug_str:0000000000025e91 .LASF3170
C:\Users\SOLDER~1\AppData\Local\Temp\cc6haz4O.s:20170  .debug_str:0000000000004195 .LASF3171
C:\Users\SOLDER~1\AppData\Local\Temp\cc6haz4O.s:28538  .debug_str:0000000000025e70 .LASF3172
C:\Users\SOLDER~1\AppData\Local\Temp\cc6haz4O.s:20248  .debug_str:0000000000004675 .LASF3173
C:\Users\SOLDER~1\AppData\Local\Temp\cc6haz4O.s:24580  .debug_str:0000000000015f75 .LASF3174
C:\Users\SOLDER~1\AppData\Local\Temp\cc6haz4O.s:25586  .debug_str:0000000000019f43 .LASF3175
C:\Users\SOLDER~1\AppData\Local\Temp\cc6haz4O.s:26388  .debug_str:000000000001d37b .LASF3176
C:\Users\SOLDER~1\AppData\Local\Temp\cc6haz4O.s:23636  .debug_str:00000000000121a9 .LASF3177
C:\Users\SOLDER~1\AppData\Local\Temp\cc6haz4O.s:25890  .debug_str:000000000001b2db .LASF3178
C:\Users\SOLDER~1\AppData\Local\Temp\cc6haz4O.s:21710  .debug_str:000000000000a544 .LASF3179
C:\Users\SOLDER~1\AppData\Local\Temp\cc6haz4O.s:28332  .debug_str:00000000000250e3 .LASF3180
C:\Users\SOLDER~1\AppData\Local\Temp\cc6haz4O.s:22074  .debug_str:000000000000bc9c .LASF3181
C:\Users\SOLDER~1\AppData\Local\Temp\cc6haz4O.s:26774  .debug_str:000000000001ec85 .LASF3182
C:\Users\SOLDER~1\AppData\Local\Temp\cc6haz4O.s:29616  .debug_str:000000000002a558 .LASF3183
C:\Users\SOLDER~1\AppData\Local\Temp\cc6haz4O.s:29216  .debug_str:0000000000028b8f .LASF3184
C:\Users\SOLDER~1\AppData\Local\Temp\cc6haz4O.s:27678  .debug_str:00000000000225f3 .LASF3185
C:\Users\SOLDER~1\AppData\Local\Temp\cc6haz4O.s:27352  .debug_str:0000000000021153 .LASF3186
C:\Users\SOLDER~1\AppData\Local\Temp\cc6haz4O.s:25818  .debug_str:000000000001aea9 .LASF3187
C:\Users\SOLDER~1\AppData\Local\Temp\cc6haz4O.s:22828  .debug_str:000000000000edeb .LASF3188
C:\Users\SOLDER~1\AppData\Local\Temp\cc6haz4O.s:24248  .debug_str:0000000000014a71 .LASF3189
C:\Users\SOLDER~1\AppData\Local\Temp\cc6haz4O.s:19430  .debug_str:00000000000011db .LASF3190
C:\Users\SOLDER~1\AppData\Local\Temp\cc6haz4O.s:21720  .debug_str:000000000000a5ea .LASF3191
C:\Users\SOLDER~1\AppData\Local\Temp\cc6haz4O.s:29274  .debug_str:0000000000028f25 .LASF3192
C:\Users\SOLDER~1\AppData\Local\Temp\cc6haz4O.s:20056  .debug_str:0000000000003a73 .LASF3193
C:\Users\SOLDER~1\AppData\Local\Temp\cc6haz4O.s:24584  .debug_str:0000000000015fb9 .LASF3194
C:\Users\SOLDER~1\AppData\Local\Temp\cc6haz4O.s:29688  .debug_str:000000000002a9d6 .LASF3195
C:\Users\SOLDER~1\AppData\Local\Temp\cc6haz4O.s:21680  .debug_str:000000000000a358 .LASF3196
C:\Users\SOLDER~1\AppData\Local\Temp\cc6haz4O.s:27992  .debug_str:0000000000023ab8 .LASF3197
C:\Users\SOLDER~1\AppData\Local\Temp\cc6haz4O.s:26232  .debug_str:000000000001c8f2 .LASF3198
C:\Users\SOLDER~1\AppData\Local\Temp\cc6haz4O.s:19830  .debug_str:0000000000002c05 .LASF3199
C:\Users\SOLDER~1\AppData\Local\Temp\cc6haz4O.s:25314  .debug_str:0000000000018e02 .LASF3200
C:\Users\SOLDER~1\AppData\Local\Temp\cc6haz4O.s:24666  .debug_str:00000000000164f0 .LASF3201
C:\Users\SOLDER~1\AppData\Local\Temp\cc6haz4O.s:21414  .debug_str:00000000000091fe .LASF3202
C:\Users\SOLDER~1\AppData\Local\Temp\cc6haz4O.s:28050  .debug_str:0000000000023e55 .LASF3203
C:\Users\SOLDER~1\AppData\Local\Temp\cc6haz4O.s:22758  .debug_str:000000000000e995 .LASF3204
C:\Users\SOLDER~1\AppData\Local\Temp\cc6haz4O.s:21248  .debug_str:00000000000086fc .LASF3205
C:\Users\SOLDER~1\AppData\Local\Temp\cc6haz4O.s:20758  .debug_str:0000000000006709 .LASF3206
C:\Users\SOLDER~1\AppData\Local\Temp\cc6haz4O.s:25130  .debug_str:000000000001826f .LASF3207
C:\Users\SOLDER~1\AppData\Local\Temp\cc6haz4O.s:21602  .debug_str:0000000000009e08 .LASF3208
C:\Users\SOLDER~1\AppData\Local\Temp\cc6haz4O.s:23674  .debug_str:00000000000123ef .LASF3209
C:\Users\SOLDER~1\AppData\Local\Temp\cc6haz4O.s:23670  .debug_str:00000000000123b6 .LASF3210
C:\Users\SOLDER~1\AppData\Local\Temp\cc6haz4O.s:24748  .debug_str:00000000000169dd .LASF3211
C:\Users\SOLDER~1\AppData\Local\Temp\cc6haz4O.s:23742  .debug_str:0000000000012851 .LASF3212
C:\Users\SOLDER~1\AppData\Local\Temp\cc6haz4O.s:28716  .debug_str:0000000000026ae2 .LASF3213
C:\Users\SOLDER~1\AppData\Local\Temp\cc6haz4O.s:26422  .debug_str:000000000001d5d4 .LASF3214
C:\Users\SOLDER~1\AppData\Local\Temp\cc6haz4O.s:20628  .debug_str:0000000000005e85 .LASF3215
C:\Users\SOLDER~1\AppData\Local\Temp\cc6haz4O.s:28154  .debug_str:0000000000024522 .LASF3216
C:\Users\SOLDER~1\AppData\Local\Temp\cc6haz4O.s:29418  .debug_str:000000000002987d .LASF3217
C:\Users\SOLDER~1\AppData\Local\Temp\cc6haz4O.s:22910  .debug_str:000000000000f331 .LASF3218
C:\Users\SOLDER~1\AppData\Local\Temp\cc6haz4O.s:26566  .debug_str:000000000001dee7 .LASF3219
C:\Users\SOLDER~1\AppData\Local\Temp\cc6haz4O.s:24718  .debug_str:00000000000167fd .LASF3220
C:\Users\SOLDER~1\AppData\Local\Temp\cc6haz4O.s:26572  .debug_str:000000000001df56 .LASF3221
C:\Users\SOLDER~1\AppData\Local\Temp\cc6haz4O.s:21834  .debug_str:000000000000ad8e .LASF3222
C:\Users\SOLDER~1\AppData\Local\Temp\cc6haz4O.s:21296  .debug_str:0000000000008a0e .LASF3223
C:\Users\SOLDER~1\AppData\Local\Temp\cc6haz4O.s:30238  .debug_str:000000000002cd22 .LASF3224
C:\Users\SOLDER~1\AppData\Local\Temp\cc6haz4O.s:20980  .debug_str:00000000000075bb .LASF3225
C:\Users\SOLDER~1\AppData\Local\Temp\cc6haz4O.s:29310  .debug_str:0000000000029151 .LASF3226
GAS LISTING C:\Users\SOLDER~1\AppData\Local\Temp\cc6haz4O.s 			page 79


C:\Users\SOLDER~1\AppData\Local\Temp\cc6haz4O.s:27316  .debug_str:0000000000020f21 .LASF3227
C:\Users\SOLDER~1\AppData\Local\Temp\cc6haz4O.s:24764  .debug_str:0000000000016af4 .LASF3228
C:\Users\SOLDER~1\AppData\Local\Temp\cc6haz4O.s:22036  .debug_str:000000000000ba2c .LASF3229
C:\Users\SOLDER~1\AppData\Local\Temp\cc6haz4O.s:28858  .debug_str:000000000002746b .LASF3230
C:\Users\SOLDER~1\AppData\Local\Temp\cc6haz4O.s:28430  .debug_str:0000000000025711 .LASF3231
C:\Users\SOLDER~1\AppData\Local\Temp\cc6haz4O.s:29578  .debug_str:000000000002a2c8 .LASF3232
C:\Users\SOLDER~1\AppData\Local\Temp\cc6haz4O.s:19624  .debug_str:0000000000001e2d .LASF3233
C:\Users\SOLDER~1\AppData\Local\Temp\cc6haz4O.s:23736  .debug_str:00000000000127f1 .LASF3234
C:\Users\SOLDER~1\AppData\Local\Temp\cc6haz4O.s:30494  .debug_str:000000000002ddb4 .LASF3235
C:\Users\SOLDER~1\AppData\Local\Temp\cc6haz4O.s:28266  .debug_str:0000000000024cac .LASF3236
C:\Users\SOLDER~1\AppData\Local\Temp\cc6haz4O.s:22852  .debug_str:000000000000ef77 .LASF3237
C:\Users\SOLDER~1\AppData\Local\Temp\cc6haz4O.s:26538  .debug_str:000000000001dcec .LASF3238
C:\Users\SOLDER~1\AppData\Local\Temp\cc6haz4O.s:30142  .debug_str:000000000002c71a .LASF3239
C:\Users\SOLDER~1\AppData\Local\Temp\cc6haz4O.s:22178  .debug_str:000000000000c352 .LASF3240
C:\Users\SOLDER~1\AppData\Local\Temp\cc6haz4O.s:28314  .debug_str:0000000000024fc7 .LASF3241
C:\Users\SOLDER~1\AppData\Local\Temp\cc6haz4O.s:30038  .debug_str:000000000002c02c .LASF3242
C:\Users\SOLDER~1\AppData\Local\Temp\cc6haz4O.s:23930  .debug_str:000000000001348f .LASF3243
C:\Users\SOLDER~1\AppData\Local\Temp\cc6haz4O.s:23100  .debug_str:000000000000ffd3 .LASF3244
C:\Users\SOLDER~1\AppData\Local\Temp\cc6haz4O.s:29038  .debug_str:0000000000027fea .LASF3245
C:\Users\SOLDER~1\AppData\Local\Temp\cc6haz4O.s:26706  .debug_str:000000000001e7eb .LASF3246
C:\Users\SOLDER~1\AppData\Local\Temp\cc6haz4O.s:29202  .debug_str:0000000000028ab8 .LASF3247
C:\Users\SOLDER~1\AppData\Local\Temp\cc6haz4O.s:22950  .debug_str:000000000000f5ac .LASF3248
C:\Users\SOLDER~1\AppData\Local\Temp\cc6haz4O.s:29938  .debug_str:000000000002b9b8 .LASF3249
C:\Users\SOLDER~1\AppData\Local\Temp\cc6haz4O.s:24362  .debug_str:00000000000151c7 .LASF3250
C:\Users\SOLDER~1\AppData\Local\Temp\cc6haz4O.s:30586  .debug_str:000000000002e39c .LASF3251
C:\Users\SOLDER~1\AppData\Local\Temp\cc6haz4O.s:29652  .debug_str:000000000002a79d .LASF3252
C:\Users\SOLDER~1\AppData\Local\Temp\cc6haz4O.s:28616  .debug_str:00000000000263ff .LASF3253
C:\Users\SOLDER~1\AppData\Local\Temp\cc6haz4O.s:29376  .debug_str:000000000002959f .LASF3254
C:\Users\SOLDER~1\AppData\Local\Temp\cc6haz4O.s:26214  .debug_str:000000000001c7c5 .LASF3255
C:\Users\SOLDER~1\AppData\Local\Temp\cc6haz4O.s:23456  .debug_str:0000000000011643 .LASF3256
C:\Users\SOLDER~1\AppData\Local\Temp\cc6haz4O.s:21104  .debug_str:0000000000007d6f .LASF3257
C:\Users\SOLDER~1\AppData\Local\Temp\cc6haz4O.s:22088  .debug_str:000000000000bdaf .LASF3258
C:\Users\SOLDER~1\AppData\Local\Temp\cc6haz4O.s:26046  .debug_str:000000000001bcc9 .LASF3259
C:\Users\SOLDER~1\AppData\Local\Temp\cc6haz4O.s:23260  .debug_str:00000000000109d5 .LASF3260
C:\Users\SOLDER~1\AppData\Local\Temp\cc6haz4O.s:25940  .debug_str:000000000001b609 .LASF3261
C:\Users\SOLDER~1\AppData\Local\Temp\cc6haz4O.s:27578  .debug_str:0000000000021ff5 .LASF3262
C:\Users\SOLDER~1\AppData\Local\Temp\cc6haz4O.s:28140  .debug_str:0000000000024425 .LASF3263
C:\Users\SOLDER~1\AppData\Local\Temp\cc6haz4O.s:21252  .debug_str:000000000000872f .LASF3264
C:\Users\SOLDER~1\AppData\Local\Temp\cc6haz4O.s:29098  .debug_str:00000000000283df .LASF3265
C:\Users\SOLDER~1\AppData\Local\Temp\cc6haz4O.s:25500  .debug_str:00000000000199d1 .LASF3266
C:\Users\SOLDER~1\AppData\Local\Temp\cc6haz4O.s:22244  .debug_str:000000000000c7c4 .LASF3267
C:\Users\SOLDER~1\AppData\Local\Temp\cc6haz4O.s:28684  .debug_str:0000000000026899 .LASF3268
C:\Users\SOLDER~1\AppData\Local\Temp\cc6haz4O.s:21170  .debug_str:00000000000081f8 .LASF3269
C:\Users\SOLDER~1\AppData\Local\Temp\cc6haz4O.s:23014  .debug_str:000000000000f9fe .LASF3270
C:\Users\SOLDER~1\AppData\Local\Temp\cc6haz4O.s:25242  .debug_str:000000000001893d .LASF3271
C:\Users\SOLDER~1\AppData\Local\Temp\cc6haz4O.s:24254  .debug_str:0000000000014ad4 .LASF3272
C:\Users\SOLDER~1\AppData\Local\Temp\cc6haz4O.s:26542  .debug_str:000000000001dd30 .LASF3273
C:\Users\SOLDER~1\AppData\Local\Temp\cc6haz4O.s:19720  .debug_str:00000000000024ac .LASF3274
C:\Users\SOLDER~1\AppData\Local\Temp\cc6haz4O.s:19892  .debug_str:0000000000002fe4 .LASF3275
C:\Users\SOLDER~1\AppData\Local\Temp\cc6haz4O.s:24430  .debug_str:0000000000015655 .LASF3276
C:\Users\SOLDER~1\AppData\Local\Temp\cc6haz4O.s:26860  .debug_str:000000000001f21a .LASF3277
C:\Users\SOLDER~1\AppData\Local\Temp\cc6haz4O.s:27758  .debug_str:0000000000022b4c .LASF3278
C:\Users\SOLDER~1\AppData\Local\Temp\cc6haz4O.s:30692  .debug_str:000000000002ea98 .LASF3279
C:\Users\SOLDER~1\AppData\Local\Temp\cc6haz4O.s:29558  .debug_str:000000000002a15a .LASF3280
C:\Users\SOLDER~1\AppData\Local\Temp\cc6haz4O.s:23216  .debug_str:0000000000010711 .LASF3281
C:\Users\SOLDER~1\AppData\Local\Temp\cc6haz4O.s:21338  .debug_str:0000000000008ce9 .LASF3282
C:\Users\SOLDER~1\AppData\Local\Temp\cc6haz4O.s:25082  .debug_str:0000000000017f0c .LASF3283
GAS LISTING C:\Users\SOLDER~1\AppData\Local\Temp\cc6haz4O.s 			page 80


C:\Users\SOLDER~1\AppData\Local\Temp\cc6haz4O.s:30350  .debug_str:000000000002d4a0 .LASF3284
C:\Users\SOLDER~1\AppData\Local\Temp\cc6haz4O.s:28236  .debug_str:0000000000024a97 .LASF3285
C:\Users\SOLDER~1\AppData\Local\Temp\cc6haz4O.s:22756  .debug_str:000000000000e962 .LASF3286
C:\Users\SOLDER~1\AppData\Local\Temp\cc6haz4O.s:24298  .debug_str:0000000000014de5 .LASF3287
C:\Users\SOLDER~1\AppData\Local\Temp\cc6haz4O.s:22200  .debug_str:000000000000c4e2 .LASF3288
C:\Users\SOLDER~1\AppData\Local\Temp\cc6haz4O.s:23474  .debug_str:000000000001178f .LASF3289
C:\Users\SOLDER~1\AppData\Local\Temp\cc6haz4O.s:24096  .debug_str:0000000000014021 .LASF3290
C:\Users\SOLDER~1\AppData\Local\Temp\cc6haz4O.s:23470  .debug_str:0000000000011744 .LASF3291
C:\Users\SOLDER~1\AppData\Local\Temp\cc6haz4O.s:26734  .debug_str:000000000001e9c5 .LASF3292
C:\Users\SOLDER~1\AppData\Local\Temp\cc6haz4O.s:23856  .debug_str:0000000000012faf .LASF3293
C:\Users\SOLDER~1\AppData\Local\Temp\cc6haz4O.s:29018  .debug_str:0000000000027e77 .LASF3294
C:\Users\SOLDER~1\AppData\Local\Temp\cc6haz4O.s:26412  .debug_str:000000000001d51b .LASF3295
C:\Users\SOLDER~1\AppData\Local\Temp\cc6haz4O.s:27548  .debug_str:0000000000021e0c .LASF3296
C:\Users\SOLDER~1\AppData\Local\Temp\cc6haz4O.s:25066  .debug_str:0000000000017df7 .LASF3297
C:\Users\SOLDER~1\AppData\Local\Temp\cc6haz4O.s:20548  .debug_str:0000000000005918 .LASF3298
C:\Users\SOLDER~1\AppData\Local\Temp\cc6haz4O.s:23032  .debug_str:000000000000fb37 .LASF3299
C:\Users\SOLDER~1\AppData\Local\Temp\cc6haz4O.s:24624  .debug_str:0000000000016244 .LASF3300
C:\Users\SOLDER~1\AppData\Local\Temp\cc6haz4O.s:26516  .debug_str:000000000001db79 .LASF3301
C:\Users\SOLDER~1\AppData\Local\Temp\cc6haz4O.s:26082  .debug_str:000000000001bf0e .LASF3302
C:\Users\SOLDER~1\AppData\Local\Temp\cc6haz4O.s:22378  .debug_str:000000000000d0ba .LASF3303
C:\Users\SOLDER~1\AppData\Local\Temp\cc6haz4O.s:19942  .debug_str:0000000000003309 .LASF3304
C:\Users\SOLDER~1\AppData\Local\Temp\cc6haz4O.s:26072  .debug_str:000000000001be57 .LASF3305
C:\Users\SOLDER~1\AppData\Local\Temp\cc6haz4O.s:21364  .debug_str:0000000000008e93 .LASF3306
C:\Users\SOLDER~1\AppData\Local\Temp\cc6haz4O.s:22826  .debug_str:000000000000edb8 .LASF3307
C:\Users\SOLDER~1\AppData\Local\Temp\cc6haz4O.s:20256  .debug_str:00000000000046d9 .LASF3308
C:\Users\SOLDER~1\AppData\Local\Temp\cc6haz4O.s:23170  .debug_str:0000000000010415 .LASF3309
C:\Users\SOLDER~1\AppData\Local\Temp\cc6haz4O.s:20438  .debug_str:000000000000521c .LASF3310
C:\Users\SOLDER~1\AppData\Local\Temp\cc6haz4O.s:19220  .debug_str:0000000000000362 .LASF3311
C:\Users\SOLDER~1\AppData\Local\Temp\cc6haz4O.s:21646  .debug_str:000000000000a108 .LASF3312
C:\Users\SOLDER~1\AppData\Local\Temp\cc6haz4O.s:28312  .debug_str:0000000000024fa1 .LASF3313
C:\Users\SOLDER~1\AppData\Local\Temp\cc6haz4O.s:30658  .debug_str:000000000002e836 .LASF3314
C:\Users\SOLDER~1\AppData\Local\Temp\cc6haz4O.s:19410  .debug_str:0000000000001086 .LASF3315
C:\Users\SOLDER~1\AppData\Local\Temp\cc6haz4O.s:20100  .debug_str:0000000000003d4f .LASF3316
C:\Users\SOLDER~1\AppData\Local\Temp\cc6haz4O.s:24682  .debug_str:00000000000165fc .LASF3317
C:\Users\SOLDER~1\AppData\Local\Temp\cc6haz4O.s:25702  .debug_str:000000000001a686 .LASF3318
C:\Users\SOLDER~1\AppData\Local\Temp\cc6haz4O.s:25252  .debug_str:00000000000189e6 .LASF3319
C:\Users\SOLDER~1\AppData\Local\Temp\cc6haz4O.s:30344  .debug_str:000000000002d43b .LASF3320
C:\Users\SOLDER~1\AppData\Local\Temp\cc6haz4O.s:26858  .debug_str:000000000001f1f1 .LASF3321
C:\Users\SOLDER~1\AppData\Local\Temp\cc6haz4O.s:23376  .debug_str:0000000000011119 .LASF3322
C:\Users\SOLDER~1\AppData\Local\Temp\cc6haz4O.s:19868  .debug_str:0000000000002e48 .LASF3323
C:\Users\SOLDER~1\AppData\Local\Temp\cc6haz4O.s:27976  .debug_str:000000000002399f .LASF3324
C:\Users\SOLDER~1\AppData\Local\Temp\cc6haz4O.s:24068  .debug_str:0000000000013e2e .LASF3325
C:\Users\SOLDER~1\AppData\Local\Temp\cc6haz4O.s:23504  .debug_str:0000000000011946 .LASF3326
C:\Users\SOLDER~1\AppData\Local\Temp\cc6haz4O.s:22952  .debug_str:000000000000f5db .LASF3327
C:\Users\SOLDER~1\AppData\Local\Temp\cc6haz4O.s:25326  .debug_str:0000000000018ed0 .LASF3328
C:\Users\SOLDER~1\AppData\Local\Temp\cc6haz4O.s:28040  .debug_str:0000000000023da5 .LASF3329
C:\Users\SOLDER~1\AppData\Local\Temp\cc6haz4O.s:19254  .debug_str:00000000000005a0 .LASF3330
C:\Users\SOLDER~1\AppData\Local\Temp\cc6haz4O.s:20782  .debug_str:000000000000689c .LASF3331
C:\Users\SOLDER~1\AppData\Local\Temp\cc6haz4O.s:19774  .debug_str:0000000000002831 .LASF3332
C:\Users\SOLDER~1\AppData\Local\Temp\cc6haz4O.s:26956  .debug_str:000000000001f883 .LASF3333
C:\Users\SOLDER~1\AppData\Local\Temp\cc6haz4O.s:29324  .debug_str:0000000000029233 .LASF3334
C:\Users\SOLDER~1\AppData\Local\Temp\cc6haz4O.s:22078  .debug_str:000000000000bcf0 .LASF3335
C:\Users\SOLDER~1\AppData\Local\Temp\cc6haz4O.s:27242  .debug_str:0000000000020a7d .LASF3336
C:\Users\SOLDER~1\AppData\Local\Temp\cc6haz4O.s:20400  .debug_str:0000000000004ff5 .LASF3337
C:\Users\SOLDER~1\AppData\Local\Temp\cc6haz4O.s:21334  .debug_str:0000000000008c9c .LASF3338
C:\Users\SOLDER~1\AppData\Local\Temp\cc6haz4O.s:22946  .debug_str:000000000000f559 .LASF3339
C:\Users\SOLDER~1\AppData\Local\Temp\cc6haz4O.s:20844  .debug_str:0000000000006ca3 .LASF3340
GAS LISTING C:\Users\SOLDER~1\AppData\Local\Temp\cc6haz4O.s 			page 81


C:\Users\SOLDER~1\AppData\Local\Temp\cc6haz4O.s:30702  .debug_str:000000000002eb4a .LASF3341
C:\Users\SOLDER~1\AppData\Local\Temp\cc6haz4O.s:26258  .debug_str:000000000001caa7 .LASF3342
C:\Users\SOLDER~1\AppData\Local\Temp\cc6haz4O.s:27106  .debug_str:00000000000201dd .LASF3343
C:\Users\SOLDER~1\AppData\Local\Temp\cc6haz4O.s:25352  .debug_str:0000000000019093 .LASF3344
C:\Users\SOLDER~1\AppData\Local\Temp\cc6haz4O.s:23522  .debug_str:0000000000011a84 .LASF3345
C:\Users\SOLDER~1\AppData\Local\Temp\cc6haz4O.s:21006  .debug_str:0000000000007758 .LASF3346
C:\Users\SOLDER~1\AppData\Local\Temp\cc6haz4O.s:29746  .debug_str:000000000002ada6 .LASF3347
C:\Users\SOLDER~1\AppData\Local\Temp\cc6haz4O.s:22034  .debug_str:000000000000ba10 .LASF3348
C:\Users\SOLDER~1\AppData\Local\Temp\cc6haz4O.s:24418  .debug_str:0000000000015590 .LASF3349
C:\Users\SOLDER~1\AppData\Local\Temp\cc6haz4O.s:20688  .debug_str:000000000000627a .LASF3350
C:\Users\SOLDER~1\AppData\Local\Temp\cc6haz4O.s:28656  .debug_str:00000000000266b1 .LASF3351
C:\Users\SOLDER~1\AppData\Local\Temp\cc6haz4O.s:24168  .debug_str:0000000000014531 .LASF3352
C:\Users\SOLDER~1\AppData\Local\Temp\cc6haz4O.s:24446  .debug_str:0000000000015772 .LASF3353
C:\Users\SOLDER~1\AppData\Local\Temp\cc6haz4O.s:24178  .debug_str:00000000000145c3 .LASF3354
C:\Users\SOLDER~1\AppData\Local\Temp\cc6haz4O.s:20666  .debug_str:00000000000060c8 .LASF3355
C:\Users\SOLDER~1\AppData\Local\Temp\cc6haz4O.s:28790  .debug_str:0000000000026fe2 .LASF3356
C:\Users\SOLDER~1\AppData\Local\Temp\cc6haz4O.s:27900  .debug_str:00000000000234bc .LASF3357
C:\Users\SOLDER~1\AppData\Local\Temp\cc6haz4O.s:25200  .debug_str:00000000000186cc .LASF3358
C:\Users\SOLDER~1\AppData\Local\Temp\cc6haz4O.s:29988  .debug_str:000000000002bccc .LASF3359
C:\Users\SOLDER~1\AppData\Local\Temp\cc6haz4O.s:22206  .debug_str:000000000000c559 .LASF3360
C:\Users\SOLDER~1\AppData\Local\Temp\cc6haz4O.s:27018  .debug_str:000000000001fc4f .LASF3361
C:\Users\SOLDER~1\AppData\Local\Temp\cc6haz4O.s:29814  .debug_str:000000000002b1eb .LASF3362
C:\Users\SOLDER~1\AppData\Local\Temp\cc6haz4O.s:29328  .debug_str:0000000000029280 .LASF3363
C:\Users\SOLDER~1\AppData\Local\Temp\cc6haz4O.s:27198  .debug_str:0000000000020798 .LASF3364
C:\Users\SOLDER~1\AppData\Local\Temp\cc6haz4O.s:26556  .debug_str:000000000001de0c .LASF3365
C:\Users\SOLDER~1\AppData\Local\Temp\cc6haz4O.s:27670  .debug_str:000000000002256b .LASF3366
C:\Users\SOLDER~1\AppData\Local\Temp\cc6haz4O.s:28812  .debug_str:0000000000027189 .LASF3367
C:\Users\SOLDER~1\AppData\Local\Temp\cc6haz4O.s:29892  .debug_str:000000000002b6d7 .LASF3368
C:\Users\SOLDER~1\AppData\Local\Temp\cc6haz4O.s:23034  .debug_str:000000000000fb5f .LASF3369
C:\Users\SOLDER~1\AppData\Local\Temp\cc6haz4O.s:27774  .debug_str:0000000000022c73 .LASF3370
C:\Users\SOLDER~1\AppData\Local\Temp\cc6haz4O.s:28730  .debug_str:0000000000026be1 .LASF3371
C:\Users\SOLDER~1\AppData\Local\Temp\cc6haz4O.s:20648  .debug_str:0000000000005faa .LASF3372
C:\Users\SOLDER~1\AppData\Local\Temp\cc6haz4O.s:30526  .debug_str:000000000002dfda .LASF3373
C:\Users\SOLDER~1\AppData\Local\Temp\cc6haz4O.s:27680  .debug_str:0000000000022606 .LASF3374
C:\Users\SOLDER~1\AppData\Local\Temp\cc6haz4O.s:29168  .debug_str:0000000000028833 .LASF3375
C:\Users\SOLDER~1\AppData\Local\Temp\cc6haz4O.s:21926  .debug_str:000000000000b352 .LASF3376
C:\Users\SOLDER~1\AppData\Local\Temp\cc6haz4O.s:23722  .debug_str:0000000000012724 .LASF3377
C:\Users\SOLDER~1\AppData\Local\Temp\cc6haz4O.s:21000  .debug_str:00000000000076ec .LASF3378
C:\Users\SOLDER~1\AppData\Local\Temp\cc6haz4O.s:25616  .debug_str:000000000001a123 .LASF3379
C:\Users\SOLDER~1\AppData\Local\Temp\cc6haz4O.s:23786  .debug_str:0000000000012aff .LASF3380
C:\Users\SOLDER~1\AppData\Local\Temp\cc6haz4O.s:26930  .debug_str:000000000001f6c8 .LASF3381
C:\Users\SOLDER~1\AppData\Local\Temp\cc6haz4O.s:25024  .debug_str:0000000000017b4e .LASF3382
C:\Users\SOLDER~1\AppData\Local\Temp\cc6haz4O.s:30574  .debug_str:000000000002e2d1 .LASF3383
C:\Users\SOLDER~1\AppData\Local\Temp\cc6haz4O.s:25976  .debug_str:000000000001b863 .LASF3384
C:\Users\SOLDER~1\AppData\Local\Temp\cc6haz4O.s:25572  .debug_str:0000000000019e7e .LASF3385
C:\Users\SOLDER~1\AppData\Local\Temp\cc6haz4O.s:29474  .debug_str:0000000000029bd4 .LASF3386
C:\Users\SOLDER~1\AppData\Local\Temp\cc6haz4O.s:24240  .debug_str:00000000000149cc .LASF3387
C:\Users\SOLDER~1\AppData\Local\Temp\cc6haz4O.s:30252  .debug_str:000000000002cde1 .LASF3388
C:\Users\SOLDER~1\AppData\Local\Temp\cc6haz4O.s:24326  .debug_str:0000000000014fb0 .LASF3389
C:\Users\SOLDER~1\AppData\Local\Temp\cc6haz4O.s:26698  .debug_str:000000000001e755 .LASF3390
C:\Users\SOLDER~1\AppData\Local\Temp\cc6haz4O.s:30798  .debug_str:000000000002f135 .LASF3391
C:\Users\SOLDER~1\AppData\Local\Temp\cc6haz4O.s:22840  .debug_str:000000000000eeab .LASF3392
C:\Users\SOLDER~1\AppData\Local\Temp\cc6haz4O.s:21370  .debug_str:0000000000008f08 .LASF3393
C:\Users\SOLDER~1\AppData\Local\Temp\cc6haz4O.s:19494  .debug_str:00000000000015f8 .LASF3394
C:\Users\SOLDER~1\AppData\Local\Temp\cc6haz4O.s:28434  .debug_str:000000000002573c .LASF3395
C:\Users\SOLDER~1\AppData\Local\Temp\cc6haz4O.s:28558  .debug_str:0000000000025fd2 .LASF3396
C:\Users\SOLDER~1\AppData\Local\Temp\cc6haz4O.s:25624  .debug_str:000000000001a1ae .LASF3397
GAS LISTING C:\Users\SOLDER~1\AppData\Local\Temp\cc6haz4O.s 			page 82


C:\Users\SOLDER~1\AppData\Local\Temp\cc6haz4O.s:22668  .debug_str:000000000000e3e9 .LASF3398
C:\Users\SOLDER~1\AppData\Local\Temp\cc6haz4O.s:21684  .debug_str:000000000000a3a0 .LASF3399
C:\Users\SOLDER~1\AppData\Local\Temp\cc6haz4O.s:24870  .debug_str:0000000000017135 .LASF3400
C:\Users\SOLDER~1\AppData\Local\Temp\cc6haz4O.s:25086  .debug_str:0000000000017f5b .LASF3401
C:\Users\SOLDER~1\AppData\Local\Temp\cc6haz4O.s:29572  .debug_str:000000000002a241 .LASF3402
C:\Users\SOLDER~1\AppData\Local\Temp\cc6haz4O.s:24864  .debug_str:00000000000170d5 .LASF3403
C:\Users\SOLDER~1\AppData\Local\Temp\cc6haz4O.s:28776  .debug_str:0000000000026f06 .LASF3404
C:\Users\SOLDER~1\AppData\Local\Temp\cc6haz4O.s:21930  .debug_str:000000000000b38c .LASF3405
C:\Users\SOLDER~1\AppData\Local\Temp\cc6haz4O.s:26714  .debug_str:000000000001e883 .LASF3406
C:\Users\SOLDER~1\AppData\Local\Temp\cc6haz4O.s:19858  .debug_str:0000000000002d9a .LASF3407
C:\Users\SOLDER~1\AppData\Local\Temp\cc6haz4O.s:21562  .debug_str:0000000000009b7b .LASF3408
C:\Users\SOLDER~1\AppData\Local\Temp\cc6haz4O.s:29424  .debug_str:00000000000298d3 .LASF3409
C:\Users\SOLDER~1\AppData\Local\Temp\cc6haz4O.s:30172  .debug_str:000000000002c90c .LASF3410
C:\Users\SOLDER~1\AppData\Local\Temp\cc6haz4O.s:20026  .debug_str:0000000000003876 .LASF3411
C:\Users\SOLDER~1\AppData\Local\Temp\cc6haz4O.s:29876  .debug_str:000000000002b5db .LASF3412
C:\Users\SOLDER~1\AppData\Local\Temp\cc6haz4O.s:28038  .debug_str:0000000000023d7b .LASF3413
C:\Users\SOLDER~1\AppData\Local\Temp\cc6haz4O.s:26288  .debug_str:000000000001ccc5 .LASF3414
C:\Users\SOLDER~1\AppData\Local\Temp\cc6haz4O.s:24512  .debug_str:0000000000015b56 .LASF3415
C:\Users\SOLDER~1\AppData\Local\Temp\cc6haz4O.s:29632  .debug_str:000000000002a651 .LASF3416
C:\Users\SOLDER~1\AppData\Local\Temp\cc6haz4O.s:20914  .debug_str:000000000000716f .LASF3417
C:\Users\SOLDER~1\AppData\Local\Temp\cc6haz4O.s:24336  .debug_str:0000000000015040 .LASF3418
C:\Users\SOLDER~1\AppData\Local\Temp\cc6haz4O.s:23354  .debug_str:0000000000010fbb .LASF3419
C:\Users\SOLDER~1\AppData\Local\Temp\cc6haz4O.s:22848  .debug_str:000000000000ef35 .LASF3420
C:\Users\SOLDER~1\AppData\Local\Temp\cc6haz4O.s:28192  .debug_str:00000000000247b0 .LASF3421
C:\Users\SOLDER~1\AppData\Local\Temp\cc6haz4O.s:28404  .debug_str:0000000000025564 .LASF3422
C:\Users\SOLDER~1\AppData\Local\Temp\cc6haz4O.s:23520  .debug_str:0000000000011a5d .LASF3423
C:\Users\SOLDER~1\AppData\Local\Temp\cc6haz4O.s:29284  .debug_str:0000000000028fd0 .LASF3424
C:\Users\SOLDER~1\AppData\Local\Temp\cc6haz4O.s:26624  .debug_str:000000000001e2b6 .LASF3425
C:\Users\SOLDER~1\AppData\Local\Temp\cc6haz4O.s:27188  .debug_str:0000000000020700 .LASF3426
C:\Users\SOLDER~1\AppData\Local\Temp\cc6haz4O.s:23712  .debug_str:0000000000012665 .LASF3427
C:\Users\SOLDER~1\AppData\Local\Temp\cc6haz4O.s:25602  .debug_str:000000000001a02e .LASF3428
C:\Users\SOLDER~1\AppData\Local\Temp\cc6haz4O.s:20090  .debug_str:0000000000003ca3 .LASF3429
C:\Users\SOLDER~1\AppData\Local\Temp\cc6haz4O.s:24928  .debug_str:0000000000017520 .LASF3430
C:\Users\SOLDER~1\AppData\Local\Temp\cc6haz4O.s:21396  .debug_str:00000000000090ba .LASF3431
C:\Users\SOLDER~1\AppData\Local\Temp\cc6haz4O.s:27292  .debug_str:0000000000020d9c .LASF3432
C:\Users\SOLDER~1\AppData\Local\Temp\cc6haz4O.s:30070  .debug_str:000000000002c282 .LASF3433
C:\Users\SOLDER~1\AppData\Local\Temp\cc6haz4O.s:23360  .debug_str:0000000000011028 .LASF3434
C:\Users\SOLDER~1\AppData\Local\Temp\cc6haz4O.s:24046  .debug_str:0000000000013cb9 .LASF3435
C:\Users\SOLDER~1\AppData\Local\Temp\cc6haz4O.s:26810  .debug_str:000000000001eecd .LASF3436
C:\Users\SOLDER~1\AppData\Local\Temp\cc6haz4O.s:29590  .debug_str:000000000002a39b .LASF3437
C:\Users\SOLDER~1\AppData\Local\Temp\cc6haz4O.s:20756  .debug_str:00000000000066df .LASF3438
C:\Users\SOLDER~1\AppData\Local\Temp\cc6haz4O.s:23546  .debug_str:0000000000011be8 .LASF3439
C:\Users\SOLDER~1\AppData\Local\Temp\cc6haz4O.s:21306  .debug_str:0000000000008ab2 .LASF3440
C:\Users\SOLDER~1\AppData\Local\Temp\cc6haz4O.s:26086  .debug_str:000000000001bf5d .LASF3441
C:\Users\SOLDER~1\AppData\Local\Temp\cc6haz4O.s:19236  .debug_str:0000000000000467 .LASF3442
C:\Users\SOLDER~1\AppData\Local\Temp\cc6haz4O.s:22210  .debug_str:000000000000c59c .LASF3443
C:\Users\SOLDER~1\AppData\Local\Temp\cc6haz4O.s:28752  .debug_str:0000000000026d62 .LASF3444
C:\Users\SOLDER~1\AppData\Local\Temp\cc6haz4O.s:20716  .debug_str:000000000000643b .LASF3445
C:\Users\SOLDER~1\AppData\Local\Temp\cc6haz4O.s:26696  .debug_str:000000000001e72b .LASF3446
C:\Users\SOLDER~1\AppData\Local\Temp\cc6haz4O.s:24182  .debug_str:0000000000014613 .LASF3447
C:\Users\SOLDER~1\AppData\Local\Temp\cc6haz4O.s:22358  .debug_str:000000000000cf82 .LASF3448
C:\Users\SOLDER~1\AppData\Local\Temp\cc6haz4O.s:28794  .debug_str:0000000000027034 .LASF3449
C:\Users\SOLDER~1\AppData\Local\Temp\cc6haz4O.s:30426  .debug_str:000000000002d979 .LASF3450
C:\Users\SOLDER~1\AppData\Local\Temp\cc6haz4O.s:24504  .debug_str:0000000000015ad9 .LASF3451
C:\Users\SOLDER~1\AppData\Local\Temp\cc6haz4O.s:26838  .debug_str:000000000001f0a2 .LASF3452
C:\Users\SOLDER~1\AppData\Local\Temp\cc6haz4O.s:25092  .debug_str:0000000000017fc5 .LASF3453
C:\Users\SOLDER~1\AppData\Local\Temp\cc6haz4O.s:20278  .debug_str:0000000000004865 .LASF3454
GAS LISTING C:\Users\SOLDER~1\AppData\Local\Temp\cc6haz4O.s 			page 83


C:\Users\SOLDER~1\AppData\Local\Temp\cc6haz4O.s:25356  .debug_str:00000000000190dd .LASF3455
C:\Users\SOLDER~1\AppData\Local\Temp\cc6haz4O.s:19820  .debug_str:0000000000002b5d .LASF3456
C:\Users\SOLDER~1\AppData\Local\Temp\cc6haz4O.s:29862  .debug_str:000000000002b502 .LASF3457
C:\Users\SOLDER~1\AppData\Local\Temp\cc6haz4O.s:29066  .debug_str:00000000000281bf .LASF3458
C:\Users\SOLDER~1\AppData\Local\Temp\cc6haz4O.s:30662  .debug_str:000000000002e874 .LASF3459
C:\Users\SOLDER~1\AppData\Local\Temp\cc6haz4O.s:23530  .debug_str:0000000000011b15 .LASF3460
C:\Users\SOLDER~1\AppData\Local\Temp\cc6haz4O.s:28276  .debug_str:0000000000024d3c .LASF3461
C:\Users\SOLDER~1\AppData\Local\Temp\cc6haz4O.s:23626  .debug_str:000000000001210d .LASF3462
C:\Users\SOLDER~1\AppData\Local\Temp\cc6haz4O.s:29100  .debug_str:00000000000283fe .LASF3463
C:\Users\SOLDER~1\AppData\Local\Temp\cc6haz4O.s:27592  .debug_str:00000000000220d8 .LASF3464
C:\Users\SOLDER~1\AppData\Local\Temp\cc6haz4O.s:20530  .debug_str:00000000000057c2 .LASF3465
C:\Users\SOLDER~1\AppData\Local\Temp\cc6haz4O.s:22986  .debug_str:000000000000f801 .LASF3466
C:\Users\SOLDER~1\AppData\Local\Temp\cc6haz4O.s:24886  .debug_str:0000000000017245 .LASF3467
C:\Users\SOLDER~1\AppData\Local\Temp\cc6haz4O.s:25062  .debug_str:0000000000017dbe .LASF3468
C:\Users\SOLDER~1\AppData\Local\Temp\cc6haz4O.s:19804  .debug_str:0000000000002a5a .LASF3469
C:\Users\SOLDER~1\AppData\Local\Temp\cc6haz4O.s:25188  .debug_str:0000000000018608 .LASF3470
C:\Users\SOLDER~1\AppData\Local\Temp\cc6haz4O.s:29948  .debug_str:000000000002ba4b .LASF3471
C:\Users\SOLDER~1\AppData\Local\Temp\cc6haz4O.s:26766  .debug_str:000000000001ec09 .LASF3472
C:\Users\SOLDER~1\AppData\Local\Temp\cc6haz4O.s:20074  .debug_str:0000000000003ba2 .LASF3473
C:\Users\SOLDER~1\AppData\Local\Temp\cc6haz4O.s:20760  .debug_str:000000000000672b .LASF3474
C:\Users\SOLDER~1\AppData\Local\Temp\cc6haz4O.s:24024  .debug_str:0000000000013b08 .LASF3475
C:\Users\SOLDER~1\AppData\Local\Temp\cc6haz4O.s:22328  .debug_str:000000000000cd93 .LASF3476
C:\Users\SOLDER~1\AppData\Local\Temp\cc6haz4O.s:24134  .debug_str:00000000000142a2 .LASF3477
C:\Users\SOLDER~1\AppData\Local\Temp\cc6haz4O.s:21024  .debug_str:0000000000007866 .LASF3478
C:\Users\SOLDER~1\AppData\Local\Temp\cc6haz4O.s:21366  .debug_str:0000000000008ec3 .LASF3479
C:\Users\SOLDER~1\AppData\Local\Temp\cc6haz4O.s:20974  .debug_str:000000000000755f .LASF3480
C:\Users\SOLDER~1\AppData\Local\Temp\cc6haz4O.s:25304  .debug_str:0000000000018d59 .LASF3481
C:\Users\SOLDER~1\AppData\Local\Temp\cc6haz4O.s:29858  .debug_str:000000000002b4c5 .LASF3482
C:\Users\SOLDER~1\AppData\Local\Temp\cc6haz4O.s:19922  .debug_str:00000000000031c7 .LASF3483
C:\Users\SOLDER~1\AppData\Local\Temp\cc6haz4O.s:27612  .debug_str:00000000000221fd .LASF3484
C:\Users\SOLDER~1\AppData\Local\Temp\cc6haz4O.s:24010  .debug_str:00000000000139fc .LASF3485
C:\Users\SOLDER~1\AppData\Local\Temp\cc6haz4O.s:21144  .debug_str:0000000000008037 .LASF3486
C:\Users\SOLDER~1\AppData\Local\Temp\cc6haz4O.s:19902  .debug_str:0000000000003090 .LASF3487
C:\Users\SOLDER~1\AppData\Local\Temp\cc6haz4O.s:29158  .debug_str:0000000000028797 .LASF3488
C:\Users\SOLDER~1\AppData\Local\Temp\cc6haz4O.s:25282  .debug_str:0000000000018bf7 .LASF3489
C:\Users\SOLDER~1\AppData\Local\Temp\cc6haz4O.s:26658  .debug_str:000000000001e4dc .LASF3490
C:\Users\SOLDER~1\AppData\Local\Temp\cc6haz4O.s:23924  .debug_str:0000000000013433 .LASF3491
C:\Users\SOLDER~1\AppData\Local\Temp\cc6haz4O.s:26190  .debug_str:000000000001c631 .LASF3492
C:\Users\SOLDER~1\AppData\Local\Temp\cc6haz4O.s:22692  .debug_str:000000000000e56a .LASF3493
C:\Users\SOLDER~1\AppData\Local\Temp\cc6haz4O.s:22142  .debug_str:000000000000c0fd .LASF3494
C:\Users\SOLDER~1\AppData\Local\Temp\cc6haz4O.s:27258  .debug_str:0000000000020b8a .LASF3495
C:\Users\SOLDER~1\AppData\Local\Temp\cc6haz4O.s:29766  .debug_str:000000000002aee3 .LASF3496
C:\Users\SOLDER~1\AppData\Local\Temp\cc6haz4O.s:28834  .debug_str:00000000000272dd .LASF3497
C:\Users\SOLDER~1\AppData\Local\Temp\cc6haz4O.s:20888  .debug_str:0000000000006f8d .LASF3498
C:\Users\SOLDER~1\AppData\Local\Temp\cc6haz4O.s:25274  .debug_str:0000000000018b69 .LASF3499
C:\Users\SOLDER~1\AppData\Local\Temp\cc6haz4O.s:24638  .debug_str:0000000000016331 .LASF3500
C:\Users\SOLDER~1\AppData\Local\Temp\cc6haz4O.s:20496  .debug_str:00000000000055a1 .LASF3501
C:\Users\SOLDER~1\AppData\Local\Temp\cc6haz4O.s:19840  .debug_str:0000000000002c7d .LASF3502
C:\Users\SOLDER~1\AppData\Local\Temp\cc6haz4O.s:21830  .debug_str:000000000000ad56 .LASF3503
C:\Users\SOLDER~1\AppData\Local\Temp\cc6haz4O.s:28014  .debug_str:0000000000023bf9 .LASF3504
C:\Users\SOLDER~1\AppData\Local\Temp\cc6haz4O.s:30712  .debug_str:000000000002ebdb .LASF3505
C:\Users\SOLDER~1\AppData\Local\Temp\cc6haz4O.s:28304  .debug_str:0000000000024f16 .LASF3506
C:\Users\SOLDER~1\AppData\Local\Temp\cc6haz4O.s:23600  .debug_str:0000000000011f52 .LASF3507
C:\Users\SOLDER~1\AppData\Local\Temp\cc6haz4O.s:29136  .debug_str:000000000002863a .LASF3508
C:\Users\SOLDER~1\AppData\Local\Temp\cc6haz4O.s:21208  .debug_str:0000000000008479 .LASF3509
C:\Users\SOLDER~1\AppData\Local\Temp\cc6haz4O.s:26260  .debug_str:000000000001cad0 .LASF3510
C:\Users\SOLDER~1\AppData\Local\Temp\cc6haz4O.s:28872  .debug_str:0000000000027565 .LASF3511
GAS LISTING C:\Users\SOLDER~1\AppData\Local\Temp\cc6haz4O.s 			page 84


C:\Users\SOLDER~1\AppData\Local\Temp\cc6haz4O.s:30102  .debug_str:000000000002c4ab .LASF3512
C:\Users\SOLDER~1\AppData\Local\Temp\cc6haz4O.s:22820  .debug_str:000000000000ed56 .LASF3513
C:\Users\SOLDER~1\AppData\Local\Temp\cc6haz4O.s:30516  .debug_str:000000000002df47 .LASF3514
C:\Users\SOLDER~1\AppData\Local\Temp\cc6haz4O.s:26752  .debug_str:000000000001eb1a .LASF3515
C:\Users\SOLDER~1\AppData\Local\Temp\cc6haz4O.s:28646  .debug_str:0000000000026627 .LASF3516
C:\Users\SOLDER~1\AppData\Local\Temp\cc6haz4O.s:20636  .debug_str:0000000000005ef3 .LASF3517
C:\Users\SOLDER~1\AppData\Local\Temp\cc6haz4O.s:29306  .debug_str:000000000002911b .LASF3518
C:\Users\SOLDER~1\AppData\Local\Temp\cc6haz4O.s:25614  .debug_str:000000000001a100 .LASF3519
C:\Users\SOLDER~1\AppData\Local\Temp\cc6haz4O.s:24892  .debug_str:00000000000172b7 .LASF3520
C:\Users\SOLDER~1\AppData\Local\Temp\cc6haz4O.s:29668  .debug_str:000000000002a8b9 .LASF3521
C:\Users\SOLDER~1\AppData\Local\Temp\cc6haz4O.s:22936  .debug_str:000000000000f4ce .LASF3522
C:\Users\SOLDER~1\AppData\Local\Temp\cc6haz4O.s:25926  .debug_str:000000000001b51d .LASF3523
C:\Users\SOLDER~1\AppData\Local\Temp\cc6haz4O.s:21034  .debug_str:00000000000078e6 .LASF3524
C:\Users\SOLDER~1\AppData\Local\Temp\cc6haz4O.s:24582  .debug_str:0000000000015f96 .LASF3525
C:\Users\SOLDER~1\AppData\Local\Temp\cc6haz4O.s:19838  .debug_str:0000000000002c64 .LASF3526
C:\Users\SOLDER~1\AppData\Local\Temp\cc6haz4O.s:24906  .debug_str:00000000000173d2 .LASF3527
C:\Users\SOLDER~1\AppData\Local\Temp\cc6haz4O.s:29360  .debug_str:00000000000294ad .LASF3528
C:\Users\SOLDER~1\AppData\Local\Temp\cc6haz4O.s:19532  .debug_str:0000000000001864 .LASF3529
C:\Users\SOLDER~1\AppData\Local\Temp\cc6haz4O.s:30136  .debug_str:000000000002c6bc .LASF3530
C:\Users\SOLDER~1\AppData\Local\Temp\cc6haz4O.s:24932  .debug_str:0000000000017575 .LASF3531
C:\Users\SOLDER~1\AppData\Local\Temp\cc6haz4O.s:26598  .debug_str:000000000001e122 .LASF3532
C:\Users\SOLDER~1\AppData\Local\Temp\cc6haz4O.s:22604  .debug_str:000000000000df5d .LASF3533
C:\Users\SOLDER~1\AppData\Local\Temp\cc6haz4O.s:29888  .debug_str:000000000002b69c .LASF3534
C:\Users\SOLDER~1\AppData\Local\Temp\cc6haz4O.s:23036  .debug_str:000000000000fb88 .LASF3535
C:\Users\SOLDER~1\AppData\Local\Temp\cc6haz4O.s:27394  .debug_str:0000000000021445 .LASF3536
C:\Users\SOLDER~1\AppData\Local\Temp\cc6haz4O.s:26922  .debug_str:000000000001f661 .LASF3537
C:\Users\SOLDER~1\AppData\Local\Temp\cc6haz4O.s:23302  .debug_str:0000000000010c81 .LASF3538
C:\Users\SOLDER~1\AppData\Local\Temp\cc6haz4O.s:19832  .debug_str:0000000000002c1a .LASF3539
C:\Users\SOLDER~1\AppData\Local\Temp\cc6haz4O.s:24542  .debug_str:0000000000015d19 .LASF3540
C:\Users\SOLDER~1\AppData\Local\Temp\cc6haz4O.s:26176  .debug_str:000000000001c555 .LASF3541
C:\Users\SOLDER~1\AppData\Local\Temp\cc6haz4O.s:19214  .debug_str:000000000000030a .LASF3542
C:\Users\SOLDER~1\AppData\Local\Temp\cc6haz4O.s:22894  .debug_str:000000000000f213 .LASF3543
C:\Users\SOLDER~1\AppData\Local\Temp\cc6haz4O.s:27662  .debug_str:00000000000224e4 .LASF3544
C:\Users\SOLDER~1\AppData\Local\Temp\cc6haz4O.s:30458  .debug_str:000000000002db83 .LASF3545
C:\Users\SOLDER~1\AppData\Local\Temp\cc6haz4O.s:27466  .debug_str:00000000000218e8 .LASF3546
C:\Users\SOLDER~1\AppData\Local\Temp\cc6haz4O.s:20744  .debug_str:0000000000006619 .LASF3547
C:\Users\SOLDER~1\AppData\Local\Temp\cc6haz4O.s:20610  .debug_str:0000000000005d48 .LASF3548
C:\Users\SOLDER~1\AppData\Local\Temp\cc6haz4O.s:22302  .debug_str:000000000000cbd0 .LASF3549
C:\Users\SOLDER~1\AppData\Local\Temp\cc6haz4O.s:19386  .debug_str:0000000000000f24 .LASF3550
C:\Users\SOLDER~1\AppData\Local\Temp\cc6haz4O.s:23124  .debug_str:0000000000010159 .LASF3551
C:\Users\SOLDER~1\AppData\Local\Temp\cc6haz4O.s:20840  .debug_str:0000000000006c77 .LASF3552
C:\Users\SOLDER~1\AppData\Local\Temp\cc6haz4O.s:20424  .debug_str:0000000000005167 .LASF3553
C:\Users\SOLDER~1\AppData\Local\Temp\cc6haz4O.s:19592  .debug_str:0000000000001c1a .LASF3554
C:\Users\SOLDER~1\AppData\Local\Temp\cc6haz4O.s:28376  .debug_str:00000000000253a9 .LASF3555
C:\Users\SOLDER~1\AppData\Local\Temp\cc6haz4O.s:19372  .debug_str:0000000000000e63 .LASF3556
C:\Users\SOLDER~1\AppData\Local\Temp\cc6haz4O.s:25744  .debug_str:000000000001a979 .LASF3557
C:\Users\SOLDER~1\AppData\Local\Temp\cc6haz4O.s:22912  .debug_str:000000000000f352 .LASF3558
C:\Users\SOLDER~1\AppData\Local\Temp\cc6haz4O.s:19702  .debug_str:0000000000002373 .LASF3559
C:\Users\SOLDER~1\AppData\Local\Temp\cc6haz4O.s:27204  .debug_str:000000000002080b .LASF3560
C:\Users\SOLDER~1\AppData\Local\Temp\cc6haz4O.s:22798  .debug_str:000000000000ec0b .LASF3561
C:\Users\SOLDER~1\AppData\Local\Temp\cc6haz4O.s:23672  .debug_str:00000000000123d3 .LASF3562
C:\Users\SOLDER~1\AppData\Local\Temp\cc6haz4O.s:30234  .debug_str:000000000002ccd8 .LASF3563
C:\Users\SOLDER~1\AppData\Local\Temp\cc6haz4O.s:24594  .debug_str:000000000001605e .LASF3564
C:\Users\SOLDER~1\AppData\Local\Temp\cc6haz4O.s:26050  .debug_str:000000000001bd08 .LASF3565
C:\Users\SOLDER~1\AppData\Local\Temp\cc6haz4O.s:26788  .debug_str:000000000001ed69 .LASF3566
C:\Users\SOLDER~1\AppData\Local\Temp\cc6haz4O.s:19800  .debug_str:0000000000002a16 .LASF3567
C:\Users\SOLDER~1\AppData\Local\Temp\cc6haz4O.s:24814  .debug_str:0000000000016de4 .LASF3568
GAS LISTING C:\Users\SOLDER~1\AppData\Local\Temp\cc6haz4O.s 			page 85


C:\Users\SOLDER~1\AppData\Local\Temp\cc6haz4O.s:23620  .debug_str:00000000000120ae .LASF3569
C:\Users\SOLDER~1\AppData\Local\Temp\cc6haz4O.s:29908  .debug_str:000000000002b7e6 .LASF3570
C:\Users\SOLDER~1\AppData\Local\Temp\cc6haz4O.s:27190  .debug_str:000000000002072a .LASF3571
C:\Users\SOLDER~1\AppData\Local\Temp\cc6haz4O.s:19754  .debug_str:00000000000026c3 .LASF3572
C:\Users\SOLDER~1\AppData\Local\Temp\cc6haz4O.s:25342  .debug_str:0000000000018fe4 .LASF3573
C:\Users\SOLDER~1\AppData\Local\Temp\cc6haz4O.s:24088  .debug_str:0000000000013fa8 .LASF3574
C:\Users\SOLDER~1\AppData\Local\Temp\cc6haz4O.s:22488  .debug_str:000000000000d7f5 .LASF3575
C:\Users\SOLDER~1\AppData\Local\Temp\cc6haz4O.s:28672  .debug_str:00000000000267c3 .LASF3576
C:\Users\SOLDER~1\AppData\Local\Temp\cc6haz4O.s:30160  .debug_str:000000000002c83f .LASF3577
C:\Users\SOLDER~1\AppData\Local\Temp\cc6haz4O.s:22882  .debug_str:000000000000f15b .LASF3578
C:\Users\SOLDER~1\AppData\Local\Temp\cc6haz4O.s:27974  .debug_str:000000000002397c .LASF3579
C:\Users\SOLDER~1\AppData\Local\Temp\cc6haz4O.s:30562  .debug_str:000000000002e21c .LASF3580
C:\Users\SOLDER~1\AppData\Local\Temp\cc6haz4O.s:20276  .debug_str:0000000000004844 .LASF3581
C:\Users\SOLDER~1\AppData\Local\Temp\cc6haz4O.s:24674  .debug_str:0000000000016560 .LASF3582
C:\Users\SOLDER~1\AppData\Local\Temp\cc6haz4O.s:29708  .debug_str:000000000002aae6 .LASF3583
C:\Users\SOLDER~1\AppData\Local\Temp\cc6haz4O.s:19808  .debug_str:0000000000002a96 .LASF3584
C:\Users\SOLDER~1\AppData\Local\Temp\cc6haz4O.s:21126  .debug_str:0000000000007ef6 .LASF3585
C:\Users\SOLDER~1\AppData\Local\Temp\cc6haz4O.s:19242  .debug_str:00000000000004db .LASF3586
C:\Users\SOLDER~1\AppData\Local\Temp\cc6haz4O.s:27640  .debug_str:0000000000022374 .LASF3587
C:\Users\SOLDER~1\AppData\Local\Temp\cc6haz4O.s:23048  .debug_str:000000000000fc4a .LASF3588
C:\Users\SOLDER~1\AppData\Local\Temp\cc6haz4O.s:28470  .debug_str:00000000000259d6 .LASF3589
C:\Users\SOLDER~1\AppData\Local\Temp\cc6haz4O.s:28034  .debug_str:0000000000023d3b .LASF3590
C:\Users\SOLDER~1\AppData\Local\Temp\cc6haz4O.s:30618  .debug_str:000000000002e594 .LASF3591
C:\Users\SOLDER~1\AppData\Local\Temp\cc6haz4O.s:21780  .debug_str:000000000000a9fe .LASF3592
C:\Users\SOLDER~1\AppData\Local\Temp\cc6haz4O.s:22810  .debug_str:000000000000eca0 .LASF3593
C:\Users\SOLDER~1\AppData\Local\Temp\cc6haz4O.s:23496  .debug_str:00000000000118bc .LASF3594
C:\Users\SOLDER~1\AppData\Local\Temp\cc6haz4O.s:19986  .debug_str:00000000000035fc .LASF3595
C:\Users\SOLDER~1\AppData\Local\Temp\cc6haz4O.s:28448  .debug_str:0000000000025830 .LASF3596
C:\Users\SOLDER~1\AppData\Local\Temp\cc6haz4O.s:26032  .debug_str:000000000001bbcf .LASF3597
C:\Users\SOLDER~1\AppData\Local\Temp\cc6haz4O.s:29882  .debug_str:000000000002b638 .LASF3598
C:\Users\SOLDER~1\AppData\Local\Temp\cc6haz4O.s:22336  .debug_str:000000000000ce11 .LASF3599
C:\Users\SOLDER~1\AppData\Local\Temp\cc6haz4O.s:19276  .debug_str:0000000000000780 .LASF3600
C:\Users\SOLDER~1\AppData\Local\Temp\cc6haz4O.s:29576  .debug_str:000000000002a2a4 .LASF3601
C:\Users\SOLDER~1\AppData\Local\Temp\cc6haz4O.s:25982  .debug_str:000000000001b8bb .LASF3602
C:\Users\SOLDER~1\AppData\Local\Temp\cc6haz4O.s:23498  .debug_str:00000000000118dd .LASF3603
C:\Users\SOLDER~1\AppData\Local\Temp\cc6haz4O.s:26942  .debug_str:000000000001f7ab .LASF3604
C:\Users\SOLDER~1\AppData\Local\Temp\cc6haz4O.s:28254  .debug_str:0000000000024bbf .LASF3605
C:\Users\SOLDER~1\AppData\Local\Temp\cc6haz4O.s:25850  .debug_str:000000000001b0a1 .LASF3606
C:\Users\SOLDER~1\AppData\Local\Temp\cc6haz4O.s:22256  .debug_str:000000000000c8a1 .LASF3607
C:\Users\SOLDER~1\AppData\Local\Temp\cc6haz4O.s:25998  .debug_str:000000000001b9af .LASF3608
C:\Users\SOLDER~1\AppData\Local\Temp\cc6haz4O.s:30156  .debug_str:000000000002c7f9 .LASF3609
C:\Users\SOLDER~1\AppData\Local\Temp\cc6haz4O.s:23078  .debug_str:000000000000fe7d .LASF3610
C:\Users\SOLDER~1\AppData\Local\Temp\cc6haz4O.s:29470  .debug_str:0000000000029b81 .LASF3611
C:\Users\SOLDER~1\AppData\Local\Temp\cc6haz4O.s:19528  .debug_str:0000000000001839 .LASF3612
C:\Users\SOLDER~1\AppData\Local\Temp\cc6haz4O.s:21320  .debug_str:0000000000008bb3 .LASF3613
C:\Users\SOLDER~1\AppData\Local\Temp\cc6haz4O.s:28064  .debug_str:0000000000023f47 .LASF3614
C:\Users\SOLDER~1\AppData\Local\Temp\cc6haz4O.s:27446  .debug_str:0000000000021791 .LASF3615
C:\Users\SOLDER~1\AppData\Local\Temp\cc6haz4O.s:27966  .debug_str:000000000002390f .LASF3616
C:\Users\SOLDER~1\AppData\Local\Temp\cc6haz4O.s:29248  .debug_str:0000000000028d84 .LASF3617
C:\Users\SOLDER~1\AppData\Local\Temp\cc6haz4O.s:28294  .debug_str:0000000000024e6a .LASF3618
C:\Users\SOLDER~1\AppData\Local\Temp\cc6haz4O.s:22440  .debug_str:000000000000d4e4 .LASF3619
C:\Users\SOLDER~1\AppData\Local\Temp\cc6haz4O.s:24874  .debug_str:0000000000017183 .LASF3620
C:\Users\SOLDER~1\AppData\Local\Temp\cc6haz4O.s:29354  .debug_str:000000000002943f .LASF3621
C:\Users\SOLDER~1\AppData\Local\Temp\cc6haz4O.s:26026  .debug_str:000000000001bb79 .LASF3622
C:\Users\SOLDER~1\AppData\Local\Temp\cc6haz4O.s:25916  .debug_str:000000000001b488 .LASF3623
C:\Users\SOLDER~1\AppData\Local\Temp\cc6haz4O.s:20150  .debug_str:000000000000405f .LASF3624
C:\Users\SOLDER~1\AppData\Local\Temp\cc6haz4O.s:28080  .debug_str:000000000002405d .LASF3625
GAS LISTING C:\Users\SOLDER~1\AppData\Local\Temp\cc6haz4O.s 			page 86


C:\Users\SOLDER~1\AppData\Local\Temp\cc6haz4O.s:27454  .debug_str:0000000000021826 .LASF3626
C:\Users\SOLDER~1\AppData\Local\Temp\cc6haz4O.s:29826  .debug_str:000000000002b2e0 .LASF3627
C:\Users\SOLDER~1\AppData\Local\Temp\cc6haz4O.s:23364  .debug_str:000000000001106c .LASF3628
C:\Users\SOLDER~1\AppData\Local\Temp\cc6haz4O.s:29132  .debug_str:00000000000285ff .LASF3629
C:\Users\SOLDER~1\AppData\Local\Temp\cc6haz4O.s:23768  .debug_str:00000000000129e1 .LASF3630
C:\Users\SOLDER~1\AppData\Local\Temp\cc6haz4O.s:29432  .debug_str:000000000002994c .LASF3631
C:\Users\SOLDER~1\AppData\Local\Temp\cc6haz4O.s:22944  .debug_str:000000000000f549 .LASF3632
C:\Users\SOLDER~1\AppData\Local\Temp\cc6haz4O.s:24896  .debug_str:00000000000172f5 .LASF3633
C:\Users\SOLDER~1\AppData\Local\Temp\cc6haz4O.s:27726  .debug_str:0000000000022926 .LASF3634
C:\Users\SOLDER~1\AppData\Local\Temp\cc6haz4O.s:25030  .debug_str:0000000000017ba7 .LASF3635
C:\Users\SOLDER~1\AppData\Local\Temp\cc6haz4O.s:27778  .debug_str:0000000000022cbc .LASF3636
C:\Users\SOLDER~1\AppData\Local\Temp\cc6haz4O.s:22998  .debug_str:000000000000f8bd .LASF3637
C:\Users\SOLDER~1\AppData\Local\Temp\cc6haz4O.s:27110  .debug_str:0000000000020223 .LASF3638
C:\Users\SOLDER~1\AppData\Local\Temp\cc6haz4O.s:23512  .debug_str:00000000000119e1 .LASF3639
C:\Users\SOLDER~1\AppData\Local\Temp\cc6haz4O.s:29458  .debug_str:0000000000029acc .LASF3640
C:\Users\SOLDER~1\AppData\Local\Temp\cc6haz4O.s:27792  .debug_str:0000000000022dbb .LASF3641
C:\Users\SOLDER~1\AppData\Local\Temp\cc6haz4O.s:22550  .debug_str:000000000000dbd8 .LASF3642
C:\Users\SOLDER~1\AppData\Local\Temp\cc6haz4O.s:29490  .debug_str:0000000000029cda .LASF3643
C:\Users\SOLDER~1\AppData\Local\Temp\cc6haz4O.s:28310  .debug_str:0000000000024f7e .LASF3644
C:\Users\SOLDER~1\AppData\Local\Temp\cc6haz4O.s:29666  .debug_str:000000000002a896 .LASF3645
C:\Users\SOLDER~1\AppData\Local\Temp\cc6haz4O.s:30164  .debug_str:000000000002c88c .LASF3646
C:\Users\SOLDER~1\AppData\Local\Temp\cc6haz4O.s:20810  .debug_str:0000000000006aa8 .LASF3647
C:\Users\SOLDER~1\AppData\Local\Temp\cc6haz4O.s:19222  .debug_str:0000000000000388 .LASF3648
C:\Users\SOLDER~1\AppData\Local\Temp\cc6haz4O.s:26856  .debug_str:000000000001f1cf .LASF3649
C:\Users\SOLDER~1\AppData\Local\Temp\cc6haz4O.s:21492  .debug_str:000000000000972e .LASF3650
C:\Users\SOLDER~1\AppData\Local\Temp\cc6haz4O.s:24552  .debug_str:0000000000015dab .LASF3651
C:\Users\SOLDER~1\AppData\Local\Temp\cc6haz4O.s:19350  .debug_str:0000000000000cc3 .LASF3652
C:\Users\SOLDER~1\AppData\Local\Temp\cc6haz4O.s:30326  .debug_str:000000000002d328 .LASF3653
C:\Users\SOLDER~1\AppData\Local\Temp\cc6haz4O.s:26044  .debug_str:000000000001bca4 .LASF3654
C:\Users\SOLDER~1\AppData\Local\Temp\cc6haz4O.s:30438  .debug_str:000000000002da51 .LASF3655
C:\Users\SOLDER~1\AppData\Local\Temp\cc6haz4O.s:28876  .debug_str:00000000000275ac .LASF3656
C:\Users\SOLDER~1\AppData\Local\Temp\cc6haz4O.s:21548  .debug_str:0000000000009ab1 .LASF3657
C:\Users\SOLDER~1\AppData\Local\Temp\cc6haz4O.s:28058  .debug_str:0000000000023edc .LASF3658
C:\Users\SOLDER~1\AppData\Local\Temp\cc6haz4O.s:30214  .debug_str:000000000002cbb5 .LASF3659
C:\Users\SOLDER~1\AppData\Local\Temp\cc6haz4O.s:20718  .debug_str:0000000000006465 .LASF3660
C:\Users\SOLDER~1\AppData\Local\Temp\cc6haz4O.s:25920  .debug_str:000000000001b4cf .LASF3661
C:\Users\SOLDER~1\AppData\Local\Temp\cc6haz4O.s:20658  .debug_str:000000000000603b .LASF3662
C:\Users\SOLDER~1\AppData\Local\Temp\cc6haz4O.s:20330  .debug_str:0000000000004ba2 .LASF3663
C:\Users\SOLDER~1\AppData\Local\Temp\cc6haz4O.s:20364  .debug_str:0000000000004df9 .LASF3664
C:\Users\SOLDER~1\AppData\Local\Temp\cc6haz4O.s:19900  .debug_str:000000000000306d .LASF3665
C:\Users\SOLDER~1\AppData\Local\Temp\cc6haz4O.s:28738  .debug_str:0000000000026c67 .LASF3666
C:\Users\SOLDER~1\AppData\Local\Temp\cc6haz4O.s:23952  .debug_str:0000000000013609 .LASF3667
C:\Users\SOLDER~1\AppData\Local\Temp\cc6haz4O.s:25176  .debug_str:0000000000018541 .LASF3668
C:\Users\SOLDER~1\AppData\Local\Temp\cc6haz4O.s:22772  .debug_str:000000000000ea87 .LASF3669
C:\Users\SOLDER~1\AppData\Local\Temp\cc6haz4O.s:25686  .debug_str:000000000001a5aa .LASF3670
C:\Users\SOLDER~1\AppData\Local\Temp\cc6haz4O.s:27632  .debug_str:0000000000022312 .LASF3671
C:\Users\SOLDER~1\AppData\Local\Temp\cc6haz4O.s:28718  .debug_str:0000000000026b01 .LASF3672
C:\Users\SOLDER~1\AppData\Local\Temp\cc6haz4O.s:25644  .debug_str:000000000001a2dd .LASF3673
C:\Users\SOLDER~1\AppData\Local\Temp\cc6haz4O.s:25664  .debug_str:000000000001a419 .LASF3674
C:\Users\SOLDER~1\AppData\Local\Temp\cc6haz4O.s:21666  .debug_str:000000000000a25e .LASF3675
C:\Users\SOLDER~1\AppData\Local\Temp\cc6haz4O.s:27396  .debug_str:000000000002145b .LASF3676
C:\Users\SOLDER~1\AppData\Local\Temp\cc6haz4O.s:27750  .debug_str:0000000000022ad6 .LASF3677
C:\Users\SOLDER~1\AppData\Local\Temp\cc6haz4O.s:25678  .debug_str:000000000001a51c .LASF3678
C:\Users\SOLDER~1\AppData\Local\Temp\cc6haz4O.s:27984  .debug_str:0000000000023a2e .LASF3679
C:\Users\SOLDER~1\AppData\Local\Temp\cc6haz4O.s:29348  .debug_str:00000000000293d6 .LASF3680
C:\Users\SOLDER~1\AppData\Local\Temp\cc6haz4O.s:30148  .debug_str:000000000002c788 .LASF3681
C:\Users\SOLDER~1\AppData\Local\Temp\cc6haz4O.s:24782  .debug_str:0000000000016c25 .LASF3682
GAS LISTING C:\Users\SOLDER~1\AppData\Local\Temp\cc6haz4O.s 			page 87


C:\Users\SOLDER~1\AppData\Local\Temp\cc6haz4O.s:29828  .debug_str:000000000002b301 .LASF3683
C:\Users\SOLDER~1\AppData\Local\Temp\cc6haz4O.s:26014  .debug_str:000000000001baac .LASF3684
C:\Users\SOLDER~1\AppData\Local\Temp\cc6haz4O.s:27428  .debug_str:0000000000021653 .LASF3685
C:\Users\SOLDER~1\AppData\Local\Temp\cc6haz4O.s:23330  .debug_str:0000000000010e2c .LASF3686
C:\Users\SOLDER~1\AppData\Local\Temp\cc6haz4O.s:30718  .debug_str:000000000002ec39 .LASF3687
C:\Users\SOLDER~1\AppData\Local\Temp\cc6haz4O.s:27444  .debug_str:000000000002176a .LASF3688
C:\Users\SOLDER~1\AppData\Local\Temp\cc6haz4O.s:21328  .debug_str:0000000000008c36 .LASF3689
C:\Users\SOLDER~1\AppData\Local\Temp\cc6haz4O.s:27434  .debug_str:00000000000216c5 .LASF3690
C:\Users\SOLDER~1\AppData\Local\Temp\cc6haz4O.s:24370  .debug_str:0000000000015265 .LASF3691
C:\Users\SOLDER~1\AppData\Local\Temp\cc6haz4O.s:20590  .debug_str:0000000000005c08 .LASF3692
C:\Users\SOLDER~1\AppData\Local\Temp\cc6haz4O.s:22234  .debug_str:000000000000c73f .LASF3693
C:\Users\SOLDER~1\AppData\Local\Temp\cc6haz4O.s:25404  .debug_str:00000000000193a4 .LASF3694
C:\Users\SOLDER~1\AppData\Local\Temp\cc6haz4O.s:24278  .debug_str:0000000000014c74 .LASF3695
C:\Users\SOLDER~1\AppData\Local\Temp\cc6haz4O.s:21526  .debug_str:0000000000009950 .LASF3696
C:\Users\SOLDER~1\AppData\Local\Temp\cc6haz4O.s:22116  .debug_str:000000000000bf5b .LASF3697
C:\Users\SOLDER~1\AppData\Local\Temp\cc6haz4O.s:25700  .debug_str:000000000001a661 .LASF3698
C:\Users\SOLDER~1\AppData\Local\Temp\cc6haz4O.s:23020  .debug_str:000000000000fa84 .LASF3699
C:\Users\SOLDER~1\AppData\Local\Temp\cc6haz4O.s:26620  .debug_str:000000000001e26e .LASF3700
C:\Users\SOLDER~1\AppData\Local\Temp\cc6haz4O.s:19644  .debug_str:0000000000001f73 .LASF3701
C:\Users\SOLDER~1\AppData\Local\Temp\cc6haz4O.s:23268  .debug_str:0000000000010a78 .LASF3702
C:\Users\SOLDER~1\AppData\Local\Temp\cc6haz4O.s:22722  .debug_str:000000000000e710 .LASF3703
C:\Users\SOLDER~1\AppData\Local\Temp\cc6haz4O.s:19994  .debug_str:000000000000365f .LASF3704
C:\Users\SOLDER~1\AppData\Local\Temp\cc6haz4O.s:28874  .debug_str:0000000000027588 .LASF3705
C:\Users\SOLDER~1\AppData\Local\Temp\cc6haz4O.s:28200  .debug_str:0000000000024837 .LASF3706
C:\Users\SOLDER~1\AppData\Local\Temp\cc6haz4O.s:22392  .debug_str:000000000000d1d0 .LASF3707
C:\Users\SOLDER~1\AppData\Local\Temp\cc6haz4O.s:19728  .debug_str:000000000000252f .LASF3708
C:\Users\SOLDER~1\AppData\Local\Temp\cc6haz4O.s:28444  .debug_str:00000000000257e7 .LASF3709
C:\Users\SOLDER~1\AppData\Local\Temp\cc6haz4O.s:19926  .debug_str:000000000000320d .LASF3710
C:\Users\SOLDER~1\AppData\Local\Temp\cc6haz4O.s:19662  .debug_str:000000000000209a .LASF3711
C:\Users\SOLDER~1\AppData\Local\Temp\cc6haz4O.s:28534  .debug_str:0000000000025e33 .LASF3712
C:\Users\SOLDER~1\AppData\Local\Temp\cc6haz4O.s:28920  .debug_str:0000000000027857 .LASF3713
C:\Users\SOLDER~1\AppData\Local\Temp\cc6haz4O.s:29392  .debug_str:00000000000296d1 .LASF3714
C:\Users\SOLDER~1\AppData\Local\Temp\cc6haz4O.s:20340  .debug_str:0000000000004c4f .LASF3715
C:\Users\SOLDER~1\AppData\Local\Temp\cc6haz4O.s:29404  .debug_str:000000000002979f .LASF3716
C:\Users\SOLDER~1\AppData\Local\Temp\cc6haz4O.s:25442  .debug_str:0000000000019629 .LASF3717
C:\Users\SOLDER~1\AppData\Local\Temp\cc6haz4O.s:22148  .debug_str:000000000000c14e .LASF3718
C:\Users\SOLDER~1\AppData\Local\Temp\cc6haz4O.s:28802  .debug_str:00000000000270d2 .LASF3719
C:\Users\SOLDER~1\AppData\Local\Temp\cc6haz4O.s:22452  .debug_str:000000000000d5bd .LASF3720
C:\Users\SOLDER~1\AppData\Local\Temp\cc6haz4O.s:30610  .debug_str:000000000002e51e .LASF3721
C:\Users\SOLDER~1\AppData\Local\Temp\cc6haz4O.s:29860  .debug_str:000000000002b4dd .LASF3722
C:\Users\SOLDER~1\AppData\Local\Temp\cc6haz4O.s:28274  .debug_str:0000000000024d1b .LASF3723
C:\Users\SOLDER~1\AppData\Local\Temp\cc6haz4O.s:30334  .debug_str:000000000002d3ab .LASF3724
C:\Users\SOLDER~1\AppData\Local\Temp\cc6haz4O.s:20574  .debug_str:0000000000005af1 .LASF3725
C:\Users\SOLDER~1\AppData\Local\Temp\cc6haz4O.s:24194  .debug_str:00000000000146ea .LASF3726
C:\Users\SOLDER~1\AppData\Local\Temp\cc6haz4O.s:29588  .debug_str:000000000002a36f .LASF3727
C:\Users\SOLDER~1\AppData\Local\Temp\cc6haz4O.s:21822  .debug_str:000000000000accd .LASF3728
C:\Users\SOLDER~1\AppData\Local\Temp\cc6haz4O.s:24486  .debug_str:00000000000159ae .LASF3729
C:\Users\SOLDER~1\AppData\Local\Temp\cc6haz4O.s:25298  .debug_str:0000000000018ce3 .LASF3730
C:\Users\SOLDER~1\AppData\Local\Temp\cc6haz4O.s:21096  .debug_str:0000000000007d05 .LASF3731
C:\Users\SOLDER~1\AppData\Local\Temp\cc6haz4O.s:25828  .debug_str:000000000001af3f .LASF3732
C:\Users\SOLDER~1\AppData\Local\Temp\cc6haz4O.s:22118  .debug_str:000000000000bf80 .LASF3733
C:\Users\SOLDER~1\AppData\Local\Temp\cc6haz4O.s:25598  .debug_str:0000000000019ff4 .LASF3734
C:\Users\SOLDER~1\AppData\Local\Temp\cc6haz4O.s:22042  .debug_str:000000000000ba96 .LASF3735
C:\Users\SOLDER~1\AppData\Local\Temp\cc6haz4O.s:20580  .debug_str:0000000000005b50 .LASF3736
C:\Users\SOLDER~1\AppData\Local\Temp\cc6haz4O.s:23086  .debug_str:000000000000ff04 .LASF3737
C:\Users\SOLDER~1\AppData\Local\Temp\cc6haz4O.s:20884  .debug_str:0000000000006f4d .LASF3738
C:\Users\SOLDER~1\AppData\Local\Temp\cc6haz4O.s:19980  .debug_str:00000000000035a3 .LASF3739
GAS LISTING C:\Users\SOLDER~1\AppData\Local\Temp\cc6haz4O.s 			page 88


C:\Users\SOLDER~1\AppData\Local\Temp\cc6haz4O.s:21442  .debug_str:00000000000093e8 .LASF3740
C:\Users\SOLDER~1\AppData\Local\Temp\cc6haz4O.s:27014  .debug_str:000000000001fc2c .LASF3741
C:\Users\SOLDER~1\AppData\Local\Temp\cc6haz4O.s:22554  .debug_str:000000000000dc12 .LASF3742
C:\Users\SOLDER~1\AppData\Local\Temp\cc6haz4O.s:30558  .debug_str:000000000002e1e1 .LASF3743
C:\Users\SOLDER~1\AppData\Local\Temp\cc6haz4O.s:20572  .debug_str:0000000000005acd .LASF3744
C:\Users\SOLDER~1\AppData\Local\Temp\cc6haz4O.s:29522  .debug_str:0000000000029f14 .LASF3745
C:\Users\SOLDER~1\AppData\Local\Temp\cc6haz4O.s:22600  .debug_str:000000000000df22 .LASF3746
C:\Users\SOLDER~1\AppData\Local\Temp\cc6haz4O.s:27756  .debug_str:0000000000022b35 .LASF3747
C:\Users\SOLDER~1\AppData\Local\Temp\cc6haz4O.s:23898  .debug_str:0000000000013242 .LASF3748
C:\Users\SOLDER~1\AppData\Local\Temp\cc6haz4O.s:22356  .debug_str:000000000000cf6b .LASF3749
C:\Users\SOLDER~1\AppData\Local\Temp\cc6haz4O.s:29678  .debug_str:000000000002a939 .LASF3750
C:\Users\SOLDER~1\AppData\Local\Temp\cc6haz4O.s:26006  .debug_str:000000000001ba19 .LASF3751
C:\Users\SOLDER~1\AppData\Local\Temp\cc6haz4O.s:23106  .debug_str:0000000000010036 .LASF3752
C:\Users\SOLDER~1\AppData\Local\Temp\cc6haz4O.s:26604  .debug_str:000000000001e180 .LASF3753
C:\Users\SOLDER~1\AppData\Local\Temp\cc6haz4O.s:23070  .debug_str:000000000000fded .LASF3754
C:\Users\SOLDER~1\AppData\Local\Temp\cc6haz4O.s:25608  .debug_str:000000000001a0a6 .LASF3755
C:\Users\SOLDER~1\AppData\Local\Temp\cc6haz4O.s:25848  .debug_str:000000000001b07e .LASF3756
C:\Users\SOLDER~1\AppData\Local\Temp\cc6haz4O.s:23666  .debug_str:0000000000012396 .LASF3757
C:\Users\SOLDER~1\AppData\Local\Temp\cc6haz4O.s:25180  .debug_str:000000000001858f .LASF3758
C:\Users\SOLDER~1\AppData\Local\Temp\cc6haz4O.s:19752  .debug_str:00000000000026ad .LASF3759
C:\Users\SOLDER~1\AppData\Local\Temp\cc6haz4O.s:20484  .debug_str:00000000000054ee .LASF3760
C:\Users\SOLDER~1\AppData\Local\Temp\cc6haz4O.s:30130  .debug_str:000000000002c665 .LASF3761
C:\Users\SOLDER~1\AppData\Local\Temp\cc6haz4O.s:30358  .debug_str:000000000002d530 .LASF3762
C:\Users\SOLDER~1\AppData\Local\Temp\cc6haz4O.s:19446  .debug_str:00000000000012e1 .LASF3763
C:\Users\SOLDER~1\AppData\Local\Temp\cc6haz4O.s:25238  .debug_str:00000000000188fe .LASF3764
C:\Users\SOLDER~1\AppData\Local\Temp\cc6haz4O.s:23380  .debug_str:0000000000011167 .LASF3765
C:\Users\SOLDER~1\AppData\Local\Temp\cc6haz4O.s:28202  .debug_str:000000000002485b .LASF3766
C:\Users\SOLDER~1\AppData\Local\Temp\cc6haz4O.s:21906  .debug_str:000000000000b230 .LASF3767
C:\Users\SOLDER~1\AppData\Local\Temp\cc6haz4O.s:27500  .debug_str:0000000000021b15 .LASF3768
C:\Users\SOLDER~1\AppData\Local\Temp\cc6haz4O.s:19732  .debug_str:0000000000002581 .LASF3769
C:\Users\SOLDER~1\AppData\Local\Temp\cc6haz4O.s:28992  .debug_str:0000000000027cb7 .LASF3770
C:\Users\SOLDER~1\AppData\Local\Temp\cc6haz4O.s:19396  .debug_str:0000000000000fbd .LASF3771
C:\Users\SOLDER~1\AppData\Local\Temp\cc6haz4O.s:28060  .debug_str:0000000000023f03 .LASF3772
C:\Users\SOLDER~1\AppData\Local\Temp\cc6haz4O.s:24016  .debug_str:0000000000013a90 .LASF3773
C:\Users\SOLDER~1\AppData\Local\Temp\cc6haz4O.s:29400  .debug_str:000000000002974f .LASF3774
C:\Users\SOLDER~1\AppData\Local\Temp\cc6haz4O.s:26830  .debug_str:000000000001f017 .LASF3775
C:\Users\SOLDER~1\AppData\Local\Temp\cc6haz4O.s:22432  .debug_str:000000000000d458 .LASF3776
C:\Users\SOLDER~1\AppData\Local\Temp\cc6haz4O.s:20994  .debug_str:00000000000076a4 .LASF3777
C:\Users\SOLDER~1\AppData\Local\Temp\cc6haz4O.s:28702  .debug_str:00000000000269ee .LASF3778
C:\Users\SOLDER~1\AppData\Local\Temp\cc6haz4O.s:27008  .debug_str:000000000001fbd2 .LASF3779
C:\Users\SOLDER~1\AppData\Local\Temp\cc6haz4O.s:27278  .debug_str:0000000000020ce4 .LASF3780
C:\Users\SOLDER~1\AppData\Local\Temp\cc6haz4O.s:28172  .debug_str:0000000000024652 .LASF3781
C:\Users\SOLDER~1\AppData\Local\Temp\cc6haz4O.s:20180  .debug_str:000000000000423a .LASF3782
C:\Users\SOLDER~1\AppData\Local\Temp\cc6haz4O.s:24300  .debug_str:0000000000014e18 .LASF3783
C:\Users\SOLDER~1\AppData\Local\Temp\cc6haz4O.s:22884  .debug_str:000000000000f174 .LASF3784
C:\Users\SOLDER~1\AppData\Local\Temp\cc6haz4O.s:20852  .debug_str:0000000000006d36 .LASF3785
C:\Users\SOLDER~1\AppData\Local\Temp\cc6haz4O.s:25114  .debug_str:000000000001815c .LASF3786
C:\Users\SOLDER~1\AppData\Local\Temp\cc6haz4O.s:30338  .debug_str:000000000002d3f4 .LASF3787
C:\Users\SOLDER~1\AppData\Local\Temp\cc6haz4O.s:28176  .debug_str:000000000002468f .LASF3788
C:\Users\SOLDER~1\AppData\Local\Temp\cc6haz4O.s:20630  .debug_str:0000000000005ea6 .LASF3789
C:\Users\SOLDER~1\AppData\Local\Temp\cc6haz4O.s:21774  .debug_str:000000000000a9b2 .LASF3790
C:\Users\SOLDER~1\AppData\Local\Temp\cc6haz4O.s:29232  .debug_str:0000000000028c92 .LASF3791
C:\Users\SOLDER~1\AppData\Local\Temp\cc6haz4O.s:28826  .debug_str:0000000000027252 .LASF3792
C:\Users\SOLDER~1\AppData\Local\Temp\cc6haz4O.s:26438  .debug_str:000000000001d6e6 .LASF3793
C:\Users\SOLDER~1\AppData\Local\Temp\cc6haz4O.s:30236  .debug_str:000000000002ccfd .LASF3794
C:\Users\SOLDER~1\AppData\Local\Temp\cc6haz4O.s:29226  .debug_str:0000000000028c3c .LASF3795
C:\Users\SOLDER~1\AppData\Local\Temp\cc6haz4O.s:21656  .debug_str:000000000000a19e .LASF3796
GAS LISTING C:\Users\SOLDER~1\AppData\Local\Temp\cc6haz4O.s 			page 89


C:\Users\SOLDER~1\AppData\Local\Temp\cc6haz4O.s:23108  .debug_str:000000000001005a .LASF3797
C:\Users\SOLDER~1\AppData\Local\Temp\cc6haz4O.s:29016  .debug_str:0000000000027e54 .LASF3798
C:\Users\SOLDER~1\AppData\Local\Temp\cc6haz4O.s:29624  .debug_str:000000000002a5da .LASF3799
C:\Users\SOLDER~1\AppData\Local\Temp\cc6haz4O.s:26076  .debug_str:000000000001be9e .LASF3800
C:\Users\SOLDER~1\AppData\Local\Temp\cc6haz4O.s:27322  .debug_str:0000000000020f85 .LASF3801
C:\Users\SOLDER~1\AppData\Local\Temp\cc6haz4O.s:24982  .debug_str:00000000000178bb .LASF3802
C:\Users\SOLDER~1\AppData\Local\Temp\cc6haz4O.s:29340  .debug_str:0000000000029364 .LASF3803
C:\Users\SOLDER~1\AppData\Local\Temp\cc6haz4O.s:27074  .debug_str:000000000001ffd5 .LASF3804
C:\Users\SOLDER~1\AppData\Local\Temp\cc6haz4O.s:26194  .debug_str:000000000001c663 .LASF3805
C:\Users\SOLDER~1\AppData\Local\Temp\cc6haz4O.s:19248  .debug_str:0000000000000536 .LASF3806
C:\Users\SOLDER~1\AppData\Local\Temp\cc6haz4O.s:29976  .debug_str:000000000002bc1b .LASF3807
C:\Users\SOLDER~1\AppData\Local\Temp\cc6haz4O.s:19314  .debug_str:0000000000000a3f .LASF3808
C:\Users\SOLDER~1\AppData\Local\Temp\cc6haz4O.s:24428  .debug_str:000000000001563f .LASF3809
C:\Users\SOLDER~1\AppData\Local\Temp\cc6haz4O.s:24744  .debug_str:0000000000016999 .LASF3810
C:\Users\SOLDER~1\AppData\Local\Temp\cc6haz4O.s:27034  .debug_str:000000000001fd65 .LASF3811
C:\Users\SOLDER~1\AppData\Local\Temp\cc6haz4O.s:24548  .debug_str:0000000000015d6a .LASF3812
C:\Users\SOLDER~1\AppData\Local\Temp\cc6haz4O.s:21254  .debug_str:0000000000008766 .LASF3813
C:\Users\SOLDER~1\AppData\Local\Temp\cc6haz4O.s:20210  .debug_str:0000000000004426 .LASF3814
C:\Users\SOLDER~1\AppData\Local\Temp\cc6haz4O.s:21440  .debug_str:00000000000093c9 .LASF3815
C:\Users\SOLDER~1\AppData\Local\Temp\cc6haz4O.s:24526  .debug_str:0000000000015c25 .LASF3816
C:\Users\SOLDER~1\AppData\Local\Temp\cc6haz4O.s:21274  .debug_str:00000000000088ae .LASF3817
C:\Users\SOLDER~1\AppData\Local\Temp\cc6haz4O.s:22490  .debug_str:000000000000d81d .LASF3818
C:\Users\SOLDER~1\AppData\Local\Temp\cc6haz4O.s:20390  .debug_str:0000000000004f6a .LASF3819
C:\Users\SOLDER~1\AppData\Local\Temp\cc6haz4O.s:28242  .debug_str:0000000000024ae7 .LASF3820
C:\Users\SOLDER~1\AppData\Local\Temp\cc6haz4O.s:23752  .debug_str:00000000000128d4 .LASF3821
C:\Users\SOLDER~1\AppData\Local\Temp\cc6haz4O.s:23082  .debug_str:000000000000febd .LASF3822
C:\Users\SOLDER~1\AppData\Local\Temp\cc6haz4O.s:26336  .debug_str:000000000001d000 .LASF3823
C:\Users\SOLDER~1\AppData\Local\Temp\cc6haz4O.s:29560  .debug_str:000000000002a17a .LASF3824
C:\Users\SOLDER~1\AppData\Local\Temp\cc6haz4O.s:21410  .debug_str:00000000000091b6 .LASF3825
C:\Users\SOLDER~1\AppData\Local\Temp\cc6haz4O.s:27504  .debug_str:0000000000021b44 .LASF3826
C:\Users\SOLDER~1\AppData\Local\Temp\cc6haz4O.s:21590  .debug_str:0000000000009d4a .LASF3827
C:\Users\SOLDER~1\AppData\Local\Temp\cc6haz4O.s:21042  .debug_str:000000000000795d .LASF3828
C:\Users\SOLDER~1\AppData\Local\Temp\cc6haz4O.s:19456  .debug_str:0000000000001364 .LASF3829
C:\Users\SOLDER~1\AppData\Local\Temp\cc6haz4O.s:22248  .debug_str:000000000000c80a .LASF3830
C:\Users\SOLDER~1\AppData\Local\Temp\cc6haz4O.s:19888  .debug_str:0000000000002f8e .LASF3831
C:\Users\SOLDER~1\AppData\Local\Temp\cc6haz4O.s:22048  .debug_str:000000000000baf4 .LASF3832
C:\Users\SOLDER~1\AppData\Local\Temp\cc6haz4O.s:27988  .debug_str:0000000000023a72 .LASF3833
C:\Users\SOLDER~1\AppData\Local\Temp\cc6haz4O.s:26106  .debug_str:000000000001c0c2 .LASF3834
C:\Users\SOLDER~1\AppData\Local\Temp\cc6haz4O.s:22586  .debug_str:000000000000de3d .LASF3835
C:\Users\SOLDER~1\AppData\Local\Temp\cc6haz4O.s:29846  .debug_str:000000000002b418 .LASF3836
C:\Users\SOLDER~1\AppData\Local\Temp\cc6haz4O.s:27904  .debug_str:000000000002350c .LASF3837
C:\Users\SOLDER~1\AppData\Local\Temp\cc6haz4O.s:20272  .debug_str:0000000000004807 .LASF3838
C:\Users\SOLDER~1\AppData\Local\Temp\cc6haz4O.s:28168  .debug_str:000000000002460b .LASF3839
C:\Users\SOLDER~1\AppData\Local\Temp\cc6haz4O.s:27696  .debug_str:0000000000022725 .LASF3840
C:\Users\SOLDER~1\AppData\Local\Temp\cc6haz4O.s:20228  .debug_str:0000000000004542 .LASF3841
C:\Users\SOLDER~1\AppData\Local\Temp\cc6haz4O.s:22312  .debug_str:000000000000cc67 .LASF3842
C:\Users\SOLDER~1\AppData\Local\Temp\cc6haz4O.s:29406  .debug_str:00000000000297c4 .LASF3843
C:\Users\SOLDER~1\AppData\Local\Temp\cc6haz4O.s:21754  .debug_str:000000000000a86a .LASF3844
C:\Users\SOLDER~1\AppData\Local\Temp\cc6haz4O.s:27732  .debug_str:0000000000022988 .LASF3845
C:\Users\SOLDER~1\AppData\Local\Temp\cc6haz4O.s:26326  .debug_str:000000000001cf73 .LASF3846
C:\Users\SOLDER~1\AppData\Local\Temp\cc6haz4O.s:28044  .debug_str:0000000000023df1 .LASF3847
C:\Users\SOLDER~1\AppData\Local\Temp\cc6haz4O.s:23296  .debug_str:0000000000010c3a .LASF3848
C:\Users\SOLDER~1\AppData\Local\Temp\cc6haz4O.s:24684  .debug_str:0000000000016622 .LASF3849
C:\Users\SOLDER~1\AppData\Local\Temp\cc6haz4O.s:20646  .debug_str:0000000000005f96 .LASF3850
C:\Users\SOLDER~1\AppData\Local\Temp\cc6haz4O.s:22156  .debug_str:000000000000c1f0 .LASF3851
C:\Users\SOLDER~1\AppData\Local\Temp\cc6haz4O.s:21902  .debug_str:000000000000b1fb .LASF3852
C:\Users\SOLDER~1\AppData\Local\Temp\cc6haz4O.s:21932  .debug_str:000000000000b3b6 .LASF3853
GAS LISTING C:\Users\SOLDER~1\AppData\Local\Temp\cc6haz4O.s 			page 90


C:\Users\SOLDER~1\AppData\Local\Temp\cc6haz4O.s:19898  .debug_str:0000000000003057 .LASF3854
C:\Users\SOLDER~1\AppData\Local\Temp\cc6haz4O.s:25432  .debug_str:0000000000019567 .LASF3855
C:\Users\SOLDER~1\AppData\Local\Temp\cc6haz4O.s:22582  .debug_str:000000000000de02 .LASF3856
C:\Users\SOLDER~1\AppData\Local\Temp\cc6haz4O.s:30312  .debug_str:000000000002d21e .LASF3857
C:\Users\SOLDER~1\AppData\Local\Temp\cc6haz4O.s:30012  .debug_str:000000000002be68 .LASF3858
C:\Users\SOLDER~1\AppData\Local\Temp\cc6haz4O.s:28414  .debug_str:000000000002560f .LASF3859
C:\Users\SOLDER~1\AppData\Local\Temp\cc6haz4O.s:26672  .debug_str:000000000001e5b4 .LASF3860
C:\Users\SOLDER~1\AppData\Local\Temp\cc6haz4O.s:19344  .debug_str:0000000000000c57 .LASF3861
C:\Users\SOLDER~1\AppData\Local\Temp\cc6haz4O.s:29462  .debug_str:0000000000029b1e .LASF3862
C:\Users\SOLDER~1\AppData\Local\Temp\cc6haz4O.s:20060  .debug_str:0000000000003aa9 .LASF3863
C:\Users\SOLDER~1\AppData\Local\Temp\cc6haz4O.s:30382  .debug_str:000000000002d6a5 .LASF3864
C:\Users\SOLDER~1\AppData\Local\Temp\cc6haz4O.s:22740  .debug_str:000000000000e848 .LASF3865
C:\Users\SOLDER~1\AppData\Local\Temp\cc6haz4O.s:21900  .debug_str:000000000000b1db .LASF3866
C:\Users\SOLDER~1\AppData\Local\Temp\cc6haz4O.s:23080  .debug_str:000000000000fe9d .LASF3867
C:\Users\SOLDER~1\AppData\Local\Temp\cc6haz4O.s:25170  .debug_str:00000000000184ee .LASF3868
C:\Users\SOLDER~1\AppData\Local\Temp\cc6haz4O.s:23276  .debug_str:0000000000010b0b .LASF3869
C:\Users\SOLDER~1\AppData\Local\Temp\cc6haz4O.s:22732  .debug_str:000000000000e7bc .LASF3870
C:\Users\SOLDER~1\AppData\Local\Temp\cc6haz4O.s:22648  .debug_str:000000000000e27c .LASF3871
C:\Users\SOLDER~1\AppData\Local\Temp\cc6haz4O.s:30484  .debug_str:000000000002dd27 .LASF3872
C:\Users\SOLDER~1\AppData\Local\Temp\cc6haz4O.s:25270  .debug_str:0000000000018b09 .LASF3873
C:\Users\SOLDER~1\AppData\Local\Temp\cc6haz4O.s:20158  .debug_str:00000000000040c5 .LASF3874
C:\Users\SOLDER~1\AppData\Local\Temp\cc6haz4O.s:29298  .debug_str:00000000000290ab .LASF3875
C:\Users\SOLDER~1\AppData\Local\Temp\cc6haz4O.s:21088  .debug_str:0000000000007c77 .LASF3876
C:\Users\SOLDER~1\AppData\Local\Temp\cc6haz4O.s:20156  .debug_str:00000000000040a1 .LASF3877
C:\Users\SOLDER~1\AppData\Local\Temp\cc6haz4O.s:25396  .debug_str:0000000000019314 .LASF3878
C:\Users\SOLDER~1\AppData\Local\Temp\cc6haz4O.s:22168  .debug_str:000000000000c2a5 .LASF3879
C:\Users\SOLDER~1\AppData\Local\Temp\cc6haz4O.s:22250  .debug_str:000000000000c82c .LASF3880
C:\Users\SOLDER~1\AppData\Local\Temp\cc6haz4O.s:28250  .debug_str:0000000000024b61 .LASF3881
C:\Users\SOLDER~1\AppData\Local\Temp\cc6haz4O.s:22988  .debug_str:000000000000f81c .LASF3882
C:\Users\SOLDER~1\AppData\Local\Temp\cc6haz4O.s:19190  .debug_str:0000000000000161 .LASF3883
C:\Users\SOLDER~1\AppData\Local\Temp\cc6haz4O.s:29920  .debug_str:000000000002b8b8 .LASF3884
C:\Users\SOLDER~1\AppData\Local\Temp\cc6haz4O.s:29330  .debug_str:00000000000292a9 .LASF3885
C:\Users\SOLDER~1\AppData\Local\Temp\cc6haz4O.s:22618  .debug_str:000000000000e054 .LASF3886
C:\Users\SOLDER~1\AppData\Local\Temp\cc6haz4O.s:27238  .debug_str:0000000000020a44 .LASF3887
C:\Users\SOLDER~1\AppData\Local\Temp\cc6haz4O.s:19324  .debug_str:0000000000000ae6 .LASF3888
C:\Users\SOLDER~1\AppData\Local\Temp\cc6haz4O.s:30568  .debug_str:000000000002e26f .LASF3889
C:\Users\SOLDER~1\AppData\Local\Temp\cc6haz4O.s:21890  .debug_str:000000000000b131 .LASF3890
C:\Users\SOLDER~1\AppData\Local\Temp\cc6haz4O.s:23154  .debug_str:0000000000010321 .LASF3891
C:\Users\SOLDER~1\AppData\Local\Temp\cc6haz4O.s:30066  .debug_str:000000000002c23b .LASF3892
C:\Users\SOLDER~1\AppData\Local\Temp\cc6haz4O.s:21218  .debug_str:0000000000008535 .LASF3893
C:\Users\SOLDER~1\AppData\Local\Temp\cc6haz4O.s:26354  .debug_str:000000000001d120 .LASF3894
C:\Users\SOLDER~1\AppData\Local\Temp\cc6haz4O.s:25354  .debug_str:00000000000190bc .LASF3895
C:\Users\SOLDER~1\AppData\Local\Temp\cc6haz4O.s:27326  .debug_str:0000000000020fa4 .LASF3896
C:\Users\SOLDER~1\AppData\Local\Temp\cc6haz4O.s:21556  .debug_str:0000000000009b27 .LASF3897
C:\Users\SOLDER~1\AppData\Local\Temp\cc6haz4O.s:29042  .debug_str:0000000000028033 .LASF3898
C:\Users\SOLDER~1\AppData\Local\Temp\cc6haz4O.s:19594  .debug_str:0000000000001c32 .LASF3899
C:\Users\SOLDER~1\AppData\Local\Temp\cc6haz4O.s:24952  .debug_str:00000000000176c3 .LASF3900
C:\Users\SOLDER~1\AppData\Local\Temp\cc6haz4O.s:29762  .debug_str:000000000002aea9 .LASF3901
C:\Users\SOLDER~1\AppData\Local\Temp\cc6haz4O.s:30582  .debug_str:000000000002e36a .LASF3902
C:\Users\SOLDER~1\AppData\Local\Temp\cc6haz4O.s:22876  .debug_str:000000000000f109 .LASF3903
C:\Users\SOLDER~1\AppData\Local\Temp\cc6haz4O.s:24218  .debug_str:0000000000014887 .LASF3904
C:\Users\SOLDER~1\AppData\Local\Temp\cc6haz4O.s:26262  .debug_str:000000000001cae9 .LASF3905
C:\Users\SOLDER~1\AppData\Local\Temp\cc6haz4O.s:28182  .debug_str:0000000000024713 .LASF3906
C:\Users\SOLDER~1\AppData\Local\Temp\cc6haz4O.s:29260  .debug_str:0000000000028e2a .LASF3907
C:\Users\SOLDER~1\AppData\Local\Temp\cc6haz4O.s:26626  .debug_str:000000000001e2dd .LASF3908
C:\Users\SOLDER~1\AppData\Local\Temp\cc6haz4O.s:30580  .debug_str:000000000002e347 .LASF3909
C:\Users\SOLDER~1\AppData\Local\Temp\cc6haz4O.s:24596  .debug_str:000000000001607b .LASF3910
GAS LISTING C:\Users\SOLDER~1\AppData\Local\Temp\cc6haz4O.s 			page 91


C:\Users\SOLDER~1\AppData\Local\Temp\cc6haz4O.s:30442  .debug_str:000000000002da8a .LASF3911
C:\Users\SOLDER~1\AppData\Local\Temp\cc6haz4O.s:25150  .debug_str:00000000000183a6 .LASF3912
C:\Users\SOLDER~1\AppData\Local\Temp\cc6haz4O.s:29090  .debug_str:0000000000028378 .LASF3913
C:\Users\SOLDER~1\AppData\Local\Temp\cc6haz4O.s:20294  .debug_str:000000000000497d .LASF3914
C:\Users\SOLDER~1\AppData\Local\Temp\cc6haz4O.s:25660  .debug_str:000000000001a3e4 .LASF3915
C:\Users\SOLDER~1\AppData\Local\Temp\cc6haz4O.s:26862  .debug_str:000000000001f24f .LASF3916
C:\Users\SOLDER~1\AppData\Local\Temp\cc6haz4O.s:27338  .debug_str:0000000000021071 .LASF3917
C:\Users\SOLDER~1\AppData\Local\Temp\cc6haz4O.s:23252  .debug_str:0000000000010968 .LASF3918
C:\Users\SOLDER~1\AppData\Local\Temp\cc6haz4O.s:28606  .debug_str:0000000000026350 .LASF3919
C:\Users\SOLDER~1\AppData\Local\Temp\cc6haz4O.s:29534  .debug_str:0000000000029fd6 .LASF3920
C:\Users\SOLDER~1\AppData\Local\Temp\cc6haz4O.s:28488  .debug_str:0000000000025afe .LASF3921
C:\Users\SOLDER~1\AppData\Local\Temp\cc6haz4O.s:20964  .debug_str:00000000000074b5 .LASF3922
C:\Users\SOLDER~1\AppData\Local\Temp\cc6haz4O.s:27426  .debug_str:0000000000021632 .LASF3923
C:\Users\SOLDER~1\AppData\Local\Temp\cc6haz4O.s:23386  .debug_str:00000000000111bc .LASF3924
C:\Users\SOLDER~1\AppData\Local\Temp\cc6haz4O.s:27270  .debug_str:0000000000020c56 .LASF3925
C:\Users\SOLDER~1\AppData\Local\Temp\cc6haz4O.s:20446  .debug_str:000000000000529b .LASF3926
C:\Users\SOLDER~1\AppData\Local\Temp\cc6haz4O.s:23940  .debug_str:0000000000013531 .LASF3927
C:\Users\SOLDER~1\AppData\Local\Temp\cc6haz4O.s:21574  .debug_str:0000000000009c46 .LASF3928
C:\Users\SOLDER~1\AppData\Local\Temp\cc6haz4O.s:20028  .debug_str:00000000000038a0 .LASF3929
C:\Users\SOLDER~1\AppData\Local\Temp\cc6haz4O.s:21068  .debug_str:0000000000007b19 .LASF3930
C:\Users\SOLDER~1\AppData\Local\Temp\cc6haz4O.s:26876  .debug_str:000000000001f336 .LASF3931
C:\Users\SOLDER~1\AppData\Local\Temp\cc6haz4O.s:26356  .debug_str:000000000001d137 .LASF3932
C:\Users\SOLDER~1\AppData\Local\Temp\cc6haz4O.s:29108  .debug_str:0000000000028469 .LASF3933
C:\Users\SOLDER~1\AppData\Local\Temp\cc6haz4O.s:28664  .debug_str:0000000000026735 .LASF3934
C:\Users\SOLDER~1\AppData\Local\Temp\cc6haz4O.s:21568  .debug_str:0000000000009be9 .LASF3935
C:\Users\SOLDER~1\AppData\Local\Temp\cc6haz4O.s:22774  .debug_str:000000000000eaad .LASF3936
C:\Users\SOLDER~1\AppData\Local\Temp\cc6haz4O.s:24550  .debug_str:0000000000015d8c .LASF3937
C:\Users\SOLDER~1\AppData\Local\Temp\cc6haz4O.s:20504  .debug_str:0000000000005628 .LASF3938
C:\Users\SOLDER~1\AppData\Local\Temp\cc6haz4O.s:21250  .debug_str:0000000000008711 .LASF3939
C:\Users\SOLDER~1\AppData\Local\Temp\cc6haz4O.s:29606  .debug_str:000000000002a4bf .LASF3940
C:\Users\SOLDER~1\AppData\Local\Temp\cc6haz4O.s:25098  .debug_str:000000000001802b .LASF3941
C:\Users\SOLDER~1\AppData\Local\Temp\cc6haz4O.s:22700  .debug_str:000000000000e5d8 .LASF3942
C:\Users\SOLDER~1\AppData\Local\Temp\cc6haz4O.s:27342  .debug_str:00000000000210b7 .LASF3943
C:\Users\SOLDER~1\AppData\Local\Temp\cc6haz4O.s:19786  .debug_str:00000000000028f4 .LASF3944
C:\Users\SOLDER~1\AppData\Local\Temp\cc6haz4O.s:26118  .debug_str:000000000001c162 .LASF3945
C:\Users\SOLDER~1\AppData\Local\Temp\cc6haz4O.s:21206  .debug_str:0000000000008460 .LASF3946
C:\Users\SOLDER~1\AppData\Local\Temp\cc6haz4O.s:27212  .debug_str:0000000000020893 .LASF3947
C:\Users\SOLDER~1\AppData\Local\Temp\cc6haz4O.s:28358  .debug_str:0000000000025274 .LASF3948
C:\Users\SOLDER~1\AppData\Local\Temp\cc6haz4O.s:24454  .debug_str:00000000000157f7 .LASF3949
C:\Users\SOLDER~1\AppData\Local\Temp\cc6haz4O.s:19448  .debug_str:00000000000012f4 .LASF3950
C:\Users\SOLDER~1\AppData\Local\Temp\cc6haz4O.s:27948  .debug_str:00000000000237e9 .LASF3951
C:\Users\SOLDER~1\AppData\Local\Temp\cc6haz4O.s:20162  .debug_str:0000000000004111 .LASF3952
C:\Users\SOLDER~1\AppData\Local\Temp\cc6haz4O.s:23118  .debug_str:00000000000100f7 .LASF3953
C:\Users\SOLDER~1\AppData\Local\Temp\cc6haz4O.s:24554  .debug_str:0000000000015dcd .LASF3954
C:\Users\SOLDER~1\AppData\Local\Temp\cc6haz4O.s:21142  .debug_str:000000000000800f .LASF3955
C:\Users\SOLDER~1\AppData\Local\Temp\cc6haz4O.s:19498  .debug_str:000000000000163c .LASF3956
C:\Users\SOLDER~1\AppData\Local\Temp\cc6haz4O.s:30790  .debug_str:000000000002f0a3 .LASF3957
C:\Users\SOLDER~1\AppData\Local\Temp\cc6haz4O.s:23682  .debug_str:000000000001246d .LASF3958
C:\Users\SOLDER~1\AppData\Local\Temp\cc6haz4O.s:24914  .debug_str:000000000001745b .LASF3959
C:\Users\SOLDER~1\AppData\Local\Temp\cc6haz4O.s:22652  .debug_str:000000000000e2c1 .LASF3960
C:\Users\SOLDER~1\AppData\Local\Temp\cc6haz4O.s:25178  .debug_str:0000000000018567 .LASF3961
C:\Users\SOLDER~1\AppData\Local\Temp\cc6haz4O.s:28372  .debug_str:000000000002536c .LASF3962
C:\Users\SOLDER~1\AppData\Local\Temp\cc6haz4O.s:22650  .debug_str:000000000000e29a .LASF3963
C:\Users\SOLDER~1\AppData\Local\Temp\cc6haz4O.s:22786  .debug_str:000000000000eb63 .LASF3964
C:\Users\SOLDER~1\AppData\Local\Temp\cc6haz4O.s:27272  .debug_str:0000000000020c76 .LASF3965
C:\Users\SOLDER~1\AppData\Local\Temp\cc6haz4O.s:27336  .debug_str:0000000000021049 .LASF3966
C:\Users\SOLDER~1\AppData\Local\Temp\cc6haz4O.s:26298  .debug_str:000000000001cd74 .LASF3967
GAS LISTING C:\Users\SOLDER~1\AppData\Local\Temp\cc6haz4O.s 			page 92


C:\Users\SOLDER~1\AppData\Local\Temp\cc6haz4O.s:28090  .debug_str:00000000000240f1 .LASF3968
C:\Users\SOLDER~1\AppData\Local\Temp\cc6haz4O.s:25060  .debug_str:0000000000017d9a .LASF3969
C:\Users\SOLDER~1\AppData\Local\Temp\cc6haz4O.s:22238  .debug_str:000000000000c778 .LASF3970
C:\Users\SOLDER~1\AppData\Local\Temp\cc6haz4O.s:21796  .debug_str:000000000000ab1d .LASF3971
C:\Users\SOLDER~1\AppData\Local\Temp\cc6haz4O.s:23402  .debug_str:00000000000112cb .LASF3972
C:\Users\SOLDER~1\AppData\Local\Temp\cc6haz4O.s:28618  .debug_str:0000000000026430 .LASF3973
C:\Users\SOLDER~1\AppData\Local\Temp\cc6haz4O.s:23042  .debug_str:000000000000fbea .LASF3974
C:\Users\SOLDER~1\AppData\Local\Temp\cc6haz4O.s:23238  .debug_str:000000000001085c .LASF3975
C:\Users\SOLDER~1\AppData\Local\Temp\cc6haz4O.s:19304  .debug_str:0000000000000993 .LASF3976
C:\Users\SOLDER~1\AppData\Local\Temp\cc6haz4O.s:20866  .debug_str:0000000000006e14 .LASF3977
C:\Users\SOLDER~1\AppData\Local\Temp\cc6haz4O.s:30672  .debug_str:000000000002e930 .LASF3978
C:\Users\SOLDER~1\AppData\Local\Temp\cc6haz4O.s:21734  .debug_str:000000000000a6d4 .LASF3979
C:\Users\SOLDER~1\AppData\Local\Temp\cc6haz4O.s:24826  .debug_str:0000000000016e93 .LASF3980
C:\Users\SOLDER~1\AppData\Local\Temp\cc6haz4O.s:28788  .debug_str:0000000000026fc6 .LASF3981
C:\Users\SOLDER~1\AppData\Local\Temp\cc6haz4O.s:25880  .debug_str:000000000001b241 .LASF3982
C:\Users\SOLDER~1\AppData\Local\Temp\cc6haz4O.s:29228  .debug_str:0000000000028c52 .LASF3983
C:\Users\SOLDER~1\AppData\Local\Temp\cc6haz4O.s:24996  .debug_str:0000000000017981 .LASF3984
C:\Users\SOLDER~1\AppData\Local\Temp\cc6haz4O.s:28782  .debug_str:0000000000026f5b .LASF3985
C:\Users\SOLDER~1\AppData\Local\Temp\cc6haz4O.s:21298  .debug_str:0000000000008a2f .LASF3986
C:\Users\SOLDER~1\AppData\Local\Temp\cc6haz4O.s:20816  .debug_str:0000000000006afb .LASF3987
C:\Users\SOLDER~1\AppData\Local\Temp\cc6haz4O.s:26496  .debug_str:000000000001da6e .LASF3988
C:\Users\SOLDER~1\AppData\Local\Temp\cc6haz4O.s:20990  .debug_str:0000000000007667 .LASF3989
C:\Users\SOLDER~1\AppData\Local\Temp\cc6haz4O.s:28644  .debug_str:000000000002660a .LASF3990
C:\Users\SOLDER~1\AppData\Local\Temp\cc6haz4O.s:20154  .debug_str:0000000000004084 .LASF3991
C:\Users\SOLDER~1\AppData\Local\Temp\cc6haz4O.s:28082  .debug_str:000000000002407f .LASF3992
C:\Users\SOLDER~1\AppData\Local\Temp\cc6haz4O.s:21392  .debug_str:000000000000907c .LASF3993
C:\Users\SOLDER~1\AppData\Local\Temp\cc6haz4O.s:21974  .debug_str:000000000000b69c .LASF3994
C:\Users\SOLDER~1\AppData\Local\Temp\cc6haz4O.s:22264  .debug_str:000000000000c92f .LASF3995
C:\Users\SOLDER~1\AppData\Local\Temp\cc6haz4O.s:28162  .debug_str:000000000002459c .LASF3996
C:\Users\SOLDER~1\AppData\Local\Temp\cc6haz4O.s:30138  .debug_str:000000000002c6d9 .LASF3997
C:\Users\SOLDER~1\AppData\Local\Temp\cc6haz4O.s:21436  .debug_str:00000000000093a7 .LASF3998
C:\Users\SOLDER~1\AppData\Local\Temp\cc6haz4O.s:26028  .debug_str:000000000001bb8e .LASF3999
C:\Users\SOLDER~1\AppData\Local\Temp\cc6haz4O.s:24230  .debug_str:0000000000014938 .LASF4000
C:\Users\SOLDER~1\AppData\Local\Temp\cc6haz4O.s:28998  .debug_str:0000000000027d12 .LASF4001
C:\Users\SOLDER~1\AppData\Local\Temp\cc6haz4O.s:30594  .debug_str:000000000002e423 .LASF4002
C:\Users\SOLDER~1\AppData\Local\Temp\cc6haz4O.s:19722  .debug_str:00000000000024d9 .LASF4003
C:\Users\SOLDER~1\AppData\Local\Temp\cc6haz4O.s:24690  .debug_str:000000000001666d .LASF4004
C:\Users\SOLDER~1\AppData\Local\Temp\cc6haz4O.s:28098  .debug_str:000000000002416a .LASF4005
C:\Users\SOLDER~1\AppData\Local\Temp\cc6haz4O.s:29344  .debug_str:000000000002939e .LASF4006
C:\Users\SOLDER~1\AppData\Local\Temp\cc6haz4O.s:20500  .debug_str:00000000000055e6 .LASF4007
C:\Users\SOLDER~1\AppData\Local\Temp\cc6haz4O.s:21178  .debug_str:0000000000008288 .LASF4008
C:\Users\SOLDER~1\AppData\Local\Temp\cc6haz4O.s:19412  .debug_str:00000000000010ac .LASF4009
C:\Users\SOLDER~1\AppData\Local\Temp\cc6haz4O.s:29198  .debug_str:0000000000028a6f .LASF4010
C:\Users\SOLDER~1\AppData\Local\Temp\cc6haz4O.s:19378  .debug_str:0000000000000eae .LASF4011
C:\Users\SOLDER~1\AppData\Local\Temp\cc6haz4O.s:29684  .debug_str:000000000002a99e .LASF4012
C:\Users\SOLDER~1\AppData\Local\Temp\cc6haz4O.s:29220  .debug_str:0000000000028bd5 .LASF4013
C:\Users\SOLDER~1\AppData\Local\Temp\cc6haz4O.s:25652  .debug_str:000000000001a366 .LASF4014
C:\Users\SOLDER~1\AppData\Local\Temp\cc6haz4O.s:28780  .debug_str:0000000000026f3f .LASF4015
C:\Users\SOLDER~1\AppData\Local\Temp\cc6haz4O.s:19634  .debug_str:0000000000001ed6 .LASF4016
C:\Users\SOLDER~1\AppData\Local\Temp\cc6haz4O.s:30272  .debug_str:000000000002cf4e .LASF4017
C:\Users\SOLDER~1\AppData\Local\Temp\cc6haz4O.s:27516  .debug_str:0000000000021c1d .LASF4018
C:\Users\SOLDER~1\AppData\Local\Temp\cc6haz4O.s:19230  .debug_str:0000000000000418 .LASF4019
C:\Users\SOLDER~1\AppData\Local\Temp\cc6haz4O.s:22226  .debug_str:000000000000c6c1 .LASF4020
C:\Users\SOLDER~1\AppData\Local\Temp\cc6haz4O.s:22058  .debug_str:000000000000bbaa .LASF4021
C:\Users\SOLDER~1\AppData\Local\Temp\cc6haz4O.s:28138  .debug_str:0000000000024408 .LASF4022
C:\Users\SOLDER~1\AppData\Local\Temp\cc6haz4O.s:28502  .debug_str:0000000000025c0f .LASF4023
C:\Users\SOLDER~1\AppData\Local\Temp\cc6haz4O.s:29134  .debug_str:0000000000028620 .LASF4024
GAS LISTING C:\Users\SOLDER~1\AppData\Local\Temp\cc6haz4O.s 			page 93


C:\Users\SOLDER~1\AppData\Local\Temp\cc6haz4O.s:20192  .debug_str:0000000000004315 .LASF4025
C:\Users\SOLDER~1\AppData\Local\Temp\cc6haz4O.s:26782  .debug_str:000000000001ed0a .LASF4026
C:\Users\SOLDER~1\AppData\Local\Temp\cc6haz4O.s:24328  .debug_str:0000000000014fd7 .LASF4027
C:\Users\SOLDER~1\AppData\Local\Temp\cc6haz4O.s:30652  .debug_str:000000000002e7da .LASF4028
C:\Users\SOLDER~1\AppData\Local\Temp\cc6haz4O.s:20044  .debug_str:00000000000039ac .LASF4029
C:\Users\SOLDER~1\AppData\Local\Temp\cc6haz4O.s:25996  .debug_str:000000000001b99e .LASF4030
C:\Users\SOLDER~1\AppData\Local\Temp\cc6haz4O.s:28668  .debug_str:0000000000026782 .LASF4031
C:\Users\SOLDER~1\AppData\Local\Temp\cc6haz4O.s:23148  .debug_str:00000000000102c3 .LASF4032
C:\Users\SOLDER~1\AppData\Local\Temp\cc6haz4O.s:27874  .debug_str:00000000000232f3 .LASF4033
C:\Users\SOLDER~1\AppData\Local\Temp\cc6haz4O.s:22062  .debug_str:000000000000bbf0 .LASF4034
C:\Users\SOLDER~1\AppData\Local\Temp\cc6haz4O.s:29540  .debug_str:000000000002a03f .LASF4035
C:\Users\SOLDER~1\AppData\Local\Temp\cc6haz4O.s:21528  .debug_str:0000000000009975 .LASF4036
C:\Users\SOLDER~1\AppData\Local\Temp\cc6haz4O.s:20368  .debug_str:0000000000004e24 .LASF4037
C:\Users\SOLDER~1\AppData\Local\Temp\cc6haz4O.s:25158  .debug_str:0000000000018432 .LASF4038
C:\Users\SOLDER~1\AppData\Local\Temp\cc6haz4O.s:21266  .debug_str:0000000000008842 .LASF4039
C:\Users\SOLDER~1\AppData\Local\Temp\cc6haz4O.s:27302  .debug_str:0000000000020e36 .LASF4040
C:\Users\SOLDER~1\AppData\Local\Temp\cc6haz4O.s:30402  .debug_str:000000000002d7e2 .LASF4041
C:\Users\SOLDER~1\AppData\Local\Temp\cc6haz4O.s:22870  .debug_str:000000000000f0b4 .LASF4042
C:\Users\SOLDER~1\AppData\Local\Temp\cc6haz4O.s:30508  .debug_str:000000000002debd .LASF4043
C:\Users\SOLDER~1\AppData\Local\Temp\cc6haz4O.s:27058  .debug_str:000000000001fed6 .LASF4044
C:\Users\SOLDER~1\AppData\Local\Temp\cc6haz4O.s:20558  .debug_str:00000000000059da .LASF4045
C:\Users\SOLDER~1\AppData\Local\Temp\cc6haz4O.s:26504  .debug_str:000000000001dab0 .LASF4046
C:\Users\SOLDER~1\AppData\Local\Temp\cc6haz4O.s:20550  .debug_str:000000000000594d .LASF4047
C:\Users\SOLDER~1\AppData\Local\Temp\cc6haz4O.s:28346  .debug_str:00000000000251d1 .LASF4048
C:\Users\SOLDER~1\AppData\Local\Temp\cc6haz4O.s:23422  .debug_str:00000000000113fa .LASF4049
C:\Users\SOLDER~1\AppData\Local\Temp\cc6haz4O.s:23996  .debug_str:0000000000013901 .LASF4050
C:\Users\SOLDER~1\AppData\Local\Temp\cc6haz4O.s:19854  .debug_str:0000000000002d61 .LASF4051
C:\Users\SOLDER~1\AppData\Local\Temp\cc6haz4O.s:24112  .debug_str:000000000001414c .LASF4052
C:\Users\SOLDER~1\AppData\Local\Temp\cc6haz4O.s:23206  .debug_str:000000000001068f .LASF4053
C:\Users\SOLDER~1\AppData\Local\Temp\cc6haz4O.s:23396  .debug_str:0000000000011271 .LASF4054
C:\Users\SOLDER~1\AppData\Local\Temp\cc6haz4O.s:27744  .debug_str:0000000000022a6b .LASF4055
C:\Users\SOLDER~1\AppData\Local\Temp\cc6haz4O.s:23316  .debug_str:0000000000010d5a .LASF4056
C:\Users\SOLDER~1\AppData\Local\Temp\cc6haz4O.s:19944  .debug_str:0000000000003335 .LASF4057
C:\Users\SOLDER~1\AppData\Local\Temp\cc6haz4O.s:23850  .debug_str:0000000000012f6d .LASF4058
C:\Users\SOLDER~1\AppData\Local\Temp\cc6haz4O.s:23766  .debug_str:00000000000129c6 .LASF4059
C:\Users\SOLDER~1\AppData\Local\Temp\cc6haz4O.s:21428  .debug_str:0000000000009322 .LASF4060
C:\Users\SOLDER~1\AppData\Local\Temp\cc6haz4O.s:20644  .debug_str:0000000000005f7b .LASF4061
C:\Users\SOLDER~1\AppData\Local\Temp\cc6haz4O.s:27298  .debug_str:0000000000020e0c .LASF4062
C:\Users\SOLDER~1\AppData\Local\Temp\cc6haz4O.s:24940  .debug_str:00000000000175f0 .LASF4063
C:\Users\SOLDER~1\AppData\Local\Temp\cc6haz4O.s:27170  .debug_str:00000000000205cc .LASF4064
C:\Users\SOLDER~1\AppData\Local\Temp\cc6haz4O.s:27552  .debug_str:0000000000021e60 .LASF4065
C:\Users\SOLDER~1\AppData\Local\Temp\cc6haz4O.s:27752  .debug_str:0000000000022afc .LASF4066
C:\Users\SOLDER~1\AppData\Local\Temp\cc6haz4O.s:23720  .debug_str:0000000000012707 .LASF4067
C:\Users\SOLDER~1\AppData\Local\Temp\cc6haz4O.s:27884  .debug_str:00000000000233a2 .LASF4068
C:\Users\SOLDER~1\AppData\Local\Temp\cc6haz4O.s:20696  .debug_str:00000000000062fa .LASF4069
C:\Users\SOLDER~1\AppData\Local\Temp\cc6haz4O.s:28032  .debug_str:0000000000023d27 .LASF4070
C:\Users\SOLDER~1\AppData\Local\Temp\cc6haz4O.s:25228  .debug_str:000000000001886e .LASF4071
C:\Users\SOLDER~1\AppData\Local\Temp\cc6haz4O.s:27532  .debug_str:0000000000021d1a .LASF4072
C:\Users\SOLDER~1\AppData\Local\Temp\cc6haz4O.s:19682  .debug_str:0000000000002221 .LASF4073
C:\Users\SOLDER~1\AppData\Local\Temp\cc6haz4O.s:28654  .debug_str:00000000000266a0 .LASF4074
C:\Users\SOLDER~1\AppData\Local\Temp\cc6haz4O.s:27636  .debug_str:000000000002233d .LASF4075
C:\Users\SOLDER~1\AppData\Local\Temp\cc6haz4O.s:23842  .debug_str:0000000000012ee1 .LASF4076
C:\Users\SOLDER~1\AppData\Local\Temp\cc6haz4O.s:28454  .debug_str:000000000002589c .LASF4077
C:\Users\SOLDER~1\AppData\Local\Temp\cc6haz4O.s:20088  .debug_str:0000000000003c90 .LASF4078
C:\Users\SOLDER~1\AppData\Local\Temp\cc6haz4O.s:23028  .debug_str:000000000000fb01 .LASF4079
C:\Users\SOLDER~1\AppData\Local\Temp\cc6haz4O.s:21940  .debug_str:000000000000b43c .LASF4080
C:\Users\SOLDER~1\AppData\Local\Temp\cc6haz4O.s:20360  .debug_str:0000000000004db7 .LASF4081
GAS LISTING C:\Users\SOLDER~1\AppData\Local\Temp\cc6haz4O.s 			page 94


C:\Users\SOLDER~1\AppData\Local\Temp\cc6haz4O.s:28994  .debug_str:0000000000027cda .LASF4082
C:\Users\SOLDER~1\AppData\Local\Temp\cc6haz4O.s:21532  .debug_str:00000000000099ac .LASF4083
C:\Users\SOLDER~1\AppData\Local\Temp\cc6haz4O.s:30006  .debug_str:000000000002be1a .LASF4084
C:\Users\SOLDER~1\AppData\Local\Temp\cc6haz4O.s:27882  .debug_str:0000000000023385 .LASF4085
C:\Users\SOLDER~1\AppData\Local\Temp\cc6haz4O.s:29170  .debug_str:000000000002885c .LASF4086
C:\Users\SOLDER~1\AppData\Local\Temp\cc6haz4O.s:26160  .debug_str:000000000001c46a .LASF4087
C:\Users\SOLDER~1\AppData\Local\Temp\cc6haz4O.s:24268  .debug_str:0000000000014be0 .LASF4088
C:\Users\SOLDER~1\AppData\Local\Temp\cc6haz4O.s:20174  .debug_str:00000000000041d1 .LASF4089
C:\Users\SOLDER~1\AppData\Local\Temp\cc6haz4O.s:25948  .debug_str:000000000001b69a .LASF4090
C:\Users\SOLDER~1\AppData\Local\Temp\cc6haz4O.s:29910  .debug_str:000000000002b7fd .LASF4091
C:\Users\SOLDER~1\AppData\Local\Temp\cc6haz4O.s:30758  .debug_str:000000000002eebd .LASF4092
C:\Users\SOLDER~1\AppData\Local\Temp\cc6haz4O.s:20962  .debug_str:0000000000007498 .LASF4093
C:\Users\SOLDER~1\AppData\Local\Temp\cc6haz4O.s:30218  .debug_str:000000000002cbf3 .LASF4094
C:\Users\SOLDER~1\AppData\Local\Temp\cc6haz4O.s:30472  .debug_str:000000000002dc4d .LASF4095
C:\Users\SOLDER~1\AppData\Local\Temp\cc6haz4O.s:25146  .debug_str:0000000000018378 .LASF4096
C:\Users\SOLDER~1\AppData\Local\Temp\cc6haz4O.s:19500  .debug_str:0000000000001657 .LASF4097
C:\Users\SOLDER~1\AppData\Local\Temp\cc6haz4O.s:20314  .debug_str:0000000000004ac6 .LASF4098
C:\Users\SOLDER~1\AppData\Local\Temp\cc6haz4O.s:20140  .debug_str:0000000000003fde .LASF4099
C:\Users\SOLDER~1\AppData\Local\Temp\cc6haz4O.s:25220  .debug_str:00000000000187fd .LASF4100
C:\Users\SOLDER~1\AppData\Local\Temp\cc6haz4O.s:29764  .debug_str:000000000002aeca .LASF4101
C:\Users\SOLDER~1\AppData\Local\Temp\cc6haz4O.s:24306  .debug_str:0000000000014e71 .LASF4102
C:\Users\SOLDER~1\AppData\Local\Temp\cc6haz4O.s:20310  .debug_str:0000000000004a93 .LASF4103
C:\Users\SOLDER~1\AppData\Local\Temp\cc6haz4O.s:22536  .debug_str:000000000000db2a .LASF4104
C:\Users\SOLDER~1\AppData\Local\Temp\cc6haz4O.s:21728  .debug_str:000000000000a682 .LASF4105
C:\Users\SOLDER~1\AppData\Local\Temp\cc6haz4O.s:21648  .debug_str:000000000000a124 .LASF4106
C:\Users\SOLDER~1\AppData\Local\Temp\cc6haz4O.s:30396  .debug_str:000000000002d76f .LASF4107
C:\Users\SOLDER~1\AppData\Local\Temp\cc6haz4O.s:25286  .debug_str:0000000000018c3e .LASF4108
C:\Users\SOLDER~1\AppData\Local\Temp\cc6haz4O.s:30646  .debug_str:000000000002e77a .LASF4109
C:\Users\SOLDER~1\AppData\Local\Temp\cc6haz4O.s:20148  .debug_str:000000000000404f .LASF4110
C:\Users\SOLDER~1\AppData\Local\Temp\cc6haz4O.s:27692  .debug_str:00000000000226eb .LASF4111
C:\Users\SOLDER~1\AppData\Local\Temp\cc6haz4O.s:23224  .debug_str:0000000000010799 .LASF4112
C:\Users\SOLDER~1\AppData\Local\Temp\cc6haz4O.s:25236  .debug_str:00000000000188e7 .LASF4113
C:\Users\SOLDER~1\AppData\Local\Temp\cc6haz4O.s:27442  .debug_str:0000000000021758 .LASF4114
C:\Users\SOLDER~1\AppData\Local\Temp\cc6haz4O.s:25480  .debug_str:00000000000198bc .LASF4115
C:\Users\SOLDER~1\AppData\Local\Temp\cc6haz4O.s:23006  .debug_str:000000000000f958 .LASF4116
C:\Users\SOLDER~1\AppData\Local\Temp\cc6haz4O.s:30424  .debug_str:000000000002d95b .LASF4117
C:\Users\SOLDER~1\AppData\Local\Temp\cc6haz4O.s:29838  .debug_str:000000000002b39a .LASF4118
C:\Users\SOLDER~1\AppData\Local\Temp\cc6haz4O.s:20886  .debug_str:0000000000006f70 .LASF4119
C:\Users\SOLDER~1\AppData\Local\Temp\cc6haz4O.s:28916  .debug_str:0000000000027822 .LASF4120
C:\Users\SOLDER~1\AppData\Local\Temp\cc6haz4O.s:23366  .debug_str:0000000000011080 .LASF4121
C:\Users\SOLDER~1\AppData\Local\Temp\cc6haz4O.s:20482  .debug_str:00000000000054dc .LASF4122
C:\Users\SOLDER~1\AppData\Local\Temp\cc6haz4O.s:20818  .debug_str:0000000000006b16 .LASF4123
C:\Users\SOLDER~1\AppData\Local\Temp\cc6haz4O.s:24544  .debug_str:0000000000015d31 .LASF4124
C:\Users\SOLDER~1\AppData\Local\Temp\cc6haz4O.s:21958  .debug_str:000000000000b57a .LASF4125
C:\Users\SOLDER~1\AppData\Local\Temp\cc6haz4O.s:19610  .debug_str:0000000000001d60 .LASF4126
C:\Users\SOLDER~1\AppData\Local\Temp\cc6haz4O.s:24346  .debug_str:00000000000150f0 .LASF4127
C:\Users\SOLDER~1\AppData\Local\Temp\cc6haz4O.s:22110  .debug_str:000000000000befa .LASF4128
C:\Users\SOLDER~1\AppData\Local\Temp\cc6haz4O.s:29532  .debug_str:0000000000029fc4 .LASF4129
C:\Users\SOLDER~1\AppData\Local\Temp\cc6haz4O.s:19782  .debug_str:00000000000028b6 .LASF4130
C:\Users\SOLDER~1\AppData\Local\Temp\cc6haz4O.s:21760  .debug_str:000000000000a8d6 .LASF4131
C:\Users\SOLDER~1\AppData\Local\Temp\cc6haz4O.s:26544  .debug_str:000000000001dd50 .LASF4132
C:\Users\SOLDER~1\AppData\Local\Temp\cc6haz4O.s:22388  .debug_str:000000000000d197 .LASF4133
C:\Users\SOLDER~1\AppData\Local\Temp\cc6haz4O.s:20520  .debug_str:000000000000571d .LASF4134
C:\Users\SOLDER~1\AppData\Local\Temp\cc6haz4O.s:23158  .debug_str:000000000001035d .LASF4135
C:\Users\SOLDER~1\AppData\Local\Temp\cc6haz4O.s:28888  .debug_str:0000000000027676 .LASF4136
C:\Users\SOLDER~1\AppData\Local\Temp\cc6haz4O.s:27916  .debug_str:00000000000235f5 .LASF4137
C:\Users\SOLDER~1\AppData\Local\Temp\cc6haz4O.s:30698  .debug_str:000000000002eb02 .LASF4138
GAS LISTING C:\Users\SOLDER~1\AppData\Local\Temp\cc6haz4O.s 			page 95


C:\Users\SOLDER~1\AppData\Local\Temp\cc6haz4O.s:24234  .debug_str:0000000000014970 .LASF4139
C:\Users\SOLDER~1\AppData\Local\Temp\cc6haz4O.s:21016  .debug_str:0000000000007806 .LASF4140
C:\Users\SOLDER~1\AppData\Local\Temp\cc6haz4O.s:27986  .debug_str:0000000000023a54 .LASF4141
C:\Users\SOLDER~1\AppData\Local\Temp\cc6haz4O.s:21174  .debug_str:0000000000008257 .LASF4142
C:\Users\SOLDER~1\AppData\Local\Temp\cc6haz4O.s:29566  .debug_str:000000000002a1e0 .LASF4143
C:\Users\SOLDER~1\AppData\Local\Temp\cc6haz4O.s:28134  .debug_str:00000000000243dc .LASF4144
C:\Users\SOLDER~1\AppData\Local\Temp\cc6haz4O.s:24382  .debug_str:0000000000015325 .LASF4145
C:\Users\SOLDER~1\AppData\Local\Temp\cc6haz4O.s:22684  .debug_str:000000000000e4e1 .LASF4146
C:\Users\SOLDER~1\AppData\Local\Temp\cc6haz4O.s:27722  .debug_str:00000000000228ea .LASF4147
C:\Users\SOLDER~1\AppData\Local\Temp\cc6haz4O.s:27918  .debug_str:0000000000023608 .LASF4148
C:\Users\SOLDER~1\AppData\Local\Temp\cc6haz4O.s:19882  .debug_str:0000000000002f3a .LASF4149
C:\Users\SOLDER~1\AppData\Local\Temp\cc6haz4O.s:27184  .debug_str:00000000000206ca .LASF4150
C:\Users\SOLDER~1\AppData\Local\Temp\cc6haz4O.s:29996  .debug_str:000000000002bd64 .LASF4151
C:\Users\SOLDER~1\AppData\Local\Temp\cc6haz4O.s:27416  .debug_str:0000000000021598 .LASF4152
C:\Users\SOLDER~1\AppData\Local\Temp\cc6haz4O.s:26098  .debug_str:000000000001c034 .LASF4153
C:\Users\SOLDER~1\AppData\Local\Temp\cc6haz4O.s:20328  .debug_str:0000000000004b8d .LASF4154
C:\Users\SOLDER~1\AppData\Local\Temp\cc6haz4O.s:19740  .debug_str:000000000000260e .LASF4155
C:\Users\SOLDER~1\AppData\Local\Temp\cc6haz4O.s:21840  .debug_str:000000000000adf0 .LASF4156
C:\Users\SOLDER~1\AppData\Local\Temp\cc6haz4O.s:21898  .debug_str:000000000000b1bb .LASF4157
C:\Users\SOLDER~1\AppData\Local\Temp\cc6haz4O.s:29638  .debug_str:000000000002a6b3 .LASF4158
C:\Users\SOLDER~1\AppData\Local\Temp\cc6haz4O.s:27638  .debug_str:0000000000022358 .LASF4159
C:\Users\SOLDER~1\AppData\Local\Temp\cc6haz4O.s:25506  .debug_str:0000000000019a4b .LASF4160
C:\Users\SOLDER~1\AppData\Local\Temp\cc6haz4O.s:19778  .debug_str:0000000000002872 .LASF4161
C:\Users\SOLDER~1\AppData\Local\Temp\cc6haz4O.s:23680  .debug_str:000000000001244f .LASF4162
C:\Users\SOLDER~1\AppData\Local\Temp\cc6haz4O.s:27164  .debug_str:000000000002056b .LASF4163
C:\Users\SOLDER~1\AppData\Local\Temp\cc6haz4O.s:24706  .debug_str:0000000000016755 .LASF4164
C:\Users\SOLDER~1\AppData\Local\Temp\cc6haz4O.s:21788  .debug_str:000000000000aa97 .LASF4165
C:\Users\SOLDER~1\AppData\Local\Temp\cc6haz4O.s:27960  .debug_str:00000000000238b5 .LASF4166
C:\Users\SOLDER~1\AppData\Local\Temp\cc6haz4O.s:28480  .debug_str:0000000000025a7b .LASF4167
C:\Users\SOLDER~1\AppData\Local\Temp\cc6haz4O.s:29048  .debug_str:000000000002808c .LASF4168
C:\Users\SOLDER~1\AppData\Local\Temp\cc6haz4O.s:26816  .debug_str:000000000001ef39 .LASF4169
C:\Users\SOLDER~1\AppData\Local\Temp\cc6haz4O.s:29962  .debug_str:000000000002bb4d .LASF4170
C:\Users\SOLDER~1\AppData\Local\Temp\cc6haz4O.s:26048  .debug_str:000000000001bcf6 .LASF4171
C:\Users\SOLDER~1\AppData\Local\Temp\cc6haz4O.s:29262  .debug_str:0000000000028e4f .LASF4172
C:\Users\SOLDER~1\AppData\Local\Temp\cc6haz4O.s:30354  .debug_str:000000000002d4ed .LASF4173
C:\Users\SOLDER~1\AppData\Local\Temp\cc6haz4O.s:20406  .debug_str:0000000000005057 .LASF4174
C:\Users\SOLDER~1\AppData\Local\Temp\cc6haz4O.s:30598  .debug_str:000000000002e44e .LASF4175
C:\Users\SOLDER~1\AppData\Local\Temp\cc6haz4O.s:26952  .debug_str:000000000001f855 .LASF4176
C:\Users\SOLDER~1\AppData\Local\Temp\cc6haz4O.s:28928  .debug_str:00000000000278f0 .LASF4177
C:\Users\SOLDER~1\AppData\Local\Temp\cc6haz4O.s:28428  .debug_str:00000000000256ff .LASF4178
C:\Users\SOLDER~1\AppData\Local\Temp\cc6haz4O.s:22938  .debug_str:000000000000f4e7 .LASF4179
C:\Users\SOLDER~1\AppData\Local\Temp\cc6haz4O.s:25576  .debug_str:0000000000019eb8 .LASF4180
C:\Users\SOLDER~1\AppData\Local\Temp\cc6haz4O.s:20640  .debug_str:0000000000005f38 .LASF4181
C:\Users\SOLDER~1\AppData\Local\Temp\cc6haz4O.s:20254  .debug_str:00000000000046c5 .LASF4182
C:\Users\SOLDER~1\AppData\Local\Temp\cc6haz4O.s:20918  .debug_str:00000000000071c1 .LASF4183
C:\Users\SOLDER~1\AppData\Local\Temp\cc6haz4O.s:28318  .debug_str:0000000000024ff8 .LASF4184
C:\Users\SOLDER~1\AppData\Local\Temp\cc6haz4O.s:24122  .debug_str:00000000000141d9 .LASF4185
C:\Users\SOLDER~1\AppData\Local\Temp\cc6haz4O.s:30492  .debug_str:000000000002dda1 .LASF4186
C:\Users\SOLDER~1\AppData\Local\Temp\cc6haz4O.s:27530  .debug_str:0000000000021cfe .LASF4187
C:\Users\SOLDER~1\AppData\Local\Temp\cc6haz4O.s:21124  .debug_str:0000000000007ed8 .LASF4188
C:\Users\SOLDER~1\AppData\Local\Temp\cc6haz4O.s:26740  .debug_str:000000000001ea38 .LASF4189
C:\Users\SOLDER~1\AppData\Local\Temp\cc6haz4O.s:21022  .debug_str:0000000000007848 .LASF4190
C:\Users\SOLDER~1\AppData\Local\Temp\cc6haz4O.s:20814  .debug_str:0000000000006ae7 .LASF4191
C:\Users\SOLDER~1\AppData\Local\Temp\cc6haz4O.s:29308  .debug_str:0000000000029134 .LASF4192
C:\Users\SOLDER~1\AppData\Local\Temp\cc6haz4O.s:19664  .debug_str:00000000000020bf .LASF4193
C:\Users\SOLDER~1\AppData\Local\Temp\cc6haz4O.s:28390  .debug_str:0000000000025492 .LASF4194
C:\Users\SOLDER~1\AppData\Local\Temp\cc6haz4O.s:22286  .debug_str:000000000000caa9 .LASF4195
GAS LISTING C:\Users\SOLDER~1\AppData\Local\Temp\cc6haz4O.s 			page 96


C:\Users\SOLDER~1\AppData\Local\Temp\cc6haz4O.s:30294  .debug_str:000000000002d0c7 .LASF4196
C:\Users\SOLDER~1\AppData\Local\Temp\cc6haz4O.s:19298  .debug_str:0000000000000935 .LASF4197
C:\Users\SOLDER~1\AppData\Local\Temp\cc6haz4O.s:24104  .debug_str:00000000000140b5 .LASF4198
C:\Users\SOLDER~1\AppData\Local\Temp\cc6haz4O.s:24084  .debug_str:0000000000013f5d .LASF4199
C:\Users\SOLDER~1\AppData\Local\Temp\cc6haz4O.s:21804  .debug_str:000000000000abc5 .LASF4200
C:\Users\SOLDER~1\AppData\Local\Temp\cc6haz4O.s:21610  .debug_str:0000000000009eb5 .LASF4201
C:\Users\SOLDER~1\AppData\Local\Temp\cc6haz4O.s:28514  .debug_str:0000000000025cc7 .LASF4202
C:\Users\SOLDER~1\AppData\Local\Temp\cc6haz4O.s:23258  .debug_str:00000000000109c0 .LASF4203
C:\Users\SOLDER~1\AppData\Local\Temp\cc6haz4O.s:21808  .debug_str:000000000000ac07 .LASF4204
C:\Users\SOLDER~1\AppData\Local\Temp\cc6haz4O.s:24062  .debug_str:0000000000013dcf .LASF4205
C:\Users\SOLDER~1\AppData\Local\Temp\cc6haz4O.s:25384  .debug_str:000000000001926e .LASF4206
C:\Users\SOLDER~1\AppData\Local\Temp\cc6haz4O.s:20708  .debug_str:00000000000063bb .LASF4207
C:\Users\SOLDER~1\AppData\Local\Temp\cc6haz4O.s:23942  .debug_str:0000000000013550 .LASF4208
C:\Users\SOLDER~1\AppData\Local\Temp\cc6haz4O.s:21260  .debug_str:00000000000087c2 .LASF4209
C:\Users\SOLDER~1\AppData\Local\Temp\cc6haz4O.s:29416  .debug_str:000000000002985f .LASF4210
C:\Users\SOLDER~1\AppData\Local\Temp\cc6haz4O.s:29414  .debug_str:0000000000029841 .LASF4211
C:\Users\SOLDER~1\AppData\Local\Temp\cc6haz4O.s:19562  .debug_str:0000000000001a0d .LASF4212
C:\Users\SOLDER~1\AppData\Local\Temp\cc6haz4O.s:27368  .debug_str:0000000000021293 .LASF4213
C:\Users\SOLDER~1\AppData\Local\Temp\cc6haz4O.s:28962  .debug_str:0000000000027b05 .LASF4214
C:\Users\SOLDER~1\AppData\Local\Temp\cc6haz4O.s:26296  .debug_str:000000000001cd62 .LASF4215
C:\Users\SOLDER~1\AppData\Local\Temp\cc6haz4O.s:24484  .debug_str:0000000000015992 .LASF4216
C:\Users\SOLDER~1\AppData\Local\Temp\cc6haz4O.s:24924  .debug_str:00000000000174f3 .LASF4217
C:\Users\SOLDER~1\AppData\Local\Temp\cc6haz4O.s:19218  .debug_str:0000000000000345 .LASF4218
C:\Users\SOLDER~1\AppData\Local\Temp\cc6haz4O.s:24224  .debug_str:00000000000148e1 .LASF4219
C:\Users\SOLDER~1\AppData\Local\Temp\cc6haz4O.s:29186  .debug_str:000000000002898e .LASF4220
C:\Users\SOLDER~1\AppData\Local\Temp\cc6haz4O.s:30262  .debug_str:000000000002ce94 .LASF4221
C:\Users\SOLDER~1\AppData\Local\Temp\cc6haz4O.s:29512  .debug_str:0000000000029e4c .LASF4222
C:\Users\SOLDER~1\AppData\Local\Temp\cc6haz4O.s:26980  .debug_str:000000000001fa22 .LASF4223
C:\Users\SOLDER~1\AppData\Local\Temp\cc6haz4O.s:29436  .debug_str:0000000000029990 .LASF4224
C:\Users\SOLDER~1\AppData\Local\Temp\cc6haz4O.s:25246  .debug_str:0000000000018996 .LASF4225
C:\Users\SOLDER~1\AppData\Local\Temp\cc6haz4O.s:23248  .debug_str:0000000000010911 .LASF4226
C:\Users\SOLDER~1\AppData\Local\Temp\cc6haz4O.s:21914  .debug_str:000000000000b290 .LASF4227
C:\Users\SOLDER~1\AppData\Local\Temp\cc6haz4O.s:21988  .debug_str:000000000000b77d .LASF4228
C:\Users\SOLDER~1\AppData\Local\Temp\cc6haz4O.s:24356  .debug_str:0000000000015179 .LASF4229
C:\Users\SOLDER~1\AppData\Local\Temp\cc6haz4O.s:21862  .debug_str:000000000000af7d .LASF4230
C:\Users\SOLDER~1\AppData\Local\Temp\cc6haz4O.s:21190  .debug_str:0000000000008359 .LASF4231
C:\Users\SOLDER~1\AppData\Local\Temp\cc6haz4O.s:25736  .debug_str:000000000001a8e3 .LASF4232
C:\Users\SOLDER~1\AppData\Local\Temp\cc6haz4O.s:23298  .debug_str:0000000000010c4d .LASF4233
C:\Users\SOLDER~1\AppData\Local\Temp\cc6haz4O.s:29824  .debug_str:000000000002b2c3 .LASF4234
C:\Users\SOLDER~1\AppData\Local\Temp\cc6haz4O.s:21204  .debug_str:000000000000844c .LASF4235
C:\Users\SOLDER~1\AppData\Local\Temp\cc6haz4O.s:23854  .debug_str:0000000000012f92 .LASF4236
C:\Users\SOLDER~1\AppData\Local\Temp\cc6haz4O.s:20776  .debug_str:0000000000006827 .LASF4237
C:\Users\SOLDER~1\AppData\Local\Temp\cc6haz4O.s:19266  .debug_str:0000000000000655 .LASF4238
C:\Users\SOLDER~1\AppData\Local\Temp\cc6haz4O.s:19936  .debug_str:00000000000032c2 .LASF4239
C:\Users\SOLDER~1\AppData\Local\Temp\cc6haz4O.s:28126  .debug_str:000000000002435a .LASF4240
C:\Users\SOLDER~1\AppData\Local\Temp\cc6haz4O.s:19908  .debug_str:00000000000030ed .LASF4241
C:\Users\SOLDER~1\AppData\Local\Temp\cc6haz4O.s:27046  .debug_str:000000000001fe1d .LASF4242
C:\Users\SOLDER~1\AppData\Local\Temp\cc6haz4O.s:22838  .debug_str:000000000000ee90 .LASF4243
C:\Users\SOLDER~1\AppData\Local\Temp\cc6haz4O.s:21828  .debug_str:000000000000ad3b .LASF4244
C:\Users\SOLDER~1\AppData\Local\Temp\cc6haz4O.s:27318  .debug_str:0000000000020f43 .LASF4245
C:\Users\SOLDER~1\AppData\Local\Temp\cc6haz4O.s:19846  .debug_str:0000000000002cd2 .LASF4246
C:\Users\SOLDER~1\AppData\Local\Temp\cc6haz4O.s:26884  .debug_str:000000000001f3c1 .LASF4247
C:\Users\SOLDER~1\AppData\Local\Temp\cc6haz4O.s:23314  .debug_str:0000000000010d3e .LASF4248
C:\Users\SOLDER~1\AppData\Local\Temp\cc6haz4O.s:19704  .debug_str:0000000000002394 .LASF4249
C:\Users\SOLDER~1\AppData\Local\Temp\cc6haz4O.s:24456  .debug_str:000000000001581a .LASF4250
C:\Users\SOLDER~1\AppData\Local\Temp\cc6haz4O.s:27254  .debug_str:0000000000020b47 .LASF4251
C:\Users\SOLDER~1\AppData\Local\Temp\cc6haz4O.s:29740  .debug_str:000000000002ad37 .LASF4252
GAS LISTING C:\Users\SOLDER~1\AppData\Local\Temp\cc6haz4O.s 			page 97


C:\Users\SOLDER~1\AppData\Local\Temp\cc6haz4O.s:25022  .debug_str:0000000000017b31 .LASF4253
C:\Users\SOLDER~1\AppData\Local\Temp\cc6haz4O.s:24532  .debug_str:0000000000015c7c .LASF4254
C:\Users\SOLDER~1\AppData\Local\Temp\cc6haz4O.s:22784  .debug_str:000000000000eb46 .LASF4255
C:\Users\SOLDER~1\AppData\Local\Temp\cc6haz4O.s:29440  .debug_str:00000000000299cc .LASF4256
C:\Users\SOLDER~1\AppData\Local\Temp\cc6haz4O.s:20168  .debug_str:0000000000004178 .LASF4257
C:\Users\SOLDER~1\AppData\Local\Temp\cc6haz4O.s:27314  .debug_str:0000000000020f04 .LASF4258
C:\Users\SOLDER~1\AppData\Local\Temp\cc6haz4O.s:20672  .debug_str:000000000000613b .LASF4259
C:\Users\SOLDER~1\AppData\Local\Temp\cc6haz4O.s:23534  .debug_str:0000000000011b38 .LASF4260
C:\Users\SOLDER~1\AppData\Local\Temp\cc6haz4O.s:25382  .debug_str:0000000000019250 .LASF4261
C:\Users\SOLDER~1\AppData\Local\Temp\cc6haz4O.s:28210  .debug_str:00000000000248e0 .LASF4262
C:\Users\SOLDER~1\AppData\Local\Temp\cc6haz4O.s:27478  .debug_str:000000000002199e .LASF4263
C:\Users\SOLDER~1\AppData\Local\Temp\cc6haz4O.s:30564  .debug_str:000000000002e233 .LASF4264
C:\Users\SOLDER~1\AppData\Local\Temp\cc6haz4O.s:28960  .debug_str:0000000000027aea .LASF4265
C:\Users\SOLDER~1\AppData\Local\Temp\cc6haz4O.s:29780  .debug_str:000000000002afb0 .LASF4266
C:\Users\SOLDER~1\AppData\Local\Temp\cc6haz4O.s:29256  .debug_str:0000000000028dfe .LASF4267
C:\Users\SOLDER~1\AppData\Local\Temp\cc6haz4O.s:26468  .debug_str:000000000001d8a9 .LASF4268
C:\Users\SOLDER~1\AppData\Local\Temp\cc6haz4O.s:19406  .debug_str:000000000000104c .LASF4269
C:\Users\SOLDER~1\AppData\Local\Temp\cc6haz4O.s:27390  .debug_str:0000000000021408 .LASF4270
C:\Users\SOLDER~1\AppData\Local\Temp\cc6haz4O.s:21176  .debug_str:000000000000826b .LASF4271
C:\Users\SOLDER~1\AppData\Local\Temp\cc6haz4O.s:20426  .debug_str:0000000000005189 .LASF4272
C:\Users\SOLDER~1\AppData\Local\Temp\cc6haz4O.s:28844  .debug_str:0000000000027386 .LASF4273
C:\Users\SOLDER~1\AppData\Local\Temp\cc6haz4O.s:19274  .debug_str:0000000000000763 .LASF4274
C:\Users\SOLDER~1\AppData\Local\Temp\cc6haz4O.s:28436  .debug_str:0000000000025765 .LASF4275
C:\Users\SOLDER~1\AppData\Local\Temp\cc6haz4O.s:20220  .debug_str:00000000000044c8 .LASF4276
C:\Users\SOLDER~1\AppData\Local\Temp\cc6haz4O.s:22502  .debug_str:000000000000d904 .LASF4277
C:\Users\SOLDER~1\AppData\Local\Temp\cc6haz4O.s:21222  .debug_str:0000000000008567 .LASF4278
C:\Users\SOLDER~1\AppData\Local\Temp\cc6haz4O.s:30036  .debug_str:000000000002c00f .LASF4279
C:\Users\SOLDER~1\AppData\Local\Temp\cc6haz4O.s:23358  .debug_str:000000000001100b .LASF4280
C:\Users\SOLDER~1\AppData\Local\Temp\cc6haz4O.s:19228  .debug_str:00000000000003f7 .LASF4281
C:\Users\SOLDER~1\AppData\Local\Temp\cc6haz4O.s:25296  .debug_str:0000000000018ccb .LASF4282
C:\Users\SOLDER~1\AppData\Local\Temp\cc6haz4O.s:24226  .debug_str:00000000000148f4 .LASF4283
C:\Users\SOLDER~1\AppData\Local\Temp\cc6haz4O.s:20972  .debug_str:0000000000007547 .LASF4284
C:\Users\SOLDER~1\AppData\Local\Temp\cc6haz4O.s:22214  .debug_str:000000000000c5eb .LASF4285
C:\Users\SOLDER~1\AppData\Local\Temp\cc6haz4O.s:25210  .debug_str:0000000000018787 .LASF4286
C:\Users\SOLDER~1\AppData\Local\Temp\cc6haz4O.s:24136  .debug_str:00000000000142c5 .LASF4287
C:\Users\SOLDER~1\AppData\Local\Temp\cc6haz4O.s:27574  .debug_str:0000000000021fbc .LASF4288
C:\Users\SOLDER~1\AppData\Local\Temp\cc6haz4O.s:26656  .debug_str:000000000001e4b9 .LASF4289
C:\Users\SOLDER~1\AppData\Local\Temp\cc6haz4O.s:23362  .debug_str:0000000000011052 .LASF4290
C:\Users\SOLDER~1\AppData\Local\Temp\cc6haz4O.s:24420  .debug_str:00000000000155b6 .LASF4291
C:\Users\SOLDER~1\AppData\Local\Temp\cc6haz4O.s:19462  .debug_str:00000000000013e7 .LASF4292
C:\Users\SOLDER~1\AppData\Local\Temp\cc6haz4O.s:25514  .debug_str:0000000000019abc .LASF4293
C:\Users\SOLDER~1\AppData\Local\Temp\cc6haz4O.s:26112  .debug_str:000000000001c10d .LASF4294
C:\Users\SOLDER~1\AppData\Local\Temp\cc6haz4O.s:27304  .debug_str:0000000000020e48 .LASF4295
C:\Users\SOLDER~1\AppData\Local\Temp\cc6haz4O.s:28828  .debug_str:0000000000027275 .LASF4296
C:\Users\SOLDER~1\AppData\Local\Temp\cc6haz4O.s:22806  .debug_str:000000000000ec63 .LASF4297
C:\Users\SOLDER~1\AppData\Local\Temp\cc6haz4O.s:23958  .debug_str:0000000000013668 .LASF4298
C:\Users\SOLDER~1\AppData\Local\Temp\cc6haz4O.s:20490  .debug_str:0000000000005556 .LASF4299
C:\Users\SOLDER~1\AppData\Local\Temp\cc6haz4O.s:22580  .debug_str:000000000000dde9 .LASF4300
C:\Users\SOLDER~1\AppData\Local\Temp\cc6haz4O.s:21310  .debug_str:0000000000008b10 .LASF4301
C:\Users\SOLDER~1\AppData\Local\Temp\cc6haz4O.s:25128  .debug_str:0000000000018257 .LASF4302
C:\Users\SOLDER~1\AppData\Local\Temp\cc6haz4O.s:30498  .debug_str:000000000002ddf6 .LASF4303
C:\Users\SOLDER~1\AppData\Local\Temp\cc6haz4O.s:19684  .debug_str:000000000000223c .LASF4304
C:\Users\SOLDER~1\AppData\Local\Temp\cc6haz4O.s:28764  .debug_str:0000000000026e31 .LASF4305
C:\Users\SOLDER~1\AppData\Local\Temp\cc6haz4O.s:28624  .debug_str:00000000000264a4 .LASF4306
C:\Users\SOLDER~1\AppData\Local\Temp\cc6haz4O.s:28326  .debug_str:0000000000025070 .LASF4307
C:\Users\SOLDER~1\AppData\Local\Temp\cc6haz4O.s:26824  .debug_str:000000000001efb3 .LASF4308
C:\Users\SOLDER~1\AppData\Local\Temp\cc6haz4O.s:30616  .debug_str:000000000002e571 .LASF4309
GAS LISTING C:\Users\SOLDER~1\AppData\Local\Temp\cc6haz4O.s 			page 98


C:\Users\SOLDER~1\AppData\Local\Temp\cc6haz4O.s:22106  .debug_str:000000000000bec6 .LASF4310
C:\Users\SOLDER~1\AppData\Local\Temp\cc6haz4O.s:23114  .debug_str:00000000000100af .LASF4311
C:\Users\SOLDER~1\AppData\Local\Temp\cc6haz4O.s:20534  .debug_str:000000000000580a .LASF4312
C:\Users\SOLDER~1\AppData\Local\Temp\cc6haz4O.s:26002  .debug_str:000000000001b9e5 .LASF4313
C:\Users\SOLDER~1\AppData\Local\Temp\cc6haz4O.s:19534  .debug_str:0000000000001887 .LASF4314
C:\Users\SOLDER~1\AppData\Local\Temp\cc6haz4O.s:24700  .debug_str:0000000000016702 .LASF4315
C:\Users\SOLDER~1\AppData\Local\Temp\cc6haz4O.s:24322  .debug_str:0000000000014f72 .LASF4316
C:\Users\SOLDER~1\AppData\Local\Temp\cc6haz4O.s:21084  .debug_str:0000000000007c30 .LASF4317
C:\Users\SOLDER~1\AppData\Local\Temp\cc6haz4O.s:24586  .debug_str:0000000000015fda .LASF4318
C:\Users\SOLDER~1\AppData\Local\Temp\cc6haz4O.s:20662  .debug_str:000000000000607c .LASF4319
C:\Users\SOLDER~1\AppData\Local\Temp\cc6haz4O.s:29982  .debug_str:000000000002bc7b .LASF4320
C:\Users\SOLDER~1\AppData\Local\Temp\cc6haz4O.s:29044  .debug_str:000000000002804a .LASF4321
C:\Users\SOLDER~1\AppData\Local\Temp\cc6haz4O.s:27534  .debug_str:0000000000021d2c .LASF4322
C:\Users\SOLDER~1\AppData\Local\Temp\cc6haz4O.s:30196  .debug_str:000000000002ca7f .LASF4323
C:\Users\SOLDER~1\AppData\Local\Temp\cc6haz4O.s:19626  .debug_str:0000000000001e4d .LASF4324
C:\Users\SOLDER~1\AppData\Local\Temp\cc6haz4O.s:30578  .debug_str:000000000002e323 .LASF4325
C:\Users\SOLDER~1\AppData\Local\Temp\cc6haz4O.s:23454  .debug_str:000000000001162b .LASF4326
C:\Users\SOLDER~1\AppData\Local\Temp\cc6haz4O.s:21130  .debug_str:0000000000007f46 .LASF4327
C:\Users\SOLDER~1\AppData\Local\Temp\cc6haz4O.s:30478  .debug_str:000000000002dcb8 .LASF4328
C:\Users\SOLDER~1\AppData\Local\Temp\cc6haz4O.s:27734  .debug_str:00000000000229ae .LASF4329
C:\Users\SOLDER~1\AppData\Local\Temp\cc6haz4O.s:26950  .debug_str:000000000001f83a .LASF4330
C:\Users\SOLDER~1\AppData\Local\Temp\cc6haz4O.s:26170  .debug_str:000000000001c4f8 .LASF4331
C:\Users\SOLDER~1\AppData\Local\Temp\cc6haz4O.s:23904  .debug_str:00000000000132ac .LASF4332
C:\Users\SOLDER~1\AppData\Local\Temp\cc6haz4O.s:26960  .debug_str:000000000001f8d2 .LASF4333
C:\Users\SOLDER~1\AppData\Local\Temp\cc6haz4O.s:23700  .debug_str:0000000000012584 .LASF4334
C:\Users\SOLDER~1\AppData\Local\Temp\cc6haz4O.s:26284  .debug_str:000000000001cc84 .LASF4335
C:\Users\SOLDER~1\AppData\Local\Temp\cc6haz4O.s:25838  .debug_str:000000000001afef .LASF4336
C:\Users\SOLDER~1\AppData\Local\Temp\cc6haz4O.s:20736  .debug_str:0000000000006599 .LASF4337
C:\Users\SOLDER~1\AppData\Local\Temp\cc6haz4O.s:26652  .debug_str:000000000001e47c .LASF4338
C:\Users\SOLDER~1\AppData\Local\Temp\cc6haz4O.s:25526  .debug_str:0000000000019b78 .LASF4339
C:\Users\SOLDER~1\AppData\Local\Temp\cc6haz4O.s:26220  .debug_str:000000000001c833 .LASF4340
C:\Users\SOLDER~1\AppData\Local\Temp\cc6haz4O.s:25010  .debug_str:0000000000017a5d .LASF4341
C:\Users\SOLDER~1\AppData\Local\Temp\cc6haz4O.s:26464  .debug_str:000000000001d869 .LASF4342
C:\Users\SOLDER~1\AppData\Local\Temp\cc6haz4O.s:24820  .debug_str:0000000000016e39 .LASF4343
C:\Users\SOLDER~1\AppData\Local\Temp\cc6haz4O.s:24916  .debug_str:0000000000017481 .LASF4344
C:\Users\SOLDER~1\AppData\Local\Temp\cc6haz4O.s:28224  .debug_str:00000000000249bd .LASF4345
C:\Users\SOLDER~1\AppData\Local\Temp\cc6haz4O.s:23732  .debug_str:00000000000127b5 .LASF4346
C:\Users\SOLDER~1\AppData\Local\Temp\cc6haz4O.s:19928  .debug_str:0000000000003231 .LASF4347
C:\Users\SOLDER~1\AppData\Local\Temp\cc6haz4O.s:28130  .debug_str:000000000002439b .LASF4348
C:\Users\SOLDER~1\AppData\Local\Temp\cc6haz4O.s:29936  .debug_str:000000000002b994 .LASF4349
C:\Users\SOLDER~1\AppData\Local\Temp\cc6haz4O.s:27772  .debug_str:0000000000022c57 .LASF4350
C:\Users\SOLDER~1\AppData\Local\Temp\cc6haz4O.s:22856  .debug_str:000000000000efbe .LASF4351
C:\Users\SOLDER~1\AppData\Local\Temp\cc6haz4O.s:24654  .debug_str:000000000001642e .LASF4352
C:\Users\SOLDER~1\AppData\Local\Temp\cc6haz4O.s:19874  .debug_str:0000000000002eaa .LASF4353
C:\Users\SOLDER~1\AppData\Local\Temp\cc6haz4O.s:25544  .debug_str:0000000000019cb1 .LASF4354
C:\Users\SOLDER~1\AppData\Local\Temp\cc6haz4O.s:23902  .debug_str:0000000000013286 .LASF4355
C:\Users\SOLDER~1\AppData\Local\Temp\cc6haz4O.s:25914  .debug_str:000000000001b46c .LASF4356
C:\Users\SOLDER~1\AppData\Local\Temp\cc6haz4O.s:27880  .debug_str:0000000000023360 .LASF4357
C:\Users\SOLDER~1\AppData\Local\Temp\cc6haz4O.s:22588  .debug_str:000000000000de5e .LASF4358
C:\Users\SOLDER~1\AppData\Local\Temp\cc6haz4O.s:22964  .debug_str:000000000000f69b .LASF4359
C:\Users\SOLDER~1\AppData\Local\Temp\cc6haz4O.s:29898  .debug_str:000000000002b749 .LASF4360
C:\Users\SOLDER~1\AppData\Local\Temp\cc6haz4O.s:19954  .debug_str:00000000000033d2 .LASF4361
C:\Users\SOLDER~1\AppData\Local\Temp\cc6haz4O.s:21498  .debug_str:0000000000009788 .LASF4362
C:\Users\SOLDER~1\AppData\Local\Temp\cc6haz4O.s:20244  .debug_str:0000000000004629 .LASF4363
C:\Users\SOLDER~1\AppData\Local\Temp\cc6haz4O.s:22108  .debug_str:000000000000bedf .LASF4364
C:\Users\SOLDER~1\AppData\Local\Temp\cc6haz4O.s:22390  .debug_str:000000000000d1ab .LASF4365
C:\Users\SOLDER~1\AppData\Local\Temp\cc6haz4O.s:24950  .debug_str:00000000000176a9 .LASF4366
GAS LISTING C:\Users\SOLDER~1\AppData\Local\Temp\cc6haz4O.s 			page 99


C:\Users\SOLDER~1\AppData\Local\Temp\cc6haz4O.s:30636  .debug_str:000000000002e6cf .LASF4367
C:\Users\SOLDER~1\AppData\Local\Temp\cc6haz4O.s:22208  .debug_str:000000000000c582 .LASF4368
C:\Users\SOLDER~1\AppData\Local\Temp\cc6haz4O.s:27568  .debug_str:0000000000021f54 .LASF4369
C:\Users\SOLDER~1\AppData\Local\Temp\cc6haz4O.s:28820  .debug_str:00000000000271fe .LASF4370
C:\Users\SOLDER~1\AppData\Local\Temp\cc6haz4O.s:21228  .debug_str:00000000000085b5 .LASF4371
C:\Users\SOLDER~1\AppData\Local\Temp\cc6haz4O.s:30370  .debug_str:000000000002d5fc .LASF4372
C:\Users\SOLDER~1\AppData\Local\Temp\cc6haz4O.s:24280  .debug_str:0000000000014c99 .LASF4373
C:\Users\SOLDER~1\AppData\Local\Temp\cc6haz4O.s:22556  .debug_str:000000000000dc32 .LASF4374
C:\Users\SOLDER~1\AppData\Local\Temp\cc6haz4O.s:25392  .debug_str:00000000000192eb .LASF4375
C:\Users\SOLDER~1\AppData\Local\Temp\cc6haz4O.s:24260  .debug_str:0000000000014b55 .LASF4376
C:\Users\SOLDER~1\AppData\Local\Temp\cc6haz4O.s:25668  .debug_str:000000000001a453 .LASF4377
C:\Users\SOLDER~1\AppData\Local\Temp\cc6haz4O.s:22434  .debug_str:000000000000d47b .LASF4378
C:\Users\SOLDER~1\AppData\Local\Temp\cc6haz4O.s:26442  .debug_str:000000000001d720 .LASF4379
C:\Users\SOLDER~1\AppData\Local\Temp\cc6haz4O.s:28248  .debug_str:0000000000024b44 .LASF4380
C:\Users\SOLDER~1\AppData\Local\Temp\cc6haz4O.s:21380  .debug_str:0000000000008fa7 .LASF4381
C:\Users\SOLDER~1\AppData\Local\Temp\cc6haz4O.s:21766  .debug_str:000000000000a939 .LASF4382
C:\Users\SOLDER~1\AppData\Local\Temp\cc6haz4O.s:22330  .debug_str:000000000000cdac .LASF4383
C:\Users\SOLDER~1\AppData\Local\Temp\cc6haz4O.s:29398  .debug_str:000000000002972c .LASF4384
C:\Users\SOLDER~1\AppData\Local\Temp\cc6haz4O.s:25930  .debug_str:000000000001b563 .LASF4385
C:\Users\SOLDER~1\AppData\Local\Temp\cc6haz4O.s:22504  .debug_str:000000000000d921 .LASF4386
C:\Users\SOLDER~1\AppData\Local\Temp\cc6haz4O.s:19326  .debug_str:0000000000000b08 .LASF4387
C:\Users\SOLDER~1\AppData\Local\Temp\cc6haz4O.s:21346  .debug_str:0000000000008d46 .LASF4388
C:\Users\SOLDER~1\AppData\Local\Temp\cc6haz4O.s:24158  .debug_str:0000000000014483 .LASF4389
C:\Users\SOLDER~1\AppData\Local\Temp\cc6haz4O.s:20264  .debug_str:000000000000476c .LASF4390
C:\Users\SOLDER~1\AppData\Local\Temp\cc6haz4O.s:20318  .debug_str:0000000000004afc .LASF4391
C:\Users\SOLDER~1\AppData\Local\Temp\cc6haz4O.s:30394  .debug_str:000000000002d759 .LASF4392
C:\Users\SOLDER~1\AppData\Local\Temp\cc6haz4O.s:25260  .debug_str:0000000000018a69 .LASF4393
C:\Users\SOLDER~1\AppData\Local\Temp\cc6haz4O.s:30518  .debug_str:000000000002df60 .LASF4394
C:\Users\SOLDER~1\AppData\Local\Temp\cc6haz4O.s:24692  .debug_str:000000000001667e .LASF4395
C:\Users\SOLDER~1\AppData\Local\Temp\cc6haz4O.s:22416  .debug_str:000000000000d349 .LASF4396
C:\Users\SOLDER~1\AppData\Local\Temp\cc6haz4O.s:21994  .debug_str:000000000000b7cd .LASF4397
C:\Users\SOLDER~1\AppData\Local\Temp\cc6haz4O.s:29150  .debug_str:0000000000028722 .LASF4398
C:\Users\SOLDER~1\AppData\Local\Temp\cc6haz4O.s:20442  .debug_str:0000000000005259 .LASF4399
C:\Users\SOLDER~1\AppData\Local\Temp\cc6haz4O.s:24066  .debug_str:0000000000013e11 .LASF4400
C:\Users\SOLDER~1\AppData\Local\Temp\cc6haz4O.s:25562  .debug_str:0000000000019ddf .LASF4401
C:\Users\SOLDER~1\AppData\Local\Temp\cc6haz4O.s:25484  .debug_str:00000000000198fa .LASF4402
C:\Users\SOLDER~1\AppData\Local\Temp\cc6haz4O.s:26348  .debug_str:000000000001d0cf .LASF4403
C:\Users\SOLDER~1\AppData\Local\Temp\cc6haz4O.s:24126  .debug_str:0000000000014217 .LASF4404
C:\Users\SOLDER~1\AppData\Local\Temp\cc6haz4O.s:27606  .debug_str:0000000000022199 .LASF4405
C:\Users\SOLDER~1\AppData\Local\Temp\cc6haz4O.s:21350  .debug_str:0000000000008d90 .LASF4406
C:\Users\SOLDER~1\AppData\Local\Temp\cc6haz4O.s:23232  .debug_str:00000000000107fe .LASF4407
C:\Users\SOLDER~1\AppData\Local\Temp\cc6haz4O.s:24726  .debug_str:000000000001686b .LASF4408
C:\Users\SOLDER~1\AppData\Local\Temp\cc6haz4O.s:27470  .debug_str:000000000002190d .LASF4409
C:\Users\SOLDER~1\AppData\Local\Temp\cc6haz4O.s:25072  .debug_str:0000000000017e64 .LASF4410
C:\Users\SOLDER~1\AppData\Local\Temp\cc6haz4O.s:28194  .debug_str:00000000000247d7 .LASF4411
C:\Users\SOLDER~1\AppData\Local\Temp\cc6haz4O.s:28028  .debug_str:0000000000023ce4 .LASF4412
C:\Users\SOLDER~1\AppData\Local\Temp\cc6haz4O.s:28564  .debug_str:0000000000026054 .LASF4413
C:\Users\SOLDER~1\AppData\Local\Temp\cc6haz4O.s:23226  .debug_str:00000000000107a9 .LASF4414
C:\Users\SOLDER~1\AppData\Local\Temp\cc6haz4O.s:23300  .debug_str:0000000000010c61 .LASF4415
C:\Users\SOLDER~1\AppData\Local\Temp\cc6haz4O.s:19762  .debug_str:000000000000275e .LASF4416
C:\Users\SOLDER~1\AppData\Local\Temp\cc6haz4O.s:24858  .debug_str:000000000001706b .LASF4417
C:\Users\SOLDER~1\AppData\Local\Temp\cc6haz4O.s:20136  .debug_str:0000000000003f8f .LASF4418
C:\Users\SOLDER~1\AppData\Local\Temp\cc6haz4O.s:19766  .debug_str:00000000000027a5 .LASF4419
C:\Users\SOLDER~1\AppData\Local\Temp\cc6haz4O.s:21702  .debug_str:000000000000a4bd .LASF4420
C:\Users\SOLDER~1\AppData\Local\Temp\cc6haz4O.s:26368  .debug_str:000000000001d1e4 .LASF4421
C:\Users\SOLDER~1\AppData\Local\Temp\cc6haz4O.s:25502  .debug_str:00000000000199fe .LASF4422
C:\Users\SOLDER~1\AppData\Local\Temp\cc6haz4O.s:23606  .debug_str:0000000000011fbb .LASF4423
GAS LISTING C:\Users\SOLDER~1\AppData\Local\Temp\cc6haz4O.s 			page 100


C:\Users\SOLDER~1\AppData\Local\Temp\cc6haz4O.s:26524  .debug_str:000000000001dbfd .LASF4424
C:\Users\SOLDER~1\AppData\Local\Temp\cc6haz4O.s:20652  .debug_str:0000000000005fd9 .LASF4425
C:\Users\SOLDER~1\AppData\Local\Temp\cc6haz4O.s:24246  .debug_str:0000000000014a4a .LASF4426
C:\Users\SOLDER~1\AppData\Local\Temp\cc6haz4O.s:20798  .debug_str:00000000000069df .LASF4427
C:\Users\SOLDER~1\AppData\Local\Temp\cc6haz4O.s:30714  .debug_str:000000000002ebfe .LASF4428
C:\Users\SOLDER~1\AppData\Local\Temp\cc6haz4O.s:25760  .debug_str:000000000001aa95 .LASF4429
C:\Users\SOLDER~1\AppData\Local\Temp\cc6haz4O.s:30440  .debug_str:000000000002da76 .LASF4430
C:\Users\SOLDER~1\AppData\Local\Temp\cc6haz4O.s:29450  .debug_str:0000000000029a6d .LASF4431
C:\Users\SOLDER~1\AppData\Local\Temp\cc6haz4O.s:25508  .debug_str:0000000000019a69 .LASF4432
C:\Users\SOLDER~1\AppData\Local\Temp\cc6haz4O.s:25770  .debug_str:000000000001ab20 .LASF4433
C:\Users\SOLDER~1\AppData\Local\Temp\cc6haz4O.s:23466  .debug_str:000000000001170e .LASF4434
C:\Users\SOLDER~1\AppData\Local\Temp\cc6haz4O.s:30250  .debug_str:000000000002cdcd .LASF4435
C:\Users\SOLDER~1\AppData\Local\Temp\cc6haz4O.s:25478  .debug_str:00000000000198ab .LASF4436
C:\Users\SOLDER~1\AppData\Local\Temp\cc6haz4O.s:29126  .debug_str:00000000000285a0 .LASF4437
C:\Users\SOLDER~1\AppData\Local\Temp\cc6haz4O.s:27770  .debug_str:0000000000022c43 .LASF4438
C:\Users\SOLDER~1\AppData\Local\Temp\cc6haz4O.s:22996  .debug_str:000000000000f8a9 .LASF4439
C:\Users\SOLDER~1\AppData\Local\Temp\cc6haz4O.s:28398  .debug_str:0000000000025518 .LASF4440
C:\Users\SOLDER~1\AppData\Local\Temp\cc6haz4O.s:24802  .debug_str:0000000000016d52 .LASF4441
C:\Users\SOLDER~1\AppData\Local\Temp\cc6haz4O.s:29204  .debug_str:0000000000028ad9 .LASF4442
C:\Users\SOLDER~1\AppData\Local\Temp\cc6haz4O.s:24702  .debug_str:0000000000016724 .LASF4443
C:\Users\SOLDER~1\AppData\Local\Temp\cc6haz4O.s:22120  .debug_str:000000000000bf95 .LASF4444
C:\Users\SOLDER~1\AppData\Local\Temp\cc6haz4O.s:24488  .debug_str:00000000000159d7 .LASF4445
C:\Users\SOLDER~1\AppData\Local\Temp\cc6haz4O.s:25262  .debug_str:0000000000018a89 .LASF4446
C:\Users\SOLDER~1\AppData\Local\Temp\cc6haz4O.s:22308  .debug_str:000000000000cc2e .LASF4447
C:\Users\SOLDER~1\AppData\Local\Temp\cc6haz4O.s:26092  .debug_str:000000000001bfc8 .LASF4448
C:\Users\SOLDER~1\AppData\Local\Temp\cc6haz4O.s:27596  .debug_str:000000000002210c .LASF4449
C:\Users\SOLDER~1\AppData\Local\Temp\cc6haz4O.s:29302  .debug_str:00000000000290e9 .LASF4450
C:\Users\SOLDER~1\AppData\Local\Temp\cc6haz4O.s:27346  .debug_str:00000000000210f2 .LASF4451
C:\Users\SOLDER~1\AppData\Local\Temp\cc6haz4O.s:25864  .debug_str:000000000001b172 .LASF4452
C:\Users\SOLDER~1\AppData\Local\Temp\cc6haz4O.s:24000  .debug_str:0000000000013936 .LASF4453
C:\Users\SOLDER~1\AppData\Local\Temp\cc6haz4O.s:26332  .debug_str:000000000001cfd1 .LASF4454
C:\Users\SOLDER~1\AppData\Local\Temp\cc6haz4O.s:23632  .debug_str:0000000000012171 .LASF4455
C:\Users\SOLDER~1\AppData\Local\Temp\cc6haz4O.s:21372  .debug_str:0000000000008f31 .LASF4456
C:\Users\SOLDER~1\AppData\Local\Temp\cc6haz4O.s:23094  .debug_str:000000000000ff76 .LASF4457
C:\Users\SOLDER~1\AppData\Local\Temp\cc6haz4O.s:29556  .debug_str:000000000002a144 .LASF4458
C:\Users\SOLDER~1\AppData\Local\Temp\cc6haz4O.s:28432  .debug_str:0000000000025728 .LASF4459
C:\Users\SOLDER~1\AppData\Local\Temp\cc6haz4O.s:29482  .debug_str:0000000000029c65 .LASF4460
C:\Users\SOLDER~1\AppData\Local\Temp\cc6haz4O.s:23528  .debug_str:0000000000011ae2 .LASF4461
C:\Users\SOLDER~1\AppData\Local\Temp\cc6haz4O.s:24866  .debug_str:00000000000170fe .LASF4462
C:\Users\SOLDER~1\AppData\Local\Temp\cc6haz4O.s:25694  .debug_str:000000000001a629 .LASF4463
C:\Users\SOLDER~1\AppData\Local\Temp\cc6haz4O.s:28016  .debug_str:0000000000023c13 .LASF4464
C:\Users\SOLDER~1\AppData\Local\Temp\cc6haz4O.s:26066  .debug_str:000000000001bdf2 .LASF4465
C:\Users\SOLDER~1\AppData\Local\Temp\cc6haz4O.s:25666  .debug_str:000000000001a43c .LASF4466
C:\Users\SOLDER~1\AppData\Local\Temp\cc6haz4O.s:25362  .debug_str:0000000000019140 .LASF4467
C:\Users\SOLDER~1\AppData\Local\Temp\cc6haz4O.s:26244  .debug_str:000000000001c9c3 .LASF4468
C:\Users\SOLDER~1\AppData\Local\Temp\cc6haz4O.s:24778  .debug_str:0000000000016bd9 .LASF4469
C:\Users\SOLDER~1\AppData\Local\Temp\cc6haz4O.s:29206  .debug_str:0000000000028aea .LASF4470
C:\Users\SOLDER~1\AppData\Local\Temp\cc6haz4O.s:29970  .debug_str:000000000002bbba .LASF4471
C:\Users\SOLDER~1\AppData\Local\Temp\cc6haz4O.s:20378  .debug_str:0000000000004eb2 .LASF4472
C:\Users\SOLDER~1\AppData\Local\Temp\cc6haz4O.s:30368  .debug_str:000000000002d5e5 .LASF4473
C:\Users\SOLDER~1\AppData\Local\Temp\cc6haz4O.s:23162  .debug_str:0000000000010392 .LASF4474
C:\Users\SOLDER~1\AppData\Local\Temp\cc6haz4O.s:29644  .debug_str:000000000002a709 .LASF4475
C:\Users\SOLDER~1\AppData\Local\Temp\cc6haz4O.s:24946  .debug_str:000000000001766e .LASF4476
C:\Users\SOLDER~1\AppData\Local\Temp\cc6haz4O.s:26534  .debug_str:000000000001dc9d .LASF4477
C:\Users\SOLDER~1\AppData\Local\Temp\cc6haz4O.s:28848  .debug_str:00000000000273c0 .LASF4478
C:\Users\SOLDER~1\AppData\Local\Temp\cc6haz4O.s:27554  .debug_str:0000000000021e7d .LASF4479
C:\Users\SOLDER~1\AppData\Local\Temp\cc6haz4O.s:27486  .debug_str:0000000000021a11 .LASF4480
GAS LISTING C:\Users\SOLDER~1\AppData\Local\Temp\cc6haz4O.s 			page 101


C:\Users\SOLDER~1\AppData\Local\Temp\cc6haz4O.s:23488  .debug_str:0000000000011842 .LASF4481
C:\Users\SOLDER~1\AppData\Local\Temp\cc6haz4O.s:30536  .debug_str:000000000002e098 .LASF4482
C:\Users\SOLDER~1\AppData\Local\Temp\cc6haz4O.s:21722  .debug_str:000000000000a5fd .LASF4483
C:\Users\SOLDER~1\AppData\Local\Temp\cc6haz4O.s:29542  .debug_str:000000000002a05c .LASF4484
C:\Users\SOLDER~1\AppData\Local\Temp\cc6haz4O.s:20858  .debug_str:0000000000006d86 .LASF4485
C:\Users\SOLDER~1\AppData\Local\Temp\cc6haz4O.s:25980  .debug_str:000000000001b8a4 .LASF4486
C:\Users\SOLDER~1\AppData\Local\Temp\cc6haz4O.s:30314  .debug_str:000000000002d241 .LASF4487
C:\Users\SOLDER~1\AppData\Local\Temp\cc6haz4O.s:29874  .debug_str:000000000002b5c3 .LASF4488
C:\Users\SOLDER~1\AppData\Local\Temp\cc6haz4O.s:25878  .debug_str:000000000001b229 .LASF4489
C:\Users\SOLDER~1\AppData\Local\Temp\cc6haz4O.s:23990  .debug_str:00000000000138a6 .LASF4490
C:\Users\SOLDER~1\AppData\Local\Temp\cc6haz4O.s:24566  .debug_str:0000000000015e92 .LASF4491
C:\Users\SOLDER~1\AppData\Local\Temp\cc6haz4O.s:23744  .debug_str:0000000000012870 .LASF4492
C:\Users\SOLDER~1\AppData\Local\Temp\cc6haz4O.s:29722  .debug_str:000000000002abd7 .LASF4493
C:\Users\SOLDER~1\AppData\Local\Temp\cc6haz4O.s:24878  .debug_str:00000000000171ae .LASF4494
C:\Users\SOLDER~1\AppData\Local\Temp\cc6haz4O.s:28458  .debug_str:00000000000258e1 .LASF4495
C:\Users\SOLDER~1\AppData\Local\Temp\cc6haz4O.s:25008  .debug_str:0000000000017a24 .LASF4496
C:\Users\SOLDER~1\AppData\Local\Temp\cc6haz4O.s:27216  .debug_str:00000000000208cb .LASF4497
C:\Users\SOLDER~1\AppData\Local\Temp\cc6haz4O.s:30398  .debug_str:000000000002d788 .LASF4498
C:\Users\SOLDER~1\AppData\Local\Temp\cc6haz4O.s:24270  .debug_str:0000000000014bf1 .LASF4499
C:\Users\SOLDER~1\AppData\Local\Temp\cc6haz4O.s:25422  .debug_str:00000000000194d2 .LASF4500
C:\Users\SOLDER~1\AppData\Local\Temp\cc6haz4O.s:26608  .debug_str:000000000001e1a4 .LASF4501
C:\Users\SOLDER~1\AppData\Local\Temp\cc6haz4O.s:27698  .debug_str:0000000000022749 .LASF4502
C:\Users\SOLDER~1\AppData\Local\Temp\cc6haz4O.s:26138  .debug_str:000000000001c2bd .LASF4503
C:\Users\SOLDER~1\AppData\Local\Temp\cc6haz4O.s:28942  .debug_str:00000000000279bd .LASF4504
C:\Users\SOLDER~1\AppData\Local\Temp\cc6haz4O.s:27740  .debug_str:0000000000022a13 .LASF4505
C:\Users\SOLDER~1\AppData\Local\Temp\cc6haz4O.s:19588  .debug_str:0000000000001bbb .LASF4506
C:\Users\SOLDER~1\AppData\Local\Temp\cc6haz4O.s:28492  .debug_str:0000000000025b50 .LASF4507
C:\Users\SOLDER~1\AppData\Local\Temp\cc6haz4O.s:20764  .debug_str:000000000000675f .LASF4508
C:\Users\SOLDER~1\AppData\Local\Temp\cc6haz4O.s:23444  .debug_str:000000000001155e .LASF4509
C:\Users\SOLDER~1\AppData\Local\Temp\cc6haz4O.s:25946  .debug_str:000000000001b681 .LASF4510
C:\Users\SOLDER~1\AppData\Local\Temp\cc6haz4O.s:20130  .debug_str:0000000000003f27 .LASF4511
C:\Users\SOLDER~1\AppData\Local\Temp\cc6haz4O.s:27482  .debug_str:00000000000219da .LASF4512
C:\Users\SOLDER~1\AppData\Local\Temp\cc6haz4O.s:27562  .debug_str:0000000000021eee .LASF4513
C:\Users\SOLDER~1\AppData\Local\Temp\cc6haz4O.s:27060  .debug_str:000000000001fee7 .LASF4514
C:\Users\SOLDER~1\AppData\Local\Temp\cc6haz4O.s:21582  .debug_str:0000000000009cd1 .LASF4515
C:\Users\SOLDER~1\AppData\Local\Temp\cc6haz4O.s:24426  .debug_str:0000000000015626 .LASF4516
C:\Users\SOLDER~1\AppData\Local\Temp\cc6haz4O.s:26912  .debug_str:000000000001f596 .LASF4517
C:\Users\SOLDER~1\AppData\Local\Temp\cc6haz4O.s:30762  .debug_str:000000000002eeeb .LASF4518
C:\Users\SOLDER~1\AppData\Local\Temp\cc6haz4O.s:26660  .debug_str:000000000001e4f4 .LASF4519
C:\Users\SOLDER~1\AppData\Local\Temp\cc6haz4O.s:19452  .debug_str:0000000000001327 .LASF4520
C:\Users\SOLDER~1\AppData\Local\Temp\cc6haz4O.s:26022  .debug_str:000000000001bb39 .LASF4521
C:\Users\SOLDER~1\AppData\Local\Temp\cc6haz4O.s:22304  .debug_str:000000000000cbf2 .LASF4522
C:\Users\SOLDER~1\AppData\Local\Temp\cc6haz4O.s:28368  .debug_str:000000000002530e .LASF4523
C:\Users\SOLDER~1\AppData\Local\Temp\cc6haz4O.s:22494  .debug_str:000000000000d881 .LASF4524
C:\Users\SOLDER~1\AppData\Local\Temp\cc6haz4O.s:29946  .debug_str:000000000002ba30 .LASF4525
C:\Users\SOLDER~1\AppData\Local\Temp\cc6haz4O.s:25344  .debug_str:0000000000019009 .LASF4526
C:\Users\SOLDER~1\AppData\Local\Temp\cc6haz4O.s:24358  .debug_str:000000000001518b .LASF4527
C:\Users\SOLDER~1\AppData\Local\Temp\cc6haz4O.s:28316  .debug_str:0000000000024fde .LASF4528
C:\Users\SOLDER~1\AppData\Local\Temp\cc6haz4O.s:29812  .debug_str:000000000002b1b1 .LASF4529
C:\Users\SOLDER~1\AppData\Local\Temp\cc6haz4O.s:21986  .debug_str:000000000000b761 .LASF4530
C:\Users\SOLDER~1\AppData\Local\Temp\cc6haz4O.s:28252  .debug_str:0000000000024b87 .LASF4531
C:\Users\SOLDER~1\AppData\Local\Temp\cc6haz4O.s:27888  .debug_str:00000000000233da .LASF4532
C:\Users\SOLDER~1\AppData\Local\Temp\cc6haz4O.s:26382  .debug_str:000000000001d2fc .LASF4533
C:\Users\SOLDER~1\AppData\Local\Temp\cc6haz4O.s:28562  .debug_str:000000000002601b .LASF4534
C:\Users\SOLDER~1\AppData\Local\Temp\cc6haz4O.s:30034  .debug_str:000000000002bfd6 .LASF4535
C:\Users\SOLDER~1\AppData\Local\Temp\cc6haz4O.s:24680  .debug_str:00000000000165c1 .LASF4536
C:\Users\SOLDER~1\AppData\Local\Temp\cc6haz4O.s:20326  .debug_str:0000000000004b73 .LASF4537
GAS LISTING C:\Users\SOLDER~1\AppData\Local\Temp\cc6haz4O.s 			page 102


C:\Users\SOLDER~1\AppData\Local\Temp\cc6haz4O.s:22918  .debug_str:000000000000f3a4 .LASF4538
C:\Users\SOLDER~1\AppData\Local\Temp\cc6haz4O.s:23920  .debug_str:00000000000133dc .LASF4539
C:\Users\SOLDER~1\AppData\Local\Temp\cc6haz4O.s:26242  .debug_str:000000000001c988 .LASF4540
C:\Users\SOLDER~1\AppData\Local\Temp\cc6haz4O.s:26210  .debug_str:000000000001c769 .LASF4541
C:\Users\SOLDER~1\AppData\Local\Temp\cc6haz4O.s:24138  .debug_str:00000000000142e7 .LASF4542
C:\Users\SOLDER~1\AppData\Local\Temp\cc6haz4O.s:30086  .debug_str:000000000002c39b .LASF4543
C:\Users\SOLDER~1\AppData\Local\Temp\cc6haz4O.s:30060  .debug_str:000000000002c1b7 .LASF4544
C:\Users\SOLDER~1\AppData\Local\Temp\cc6haz4O.s:28256  .debug_str:0000000000024be3 .LASF4545
C:\Users\SOLDER~1\AppData\Local\Temp\cc6haz4O.s:25788  .debug_str:000000000001ac3c .LASF4546
C:\Users\SOLDER~1\AppData\Local\Temp\cc6haz4O.s:19814  .debug_str:0000000000002af0 .LASF4547
C:\Users\SOLDER~1\AppData\Local\Temp\cc6haz4O.s:20828  .debug_str:0000000000006bbb .LASF4548
C:\Users\SOLDER~1\AppData\Local\Temp\cc6haz4O.s:23894  .debug_str:0000000000013212 .LASF4549
C:\Users\SOLDER~1\AppData\Local\Temp\cc6haz4O.s:25688  .debug_str:000000000001a5d1 .LASF4550
C:\Users\SOLDER~1\AppData\Local\Temp\cc6haz4O.s:26108  .debug_str:000000000001c0e3 .LASF4551
C:\Users\SOLDER~1\AppData\Local\Temp\cc6haz4O.s:25204  .debug_str:000000000001871a .LASF4552
C:\Users\SOLDER~1\AppData\Local\Temp\cc6haz4O.s:29408  .debug_str:00000000000297ea .LASF4553
C:\Users\SOLDER~1\AppData\Local\Temp\cc6haz4O.s:19182  .debug_str:0000000000000110 .LASF4554
C:\Users\SOLDER~1\AppData\Local\Temp\cc6haz4O.s:27540  .debug_str:0000000000021d83 .LASF4555
C:\Users\SOLDER~1\AppData\Local\Temp\cc6haz4O.s:27288  .debug_str:0000000000020d63 .LASF4556
C:\Users\SOLDER~1\AppData\Local\Temp\cc6haz4O.s:25182  .debug_str:00000000000185b2 .LASF4557
C:\Users\SOLDER~1\AppData\Local\Temp\cc6haz4O.s:29926  .debug_str:000000000002b8f1 .LASF4558
C:\Users\SOLDER~1\AppData\Local\Temp\cc6haz4O.s:23136  .debug_str:0000000000010203 .LASF4559
C:\Users\SOLDER~1\AppData\Local\Temp\cc6haz4O.s:23228  .debug_str:00000000000107ca .LASF4560
C:\Users\SOLDER~1\AppData\Local\Temp\cc6haz4O.s:23334  .debug_str:0000000000010e7c .LASF4561
C:\Users\SOLDER~1\AppData\Local\Temp\cc6haz4O.s:23478  .debug_str:00000000000117c8 .LASF4562
C:\Users\SOLDER~1\AppData\Local\Temp\cc6haz4O.s:23204  .debug_str:000000000001067c .LASF4563
C:\Users\SOLDER~1\AppData\Local\Temp\cc6haz4O.s:21624  .debug_str:0000000000009fa9 .LASF4564
C:\Users\SOLDER~1\AppData\Local\Temp\cc6haz4O.s:21378  .debug_str:0000000000008f94 .LASF4565
C:\Users\SOLDER~1\AppData\Local\Temp\cc6haz4O.s:20284  .debug_str:00000000000048ca .LASF4566
C:\Users\SOLDER~1\AppData\Local\Temp\cc6haz4O.s:23650  .debug_str:000000000001228e .LASF4567
C:\Users\SOLDER~1\AppData\Local\Temp\cc6haz4O.s:28898  .debug_str:000000000002771d .LASF4568
C:\Users\SOLDER~1\AppData\Local\Temp\cc6haz4O.s:24644  .debug_str:000000000001637b .LASF4569
C:\Users\SOLDER~1\AppData\Local\Temp\cc6haz4O.s:26362  .debug_str:000000000001d19d .LASF4570
C:\Users\SOLDER~1\AppData\Local\Temp\cc6haz4O.s:26554  .debug_str:000000000001ddfc .LASF4571
C:\Users\SOLDER~1\AppData\Local\Temp\cc6haz4O.s:23370  .debug_str:00000000000110c1 .LASF4572
C:\Users\SOLDER~1\AppData\Local\Temp\cc6haz4O.s:24972  .debug_str:0000000000017820 .LASF4573
C:\Users\SOLDER~1\AppData\Local\Temp\cc6haz4O.s:29930  .debug_str:000000000002b93e .LASF4574
C:\Users\SOLDER~1\AppData\Local\Temp\cc6haz4O.s:26546  .debug_str:000000000001dd6e .LASF4575
C:\Users\SOLDER~1\AppData\Local\Temp\cc6haz4O.s:19738  .debug_str:00000000000025fc .LASF4576
C:\Users\SOLDER~1\AppData\Local\Temp\cc6haz4O.s:21818  .debug_str:000000000000ac97 .LASF4577
C:\Users\SOLDER~1\AppData\Local\Temp\cc6haz4O.s:21776  .debug_str:000000000000a9d5 .LASF4578
C:\Users\SOLDER~1\AppData\Local\Temp\cc6haz4O.s:26122  .debug_str:000000000001c1be .LASF4579
C:\Users\SOLDER~1\AppData\Local\Temp\cc6haz4O.s:23282  .debug_str:0000000000010b5b .LASF4580
C:\Users\SOLDER~1\AppData\Local\Temp\cc6haz4O.s:26038  .debug_str:000000000001bc4a .LASF4581
C:\Users\SOLDER~1\AppData\Local\Temp\cc6haz4O.s:28952  .debug_str:0000000000027a68 .LASF4582
C:\Users\SOLDER~1\AppData\Local\Temp\cc6haz4O.s:22146  .debug_str:000000000000c139 .LASF4583
C:\Users\SOLDER~1\AppData\Local\Temp\cc6haz4O.s:21012  .debug_str:00000000000077cb .LASF4584
C:\Users\SOLDER~1\AppData\Local\Temp\cc6haz4O.s:25042  .debug_str:0000000000017c64 .LASF4585
C:\Users\SOLDER~1\AppData\Local\Temp\cc6haz4O.s:25968  .debug_str:000000000001b7f6 .LASF4586
C:\Users\SOLDER~1\AppData\Local\Temp\cc6haz4O.s:20542  .debug_str:00000000000058a7 .LASF4587
C:\Users\SOLDER~1\AppData\Local\Temp\cc6haz4O.s:21110  .debug_str:0000000000007dfe .LASF4588
C:\Users\SOLDER~1\AppData\Local\Temp\cc6haz4O.s:21318  .debug_str:0000000000008b8a .LASF4589
C:\Users\SOLDER~1\AppData\Local\Temp\cc6haz4O.s:26692  .debug_str:000000000001e6e8 .LASF4590
C:\Users\SOLDER~1\AppData\Local\Temp\cc6haz4O.s:30230  .debug_str:000000000002cc9c .LASF4591
C:\Users\SOLDER~1\AppData\Local\Temp\cc6haz4O.s:21030  .debug_str:00000000000078a5 .LASF4594
C:\Users\SOLDER~1\AppData\Local\Temp\cc6haz4O.s:25730  .debug_str:000000000001a875 .LASF4595
C:\Users\SOLDER~1\AppData\Local\Temp\cc6haz4O.s:24014  .debug_str:0000000000013a5c .LASF4596
GAS LISTING C:\Users\SOLDER~1\AppData\Local\Temp\cc6haz4O.s 			page 103


C:\Users\SOLDER~1\AppData\Local\Temp\cc6haz4O.s:20796  .debug_str:00000000000069a8 .LASF4597
C:\Users\SOLDER~1\AppData\Local\Temp\cc6haz4O.s:27494  .debug_str:0000000000021a97 .LASF4598
C:\Users\SOLDER~1\AppData\Local\Temp\cc6haz4O.s:24412  .debug_str:0000000000015524 .LASF4599
C:\Users\SOLDER~1\AppData\Local\Temp\cc6haz4O.s:29836  .debug_str:000000000002b370 .LASF4600
C:\Users\SOLDER~1\AppData\Local\Temp\cc6haz4O.s:24760  .debug_str:0000000000016aa4 .LASF4601
C:\Users\SOLDER~1\AppData\Local\Temp\cc6haz4O.s:22342  .debug_str:000000000000ce67 .LASF4602
C:\Users\SOLDER~1\AppData\Local\Temp\cc6haz4O.s:24140  .debug_str:0000000000014321 .LASF4603
C:\Users\SOLDER~1\AppData\Local\Temp\cc6haz4O.s:23000  .debug_str:000000000000f8df .LASF4604
C:\Users\SOLDER~1\AppData\Local\Temp\cc6haz4O.s:29550  .debug_str:000000000002a0c0 .LASF4605
C:\Users\SOLDER~1\AppData\Local\Temp\cc6haz4O.s:30668  .debug_str:000000000002e8d8 .LASF4606
C:\Users\SOLDER~1\AppData\Local\Temp\cc6haz4O.s:28026  .debug_str:0000000000023cb0 .LASF4607
C:\Users\SOLDER~1\AppData\Local\Temp\cc6haz4O.s:21712  .debug_str:000000000000a557 .LASF4608
C:\Users\SOLDER~1\AppData\Local\Temp\cc6haz4O.s:23906  .debug_str:00000000000132c4 .LASF4609
C:\Users\SOLDER~1\AppData\Local\Temp\cc6haz4O.s:28010  .debug_str:0000000000023b96 .LASF4610
C:\Users\SOLDER~1\AppData\Local\Temp\cc6haz4O.s:20890  .debug_str:0000000000006fa8 .LASF4611
C:\Users\SOLDER~1\AppData\Local\Temp\cc6haz4O.s:26934  .debug_str:000000000001f71a .LASF4612
C:\Users\SOLDER~1\AppData\Local\Temp\cc6haz4O.s:20116  .debug_str:0000000000003e34 .LASF4613
C:\Users\SOLDER~1\AppData\Local\Temp\cc6haz4O.s:28666  .debug_str:000000000002674f .LASF4614
C:\Users\SOLDER~1\AppData\Local\Temp\cc6haz4O.s:21308  .debug_str:0000000000008adc .LASF4615
C:\Users\SOLDER~1\AppData\Local\Temp\cc6haz4O.s:28724  .debug_str:0000000000026b64 .LASF4616
C:\Users\SOLDER~1\AppData\Local\Temp\cc6haz4O.s:20898  .debug_str:0000000000007054 .LASF4617
C:\Users\SOLDER~1\AppData\Local\Temp\cc6haz4O.s:19850  .debug_str:0000000000002d0f .LASF4618
C:\Users\SOLDER~1\AppData\Local\Temp\cc6haz4O.s:21924  .debug_str:000000000000b328 .LASF4619
C:\Users\SOLDER~1\AppData\Local\Temp\cc6haz4O.s:22050  .debug_str:000000000000bb16 .LASF4620
C:\Users\SOLDER~1\AppData\Local\Temp\cc6haz4O.s:28160  .debug_str:000000000002457e .LASF4621
C:\Users\SOLDER~1\AppData\Local\Temp\cc6haz4O.s:29300  .debug_str:00000000000290cb .LASF4622
C:\Users\SOLDER~1\AppData\Local\Temp\cc6haz4O.s:25126  .debug_str:0000000000018239 .LASF4623
C:\Users\SOLDER~1\AppData\Local\Temp\cc6haz4O.s:23132  .debug_str:00000000000101d3 .LASF4624
C:\Users\SOLDER~1\AppData\Local\Temp\cc6haz4O.s:29712  .debug_str:000000000002ab2f .LASF4625
C:\Users\SOLDER~1\AppData\Local\Temp\cc6haz4O.s:24798  .debug_str:0000000000016d10 .LASF4626
C:\Users\SOLDER~1\AppData\Local\Temp\cc6haz4O.s:26786  .debug_str:000000000001ed4b .LASF4627
C:\Users\SOLDER~1\AppData\Local\Temp\cc6haz4O.s:24114  .debug_str:000000000001415f .LASF4628
C:\Users\SOLDER~1\AppData\Local\Temp\cc6haz4O.s:21500  .debug_str:00000000000097a2 .LASF4629
C:\Users\SOLDER~1\AppData\Local\Temp\cc6haz4O.s:26676  .debug_str:000000000001e5e0 .LASF4630
C:\Users\SOLDER~1\AppData\Local\Temp\cc6haz4O.s:27654  .debug_str:000000000002244b .LASF4631
C:\Users\SOLDER~1\AppData\Local\Temp\cc6haz4O.s:26490  .debug_str:000000000001d9fe .LASF4632
C:\Users\SOLDER~1\AppData\Local\Temp\cc6haz4O.s:30352  .debug_str:000000000002d4ce .LASF4633
C:\Users\SOLDER~1\AppData\Local\Temp\cc6haz4O.s:27622  .debug_str:000000000002228e .LASF4634
C:\Users\SOLDER~1\AppData\Local\Temp\cc6haz4O.s:19186  .debug_str:0000000000000134 .LASF4635
C:\Users\SOLDER~1\AppData\Local\Temp\cc6haz4O.s:24908  .debug_str:00000000000173f5 .LASF4636
C:\Users\SOLDER~1\AppData\Local\Temp\cc6haz4O.s:23984  .debug_str:0000000000013837 .LASF4637
C:\Users\SOLDER~1\AppData\Local\Temp\cc6haz4O.s:23960  .debug_str:0000000000013681 .LASF4638
C:\Users\SOLDER~1\AppData\Local\Temp\cc6haz4O.s:23962  .debug_str:00000000000136b2 .LASF4639
C:\Users\SOLDER~1\AppData\Local\Temp\cc6haz4O.s:29368  .debug_str:0000000000029526 .LASF4640
C:\Users\SOLDER~1\AppData\Local\Temp\cc6haz4O.s:22252  .debug_str:000000000000c850 .LASF4641
C:\Users\SOLDER~1\AppData\Local\Temp\cc6haz4O.s:25672  .debug_str:000000000001a49b .LASF4642
C:\Users\SOLDER~1\AppData\Local\Temp\cc6haz4O.s:27610  .debug_str:00000000000221dc .LASF4643
C:\Users\SOLDER~1\AppData\Local\Temp\cc6haz4O.s:22474  .debug_str:000000000000d722 .LASF4644
C:\Users\SOLDER~1\AppData\Local\Temp\cc6haz4O.s:26594  .debug_str:000000000001e0e7 .LASF4645
C:\Users\SOLDER~1\AppData\Local\Temp\cc6haz4O.s:22506  .debug_str:000000000000d944 .LASF4646
C:\Users\SOLDER~1\AppData\Local\Temp\cc6haz4O.s:28712  .debug_str:0000000000026a97 .LASF4647
C:\Users\SOLDER~1\AppData\Local\Temp\cc6haz4O.s:23092  .debug_str:000000000000ff4d .LASF4648
C:\Users\SOLDER~1\AppData\Local\Temp\cc6haz4O.s:22346  .debug_str:000000000000cebb .LASF4649
C:\Users\SOLDER~1\AppData\Local\Temp\cc6haz4O.s:19622  .debug_str:0000000000001e04 .LASF4650
C:\Users\SOLDER~1\AppData\Local\Temp\cc6haz4O.s:22376  .debug_str:000000000000d091 .LASF4651
C:\Users\SOLDER~1\AppData\Local\Temp\cc6haz4O.s:22508  .debug_str:000000000000d96c .LASF4652
C:\Users\SOLDER~1\AppData\Local\Temp\cc6haz4O.s:27890  .debug_str:0000000000023414 .LASF4653
GAS LISTING C:\Users\SOLDER~1\AppData\Local\Temp\cc6haz4O.s 			page 104


C:\Users\SOLDER~1\AppData\Local\Temp\cc6haz4O.s:24030  .debug_str:0000000000013b8e .LASF4654
C:\Users\SOLDER~1\AppData\Local\Temp\cc6haz4O.s:21210  .debug_str:000000000000849e .LASF4655
C:\Users\SOLDER~1\AppData\Local\Temp\cc6haz4O.s:26120  .debug_str:000000000001c186 .LASF4656
C:\Users\SOLDER~1\AppData\Local\Temp\cc6haz4O.s:23062  .debug_str:000000000000fd4a .LASF4657
C:\Users\SOLDER~1\AppData\Local\Temp\cc6haz4O.s:21606  .debug_str:0000000000009e4e .LASF4658
C:\Users\SOLDER~1\AppData\Local\Temp\cc6haz4O.s:22322  .debug_str:000000000000cd10 .LASF4659
C:\Users\SOLDER~1\AppData\Local\Temp\cc6haz4O.s:28230  .debug_str:0000000000024a2c .LASF4660
C:\Users\SOLDER~1\AppData\Local\Temp\cc6haz4O.s:26276  .debug_str:000000000001cbdb .LASF4661
C:\Users\SOLDER~1\AppData\Local\Temp\cc6haz4O.s:25592  .debug_str:0000000000019f9d .LASF4662
C:\Users\SOLDER~1\AppData\Local\Temp\cc6haz4O.s:19174  .debug_str:000000000000006c .LASF4663
C:\Users\SOLDER~1\AppData\Local\Temp\cc6haz4O.s:23570  .debug_str:0000000000011d7d .LASF4664
C:\Users\SOLDER~1\AppData\Local\Temp\cc6haz4O.s:25456  .debug_str:0000000000019717 .LASF4665
C:\Users\SOLDER~1\AppData\Local\Temp\cc6haz4O.s:30074  .debug_str:000000000002c2d2 .LASF4666
C:\Users\SOLDER~1\AppData\Local\Temp\cc6haz4O.s:19468  .debug_str:0000000000001441 .LASF4667
C:\Users\SOLDER~1\AppData\Local\Temp\cc6haz4O.s:19258  .debug_str:00000000000005e1 .LASF4668
C:\Users\SOLDER~1\AppData\Local\Temp\cc6haz4O.s:20786  .debug_str:00000000000068e9 .LASF4669
C:\Users\SOLDER~1\AppData\Local\Temp\cc6haz4O.s:22654  .debug_str:000000000000e2e9 .LASF4670
C:\Users\SOLDER~1\AppData\Local\Temp\cc6haz4O.s:19602  .debug_str:0000000000001cb9 .LASF4671
C:\Users\SOLDER~1\AppData\Local\Temp\cc6haz4O.s:19506  .debug_str:00000000000016ab .LASF4672
C:\Users\SOLDER~1\AppData\Local\Temp\cc6haz4O.s:30270  .debug_str:000000000002cf0d .LASF4673
C:\Users\SOLDER~1\AppData\Local\Temp\cc6haz4O.s:24650  .debug_str:00000000000163d2 .LASF4674
C:\Users\SOLDER~1\AppData\Local\Temp\cc6haz4O.s:20286  .debug_str:00000000000048dd .LASF4675
C:\Users\SOLDER~1\AppData\Local\Temp\cc6haz4O.s:23716  .debug_str:00000000000126b1 .LASF4676
C:\Users\SOLDER~1\AppData\Local\Temp\cc6haz4O.s:23040  .debug_str:000000000000fbbb .LASF4677
C:\Users\SOLDER~1\AppData\Local\Temp\cc6haz4O.s:21158  .debug_str:0000000000008122 .LASF4678
C:\Users\SOLDER~1\AppData\Local\Temp\cc6haz4O.s:28204  .debug_str:000000000002487e .LASF4679
C:\Users\SOLDER~1\AppData\Local\Temp\cc6haz4O.s:24288  .debug_str:0000000000014d2c .LASF4680
C:\Users\SOLDER~1\AppData\Local\Temp\cc6haz4O.s:19866  .debug_str:0000000000002e2b .LASF4681
C:\Users\SOLDER~1\AppData\Local\Temp\cc6haz4O.s:20792  .debug_str:0000000000006975 .LASF4682
C:\Users\SOLDER~1\AppData\Local\Temp\cc6haz4O.s:19568  .debug_str:0000000000001a71 .LASF4683
C:\Users\SOLDER~1\AppData\Local\Temp\cc6haz4O.s:22218  .debug_str:000000000000c616 .LASF4684
C:\Users\SOLDER~1\AppData\Local\Temp\cc6haz4O.s:29502  .debug_str:0000000000029db3 .LASF4685
C:\Users\SOLDER~1\AppData\Local\Temp\cc6haz4O.s:28972  .debug_str:0000000000027b7f .LASF4686
C:\Users\SOLDER~1\AppData\Local\Temp\cc6haz4O.s:26434  .debug_str:000000000001d696 .LASF4687
C:\Users\SOLDER~1\AppData\Local\Temp\cc6haz4O.s:29040  .debug_str:0000000000028009 .LASF4688
C:\Users\SOLDER~1\AppData\Local\Temp\cc6haz4O.s:27022  .debug_str:000000000001fc9c .LASF4689
C:\Users\SOLDER~1\AppData\Local\Temp\cc6haz4O.s:28490  .debug_str:0000000000025b1e .LASF4690
C:\Users\SOLDER~1\AppData\Local\Temp\cc6haz4O.s:19442  .debug_str:0000000000001290 .LASF4691
C:\Users\SOLDER~1\AppData\Local\Temp\cc6haz4O.s:26872  .debug_str:000000000001f2ef .LASF4692
C:\Users\SOLDER~1\AppData\Local\Temp\cc6haz4O.s:27730  .debug_str:000000000002296d .LASF4693
C:\Users\SOLDER~1\AppData\Local\Temp\cc6haz4O.s:29304  .debug_str:0000000000029100 .LASF4694
C:\Users\SOLDER~1\AppData\Local\Temp\cc6haz4O.s:26474  .debug_str:000000000001d8f5 .LASF4695
C:\Users\SOLDER~1\AppData\Local\Temp\cc6haz4O.s:19542  .debug_str:00000000000018df .LASF4696
C:\Users\SOLDER~1\AppData\Local\Temp\cc6haz4O.s:24272  .debug_str:0000000000014c28 .LASF4697
C:\Users\SOLDER~1\AppData\Local\Temp\cc6haz4O.s:21060  .debug_str:0000000000007aaa .LASF4698
C:\Users\SOLDER~1\AppData\Local\Temp\cc6haz4O.s:29802  .debug_str:000000000002b106 .LASF4699
C:\Users\SOLDER~1\AppData\Local\Temp\cc6haz4O.s:26954  .debug_str:000000000001f868 .LASF4700
C:\Users\SOLDER~1\AppData\Local\Temp\cc6haz4O.s:21550  .debug_str:0000000000009ad7 .LASF4701
C:\Users\SOLDER~1\AppData\Local\Temp\cc6haz4O.s:19856  .debug_str:0000000000002d7e .LASF4702
C:\Users\SOLDER~1\AppData\Local\Temp\cc6haz4O.s:19810  .debug_str:0000000000002ab0 .LASF4703
C:\Users\SOLDER~1\AppData\Local\Temp\cc6haz4O.s:28208  .debug_str:00000000000248c4 .LASF4704
C:\Users\SOLDER~1\AppData\Local\Temp\cc6haz4O.s:25090  .debug_str:0000000000017fa9 .LASF4705
C:\Users\SOLDER~1\AppData\Local\Temp\cc6haz4O.s:29106  .debug_str:000000000002844d .LASF4706
C:\Users\SOLDER~1\AppData\Local\Temp\cc6haz4O.s:23490  .debug_str:000000000001185b .LASF4707
C:\Users\SOLDER~1\AppData\Local\Temp\cc6haz4O.s:21990  .debug_str:000000000000b79a .LASF4708
C:\Users\SOLDER~1\AppData\Local\Temp\cc6haz4O.s:21102  .debug_str:0000000000007d53 .LASF4709
C:\Users\SOLDER~1\AppData\Local\Temp\cc6haz4O.s:26180  .debug_str:000000000001c59d .LASF4710
GAS LISTING C:\Users\SOLDER~1\AppData\Local\Temp\cc6haz4O.s 			page 105


C:\Users\SOLDER~1\AppData\Local\Temp\cc6haz4O.s:27154  .debug_str:00000000000204bd .LASF4711
C:\Users\SOLDER~1\AppData\Local\Temp\cc6haz4O.s:25028  .debug_str:0000000000017b8b .LASF4712
C:\Users\SOLDER~1\AppData\Local\Temp\cc6haz4O.s:25830  .debug_str:000000000001af62 .LASF4713
C:\Users\SOLDER~1\AppData\Local\Temp\cc6haz4O.s:23220  .debug_str:0000000000010763 .LASF4714
C:\Users\SOLDER~1\AppData\Local\Temp\cc6haz4O.s:30690  .debug_str:000000000002ea7c .LASF4715
C:\Users\SOLDER~1\AppData\Local\Temp\cc6haz4O.s:29770  .debug_str:000000000002af2e .LASF4716
C:\Users\SOLDER~1\AppData\Local\Temp\cc6haz4O.s:28854  .debug_str:000000000002742a .LASF4717
C:\Users\SOLDER~1\AppData\Local\Temp\cc6haz4O.s:29292  .debug_str:0000000000029048 .LASF4718
C:\Users\SOLDER~1\AppData\Local\Temp\cc6haz4O.s:27724  .debug_str:000000000002290a .LASF4719
C:\Users\SOLDER~1\AppData\Local\Temp\cc6haz4O.s:23614  .debug_str:000000000001204c .LASF4720
C:\Users\SOLDER~1\AppData\Local\Temp\cc6haz4O.s:25378  .debug_str:0000000000019213 .LASF4721
C:\Users\SOLDER~1\AppData\Local\Temp\cc6haz4O.s:19356  .debug_str:0000000000000d32 .LASF4722
C:\Users\SOLDER~1\AppData\Local\Temp\cc6haz4O.s:26818  .debug_str:000000000001ef56 .LASF4723
C:\Users\SOLDER~1\AppData\Local\Temp\cc6haz4O.s:21480  .debug_str:0000000000009675 .LASF4724
C:\Users\SOLDER~1\AppData\Local\Temp\cc6haz4O.s:26864  .debug_str:000000000001f26a .LASF4725
C:\Users\SOLDER~1\AppData\Local\Temp\cc6haz4O.s:25474  .debug_str:000000000001987b .LASF4726
C:\Users\SOLDER~1\AppData\Local\Temp\cc6haz4O.s:29110  .debug_str:0000000000028487 .LASF4727
C:\Users\SOLDER~1\AppData\Local\Temp\cc6haz4O.s:21552  .debug_str:0000000000009af2 .LASF4728
C:\Users\SOLDER~1\AppData\Local\Temp\cc6haz4O.s:28746  .debug_str:0000000000026d07 .LASF4729
C:\Users\SOLDER~1\AppData\Local\Temp\cc6haz4O.s:27710  .debug_str:0000000000022811 .LASF4730
C:\Users\SOLDER~1\AppData\Local\Temp\cc6haz4O.s:30134  .debug_str:000000000002c6a0 .LASF4731
C:\Users\SOLDER~1\AppData\Local\Temp\cc6haz4O.s:27930  .debug_str:00000000000236b7 .LASF4732
C:\Users\SOLDER~1\AppData\Local\Temp\cc6haz4O.s:28968  .debug_str:0000000000027b58 .LASF4733
C:\Users\SOLDER~1\AppData\Local\Temp\cc6haz4O.s:29420  .debug_str:000000000002989e .LASF4734
C:\Users\SOLDER~1\AppData\Local\Temp\cc6haz4O.s:21964  .debug_str:000000000000b600 .LASF4735
C:\Users\SOLDER~1\AppData\Local\Temp\cc6haz4O.s:20664  .debug_str:00000000000060a2 .LASF4736
C:\Users\SOLDER~1\AppData\Local\Temp\cc6haz4O.s:20014  .debug_str:00000000000037b1 .LASF4737
C:\Users\SOLDER~1\AppData\Local\Temp\cc6haz4O.s:28894  .debug_str:00000000000276da .LASF4738
C:\Users\SOLDER~1\AppData\Local\Temp\cc6haz4O.s:27244  .debug_str:0000000000020aa6 .LASF4739
C:\Users\SOLDER~1\AppData\Local\Temp\cc6haz4O.s:20076  .debug_str:0000000000003bc4 .LASF4740
C:\Users\SOLDER~1\AppData\Local\Temp\cc6haz4O.s:20188  .debug_str:00000000000042cc .LASF4741
C:\Users\SOLDER~1\AppData\Local\Temp\cc6haz4O.s:27950  .debug_str:000000000002380e .LASF4742
C:\Users\SOLDER~1\AppData\Local\Temp\cc6haz4O.s:28292  .debug_str:0000000000024e41 .LASF4743
C:\Users\SOLDER~1\AppData\Local\Temp\cc6haz4O.s:23848  .debug_str:0000000000012f45 .LASF4744
C:\Users\SOLDER~1\AppData\Local\Temp\cc6haz4O.s:19600  .debug_str:0000000000001c93 .LASF4745
C:\Users\SOLDER~1\AppData\Local\Temp\cc6haz4O.s:28472  .debug_str:00000000000259f4 .LASF4746
C:\Users\SOLDER~1\AppData\Local\Temp\cc6haz4O.s:22498  .debug_str:000000000000d8c4 .LASF4747
C:\Users\SOLDER~1\AppData\Local\Temp\cc6haz4O.s:19438  .debug_str:000000000000125a .LASF4748
C:\Users\SOLDER~1\AppData\Local\Temp\cc6haz4O.s:27924  .debug_str:0000000000023664 .LASF4749
C:\Users\SOLDER~1\AppData\Local\Temp\cc6haz4O.s:29690  .debug_str:000000000002a9eb .LASF4750
C:\Users\SOLDER~1\AppData\Local\Temp\cc6haz4O.s:22934  .debug_str:000000000000f4b2 .LASF4751
C:\Users\SOLDER~1\AppData\Local\Temp\cc6haz4O.s:22122  .debug_str:000000000000bfa8 .LASF4752
C:\Users\SOLDER~1\AppData\Local\Temp\cc6haz4O.s:28360  .debug_str:000000000002528d .LASF4753
C:\Users\SOLDER~1\AppData\Local\Temp\cc6haz4O.s:25338  .debug_str:0000000000018fa3 .LASF4754
C:\Users\SOLDER~1\AppData\Local\Temp\cc6haz4O.s:19322  .debug_str:0000000000000aca .LASF4755
C:\Users\SOLDER~1\AppData\Local\Temp\cc6haz4O.s:30766  .debug_str:000000000002ef28 .LASF4756
C:\Users\SOLDER~1\AppData\Local\Temp\cc6haz4O.s:27624  .debug_str:00000000000222ad .LASF4757
C:\Users\SOLDER~1\AppData\Local\Temp\cc6haz4O.s:28100  .debug_str:0000000000024185 .LASF4758
C:\Users\SOLDER~1\AppData\Local\Temp\cc6haz4O.s:20450  .debug_str:00000000000052eb .LASF4759
C:\Users\SOLDER~1\AppData\Local\Temp\cc6haz4O.s:22954  .debug_str:000000000000f604 .LASF4760
C:\Users\SOLDER~1\AppData\Local\Temp\cc6haz4O.s:28356  .debug_str:0000000000025257 .LASF4761
C:\Users\SOLDER~1\AppData\Local\Temp\cc6haz4O.s:25334  .debug_str:0000000000018f63 .LASF4762
C:\Users\SOLDER~1\AppData\Local\Temp\cc6haz4O.s:22196  .debug_str:000000000000c4a4 .LASF4763
C:\Users\SOLDER~1\AppData\Local\Temp\cc6haz4O.s:21466  .debug_str:0000000000009573 .LASF4764
C:\Users\SOLDER~1\AppData\Local\Temp\cc6haz4O.s:21388  .debug_str:0000000000009039 .LASF4765
C:\Users\SOLDER~1\AppData\Local\Temp\cc6haz4O.s:24590  .debug_str:0000000000016017 .LASF4766
C:\Users\SOLDER~1\AppData\Local\Temp\cc6haz4O.s:26892  .debug_str:000000000001f450 .LASF4767
GAS LISTING C:\Users\SOLDER~1\AppData\Local\Temp\cc6haz4O.s 			page 106


C:\Users\SOLDER~1\AppData\Local\Temp\cc6haz4O.s:23790  .debug_str:0000000000012b4e .LASF4768
C:\Users\SOLDER~1\AppData\Local\Temp\cc6haz4O.s:30388  .debug_str:000000000002d6f8 .LASF4769
C:\Users\SOLDER~1\AppData\Local\Temp\cc6haz4O.s:25452  .debug_str:00000000000196d6 .LASF4770
C:\Users\SOLDER~1\AppData\Local\Temp\cc6haz4O.s:22966  .debug_str:000000000000f6be .LASF4771
C:\Users\SOLDER~1\AppData\Local\Temp\cc6haz4O.s:22890  .debug_str:000000000000f1de .LASF4772
C:\Users\SOLDER~1\AppData\Local\Temp\cc6haz4O.s:19972  .debug_str:000000000000351f .LASF4773
C:\Users\SOLDER~1\AppData\Local\Temp\cc6haz4O.s:28484  .debug_str:0000000000025abe .LASF4774
C:\Users\SOLDER~1\AppData\Local\Temp\cc6haz4O.s:19490  .debug_str:00000000000015b8 .LASF4775
C:\Users\SOLDER~1\AppData\Local\Temp\cc6haz4O.s:20102  .debug_str:0000000000003d6c .LASF4776
C:\Users\SOLDER~1\AppData\Local\Temp\cc6haz4O.s:26664  .debug_str:000000000001e527 .LASF4777
C:\Users\SOLDER~1\AppData\Local\Temp\cc6haz4O.s:20514  .debug_str:00000000000056c1 .LASF4778
C:\Users\SOLDER~1\AppData\Local\Temp\cc6haz4O.s:29778  .debug_str:000000000002af8f .LASF4779
C:\Users\SOLDER~1\AppData\Local\Temp\cc6haz4O.s:30048  .debug_str:000000000002c0e3 .LASF4780
C:\Users\SOLDER~1\AppData\Local\Temp\cc6haz4O.s:22728  .debug_str:000000000000e771 .LASF4781
C:\Users\SOLDER~1\AppData\Local\Temp\cc6haz4O.s:26894  .debug_str:000000000001f46c .LASF4782
C:\Users\SOLDER~1\AppData\Local\Temp\cc6haz4O.s:22626  .debug_str:000000000000e0dc .LASF4783
C:\Users\SOLDER~1\AppData\Local\Temp\cc6haz4O.s:22032  .debug_str:000000000000b9ea .LASF4784
C:\Users\SOLDER~1\AppData\Local\Temp\cc6haz4O.s:27296  .debug_str:0000000000020de8 .LASF4785
C:\Users\SOLDER~1\AppData\Local\Temp\cc6haz4O.s:19616  .debug_str:0000000000001dc1 .LASF4786
C:\Users\SOLDER~1\AppData\Local\Temp\cc6haz4O.s:25798  .debug_str:000000000001acf4 .LASF4787
C:\Users\SOLDER~1\AppData\Local\Temp\cc6haz4O.s:30680  .debug_str:000000000002e9b5 .LASF4788
C:\Users\SOLDER~1\AppData\Local\Temp\cc6haz4O.s:21730  .debug_str:000000000000a69b .LASF4789
C:\Users\SOLDER~1\AppData\Local\Temp\cc6haz4O.s:30706  .debug_str:000000000002eb8e .LASF4790
C:\Users\SOLDER~1\AppData\Local\Temp\cc6haz4O.s:20146  .debug_str:000000000000402e .LASF4791
C:\Users\SOLDER~1\AppData\Local\Temp\cc6haz4O.s:28816  .debug_str:00000000000271c9 .LASF4792
C:\Users\SOLDER~1\AppData\Local\Temp\cc6haz4O.s:29030  .debug_str:0000000000027f62 .LASF4793
C:\Users\SOLDER~1\AppData\Local\Temp\cc6haz4O.s:21292  .debug_str:00000000000089cb .LASF4794
C:\Users\SOLDER~1\AppData\Local\Temp\cc6haz4O.s:21740  .debug_str:000000000000a752 .LASF4795
C:\Users\SOLDER~1\AppData\Local\Temp\cc6haz4O.s:29710  .debug_str:000000000002ab08 .LASF4796
C:\Users\SOLDER~1\AppData\Local\Temp\cc6haz4O.s:24832  .debug_str:0000000000016eee .LASF4797
C:\Users\SOLDER~1\AppData\Local\Temp\cc6haz4O.s:20000  .debug_str:00000000000036c4 .LASF4798
C:\Users\SOLDER~1\AppData\Local\Temp\cc6haz4O.s:22126  .debug_str:000000000000bfe9 .LASF4799
C:\Users\SOLDER~1\AppData\Local\Temp\cc6haz4O.s:23236  .debug_str:000000000001082f .LASF4800
C:\Users\SOLDER~1\AppData\Local\Temp\cc6haz4O.s:29380  .debug_str:00000000000295f1 .LASF4801
C:\Users\SOLDER~1\AppData\Local\Temp\cc6haz4O.s:20862  .debug_str:0000000000006dc2 .LASF4802
C:\Users\SOLDER~1\AppData\Local\Temp\cc6haz4O.s:27666  .debug_str:0000000000022520 .LASF4803
C:\Users\SOLDER~1\AppData\Local\Temp\cc6haz4O.s:23052  .debug_str:000000000000fc86 .LASF4804
C:\Users\SOLDER~1\AppData\Local\Temp\cc6haz4O.s:27280  .debug_str:0000000000020d07 .LASF4805
C:\Users\SOLDER~1\AppData\Local\Temp\cc6haz4O.s:30260  .debug_str:000000000002ce6f .LASF4806
C:\Users\SOLDER~1\AppData\Local\Temp\cc6haz4O.s:20710  .debug_str:00000000000063ce .LASF4807
C:\Users\SOLDER~1\AppData\Local\Temp\cc6haz4O.s:28264  .debug_str:0000000000024c87 .LASF4808
C:\Users\SOLDER~1\AppData\Local\Temp\cc6haz4O.s:21418  .debug_str:0000000000009248 .LASF4809
C:\Users\SOLDER~1\AppData\Local\Temp\cc6haz4O.s:23066  .debug_str:000000000000fda8 .LASF4810
C:\Users\SOLDER~1\AppData\Local\Temp\cc6haz4O.s:25944  .debug_str:000000000001b65c .LASF4811
C:\Users\SOLDER~1\AppData\Local\Temp\cc6haz4O.s:30522  .debug_str:000000000002df91 .LASF4812
C:\Users\SOLDER~1\AppData\Local\Temp\cc6haz4O.s:29830  .debug_str:000000000002b325 .LASF4813
C:\Users\SOLDER~1\AppData\Local\Temp\cc6haz4O.s:21232  .debug_str:00000000000085ff .LASF4814
C:\Users\SOLDER~1\AppData\Local\Temp\cc6haz4O.s:23368  .debug_str:000000000001109d .LASF4815
C:\Users\SOLDER~1\AppData\Local\Temp\cc6haz4O.s:22424  .debug_str:000000000000d3d2 .LASF4816
C:\Users\SOLDER~1\AppData\Local\Temp\cc6haz4O.s:29998  .debug_str:000000000002bd82 .LASF4817
C:\Users\SOLDER~1\AppData\Local\Temp\cc6haz4O.s:19982  .debug_str:00000000000035b8 .LASF4818
C:\Users\SOLDER~1\AppData\Local\Temp\cc6haz4O.s:19168  .debug_str:0000000000000000 .LASF4819
C:\Users\SOLDER~1\AppData\Local\Temp\cc6haz4O.s:26762  .debug_str:000000000001ebc4 .LASF4820
C:\Users\SOLDER~1\AppData\Local\Temp\cc6haz4O.s:27424  .debug_str:000000000002160f .LASF4821
C:\Users\SOLDER~1\AppData\Local\Temp\cc6haz4O.s:30464  .debug_str:000000000002dbcf .LASF4822
C:\Users\SOLDER~1\AppData\Local\Temp\cc6haz4O.s:21394  .debug_str:0000000000009098 .LASF4823
C:\Users\SOLDER~1\AppData\Local\Temp\cc6haz4O.s:20586  .debug_str:0000000000005bbd .LASF4824
GAS LISTING C:\Users\SOLDER~1\AppData\Local\Temp\cc6haz4O.s 			page 107


C:\Users\SOLDER~1\AppData\Local\Temp\cc6haz4O.s:19332  .debug_str:0000000000000b89 .LASF4825
C:\Users\SOLDER~1\AppData\Local\Temp\cc6haz4O.s:27848  .debug_str:000000000002313e .LASF4826
C:\Users\SOLDER~1\AppData\Local\Temp\cc6haz4O.s:22770  .debug_str:000000000000ea65 .LASF4827
C:\Users\SOLDER~1\AppData\Local\Temp\cc6haz4O.s:24852  .debug_str:0000000000017016 .LASF4828
C:\Users\SOLDER~1\AppData\Local\Temp\cc6haz4O.s:20020  .debug_str:0000000000003805 .LASF4829
C:\Users\SOLDER~1\AppData\Local\Temp\cc6haz4O.s:19768  .debug_str:00000000000027ce .LASF4830
C:\Users\SOLDER~1\AppData\Local\Temp\cc6haz4O.s:24342  .debug_str:00000000000150a5 .LASF4831
C:\Users\SOLDER~1\AppData\Local\Temp\cc6haz4O.s:29002  .debug_str:0000000000027d53 .LASF4832
C:\Users\SOLDER~1\AppData\Local\Temp\cc6haz4O.s:24524  .debug_str:0000000000015c0d .LASF4833
C:\Users\SOLDER~1\AppData\Local\Temp\cc6haz4O.s:19998  .debug_str:00000000000036ac .LASF4834
C:\Users\SOLDER~1\AppData\Local\Temp\cc6haz4O.s:27420  .debug_str:00000000000215d8 .LASF4835
C:\Users\SOLDER~1\AppData\Local\Temp\cc6haz4O.s:24192  .debug_str:00000000000146c9 .LASF4836
C:\Users\SOLDER~1\AppData\Local\Temp\cc6haz4O.s:21268  .debug_str:0000000000008860 .LASF4837
C:\Users\SOLDER~1\AppData\Local\Temp\cc6haz4O.s:22676  .debug_str:000000000000e474 .LASF4838
C:\Users\SOLDER~1\AppData\Local\Temp\cc6haz4O.s:27594  .debug_str:00000000000220f1 .LASF4839
C:\Users\SOLDER~1\AppData\Local\Temp\cc6haz4O.s:27344  .debug_str:00000000000210d7 .LASF4840
C:\Users\SOLDER~1\AppData\Local\Temp\cc6haz4O.s:25768  .debug_str:000000000001ab06 .LASF4841
C:\Users\SOLDER~1\AppData\Local\Temp\cc6haz4O.s:24790  .debug_str:0000000000016c9e .LASF4842
C:\Users\SOLDER~1\AppData\Local\Temp\cc6haz4O.s:20068  .debug_str:0000000000003b3a .LASF4843
C:\Users\SOLDER~1\AppData\Local\Temp\cc6haz4O.s:24822  .debug_str:0000000000016e5e .LASF4844
C:\Users\SOLDER~1\AppData\Local\Temp\cc6haz4O.s:29356  .debug_str:0000000000029460 .LASF4845
C:\Users\SOLDER~1\AppData\Local\Temp\cc6haz4O.s:22548  .debug_str:000000000000dbb7 .LASF4846
C:\Users\SOLDER~1\AppData\Local\Temp\cc6haz4O.s:29142  .debug_str:00000000000286af .LASF4847
C:\Users\SOLDER~1\AppData\Local\Temp\cc6haz4O.s:28770  .debug_str:0000000000026ea4 .LASF4848
C:\Users\SOLDER~1\AppData\Local\Temp\cc6haz4O.s:23998  .debug_str:0000000000013914 .LASF4849
C:\Users\SOLDER~1\AppData\Local\Temp\cc6haz4O.s:27178  .debug_str:0000000000020666 .LASF4850
C:\Users\SOLDER~1\AppData\Local\Temp\cc6haz4O.s:25742  .debug_str:000000000001a964 .LASF4852
C:\Users\SOLDER~1\AppData\Local\Temp\cc6haz4O.s:27646  .debug_str:00000000000223c7 .LASF4853
C:\Users\SOLDER~1\AppData\Local\Temp\cc6haz4O.s:19894  .debug_str:0000000000003013 .LASF4854
C:\Users\SOLDER~1\AppData\Local\Temp\cc6haz4O.s:23782  .debug_str:0000000000012aaa .LASF4855
C:\Users\SOLDER~1\AppData\Local\Temp\cc6haz4O.s:22686  .debug_str:000000000000e501 .LASF4856
C:\Users\SOLDER~1\AppData\Local\Temp\cc6haz4O.s:25954  .debug_str:000000000001b6f9 .LASF4857
C:\Users\SOLDER~1\AppData\Local\Temp\cc6haz4O.s:21194  .debug_str:000000000000838d .LASF4858
C:\Users\SOLDER~1\AppData\Local\Temp\cc6haz4O.s:21798  .debug_str:000000000000ab43 .LASF4859
C:\Users\SOLDER~1\AppData\Local\Temp\cc6haz4O.s:29718  .debug_str:000000000002ab98 .LASF4860
C:\Users\SOLDER~1\AppData\Local\Temp\cc6haz4O.s:20082  .debug_str:0000000000003c2f .LASF4861
C:\Users\SOLDER~1\AppData\Local\Temp\cc6haz4O.s:28734  .debug_str:0000000000026c32 .LASF4862
C:\Users\SOLDER~1\AppData\Local\Temp\cc6haz4O.s:27438  .debug_str:000000000002170e .LASF4863
C:\Users\SOLDER~1\AppData\Local\Temp\cc6haz4O.s:20226  .debug_str:000000000000451a .LASF4864
C:\Users\SOLDER~1\AppData\Local\Temp\cc6haz4O.s:27746  .debug_str:0000000000022a88 .LASF4865
C:\Users\SOLDER~1\AppData\Local\Temp\cc6haz4O.s:20050  .debug_str:0000000000003a0e .LASF4866
C:\Users\SOLDER~1\AppData\Local\Temp\cc6haz4O.s:20246  .debug_str:000000000000464d .LASF4867
C:\Users\SOLDER~1\AppData\Local\Temp\cc6haz4O.s:22672  .debug_str:000000000000e427 .LASF4868
C:\Users\SOLDER~1\AppData\Local\Temp\cc6haz4O.s:29006  .debug_str:0000000000027d93 .LASF4869
C:\Users\SOLDER~1\AppData\Local\Temp\cc6haz4O.s:20270  .debug_str:00000000000047df .LASF4870
C:\Users\SOLDER~1\AppData\Local\Temp\cc6haz4O.s:19308  .debug_str:00000000000009d2 .LASF4871
C:\Users\SOLDER~1\AppData\Local\Temp\cc6haz4O.s:26844  .debug_str:000000000001f105 .LASF4872
C:\Users\SOLDER~1\AppData\Local\Temp\cc6haz4O.s:22022  .debug_str:000000000000b95d .LASF4873
C:\Users\SOLDER~1\AppData\Local\Temp\cc6haz4O.s:28408  .debug_str:000000000002558a .LASF4874
C:\Users\SOLDER~1\AppData\Local\Temp\cc6haz4O.s:30422  .debug_str:000000000002d92b .LASF4875
C:\Users\SOLDER~1\AppData\Local\Temp\cc6haz4O.s:19756  .debug_str:00000000000026de .LASF4876
C:\Users\SOLDER~1\AppData\Local\Temp\cc6haz4O.s:20266  .debug_str:000000000000478f .LASF4877
C:\Users\SOLDER~1\AppData\Local\Temp\cc6haz4O.s:27306  .debug_str:0000000000020e6a .LASF4878
C:\Users\SOLDER~1\AppData\Local\Temp\cc6haz4O.s:29472  .debug_str:0000000000029ba1 .LASF4879
C:\Users\SOLDER~1\AppData\Local\Temp\cc6haz4O.s:28990  .debug_str:0000000000027c80 .LASF4880
C:\Users\SOLDER~1\AppData\Local\Temp\cc6haz4O.s:28810  .debug_str:0000000000027156 .LASF4881
C:\Users\SOLDER~1\AppData\Local\Temp\cc6haz4O.s:29496  .debug_str:0000000000029d3c .LASF4882
GAS LISTING C:\Users\SOLDER~1\AppData\Local\Temp\cc6haz4O.s 			page 108


C:\Users\SOLDER~1\AppData\Local\Temp\cc6haz4O.s:24186  .debug_str:0000000000014663 .LASF4883
C:\Users\SOLDER~1\AppData\Local\Temp\cc6haz4O.s:29554  .debug_str:000000000002a115 .LASF4884
C:\Users\SOLDER~1\AppData\Local\Temp\cc6haz4O.s:27096  .debug_str:0000000000020131 .LASF4885
C:\Users\SOLDER~1\AppData\Local\Temp\cc6haz4O.s:28178  .debug_str:00000000000246b2 .LASF4886
C:\Users\SOLDER~1\AppData\Local\Temp\cc6haz4O.s:23812  .debug_str:0000000000012cd0 .LASF4887
C:\Users\SOLDER~1\AppData\Local\Temp\cc6haz4O.s:24942  .debug_str:000000000001760d .LASF4888
C:\Users\SOLDER~1\AppData\Local\Temp\cc6haz4O.s:20466  .debug_str:00000000000053e5 .LASF4889
C:\Users\SOLDER~1\AppData\Local\Temp\cc6haz4O.s:27464  .debug_str:00000000000218c0 .LASF4890
C:\Users\SOLDER~1\AppData\Local\Temp\cc6haz4O.s:28694  .debug_str:0000000000026960 .LASF4891
C:\Users\SOLDER~1\AppData\Local\Temp\cc6haz4O.s:23374  .debug_str:00000000000110f2 .LASF4892
C:\Users\SOLDER~1\AppData\Local\Temp\cc6haz4O.s:28114  .debug_str:000000000002427b .LASF4893
C:\Users\SOLDER~1\AppData\Local\Temp\cc6haz4O.s:25906  .debug_str:000000000001b3dd .LASF4894
C:\Users\SOLDER~1\AppData\Local\Temp\cc6haz4O.s:23244  .debug_str:00000000000108c8 .LASF4895
C:\Users\SOLDER~1\AppData\Local\Temp\cc6haz4O.s:20308  .debug_str:0000000000004a70 .LASF4896
C:\Users\SOLDER~1\AppData\Local\Temp\cc6haz4O.s:28518  .debug_str:0000000000025d09 .LASF4897
C:\Users\SOLDER~1\AppData\Local\Temp\cc6haz4O.s:22562  .debug_str:000000000000dc85 .LASF4898
C:\Users\SOLDER~1\AppData\Local\Temp\cc6haz4O.s:30486  .debug_str:000000000002dd45 .LASF4899
C:\Users\SOLDER~1\AppData\Local\Temp\cc6haz4O.s:20952  .debug_str:00000000000073ec .LASF4900
C:\Users\SOLDER~1\AppData\Local\Temp\cc6haz4O.s:25336  .debug_str:0000000000018f80 .LASF4901
C:\Users\SOLDER~1\AppData\Local\Temp\cc6haz4O.s:22292  .debug_str:000000000000cb20 .LASF4902
C:\Users\SOLDER~1\AppData\Local\Temp\cc6haz4O.s:28504  .debug_str:0000000000025c1f .LASF4903
C:\Users\SOLDER~1\AppData\Local\Temp\cc6haz4O.s:28896  .debug_str:00000000000276fa .LASF4904
C:\Users\SOLDER~1\AppData\Local\Temp\cc6haz4O.s:26508  .debug_str:000000000001dae8 .LASF4905
C:\Users\SOLDER~1\AppData\Local\Temp\cc6haz4O.s:26966  .debug_str:000000000001f91f .LASF4906
C:\Users\SOLDER~1\AppData\Local\Temp\cc6haz4O.s:27128  .debug_str:0000000000020324 .LASF4907
C:\Users\SOLDER~1\AppData\Local\Temp\cc6haz4O.s:28286  .debug_str:0000000000024ddf .LASF4908
C:\Users\SOLDER~1\AppData\Local\Temp\cc6haz4O.s:27650  .debug_str:000000000002240d .LASF4909
C:\Users\SOLDER~1\AppData\Local\Temp\cc6haz4O.s:21054  .debug_str:0000000000007a38 .LASF4910
C:\Users\SOLDER~1\AppData\Local\Temp\cc6haz4O.s:22300  .debug_str:000000000000cbad .LASF4911
C:\Users\SOLDER~1\AppData\Local\Temp\cc6haz4O.s:24558  .debug_str:0000000000015e1a .LASF4912
C:\Users\SOLDER~1\AppData\Local\Temp\cc6haz4O.s:28226  .debug_str:00000000000249e1 .LASF4913
C:\Users\SOLDER~1\AppData\Local\Temp\cc6haz4O.s:29112  .debug_str:00000000000284a3 .LASF4914
C:\Users\SOLDER~1\AppData\Local\Temp\cc6haz4O.s:23452  .debug_str:0000000000011608 .LASF4915
C:\Users\SOLDER~1\AppData\Local\Temp\cc6haz4O.s:19346  .debug_str:0000000000000c7b .LASF4916
C:\Users\SOLDER~1\AppData\Local\Temp\cc6haz4O.s:25778  .debug_str:000000000001ab8f .LASF4917
C:\Users\SOLDER~1\AppData\Local\Temp\cc6haz4O.s:28042  .debug_str:0000000000023dce .LASF4918
C:\Users\SOLDER~1\AppData\Local\Temp\cc6haz4O.s:28322  .debug_str:000000000002502e .LASF4919
C:\Users\SOLDER~1\AppData\Local\Temp\cc6haz4O.s:24338  .debug_str:000000000001505d .LASF4920
C:\Users\SOLDER~1\AppData\Local\Temp\cc6haz4O.s:28464  .debug_str:0000000000025952 .LASF4921
C:\Users\SOLDER~1\AppData\Local\Temp\cc6haz4O.s:29294  .debug_str:0000000000029064 .LASF4922
C:\Users\SOLDER~1\AppData\Local\Temp\cc6haz4O.s:21282  .debug_str:000000000000892d .LASF4923
C:\Users\SOLDER~1\AppData\Local\Temp\cc6haz4O.s:20186  .debug_str:00000000000042a9 .LASF4924
C:\Users\SOLDER~1\AppData\Local\Temp\cc6haz4O.s:25922  .debug_str:000000000001b4e2 .LASF4925
C:\Users\SOLDER~1\AppData\Local\Temp\cc6haz4O.s:27094  .debug_str:000000000002010e .LASF4926
C:\Users\SOLDER~1\AppData\Local\Temp\cc6haz4O.s:23608  .debug_str:0000000000011fe4 .LASF4927
C:\Users\SOLDER~1\AppData\Local\Temp\cc6haz4O.s:30648  .debug_str:000000000002e793 .LASF4928
C:\Users\SOLDER~1\AppData\Local\Temp\cc6haz4O.s:22724  .debug_str:000000000000e734 .LASF4929
C:\Users\SOLDER~1\AppData\Local\Temp\cc6haz4O.s:29498  .debug_str:0000000000029d6b .LASF4930
C:\Users\SOLDER~1\AppData\Local\Temp\cc6haz4O.s:30320  .debug_str:000000000002d2be .LASF4931
C:\Users\SOLDER~1\AppData\Local\Temp\cc6haz4O.s:26346  .debug_str:000000000001d0aa .LASF4932
C:\Users\SOLDER~1\AppData\Local\Temp\cc6haz4O.s:29794  .debug_str:000000000002b06f .LASF4933
C:\Users\SOLDER~1\AppData\Local\Temp\cc6haz4O.s:26432  .debug_str:000000000001d671 .LASF4934
C:\Users\SOLDER~1\AppData\Local\Temp\cc6haz4O.s:27066  .debug_str:000000000001ff4b .LASF4935
C:\Users\SOLDER~1\AppData\Local\Temp\cc6haz4O.s:25348  .debug_str:0000000000019049 .LASF4936
C:\Users\SOLDER~1\AppData\Local\Temp\cc6haz4O.s:21062  .debug_str:0000000000007ac5 .LASF4937
C:\Users\SOLDER~1\AppData\Local\Temp\cc6haz4O.s:23438  .debug_str:00000000000114f4 .LASF4938
C:\Users\SOLDER~1\AppData\Local\Temp\cc6haz4O.s:23648  .debug_str:0000000000012269 .LASF4939
GAS LISTING C:\Users\SOLDER~1\AppData\Local\Temp\cc6haz4O.s 			page 109


C:\Users\SOLDER~1\AppData\Local\Temp\cc6haz4O.s:24694  .debug_str:000000000001669b .LASF4940
C:\Users\SOLDER~1\AppData\Local\Temp\cc6haz4O.s:26700  .debug_str:000000000001e77e .LASF4941
C:\Users\SOLDER~1\AppData\Local\Temp\cc6haz4O.s:28342  .debug_str:0000000000025187 .LASF4942
C:\Users\SOLDER~1\AppData\Local\Temp\cc6haz4O.s:27768  .debug_str:0000000000022c1e .LASF4943
C:\Users\SOLDER~1\AppData\Local\Temp\cc6haz4O.s:27210  .debug_str:000000000002086e .LASF4944
C:\Users\SOLDER~1\AppData\Local\Temp\cc6haz4O.s:27498  .debug_str:0000000000021af0 .LASF4945
C:\Users\SOLDER~1\AppData\Local\Temp\cc6haz4O.s:22746  .debug_str:000000000000e8ae .LASF4946
C:\Users\SOLDER~1\AppData\Local\Temp\cc6haz4O.s:23806  .debug_str:0000000000012c4d .LASF4947
C:\Users\SOLDER~1\AppData\Local\Temp\cc6haz4O.s:23684  .debug_str:0000000000012489 .LASF4948
C:\Users\SOLDER~1\AppData\Local\Temp\cc6haz4O.s:22418  .debug_str:000000000000d366 .LASF4949
C:\Users\SOLDER~1\AppData\Local\Temp\cc6haz4O.s:29210  .debug_str:0000000000028b13 .LASF4950
C:\Users\SOLDER~1\AppData\Local\Temp\cc6haz4O.s:19718  .debug_str:0000000000002487 .LASF4951
C:\Users\SOLDER~1\AppData\Local\Temp\cc6haz4O.s:29080  .debug_str:00000000000282c0 .LASF4952
C:\Users\SOLDER~1\AppData\Local\Temp\cc6haz4O.s:24410  .debug_str:00000000000154ff .LASF4953
C:\Users\SOLDER~1\AppData\Local\Temp\cc6haz4O.s:22026  .debug_str:000000000000b994 .LASF4954
C:\Users\SOLDER~1\AppData\Local\Temp\cc6haz4O.s:23142  .debug_str:0000000000010252 .LASF4955
C:\Users\SOLDER~1\AppData\Local\Temp\cc6haz4O.s:30376  .debug_str:000000000002d658 .LASF4956
C:\Users\SOLDER~1\AppData\Local\Temp\cc6haz4O.s:24366  .debug_str:000000000001521d .LASF4957
C:\Users\SOLDER~1\AppData\Local\Temp\cc6haz4O.s:20722  .debug_str:00000000000064ae .LASF4958
C:\Users\SOLDER~1\AppData\Local\Temp\cc6haz4O.s:26492  .debug_str:000000000001da1d .LASF4959
C:\Users\SOLDER~1\AppData\Local\Temp\cc6haz4O.s:21600  .debug_str:0000000000009df5 .LASF4960
C:\Users\SOLDER~1\AppData\Local\Temp\cc6haz4O.s:25706  .debug_str:000000000001a6d4 .LASF4961
C:\Users\SOLDER~1\AppData\Local\Temp\cc6haz4O.s:23176  .debug_str:0000000000010493 .LASF4962
C:\Users\SOLDER~1\AppData\Local\Temp\cc6haz4O.s:21588  .debug_str:0000000000009d2b .LASF4963
C:\Users\SOLDER~1\AppData\Local\Temp\cc6haz4O.s:24668  .debug_str:0000000000016505 .LASF4964
C:\Users\SOLDER~1\AppData\Local\Temp\cc6haz4O.s:21922  .debug_str:000000000000b309 .LASF4965
C:\Users\SOLDER~1\AppData\Local\Temp\cc6haz4O.s:19522  .debug_str:00000000000017cd .LASF4966
C:\Users\SOLDER~1\AppData\Local\Temp\cc6haz4O.s:21732  .debug_str:000000000000a6b5 .LASF4967
C:\Users\SOLDER~1\AppData\Local\Temp\cc6haz4O.s:22140  .debug_str:000000000000c0de .LASF4968
C:\Users\SOLDER~1\AppData\Local\Temp\cc6haz4O.s:28324  .debug_str:0000000000025051 .LASF4969
C:\Users\SOLDER~1\AppData\Local\Temp\cc6haz4O.s:25294  .debug_str:0000000000018cac .LASF4970
C:\Users\SOLDER~1\AppData\Local\Temp\cc6haz4O.s:25754  .debug_str:000000000001aa27 .LASF4971
C:\Users\SOLDER~1\AppData\Local\Temp\cc6haz4O.s:20260  .debug_str:0000000000004734 .LASF4972
C:\Users\SOLDER~1\AppData\Local\Temp\cc6haz4O.s:26926  .debug_str:000000000001f68f .LASF4973
C:\Users\SOLDER~1\AppData\Local\Temp\cc6haz4O.s:23560  .debug_str:0000000000011ce2 .LASF4974
C:\Users\SOLDER~1\AppData\Local\Temp\cc6haz4O.s:19472  .debug_str:000000000000148b .LASF4975
C:\Users\SOLDER~1\AppData\Local\Temp\cc6haz4O.s:20052  .debug_str:0000000000003a36 .LASF4976
C:\Users\SOLDER~1\AppData\Local\Temp\cc6haz4O.s:23382  .debug_str:000000000001117c .LASF4977
C:\Users\SOLDER~1\AppData\Local\Temp\cc6haz4O.s:19818  .debug_str:0000000000002b3d .LASF4978
C:\Users\SOLDER~1\AppData\Local\Temp\cc6haz4O.s:26900  .debug_str:000000000001f4d6 .LASF4979
C:\Users\SOLDER~1\AppData\Local\Temp\cc6haz4O.s:26226  .debug_str:000000000001c889 .LASF4980
C:\Users\SOLDER~1\AppData\Local\Temp\cc6haz4O.s:30776  .debug_str:000000000002efd0 .LASF4981
C:\Users\SOLDER~1\AppData\Local\Temp\cc6haz4O.s:30726  .debug_str:000000000002eccf .LASF4982
C:\Users\SOLDER~1\AppData\Local\Temp\cc6haz4O.s:29646  .debug_str:000000000002a73e .LASF4983
C:\Users\SOLDER~1\AppData\Local\Temp\cc6haz4O.s:26944  .debug_str:000000000001f7cf .LASF4984
C:\Users\SOLDER~1\AppData\Local\Temp\cc6haz4O.s:21476  .debug_str:000000000000962f .LASF4985
C:\Users\SOLDER~1\AppData\Local\Temp\cc6haz4O.s:27264  .debug_str:0000000000020bec .LASF4986
C:\Users\SOLDER~1\AppData\Local\Temp\cc6haz4O.s:27760  .debug_str:0000000000022b86 .LASF4987
C:\Users\SOLDER~1\AppData\Local\Temp\cc6haz4O.s:29402  .debug_str:0000000000029772 .LASF4988
C:\Users\SOLDER~1\AppData\Local\Temp\cc6haz4O.s:23908  .debug_str:0000000000013303 .LASF4989
C:\Users\SOLDER~1\AppData\Local\Temp\cc6haz4O.s:25034  .debug_str:0000000000017be9 .LASF4990
C:\Users\SOLDER~1\AppData\Local\Temp\cc6haz4O.s:19914  .debug_str:0000000000003138 .LASF4991
C:\Users\SOLDER~1\AppData\Local\Temp\cc6haz4O.s:27786  .debug_str:0000000000022d4d .LASF4992
C:\Users\SOLDER~1\AppData\Local\Temp\cc6haz4O.s:29742  .debug_str:000000000002ad54 .LASF4993
C:\Users\SOLDER~1\AppData\Local\Temp\cc6haz4O.s:28084  .debug_str:0000000000024091 .LASF4994
C:\Users\SOLDER~1\AppData\Local\Temp\cc6haz4O.s:23612  .debug_str:000000000001201e .LASF4995
C:\Users\SOLDER~1\AppData\Local\Temp\cc6haz4O.s:28148  .debug_str:00000000000244b0 .LASF4996
GAS LISTING C:\Users\SOLDER~1\AppData\Local\Temp\cc6haz4O.s 			page 110


C:\Users\SOLDER~1\AppData\Local\Temp\cc6haz4O.s:29912  .debug_str:000000000002b81a .LASF4997
C:\Users\SOLDER~1\AppData\Local\Temp\cc6haz4O.s:24076  .debug_str:0000000000013eca .LASF4998
C:\Users\SOLDER~1\AppData\Local\Temp\cc6haz4O.s:21670  .debug_str:000000000000a2a3 .LASF4999
C:\Users\SOLDER~1\AppData\Local\Temp\cc6haz4O.s:28902  .debug_str:0000000000027754 .LASF5000
C:\Users\SOLDER~1\AppData\Local\Temp\cc6haz4O.s:28468  .debug_str:00000000000259a8 .LASF5001
C:\Users\SOLDER~1\AppData\Local\Temp\cc6haz4O.s:27720  .debug_str:00000000000228bc .LASF5002
C:\Users\SOLDER~1\AppData\Local\Temp\cc6haz4O.s:26150  .debug_str:000000000001c3a8 .LASF5003
C:\Users\SOLDER~1\AppData\Local\Temp\cc6haz4O.s:29214  .debug_str:0000000000028b61 .LASF5004
C:\Users\SOLDER~1\AppData\Local\Temp\cc6haz4O.s:27908  .debug_str:0000000000023545 .LASF5005
C:\Users\SOLDER~1\AppData\Local\Temp\cc6haz4O.s:29008  .debug_str:0000000000027dbb .LASF5006
C:\Users\SOLDER~1\AppData\Local\Temp\cc6haz4O.s:26730  .debug_str:000000000001e97f .LASF5007
C:\Users\SOLDER~1\AppData\Local\Temp\cc6haz4O.s:24978  .debug_str:0000000000017867 .LASF5008
C:\Users\SOLDER~1\AppData\Local\Temp\cc6haz4O.s:24572  .debug_str:0000000000015ee1 .LASF5009
C:\Users\SOLDER~1\AppData\Local\Temp\cc6haz4O.s:28218  .debug_str:000000000002493c .LASF5010
C:\Users\SOLDER~1\AppData\Local\Temp\cc6haz4O.s:29086  .debug_str:0000000000028329 .LASF5011
C:\Users\SOLDER~1\AppData\Local\Temp\cc6haz4O.s:24146  .debug_str:0000000000014394 .LASF5012
C:\Users\SOLDER~1\AppData\Local\Temp\cc6haz4O.s:29122  .debug_str:000000000002854d .LASF5013
C:\Users\SOLDER~1\AppData\Local\Temp\cc6haz4O.s:29460  .debug_str:0000000000029aeb .LASF5014
C:\Users\SOLDER~1\AppData\Local\Temp\cc6haz4O.s:24106  .debug_str:00000000000140d1 .LASF5015
C:\Users\SOLDER~1\AppData\Local\Temp\cc6haz4O.s:28088  .debug_str:00000000000240d3 .LASF5016
C:\Users\SOLDER~1\AppData\Local\Temp\cc6haz4O.s:24188  .debug_str:0000000000014696 .LASF5017
C:\Users\SOLDER~1\AppData\Local\Temp\cc6haz4O.s:24868  .debug_str:0000000000017114 .LASF5018
C:\Users\SOLDER~1\AppData\Local\Temp\cc6haz4O.s:24448  .debug_str:0000000000015798 .LASF5019
C:\Users\SOLDER~1\AppData\Local\Temp\cc6haz4O.s:25540  .debug_str:0000000000019c69 .LASF5020
C:\Users\SOLDER~1\AppData\Local\Temp\cc6haz4O.s:22272  .debug_str:000000000000c9b4 .LASF5021
C:\Users\SOLDER~1\AppData\Local\Temp\cc6haz4O.s:28836  .debug_str:0000000000027301 .LASF5022
C:\Users\SOLDER~1\AppData\Local\Temp\cc6haz4O.s:29872  .debug_str:000000000002b59f .LASF5023
C:\Users\SOLDER~1\AppData\Local\Temp\cc6haz4O.s:27148  .debug_str:000000000002046d .LASF5024
C:\Users\SOLDER~1\AppData\Local\Temp\cc6haz4O.s:23900  .debug_str:0000000000013266 .LASF5025
C:\Users\SOLDER~1\AppData\Local\Temp\cc6haz4O.s:23604  .debug_str:0000000000011f95 .LASF5026
C:\Users\SOLDER~1\AppData\Local\Temp\cc6haz4O.s:27140  .debug_str:00000000000203e8 .LASF5027
C:\Users\SOLDER~1\AppData\Local\Temp\cc6haz4O.s:24250  .debug_str:0000000000014a84 .LASF5028
C:\Users\SOLDER~1\AppData\Local\Temp\cc6haz4O.s:25832  .debug_str:000000000001af7e .LASF5029
C:\Users\SOLDER~1\AppData\Local\Temp\cc6haz4O.s:23122  .debug_str:0000000000010135 .LASF5030
C:\Users\SOLDER~1\AppData\Local\Temp\cc6haz4O.s:28728  .debug_str:0000000000026bbd .LASF5031
C:\Users\SOLDER~1\AppData\Local\Temp\cc6haz4O.s:26936  .debug_str:000000000001f74d .LASF5032
C:\Users\SOLDER~1\AppData\Local\Temp\cc6haz4O.s:19710  .debug_str:00000000000023ed .LASF5033
C:\Users\SOLDER~1\AppData\Local\Temp\cc6haz4O.s:19460  .debug_str:00000000000013bc .LASF5034
C:\Users\SOLDER~1\AppData\Local\Temp\cc6haz4O.s:27616  .debug_str:000000000002223b .LASF5035
C:\Users\SOLDER~1\AppData\Local\Temp\cc6haz4O.s:23140  .debug_str:0000000000010234 .LASF5036
C:\Users\SOLDER~1\AppData\Local\Temp\cc6haz4O.s:23664  .debug_str:0000000000012378 .LASF5037
C:\Users\SOLDER~1\AppData\Local\Temp\cc6haz4O.s:29236  .debug_str:0000000000028cc8 .LASF5038
C:\Users\SOLDER~1\AppData\Local\Temp\cc6haz4O.s:25992  .debug_str:000000000001b95c .LASF5039
C:\Users\SOLDER~1\AppData\Local\Temp\cc6haz4O.s:23922  .debug_str:0000000000013415 .LASF5040
C:\Users\SOLDER~1\AppData\Local\Temp\cc6haz4O.s:27472  .debug_str:000000000002192d .LASF5041
C:\Users\SOLDER~1\AppData\Local\Temp\cc6haz4O.s:25194  .debug_str:0000000000018657 .LASF5042
C:\Users\SOLDER~1\AppData\Local\Temp\cc6haz4O.s:26972  .debug_str:000000000001f991 .LASF5043
C:\Users\SOLDER~1\AppData\Local\Temp\cc6haz4O.s:25244  .debug_str:0000000000018978 .LASF5044
C:\Users\SOLDER~1\AppData\Local\Temp\cc6haz4O.s:23970  .debug_str:0000000000013752 .LASF5045
C:\Users\SOLDER~1\AppData\Local\Temp\cc6haz4O.s:21482  .debug_str:0000000000009691 .LASF5046
C:\Users\SOLDER~1\AppData\Local\Temp\cc6haz4O.s:28030  .debug_str:0000000000023d08 .LASF5047
C:\Users\SOLDER~1\AppData\Local\Temp\cc6haz4O.s:29184  .debug_str:000000000002896f .LASF5048
C:\Users\SOLDER~1\AppData\Local\Temp\cc6haz4O.s:27386  .debug_str:00000000000213c2 .LASF5049
C:\Users\SOLDER~1\AppData\Local\Temp\cc6haz4O.s:27384  .debug_str:00000000000213a3 .LASF5050
C:\Users\SOLDER~1\AppData\Local\Temp\cc6haz4O.s:19360  .debug_str:0000000000000d8c .LASF5051
C:\Users\SOLDER~1\AppData\Local\Temp\cc6haz4O.s:30782  .debug_str:000000000002f029 .LASF5052
C:\Users\SOLDER~1\AppData\Local\Temp\cc6haz4O.s:26330  .debug_str:000000000001cfaa .LASF5053
GAS LISTING C:\Users\SOLDER~1\AppData\Local\Temp\cc6haz4O.s 			page 111


C:\Users\SOLDER~1\AppData\Local\Temp\cc6haz4O.s:21618  .debug_str:0000000000009f37 .LASF5054
C:\Users\SOLDER~1\AppData\Local\Temp\cc6haz4O.s:23936  .debug_str:00000000000134de .LASF5055
C:\Users\SOLDER~1\AppData\Local\Temp\cc6haz4O.s:30000  .debug_str:000000000002bda6 .LASF5056
C:\Users\SOLDER~1\AppData\Local\Temp\cc6haz4O.s:21662  .debug_str:000000000000a20d .LASF5057
C:\Users\SOLDER~1\AppData\Local\Temp\cc6haz4O.s:23578  .debug_str:0000000000011e17 .LASF5058
C:\Users\SOLDER~1\AppData\Local\Temp\cc6haz4O.s:29528  .debug_str:0000000000029f71 .LASF5059
C:\Users\SOLDER~1\AppData\Local\Temp\cc6haz4O.s:24078  .debug_str:0000000000013ef8 .LASF5060
C:\Users\SOLDER~1\AppData\Local\Temp\cc6haz4O.s:19550  .debug_str:0000000000001938 .LASF5061
C:\Users\SOLDER~1\AppData\Local\Temp\cc6haz4O.s:24750  .debug_str:00000000000169fc .LASF5062
C:\Users\SOLDER~1\AppData\Local\Temp\cc6haz4O.s:22634  .debug_str:000000000000e154 .LASF5063
C:\Users\SOLDER~1\AppData\Local\Temp\cc6haz4O.s:21916  .debug_str:000000000000b2a3 .LASF5064
C:\Users\SOLDER~1\AppData\Local\Temp\cc6haz4O.s:22276  .debug_str:000000000000c9f9 .LASF5065
C:\Users\SOLDER~1\AppData\Local\Temp\cc6haz4O.s:19300  .debug_str:0000000000000947 .LASF5066
C:\Users\SOLDER~1\AppData\Local\Temp\cc6haz4O.s:28228  .debug_str:0000000000024a04 .LASF5067
C:\Users\SOLDER~1\AppData\Local\Temp\cc6haz4O.s:19880  .debug_str:0000000000002f12 .LASF5068
C:\Users\SOLDER~1\AppData\Local\Temp\cc6haz4O.s:21800  .debug_str:000000000000ab74 .LASF5069
C:\Users\SOLDER~1\AppData\Local\Temp\cc6haz4O.s:21106  .debug_str:0000000000007da8 .LASF5070
C:\Users\SOLDER~1\AppData\Local\Temp\cc6haz4O.s:23460  .debug_str:00000000000116a4 .LASF5071
C:\Users\SOLDER~1\AppData\Local\Temp\cc6haz4O.s:26008  .debug_str:000000000001ba30 .LASF5072
C:\Users\SOLDER~1\AppData\Local\Temp\cc6haz4O.s:22012  .debug_str:000000000000b8d5 .LASF5073
C:\Users\SOLDER~1\AppData\Local\Temp\cc6haz4O.s:24006  .debug_str:00000000000139aa .LASF5074
C:\Users\SOLDER~1\AppData\Local\Temp\cc6haz4O.s:21356  .debug_str:0000000000008e01 .LASF5075
C:\Users\SOLDER~1\AppData\Local\Temp\cc6haz4O.s:29074  .debug_str:000000000002824d .LASF5076
C:\Users\SOLDER~1\AppData\Local\Temp\cc6haz4O.s:23558  .debug_str:0000000000011cb3 .LASF5077
C:\Users\SOLDER~1\AppData\Local\Temp\cc6haz4O.s:20966  .debug_str:00000000000074cf .LASF5078
C:\Users\SOLDER~1\AppData\Local\Temp\cc6haz4O.s:19598  .debug_str:0000000000001c6c .LASF5079
C:\Users\SOLDER~1\AppData\Local\Temp\cc6haz4O.s:27790  .debug_str:0000000000022d88 .LASF5080
C:\Users\SOLDER~1\AppData\Local\Temp\cc6haz4O.s:23514  .debug_str:00000000000119f2 .LASF5081
C:\Users\SOLDER~1\AppData\Local\Temp\cc6haz4O.s:21444  .debug_str:000000000000940b .LASF5082
C:\Users\SOLDER~1\AppData\Local\Temp\cc6haz4O.s:21162  .debug_str:000000000000815a .LASF5083
C:\Users\SOLDER~1\AppData\Local\Temp\cc6haz4O.s:26396  .debug_str:000000000001d3f4 .LASF5084
C:\Users\SOLDER~1\AppData\Local\Temp\cc6haz4O.s:28634  .debug_str:0000000000026548 .LASF5085
C:\Users\SOLDER~1\AppData\Local\Temp\cc6haz4O.s:30700  .debug_str:000000000002eb1e .LASF5086
C:\Users\SOLDER~1\AppData\Local\Temp\cc6haz4O.s:21968  .debug_str:000000000000b638 .LASF5087
C:\Users\SOLDER~1\AppData\Local\Temp\cc6haz4O.s:21620  .debug_str:0000000000009f5e .LASF5088
C:\Users\SOLDER~1\AppData\Local\Temp\cc6haz4O.s:21332  .debug_str:0000000000008c6f .LASF5089
C:\Users\SOLDER~1\AppData\Local\Temp\cc6haz4O.s:28012  .debug_str:0000000000023bc9 .LASF5090
C:\Users\SOLDER~1\AppData\Local\Temp\cc6haz4O.s:21616  .debug_str:0000000000009f0a .LASF5091
C:\Users\SOLDER~1\AppData\Local\Temp\cc6haz4O.s:26812  .debug_str:000000000001eef7 .LASF5092
C:\Users\SOLDER~1\AppData\Local\Temp\cc6haz4O.s:22082  .debug_str:000000000000bd39 .LASF5093
C:\Users\SOLDER~1\AppData\Local\Temp\cc6haz4O.s:21424  .debug_str:00000000000092c7 .LASF5094
C:\Users\SOLDER~1\AppData\Local\Temp\cc6haz4O.s:29054  .debug_str:00000000000280e9 .LASF5095
C:\Users\SOLDER~1\AppData\Local\Temp\cc6haz4O.s:24206  .debug_str:00000000000147b0 .LASF5096
C:\Users\SOLDER~1\AppData\Local\Temp\cc6haz4O.s:29200  .debug_str:0000000000028a8b .LASF5097
C:\Users\SOLDER~1\AppData\Local\Temp\cc6haz4O.s:25910  .debug_str:000000000001b423 .LASF5098
C:\Users\SOLDER~1\AppData\Local\Temp\cc6haz4O.s:21164  .debug_str:0000000000008188 .LASF5099
C:\Users\SOLDER~1\AppData\Local\Temp\cc6haz4O.s:22818  .debug_str:000000000000ed31 .LASF5100
C:\Users\SOLDER~1\AppData\Local\Temp\cc6haz4O.s:19354  .debug_str:0000000000000d0d .LASF5101
C:\Users\SOLDER~1\AppData\Local\Temp\cc6haz4O.s:26010  .debug_str:000000000001ba5f .LASF5102
C:\Users\SOLDER~1\AppData\Local\Temp\cc6haz4O.s:28094  .debug_str:0000000000024123 .LASF5103
C:\Users\SOLDER~1\AppData\Local\Temp\cc6haz4O.s:19546  .debug_str:000000000000190e .LASF5104
C:\Users\SOLDER~1\AppData\Local\Temp\cc6haz4O.s:26996  .debug_str:000000000001fb06 .LASF5105
C:\Users\SOLDER~1\AppData\Local\Temp\cc6haz4O.s:20078  .debug_str:0000000000003be4 .LASF5106
C:\Users\SOLDER~1\AppData\Local\Temp\cc6haz4O.s:20002  .debug_str:00000000000036e9 .LASF5107
C:\Users\SOLDER~1\AppData\Local\Temp\cc6haz4O.s:28476  .debug_str:0000000000025a48 .LASF5108
C:\Users\SOLDER~1\AppData\Local\Temp\cc6haz4O.s:27674  .debug_str:00000000000225b8 .LASF5109
C:\Users\SOLDER~1\AppData\Local\Temp\cc6haz4O.s:23662  .debug_str:0000000000012358 .LASF5110
GAS LISTING C:\Users\SOLDER~1\AppData\Local\Temp\cc6haz4O.s 			page 112


C:\Users\SOLDER~1\AppData\Local\Temp\cc6haz4O.s:29272  .debug_str:0000000000028f05 .LASF5111
C:\Users\SOLDER~1\AppData\Local\Temp\cc6haz4O.s:23184  .debug_str:000000000001052d .LASF5112
C:\Users\SOLDER~1\AppData\Local\Temp\cc6haz4O.s:20834  .debug_str:0000000000006c11 .LASF5113
C:\Users\SOLDER~1\AppData\Local\Temp\cc6haz4O.s:25826  .debug_str:000000000001af1f .LASF5114
C:\Users\SOLDER~1\AppData\Local\Temp\cc6haz4O.s:22040  .debug_str:000000000000ba76 .LASF5115
C:\Users\SOLDER~1\AppData\Local\Temp\cc6haz4O.s:22284  .debug_str:000000000000ca88 .LASF5116
C:\Users\SOLDER~1\AppData\Local\Temp\cc6haz4O.s:30452  .debug_str:000000000002db1f .LASF5117
C:\Users\SOLDER~1\AppData\Local\Temp\cc6haz4O.s:23160  .debug_str:0000000000010371 .LASF5118
C:\Users\SOLDER~1\AppData\Local\Temp\cc6haz4O.s:22908  .debug_str:000000000000f310 .LASF5119
C:\Users\SOLDER~1\AppData\Local\Temp\cc6haz4O.s:30772  .debug_str:000000000002ef8b .LASF5120
C:\Users\SOLDER~1\AppData\Local\Temp\cc6haz4O.s:22372  .debug_str:000000000000d062 .LASF5121
C:\Users\SOLDER~1\AppData\Local\Temp\cc6haz4O.s:23056  .debug_str:000000000000fcd5 .LASF5122
C:\Users\SOLDER~1\AppData\Local\Temp\cc6haz4O.s:20178  .debug_str:000000000000420b .LASF5123
C:\Users\SOLDER~1\AppData\Local\Temp\cc6haz4O.s:28864  .debug_str:00000000000274e8 .LASF5124
C:\Users\SOLDER~1\AppData\Local\Temp\cc6haz4O.s:29932  .debug_str:000000000002b94e .LASF5125
C:\Users\SOLDER~1\AppData\Local\Temp\cc6haz4O.s:20594  .debug_str:0000000000005c51 .LASF5126
C:\Users\SOLDER~1\AppData\Local\Temp\cc6haz4O.s:25094  .debug_str:0000000000017fef .LASF5127
C:\Users\SOLDER~1\AppData\Local\Temp\cc6haz4O.s:25856  .debug_str:000000000001b0f1 .LASF5128
C:\Users\SOLDER~1\AppData\Local\Temp\cc6haz4O.s:24838  .debug_str:0000000000016f46 .LASF5129
C:\Users\SOLDER~1\AppData\Local\Temp\cc6haz4O.s:25164  .debug_str:000000000001848c .LASF5130
C:\Users\SOLDER~1\AppData\Local\Temp\cc6haz4O.s:23818  .debug_str:0000000000012d4a .LASF5131
C:\Users\SOLDER~1\AppData\Local\Temp\cc6haz4O.s:29446  .debug_str:0000000000029a30 .LASF5132
C:\Users\SOLDER~1\AppData\Local\Temp\cc6haz4O.s:21586  .debug_str:0000000000009d04 .LASF5133
C:\Users\SOLDER~1\AppData\Local\Temp\cc6haz4O.s:27546  .debug_str:0000000000021ddc .LASF5134
C:\Users\SOLDER~1\AppData\Local\Temp\cc6haz4O.s:28862  .debug_str:00000000000274b7 .LASF5135
C:\Users\SOLDER~1\AppData\Local\Temp\cc6haz4O.s:30756  .debug_str:000000000002ee9a .LASF5136
C:\Users\SOLDER~1\AppData\Local\Temp\cc6haz4O.s:30686  .debug_str:000000000002ea39 .LASF5137
C:\Users\SOLDER~1\AppData\Local\Temp\cc6haz4O.s:24800  .debug_str:0000000000016d2e .LASF5138
C:\Users\SOLDER~1\AppData\Local\Temp\cc6haz4O.s:24200  .debug_str:0000000000014749 .LASF5139
C:\Users\SOLDER~1\AppData\Local\Temp\cc6haz4O.s:24036  .debug_str:0000000000013bff .LASF5140
C:\Users\SOLDER~1\AppData\Local\Temp\cc6haz4O.s:28910  .debug_str:00000000000277d0 .LASF5141
C:\Users\SOLDER~1\AppData\Local\Temp\cc6haz4O.s:25106  .debug_str:00000000000180d0 .LASF5142
C:\Users\SOLDER~1\AppData\Local\Temp\cc6haz4O.s:19484  .debug_str:000000000000155b .LASF5143
C:\Users\SOLDER~1\AppData\Local\Temp\cc6haz4O.s:27228  .debug_str:00000000000209a1 .LASF5144
C:\Users\SOLDER~1\AppData\Local\Temp\cc6haz4O.s:26998  .debug_str:000000000001fb2b .LASF5145
C:\Users\SOLDER~1\AppData\Local\Temp\cc6haz4O.s:21876  .debug_str:000000000000b052 .LASF5146
C:\Users\SOLDER~1\AppData\Local\Temp\cc6haz4O.s:28796  .debug_str:000000000002705e .LASF5147
C:\Users\SOLDER~1\AppData\Local\Temp\cc6haz4O.s:27682  .debug_str:000000000002262f .LASF5148
C:\Users\SOLDER~1\AppData\Local\Temp\cc6haz4O.s:24392  .debug_str:00000000000153de .LASF5149
C:\Users\SOLDER~1\AppData\Local\Temp\cc6haz4O.s:28544  .debug_str:0000000000025ed8 .LASF5150
C:\Users\SOLDER~1\AppData\Local\Temp\cc6haz4O.s:23416  .debug_str:000000000001138f .LASF5151
C:\Users\SOLDER~1\AppData\Local\Temp\cc6haz4O.s:21166  .debug_str:00000000000081ad .LASF5152
C:\Users\SOLDER~1\AppData\Local\Temp\cc6haz4O.s:26940  .debug_str:000000000001f78d .LASF5153
C:\Users\SOLDER~1\AppData\Local\Temp\cc6haz4O.s:27812  .debug_str:0000000000022ef6 .LASF5154
C:\Users\SOLDER~1\AppData\Local\Temp\cc6haz4O.s:29334  .debug_str:00000000000292e2 .LASF5155
C:\Users\SOLDER~1\AppData\Local\Temp\cc6haz4O.s:25386  .debug_str:000000000001928e .LASF5156
C:\Users\SOLDER~1\AppData\Local\Temp\cc6haz4O.s:26142  .debug_str:000000000001c319 .LASF5157
C:\Users\SOLDER~1\AppData\Local\Temp\cc6haz4O.s:21362  .debug_str:0000000000008e72 .LASF5158
C:\Users\SOLDER~1\AppData\Local\Temp\cc6haz4O.s:27064  .debug_str:000000000001ff28 .LASF5159
C:\Users\SOLDER~1\AppData\Local\Temp\cc6haz4O.s:29178  .debug_str:00000000000288fe .LASF5160
C:\Users\SOLDER~1\AppData\Local\Temp\cc6haz4O.s:27366  .debug_str:0000000000021271 .LASF5161
C:\Users\SOLDER~1\AppData\Local\Temp\cc6haz4O.s:19454  .debug_str:0000000000001341 .LASF5162
C:\Users\SOLDER~1\AppData\Local\Temp\cc6haz4O.s:19172  .debug_str:0000000000000048 .LASF5163
C:\Users\SOLDER~1\AppData\Local\Temp\cc6haz4O.s:25994  .debug_str:000000000001b97a .LASF5164
C:\Users\SOLDER~1\AppData\Local\Temp\cc6haz4O.s:30416  .debug_str:000000000002d8c2 .LASF5165
C:\Users\SOLDER~1\AppData\Local\Temp\cc6haz4O.s:19200  .debug_str:00000000000001f9 .LASF5166
C:\Users\SOLDER~1\AppData\Local\Temp\cc6haz4O.s:21592  .debug_str:0000000000009d6e .LASF5167
GAS LISTING C:\Users\SOLDER~1\AppData\Local\Temp\cc6haz4O.s 			page 113


C:\Users\SOLDER~1\AppData\Local\Temp\cc6haz4O.s:30794  .debug_str:000000000002f0ed .LASF5168
C:\Users\SOLDER~1\AppData\Local\Temp\cc6haz4O.s:23628  .debug_str:0000000000012123 .LASF5169
C:\Users\SOLDER~1\AppData\Local\Temp\cc6haz4O.s:28742  .debug_str:0000000000026cb3 .LASF5170
C:\Users\SOLDER~1\AppData\Local\Temp\cc6haz4O.s:21108  .debug_str:0000000000007dd6 .LASF5171
C:\Users\SOLDER~1\AppData\Local\Temp\cc6haz4O.s:21118  .debug_str:0000000000007e78 .LASF5172
C:\Users\SOLDER~1\AppData\Local\Temp\cc6haz4O.s:26784  .debug_str:000000000001ed26 .LASF5173
C:\Users\SOLDER~1\AppData\Local\Temp\cc6haz4O.s:30410  .debug_str:000000000002d858 .LASF5174
C:\Users\SOLDER~1\AppData\Local\Temp\cc6haz4O.s:23322  .debug_str:0000000000010da6 .LASF5175
C:\Users\SOLDER~1\AppData\Local\Temp\cc6haz4O.s:21430  .debug_str:0000000000009333 .LASF5176
C:\Users\SOLDER~1\AppData\Local\Temp\cc6haz4O.s:24080  .debug_str:0000000000013f23 .LASF5177
C:\Users\SOLDER~1\AppData\Local\Temp\cc6haz4O.s:27196  .debug_str:0000000000020774 .LASF5178
C:\Users\SOLDER~1\AppData\Local\Temp\cc6haz4O.s:24672  .debug_str:000000000001653d .LASF5179
C:\Users\SOLDER~1\AppData\Local\Temp\cc6haz4O.s:23046  .debug_str:000000000000fc25 .LASF5180
C:\Users\SOLDER~1\AppData\Local\Temp\cc6haz4O.s:30734  .debug_str:000000000002ed41 .LASF5181
C:\Users\SOLDER~1\AppData\Local\Temp\cc6haz4O.s:22340  .debug_str:000000000000ce43 .LASF5182
C:\Users\SOLDER~1\AppData\Local\Temp\cc6haz4O.s:26808  .debug_str:000000000001eea8 .LASF5183
C:\Users\SOLDER~1\AppData\Local\Temp\cc6haz4O.s:19884  .debug_str:0000000000002f56 .LASF5184
C:\Users\SOLDER~1\AppData\Local\Temp\cc6haz4O.s:23420  .debug_str:00000000000113d4 .LASF5185
C:\Users\SOLDER~1\AppData\Local\Temp\cc6haz4O.s:26580  .debug_str:000000000001dfe1 .LASF5186
C:\Users\SOLDER~1\AppData\Local\Temp\cc6haz4O.s:24312  .debug_str:0000000000014ecc .LASF5187
C:\Users\SOLDER~1\AppData\Local\Temp\cc6haz4O.s:28422  .debug_str:0000000000025675 .LASF5188
C:\Users\SOLDER~1\AppData\Local\Temp\cc6haz4O.s:26096  .debug_str:000000000001c000 .LASF5189
C:\Users\SOLDER~1\AppData\Local\Temp\cc6haz4O.s:22492  .debug_str:000000000000d83f .LASF5190
C:\Users\SOLDER~1\AppData\Local\Temp\cc6haz4O.s:20680  .debug_str:00000000000061cd .LASF5191
C:\Users\SOLDER~1\AppData\Local\Temp\cc6haz4O.s:30684  .debug_str:000000000002ea02 .LASF5192
C:\Users\SOLDER~1\AppData\Local\Temp\cc6haz4O.s:19458  .debug_str:0000000000001386 .LASF5193
C:\Users\SOLDER~1\AppData\Local\Temp\cc6haz4O.s:22898  .debug_str:000000000000f25a .LASF5194
C:\Users\SOLDER~1\AppData\Local\Temp\cc6haz4O.s:28850  .debug_str:00000000000273da .LASF5195
C:\Users\SOLDER~1\AppData\Local\Temp\cc6haz4O.s:25740  .debug_str:000000000001a924 .LASF5196
C:\Users\SOLDER~1\AppData\Local\Temp\cc6haz4O.s:21744  .debug_str:000000000000a794 .LASF5197
C:\Users\SOLDER~1\AppData\Local\Temp\cc6haz4O.s:19736  .debug_str:00000000000025b6 .LASF5198
C:\Users\SOLDER~1\AppData\Local\Temp\cc6haz4O.s:25816  .debug_str:000000000001ae60 .LASF5199
C:\Users\SOLDER~1\AppData\Local\Temp\cc6haz4O.s:28520  .debug_str:0000000000025d2c .LASF5200
C:\Users\SOLDER~1\AppData\Local\Temp\cc6haz4O.s:21420  .debug_str:000000000000926d .LASF5201
C:\Users\SOLDER~1\AppData\Local\Temp\cc6haz4O.s:28604  .debug_str:000000000002631b .LASF5202
C:\Users\SOLDER~1\AppData\Local\Temp\cc6haz4O.s:20448  .debug_str:00000000000052b3 .LASF5203
C:\Users\SOLDER~1\AppData\Local\Temp\cc6haz4O.s:19328  .debug_str:0000000000000b2b .LASF5204
C:\Users\SOLDER~1\AppData\Local\Temp\cc6haz4O.s:22288  .debug_str:000000000000cac9 .LASF5205
C:\Users\SOLDER~1\AppData\Local\Temp\cc6haz4O.s:23582  .debug_str:0000000000011e5e .LASF5206
C:\Users\SOLDER~1\AppData\Local\Temp\cc6haz4O.s:24738  .debug_str:0000000000016939 .LASF5207
C:\Users\SOLDER~1\AppData\Local\Temp\cc6haz4O.s:20730  .debug_str:0000000000006536 .LASF5208
C:\Users\SOLDER~1\AppData\Local\Temp\cc6haz4O.s:29076  .debug_str:0000000000028274 .LASF5209
C:\Users\SOLDER~1\AppData\Local\Temp\cc6haz4O.s:27742  .debug_str:0000000000022a4a .LASF5210
C:\Users\SOLDER~1\AppData\Local\Temp\cc6haz4O.s:24002  .debug_str:000000000001394e .LASF5211
C:\Users\SOLDER~1\AppData\Local\Temp\cc6haz4O.s:27440  .debug_str:0000000000021736 .LASF5212
C:\Users\SOLDER~1\AppData\Local\Temp\cc6haz4O.s:30592  .debug_str:000000000002e401 .LASF5213
C:\Users\SOLDER~1\AppData\Local\Temp\cc6haz4O.s:26268  .debug_str:000000000001cb53 .LASF5214
C:\Users\SOLDER~1\AppData\Local\Temp\cc6haz4O.s:24756  .debug_str:0000000000016a66 .LASF5215
C:\Users\SOLDER~1\AppData\Local\Temp\cc6haz4O.s:28062  .debug_str:0000000000023f26 .LASF5216
C:\Users\SOLDER~1\AppData\Local\Temp\cc6haz4O.s:30372  .debug_str:000000000002d616 .LASF5217
C:\Users\SOLDER~1\AppData\Local\Temp\cc6haz4O.s:25638  .debug_str:000000000001a298 .LASF5218
C:\Users\SOLDER~1\AppData\Local\Temp\cc6haz4O.s:25966  .debug_str:000000000001b7ce .LASF5219
C:\Users\SOLDER~1\AppData\Local\Temp\cc6haz4O.s:27230  .debug_str:00000000000209c2 .LASF5220
C:\Users\SOLDER~1\AppData\Local\Temp\cc6haz4O.s:20206  .debug_str:00000000000043e9 .LASF5221
C:\Users\SOLDER~1\AppData\Local\Temp\cc6haz4O.s:24854  .debug_str:0000000000017038 .LASF5222
C:\Users\SOLDER~1\AppData\Local\Temp\cc6haz4O.s:28456  .debug_str:00000000000258b9 .LASF5223
C:\Users\SOLDER~1\AppData\Local\Temp\cc6haz4O.s:19526  .debug_str:0000000000001811 .LASF5224
GAS LISTING C:\Users\SOLDER~1\AppData\Local\Temp\cc6haz4O.s 			page 114


C:\Users\SOLDER~1\AppData\Local\Temp\cc6haz4O.s:23508  .debug_str:0000000000011997 .LASF5225
C:\Users\SOLDER~1\AppData\Local\Temp\cc6haz4O.s:23516  .debug_str:0000000000011a1c .LASF5226
C:\Users\SOLDER~1\AppData\Local\Temp\cc6haz4O.s:21810  .debug_str:000000000000ac25 .LASF5227
C:\Users\SOLDER~1\AppData\Local\Temp\cc6haz4O.s:22186  .debug_str:000000000000c3db .LASF5228
C:\Users\SOLDER~1\AppData\Local\Temp\cc6haz4O.s:21322  .debug_str:0000000000008bd4 .LASF5229
C:\Users\SOLDER~1\AppData\Local\Temp\cc6haz4O.s:21196  .debug_str:00000000000083be .LASF5230
C:\Users\SOLDER~1\AppData\Local\Temp\cc6haz4O.s:20214  .debug_str:000000000000445d .LASF5231
C:\Users\SOLDER~1\AppData\Local\Temp\cc6haz4O.s:22448  .debug_str:000000000000d573 .LASF5232
C:\Users\SOLDER~1\AppData\Local\Temp\cc6haz4O.s:27268  .debug_str:0000000000020c31 .LASF5233
C:\Users\SOLDER~1\AppData\Local\Temp\cc6haz4O.s:22930  .debug_str:000000000000f480 .LASF5234
C:\Users\SOLDER~1\AppData\Local\Temp\cc6haz4O.s:19956  .debug_str:00000000000033f6 .LASF5235
C:\Users\SOLDER~1\AppData\Local\Temp\cc6haz4O.s:29706  .debug_str:000000000002aac4 .LASF5236
C:\Users\SOLDER~1\AppData\Local\Temp\cc6haz4O.s:23240  .debug_str:000000000001087d .LASF5237
C:\Users\SOLDER~1\AppData\Local\Temp\cc6haz4O.s:29514  .debug_str:0000000000029e68 .LASF5238
C:\Users\SOLDER~1\AppData\Local\Temp\cc6haz4O.s:23010  .debug_str:000000000000f99f .LASF5239
C:\Users\SOLDER~1\AppData\Local\Temp\cc6haz4O.s:19730  .debug_str:0000000000002553 .LASF5240
C:\Users\SOLDER~1\AppData\Local\Temp\cc6haz4O.s:25654  .debug_str:000000000001a383 .LASF5241
C:\Users\SOLDER~1\AppData\Local\Temp\cc6haz4O.s:20006  .debug_str:000000000000372a .LASF5242
C:\Users\SOLDER~1\AppData\Local\Temp\cc6haz4O.s:20420  .debug_str:0000000000005132 .LASF5243
C:\Users\SOLDER~1\AppData\Local\Temp\cc6haz4O.s:29604  .debug_str:000000000002a49b .LASF5244
C:\Users\SOLDER~1\AppData\Local\Temp\cc6haz4O.s:19216  .debug_str:0000000000000321 .LASF5245
C:\Users\SOLDER~1\AppData\Local\Temp\cc6haz4O.s:20924  .debug_str:000000000000722b .LASF5246
C:\Users\SOLDER~1\AppData\Local\Temp\cc6haz4O.s:29848  .debug_str:000000000002b439 .LASF5247
C:\Users\SOLDER~1\AppData\Local\Temp\cc6haz4O.s:21806  .debug_str:000000000000abe3 .LASF5248
C:\Users\SOLDER~1\AppData\Local\Temp\cc6haz4O.s:28608  .debug_str:000000000002636f .LASF5249
C:\Users\SOLDER~1\AppData\Local\Temp\cc6haz4O.s:29978  .debug_str:000000000002bc33 .LASF5250
C:\Users\SOLDER~1\AppData\Local\Temp\cc6haz4O.s:21198  .debug_str:00000000000083e0 .LASF5251
C:\Users\SOLDER~1\AppData\Local\Temp\cc6haz4O.s:22190  .debug_str:000000000000c42e .LASF5252
C:\Users\SOLDER~1\AppData\Local\Temp\cc6haz4O.s:28272  .debug_str:0000000000024cf6 .LASF5253
C:\Users\SOLDER~1\AppData\Local\Temp\cc6haz4O.s:25512  .debug_str:0000000000019a97 .LASF5254
C:\Users\SOLDER~1\AppData\Local\Temp\cc6haz4O.s:22738  .debug_str:000000000000e823 .LASF5255
C:\Users\SOLDER~1\AppData\Local\Temp\cc6haz4O.s:30604  .debug_str:000000000002e4b9 .LASF5256
C:\Users\SOLDER~1\AppData\Local\Temp\cc6haz4O.s:23442  .debug_str:0000000000011532 .LASF5257
C:\Users\SOLDER~1\AppData\Local\Temp\cc6haz4O.s:26324  .debug_str:000000000001cf47 .LASF5258
C:\Users\SOLDER~1\AppData\Local\Temp\cc6haz4O.s:25046  .debug_str:0000000000017c9e .LASF5259
C:\Users\SOLDER~1\AppData\Local\Temp\cc6haz4O.s:21094  .debug_str:0000000000007cde .LASF5260
C:\Users\SOLDER~1\AppData\Local\Temp\cc6haz4O.s:30570  .debug_str:000000000002e285 .LASF5261
C:\Users\SOLDER~1\AppData\Local\Temp\cc6haz4O.s:26666  .debug_str:000000000001e54d .LASF5262
C:\Users\SOLDER~1\AppData\Local\Temp\cc6haz4O.s:19466  .debug_str:000000000000141a .LASF5263
C:\Users\SOLDER~1\AppData\Local\Temp\cc6haz4O.s:24534  .debug_str:0000000000015c99 .LASF5264
C:\Users\SOLDER~1\AppData\Local\Temp\cc6haz4O.s:28786  .debug_str:0000000000026f9e .LASF5265
C:\Users\SOLDER~1\AppData\Local\Temp\cc6haz4O.s:23644  .debug_str:000000000001221a .LASF5266
C:\Users\SOLDER~1\AppData\Local\Temp\cc6haz4O.s:29022  .debug_str:0000000000027ecd .LASF5267
C:\Users\SOLDER~1\AppData\Local\Temp\cc6haz4O.s:19556  .debug_str:000000000000199e .LASF5268
C:\Users\SOLDER~1\AppData\Local\Temp\cc6haz4O.s:27668  .debug_str:0000000000022546 .LASF5269
C:\Users\SOLDER~1\AppData\Local\Temp\cc6haz4O.s:25632  .debug_str:000000000001a23e .LASF5270
C:\Users\SOLDER~1\AppData\Local\Temp\cc6haz4O.s:24556  .debug_str:0000000000015df5 .LASF5271
C:\Users\SOLDER~1\AppData\Local\Temp\cc6haz4O.s:21820  .debug_str:000000000000aca8 .LASF5272
C:\Users\SOLDER~1\AppData\Local\Temp\cc6haz4O.s:19306  .debug_str:00000000000009ac .LASF5273
C:\Users\SOLDER~1\AppData\Local\Temp\cc6haz4O.s:26772  .debug_str:000000000001ec67 .LASF5274
C:\Users\SOLDER~1\AppData\Local\Temp\cc6haz4O.s:29562  .debug_str:000000000002a19c .LASF5275
C:\Users\SOLDER~1\AppData\Local\Temp\cc6haz4O.s:24992  .debug_str:000000000001794a .LASF5276
C:\Users\SOLDER~1\AppData\Local\Temp\cc6haz4O.s:23152  .debug_str:0000000000010303 .LASF5277
C:\Users\SOLDER~1\AppData\Local\Temp\cc6haz4O.s:19878  .debug_str:0000000000002ef4 .LASF5278
C:\Users\SOLDER~1\AppData\Local\Temp\cc6haz4O.s:21028  .debug_str:000000000000788a .LASF5279
C:\Users\SOLDER~1\AppData\Local\Temp\cc6haz4O.s:26552  .debug_str:000000000001ddcf .LASF5280
C:\Users\SOLDER~1\AppData\Local\Temp\cc6haz4O.s:21128  .debug_str:0000000000007f19 .LASF5281
GAS LISTING C:\Users\SOLDER~1\AppData\Local\Temp\cc6haz4O.s 			page 115


C:\Users\SOLDER~1\AppData\Local\Temp\cc6haz4O.s:26218  .debug_str:000000000001c806 .LASF5282
C:\Users\SOLDER~1\AppData\Local\Temp\cc6haz4O.s:19948  .debug_str:0000000000003376 .LASF5283
C:\Users\SOLDER~1\AppData\Local\Temp\cc6haz4O.s:20566  .debug_str:0000000000005a5c .LASF5284
C:\Users\SOLDER~1\AppData\Local\Temp\cc6haz4O.s:26202  .debug_str:000000000001c6e4 .LASF5285
C:\Users\SOLDER~1\AppData\Local\Temp\cc6haz4O.s:19966  .debug_str:00000000000034b1 .LASF5286
C:\Users\SOLDER~1\AppData\Local\Temp\cc6haz4O.s:30122  .debug_str:000000000002c5f0 .LASF5287
C:\Users\SOLDER~1\AppData\Local\Temp\cc6haz4O.s:22878  .debug_str:000000000000f12d .LASF5288
C:\Users\SOLDER~1\AppData\Local\Temp\cc6haz4O.s:23254  .debug_str:0000000000010980 .LASF5289
C:\Users\SOLDER~1\AppData\Local\Temp\cc6haz4O.s:20160  .debug_str:00000000000040e5 .LASF5290
C:\Users\SOLDER~1\AppData\Local\Temp\cc6haz4O.s:20538  .debug_str:0000000000005857 .LASF5291
C:\Users\SOLDER~1\AppData\Local\Temp\cc6haz4O.s:19388  .debug_str:0000000000000f3b .LASF5292
C:\Users\SOLDER~1\AppData\Local\Temp\cc6haz4O.s:23992  .debug_str:00000000000138be .LASF5293
C:\Users\SOLDER~1\AppData\Local\Temp\cc6haz4O.s:27876  .debug_str:0000000000023310 .LASF5294
C:\Users\SOLDER~1\AppData\Local\Temp\cc6haz4O.s:24936  .debug_str:00000000000175bf .LASF5295
C:\Users\SOLDER~1\AppData\Local\Temp\cc6haz4O.s:24844  .debug_str:0000000000016f8e .LASF5296
C:\Users\SOLDER~1\AppData\Local\Temp\cc6haz4O.s:22812  .debug_str:000000000000ecc1 .LASF5297
C:\Users\SOLDER~1\AppData\Local\Temp\cc6haz4O.s:20920  .debug_str:00000000000071de .LASF5298
C:\Users\SOLDER~1\AppData\Local\Temp\cc6haz4O.s:21172  .debug_str:000000000000822d .LASF5299
C:\Users\SOLDER~1\AppData\Local\Temp\cc6haz4O.s:29352  .debug_str:0000000000029414 .LASF5300
C:\Users\SOLDER~1\AppData\Local\Temp\cc6haz4O.s:24734  .debug_str:00000000000168e8 .LASF5301
C:\Users\SOLDER~1\AppData\Local\Temp\cc6haz4O.s:22278  .debug_str:000000000000ca24 .LASF5302
C:\Users\SOLDER~1\AppData\Local\Temp\cc6haz4O.s:28022  .debug_str:0000000000023c6c .LASF5303
C:\Users\SOLDER~1\AppData\Local\Temp\cc6haz4O.s:26136  .debug_str:000000000001c291 .LASF5304
C:\Users\SOLDER~1\AppData\Local\Temp\cc6haz4O.s:26340  .debug_str:000000000001d047 .LASF5305
C:\Users\SOLDER~1\AppData\Local\Temp\cc6haz4O.s:23404  .debug_str:00000000000112e5 .LASF5306
C:\Users\SOLDER~1\AppData\Local\Temp\cc6haz4O.s:21946  .debug_str:000000000000b49e .LASF5307
C:\Users\SOLDER~1\AppData\Local\Temp\cc6haz4O.s:26644  .debug_str:000000000001e3ed .LASF5308
C:\Users\SOLDER~1\AppData\Local\Temp\cc6haz4O.s:27002  .debug_str:000000000001fb63 .LASF5309
C:\Users\SOLDER~1\AppData\Local\Temp\cc6haz4O.s:21580  .debug_str:0000000000009ca6 .LASF5310
C:\Users\SOLDER~1\AppData\Local\Temp\cc6haz4O.s:29822  .debug_str:000000000002b298 .LASF5311
C:\Users\SOLDER~1\AppData\Local\Temp\cc6haz4O.s:28600  .debug_str:00000000000262cb .LASF5312
C:\Users\SOLDER~1\AppData\Local\Temp\cc6haz4O.s:19646  .debug_str:0000000000001f9b .LASF5313
C:\Users\SOLDER~1\AppData\Local\Temp\cc6haz4O.s:23910  .debug_str:0000000000013330 .LASF5314
C:\Users\SOLDER~1\AppData\Local\Temp\cc6haz4O.s:19630  .debug_str:0000000000001e81 .LASF5315
C:\Users\SOLDER~1\AppData\Local\Temp\cc6haz4O.s:23966  .debug_str:0000000000013701 .LASF5316
C:\Users\SOLDER~1\AppData\Local\Temp\cc6haz4O.s:21698  .debug_str:000000000000a467 .LASF5317
C:\Users\SOLDER~1\AppData\Local\Temp\cc6haz4O.s:21286  .debug_str:0000000000008975 .LASF5318
C:\Users\SOLDER~1\AppData\Local\Temp\cc6haz4O.s:24598  .debug_str:0000000000016096 .LASF5319
C:\Users\SOLDER~1\AppData\Local\Temp\cc6haz4O.s:29476  .debug_str:0000000000029bf1 .LASF5320
C:\Users\SOLDER~1\AppData\Local\Temp\cc6haz4O.s:25302  .debug_str:0000000000018d2e .LASF5321
C:\Users\SOLDER~1\AppData\Local\Temp\cc6haz4O.s:28924  .debug_str:00000000000278a0 .LASF5322
C:\Users\SOLDER~1\AppData\Local\Temp\cc6haz4O.s:26750  .debug_str:000000000001eaee .LASF5323
C:\Users\SOLDER~1\AppData\Local\Temp\cc6haz4O.s:23758  .debug_str:0000000000012931 .LASF5324
C:\Users\SOLDER~1\AppData\Local\Temp\cc6haz4O.s:24930  .debug_str:000000000001754a .LASF5325
C:\Users\SOLDER~1\AppData\Local\Temp\cc6haz4O.s:26406  .debug_str:000000000001d4b1 .LASF5326
C:\Users\SOLDER~1\AppData\Local\Temp\cc6haz4O.s:19554  .debug_str:0000000000001973 .LASF5327
C:\Users\SOLDER~1\AppData\Local\Temp\cc6haz4O.s:27938  .debug_str:0000000000023740 .LASF5328
C:\Users\SOLDER~1\AppData\Local\Temp\cc6haz4O.s:23196  .debug_str:00000000000105e7 .LASF5329
C:\Users\SOLDER~1\AppData\Local\Temp\cc6haz4O.s:20902  .debug_str:00000000000070b0 .LASF5330
C:\Users\SOLDER~1\AppData\Local\Temp\cc6haz4O.s:20452  .debug_str:0000000000005307 .LASF5331
C:\Users\SOLDER~1\AppData\Local\Temp\cc6haz4O.s:23312  .debug_str:0000000000010d13 .LASF5332
C:\Users\SOLDER~1\AppData\Local\Temp\cc6haz4O.s:21426  .debug_str:00000000000092f7 .LASF5333
C:\Users\SOLDER~1\AppData\Local\Temp\cc6haz4O.s:28306  .debug_str:0000000000024f2f .LASF5334
C:\Users\SOLDER~1\AppData\Local\Temp\cc6haz4O.s:29358  .debug_str:0000000000029482 .LASF5335
C:\Users\SOLDER~1\AppData\Local\Temp\cc6haz4O.s:20570  .debug_str:0000000000005aa2 .LASF5336
C:\Users\SOLDER~1\AppData\Local\Temp\cc6haz4O.s:24592  .debug_str:0000000000016034 .LASF5337
C:\Users\SOLDER~1\AppData\Local\Temp\cc6haz4O.s:22172  .debug_str:000000000000c2f0 .LASF5338
GAS LISTING C:\Users\SOLDER~1\AppData\Local\Temp\cc6haz4O.s 			page 116


C:\Users\SOLDER~1\AppData\Local\Temp\cc6haz4O.s:21076  .debug_str:0000000000007b97 .LASF5339
C:\Users\SOLDER~1\AppData\Local\Temp\cc6haz4O.s:20958  .debug_str:0000000000007451 .LASF5340
C:\Users\SOLDER~1\AppData\Local\Temp\cc6haz4O.s:27528  .debug_str:0000000000021cdf .LASF5341
C:\Users\SOLDER~1\AppData\Local\Temp\cc6haz4O.s:25552  .debug_str:0000000000019d33 .LASF5342
C:\Users\SOLDER~1\AppData\Local\Temp\cc6haz4O.s:28936  .debug_str:0000000000027962 .LASF5343
C:\Users\SOLDER~1\AppData\Local\Temp\cc6haz4O.s:30774  .debug_str:000000000002efac .LASF5344
C:\Users\SOLDER~1\AppData\Local\Temp\cc6haz4O.s:27736  .debug_str:00000000000229d1 .LASF5345
C:\Users\SOLDER~1\AppData\Local\Temp\cc6haz4O.s:30244  .debug_str:000000000002cd7f .LASF5346
C:\Users\SOLDER~1\AppData\Local\Temp\cc6haz4O.s:20032  .debug_str:00000000000038e3 .LASF5347
C:\Users\SOLDER~1\AppData\Local\Temp\cc6haz4O.s:29886  .debug_str:000000000002b67c .LASF5348
C:\Users\SOLDER~1\AppData\Local\Temp\cc6haz4O.s:30324  .debug_str:000000000002d308 .LASF5349
C:\Users\SOLDER~1\AppData\Local\Temp\cc6haz4O.s:25070  .debug_str:0000000000017e44 .LASF5350
C:\Users\SOLDER~1\AppData\Local\Temp\cc6haz4O.s:19916  .debug_str:0000000000003165 .LASF5351
C:\Users\SOLDER~1\AppData\Local\Temp\cc6haz4O.s:22294  .debug_str:000000000000cb43 .LASF5352
C:\Users\SOLDER~1\AppData\Local\Temp\cc6haz4O.s:29956  .debug_str:000000000002bae3 .LASF5353
C:\Users\SOLDER~1\AppData\Local\Temp\cc6haz4O.s:29332  .debug_str:00000000000292c1 .LASF5354
C:\Users\SOLDER~1\AppData\Local\Temp\cc6haz4O.s:30276  .debug_str:000000000002cf8b .LASF5355
C:\Users\SOLDER~1\AppData\Local\Temp\cc6haz4O.s:27658  .debug_str:000000000002248f .LASF5356
C:\Users\SOLDER~1\AppData\Local\Temp\cc6haz4O.s:23394  .debug_str:0000000000011243 .LASF5357
C:\Users\SOLDER~1\AppData\Local\Temp\cc6haz4O.s:20560  .debug_str:00000000000059f5 .LASF5358
C:\Users\SOLDER~1\AppData\Local\Temp\cc6haz4O.s:29914  .debug_str:000000000002b848 .LASF5359
C:\Users\SOLDER~1\AppData\Local\Temp\cc6haz4O.s:24498  .debug_str:0000000000015a7b .LASF5360
C:\Users\SOLDER~1\AppData\Local\Temp\cc6haz4O.s:24196  .debug_str:0000000000014711 .LASF5361
C:\Users\SOLDER~1\AppData\Local\Temp\cc6haz4O.s:29088  .debug_str:0000000000028357 .LASF5362
C:\Users\SOLDER~1\AppData\Local\Temp\cc6haz4O.s:19978  .debug_str:0000000000003582 .LASF5363
C:\Users\SOLDER~1\AppData\Local\Temp\cc6haz4O.s:24120  .debug_str:00000000000141b8 .LASF5364
C:\Users\SOLDER~1\AppData\Local\Temp\cc6haz4O.s:25646  .debug_str:000000000001a300 .LASF5365
C:\Users\SOLDER~1\AppData\Local\Temp\cc6haz4O.s:19886  .debug_str:0000000000002f7c .LASF5366
C:\Users\SOLDER~1\AppData\Local\Temp\cc6haz4O.s:21138  .debug_str:0000000000007fce .LASF5367
C:\Users\SOLDER~1\AppData\Local\Temp\cc6haz4O.s:25626  .debug_str:000000000001a1d7 .LASF5368
C:\Users\SOLDER~1\AppData\Local\Temp\cc6haz4O.s:24648  .debug_str:00000000000163b4 .LASF5369
C:\Users\SOLDER~1\AppData\Local\Temp\cc6haz4O.s:28220  .debug_str:000000000002496a .LASF5370
C:\Users\SOLDER~1\AppData\Local\Temp\cc6haz4O.s:23660  .debug_str:0000000000012338 .LASF5371
C:\Users\SOLDER~1\AppData\Local\Temp\cc6haz4O.s:30026  .debug_str:000000000002bf59 .LASF5372
C:\Users\SOLDER~1\AppData\Local\Temp\cc6haz4O.s:24208  .debug_str:00000000000147e0 .LASF5373
C:\Users\SOLDER~1\AppData\Local\Temp\cc6haz4O.s:22446  .debug_str:000000000000d553 .LASF5374
C:\Users\SOLDER~1\AppData\Local\Temp\cc6haz4O.s:30154  .debug_str:000000000002c7e7 .LASF5375
C:\Users\SOLDER~1\AppData\Local\Temp\cc6haz4O.s:28466  .debug_str:0000000000025975 .LASF5376
C:\Users\SOLDER~1\AppData\Local\Temp\cc6haz4O.s:24294  .debug_str:0000000000014d96 .LASF5377
C:\Users\SOLDER~1\AppData\Local\Temp\cc6haz4O.s:20342  .debug_str:0000000000004c74 .LASF5378
C:\Users\SOLDER~1\AppData\Local\Temp\cc6haz4O.s:20528  .debug_str:0000000000005798 .LASF5379
C:\Users\SOLDER~1\AppData\Local\Temp\cc6haz4O.s:25604  .debug_str:000000000001a058 .LASF5380
C:\Users\SOLDER~1\AppData\Local\Temp\cc6haz4O.s:27738  .debug_str:00000000000229f1 .LASF5381
C:\Users\SOLDER~1\AppData\Local\Temp\cc6haz4O.s:19444  .debug_str:00000000000012bd .LASF5382
C:\Users\SOLDER~1\AppData\Local\Temp\cc6haz4O.s:23024  .debug_str:000000000000fac7 .LASF5383
C:\Users\SOLDER~1\AppData\Local\Temp\cc6haz4O.s:28442  .debug_str:00000000000257c7 .LASF5384
C:\Users\SOLDER~1\AppData\Local\Temp\cc6haz4O.s:19232  .debug_str:0000000000000433 .LASF5385
C:\Users\SOLDER~1\AppData\Local\Temp\cc6haz4O.s:29756  .debug_str:000000000002ae4c .LASF5386
C:\Users\SOLDER~1\AppData\Local\Temp\cc6haz4O.s:30796  .debug_str:000000000002f113 .LASF5387
C:\Users\SOLDER~1\AppData\Local\Temp\cc6haz4O.s:25460  .debug_str:0000000000019796 .LASF5388
C:\Users\SOLDER~1\AppData\Local\Temp\cc6haz4O.s:29546  .debug_str:000000000002a08a .LASF5389
C:\Users\SOLDER~1\AppData\Local\Temp\cc6haz4O.s:25440  .debug_str:00000000000195fe .LASF5390
C:\Users\SOLDER~1\AppData\Local\Temp\cc6haz4O.s:23172  .debug_str:0000000000010447 .LASF5391
C:\Users\SOLDER~1\AppData\Local\Temp\cc6haz4O.s:25758  .debug_str:000000000001aa6a .LASF5392
C:\Users\SOLDER~1\AppData\Local\Temp\cc6haz4O.s:23868  .debug_str:0000000000013081 .LASF5393
C:\Users\SOLDER~1\AppData\Local\Temp\cc6haz4O.s:27080  .debug_str:0000000000020022 .LASF5394
C:\Users\SOLDER~1\AppData\Local\Temp\cc6haz4O.s:30576  .debug_str:000000000002e2f7 .LASF5395
GAS LISTING C:\Users\SOLDER~1\AppData\Local\Temp\cc6haz4O.s 			page 117


C:\Users\SOLDER~1\AppData\Local\Temp\cc6haz4O.s:22052  .debug_str:000000000000bb34 .LASF5396
C:\Users\SOLDER~1\AppData\Local\Temp\cc6haz4O.s:25804  .debug_str:000000000001ad70 .LASF5397
C:\Users\SOLDER~1\AppData\Local\Temp\cc6haz4O.s:30288  .debug_str:000000000002d061 .LASF5398
C:\Users\SOLDER~1\AppData\Local\Temp\cc6haz4O.s:28184  .debug_str:000000000002472f .LASF5399
C:\Users\SOLDER~1\AppData\Local\Temp\cc6haz4O.s:25724  .debug_str:000000000001a805 .LASF5400
C:\Users\SOLDER~1\AppData\Local\Temp\cc6haz4O.s:26420  .debug_str:000000000001d5b0 .LASF5401
C:\Users\SOLDER~1\AppData\Local\Temp\cc6haz4O.s:22002  .debug_str:000000000000b841 .LASF5402
C:\Users\SOLDER~1\AppData\Local\Temp\cc6haz4O.s:25202  .debug_str:00000000000186f5 .LASF5403
C:\Users\SOLDER~1\AppData\Local\Temp\cc6haz4O.s:28954  .debug_str:0000000000027a7f .LASF5404
C:\Users\SOLDER~1\AppData\Local\Temp\cc6haz4O.s:23072  .debug_str:000000000000fe10 .LASF5405
C:\Users\SOLDER~1\AppData\Local\Temp\cc6haz4O.s:25284  .debug_str:0000000000018c1a .LASF5406
C:\Users\SOLDER~1\AppData\Local\Temp\cc6haz4O.s:24266  .debug_str:0000000000014bb7 .LASF5407
C:\Users\SOLDER~1\AppData\Local\Temp\cc6haz4O.s:29904  .debug_str:000000000002b7b5 .LASF5408
C:\Users\SOLDER~1\AppData\Local\Temp\cc6haz4O.s:30366  .debug_str:000000000002d5bf .LASF5409
C:\Users\SOLDER~1\AppData\Local\Temp\cc6haz4O.s:30212  .debug_str:000000000002cb87 .LASF5410
C:\Users\SOLDER~1\AppData\Local\Temp\cc6haz4O.s:20668  .debug_str:00000000000060f1 .LASF5411
C:\Users\SOLDER~1\AppData\Local\Temp\cc6haz4O.s:28282  .debug_str:0000000000024d9f .LASF5412
C:\Users\SOLDER~1\AppData\Local\Temp\cc6haz4O.s:21824  .debug_str:000000000000acf6 .LASF5413
C:\Users\SOLDER~1\AppData\Local\Temp\cc6haz4O.s:21772  .debug_str:000000000000a988 .LASF5414
C:\Users\SOLDER~1\AppData\Local\Temp\cc6haz4O.s:25468  .debug_str:0000000000019827 .LASF5415
C:\Users\SOLDER~1\AppData\Local\Temp\cc6haz4O.s:28878  .debug_str:00000000000275d2 .LASF5416
C:\Users\SOLDER~1\AppData\Local\Temp\cc6haz4O.s:22262  .debug_str:000000000000c90b .LASF5417
C:\Users\SOLDER~1\AppData\Local\Temp\cc6haz4O.s:23390  .debug_str:00000000000111fa .LASF5418
C:\Users\SOLDER~1\AppData\Local\Temp\cc6haz4O.s:21794  .debug_str:000000000000aaf9 .LASF5419
C:\Users\SOLDER~1\AppData\Local\Temp\cc6haz4O.s:30240  .debug_str:000000000002cd43 .LASF5420
C:\Users\SOLDER~1\AppData\Local\Temp\cc6haz4O.s:26746  .debug_str:000000000001eaa1 .LASF5421
C:\Users\SOLDER~1\AppData\Local\Temp\cc6haz4O.s:27782  .debug_str:0000000000022d04 .LASF5422
C:\Users\SOLDER~1\AppData\Local\Temp\cc6haz4O.s:26228  .debug_str:000000000001c8a9 .LASF5423
C:\Users\SOLDER~1\AppData\Local\Temp\cc6haz4O.s:21336  .debug_str:0000000000008cc5 .LASF5424
C:\Users\SOLDER~1\AppData\Local\Temp\cc6haz4O.s:29114  .debug_str:00000000000284c6 .LASF5425
C:\Users\SOLDER~1\AppData\Local\Temp\cc6haz4O.s:30502  .debug_str:000000000002de52 .LASF5426
C:\Users\SOLDER~1\AppData\Local\Temp\cc6haz4O.s:20532  .debug_str:00000000000057e5 .LASF5427
C:\Users\SOLDER~1\AppData\Local\Temp\cc6haz4O.s:24214  .debug_str:000000000001484c .LASF5428
C:\Users\SOLDER~1\AppData\Local\Temp\cc6haz4O.s:29916  .debug_str:000000000002b869 .LASF5429
C:\Users\SOLDER~1\AppData\Local\Temp\cc6haz4O.s:30310  .debug_str:000000000002d1f1 .LASF5430
C:\Users\SOLDER~1\AppData\Local\Temp\cc6haz4O.s:23464  .debug_str:00000000000116f3 .LASF5431
C:\Users\SOLDER~1\AppData\Local\Temp\cc6haz4O.s:20320  .debug_str:0000000000004b1f .LASF5432
C:\Users\SOLDER~1\AppData\Local\Temp\cc6haz4O.s:19958  .debug_str:0000000000003419 .LASF5433
C:\Users\SOLDER~1\AppData\Local\Temp\cc6haz4O.s:25962  .debug_str:000000000001b786 .LASF5434
C:\Users\SOLDER~1\AppData\Local\Temp\cc6haz4O.s:29250  .debug_str:0000000000028da7 .LASF5435
C:\Users\SOLDER~1\AppData\Local\Temp\cc6haz4O.s:21768  .debug_str:000000000000a950 .LASF5436
C:\Users\SOLDER~1\AppData\Local\Temp\cc6haz4O.s:23018  .debug_str:000000000000fa65 .LASF5437
C:\Users\SOLDER~1\AppData\Local\Temp\cc6haz4O.s:26384  .debug_str:000000000001d337 .LASF5438
C:\Users\SOLDER~1\AppData\Local\Temp\cc6haz4O.s:27248  .debug_str:0000000000020ae1 .LASF5439
C:\Users\SOLDER~1\AppData\Local\Temp\cc6haz4O.s:21634  .debug_str:000000000000a053 .LASF5440
C:\Users\SOLDER~1\AppData\Local\Temp\cc6haz4O.s:19578  .debug_str:0000000000001b22 .LASF5441
C:\Users\SOLDER~1\AppData\Local\Temp\cc6haz4O.s:25528  .debug_str:0000000000019b9b .LASF5442
C:\Users\SOLDER~1\AppData\Local\Temp\cc6haz4O.s:20350  .debug_str:0000000000004d02 .LASF5443
C:\Users\SOLDER~1\AppData\Local\Temp\cc6haz4O.s:30084  .debug_str:000000000002c378 .LASF5444
C:\Users\SOLDER~1\AppData\Local\Temp\cc6haz4O.s:27126  .debug_str:0000000000020304 .LASF5445
C:\Users\SOLDER~1\AppData\Local\Temp\cc6haz4O.s:27608  .debug_str:00000000000221b9 .LASF5446
C:\Users\SOLDER~1\AppData\Local\Temp\cc6haz4O.s:24698  .debug_str:00000000000166e1 .LASF5447
C:\Users\SOLDER~1\AppData\Local\Temp\cc6haz4O.s:23208  .debug_str:00000000000106ac .LASF5448
C:\Users\SOLDER~1\AppData\Local\Temp\cc6haz4O.s:24560  .debug_str:0000000000015e3d .LASF5449
C:\Users\SOLDER~1\AppData\Local\Temp\cc6haz4O.s:23540  .debug_str:0000000000011b8d .LASF5450
C:\Users\SOLDER~1\AppData\Local\Temp\cc6haz4O.s:28550  .debug_str:0000000000025f3c .LASF5451
C:\Users\SOLDER~1\AppData\Local\Temp\cc6haz4O.s:23090  .debug_str:000000000000ff28 .LASF5452
GAS LISTING C:\Users\SOLDER~1\AppData\Local\Temp\cc6haz4O.s 			page 118


C:\Users\SOLDER~1\AppData\Local\Temp\cc6haz4O.s:21956  .debug_str:000000000000b553 .LASF5453
C:\Users\SOLDER~1\AppData\Local\Temp\cc6haz4O.s:23866  .debug_str:000000000001305c .LASF5454
C:\Users\SOLDER~1\AppData\Local\Temp\cc6haz4O.s:22922  .debug_str:000000000000f400 .LASF5455
C:\Users\SOLDER~1\AppData\Local\Temp\cc6haz4O.s:20058  .debug_str:0000000000003a86 .LASF5456
C:\Users\SOLDER~1\AppData\Local\Temp\cc6haz4O.s:21750  .debug_str:000000000000a81e .LASF5457
C:\Users\SOLDER~1\AppData\Local\Temp\cc6haz4O.s:20230  .debug_str:0000000000004566 .LASF5458
C:\Users\SOLDER~1\AppData\Local\Temp\cc6haz4O.s:21686  .debug_str:000000000000a3c9 .LASF5459
C:\Users\SOLDER~1\AppData\Local\Temp\cc6haz4O.s:21598  .debug_str:0000000000009dd4 .LASF5460
C:\Users\SOLDER~1\AppData\Local\Temp\cc6haz4O.s:30044  .debug_str:000000000002c09c .LASF5461
C:\Users\SOLDER~1\AppData\Local\Temp\cc6haz4O.s:24836  .debug_str:0000000000016f25 .LASF5462
C:\Users\SOLDER~1\AppData\Local\Temp\cc6haz4O.s:25640  .debug_str:000000000001a2aa .LASF5463
C:\Users\SOLDER~1\AppData\Local\Temp\cc6haz4O.s:24442  .debug_str:000000000001572d .LASF5464
C:\Users\SOLDER~1\AppData\Local\Temp\cc6haz4O.s:27484  .debug_str:00000000000219f1 .LASF5465
C:\Users\SOLDER~1\AppData\Local\Temp\cc6haz4O.s:28598  .debug_str:00000000000262a5 .LASF5466
C:\Users\SOLDER~1\AppData\Local\Temp\cc6haz4O.s:22038  .debug_str:000000000000ba4e .LASF5467
C:\Users\SOLDER~1\AppData\Local\Temp\cc6haz4O.s:20894  .debug_str:0000000000006ffc .LASF5468
C:\Users\SOLDER~1\AppData\Local\Temp\cc6haz4O.s:21474  .debug_str:00000000000095fd .LASF5469
C:\Users\SOLDER~1\AppData\Local\Temp\cc6haz4O.s:22046  .debug_str:000000000000bac2 .LASF5470
C:\Users\SOLDER~1\AppData\Local\Temp\cc6haz4O.s:22976  .debug_str:000000000000f75d .LASF5471
C:\Users\SOLDER~1\AppData\Local\Temp\cc6haz4O.s:25762  .debug_str:000000000001aaa9 .LASF5472
C:\Users\SOLDER~1\AppData\Local\Temp\cc6haz4O.s:26370  .debug_str:000000000001d20d .LASF5473
C:\Users\SOLDER~1\AppData\Local\Temp\cc6haz4O.s:30168  .debug_str:000000000002c8c2 .LASF5474
C:\Users\SOLDER~1\AppData\Local\Temp\cc6haz4O.s:29702  .debug_str:000000000002aa87 .LASF5475
C:\Users\SOLDER~1\AppData\Local\Temp\cc6haz4O.s:26290  .debug_str:000000000001ccef .LASF5476
C:\Users\SOLDER~1\AppData\Local\Temp\cc6haz4O.s:23016  .debug_str:000000000000fa39 .LASF5477
C:\Users\SOLDER~1\AppData\Local\Temp\cc6haz4O.s:26418  .debug_str:000000000001d585 .LASF5478
C:\Users\SOLDER~1\AppData\Local\Temp\cc6haz4O.s:22360  .debug_str:000000000000cfac .LASF5479
C:\Users\SOLDER~1\AppData\Local\Temp\cc6haz4O.s:21596  .debug_str:0000000000009db1 .LASF5480
C:\Users\SOLDER~1\AppData\Local\Temp\cc6haz4O.s:28424  .debug_str:0000000000025698 .LASF5481
C:\Users\SOLDER~1\AppData\Local\Temp\cc6haz4O.s:23096  .debug_str:000000000000ff8b .LASF5482
C:\Users\SOLDER~1\AppData\Local\Temp\cc6haz4O.s:30480  .debug_str:000000000002dcd2 .LASF5483
C:\Users\SOLDER~1\AppData\Local\Temp\cc6haz4O.s:26742  .debug_str:000000000001ea56 .LASF5484
C:\Users\SOLDER~1\AppData\Local\Temp\cc6haz4O.s:19316  .debug_str:0000000000000a64 .LASF5485
C:\Users\SOLDER~1\AppData\Local\Temp\cc6haz4O.s:24048  .debug_str:0000000000013ce3 .LASF5486
C:\Users\SOLDER~1\AppData\Local\Temp\cc6haz4O.s:21920  .debug_str:000000000000b2db .LASF5487
C:\Users\SOLDER~1\AppData\Local\Temp\cc6haz4O.s:25794  .debug_str:000000000001aca1 .LASF5488
C:\Users\SOLDER~1\AppData\Local\Temp\cc6haz4O.s:22016  .debug_str:000000000000b916 .LASF5489
C:\Users\SOLDER~1\AppData\Local\Temp\cc6haz4O.s:23638  .debug_str:00000000000121bc .LASF5490
C:\Users\SOLDER~1\AppData\Local\Temp\cc6haz4O.s:29602  .debug_str:000000000002a478 .LASF5491
C:\Users\SOLDER~1\AppData\Local\Temp\cc6haz4O.s:22750  .debug_str:000000000000e8ee .LASF5492
C:\Users\SOLDER~1\AppData\Local\Temp\cc6haz4O.s:26012  .debug_str:000000000001ba84 .LASF5493
C:\Users\SOLDER~1\AppData\Local\Temp\cc6haz4O.s:22496  .debug_str:000000000000d89b .LASF5494
C:\Users\SOLDER~1\AppData\Local\Temp\cc6haz4O.s:28732  .debug_str:0000000000026c0a .LASF5495
C:\Users\SOLDER~1\AppData\Local\Temp\cc6haz4O.s:28074  .debug_str:0000000000023fe8 .LASF5496
C:\Users\SOLDER~1\AppData\Local\Temp\cc6haz4O.s:30016  .debug_str:000000000002bea5 .LASF5497
C:\Users\SOLDER~1\AppData\Local\Temp\cc6haz4O.s:22384  .debug_str:000000000000d12d .LASF5498
C:\Users\SOLDER~1\AppData\Local\Temp\cc6haz4O.s:28018  .debug_str:0000000000023c2a .LASF5499
C:\Users\SOLDER~1\AppData\Local\Temp\cc6haz4O.s:20224  .debug_str:00000000000044f0 .LASF5500
C:\Users\SOLDER~1\AppData\Local\Temp\cc6haz4O.s:30750  .debug_str:000000000002ee35 .LASF5501
C:\Users\SOLDER~1\AppData\Local\Temp\cc6haz4O.s:25820  .debug_str:000000000001aebc .LASF5502
C:\Users\SOLDER~1\AppData\Local\Temp\cc6haz4O.s:30632  .debug_str:000000000002e67d .LASF5503
C:\Users\SOLDER~1\AppData\Local\Temp\cc6haz4O.s:20472  .debug_str:000000000000544a .LASF5504
C:\Users\SOLDER~1\AppData\Local\Temp\cc6haz4O.s:21786  .debug_str:000000000000aa69 .LASF5505
C:\Users\SOLDER~1\AppData\Local\Temp\cc6haz4O.s:24180  .debug_str:00000000000145ec .LASF5506
C:\Users\SOLDER~1\AppData\Local\Temp\cc6haz4O.s:22422  .debug_str:000000000000d3b0 .LASF5507
C:\Users\SOLDER~1\AppData\Local\Temp\cc6haz4O.s:27398  .debug_str:0000000000021481 .LASF5508
C:\Users\SOLDER~1\AppData\Local\Temp\cc6haz4O.s:27168  .debug_str:00000000000205aa .LASF5509
GAS LISTING C:\Users\SOLDER~1\AppData\Local\Temp\cc6haz4O.s 			page 119


C:\Users\SOLDER~1\AppData\Local\Temp\cc6haz4O.s:24262  .debug_str:0000000000014b6f .LASF5510
C:\Users\SOLDER~1\AppData\Local\Temp\cc6haz4O.s:23492  .debug_str:0000000000011877 .LASF5511
C:\Users\SOLDER~1\AppData\Local\Temp\cc6haz4O.s:27408  .debug_str:0000000000021524 .LASF5512
C:\Users\SOLDER~1\AppData\Local\Temp\cc6haz4O.s:27330  .debug_str:0000000000020fe5 .LASF5513
C:\Users\SOLDER~1\AppData\Local\Temp\cc6haz4O.s:20906  .debug_str:00000000000070ee .LASF5514
C:\Users\SOLDER~1\AppData\Local\Temp\cc6haz4O.s:23164  .debug_str:00000000000103a9 .LASF5515
C:\Users\SOLDER~1\AppData\Local\Temp\cc6haz4O.s:29046  .debug_str:000000000002806e .LASF5516
C:\Users\SOLDER~1\AppData\Local\Temp\cc6haz4O.s:29600  .debug_str:000000000002a456 .LASF5517
C:\Users\SOLDER~1\AppData\Local\Temp\cc6haz4O.s:26090  .debug_str:000000000001bfa8 .LASF5518
C:\Users\SOLDER~1\AppData\Local\Temp\cc6haz4O.s:22460  .debug_str:000000000000d63a .LASF5519
C:\Users\SOLDER~1\AppData\Local\Temp\cc6haz4O.s:30052  .debug_str:000000000002c129 .LASF5520
C:\Users\SOLDER~1\AppData\Local\Temp\cc6haz4O.s:27886  .debug_str:00000000000233b6 .LASF5521
C:\Users\SOLDER~1\AppData\Local\Temp\cc6haz4O.s:19536  .debug_str:000000000000189f .LASF5522
C:\Users\SOLDER~1\AppData\Local\Temp\cc6haz4O.s:23948  .debug_str:00000000000135bd .LASF5523
C:\Users\SOLDER~1\AppData\Local\Temp\cc6haz4O.s:23656  .debug_str:00000000000122ef .LASF5524
C:\Users\SOLDER~1\AppData\Local\Temp\cc6haz4O.s:23180  .debug_str:00000000000104d7 .LASF5525
C:\Users\SOLDER~1\AppData\Local\Temp\cc6haz4O.s:19666  .debug_str:00000000000020d3 .LASF5526
C:\Users\SOLDER~1\AppData\Local\Temp\cc6haz4O.s:19390  .debug_str:0000000000000f6e .LASF5527
C:\Users\SOLDER~1\AppData\Local\Temp\cc6haz4O.s:27032  .debug_str:000000000001fd42 .LASF5528
C:\Users\SOLDER~1\AppData\Local\Temp\cc6haz4O.s:30316  .debug_str:000000000002d276 .LASF5529
C:\Users\SOLDER~1\AppData\Local\Temp\cc6haz4O.s:26800  .debug_str:000000000001ee1c .LASF5530
C:\Users\SOLDER~1\AppData\Local\Temp\cc6haz4O.s:28152  .debug_str:00000000000244ff .LASF5531
C:\Users\SOLDER~1\AppData\Local\Temp\cc6haz4O.s:20922  .debug_str:0000000000007207 .LASF5532
C:\Users\SOLDER~1\AppData\Local\Temp\cc6haz4O.s:26140  .debug_str:000000000001c2f5 .LASF5533
C:\Users\SOLDER~1\AppData\Local\Temp\cc6haz4O.s:23808  .debug_str:0000000000012c72 .LASF5534
C:\Users\SOLDER~1\AppData\Local\Temp\cc6haz4O.s:30722  .debug_str:000000000002ec84 .LASF5535
C:\Users\SOLDER~1\AppData\Local\Temp\cc6haz4O.s:22500  .debug_str:000000000000d8e0 .LASF5536
C:\Users\SOLDER~1\AppData\Local\Temp\cc6haz4O.s:27686  .debug_str:000000000002267f .LASF5537
C:\Users\SOLDER~1\AppData\Local\Temp\cc6haz4O.s:22430  .debug_str:000000000000d428 .LASF5538
C:\Users\SOLDER~1\AppData\Local\Temp\cc6haz4O.s:28682  .debug_str:0000000000026868 .LASF5539
C:\Users\SOLDER~1\AppData\Local\Temp\cc6haz4O.s:22442  .debug_str:000000000000d506 .LASF5540
C:\Users\SOLDER~1\AppData\Local\Temp\cc6haz4O.s:29520  .debug_str:0000000000029ee3 .LASF5541
C:\Users\SOLDER~1\AppData\Local\Temp\cc6haz4O.s:29902  .debug_str:000000000002b784 .LASF5542
C:\Users\SOLDER~1\AppData\Local\Temp\cc6haz4O.s:27712  .debug_str:000000000002282d .LASF5543
C:\Users\SOLDER~1\AppData\Local\Temp\cc6haz4O.s:28946  .debug_str:0000000000027a0c .LASF5544
C:\Users\SOLDER~1\AppData\Local\Temp\cc6haz4O.s:23012  .debug_str:000000000000f9cd .LASF5545
C:\Users\SOLDER~1\AppData\Local\Temp\cc6haz4O.s:30482  .debug_str:000000000002dcf6 .LASF5546
C:\Users\SOLDER~1\AppData\Local\Temp\cc6haz4O.s:25198  .debug_str:000000000001869a .LASF5547
C:\Users\SOLDER~1\AppData\Local\Temp\cc6haz4O.s:24244  .debug_str:0000000000014a18 .LASF5548
C:\Users\SOLDER~1\AppData\Local\Temp\cc6haz4O.s:24042  .debug_str:0000000000013c63 .LASF5549
C:\Users\SOLDER~1\AppData\Local\Temp\cc6haz4O.s:21652  .debug_str:000000000000a15b .LASF5550
C:\Users\SOLDER~1\AppData\Local\Temp\cc6haz4O.s:26402  .debug_str:000000000001d468 .LASF5551
C:\Users\SOLDER~1\AppData\Local\Temp\cc6haz4O.s:25434  .debug_str:000000000001958a .LASF5552
C:\Users\SOLDER~1\AppData\Local\Temp\cc6haz4O.s:28556  .debug_str:0000000000025fa0 .LASF5553
C:\Users\SOLDER~1\AppData\Local\Temp\cc6haz4O.s:19890  .debug_str:0000000000002fb2 .LASF5554
C:\Users\SOLDER~1\AppData\Local\Temp\cc6haz4O.s:20336  .debug_str:0000000000004c07 .LASF5555
C:\Users\SOLDER~1\AppData\Local\Temp\cc6haz4O.s:21888  .debug_str:000000000000b10f .LASF5556
C:\Users\SOLDER~1\AppData\Local\Temp\cc6haz4O.s:25412  .debug_str:0000000000019430 .LASF5557
C:\Users\SOLDER~1\AppData\Local\Temp\cc6haz4O.s:22454  .debug_str:000000000000d5df .LASF5558
C:\Users\SOLDER~1\AppData\Local\Temp\cc6haz4O.s:27968  .debug_str:0000000000023924 .LASF5559
C:\Users\SOLDER~1\AppData\Local\Temp\cc6haz4O.s:29118  .debug_str:0000000000028505 .LASF5560
C:\Users\SOLDER~1\AppData\Local\Temp\cc6haz4O.s:20176  .debug_str:00000000000041ec .LASF5561
C:\Users\SOLDER~1\AppData\Local\Temp\cc6haz4O.s:26520  .debug_str:000000000001dbbb .LASF5562
C:\Users\SOLDER~1\AppData\Local\Temp\cc6haz4O.s:29052  .debug_str:00000000000280c4 .LASF5563
C:\Users\SOLDER~1\AppData\Local\Temp\cc6haz4O.s:26256  .debug_str:000000000001ca81 .LASF5564
C:\Users\SOLDER~1\AppData\Local\Temp\cc6haz4O.s:30682  .debug_str:000000000002e9dc .LASF5565
C:\Users\SOLDER~1\AppData\Local\Temp\cc6haz4O.s:29750  .debug_str:000000000002ade3 .LASF5566
GAS LISTING C:\Users\SOLDER~1\AppData\Local\Temp\cc6haz4O.s 			page 120


C:\Users\SOLDER~1\AppData\Local\Temp\cc6haz4O.s:30028  .debug_str:000000000002bf78 .LASF5567
C:\Users\SOLDER~1\AppData\Local\Temp\cc6haz4O.s:25466  .debug_str:0000000000019808 .LASF5568
C:\Users\SOLDER~1\AppData\Local\Temp\cc6haz4O.s:20854  .debug_str:0000000000006d4e .LASF5569
C:\Users\SOLDER~1\AppData\Local\Temp\cc6haz4O.s:19408  .debug_str:0000000000001067 .LASF5570
C:\Users\SOLDER~1\AppData\Local\Temp\cc6haz4O.s:27766  .debug_str:0000000000022bfc .LASF5571
C:\Users\SOLDER~1\AppData\Local\Temp\cc6haz4O.s:19312  .debug_str:0000000000000a1e .LASF5572
C:\Users\SOLDER~1\AppData\Local\Temp\cc6haz4O.s:24070  .debug_str:0000000000013e57 .LASF5573
C:\Users\SOLDER~1\AppData\Local\Temp\cc6haz4O.s:23434  .debug_str:00000000000114b0 .LASF5574
C:\Users\SOLDER~1\AppData\Local\Temp\cc6haz4O.s:28222  .debug_str:000000000002498c .LASF5575
C:\Users\SOLDER~1\AppData\Local\Temp\cc6haz4O.s:19428  .debug_str:00000000000011aa .LASF5576
C:\Users\SOLDER~1\AppData\Local\Temp\cc6haz4O.s:24904  .debug_str:000000000001739f .LASF5577
C:\Users\SOLDER~1\AppData\Local\Temp\cc6haz4O.s:23698  .debug_str:0000000000012555 .LASF5578
C:\Users\SOLDER~1\AppData\Local\Temp\cc6haz4O.s:21008  .debug_str:0000000000007774 .LASF5579
C:\Users\SOLDER~1\AppData\Local\Temp\cc6haz4O.s:22754  .debug_str:000000000000e936 .LASF5580
C:\Users\SOLDER~1\AppData\Local\Temp\cc6haz4O.s:23784  .debug_str:0000000000012ad0 .LASF5581
C:\Users\SOLDER~1\AppData\Local\Temp\cc6haz4O.s:25606  .debug_str:000000000001a07b .LASF5582
C:\Users\SOLDER~1\AppData\Local\Temp\cc6haz4O.s:25462  .debug_str:00000000000197b6 .LASF5583
C:\Users\SOLDER~1\AppData\Local\Temp\cc6haz4O.s:25722  .debug_str:000000000001a7de .LASF5584
C:\Users\SOLDER~1\AppData\Local\Temp\cc6haz4O.s:26918  .debug_str:000000000001f615 .LASF5585
C:\Users\SOLDER~1\AppData\Local\Temp\cc6haz4O.s:23676  .debug_str:0000000000012405 .LASF5586
C:\Users\SOLDER~1\AppData\Local\Temp\cc6haz4O.s:29798  .debug_str:000000000002b0b7 .LASF5587
C:\Users\SOLDER~1\AppData\Local\Temp\cc6haz4O.s:21406  .debug_str:000000000000916a .LASF5588
C:\Users\SOLDER~1\AppData\Local\Temp\cc6haz4O.s:27388  .debug_str:00000000000213e1 .LASF5589
C:\Users\SOLDER~1\AppData\Local\Temp\cc6haz4O.s:23076  .debug_str:000000000000fe56 .LASF5590
C:\Users\SOLDER~1\AppData\Local\Temp\cc6haz4O.s:21784  .debug_str:000000000000aa42 .LASF5591
C:\Users\SOLDER~1\AppData\Local\Temp\cc6haz4O.s:25308  .debug_str:0000000000018d9c .LASF5592
C:\Users\SOLDER~1\AppData\Local\Temp\cc6haz4O.s:20632  .debug_str:0000000000005ebb .LASF5593
C:\Users\SOLDER~1\AppData\Local\Temp\cc6haz4O.s:21038  .debug_str:000000000000790f .LASF5594
C:\Users\SOLDER~1\AppData\Local\Temp\cc6haz4O.s:21700  .debug_str:000000000000a492 .LASF5595
C:\Users\SOLDER~1\AppData\Local\Temp\cc6haz4O.s:27838  .debug_str:0000000000023086 .LASF5596
C:\Users\SOLDER~1\AppData\Local\Temp\cc6haz4O.s:26510  .debug_str:000000000001db0b .LASF5597
C:\Users\SOLDER~1\AppData\Local\Temp\cc6haz4O.s:19278  .debug_str:00000000000007a4 .LASF5598
C:\Users\SOLDER~1\AppData\Local\Temp\cc6haz4O.s:24118  .debug_str:0000000000014193 .LASF5599
C:\Users\SOLDER~1\AppData\Local\Temp\cc6haz4O.s:30340  .debug_str:000000000002d409 .LASF5600
C:\Users\SOLDER~1\AppData\Local\Temp\cc6haz4O.s:20392  .debug_str:0000000000004f8c .LASF5601
C:\Users\SOLDER~1\AppData\Local\Temp\cc6haz4O.s:28052  .debug_str:0000000000023e6a .LASF5602
C:\Users\SOLDER~1\AppData\Local\Temp\cc6haz4O.s:29004  .debug_str:0000000000027d6b .LASF5603
C:\Users\SOLDER~1\AppData\Local\Temp\cc6haz4O.s:27566  .debug_str:0000000000021f2b .LASF5604
C:\Users\SOLDER~1\AppData\Local\Temp\cc6haz4O.s:27518  .debug_str:0000000000021c2e .LASF5605
C:\Users\SOLDER~1\AppData\Local\Temp\cc6haz4O.s:27122  .debug_str:00000000000202c6 .LASF5606
C:\Users\SOLDER~1\AppData\Local\Temp\cc6haz4O.s:19612  .debug_str:0000000000001d7e .LASF5607
C:\Users\SOLDER~1\AppData\Local\Temp\cc6haz4O.s:29282  .debug_str:0000000000028fa7 .LASF5608
C:\Users\SOLDER~1\AppData\Local\Temp\cc6haz4O.s:26378  .debug_str:000000000001d2ba .LASF5609
C:\Users\SOLDER~1\AppData\Local\Temp\cc6haz4O.s:30284  .debug_str:000000000002d012 .LASF5610
C:\Users\SOLDER~1\AppData\Local\Temp\cc6haz4O.s:20860  .debug_str:0000000000006d9b .LASF5611
C:\Users\SOLDER~1\AppData\Local\Temp\cc6haz4O.s:22170  .debug_str:000000000000c2c9 .LASF5612
C:\Users\SOLDER~1\AppData\Local\Temp\cc6haz4O.s:29516  .debug_str:0000000000029e96 .LASF5613
C:\Users\SOLDER~1\AppData\Local\Temp\cc6haz4O.s:25312  .debug_str:0000000000018dd7 .LASF5614
C:\Users\SOLDER~1\AppData\Local\Temp\cc6haz4O.s:28166  .debug_str:00000000000245dd .LASF5615
C:\Users\SOLDER~1\AppData\Local\Temp\cc6haz4O.s:26562  .debug_str:000000000001de97 .LASF5616
C:\Users\SOLDER~1\AppData\Local\Temp\cc6haz4O.s:24848  .debug_str:0000000000016fcd .LASF5617
C:\Users\SOLDER~1\AppData\Local\Temp\cc6haz4O.s:20516  .debug_str:00000000000056e7 .LASF5618
C:\Users\SOLDER~1\AppData\Local\Temp\cc6haz4O.s:24704  .debug_str:0000000000016735 .LASF5619
C:\Users\SOLDER~1\AppData\Local\Temp\cc6haz4O.s:28676  .debug_str:00000000000267ff .LASF5620
C:\Users\SOLDER~1\AppData\Local\Temp\cc6haz4O.s:23462  .debug_str:00000000000116d3 .LASF5621
C:\Users\SOLDER~1\AppData\Local\Temp\cc6haz4O.s:25868  .debug_str:000000000001b1b0 .LASF5622
C:\Users\SOLDER~1\AppData\Local\Temp\cc6haz4O.s:19270  .debug_str:0000000000000729 .LASF5623
GAS LISTING C:\Users\SOLDER~1\AppData\Local\Temp\cc6haz4O.s 			page 121


C:\Users\SOLDER~1\AppData\Local\Temp\cc6haz4O.s:21816  .debug_str:000000000000ac75 .LASF5624
C:\Users\SOLDER~1\AppData\Local\Temp\cc6haz4O.s:26622  .debug_str:000000000001e294 .LASF5625
C:\Users\SOLDER~1\AppData\Local\Temp\cc6haz4O.s:23762  .debug_str:0000000000012981 .LASF5626
C:\Users\SOLDER~1\AppData\Local\Temp\cc6haz4O.s:24022  .debug_str:0000000000013ae6 .LASF5627
C:\Users\SOLDER~1\AppData\Local\Temp\cc6haz4O.s:22204  .debug_str:000000000000c537 .LASF5628
C:\Users\SOLDER~1\AppData\Local\Temp\cc6haz4O.s:27332  .debug_str:0000000000021003 .LASF5629
C:\Users\SOLDER~1\AppData\Local\Temp\cc6haz4O.s:21182  .debug_str:00000000000082ca .LASF5630
C:\Users\SOLDER~1\AppData\Local\Temp\cc6haz4O.s:29196  .debug_str:0000000000028a37 .LASF5631
C:\Users\SOLDER~1\AppData\Local\Temp\cc6haz4O.s:24944  .debug_str:0000000000017636 .LASF5632
C:\Users\SOLDER~1\AppData\Local\Temp\cc6haz4O.s:30512  .debug_str:000000000002deff .LASF5633
C:\Users\SOLDER~1\AppData\Local\Temp\cc6haz4O.s:24710  .debug_str:0000000000016779 .LASF5634
C:\Users\SOLDER~1\AppData\Local\Temp\cc6haz4O.s:26318  .debug_str:000000000001cec9 .LASF5635
C:\Users\SOLDER~1\AppData\Local\Temp\cc6haz4O.s:27914  .debug_str:00000000000235bd .LASF5636
C:\Users\SOLDER~1\AppData\Local\Temp\cc6haz4O.s:23336  .debug_str:0000000000010e8b .LASF5637
C:\Users\SOLDER~1\AppData\Local\Temp\cc6haz4O.s:25208  .debug_str:000000000001874d .LASF5638
C:\Users\SOLDER~1\AppData\Local\Temp\cc6haz4O.s:21262  .debug_str:00000000000087e0 .LASF5639
C:\Users\SOLDER~1\AppData\Local\Temp\cc6haz4O.s:24004  .debug_str:0000000000013970 .LASF5640
C:\Users\SOLDER~1\AppData\Local\Temp\cc6haz4O.s:27488  .debug_str:0000000000021a2a .LASF5641
C:\Users\SOLDER~1\AppData\Local\Temp\cc6haz4O.s:29816  .debug_str:000000000002b214 .LASF5642
C:\Users\SOLDER~1\AppData\Local\Temp\cc6haz4O.s:21738  .debug_str:000000000000a718 .LASF5643
C:\Users\SOLDER~1\AppData\Local\Temp\cc6haz4O.s:27356  .debug_str:000000000002119a .LASF5644
C:\Users\SOLDER~1\AppData\Local\Temp\cc6haz4O.s:23828  .debug_str:0000000000012de7 .LASF5645
C:\Users\SOLDER~1\AppData\Local\Temp\cc6haz4O.s:28180  .debug_str:00000000000246d9 .LASF5646
C:\Users\SOLDER~1\AppData\Local\Temp\cc6haz4O.s:24318  .debug_str:0000000000014f3c .LASF5647
C:\Users\SOLDER~1\AppData\Local\Temp\cc6haz4O.s:27728  .debug_str:0000000000022946 .LASF5648
C:\Users\SOLDER~1\AppData\Local\Temp\cc6haz4O.s:30724  .debug_str:000000000002eca8 .LASF5649
C:\Users\SOLDER~1\AppData\Local\Temp\cc6haz4O.s:30080  .debug_str:000000000002c33f .LASF5650
C:\Users\SOLDER~1\AppData\Local\Temp\cc6haz4O.s:29374  .debug_str:0000000000029579 .LASF5651
C:\Users\SOLDER~1\AppData\Local\Temp\cc6haz4O.s:20872  .debug_str:0000000000006e74 .LASF5652
C:\Users\SOLDER~1\AppData\Local\Temp\cc6haz4O.s:24316  .debug_str:0000000000014f16 .LASF5653
C:\Users\SOLDER~1\AppData\Local\Temp\cc6haz4O.s:20868  .debug_str:0000000000006e37 .LASF5654
C:\Users\SOLDER~1\AppData\Local\Temp\cc6haz4O.s:27860  .debug_str:0000000000023210 .LASF5655
C:\Users\SOLDER~1\AppData\Local\Temp\cc6haz4O.s:29896  .debug_str:000000000002b725 .LASF5656
C:\Users\SOLDER~1\AppData\Local\Temp\cc6haz4O.s:19974  .debug_str:000000000000353b .LASF5657
C:\Users\SOLDER~1\AppData\Local\Temp\cc6haz4O.s:29880  .debug_str:000000000002b617 .LASF5658
C:\Users\SOLDER~1\AppData\Local\Temp\cc6haz4O.s:26686  .debug_str:000000000001e67e .LASF5659
C:\Users\SOLDER~1\AppData\Local\Temp\cc6haz4O.s:23182  .debug_str:00000000000104fc .LASF5660
C:\Users\SOLDER~1\AppData\Local\Temp\cc6haz4O.s:20832  .debug_str:0000000000006be0 .LASF5661
C:\Users\SOLDER~1\AppData\Local\Temp\cc6haz4O.s:20536  .debug_str:0000000000005822 .LASF5662
C:\Users\SOLDER~1\AppData\Local\Temp\cc6haz4O.s:19758  .debug_str:000000000000270f .LASF5663
C:\Users\SOLDER~1\AppData\Local\Temp\cc6haz4O.s:19976  .debug_str:000000000000355c .LASF5664
C:\Users\SOLDER~1\AppData\Local\Temp\cc6haz4O.s:23328  .debug_str:0000000000010e0a .LASF5665
C:\Users\SOLDER~1\AppData\Local\Temp\cc6haz4O.s:21448  .debug_str:000000000000943e .LASF5666
C:\Users\SOLDER~1\AppData\Local\Temp\cc6haz4O.s:20540  .debug_str:0000000000005883 .LASF5667
C:\Users\SOLDER~1\AppData\Local\Temp\cc6haz4O.s:28532  .debug_str:0000000000025e0f .LASF5668
C:\Users\SOLDER~1\AppData\Local\Temp\cc6haz4O.s:22344  .debug_str:000000000000ce92 .LASF5669
C:\Users\SOLDER~1\AppData\Local\Temp\cc6haz4O.s:20916  .debug_str:0000000000007199 .LASF5670
C:\Users\SOLDER~1\AppData\Local\Temp\cc6haz4O.s:30804  .debug_str:000000000002f196 .LASF5671
C:\Users\SOLDER~1\AppData\Local\Temp\cc6haz4O.s:21246  .debug_str:00000000000086dc .LASF5672
C:\Users\SOLDER~1\AppData\Local\Temp\cc6haz4O.s:20930  .debug_str:0000000000007287 .LASF5673
C:\Users\SOLDER~1\AppData\Local\Temp\cc6haz4O.s:24616  .debug_str:00000000000161c4 .LASF5674
C:\Users\SOLDER~1\AppData\Local\Temp\cc6haz4O.s:30622  .debug_str:000000000002e5cc .LASF5675
C:\Users\SOLDER~1\AppData\Local\Temp\cc6haz4O.s:30232  .debug_str:000000000002ccb7 .LASF5676
C:\Users\SOLDER~1\AppData\Local\Temp\cc6haz4O.s:24438  .debug_str:00000000000156e8 .LASF5677
C:\Users\SOLDER~1\AppData\Local\Temp\cc6haz4O.s:30412  .debug_str:000000000002d87c .LASF5678
C:\Users\SOLDER~1\AppData\Local\Temp\cc6haz4O.s:26866  .debug_str:000000000001f286 .LASF5679
C:\Users\SOLDER~1\AppData\Local\Temp\cc6haz4O.s:27962  .debug_str:00000000000238d3 .LASF5680
GAS LISTING C:\Users\SOLDER~1\AppData\Local\Temp\cc6haz4O.s 			page 122


C:\Users\SOLDER~1\AppData\Local\Temp\cc6haz4O.s:28036  .debug_str:0000000000023d5c .LASF5681
C:\Users\SOLDER~1\AppData\Local\Temp\cc6haz4O.s:27550  .debug_str:0000000000021e41 .LASF5682
C:\Users\SOLDER~1\AppData\Local\Temp\cc6haz4O.s:19990  .debug_str:0000000000003630 .LASF5683
C:\Users\SOLDER~1\AppData\Local\Temp\cc6haz4O.s:25904  .debug_str:000000000001b3ba .LASF5684
C:\Users\SOLDER~1\AppData\Local\Temp\cc6haz4O.s:24368  .debug_str:0000000000015242 .LASF5685
C:\Users\SOLDER~1\AppData\Local\Temp\cc6haz4O.s:26358  .debug_str:000000000001d14e .LASF5686
C:\Users\SOLDER~1\AppData\Local\Temp\cc6haz4O.s:30040  .debug_str:000000000002c04a .LASF5687
C:\Users\SOLDER~1\AppData\Local\Temp\cc6haz4O.s:28382  .debug_str:00000000000253fd .LASF5688
C:\Users\SOLDER~1\AppData\Local\Temp\cc6haz4O.s:25810  .debug_str:000000000001ade1 .LASF5689
C:\Users\SOLDER~1\AppData\Local\Temp\cc6haz4O.s:25802  .debug_str:000000000001ad45 .LASF5690
C:\Users\SOLDER~1\AppData\Local\Temp\cc6haz4O.s:26146  .debug_str:000000000001c35b .LASF5691
C:\Users\SOLDER~1\AppData\Local\Temp\cc6haz4O.s:24304  .debug_str:0000000000014e4f .LASF5692
C:\Users\SOLDER~1\AppData\Local\Temp\cc6haz4O.s:23734  .debug_str:00000000000127cf .LASF5693
C:\Users\SOLDER~1\AppData\Local\Temp\cc6haz4O.s:25808  .debug_str:000000000001adbf .LASF5694
C:\Users\SOLDER~1\AppData\Local\Temp\cc6haz4O.s:30624  .debug_str:000000000002e5ef .LASF5695
C:\Users\SOLDER~1\AppData\Local\Temp\cc6haz4O.s:30534  .debug_str:000000000002e075 .LASF5696
C:\Users\SOLDER~1\AppData\Local\Temp\cc6haz4O.s:23150  .debug_str:00000000000102e0 .LASF5697
C:\Users\SOLDER~1\AppData\Local\Temp\cc6haz4O.s:29884  .debug_str:000000000002b65a .LASF5698
C:\Users\SOLDER~1\AppData\Local\Temp\cc6haz4O.s:26564  .debug_str:000000000001dec6 .LASF5699
C:\Users\SOLDER~1\AppData\Local\Temp\cc6haz4O.s:23554  .debug_str:0000000000011c6d .LASF5700
C:\Users\SOLDER~1\AppData\Local\Temp\cc6haz4O.s:21086  .debug_str:0000000000007c56 .LASF5701
C:\Users\SOLDER~1\AppData\Local\Temp\cc6haz4O.s:19432  .debug_str:00000000000011fc .LASF5702
C:\Users\SOLDER~1\AppData\Local\Temp\cc6haz4O.s:28078  .debug_str:0000000000024035 .LASF5703
C:\Users\SOLDER~1\AppData\Local\Temp\cc6haz4O.s:23706  .debug_str:00000000000125eb .LASF5704
C:\Users\SOLDER~1\AppData\Local\Temp\cc6haz4O.s:21354  .debug_str:0000000000008dd9 .LASF5705
C:\Users\SOLDER~1\AppData\Local\Temp\cc6haz4O.s:20576  .debug_str:0000000000005b12 .LASF5706
C:\Users\SOLDER~1\AppData\Local\Temp\cc6haz4O.s:22136  .debug_str:000000000000c097 .LASF5707
C:\Users\SOLDER~1\AppData\Local\Temp\cc6haz4O.s:22332  .debug_str:000000000000cdcd .LASF5708
C:\Users\SOLDER~1\AppData\Local\Temp\cc6haz4O.s:26480  .debug_str:000000000001d95a .LASF5709
C:\Users\SOLDER~1\AppData\Local\Temp\cc6haz4O.s:28626  .debug_str:00000000000264c4 .LASF5710
C:\Users\SOLDER~1\AppData\Local\Temp\cc6haz4O.s:25346  .debug_str:0000000000019023 .LASF5711
                           .group:0000000000000000 wm4.0.cc27e0d2094b492664a2491ca1ae43b0
                           .group:0000000000000000 wm4.ch32v20x.h.13.a030255a3e90e7179ae3b08da8e2408d
                           .group:0000000000000000 wm4._newlib_version.h.4.529115dae5e4f67702b1de0b6e841f38
                           .group:0000000000000000 wm4.features.h.33.3e67abe6fb64142d4f6fa9496796153c
                           .group:0000000000000000 wm4._default_types.h.15.247e5cd201eca3442cbf5404108c4935
                           .group:0000000000000000 wm4._intsup.h.10.48bafbb683905c4daa4565a85aeeb264
                           .group:0000000000000000 wm4._stdint.h.10.c24fa3af3bc1706662bb5593a907e841
                           .group:0000000000000000 wm4.stdint.h.23.d53047a68f4a85177f80b422d52785ed
                           .group:0000000000000000 wm4.core_riscv.h.11.151d7acb41e203dcc664023294f59bdc
                           .group:0000000000000000 wm4.ch32v20x.h.153.1d8393f26361703471ea96fe9aa4b4f9
                           .group:0000000000000000 wm4.ch32v20x_adc.h.56.f131972e7ce35efbe3b5c47a075d6d1b
                           .group:0000000000000000 wm4.ch32v20x_bkp.h.14.0a7965eb5be5000a494c3059b6f0eca5
                           .group:0000000000000000 wm4.ch32v20x_can.h.14.aa1dae2c28cbaf083875b4b61810c3c7
                           .group:0000000000000000 wm4.ch32v20x_dbgmcu.h.14.26ef95879978d9caaa154b373f3a512b
                           .group:0000000000000000 wm4.ch32v20x_dma.h.14.425a907348dd0134bf6e82c73bbd3df8
                           .group:0000000000000000 wm4.ch32v20x_exti.h.14.f67190d3fb91aa9aecce0f4d5a543221
                           .group:0000000000000000 wm4.ch32v20x_flash.h.14.91c5ecdad44f358d5032244aabf7ef4e
                           .group:0000000000000000 wm4.ch32v20x_gpio.h.14.bdb7f79cce0dffbc24dc81ea80f90bd2
                           .group:0000000000000000 wm4.ch32v20x_i2c.h.14.101eb625c9d2afac400f4e8ac2e9fb1d
                           .group:0000000000000000 wm4.ch32v20x_iwdg.h.14.26025d04ceeb3151185969ed5850fbb4
                           .group:0000000000000000 wm4.ch32v20x_pwr.h.14.8eaa3508938f71b27f140895c21602e6
                           .group:0000000000000000 wm4.ch32v20x_rcc.h.13.18c6b8696a30372de01acaf3c246ecb8
                           .group:0000000000000000 wm4.ch32v20x_rtc.h.14.eb8734f5dd75abcf831b4f12ec49aebe
                           .group:0000000000000000 wm4.ch32v20x_spi.h.14.f12b1f237c615e7304ae62cc2e2c3c1a
                           .group:0000000000000000 wm4.ch32v20x_tim.h.14.35d11fab62898d9d661122ade86d8a6c
                           .group:0000000000000000 wm4.ch32v20x_usart.h.14.9d28c7ec28f2121810b69a55079cd38f
GAS LISTING C:\Users\SOLDER~1\AppData\Local\Temp\cc6haz4O.s 			page 123


                           .group:0000000000000000 wm4.ch32v20x_wwdg.h.14.49bada437175894a4dce7e12e4216bc9
                           .group:0000000000000000 wm4.ch32v20x_misc.h.32.11aba9aa176300150d007ce51d22c3c7

NO UNDEFINED SYMBOLS
