ARM GAS  C:\Users\SOLDER~1\AppData\Local\Temp\ccVvc6MW.s 			page 1


   1              		.cpu cortex-m3
   2              		.arch armv7-m
   3              		.fpu softvfp
   4              		.eabi_attribute 20, 1
   5              		.eabi_attribute 21, 1
   6              		.eabi_attribute 23, 3
   7              		.eabi_attribute 24, 1
   8              		.eabi_attribute 25, 1
   9              		.eabi_attribute 26, 1
  10              		.eabi_attribute 30, 6
  11              		.eabi_attribute 34, 1
  12              		.eabi_attribute 18, 4
  13              		.file	"main.c"
  14              		.text
  15              	.Ltext0:
  16              		.cfi_sections	.debug_frame
  17              		.file 1 "Core/Src/main.c"
  18              		.global	Counter
  19              		.section	.bss.Counter,"aw",%nobits
  20              		.align	2
  23              	Counter:
  24 0000 00000000 		.space	4
  25              		.global	Text
  26              		.section	.bss.Text,"aw",%nobits
  27              		.align	2
  30              	Text:
  31 0000 00000000 		.space	256
  31      00000000 
  31      00000000 
  31      00000000 
  31      00000000 
  32              		.section	.rodata
  33              		.align	2
  34              	.LC0:
  35 0000 D09FD180 		.ascii	"\320\237\321\200\320\270\320\262\320\265\321\202 \320"
  35      D0B8D0B2 
  35      D0B5D182 
  35      20D0
  36 000e BCD0B8D1 		.ascii	"\274\320\270\321\200!\015\012\320\241\321\207\320\265"
  36      80210D0A 
  36      D0A1D187 
  36      D0B5
  37 001c D182D187 		.ascii	"\321\202\321\207\320\270\320\272 \320\264\320\276\321"
  37      D0B8D0BA 
  37      20D0B4D0 
  37      BED1
  38 002a 81D187D0 		.ascii	"\201\321\207\320\270\321\202\320\260\320\273 \320\264"
  38      B8D182D0 
  38      B0D0BB20 
  38      D0B4
  39 0038 D0BE2025 		.ascii	"\320\276 %ld\015\012\000"
  39      6C640D0A 
  39      00
  40              		.section	.text.main,"ax",%progbits
  41              		.align	1
  42              		.global	main
  43              		.syntax unified
ARM GAS  C:\Users\SOLDER~1\AppData\Local\Temp\ccVvc6MW.s 			page 2


  44              		.thumb
  45              		.thumb_func
  47              	main:
  48              	.LFB68:
   1:Core/Src/main.c **** #include "main.h"
   2:Core/Src/main.c **** 
   3:Core/Src/main.c **** uint32_t Counter = 0;
   4:Core/Src/main.c **** unsigned char Text[256] = {0,};
   5:Core/Src/main.c **** 
   6:Core/Src/main.c **** int main(void) {
  49              		.loc 1 6 16
  50              		.cfi_startproc
  51              		@ args = 0, pretend = 0, frame = 0
  52              		@ frame_needed = 1, uses_anonymous_args = 0
  53 0000 80B5     		push	{r7, lr}
  54              		.cfi_def_cfa_offset 8
  55              		.cfi_offset 7, -8
  56              		.cfi_offset 14, -4
  57 0002 82B0     		sub	sp, sp, #8
  58              		.cfi_def_cfa_offset 16
  59 0004 02AF     		add	r7, sp, #8
  60              		.cfi_def_cfa 7, 8
   7:Core/Src/main.c ****     CMSIS_Debug_init();
  61              		.loc 1 7 5
  62 0006 FFF7FEFF 		bl	CMSIS_Debug_init
   8:Core/Src/main.c ****     CMSIS_RCC_SystemClock_72MHz();
  63              		.loc 1 8 5
  64 000a FFF7FEFF 		bl	CMSIS_RCC_SystemClock_72MHz
   9:Core/Src/main.c ****     CMSIS_SysTick_Timer_init();
  65              		.loc 1 9 5
  66 000e FFF7FEFF 		bl	CMSIS_SysTick_Timer_init
  10:Core/Src/main.c ****     CMSIS_USART1_Init(); //115200 8N1
  67              		.loc 1 10 5
  68 0012 FFF7FEFF 		bl	CMSIS_USART1_Init
  11:Core/Src/main.c ****     CMSIS_GPIO_init(GPIOC, 13, GPIO_GENERAL_PURPOSE_OUTPUT, GPIO_OUTPUT_PUSH_PULL, GPIO_SPEED_50_MH
  69              		.loc 1 11 5
  70 0016 0323     		movs	r3, #3
  71 0018 0093     		str	r3, [sp]
  72 001a 0023     		movs	r3, #0
  73 001c 0022     		movs	r2, #0
  74 001e 0D21     		movs	r1, #13
  75 0020 0D48     		ldr	r0, .L3
  76 0022 FFF7FEFF 		bl	CMSIS_GPIO_init
  77              	.L2:
  12:Core/Src/main.c ****     
  13:Core/Src/main.c **** 
  14:Core/Src/main.c ****     while (1) {
  15:Core/Src/main.c ****         Counter++;
  78              		.loc 1 15 16 discriminator 1
  79 0026 0D4B     		ldr	r3, .L3+4
  80 0028 1B68     		ldr	r3, [r3]
  81 002a 0133     		adds	r3, r3, #1
  82 002c 0B4A     		ldr	r2, .L3+4
  83 002e 1360     		str	r3, [r2]
  16:Core/Src/main.c ****         sprintf((char*)Text, "Привет мир!\r\nСчетчик досчитал до %ld\r\n"
  84              		.loc 1 16 9 discriminator 1
  85 0030 0A4B     		ldr	r3, .L3+4
ARM GAS  C:\Users\SOLDER~1\AppData\Local\Temp\ccVvc6MW.s 			page 3


  86 0032 1B68     		ldr	r3, [r3]
  87 0034 1A46     		mov	r2, r3
  88 0036 0A49     		ldr	r1, .L3+8
  89 0038 0A48     		ldr	r0, .L3+12
  90 003a FFF7FEFF 		bl	sprintf
  17:Core/Src/main.c ****         CMSIS_USART_Transmit(USART1, (unsigned char*)&Text, strlen((const char*)Text), 100);
  91              		.loc 1 17 61 discriminator 1
  92 003e 0948     		ldr	r0, .L3+12
  93 0040 FFF7FEFF 		bl	strlen
  94 0044 0346     		mov	r3, r0
  95              		.loc 1 17 9 discriminator 1
  96 0046 9AB2     		uxth	r2, r3
  97 0048 6423     		movs	r3, #100
  98 004a 0649     		ldr	r1, .L3+12
  99 004c 0648     		ldr	r0, .L3+16
 100 004e FFF7FEFF 		bl	CMSIS_USART_Transmit
  15:Core/Src/main.c ****         sprintf((char*)Text, "Привет мир!\r\nСчетчик досчитал до %ld\r\n"
 101              		.loc 1 15 16 discriminator 1
 102 0052 00BF     		nop
 103 0054 E7E7     		b	.L2
 104              	.L4:
 105 0056 00BF     		.align	2
 106              	.L3:
 107 0058 00100140 		.word	1073811456
 108 005c 00000000 		.word	Counter
 109 0060 00000000 		.word	.LC0
 110 0064 00000000 		.word	Text
 111 0068 00380140 		.word	1073821696
 112              		.cfi_endproc
 113              	.LFE68:
 115              		.text
 116              	.Letext0:
 117              		.file 2 "C:\\ST\\tools\\gnu-tools-for-stm32.12.3\\tools\\bin\\../lib/gcc/arm-none-eabi/12.3.1/../.
 118              		.file 3 "C:\\ST\\tools\\gnu-tools-for-stm32.12.3\\tools\\bin\\../lib/gcc/arm-none-eabi/12.3.1/../.
 119              		.file 4 "Drivers/CMSIS/stm32f103xb.h"
 120              		.file 5 "Core/Inc/stm32f103xx_CMSIS.h"
 121              		.file 6 "C:\\ST\\tools\\gnu-tools-for-stm32.12.3\\tools\\bin\\../lib/gcc/arm-none-eabi/12.3.1/incl
 122              		.file 7 "C:\\ST\\tools\\gnu-tools-for-stm32.12.3\\tools\\bin\\../lib/gcc/arm-none-eabi/12.3.1/../.
 123              		.file 8 "C:\\ST\\tools\\gnu-tools-for-stm32.12.3\\tools\\bin\\../lib/gcc/arm-none-eabi/12.3.1/../.
ARM GAS  C:\Users\SOLDER~1\AppData\Local\Temp\ccVvc6MW.s 			page 4

