ARM GAS  C:\Users\SOLDER~1\AppData\Local\Temp\ccYNa8lU.s 			page 1


   1              		.cpu cortex-m3
   2              		.arch armv7-m
   3              		.fpu softvfp
   4              		.eabi_attribute 20, 1
   5              		.eabi_attribute 21, 1
   6              		.eabi_attribute 23, 3
   7              		.eabi_attribute 24, 1
   8              		.eabi_attribute 25, 1
   9              		.eabi_attribute 26, 1
  10              		.eabi_attribute 30, 6
  11              		.eabi_attribute 34, 1
  12              		.eabi_attribute 18, 4
  13              		.file	"syscalls.c"
  14              		.text
  15              	.Ltext0:
  16              		.cfi_sections	.debug_frame
  17              		.global	__env
  18              		.section	.bss.__env,"aw",%nobits
  19              		.align	2
  22              	__env:
  23 0000 00000000 		.space	4
  24              		.global	environ
  25              		.section	.data.environ,"aw"
  26              		.align	2
  29              	environ:
  30 0000 00000000 		.word	__env
  31              		.section	.text.initialise_monitor_handles,"ax",%progbits
  32              		.align	1
  33              		.global	initialise_monitor_handles
  34              		.syntax unified
  35              		.thumb
  36              		.thumb_func
  38              	initialise_monitor_handles:
  39              	.LFB25:
  40              		.file 1 "Core/Src/syscalls.c"
   1:Core/Src/syscalls.c **** /**
   2:Core/Src/syscalls.c ****  ******************************************************************************
   3:Core/Src/syscalls.c ****  * @file      syscalls.c
   4:Core/Src/syscalls.c ****  * @author    Auto-generated by STM32CubeIDE
   5:Core/Src/syscalls.c ****  * @brief     STM32CubeIDE Minimal System calls file
   6:Core/Src/syscalls.c ****  *
   7:Core/Src/syscalls.c ****  *            For more information about which c-functions
   8:Core/Src/syscalls.c ****  *            need which of these lowlevel functions
   9:Core/Src/syscalls.c ****  *            please consult the Newlib libc-manual
  10:Core/Src/syscalls.c ****  ******************************************************************************
  11:Core/Src/syscalls.c ****  * @attention
  12:Core/Src/syscalls.c ****  *
  13:Core/Src/syscalls.c ****  * <h2><center>&copy; Copyright (c) 2020 STMicroelectronics.
  14:Core/Src/syscalls.c ****  * All rights reserved.</center></h2>
  15:Core/Src/syscalls.c ****  *
  16:Core/Src/syscalls.c ****  * This software component is licensed by ST under BSD 3-Clause license,
  17:Core/Src/syscalls.c ****  * the "License"; You may not use this file except in compliance with the
  18:Core/Src/syscalls.c ****  * License. You may obtain a copy of the License at:
  19:Core/Src/syscalls.c ****  *                        opensource.org/licenses/BSD-3-Clause
  20:Core/Src/syscalls.c ****  *
  21:Core/Src/syscalls.c ****  ******************************************************************************
  22:Core/Src/syscalls.c ****  */
ARM GAS  C:\Users\SOLDER~1\AppData\Local\Temp\ccYNa8lU.s 			page 2


  23:Core/Src/syscalls.c **** 
  24:Core/Src/syscalls.c **** /* Includes */
  25:Core/Src/syscalls.c **** #include <sys/stat.h>
  26:Core/Src/syscalls.c **** #include <stdlib.h>
  27:Core/Src/syscalls.c **** #include <errno.h>
  28:Core/Src/syscalls.c **** #include <stdio.h>
  29:Core/Src/syscalls.c **** #include <signal.h>
  30:Core/Src/syscalls.c **** #include <time.h>
  31:Core/Src/syscalls.c **** #include <sys/time.h>
  32:Core/Src/syscalls.c **** #include <sys/times.h>
  33:Core/Src/syscalls.c **** 
  34:Core/Src/syscalls.c **** 
  35:Core/Src/syscalls.c **** /* Variables */
  36:Core/Src/syscalls.c **** extern int __io_putchar(int ch) __attribute__((weak));
  37:Core/Src/syscalls.c **** extern int __io_getchar(void) __attribute__((weak));
  38:Core/Src/syscalls.c **** 
  39:Core/Src/syscalls.c **** 
  40:Core/Src/syscalls.c **** char *__env[1] = { 0 };
  41:Core/Src/syscalls.c **** char **environ = __env;
  42:Core/Src/syscalls.c **** 
  43:Core/Src/syscalls.c **** 
  44:Core/Src/syscalls.c **** /* Functions */
  45:Core/Src/syscalls.c **** void initialise_monitor_handles()
  46:Core/Src/syscalls.c **** {
  41              		.loc 1 46 1
  42              		.cfi_startproc
  43              		@ args = 0, pretend = 0, frame = 0
  44              		@ frame_needed = 1, uses_anonymous_args = 0
  45              		@ link register save eliminated.
  46 0000 80B4     		push	{r7}
  47              	.LCFI0:
  48              		.cfi_def_cfa_offset 4
  49              		.cfi_offset 7, -4
  50 0002 00AF     		add	r7, sp, #0
  51              	.LCFI1:
  52              		.cfi_def_cfa_register 7
  47:Core/Src/syscalls.c **** }
  53              		.loc 1 47 1
  54 0004 00BF     		nop
  55 0006 BD46     		mov	sp, r7
  56              	.LCFI2:
  57              		.cfi_def_cfa_register 13
  58              		@ sp needed
  59 0008 80BC     		pop	{r7}
  60              	.LCFI3:
  61              		.cfi_restore 7
  62              		.cfi_def_cfa_offset 0
  63 000a 7047     		bx	lr
  64              		.cfi_endproc
  65              	.LFE25:
  67              		.section	.text._getpid,"ax",%progbits
  68              		.align	1
  69              		.global	_getpid
  70              		.syntax unified
  71              		.thumb
  72              		.thumb_func
  74              	_getpid:
ARM GAS  C:\Users\SOLDER~1\AppData\Local\Temp\ccYNa8lU.s 			page 3


  75              	.LFB26:
  48:Core/Src/syscalls.c **** 
  49:Core/Src/syscalls.c **** int _getpid(void)
  50:Core/Src/syscalls.c **** {
  76              		.loc 1 50 1
  77              		.cfi_startproc
  78              		@ args = 0, pretend = 0, frame = 0
  79              		@ frame_needed = 1, uses_anonymous_args = 0
  80              		@ link register save eliminated.
  81 0000 80B4     		push	{r7}
  82              	.LCFI4:
  83              		.cfi_def_cfa_offset 4
  84              		.cfi_offset 7, -4
  85 0002 00AF     		add	r7, sp, #0
  86              	.LCFI5:
  87              		.cfi_def_cfa_register 7
  51:Core/Src/syscalls.c **** 	return 1;
  88              		.loc 1 51 9
  89 0004 0123     		movs	r3, #1
  52:Core/Src/syscalls.c **** }
  90              		.loc 1 52 1
  91 0006 1846     		mov	r0, r3
  92 0008 BD46     		mov	sp, r7
  93              	.LCFI6:
  94              		.cfi_def_cfa_register 13
  95              		@ sp needed
  96 000a 80BC     		pop	{r7}
  97              	.LCFI7:
  98              		.cfi_restore 7
  99              		.cfi_def_cfa_offset 0
 100 000c 7047     		bx	lr
 101              		.cfi_endproc
 102              	.LFE26:
 104              		.section	.text._kill,"ax",%progbits
 105              		.align	1
 106              		.global	_kill
 107              		.syntax unified
 108              		.thumb
 109              		.thumb_func
 111              	_kill:
 112              	.LFB27:
  53:Core/Src/syscalls.c **** 
  54:Core/Src/syscalls.c **** int _kill(int pid, int sig)
  55:Core/Src/syscalls.c **** {
 113              		.loc 1 55 1
 114              		.cfi_startproc
 115              		@ args = 0, pretend = 0, frame = 8
 116              		@ frame_needed = 1, uses_anonymous_args = 0
 117 0000 80B5     		push	{r7, lr}
 118              	.LCFI8:
 119              		.cfi_def_cfa_offset 8
 120              		.cfi_offset 7, -8
 121              		.cfi_offset 14, -4
 122 0002 82B0     		sub	sp, sp, #8
 123              	.LCFI9:
 124              		.cfi_def_cfa_offset 16
 125 0004 00AF     		add	r7, sp, #0
ARM GAS  C:\Users\SOLDER~1\AppData\Local\Temp\ccYNa8lU.s 			page 4


 126              	.LCFI10:
 127              		.cfi_def_cfa_register 7
 128 0006 7860     		str	r0, [r7, #4]
 129 0008 3960     		str	r1, [r7]
  56:Core/Src/syscalls.c **** 	errno = EINVAL;
 130              		.loc 1 56 2
 131 000a FFF7FEFF 		bl	__errno
 132 000e 0346     		mov	r3, r0
 133              		.loc 1 56 8
 134 0010 1622     		movs	r2, #22
 135 0012 1A60     		str	r2, [r3]
  57:Core/Src/syscalls.c **** 	return -1;
 136              		.loc 1 57 9
 137 0014 4FF0FF33 		mov	r3, #-1
  58:Core/Src/syscalls.c **** }
 138              		.loc 1 58 1
 139 0018 1846     		mov	r0, r3
 140 001a 0837     		adds	r7, r7, #8
 141              	.LCFI11:
 142              		.cfi_def_cfa_offset 8
 143 001c BD46     		mov	sp, r7
 144              	.LCFI12:
 145              		.cfi_def_cfa_register 13
 146              		@ sp needed
 147 001e 80BD     		pop	{r7, pc}
 148              		.cfi_endproc
 149              	.LFE27:
 151              		.section	.text._exit,"ax",%progbits
 152              		.align	1
 153              		.global	_exit
 154              		.syntax unified
 155              		.thumb
 156              		.thumb_func
 158              	_exit:
 159              	.LFB28:
  59:Core/Src/syscalls.c **** 
  60:Core/Src/syscalls.c **** void _exit (int status)
  61:Core/Src/syscalls.c **** {
 160              		.loc 1 61 1
 161              		.cfi_startproc
 162              		@ args = 0, pretend = 0, frame = 8
 163              		@ frame_needed = 1, uses_anonymous_args = 0
 164 0000 80B5     		push	{r7, lr}
 165              	.LCFI13:
 166              		.cfi_def_cfa_offset 8
 167              		.cfi_offset 7, -8
 168              		.cfi_offset 14, -4
 169 0002 82B0     		sub	sp, sp, #8
 170              	.LCFI14:
 171              		.cfi_def_cfa_offset 16
 172 0004 00AF     		add	r7, sp, #0
 173              	.LCFI15:
 174              		.cfi_def_cfa_register 7
 175 0006 7860     		str	r0, [r7, #4]
  62:Core/Src/syscalls.c **** 	_kill(status, -1);
 176              		.loc 1 62 2
 177 0008 4FF0FF31 		mov	r1, #-1
ARM GAS  C:\Users\SOLDER~1\AppData\Local\Temp\ccYNa8lU.s 			page 5


 178 000c 7868     		ldr	r0, [r7, #4]
 179 000e FFF7FEFF 		bl	_kill
 180              	.L7:
  63:Core/Src/syscalls.c **** 	while (1) {}		/* Make sure we hang here */
 181              		.loc 1 63 8 discriminator 1
 182 0012 FEE7     		b	.L7
 183              		.cfi_endproc
 184              	.LFE28:
 186              		.section	.text._read,"ax",%progbits
 187              		.align	1
 188              		.weak	_read
 189              		.syntax unified
 190              		.thumb
 191              		.thumb_func
 193              	_read:
 194              	.LFB29:
  64:Core/Src/syscalls.c **** }
  65:Core/Src/syscalls.c **** 
  66:Core/Src/syscalls.c **** __attribute__((weak)) int _read(int file, char *ptr, int len)
  67:Core/Src/syscalls.c **** {
 195              		.loc 1 67 1
 196              		.cfi_startproc
 197              		@ args = 0, pretend = 0, frame = 24
 198              		@ frame_needed = 1, uses_anonymous_args = 0
 199 0000 80B5     		push	{r7, lr}
 200              	.LCFI16:
 201              		.cfi_def_cfa_offset 8
 202              		.cfi_offset 7, -8
 203              		.cfi_offset 14, -4
 204 0002 86B0     		sub	sp, sp, #24
 205              	.LCFI17:
 206              		.cfi_def_cfa_offset 32
 207 0004 00AF     		add	r7, sp, #0
 208              	.LCFI18:
 209              		.cfi_def_cfa_register 7
 210 0006 F860     		str	r0, [r7, #12]
 211 0008 B960     		str	r1, [r7, #8]
 212 000a 7A60     		str	r2, [r7, #4]
  68:Core/Src/syscalls.c **** 	int DataIdx;
  69:Core/Src/syscalls.c **** 
  70:Core/Src/syscalls.c **** 	for (DataIdx = 0; DataIdx < len; DataIdx++)
 213              		.loc 1 70 15
 214 000c 0023     		movs	r3, #0
 215 000e 7B61     		str	r3, [r7, #20]
 216              		.loc 1 70 2
 217 0010 0AE0     		b	.L9
 218              	.L10:
  71:Core/Src/syscalls.c **** 	{
  72:Core/Src/syscalls.c **** 		*ptr++ = __io_getchar();
 219              		.loc 1 72 12 discriminator 3
 220 0012 FFF7FEFF 		bl	__io_getchar
 221 0016 0146     		mov	r1, r0
 222              		.loc 1 72 7 discriminator 3
 223 0018 BB68     		ldr	r3, [r7, #8]
 224 001a 5A1C     		adds	r2, r3, #1
 225 001c BA60     		str	r2, [r7, #8]
 226              		.loc 1 72 10 discriminator 3
ARM GAS  C:\Users\SOLDER~1\AppData\Local\Temp\ccYNa8lU.s 			page 6


 227 001e CAB2     		uxtb	r2, r1
 228 0020 1A70     		strb	r2, [r3]
  70:Core/Src/syscalls.c **** 	{
 229              		.loc 1 70 42 discriminator 3
 230 0022 7B69     		ldr	r3, [r7, #20]
 231 0024 0133     		adds	r3, r3, #1
 232 0026 7B61     		str	r3, [r7, #20]
 233              	.L9:
  70:Core/Src/syscalls.c **** 	{
 234              		.loc 1 70 2 discriminator 1
 235 0028 7A69     		ldr	r2, [r7, #20]
 236 002a 7B68     		ldr	r3, [r7, #4]
 237 002c 9A42     		cmp	r2, r3
 238 002e F0DB     		blt	.L10
  73:Core/Src/syscalls.c **** 	}
  74:Core/Src/syscalls.c **** 
  75:Core/Src/syscalls.c **** return len;
 239              		.loc 1 75 8
 240 0030 7B68     		ldr	r3, [r7, #4]
  76:Core/Src/syscalls.c **** }
 241              		.loc 1 76 1
 242 0032 1846     		mov	r0, r3
 243 0034 1837     		adds	r7, r7, #24
 244              	.LCFI19:
 245              		.cfi_def_cfa_offset 8
 246 0036 BD46     		mov	sp, r7
 247              	.LCFI20:
 248              		.cfi_def_cfa_register 13
 249              		@ sp needed
 250 0038 80BD     		pop	{r7, pc}
 251              		.cfi_endproc
 252              	.LFE29:
 254              		.section	.text._write,"ax",%progbits
 255              		.align	1
 256              		.weak	_write
 257              		.syntax unified
 258              		.thumb
 259              		.thumb_func
 261              	_write:
 262              	.LFB30:
  77:Core/Src/syscalls.c **** 
  78:Core/Src/syscalls.c **** __attribute__((weak)) int _write(int file, char *ptr, int len)
  79:Core/Src/syscalls.c **** {
 263              		.loc 1 79 1
 264              		.cfi_startproc
 265              		@ args = 0, pretend = 0, frame = 24
 266              		@ frame_needed = 1, uses_anonymous_args = 0
 267 0000 80B5     		push	{r7, lr}
 268              	.LCFI21:
 269              		.cfi_def_cfa_offset 8
 270              		.cfi_offset 7, -8
 271              		.cfi_offset 14, -4
 272 0002 86B0     		sub	sp, sp, #24
 273              	.LCFI22:
 274              		.cfi_def_cfa_offset 32
 275 0004 00AF     		add	r7, sp, #0
 276              	.LCFI23:
ARM GAS  C:\Users\SOLDER~1\AppData\Local\Temp\ccYNa8lU.s 			page 7


 277              		.cfi_def_cfa_register 7
 278 0006 F860     		str	r0, [r7, #12]
 279 0008 B960     		str	r1, [r7, #8]
 280 000a 7A60     		str	r2, [r7, #4]
  80:Core/Src/syscalls.c **** 	int DataIdx;
  81:Core/Src/syscalls.c **** 
  82:Core/Src/syscalls.c **** 	for (DataIdx = 0; DataIdx < len; DataIdx++)
 281              		.loc 1 82 15
 282 000c 0023     		movs	r3, #0
 283 000e 7B61     		str	r3, [r7, #20]
 284              		.loc 1 82 2
 285 0010 09E0     		b	.L13
 286              	.L14:
  83:Core/Src/syscalls.c **** 	{
  84:Core/Src/syscalls.c **** 		__io_putchar(*ptr++);
 287              		.loc 1 84 20 discriminator 3
 288 0012 BB68     		ldr	r3, [r7, #8]
 289 0014 5A1C     		adds	r2, r3, #1
 290 0016 BA60     		str	r2, [r7, #8]
 291              		.loc 1 84 16 discriminator 3
 292 0018 1B78     		ldrb	r3, [r3]	@ zero_extendqisi2
 293              		.loc 1 84 3 discriminator 3
 294 001a 1846     		mov	r0, r3
 295 001c FFF7FEFF 		bl	__io_putchar
  82:Core/Src/syscalls.c **** 	{
 296              		.loc 1 82 42 discriminator 3
 297 0020 7B69     		ldr	r3, [r7, #20]
 298 0022 0133     		adds	r3, r3, #1
 299 0024 7B61     		str	r3, [r7, #20]
 300              	.L13:
  82:Core/Src/syscalls.c **** 	{
 301              		.loc 1 82 2 discriminator 1
 302 0026 7A69     		ldr	r2, [r7, #20]
 303 0028 7B68     		ldr	r3, [r7, #4]
 304 002a 9A42     		cmp	r2, r3
 305 002c F1DB     		blt	.L14
  85:Core/Src/syscalls.c **** 	}
  86:Core/Src/syscalls.c **** 	return len;
 306              		.loc 1 86 9
 307 002e 7B68     		ldr	r3, [r7, #4]
  87:Core/Src/syscalls.c **** }
 308              		.loc 1 87 1
 309 0030 1846     		mov	r0, r3
 310 0032 1837     		adds	r7, r7, #24
 311              	.LCFI24:
 312              		.cfi_def_cfa_offset 8
 313 0034 BD46     		mov	sp, r7
 314              	.LCFI25:
 315              		.cfi_def_cfa_register 13
 316              		@ sp needed
 317 0036 80BD     		pop	{r7, pc}
 318              		.cfi_endproc
 319              	.LFE30:
 321              		.section	.text._close,"ax",%progbits
 322              		.align	1
 323              		.global	_close
 324              		.syntax unified
ARM GAS  C:\Users\SOLDER~1\AppData\Local\Temp\ccYNa8lU.s 			page 8


 325              		.thumb
 326              		.thumb_func
 328              	_close:
 329              	.LFB31:
  88:Core/Src/syscalls.c **** 
  89:Core/Src/syscalls.c **** int _close(int file)
  90:Core/Src/syscalls.c **** {
 330              		.loc 1 90 1
 331              		.cfi_startproc
 332              		@ args = 0, pretend = 0, frame = 8
 333              		@ frame_needed = 1, uses_anonymous_args = 0
 334              		@ link register save eliminated.
 335 0000 80B4     		push	{r7}
 336              	.LCFI26:
 337              		.cfi_def_cfa_offset 4
 338              		.cfi_offset 7, -4
 339 0002 83B0     		sub	sp, sp, #12
 340              	.LCFI27:
 341              		.cfi_def_cfa_offset 16
 342 0004 00AF     		add	r7, sp, #0
 343              	.LCFI28:
 344              		.cfi_def_cfa_register 7
 345 0006 7860     		str	r0, [r7, #4]
  91:Core/Src/syscalls.c **** 	return -1;
 346              		.loc 1 91 9
 347 0008 4FF0FF33 		mov	r3, #-1
  92:Core/Src/syscalls.c **** }
 348              		.loc 1 92 1
 349 000c 1846     		mov	r0, r3
 350 000e 0C37     		adds	r7, r7, #12
 351              	.LCFI29:
 352              		.cfi_def_cfa_offset 4
 353 0010 BD46     		mov	sp, r7
 354              	.LCFI30:
 355              		.cfi_def_cfa_register 13
 356              		@ sp needed
 357 0012 80BC     		pop	{r7}
 358              	.LCFI31:
 359              		.cfi_restore 7
 360              		.cfi_def_cfa_offset 0
 361 0014 7047     		bx	lr
 362              		.cfi_endproc
 363              	.LFE31:
 365              		.section	.text._fstat,"ax",%progbits
 366              		.align	1
 367              		.global	_fstat
 368              		.syntax unified
 369              		.thumb
 370              		.thumb_func
 372              	_fstat:
 373              	.LFB32:
  93:Core/Src/syscalls.c **** 
  94:Core/Src/syscalls.c **** 
  95:Core/Src/syscalls.c **** int _fstat(int file, struct stat *st)
  96:Core/Src/syscalls.c **** {
 374              		.loc 1 96 1
 375              		.cfi_startproc
ARM GAS  C:\Users\SOLDER~1\AppData\Local\Temp\ccYNa8lU.s 			page 9


 376              		@ args = 0, pretend = 0, frame = 8
 377              		@ frame_needed = 1, uses_anonymous_args = 0
 378              		@ link register save eliminated.
 379 0000 80B4     		push	{r7}
 380              	.LCFI32:
 381              		.cfi_def_cfa_offset 4
 382              		.cfi_offset 7, -4
 383 0002 83B0     		sub	sp, sp, #12
 384              	.LCFI33:
 385              		.cfi_def_cfa_offset 16
 386 0004 00AF     		add	r7, sp, #0
 387              	.LCFI34:
 388              		.cfi_def_cfa_register 7
 389 0006 7860     		str	r0, [r7, #4]
 390 0008 3960     		str	r1, [r7]
  97:Core/Src/syscalls.c **** 	st->st_mode = S_IFCHR;
 391              		.loc 1 97 14
 392 000a 3B68     		ldr	r3, [r7]
 393 000c 4FF40052 		mov	r2, #8192
 394 0010 5A60     		str	r2, [r3, #4]
  98:Core/Src/syscalls.c **** 	return 0;
 395              		.loc 1 98 9
 396 0012 0023     		movs	r3, #0
  99:Core/Src/syscalls.c **** }
 397              		.loc 1 99 1
 398 0014 1846     		mov	r0, r3
 399 0016 0C37     		adds	r7, r7, #12
 400              	.LCFI35:
 401              		.cfi_def_cfa_offset 4
 402 0018 BD46     		mov	sp, r7
 403              	.LCFI36:
 404              		.cfi_def_cfa_register 13
 405              		@ sp needed
 406 001a 80BC     		pop	{r7}
 407              	.LCFI37:
 408              		.cfi_restore 7
 409              		.cfi_def_cfa_offset 0
 410 001c 7047     		bx	lr
 411              		.cfi_endproc
 412              	.LFE32:
 414              		.section	.text._isatty,"ax",%progbits
 415              		.align	1
 416              		.global	_isatty
 417              		.syntax unified
 418              		.thumb
 419              		.thumb_func
 421              	_isatty:
 422              	.LFB33:
 100:Core/Src/syscalls.c **** 
 101:Core/Src/syscalls.c **** int _isatty(int file)
 102:Core/Src/syscalls.c **** {
 423              		.loc 1 102 1
 424              		.cfi_startproc
 425              		@ args = 0, pretend = 0, frame = 8
 426              		@ frame_needed = 1, uses_anonymous_args = 0
 427              		@ link register save eliminated.
 428 0000 80B4     		push	{r7}
ARM GAS  C:\Users\SOLDER~1\AppData\Local\Temp\ccYNa8lU.s 			page 10


 429              	.LCFI38:
 430              		.cfi_def_cfa_offset 4
 431              		.cfi_offset 7, -4
 432 0002 83B0     		sub	sp, sp, #12
 433              	.LCFI39:
 434              		.cfi_def_cfa_offset 16
 435 0004 00AF     		add	r7, sp, #0
 436              	.LCFI40:
 437              		.cfi_def_cfa_register 7
 438 0006 7860     		str	r0, [r7, #4]
 103:Core/Src/syscalls.c **** 	return 1;
 439              		.loc 1 103 9
 440 0008 0123     		movs	r3, #1
 104:Core/Src/syscalls.c **** }
 441              		.loc 1 104 1
 442 000a 1846     		mov	r0, r3
 443 000c 0C37     		adds	r7, r7, #12
 444              	.LCFI41:
 445              		.cfi_def_cfa_offset 4
 446 000e BD46     		mov	sp, r7
 447              	.LCFI42:
 448              		.cfi_def_cfa_register 13
 449              		@ sp needed
 450 0010 80BC     		pop	{r7}
 451              	.LCFI43:
 452              		.cfi_restore 7
 453              		.cfi_def_cfa_offset 0
 454 0012 7047     		bx	lr
 455              		.cfi_endproc
 456              	.LFE33:
 458              		.section	.text._lseek,"ax",%progbits
 459              		.align	1
 460              		.global	_lseek
 461              		.syntax unified
 462              		.thumb
 463              		.thumb_func
 465              	_lseek:
 466              	.LFB34:
 105:Core/Src/syscalls.c **** 
 106:Core/Src/syscalls.c **** int _lseek(int file, int ptr, int dir)
 107:Core/Src/syscalls.c **** {
 467              		.loc 1 107 1
 468              		.cfi_startproc
 469              		@ args = 0, pretend = 0, frame = 16
 470              		@ frame_needed = 1, uses_anonymous_args = 0
 471              		@ link register save eliminated.
 472 0000 80B4     		push	{r7}
 473              	.LCFI44:
 474              		.cfi_def_cfa_offset 4
 475              		.cfi_offset 7, -4
 476 0002 85B0     		sub	sp, sp, #20
 477              	.LCFI45:
 478              		.cfi_def_cfa_offset 24
 479 0004 00AF     		add	r7, sp, #0
 480              	.LCFI46:
 481              		.cfi_def_cfa_register 7
 482 0006 F860     		str	r0, [r7, #12]
ARM GAS  C:\Users\SOLDER~1\AppData\Local\Temp\ccYNa8lU.s 			page 11


 483 0008 B960     		str	r1, [r7, #8]
 484 000a 7A60     		str	r2, [r7, #4]
 108:Core/Src/syscalls.c **** 	return 0;
 485              		.loc 1 108 9
 486 000c 0023     		movs	r3, #0
 109:Core/Src/syscalls.c **** }
 487              		.loc 1 109 1
 488 000e 1846     		mov	r0, r3
 489 0010 1437     		adds	r7, r7, #20
 490              	.LCFI47:
 491              		.cfi_def_cfa_offset 4
 492 0012 BD46     		mov	sp, r7
 493              	.LCFI48:
 494              		.cfi_def_cfa_register 13
 495              		@ sp needed
 496 0014 80BC     		pop	{r7}
 497              	.LCFI49:
 498              		.cfi_restore 7
 499              		.cfi_def_cfa_offset 0
 500 0016 7047     		bx	lr
 501              		.cfi_endproc
 502              	.LFE34:
 504              		.section	.text._open,"ax",%progbits
 505              		.align	1
 506              		.global	_open
 507              		.syntax unified
 508              		.thumb
 509              		.thumb_func
 511              	_open:
 512              	.LFB35:
 110:Core/Src/syscalls.c **** 
 111:Core/Src/syscalls.c **** int _open(char *path, int flags, ...)
 112:Core/Src/syscalls.c **** {
 513              		.loc 1 112 1
 514              		.cfi_startproc
 515              		@ args = 4, pretend = 12, frame = 8
 516              		@ frame_needed = 1, uses_anonymous_args = 1
 517              		@ link register save eliminated.
 518 0000 0EB4     		push	{r1, r2, r3}
 519              	.LCFI50:
 520              		.cfi_def_cfa_offset 12
 521              		.cfi_offset 1, -12
 522              		.cfi_offset 2, -8
 523              		.cfi_offset 3, -4
 524 0002 80B4     		push	{r7}
 525              	.LCFI51:
 526              		.cfi_def_cfa_offset 16
 527              		.cfi_offset 7, -16
 528 0004 82B0     		sub	sp, sp, #8
 529              	.LCFI52:
 530              		.cfi_def_cfa_offset 24
 531 0006 00AF     		add	r7, sp, #0
 532              	.LCFI53:
 533              		.cfi_def_cfa_register 7
 534 0008 7860     		str	r0, [r7, #4]
 113:Core/Src/syscalls.c **** 	/* Pretend like we always fail */
 114:Core/Src/syscalls.c **** 	return -1;
ARM GAS  C:\Users\SOLDER~1\AppData\Local\Temp\ccYNa8lU.s 			page 12


 535              		.loc 1 114 9
 536 000a 4FF0FF33 		mov	r3, #-1
 115:Core/Src/syscalls.c **** }
 537              		.loc 1 115 1
 538 000e 1846     		mov	r0, r3
 539 0010 0837     		adds	r7, r7, #8
 540              	.LCFI54:
 541              		.cfi_def_cfa_offset 16
 542 0012 BD46     		mov	sp, r7
 543              	.LCFI55:
 544              		.cfi_def_cfa_register 13
 545              		@ sp needed
 546 0014 80BC     		pop	{r7}
 547              	.LCFI56:
 548              		.cfi_restore 7
 549              		.cfi_def_cfa_offset 12
 550 0016 03B0     		add	sp, sp, #12
 551              	.LCFI57:
 552              		.cfi_restore 3
 553              		.cfi_restore 2
 554              		.cfi_restore 1
 555              		.cfi_def_cfa_offset 0
 556 0018 7047     		bx	lr
 557              		.cfi_endproc
 558              	.LFE35:
 560              		.section	.text._wait,"ax",%progbits
 561              		.align	1
 562              		.global	_wait
 563              		.syntax unified
 564              		.thumb
 565              		.thumb_func
 567              	_wait:
 568              	.LFB36:
 116:Core/Src/syscalls.c **** 
 117:Core/Src/syscalls.c **** int _wait(int *status)
 118:Core/Src/syscalls.c **** {
 569              		.loc 1 118 1
 570              		.cfi_startproc
 571              		@ args = 0, pretend = 0, frame = 8
 572              		@ frame_needed = 1, uses_anonymous_args = 0
 573 0000 80B5     		push	{r7, lr}
 574              	.LCFI58:
 575              		.cfi_def_cfa_offset 8
 576              		.cfi_offset 7, -8
 577              		.cfi_offset 14, -4
 578 0002 82B0     		sub	sp, sp, #8
 579              	.LCFI59:
 580              		.cfi_def_cfa_offset 16
 581 0004 00AF     		add	r7, sp, #0
 582              	.LCFI60:
 583              		.cfi_def_cfa_register 7
 584 0006 7860     		str	r0, [r7, #4]
 119:Core/Src/syscalls.c **** 	errno = ECHILD;
 585              		.loc 1 119 2
 586 0008 FFF7FEFF 		bl	__errno
 587 000c 0346     		mov	r3, r0
 588              		.loc 1 119 8
ARM GAS  C:\Users\SOLDER~1\AppData\Local\Temp\ccYNa8lU.s 			page 13


 589 000e 0A22     		movs	r2, #10
 590 0010 1A60     		str	r2, [r3]
 120:Core/Src/syscalls.c **** 	return -1;
 591              		.loc 1 120 9
 592 0012 4FF0FF33 		mov	r3, #-1
 121:Core/Src/syscalls.c **** }
 593              		.loc 1 121 1
 594 0016 1846     		mov	r0, r3
 595 0018 0837     		adds	r7, r7, #8
 596              	.LCFI61:
 597              		.cfi_def_cfa_offset 8
 598 001a BD46     		mov	sp, r7
 599              	.LCFI62:
 600              		.cfi_def_cfa_register 13
 601              		@ sp needed
 602 001c 80BD     		pop	{r7, pc}
 603              		.cfi_endproc
 604              	.LFE36:
 606              		.section	.text._unlink,"ax",%progbits
 607              		.align	1
 608              		.global	_unlink
 609              		.syntax unified
 610              		.thumb
 611              		.thumb_func
 613              	_unlink:
 614              	.LFB37:
 122:Core/Src/syscalls.c **** 
 123:Core/Src/syscalls.c **** int _unlink(char *name)
 124:Core/Src/syscalls.c **** {
 615              		.loc 1 124 1
 616              		.cfi_startproc
 617              		@ args = 0, pretend = 0, frame = 8
 618              		@ frame_needed = 1, uses_anonymous_args = 0
 619 0000 80B5     		push	{r7, lr}
 620              	.LCFI63:
 621              		.cfi_def_cfa_offset 8
 622              		.cfi_offset 7, -8
 623              		.cfi_offset 14, -4
 624 0002 82B0     		sub	sp, sp, #8
 625              	.LCFI64:
 626              		.cfi_def_cfa_offset 16
 627 0004 00AF     		add	r7, sp, #0
 628              	.LCFI65:
 629              		.cfi_def_cfa_register 7
 630 0006 7860     		str	r0, [r7, #4]
 125:Core/Src/syscalls.c **** 	errno = ENOENT;
 631              		.loc 1 125 2
 632 0008 FFF7FEFF 		bl	__errno
 633 000c 0346     		mov	r3, r0
 634              		.loc 1 125 8
 635 000e 0222     		movs	r2, #2
 636 0010 1A60     		str	r2, [r3]
 126:Core/Src/syscalls.c **** 	return -1;
 637              		.loc 1 126 9
 638 0012 4FF0FF33 		mov	r3, #-1
 127:Core/Src/syscalls.c **** }
 639              		.loc 1 127 1
ARM GAS  C:\Users\SOLDER~1\AppData\Local\Temp\ccYNa8lU.s 			page 14


 640 0016 1846     		mov	r0, r3
 641 0018 0837     		adds	r7, r7, #8
 642              	.LCFI66:
 643              		.cfi_def_cfa_offset 8
 644 001a BD46     		mov	sp, r7
 645              	.LCFI67:
 646              		.cfi_def_cfa_register 13
 647              		@ sp needed
 648 001c 80BD     		pop	{r7, pc}
 649              		.cfi_endproc
 650              	.LFE37:
 652              		.section	.text._times,"ax",%progbits
 653              		.align	1
 654              		.global	_times
 655              		.syntax unified
 656              		.thumb
 657              		.thumb_func
 659              	_times:
 660              	.LFB38:
 128:Core/Src/syscalls.c **** 
 129:Core/Src/syscalls.c **** int _times(struct tms *buf)
 130:Core/Src/syscalls.c **** {
 661              		.loc 1 130 1
 662              		.cfi_startproc
 663              		@ args = 0, pretend = 0, frame = 8
 664              		@ frame_needed = 1, uses_anonymous_args = 0
 665              		@ link register save eliminated.
 666 0000 80B4     		push	{r7}
 667              	.LCFI68:
 668              		.cfi_def_cfa_offset 4
 669              		.cfi_offset 7, -4
 670 0002 83B0     		sub	sp, sp, #12
 671              	.LCFI69:
 672              		.cfi_def_cfa_offset 16
 673 0004 00AF     		add	r7, sp, #0
 674              	.LCFI70:
 675              		.cfi_def_cfa_register 7
 676 0006 7860     		str	r0, [r7, #4]
 131:Core/Src/syscalls.c **** 	return -1;
 677              		.loc 1 131 9
 678 0008 4FF0FF33 		mov	r3, #-1
 132:Core/Src/syscalls.c **** }
 679              		.loc 1 132 1
 680 000c 1846     		mov	r0, r3
 681 000e 0C37     		adds	r7, r7, #12
 682              	.LCFI71:
 683              		.cfi_def_cfa_offset 4
 684 0010 BD46     		mov	sp, r7
 685              	.LCFI72:
 686              		.cfi_def_cfa_register 13
 687              		@ sp needed
 688 0012 80BC     		pop	{r7}
 689              	.LCFI73:
 690              		.cfi_restore 7
 691              		.cfi_def_cfa_offset 0
 692 0014 7047     		bx	lr
 693              		.cfi_endproc
ARM GAS  C:\Users\SOLDER~1\AppData\Local\Temp\ccYNa8lU.s 			page 15


 694              	.LFE38:
 696              		.section	.text._stat,"ax",%progbits
 697              		.align	1
 698              		.global	_stat
 699              		.syntax unified
 700              		.thumb
 701              		.thumb_func
 703              	_stat:
 704              	.LFB39:
 133:Core/Src/syscalls.c **** 
 134:Core/Src/syscalls.c **** int _stat(char *file, struct stat *st)
 135:Core/Src/syscalls.c **** {
 705              		.loc 1 135 1
 706              		.cfi_startproc
 707              		@ args = 0, pretend = 0, frame = 8
 708              		@ frame_needed = 1, uses_anonymous_args = 0
 709              		@ link register save eliminated.
 710 0000 80B4     		push	{r7}
 711              	.LCFI74:
 712              		.cfi_def_cfa_offset 4
 713              		.cfi_offset 7, -4
 714 0002 83B0     		sub	sp, sp, #12
 715              	.LCFI75:
 716              		.cfi_def_cfa_offset 16
 717 0004 00AF     		add	r7, sp, #0
 718              	.LCFI76:
 719              		.cfi_def_cfa_register 7
 720 0006 7860     		str	r0, [r7, #4]
 721 0008 3960     		str	r1, [r7]
 136:Core/Src/syscalls.c **** 	st->st_mode = S_IFCHR;
 722              		.loc 1 136 14
 723 000a 3B68     		ldr	r3, [r7]
 724 000c 4FF40052 		mov	r2, #8192
 725 0010 5A60     		str	r2, [r3, #4]
 137:Core/Src/syscalls.c **** 	return 0;
 726              		.loc 1 137 9
 727 0012 0023     		movs	r3, #0
 138:Core/Src/syscalls.c **** }
 728              		.loc 1 138 1
 729 0014 1846     		mov	r0, r3
 730 0016 0C37     		adds	r7, r7, #12
 731              	.LCFI77:
 732              		.cfi_def_cfa_offset 4
 733 0018 BD46     		mov	sp, r7
 734              	.LCFI78:
 735              		.cfi_def_cfa_register 13
 736              		@ sp needed
 737 001a 80BC     		pop	{r7}
 738              	.LCFI79:
 739              		.cfi_restore 7
 740              		.cfi_def_cfa_offset 0
 741 001c 7047     		bx	lr
 742              		.cfi_endproc
 743              	.LFE39:
 745              		.section	.text._link,"ax",%progbits
 746              		.align	1
 747              		.global	_link
ARM GAS  C:\Users\SOLDER~1\AppData\Local\Temp\ccYNa8lU.s 			page 16


 748              		.syntax unified
 749              		.thumb
 750              		.thumb_func
 752              	_link:
 753              	.LFB40:
 139:Core/Src/syscalls.c **** 
 140:Core/Src/syscalls.c **** int _link(char *old, char *new)
 141:Core/Src/syscalls.c **** {
 754              		.loc 1 141 1
 755              		.cfi_startproc
 756              		@ args = 0, pretend = 0, frame = 8
 757              		@ frame_needed = 1, uses_anonymous_args = 0
 758 0000 80B5     		push	{r7, lr}
 759              	.LCFI80:
 760              		.cfi_def_cfa_offset 8
 761              		.cfi_offset 7, -8
 762              		.cfi_offset 14, -4
 763 0002 82B0     		sub	sp, sp, #8
 764              	.LCFI81:
 765              		.cfi_def_cfa_offset 16
 766 0004 00AF     		add	r7, sp, #0
 767              	.LCFI82:
 768              		.cfi_def_cfa_register 7
 769 0006 7860     		str	r0, [r7, #4]
 770 0008 3960     		str	r1, [r7]
 142:Core/Src/syscalls.c **** 	errno = EMLINK;
 771              		.loc 1 142 2
 772 000a FFF7FEFF 		bl	__errno
 773 000e 0346     		mov	r3, r0
 774              		.loc 1 142 8
 775 0010 1F22     		movs	r2, #31
 776 0012 1A60     		str	r2, [r3]
 143:Core/Src/syscalls.c **** 	return -1;
 777              		.loc 1 143 9
 778 0014 4FF0FF33 		mov	r3, #-1
 144:Core/Src/syscalls.c **** }
 779              		.loc 1 144 1
 780 0018 1846     		mov	r0, r3
 781 001a 0837     		adds	r7, r7, #8
 782              	.LCFI83:
 783              		.cfi_def_cfa_offset 8
 784 001c BD46     		mov	sp, r7
 785              	.LCFI84:
 786              		.cfi_def_cfa_register 13
 787              		@ sp needed
 788 001e 80BD     		pop	{r7, pc}
 789              		.cfi_endproc
 790              	.LFE40:
 792              		.section	.text._fork,"ax",%progbits
 793              		.align	1
 794              		.global	_fork
 795              		.syntax unified
 796              		.thumb
 797              		.thumb_func
 799              	_fork:
 800              	.LFB41:
 145:Core/Src/syscalls.c **** 
ARM GAS  C:\Users\SOLDER~1\AppData\Local\Temp\ccYNa8lU.s 			page 17


 146:Core/Src/syscalls.c **** int _fork(void)
 147:Core/Src/syscalls.c **** {
 801              		.loc 1 147 1
 802              		.cfi_startproc
 803              		@ args = 0, pretend = 0, frame = 0
 804              		@ frame_needed = 1, uses_anonymous_args = 0
 805 0000 80B5     		push	{r7, lr}
 806              	.LCFI85:
 807              		.cfi_def_cfa_offset 8
 808              		.cfi_offset 7, -8
 809              		.cfi_offset 14, -4
 810 0002 00AF     		add	r7, sp, #0
 811              	.LCFI86:
 812              		.cfi_def_cfa_register 7
 148:Core/Src/syscalls.c **** 	errno = EAGAIN;
 813              		.loc 1 148 2
 814 0004 FFF7FEFF 		bl	__errno
 815 0008 0346     		mov	r3, r0
 816              		.loc 1 148 8
 817 000a 0B22     		movs	r2, #11
 818 000c 1A60     		str	r2, [r3]
 149:Core/Src/syscalls.c **** 	return -1;
 819              		.loc 1 149 9
 820 000e 4FF0FF33 		mov	r3, #-1
 150:Core/Src/syscalls.c **** }
 821              		.loc 1 150 1
 822 0012 1846     		mov	r0, r3
 823 0014 80BD     		pop	{r7, pc}
 824              		.cfi_endproc
 825              	.LFE41:
 827              		.section	.text._execve,"ax",%progbits
 828              		.align	1
 829              		.global	_execve
 830              		.syntax unified
 831              		.thumb
 832              		.thumb_func
 834              	_execve:
 835              	.LFB42:
 151:Core/Src/syscalls.c **** 
 152:Core/Src/syscalls.c **** int _execve(char *name, char **argv, char **env)
 153:Core/Src/syscalls.c **** {
 836              		.loc 1 153 1
 837              		.cfi_startproc
 838              		@ args = 0, pretend = 0, frame = 16
 839              		@ frame_needed = 1, uses_anonymous_args = 0
 840 0000 80B5     		push	{r7, lr}
 841              	.LCFI87:
 842              		.cfi_def_cfa_offset 8
 843              		.cfi_offset 7, -8
 844              		.cfi_offset 14, -4
 845 0002 84B0     		sub	sp, sp, #16
 846              	.LCFI88:
 847              		.cfi_def_cfa_offset 24
 848 0004 00AF     		add	r7, sp, #0
 849              	.LCFI89:
 850              		.cfi_def_cfa_register 7
 851 0006 F860     		str	r0, [r7, #12]
ARM GAS  C:\Users\SOLDER~1\AppData\Local\Temp\ccYNa8lU.s 			page 18


 852 0008 B960     		str	r1, [r7, #8]
 853 000a 7A60     		str	r2, [r7, #4]
 154:Core/Src/syscalls.c **** 	errno = ENOMEM;
 854              		.loc 1 154 2
 855 000c FFF7FEFF 		bl	__errno
 856 0010 0346     		mov	r3, r0
 857              		.loc 1 154 8
 858 0012 0C22     		movs	r2, #12
 859 0014 1A60     		str	r2, [r3]
 155:Core/Src/syscalls.c **** 	return -1;
 860              		.loc 1 155 9
 861 0016 4FF0FF33 		mov	r3, #-1
 156:Core/Src/syscalls.c **** }
 862              		.loc 1 156 1
 863 001a 1846     		mov	r0, r3
 864 001c 1037     		adds	r7, r7, #16
 865              	.LCFI90:
 866              		.cfi_def_cfa_offset 8
 867 001e BD46     		mov	sp, r7
 868              	.LCFI91:
 869              		.cfi_def_cfa_register 13
 870              		@ sp needed
 871 0020 80BD     		pop	{r7, pc}
 872              		.cfi_endproc
 873              	.LFE42:
 875              		.weak	__io_putchar
 876              		.weak	__io_getchar
 877              		.text
 878              	.Letext0:
 879              		.file 2 "c:\\st\\tools\\gcc-arm-none-eabi-10.3-2021.10\\arm-none-eabi\\include\\machine\\_default_
 880              		.file 3 "c:\\st\\tools\\gcc-arm-none-eabi-10.3-2021.10\\arm-none-eabi\\include\\sys\\_types.h"
 881              		.file 4 "c:\\st\\tools\\gcc-arm-none-eabi-10.3-2021.10\\arm-none-eabi\\include\\sys\\_timeval.h"
 882              		.file 5 "c:\\st\\tools\\gcc-arm-none-eabi-10.3-2021.10\\arm-none-eabi\\include\\sys\\_timespec.h"
 883              		.file 6 "c:\\st\\tools\\gcc-arm-none-eabi-10.3-2021.10\\arm-none-eabi\\include\\sys\\types.h"
 884              		.file 7 "c:\\st\\tools\\gcc-arm-none-eabi-10.3-2021.10\\arm-none-eabi\\include\\sys\\stat.h"
 885              		.file 8 "c:\\st\\tools\\gcc-arm-none-eabi-10.3-2021.10\\arm-none-eabi\\include\\sys\\times.h"
ARM GAS  C:\Users\SOLDER~1\AppData\Local\Temp\ccYNa8lU.s 			page 19

