ARM GAS  C:\Users\SOLDER~1\AppData\Local\Temp\ccHMajgM.s 			page 1


   1              		.cpu cortex-m3
   2              		.arch armv7-m
   3              		.fpu softvfp
   4              		.eabi_attribute 20, 1
   5              		.eabi_attribute 21, 1
   6              		.eabi_attribute 23, 3
   7              		.eabi_attribute 24, 1
   8              		.eabi_attribute 25, 1
   9              		.eabi_attribute 26, 1
  10              		.eabi_attribute 30, 6
  11              		.eabi_attribute 34, 1
  12              		.eabi_attribute 18, 4
  13              		.file	"stm32l1xx_it.c"
  14              		.text
  15              	.Ltext0:
  16              		.cfi_sections	.debug_frame
  17              		.section	.text.NMI_Handler,"ax",%progbits
  18              		.align	1
  19              		.global	NMI_Handler
  20              		.syntax unified
  21              		.thumb
  22              		.thumb_func
  24              	NMI_Handler:
  25              	.LFB72:
  26              		.file 1 "Core/Src/stm32l1xx_it.c"
   1:Core/Src/stm32l1xx_it.c **** /* USER CODE BEGIN Header */
   2:Core/Src/stm32l1xx_it.c **** /**
   3:Core/Src/stm32l1xx_it.c ****   ******************************************************************************
   4:Core/Src/stm32l1xx_it.c ****   * @file    stm32l1xx_it.c
   5:Core/Src/stm32l1xx_it.c ****   * @brief   Interrupt Service Routines.
   6:Core/Src/stm32l1xx_it.c ****   ******************************************************************************
   7:Core/Src/stm32l1xx_it.c ****   * @attention
   8:Core/Src/stm32l1xx_it.c ****   *
   9:Core/Src/stm32l1xx_it.c ****   * <h2><center>&copy; Copyright (c) 2025 STMicroelectronics.
  10:Core/Src/stm32l1xx_it.c ****   * All rights reserved.</center></h2>
  11:Core/Src/stm32l1xx_it.c ****   *
  12:Core/Src/stm32l1xx_it.c ****   * This software component is licensed by ST under BSD 3-Clause license,
  13:Core/Src/stm32l1xx_it.c ****   * the "License"; You may not use this file except in compliance with the
  14:Core/Src/stm32l1xx_it.c ****   * License. You may obtain a copy of the License at:
  15:Core/Src/stm32l1xx_it.c ****   *                        opensource.org/licenses/BSD-3-Clause
  16:Core/Src/stm32l1xx_it.c ****   *
  17:Core/Src/stm32l1xx_it.c ****   ******************************************************************************
  18:Core/Src/stm32l1xx_it.c ****   */
  19:Core/Src/stm32l1xx_it.c **** /* USER CODE END Header */
  20:Core/Src/stm32l1xx_it.c **** 
  21:Core/Src/stm32l1xx_it.c **** /* Includes ------------------------------------------------------------------*/
  22:Core/Src/stm32l1xx_it.c **** #include "main.h"
  23:Core/Src/stm32l1xx_it.c **** #include "stm32l1xx_it.h"
  24:Core/Src/stm32l1xx_it.c **** /* Private includes ----------------------------------------------------------*/
  25:Core/Src/stm32l1xx_it.c **** /* USER CODE BEGIN Includes */
  26:Core/Src/stm32l1xx_it.c **** /* USER CODE END Includes */
  27:Core/Src/stm32l1xx_it.c **** 
  28:Core/Src/stm32l1xx_it.c **** /* Private typedef -----------------------------------------------------------*/
  29:Core/Src/stm32l1xx_it.c **** /* USER CODE BEGIN TD */
  30:Core/Src/stm32l1xx_it.c **** 
  31:Core/Src/stm32l1xx_it.c **** /* USER CODE END TD */
  32:Core/Src/stm32l1xx_it.c **** 
ARM GAS  C:\Users\SOLDER~1\AppData\Local\Temp\ccHMajgM.s 			page 2


  33:Core/Src/stm32l1xx_it.c **** /* Private define ------------------------------------------------------------*/
  34:Core/Src/stm32l1xx_it.c **** /* USER CODE BEGIN PD */
  35:Core/Src/stm32l1xx_it.c **** 
  36:Core/Src/stm32l1xx_it.c **** /* USER CODE END PD */
  37:Core/Src/stm32l1xx_it.c **** 
  38:Core/Src/stm32l1xx_it.c **** /* Private macro -------------------------------------------------------------*/
  39:Core/Src/stm32l1xx_it.c **** /* USER CODE BEGIN PM */
  40:Core/Src/stm32l1xx_it.c **** 
  41:Core/Src/stm32l1xx_it.c **** /* USER CODE END PM */
  42:Core/Src/stm32l1xx_it.c **** 
  43:Core/Src/stm32l1xx_it.c **** /* Private variables ---------------------------------------------------------*/
  44:Core/Src/stm32l1xx_it.c **** /* USER CODE BEGIN PV */
  45:Core/Src/stm32l1xx_it.c **** 
  46:Core/Src/stm32l1xx_it.c **** /* USER CODE END PV */
  47:Core/Src/stm32l1xx_it.c **** 
  48:Core/Src/stm32l1xx_it.c **** /* Private function prototypes -----------------------------------------------*/
  49:Core/Src/stm32l1xx_it.c **** /* USER CODE BEGIN PFP */
  50:Core/Src/stm32l1xx_it.c **** 
  51:Core/Src/stm32l1xx_it.c **** /* USER CODE END PFP */
  52:Core/Src/stm32l1xx_it.c **** 
  53:Core/Src/stm32l1xx_it.c **** /* Private user code ---------------------------------------------------------*/
  54:Core/Src/stm32l1xx_it.c **** /* USER CODE BEGIN 0 */
  55:Core/Src/stm32l1xx_it.c **** 
  56:Core/Src/stm32l1xx_it.c **** /* USER CODE END 0 */
  57:Core/Src/stm32l1xx_it.c **** 
  58:Core/Src/stm32l1xx_it.c **** /* External variables --------------------------------------------------------*/
  59:Core/Src/stm32l1xx_it.c **** 
  60:Core/Src/stm32l1xx_it.c **** /* USER CODE BEGIN EV */
  61:Core/Src/stm32l1xx_it.c **** 
  62:Core/Src/stm32l1xx_it.c **** /* USER CODE END EV */
  63:Core/Src/stm32l1xx_it.c **** 
  64:Core/Src/stm32l1xx_it.c **** /******************************************************************************/
  65:Core/Src/stm32l1xx_it.c **** /*           Cortex-M3 Processor Interruption and Exception Handlers          */
  66:Core/Src/stm32l1xx_it.c **** /******************************************************************************/
  67:Core/Src/stm32l1xx_it.c **** /**
  68:Core/Src/stm32l1xx_it.c ****   * @brief This function handles Non maskable interrupt.
  69:Core/Src/stm32l1xx_it.c ****   */
  70:Core/Src/stm32l1xx_it.c **** void NMI_Handler(void)
  71:Core/Src/stm32l1xx_it.c **** {
  27              		.loc 1 71 1
  28              		.cfi_startproc
  29              		@ args = 0, pretend = 0, frame = 0
  30              		@ frame_needed = 1, uses_anonymous_args = 0
  31              		@ link register save eliminated.
  32 0000 80B4     		push	{r7}
  33              		.cfi_def_cfa_offset 4
  34              		.cfi_offset 7, -4
  35 0002 00AF     		add	r7, sp, #0
  36              		.cfi_def_cfa_register 7
  37              	.L2:
  72:Core/Src/stm32l1xx_it.c ****   /* USER CODE BEGIN NonMaskableInt_IRQn 0 */
  73:Core/Src/stm32l1xx_it.c **** 
  74:Core/Src/stm32l1xx_it.c ****   /* USER CODE END NonMaskableInt_IRQn 0 */
  75:Core/Src/stm32l1xx_it.c ****   /* USER CODE BEGIN NonMaskableInt_IRQn 1 */
  76:Core/Src/stm32l1xx_it.c ****   while (1)
  38              		.loc 1 76 9 discriminator 1
  39 0004 FEE7     		b	.L2
ARM GAS  C:\Users\SOLDER~1\AppData\Local\Temp\ccHMajgM.s 			page 3


  40              		.cfi_endproc
  41              	.LFE72:
  43              		.section	.text.HardFault_Handler,"ax",%progbits
  44              		.align	1
  45              		.global	HardFault_Handler
  46              		.syntax unified
  47              		.thumb
  48              		.thumb_func
  50              	HardFault_Handler:
  51              	.LFB73:
  77:Core/Src/stm32l1xx_it.c ****   {
  78:Core/Src/stm32l1xx_it.c ****   }
  79:Core/Src/stm32l1xx_it.c ****   /* USER CODE END NonMaskableInt_IRQn 1 */
  80:Core/Src/stm32l1xx_it.c **** }
  81:Core/Src/stm32l1xx_it.c **** 
  82:Core/Src/stm32l1xx_it.c **** /**
  83:Core/Src/stm32l1xx_it.c ****   * @brief This function handles Hard fault interrupt.
  84:Core/Src/stm32l1xx_it.c ****   */
  85:Core/Src/stm32l1xx_it.c **** void HardFault_Handler(void)
  86:Core/Src/stm32l1xx_it.c **** {
  52              		.loc 1 86 1
  53              		.cfi_startproc
  54              		@ args = 0, pretend = 0, frame = 0
  55              		@ frame_needed = 1, uses_anonymous_args = 0
  56              		@ link register save eliminated.
  57 0000 80B4     		push	{r7}
  58              		.cfi_def_cfa_offset 4
  59              		.cfi_offset 7, -4
  60 0002 00AF     		add	r7, sp, #0
  61              		.cfi_def_cfa_register 7
  62              	.L4:
  87:Core/Src/stm32l1xx_it.c ****   /* USER CODE BEGIN HardFault_IRQn 0 */
  88:Core/Src/stm32l1xx_it.c **** 
  89:Core/Src/stm32l1xx_it.c ****   /* USER CODE END HardFault_IRQn 0 */
  90:Core/Src/stm32l1xx_it.c ****   while (1)
  63              		.loc 1 90 9 discriminator 1
  64 0004 FEE7     		b	.L4
  65              		.cfi_endproc
  66              	.LFE73:
  68              		.section	.text.MemManage_Handler,"ax",%progbits
  69              		.align	1
  70              		.global	MemManage_Handler
  71              		.syntax unified
  72              		.thumb
  73              		.thumb_func
  75              	MemManage_Handler:
  76              	.LFB74:
  91:Core/Src/stm32l1xx_it.c ****   {
  92:Core/Src/stm32l1xx_it.c ****     /* USER CODE BEGIN W1_HardFault_IRQn 0 */
  93:Core/Src/stm32l1xx_it.c ****     /* USER CODE END W1_HardFault_IRQn 0 */
  94:Core/Src/stm32l1xx_it.c ****   }
  95:Core/Src/stm32l1xx_it.c **** }
  96:Core/Src/stm32l1xx_it.c **** 
  97:Core/Src/stm32l1xx_it.c **** /**
  98:Core/Src/stm32l1xx_it.c ****   * @brief This function handles Memory management fault.
  99:Core/Src/stm32l1xx_it.c ****   */
 100:Core/Src/stm32l1xx_it.c **** void MemManage_Handler(void)
ARM GAS  C:\Users\SOLDER~1\AppData\Local\Temp\ccHMajgM.s 			page 4


 101:Core/Src/stm32l1xx_it.c **** {
  77              		.loc 1 101 1
  78              		.cfi_startproc
  79              		@ args = 0, pretend = 0, frame = 0
  80              		@ frame_needed = 1, uses_anonymous_args = 0
  81              		@ link register save eliminated.
  82 0000 80B4     		push	{r7}
  83              		.cfi_def_cfa_offset 4
  84              		.cfi_offset 7, -4
  85 0002 00AF     		add	r7, sp, #0
  86              		.cfi_def_cfa_register 7
  87              	.L6:
 102:Core/Src/stm32l1xx_it.c ****   /* USER CODE BEGIN MemoryManagement_IRQn 0 */
 103:Core/Src/stm32l1xx_it.c **** 
 104:Core/Src/stm32l1xx_it.c ****   /* USER CODE END MemoryManagement_IRQn 0 */
 105:Core/Src/stm32l1xx_it.c ****   while (1)
  88              		.loc 1 105 9 discriminator 1
  89 0004 FEE7     		b	.L6
  90              		.cfi_endproc
  91              	.LFE74:
  93              		.section	.text.BusFault_Handler,"ax",%progbits
  94              		.align	1
  95              		.global	BusFault_Handler
  96              		.syntax unified
  97              		.thumb
  98              		.thumb_func
 100              	BusFault_Handler:
 101              	.LFB75:
 106:Core/Src/stm32l1xx_it.c ****   {
 107:Core/Src/stm32l1xx_it.c ****     /* USER CODE BEGIN W1_MemoryManagement_IRQn 0 */
 108:Core/Src/stm32l1xx_it.c ****     /* USER CODE END W1_MemoryManagement_IRQn 0 */
 109:Core/Src/stm32l1xx_it.c ****   }
 110:Core/Src/stm32l1xx_it.c **** }
 111:Core/Src/stm32l1xx_it.c **** 
 112:Core/Src/stm32l1xx_it.c **** /**
 113:Core/Src/stm32l1xx_it.c ****   * @brief This function handles Pre-fetch fault, memory access fault.
 114:Core/Src/stm32l1xx_it.c ****   */
 115:Core/Src/stm32l1xx_it.c **** void BusFault_Handler(void)
 116:Core/Src/stm32l1xx_it.c **** {
 102              		.loc 1 116 1
 103              		.cfi_startproc
 104              		@ args = 0, pretend = 0, frame = 0
 105              		@ frame_needed = 1, uses_anonymous_args = 0
 106              		@ link register save eliminated.
 107 0000 80B4     		push	{r7}
 108              		.cfi_def_cfa_offset 4
 109              		.cfi_offset 7, -4
 110 0002 00AF     		add	r7, sp, #0
 111              		.cfi_def_cfa_register 7
 112              	.L8:
 117:Core/Src/stm32l1xx_it.c ****   /* USER CODE BEGIN BusFault_IRQn 0 */
 118:Core/Src/stm32l1xx_it.c **** 
 119:Core/Src/stm32l1xx_it.c ****   /* USER CODE END BusFault_IRQn 0 */
 120:Core/Src/stm32l1xx_it.c ****   while (1)
 113              		.loc 1 120 9 discriminator 1
 114 0004 FEE7     		b	.L8
 115              		.cfi_endproc
ARM GAS  C:\Users\SOLDER~1\AppData\Local\Temp\ccHMajgM.s 			page 5


 116              	.LFE75:
 118              		.section	.text.UsageFault_Handler,"ax",%progbits
 119              		.align	1
 120              		.global	UsageFault_Handler
 121              		.syntax unified
 122              		.thumb
 123              		.thumb_func
 125              	UsageFault_Handler:
 126              	.LFB76:
 121:Core/Src/stm32l1xx_it.c ****   {
 122:Core/Src/stm32l1xx_it.c ****     /* USER CODE BEGIN W1_BusFault_IRQn 0 */
 123:Core/Src/stm32l1xx_it.c ****     /* USER CODE END W1_BusFault_IRQn 0 */
 124:Core/Src/stm32l1xx_it.c ****   }
 125:Core/Src/stm32l1xx_it.c **** }
 126:Core/Src/stm32l1xx_it.c **** 
 127:Core/Src/stm32l1xx_it.c **** /**
 128:Core/Src/stm32l1xx_it.c ****   * @brief This function handles Undefined instruction or illegal state.
 129:Core/Src/stm32l1xx_it.c ****   */
 130:Core/Src/stm32l1xx_it.c **** void UsageFault_Handler(void)
 131:Core/Src/stm32l1xx_it.c **** {
 127              		.loc 1 131 1
 128              		.cfi_startproc
 129              		@ args = 0, pretend = 0, frame = 0
 130              		@ frame_needed = 1, uses_anonymous_args = 0
 131              		@ link register save eliminated.
 132 0000 80B4     		push	{r7}
 133              		.cfi_def_cfa_offset 4
 134              		.cfi_offset 7, -4
 135 0002 00AF     		add	r7, sp, #0
 136              		.cfi_def_cfa_register 7
 137              	.L10:
 132:Core/Src/stm32l1xx_it.c ****   /* USER CODE BEGIN UsageFault_IRQn 0 */
 133:Core/Src/stm32l1xx_it.c **** 
 134:Core/Src/stm32l1xx_it.c ****   /* USER CODE END UsageFault_IRQn 0 */
 135:Core/Src/stm32l1xx_it.c ****   while (1)
 138              		.loc 1 135 9 discriminator 1
 139 0004 FEE7     		b	.L10
 140              		.cfi_endproc
 141              	.LFE76:
 143              		.section	.text.SVC_Handler,"ax",%progbits
 144              		.align	1
 145              		.global	SVC_Handler
 146              		.syntax unified
 147              		.thumb
 148              		.thumb_func
 150              	SVC_Handler:
 151              	.LFB77:
 136:Core/Src/stm32l1xx_it.c ****   {
 137:Core/Src/stm32l1xx_it.c ****     /* USER CODE BEGIN W1_UsageFault_IRQn 0 */
 138:Core/Src/stm32l1xx_it.c ****     /* USER CODE END W1_UsageFault_IRQn 0 */
 139:Core/Src/stm32l1xx_it.c ****   }
 140:Core/Src/stm32l1xx_it.c **** }
 141:Core/Src/stm32l1xx_it.c **** 
 142:Core/Src/stm32l1xx_it.c **** /**
 143:Core/Src/stm32l1xx_it.c ****   * @brief This function handles System service call via SWI instruction.
 144:Core/Src/stm32l1xx_it.c ****   */
 145:Core/Src/stm32l1xx_it.c **** void SVC_Handler(void)
ARM GAS  C:\Users\SOLDER~1\AppData\Local\Temp\ccHMajgM.s 			page 6


 146:Core/Src/stm32l1xx_it.c **** {
 152              		.loc 1 146 1
 153              		.cfi_startproc
 154              		@ args = 0, pretend = 0, frame = 0
 155              		@ frame_needed = 1, uses_anonymous_args = 0
 156              		@ link register save eliminated.
 157 0000 80B4     		push	{r7}
 158              		.cfi_def_cfa_offset 4
 159              		.cfi_offset 7, -4
 160 0002 00AF     		add	r7, sp, #0
 161              		.cfi_def_cfa_register 7
 147:Core/Src/stm32l1xx_it.c ****   /* USER CODE BEGIN SVC_IRQn 0 */
 148:Core/Src/stm32l1xx_it.c **** 
 149:Core/Src/stm32l1xx_it.c ****   /* USER CODE END SVC_IRQn 0 */
 150:Core/Src/stm32l1xx_it.c ****   /* USER CODE BEGIN SVC_IRQn 1 */
 151:Core/Src/stm32l1xx_it.c **** 
 152:Core/Src/stm32l1xx_it.c ****   /* USER CODE END SVC_IRQn 1 */
 153:Core/Src/stm32l1xx_it.c **** }
 162              		.loc 1 153 1
 163 0004 00BF     		nop
 164 0006 BD46     		mov	sp, r7
 165              		.cfi_def_cfa_register 13
 166              		@ sp needed
 167 0008 80BC     		pop	{r7}
 168              		.cfi_restore 7
 169              		.cfi_def_cfa_offset 0
 170 000a 7047     		bx	lr
 171              		.cfi_endproc
 172              	.LFE77:
 174              		.section	.text.DebugMon_Handler,"ax",%progbits
 175              		.align	1
 176              		.global	DebugMon_Handler
 177              		.syntax unified
 178              		.thumb
 179              		.thumb_func
 181              	DebugMon_Handler:
 182              	.LFB78:
 154:Core/Src/stm32l1xx_it.c **** 
 155:Core/Src/stm32l1xx_it.c **** /**
 156:Core/Src/stm32l1xx_it.c ****   * @brief This function handles Debug monitor.
 157:Core/Src/stm32l1xx_it.c ****   */
 158:Core/Src/stm32l1xx_it.c **** void DebugMon_Handler(void)
 159:Core/Src/stm32l1xx_it.c **** {
 183              		.loc 1 159 1
 184              		.cfi_startproc
 185              		@ args = 0, pretend = 0, frame = 0
 186              		@ frame_needed = 1, uses_anonymous_args = 0
 187              		@ link register save eliminated.
 188 0000 80B4     		push	{r7}
 189              		.cfi_def_cfa_offset 4
 190              		.cfi_offset 7, -4
 191 0002 00AF     		add	r7, sp, #0
 192              		.cfi_def_cfa_register 7
 160:Core/Src/stm32l1xx_it.c ****   /* USER CODE BEGIN DebugMonitor_IRQn 0 */
 161:Core/Src/stm32l1xx_it.c **** 
 162:Core/Src/stm32l1xx_it.c ****   /* USER CODE END DebugMonitor_IRQn 0 */
 163:Core/Src/stm32l1xx_it.c ****   /* USER CODE BEGIN DebugMonitor_IRQn 1 */
ARM GAS  C:\Users\SOLDER~1\AppData\Local\Temp\ccHMajgM.s 			page 7


 164:Core/Src/stm32l1xx_it.c **** 
 165:Core/Src/stm32l1xx_it.c ****   /* USER CODE END DebugMonitor_IRQn 1 */
 166:Core/Src/stm32l1xx_it.c **** }
 193              		.loc 1 166 1
 194 0004 00BF     		nop
 195 0006 BD46     		mov	sp, r7
 196              		.cfi_def_cfa_register 13
 197              		@ sp needed
 198 0008 80BC     		pop	{r7}
 199              		.cfi_restore 7
 200              		.cfi_def_cfa_offset 0
 201 000a 7047     		bx	lr
 202              		.cfi_endproc
 203              	.LFE78:
 205              		.section	.text.PendSV_Handler,"ax",%progbits
 206              		.align	1
 207              		.global	PendSV_Handler
 208              		.syntax unified
 209              		.thumb
 210              		.thumb_func
 212              	PendSV_Handler:
 213              	.LFB79:
 167:Core/Src/stm32l1xx_it.c **** 
 168:Core/Src/stm32l1xx_it.c **** /**
 169:Core/Src/stm32l1xx_it.c ****   * @brief This function handles Pendable request for system service.
 170:Core/Src/stm32l1xx_it.c ****   */
 171:Core/Src/stm32l1xx_it.c **** void PendSV_Handler(void)
 172:Core/Src/stm32l1xx_it.c **** {
 214              		.loc 1 172 1
 215              		.cfi_startproc
 216              		@ args = 0, pretend = 0, frame = 0
 217              		@ frame_needed = 1, uses_anonymous_args = 0
 218              		@ link register save eliminated.
 219 0000 80B4     		push	{r7}
 220              		.cfi_def_cfa_offset 4
 221              		.cfi_offset 7, -4
 222 0002 00AF     		add	r7, sp, #0
 223              		.cfi_def_cfa_register 7
 173:Core/Src/stm32l1xx_it.c ****   /* USER CODE BEGIN PendSV_IRQn 0 */
 174:Core/Src/stm32l1xx_it.c **** 
 175:Core/Src/stm32l1xx_it.c ****   /* USER CODE END PendSV_IRQn 0 */
 176:Core/Src/stm32l1xx_it.c ****   /* USER CODE BEGIN PendSV_IRQn 1 */
 177:Core/Src/stm32l1xx_it.c **** 
 178:Core/Src/stm32l1xx_it.c ****   /* USER CODE END PendSV_IRQn 1 */
 179:Core/Src/stm32l1xx_it.c **** }
 224              		.loc 1 179 1
 225 0004 00BF     		nop
 226 0006 BD46     		mov	sp, r7
 227              		.cfi_def_cfa_register 13
 228              		@ sp needed
 229 0008 80BC     		pop	{r7}
 230              		.cfi_restore 7
 231              		.cfi_def_cfa_offset 0
 232 000a 7047     		bx	lr
 233              		.cfi_endproc
 234              	.LFE79:
 236              		.section	.text.SysTick_Handler,"ax",%progbits
ARM GAS  C:\Users\SOLDER~1\AppData\Local\Temp\ccHMajgM.s 			page 8


 237              		.align	1
 238              		.global	SysTick_Handler
 239              		.syntax unified
 240              		.thumb
 241              		.thumb_func
 243              	SysTick_Handler:
 244              	.LFB80:
 180:Core/Src/stm32l1xx_it.c **** 
 181:Core/Src/stm32l1xx_it.c **** /**
 182:Core/Src/stm32l1xx_it.c ****   * @brief This function handles System tick timer.
 183:Core/Src/stm32l1xx_it.c ****   */
 184:Core/Src/stm32l1xx_it.c **** void SysTick_Handler(void)
 185:Core/Src/stm32l1xx_it.c **** {
 245              		.loc 1 185 1
 246              		.cfi_startproc
 247              		@ args = 0, pretend = 0, frame = 0
 248              		@ frame_needed = 1, uses_anonymous_args = 0
 249 0000 80B5     		push	{r7, lr}
 250              		.cfi_def_cfa_offset 8
 251              		.cfi_offset 7, -8
 252              		.cfi_offset 14, -4
 253 0002 00AF     		add	r7, sp, #0
 254              		.cfi_def_cfa_register 7
 186:Core/Src/stm32l1xx_it.c ****   /* USER CODE BEGIN SysTick_IRQn 0 */
 187:Core/Src/stm32l1xx_it.c **** 
 188:Core/Src/stm32l1xx_it.c ****   /* USER CODE END SysTick_IRQn 0 */
 189:Core/Src/stm32l1xx_it.c ****   HAL_IncTick();
 255              		.loc 1 189 3
 256 0004 FFF7FEFF 		bl	HAL_IncTick
 190:Core/Src/stm32l1xx_it.c ****   /* USER CODE BEGIN SysTick_IRQn 1 */
 191:Core/Src/stm32l1xx_it.c **** 
 192:Core/Src/stm32l1xx_it.c ****   /* USER CODE END SysTick_IRQn 1 */
 193:Core/Src/stm32l1xx_it.c **** }
 257              		.loc 1 193 1
 258 0008 00BF     		nop
 259 000a 80BD     		pop	{r7, pc}
 260              		.cfi_endproc
 261              	.LFE80:
 263              		.text
 264              	.Letext0:
ARM GAS  C:\Users\SOLDER~1\AppData\Local\Temp\ccHMajgM.s 			page 9

